	.file	"Storable.c.bc"
	.text
	.globl	is_storing
	.align	16, 0x90
	.type	is_storing,@function
is_storing:                             # @is_storing
	.cfi_startproc
# BB#0:                                 # %entry
	movq	Context_ptr(%rip), %rcx
	movl	(%rcx), %edx
	xorq	%rax, %rax
	testq	%rdx, %rdx
	je	.LBB0_2
# BB#1:                                 # %land.rhs
	movzbl	4(%rcx), %eax
	andq	$1, %rax
.LBB0_2:                                # %land.end
	retq
.Ltmp0:
	.size	is_storing, .Ltmp0-is_storing
	.cfi_endproc

	.globl	is_retrieving
	.align	16, 0x90
	.type	is_retrieving,@function
is_retrieving:                          # @is_retrieving
	.cfi_startproc
# BB#0:                                 # %entry
	movq	Context_ptr(%rip), %rcx
	movl	(%rcx), %edx
	xorq	%rax, %rax
	testq	%rdx, %rdx
	je	.LBB1_2
# BB#1:                                 # %land.rhs
	movzbl	4(%rcx), %eax
	andq	$2, %rax
	movq	$1, %rcx
	shrq	%cl, %rax
.LBB1_2:                                # %land.end
	retq
.Ltmp1:
	.size	is_retrieving, .Ltmp1-is_retrieving
	.cfi_endproc

	.globl	last_op_in_netorder
	.align	16, 0x90
	.type	last_op_in_netorder,@function
last_op_in_netorder:                    # @last_op_in_netorder
	.cfi_startproc
# BB#0:                                 # %entry
	movq	Context_ptr(%rip), %rax
	movl	80(%rax), %eax
	retq
.Ltmp2:
	.size	last_op_in_netorder, .Ltmp2-last_op_in_netorder
	.cfi_endproc

	.globl	pstore
	.align	16, 0x90
	.type	pstore,@function
pstore:                                 # @pstore
	.cfi_startproc
# BB#0:                                 # %entry
	xorq	%rdx, %rdx
	xorq	%rcx, %rcx
	xorq	%r8, %r8
	jmp	do_store  # TAILCALL
.Ltmp3:
	.size	pstore, .Ltmp3-pstore
	.cfi_endproc

	.align	16, 0x90
	.type	do_store,@function
do_store:                               # @do_store
	.cfi_startproc
# BB#0:                                 # %entry
	pushq	%r15
.Ltmp10:
	.cfi_def_cfa_offset 16
	pushq	%r14
.Ltmp11:
	.cfi_def_cfa_offset 24
	pushq	%r13
.Ltmp12:
	.cfi_def_cfa_offset 32
	pushq	%r12
.Ltmp13:
	.cfi_def_cfa_offset 40
	pushq	%rbx
.Ltmp14:
	.cfi_def_cfa_offset 48
	subq	$32, %rsp
.Ltmp15:
	.cfi_def_cfa_offset 80
.Ltmp16:
	.cfi_offset %rbx, -48
.Ltmp17:
	.cfi_offset %r12, -40
.Ltmp18:
	.cfi_offset %r13, -32
.Ltmp19:
	.cfi_offset %r14, -24
.Ltmp20:
	.cfi_offset %r15, -16
	movq	Context_ptr(%rip), %r15
	movl	112(%r15), %eax
	movq	%r8, 8(%rsp)            # 8-byte Spill
	movq	%rcx, 16(%rsp)          # 8-byte Spill
	movq	%rdx, 24(%rsp)          # 8-byte Spill
	movq	%rsi, %r12
	movq	%rdi, %rbx
	testq	%rax, %rax
	je	.LBB4_8
# BB#1:                                 # %if.then
	movl	116(%r15), %eax
	testq	%rax, %rax
	je	.LBB4_3
# BB#2:                                 # %if.then.i
	xorq	%rax, %rax
	movl	%eax, 116(%r15)
	movq	208(%r15), %rax
	movq	%rax, 176(%r15)
	movq	200(%r15), %rax
	movq	%rax, 168(%r15)
	movq	184(%r15), %rax
	movq	192(%r15), %rcx
	movq	%rcx, 160(%r15)
	movq	%rax, 152(%r15)
.LBB4_3:                                # %if.end.i
	movl	4(%r15), %eax
	testq	$2, %rax
	je	.LBB4_5
# BB#4:                                 # %if.then3.i
	movq	%r15, %rdi
	callq	clean_retrieve_context
	jmp	.LBB4_8
.LBB4_5:                                # %if.else.i
	testq	$1, %rax
	je	.LBB4_7
# BB#6:                                 # %if.then7.i
	movq	%r15, %rdi
	callq	clean_store_context
	jmp	.LBB4_8
.LBB4_7:                                # %if.else8.i
	xorq	%rcx, %rcx
	movl	%ecx, (%r15)
	movl	%ecx, 112(%r15)
	movabsq	$4294967292, %rcx       # imm = 0xFFFFFFFC
	andq	%rcx, %rax
	movl	%eax, 4(%r15)
.LBB4_8:                                # %if.end
	movl	(%r15), %eax
	testq	%rax, %rax
	je	.LBB4_10
# BB#9:                                 # %if.then3
	movq	$255, %rdi
	callq	Perl_newSV
	movq	%rax, %r14
	movq	%r14, %rdi
	callq	Perl_newRV_noinc
	movq	%rax, %r13
	movabsq	$.L.str29, %rdi
	movq	$1, %rsi
	callq	Perl_gv_stashpv
	movq	%r13, %rdi
	movq	%rax, %rsi
	callq	Perl_sv_bless
	movq	(%r14), %rax
	movq	%rbx, %r14
	movq	(%rax), %rbx
	xorq	%rsi, %rsi
	movq	$240, %rdx
	movq	%rbx, %rdi
	callq	memset
	movq	%r13, 248(%rbx)
	movq	248(%r15), %rax
	movq	%rax, 240(%rbx)
	movq	%rbx, Context_ptr(%rip)
	movq	%rbx, %r15
	movq	%r14, %rbx
.LBB4_10:                               # %if.end4
	movq	$1, %rax
	movl	%eax, (%r15)
	movzbl	18(%r12), %ecx
	testq	$8, %rcx
	jne	.LBB4_12
# BB#11:                                # %if.then7
	movl	%eax, 112(%r15)
	movabsq	$.L.str64, %rdi
	xorq	%rax, %rax
	callq	Perl_croak
.LBB4_12:                               # %if.end9
	movq	(%r12), %rax
	movq	(%rax), %rax
	movq	%rax, (%rsp)            # 8-byte Spill
	testq	%rbx, %rbx
	jne	.LBB4_17
# BB#13:                                # %if.then11
	movq	%rbx, %r14
	movq	152(%r15), %rax
	testq	%rax, %rax
	je	.LBB4_15
# BB#14:                                # %if.then11.if.end18_crit_edge
	movq	160(%r15), %rbx
	jmp	.LBB4_16
.LBB4_15:                               # %if.then13
	movq	$8192, %rdi             # imm = 0x2000
	movq	$8192, %rbx             # imm = 0x2000
	callq	Perl_safesysmalloc
	movq	%rax, 152(%r15)
	movq	$8192, 160(%r15)        # imm = 0x2000
.LBB4_16:                               # %if.end18
	movq	%rax, 168(%r15)
	addq	%rax, %rbx
	movq	%rbx, 176(%r15)
	movq	%r14, %rbx
.LBB4_17:                               # %if.end27
	movq	24(%rsp), %rcx          # 8-byte Reload
	orq	$1, %rcx
	movq	16(%rsp), %rax          # 8-byte Reload
	movl	%eax, 80(%r15)
	movabsq	$4294967295, %rax       # imm = 0xFFFFFFFF
	movl	%eax, 88(%r15)
	movl	%eax, 92(%r15)
	movq	$0, 96(%r15)
	movl	%eax, 104(%r15)
	movq	$-1, 72(%r15)
	movq	$-1, 64(%r15)
	movq	%rbx, 216(%r15)
	movl	%ecx, 4(%r15)
	movq	$1, %rax
	movl	%eax, (%r15)
	callq	Perl_newHV
	movq	%rax, 8(%r15)
	andq	$-536870913, 16(%rax)   # imm = 0xFFFFFFFFDFFFFFFF
	movq	(%rax), %rax
	movq	$4095, 16(%rax)         # imm = 0xFFF
	callq	Perl_newHV
	movq	%rax, 40(%r15)
	movq	(%rax), %rax
	movq	$4095, 16(%rax)         # imm = 0xFFF
	callq	Perl_newHV
	movq	%rax, 56(%r15)
	callq	Perl_newAV
	movq	%rax, 16(%r15)
	movl	80(%r15), %eax
	testq	%rax, %rax
	jne	.LBB4_18
# BB#19:                                # %if.end27
	movabsq	$1, %rax
	jmp	.LBB4_20
.LBB4_18:
	movabsq	$0, %rax
.LBB4_20:                               # %if.end27
	leaq	6(%rax,%rax,8), %r14
	je	.LBB4_21
# BB#22:                                # %if.end27
	movabsq	$magic_write.network_file_header, %r12
	jmp	.LBB4_23
.LBB4_21:
	movabsq	$magic_write.file_header, %r12
.LBB4_23:                               # %if.end27
	movq	216(%r15), %rdi
	testq	%rdi, %rdi
	je	.LBB4_24
# BB#27:                                # %if.else42.i
	movq	%r12, %rsi
	movq	%r14, %rdx
	callq	Perl_PerlIO_write
	movq	%rax, %rcx
	xorq	%rax, %rax
	cmpq	%r14, %rcx
	jne	.LBB4_37
	jmp	.LBB4_28
.LBB4_24:                               # %if.then6.i
	movq	168(%r15), %r13
	movq	176(%r15), %rax
	addq	$4, %r12
	leaq	-4(%r13,%r14), %rcx
	addq	$-4, %r14
	cmpq	%rax, %rcx
	jbe	.LBB4_26
# BB#25:                                # %if.then9.i
	movq	152(%r15), %rdi
	movq	160(%r15), %rax
	addq	%r14, %rax
	subq	%rdi, %r13
	movq	$32, %rcx
	shlq	%cl, %rax
	movabsq	$35180077121536, %rbx   # imm = 0x1FFF00000000
	addq	%rax, %rbx
	movq	$32, %rcx
	sarq	%cl, %rbx
	andq	$-8192, %rbx            # imm = 0xFFFFFFFFFFFFE000
	movq	%rbx, %rsi
	callq	Perl_safesysrealloc
	movq	%rax, 152(%r15)
	movq	%rbx, 160(%r15)
	movq	$32, %rcx
	shlq	%cl, %r13
	movq	$32, %rcx
	sarq	%cl, %r13
	addq	%rax, %r13
	movq	%r13, 168(%r15)
	addq	%rax, %rbx
	movq	%rbx, 176(%r15)
.LBB4_26:                               # %if.end35.i
	movq	%r13, %rdi
	movq	%r12, %rsi
	movq	%r14, %rdx
	callq	memcpy
	addq	%r14, 168(%r15)
.LBB4_28:                               # %if.end30
	movq	%r15, %rdi
	movq	(%rsp), %rsi            # 8-byte Reload
	callq	store
	cmpq	$0, 216(%r15)
	movq	%rax, %r14
	movq	8(%rsp), %rbx           # 8-byte Reload
	jne	.LBB4_31
# BB#29:                                # %if.end30
	testq	%rbx, %rbx
	je	.LBB4_31
# BB#30:                                # %if.then34
	movq	Context_ptr(%rip), %rax
	movq	152(%rax), %rdi
	movq	168(%rax), %rsi
	subq	%rdi, %rsi
	callq	Perl_newSVpv
	movq	%rax, (%rbx)
.LBB4_31:                               # %if.end36
	movq	%r15, %rdi
	callq	clean_store_context
	movq	240(%r15), %rax
	testq	%rax, %rax
	je	.LBB4_34
# BB#32:                                # %land.lhs.true38
	movzbl	4(%r15), %ecx
	testq	$4, %rcx
	jne	.LBB4_34
# BB#33:                                # %free_context.exit
	movq	(%rax), %rax
	movq	(%rax), %rax
	movq	(%rax), %rax
	movq	(%rax), %rbx
	movq	248(%r15), %rdi
	callq	Perl_sv_free
	movq	%rbx, Context_ptr(%rip)
.LBB4_34:                               # %if.end43
	movabsq	$4294967295, %rax       # imm = 0xFFFFFFFF
	testq	%rax, %r14
	jne	.LBB4_35
# BB#36:                                # %if.end43
	movabsq	$1, %rax
	jmp	.LBB4_37
.LBB4_35:
	movabsq	$0, %rax
.LBB4_37:                               # %return
	addq	$32, %rsp
	popq	%rbx
	popq	%r12
	popq	%r13
	popq	%r14
	popq	%r15
	retq
.Ltmp21:
	.size	do_store, .Ltmp21-do_store
	.cfi_endproc

	.globl	net_pstore
	.align	16, 0x90
	.type	net_pstore,@function
net_pstore:                             # @net_pstore
	.cfi_startproc
# BB#0:                                 # %entry
	xorq	%rdx, %rdx
	movq	$1, %rcx
	xorq	%r8, %r8
	jmp	do_store  # TAILCALL
.Ltmp22:
	.size	net_pstore, .Ltmp22-net_pstore
	.cfi_endproc

	.globl	mstore
	.align	16, 0x90
	.type	mstore,@function
mstore:                                 # @mstore
	.cfi_startproc
# BB#0:                                 # %entry
	pushq	%rax
.Ltmp24:
	.cfi_def_cfa_offset 16
	movq	%rdi, %rax
	leaq	(%rsp), %r8
	xorq	%rdi, %rdi
	xorq	%rdx, %rdx
	xorq	%rcx, %rcx
	movq	%rax, %rsi
	callq	do_store
	movabsq	$4294967295, %rcx       # imm = 0xFFFFFFFF
	testq	%rcx, %rax
	je	.LBB6_1
# BB#2:                                 # %entry
	movq	(%rsp), %rax
	popq	%rdx
	retq
.LBB6_1:
	movabsq	$PL_sv_undef, %rax
	popq	%rdx
	retq
.Ltmp25:
	.size	mstore, .Ltmp25-mstore
	.cfi_endproc

	.globl	net_mstore
	.align	16, 0x90
	.type	net_mstore,@function
net_mstore:                             # @net_mstore
	.cfi_startproc
# BB#0:                                 # %entry
	pushq	%rax
.Ltmp27:
	.cfi_def_cfa_offset 16
	movq	%rdi, %rax
	leaq	(%rsp), %r8
	xorq	%rdi, %rdi
	xorq	%rdx, %rdx
	movq	$1, %rcx
	movq	%rax, %rsi
	callq	do_store
	movabsq	$4294967295, %rcx       # imm = 0xFFFFFFFF
	testq	%rcx, %rax
	je	.LBB7_1
# BB#2:                                 # %entry
	movq	(%rsp), %rax
	popq	%rdx
	retq
.LBB7_1:
	movabsq	$PL_sv_undef, %rax
	popq	%rdx
	retq
.Ltmp28:
	.size	net_mstore, .Ltmp28-net_mstore
	.cfi_endproc

	.globl	pretrieve
	.align	16, 0x90
	.type	pretrieve,@function
pretrieve:                              # @pretrieve
	.cfi_startproc
# BB#0:                                 # %entry
	xorq	%rsi, %rsi
	xorq	%rdx, %rdx
	jmp	do_retrieve  # TAILCALL
.Ltmp29:
	.size	pretrieve, .Ltmp29-pretrieve
	.cfi_endproc

	.align	16, 0x90
	.type	do_retrieve,@function
do_retrieve:                            # @do_retrieve
	.cfi_startproc
# BB#0:                                 # %entry
	pushq	%r15
.Ltmp36:
	.cfi_def_cfa_offset 16
	pushq	%r14
.Ltmp37:
	.cfi_def_cfa_offset 24
	pushq	%r13
.Ltmp38:
	.cfi_def_cfa_offset 32
	pushq	%r12
.Ltmp39:
	.cfi_def_cfa_offset 40
	pushq	%rbx
.Ltmp40:
	.cfi_def_cfa_offset 48
	subq	$320, %rsp              # imm = 0x140
.Ltmp41:
	.cfi_def_cfa_offset 368
.Ltmp42:
	.cfi_offset %rbx, -48
.Ltmp43:
	.cfi_offset %r12, -40
.Ltmp44:
	.cfi_offset %r13, -32
.Ltmp45:
	.cfi_offset %r14, -24
.Ltmp46:
	.cfi_offset %r15, -16
	movq	Context_ptr(%rip), %r14
	movl	112(%r14), %eax
	movq	%rdx, %rbx
	movq	%rsi, %r13
	movq	%rdi, %r15
	testq	%rax, %rax
	je	.LBB9_8
# BB#1:                                 # %if.then
	movl	116(%r14), %eax
	testq	%rax, %rax
	je	.LBB9_3
# BB#2:                                 # %if.then.i
	xorq	%rax, %rax
	movl	%eax, 116(%r14)
	movq	208(%r14), %rax
	movq	%rax, 176(%r14)
	movq	200(%r14), %rax
	movq	%rax, 168(%r14)
	movq	184(%r14), %rax
	movq	192(%r14), %rcx
	movq	%rcx, 160(%r14)
	movq	%rax, 152(%r14)
.LBB9_3:                                # %if.end.i
	movl	4(%r14), %eax
	testq	$2, %rax
	je	.LBB9_5
# BB#4:                                 # %if.then3.i
	movq	%r14, %rdi
	callq	clean_retrieve_context
	jmp	.LBB9_8
.LBB9_5:                                # %if.else.i
	testq	$1, %rax
	je	.LBB9_7
# BB#6:                                 # %if.then7.i
	movq	%r14, %rdi
	callq	clean_store_context
	jmp	.LBB9_8
.LBB9_7:                                # %if.else8.i
	xorq	%rcx, %rcx
	movl	%ecx, (%r14)
	movl	%ecx, 112(%r14)
	movabsq	$4294967292, %rcx       # imm = 0xFFFFFFFC
	andq	%rcx, %rax
	movl	%eax, 4(%r14)
.LBB9_8:                                # %if.end
	movl	(%r14), %eax
	testq	%rax, %rax
	je	.LBB9_10
# BB#9:                                 # %if.then3
	movq	$255, %rdi
	callq	Perl_newSV
	movq	%rax, %r12
	movq	%r12, %rdi
	callq	Perl_newRV_noinc
	movq	%r15, 8(%rsp)           # 8-byte Spill
	movq	%r13, %r15
	movq	%rax, %r13
	movabsq	$.L.str29, %rdi
	movq	$1, %rsi
	callq	Perl_gv_stashpv
	movq	%r13, %rdi
	movq	%rax, %rsi
	callq	Perl_sv_bless
	movq	(%r12), %rax
	movq	%rbx, %r12
	movq	(%rax), %rbx
	xorq	%rsi, %rsi
	movq	$240, %rdx
	movq	%rbx, %rdi
	callq	memset
	movq	%r13, 248(%rbx)
	movq	%r15, %r13
	movq	8(%rsp), %r15           # 8-byte Reload
	movq	248(%r14), %rax
	movq	%rax, 240(%rbx)
	movq	%rbx, Context_ptr(%rip)
	movq	%rbx, %r14
	movq	%r12, %rbx
.LBB9_10:                               # %if.end4
	movq	$1, %rax
	movl	%eax, (%r14)
	cmpq	$0, 120(%r14)
	jne	.LBB9_12
# BB#11:                                # %if.then7
	movq	$128, %rdi
	callq	Perl_safesysmalloc
	movq	%rax, 120(%r14)
	movq	$128, 128(%r14)
.LBB9_12:                               # %if.end12
	testq	%r15, %r15
	jne	.LBB9_30
# BB#13:                                # %if.end12
	testq	%r13, %r13
	je	.LBB9_30
# BB#14:                                # %if.then15
	movq	16(%r13), %rax
	testq	$536870912, %rax        # imm = 0x20000000
	je	.LBB9_24
# BB#15:                                # %if.then17
	movq	%r15, 8(%rsp)           # 8-byte Spill
	testq	$262144, %rax           # imm = 0x40000
	je	.LBB9_17
# BB#16:                                # %cond.true
	movq	%rbx, 16(%rsp)          # 8-byte Spill
	movq	(%r13), %rax
	movq	%r13, %r15
	movq	8(%rax), %rcx
	movq	%rcx, 40(%rsp)
	movq	(%rax), %r13
	jmp	.LBB9_18
.LBB9_17:                               # %cond.false
	movq	%rbx, 16(%rsp)          # 8-byte Spill
	leaq	40(%rsp), %rsi
	movq	$2, %rdx
	movq	%r13, %rdi
	movq	%r13, %r15
	callq	Perl_sv_2pv_flags
	movq	40(%rsp), %rcx
	movq	%rax, %r13
.LBB9_18:                               # %cond.end
	incq	%rcx
	movq	%rcx, 32(%rsp)
	movq	$1, %rbx
	movb	%bl, 31(%rsp)
	leaq	32(%rsp), %rsi
	leaq	31(%rsp), %rdx
	movq	%r13, %rdi
	callq	Perl_bytes_from_utf8
	movzbl	31(%rsp), %ecx
	movq	%rax, %r12
	testq	%rcx, %rcx
	je	.LBB9_20
# BB#19:                                # %if.then24
	movl	%ebx, 112(%r14)
	movabsq	$.L.str30, %rdi
	xorq	%rax, %rax
	callq	Perl_croak
.LBB9_20:                               # %if.end26
	cmpq	%r13, %r12
	movq	%r15, %r13
	movq	8(%rsp), %r15           # 8-byte Reload
	movq	16(%rsp), %rbx          # 8-byte Reload
	je	.LBB9_24
# BB#21:                                # %if.then28
	callq	Perl_sv_newmortal
	movq	%rax, %r13
	movq	16(%r13), %rax
	testq	$252, %rax
	jne	.LBB9_23
# BB#22:                                # %lor.rhs
	movq	$4, %rsi
	movq	%r13, %rdi
	callq	Perl_sv_upgrade
	movq	16(%r13), %rax
.LBB9_23:                               # %lor.end
	orq	$67371008, %rax         # imm = 0x4040000
	movq	%rax, 16(%r13)
	movq	(%r13), %rax
	movq	%r12, (%rax)
	movq	32(%rsp), %rcx
	movq	%rcx, 16(%rax)
	movq	32(%rsp), %rcx
	decq	%rcx
	movq	%rcx, 8(%rax)
.LBB9_24:                               # %if.end43
	movq	$1, %rax
	movl	%eax, 116(%r14)
	movq	176(%r14), %rcx
	movq	%rcx, 208(%r14)
	movq	168(%r14), %rcx
	movq	%rcx, 200(%r14)
	movq	152(%r14), %rcx
	movq	160(%r14), %rdx
	movq	%rdx, 192(%r14)
	movq	%rcx, 184(%r14)
	movq	16(%r13), %rcx
	testq	$67108864, %rcx         # imm = 0x4000000
	jne	.LBB9_26
# BB#25:                                # %if.then47
	movl	%eax, 112(%r14)
	movabsq	$.L.str31, %rdi
	xorq	%rax, %rax
	callq	Perl_croak
	movq	16(%r13), %rcx
.LBB9_26:                               # %if.end49
	testq	$262144, %rcx           # imm = 0x40000
	je	.LBB9_28
# BB#27:                                # %cond.true54
	movq	(%r13), %rax
	movq	8(%rax), %rcx
	movq	%rcx, 160(%r14)
	movq	(%rax), %rax
	jmp	.LBB9_29
.LBB9_28:                               # %cond.false61
	leaq	160(%r14), %rsi
	movq	$2, %rdx
	movq	%r13, %rdi
	callq	Perl_sv_2pv_flags
	movq	160(%r14), %rcx
.LBB9_29:                               # %cond.end65
	movq	%rax, 152(%r14)
	movq	%rax, 168(%r14)
	addq	%rax, %rcx
	movq	%rcx, 176(%r14)
.LBB9_30:                               # %if.end75
	orq	$2, %rbx
	movq	%rbx, 16(%rsp)          # 8-byte Spill
	testq	%r15, %r15
	movq	%r15, 216(%r14)
	je	.LBB9_41
# BB#31:                                # %if.else11.i
	movq	%r13, 8(%rsp)           # 8-byte Spill
	leaq	48(%rsp), %rsi
	movq	$5, %rdx
	movq	%r15, %rdi
	callq	Perl_PerlIO_read
	cmpq	$5, %rax
	jne	.LBB9_105
# BB#32:                                # %if.end16.i
	movl	48(%rsp), %eax
	cmpq	$812938096, %rax        # imm = 0x30747370
	je	.LBB9_33
# BB#34:                                # %if.then22.i
	movq	216(%r14), %rdi
	testq	%rdi, %rdi
	je	.LBB9_35
# BB#37:                                # %if.else43.i
	leaq	53(%rsp), %rsi
	movq	$6, %rdx
	callq	Perl_PerlIO_read
	cmpq	$6, %rax
	jne	.LBB9_105
	jmp	.LBB9_38
.LBB9_41:                               # %if.then64.i
	movq	%r13, 8(%rsp)           # 8-byte Spill
	movq	168(%r14), %rax
	movq	176(%r14), %rcx
	cmpq	%rcx, %rax
	jae	.LBB9_105
# BB#42:                                # %if.then71.i
	leaq	1(%rax), %rcx
	movq	%rcx, 168(%r14)
	jmp	.LBB9_43
.LBB9_33:
	leaq	52(%rsp), %rax
	jmp	.LBB9_43
.LBB9_35:                               # %if.then25.i
	movq	168(%r14), %rax
	movq	176(%r14), %rdx
	leaq	6(%rax), %rcx
	cmpq	%rdx, %rcx
	ja	.LBB9_105
# BB#36:                                # %if.then32.i
	movzbl	4(%rax), %edx
	movw	%dx, 57(%rsp)
	movl	(%rax), %eax
	movl	%eax, 53(%rsp)
	movq	%rcx, 168(%r14)
.LBB9_38:                               # %if.end52.i
	movabsq	$old_magicstr, %rsi
	leaq	48(%rsp), %rdi
	movq	$10, %rdx
	callq	memcmp
	movabsq	$4294967295, %rcx       # imm = 0xFFFFFFFF
	testq	%rcx, %rax
	je	.LBB9_40
# BB#39:                                # %if.then56.i
	movq	$1, %rax
	movl	%eax, 112(%r14)
	movabsq	$.L.str41, %rdi
	xorq	%rax, %rax
	callq	Perl_croak
.LBB9_40:                               # %if.end57.i
	leaq	58(%rsp), %rax
.LBB9_43:                               # %if.end85.i
	movzbl	(%rax), %ebx
	movq	$1, %rcx
	movq	%rbx, %r12
	shrq	%cl, %r12
	testq	%r12, %r12
	jne	.LBB9_44
# BB#45:                                # %if.end85.i
	movabsq	$sv_old_retrieve, %rax
	jmp	.LBB9_46
.LBB9_44:
	movabsq	$sv_retrieve, %rax
.LBB9_46:                               # %if.end85.i
	cmpq	$3, %rbx
	movq	%rax, 232(%r14)
	jbe	.LBB9_47
# BB#48:                                # %if.then89.i
	movq	216(%r14), %rdi
	testq	%rdi, %rdi
	je	.LBB9_49
# BB#51:                                # %if.else106.i
	callq	PerlIO_getc
	movq	%rax, %r13
	movabsq	$4294967295, %rax       # imm = 0xFFFFFFFF
	movq	%r13, %rcx
	andq	%rax, %rcx
	cmpq	%rax, %rcx
	jne	.LBB9_52
	jmp	.LBB9_105
.LBB9_47:                               # %lor.lhs.false.thread.i
	movl	%r12d, 224(%r14)
	xorq	%r13, %r13
	movl	%r13d, 228(%r14)
	jmp	.LBB9_79
.LBB9_49:                               # %if.then92.i
	movq	168(%r14), %rax
	movq	176(%r14), %rcx
	cmpq	%rcx, %rax
	jae	.LBB9_105
# BB#50:                                # %if.then99.i
	leaq	1(%rax), %rcx
	movq	%rcx, 168(%r14)
	movzbl	(%rax), %r13d
.LBB9_52:                               # %if.end114.i
	movl	%r12d, 224(%r14)
	movl	%r13d, 228(%r14)
	cmpq	$5, %rbx
	ja	.LBB9_78
# BB#53:                                # %lor.lhs.false.i
	movabsq	$4294967295, %rdx       # imm = 0xFFFFFFFF
	movq	%r12, %rax
	andq	%rdx, %rax
	cmpq	$2, %rax
	jne	.LBB9_79
# BB#54:                                # %lor.lhs.false.i
	movq	$32, %rcx
	movq	%r13, %rax
	shlq	%cl, %rax
	movq	$32, %rcx
	sarq	%cl, %rax
	cmpq	$7, %rax
	jl	.LBB9_79
# BB#55:                                # %if.then124.i
	movslq	108(%r14), %rax
	testq	%rax, %rax
	jns	.LBB9_77
# BB#56:                                # %if.then127.i
	movabsq	$.L.str37, %rdi
	movq	$1, %rsi
	callq	Perl_get_sv
	movq	%rax, %rcx
	xorq	%rax, %rax
	testq	%rcx, %rcx
	je	.LBB9_73
# BB#57:                                # %cond.false.i
	movabsq	$.L.str37, %rdi
	movq	$1, %rsi
	callq	Perl_get_sv
	movq	16(%rax), %rax
	movq	%rax, (%rsp)            # 8-byte Spill
	movq	$1, %rsi
	movabsq	$.L.str37, %rdi
	callq	Perl_get_sv
	testq	$262144, (%rsp)         # 8-byte Folded Reload
                                        # imm = 0x40000
	je	.LBB9_64
# BB#58:                                # %cond.true132.i
	movq	(%rax), %rcx
	xorq	%rax, %rax
	testq	%rcx, %rcx
	movq	%rcx, PL_Xpv(%rip)
	je	.LBB9_73
# BB#59:                                # %land.rhs.i
	movq	8(%rcx), %rdx
	cmpq	$1, %rdx
	movq	$1, %rax
	ja	.LBB9_73
# BB#60:                                # %lor.rhs.i
	testq	%rdx, %rdx
	movabsq	$0, %rax
	je	.LBB9_73
# BB#61:                                # %land.rhs139.i
	movq	(%rcx), %rax
	movzbl	(%rax), %eax
	cmpq	$48, %rax
	je	.LBB9_62
# BB#63:                                # %land.rhs139.i
	movabsq	$1, %rax
	jmp	.LBB9_73
.LBB9_64:                               # %cond.false145.i
	movq	16(%rax), %rax
	movq	%rax, (%rsp)            # 8-byte Spill
	movabsq	$.L.str37, %rdi
	movq	$1, %rsi
	callq	Perl_get_sv
	testq	$65536, (%rsp)          # 8-byte Folded Reload
                                        # imm = 0x10000
	je	.LBB9_68
# BB#65:                                # %cond.true150.i
	movq	(%rax), %rax
	cmpq	$0, 24(%rax)
	je	.LBB9_66
# BB#67:                                # %cond.true150.i
	movabsq	$1, %rax
	jmp	.LBB9_73
.LBB9_68:                               # %cond.false155.i
	movq	16(%rax), %rax
	movq	%rax, (%rsp)            # 8-byte Spill
	movabsq	$.L.str37, %rdi
	movq	$1, %rsi
	callq	Perl_get_sv
	testq	$131072, (%rsp)         # 8-byte Folded Reload
                                        # imm = 0x20000
	je	.LBB9_72
# BB#69:                                # %cond.true160.i
	movq	(%rax), %rax
	movq	32(%rax), %rdi
	xorq	%rsi, %rsi
	callq	__nedf2
	testq	%rax, %rax
	je	.LBB9_70
# BB#71:                                # %cond.true160.i
	movabsq	$1, %rax
	jmp	.LBB9_73
.LBB9_66:
	movabsq	$0, %rax
	jmp	.LBB9_73
.LBB9_62:
	movabsq	$0, %rax
	jmp	.LBB9_73
.LBB9_72:                               # %cond.false165.i
	movq	%rax, %rdi
	callq	Perl_sv_2bool
	jmp	.LBB9_73
.LBB9_70:
	movabsq	$0, %rax
.LBB9_73:                               # %cond.end174.i
	movabsq	$4294967295, %rdx       # imm = 0xFFFFFFFF
	testq	%rdx, %rax
	je	.LBB9_74
# BB#75:                                # %cond.end174.i
	movabsq	$1, %rax
	jmp	.LBB9_76
.LBB9_74:
	movabsq	$0, %rax
.LBB9_76:                               # %cond.end174.i
	movl	%eax, 108(%r14)
.LBB9_77:                               # %if.end179.i
	andq	%rdx, %rax
	cmpq	$1, %rax
	je	.LBB9_79
.LBB9_78:                               # %if.then187.i
	movq	$1, %rax
	movl	%eax, 112(%r14)
	movabsq	$.L.str42, %rdi
	movq	$2, %rcx
	movq	$6, %r8
	xorq	%rax, %rax
	movq	%r12, %rsi
	movq	%r13, %rdx
	callq	Perl_croak
.LBB9_79:                               # %if.end190.i
	movq	%rbx, %rax
	andq	$1, %rax
	movl	%eax, 80(%r14)
	jne	.LBB9_109
# BB#80:                                # %if.end194.i
	cmpq	$3, %rbx
	movabsq	$0, %rax
	movabsq	$1, %rdx
	movq	%rax, %rsi
	jbe	.LBB9_82
# BB#81:                                # %if.end194.i
	movq	%rdx, %rsi
.LBB9_82:                               # %if.end194.i
	movq	$32, %rcx
	shlq	%cl, %r13
	movq	$32, %rcx
	sarq	%cl, %r13
	cmpq	$1, %r13
	jle	.LBB9_84
# BB#83:                                # %if.end194.i
	movq	%rdx, %rax
.LBB9_84:                               # %if.end194.i
	movq	216(%r14), %rdi
	andq	%rax, %rsi
	movq	%rsi, (%rsp)            # 8-byte Spill
	testq	%rdi, %rdi
	je	.LBB9_85
# BB#87:                                # %if.else217.i
	callq	PerlIO_getc
	movq	%rax, %r12
	movabsq	$4294967295, %rax       # imm = 0xFFFFFFFF
	movq	%r12, %rcx
	andq	%rax, %rcx
	cmpq	%rax, %rcx
	je	.LBB9_105
# BB#88:                                # %if.end224.i
	movq	216(%r14), %rdi
	testq	%rdi, %rdi
	movq	(%rsp), %rax            # 8-byte Reload
	leaq	3(%rax,%r12), %r13
	je	.LBB9_89
# BB#92:                                # %if.else246.i
	movq	$32, %rcx
	shlq	%cl, %r13
	movq	$32, %rcx
	sarq	%cl, %r13
	leaq	48(%rsp), %rsi
	movq	%r13, %rdx
	callq	Perl_PerlIO_read
	cmpq	%r13, %rax
	jne	.LBB9_105
	jmp	.LBB9_93
.LBB9_85:                               # %if.then203.i
	movq	168(%r14), %rcx
	movq	176(%r14), %rax
	cmpq	%rax, %rcx
	jae	.LBB9_105
# BB#86:                                # %if.end224.thread.i
	leaq	1(%rcx), %rsi
	movq	%rsi, 168(%r14)
	movzbl	(%rcx), %r12d
	movq	(%rsp), %rcx            # 8-byte Reload
	leaq	3(%rcx,%r12), %r13
	jmp	.LBB9_90
.LBB9_89:                               # %if.end224.i.if.then228.i_crit_edge
	movq	168(%r14), %rsi
	movq	176(%r14), %rax
.LBB9_90:                               # %if.then228.i
	movq	$32, %rcx
	shlq	%cl, %r13
	movq	$32, %rcx
	sarq	%cl, %r13
	leaq	(%rsi,%r13), %rbx
	cmpq	%rax, %rbx
	jbe	.LBB9_91
.LBB9_105:                              # %if.then78
	movq	$1, %rax
	movl	%eax, 112(%r14)
	cmpq	$0, 216(%r14)
	je	.LBB9_107
# BB#106:
	movabsq	$.L.str33, %rsi
	jmp	.LBB9_108
.LBB9_107:                              # %select.mid
	movabsq	$.L.str34, %rsi
.LBB9_108:                              # %select.end
	movabsq	$.L.str32, %rdi
	xorq	%rax, %rax
	callq	Perl_croak
.LBB9_109:                              # %if.end83
	movq	$1, %rbx
	testq	%r15, %r15
	jne	.LBB9_116
# BB#110:                               # %cond.false86
	movq	8(%rsp), %rdi           # 8-byte Reload
	testq	%rdi, %rdi
	je	.LBB9_115
# BB#111:                               # %cond.true88
	movzbl	17(%rdi), %eax
	xorq	%rbx, %rbx
	testq	$224, %rax
	je	.LBB9_116
# BB#112:                               # %land.rhs
	callq	Perl_sv_tainted
	testq	$255, %rax
	je	.LBB9_113
# BB#114:                               # %land.rhs
	movabsq	$1, %rbx
	jmp	.LBB9_116
.LBB9_115:                              # %cond.false95
	movl	84(%r14), %ebx
	jmp	.LBB9_116
.LBB9_113:
	movabsq	$0, %rbx
.LBB9_116:                              # %cond.end98
	callq	Perl_newHV
	movq	%rax, 56(%r14)
	movq	232(%r14), %rcx
	movabsq	$sv_old_retrieve, %rdx
	xorq	%rax, %rax
	cmpq	%rdx, %rcx
	jne	.LBB9_118
# BB#117:                               # %cond.true.i
	callq	Perl_newHV
.LBB9_118:                              # %init_retrieve_context.exit
	movq	%rax, 8(%r14)
	callq	Perl_newAV
	movq	%rax, 24(%r14)
	movq	$-1, 32(%r14)
	callq	Perl_newAV
	movq	%rax, 48(%r14)
	movq	$0, 72(%r14)
	movq	$0, 64(%r14)
	movq	16(%rsp), %rax          # 8-byte Reload
	movl	%eax, 4(%r14)
	movl	%ebx, 84(%r14)
	movq	$1, %rax
	movl	%eax, (%r14)
	movabsq	$4294967295, %r13       # imm = 0xFFFFFFFF
	movl	%r13d, 108(%r14)
	xorq	%rsi, %rsi
	movq	%r14, %rdi
	callq	retrieve
	movq	%rax, %r12
	testq	%r15, %r15
	jne	.LBB9_121
# BB#119:                               # %init_retrieve_context.exit
	cmpq	$0, 8(%rsp)             # 8-byte Folded Reload
	je	.LBB9_121
# BB#120:                               # %if.then104
	xorq	%rax, %rax
	movl	%eax, 116(%r14)
	movq	208(%r14), %rax
	movq	%rax, 176(%r14)
	movq	200(%r14), %rax
	movq	%rax, 168(%r14)
	movq	184(%r14), %rax
	movq	192(%r14), %rcx
	movq	%rcx, 160(%r14)
	movq	%rax, 152(%r14)
.LBB9_121:                              # %if.end108
	movq	8(%r14), %r15
	movq	%r14, %rdi
	callq	clean_retrieve_context
	movq	240(%r14), %rax
	testq	%rax, %rax
	je	.LBB9_123
# BB#122:                               # %free_context.exit
	movq	(%rax), %rax
	movq	(%rax), %rax
	movq	(%rax), %rax
	movq	(%rax), %rbx
	movq	248(%r14), %rdi
	callq	Perl_sv_free
	movq	%rbx, Context_ptr(%rip)
.LBB9_123:                              # %if.end113
	testq	%r12, %r12
	je	.LBB9_124
# BB#125:                               # %if.end116
	testq	%r15, %r15
	je	.LBB9_129
# BB#126:                               # %if.then118
	movq	%r12, %rdi
	callq	sv_type
	testq	%r13, %rax
	jne	.LBB9_129
# BB#127:                               # %land.lhs.true123
	movq	(%r12), %rax
	movq	(%rax), %rax
	testq	%rax, %rax
	je	.LBB9_129
# BB#128:                               # %land.lhs.true126
	movzbl	17(%rax), %eax
	testq	$16, %rax
	jne	.LBB9_135
.LBB9_129:                              # %if.end132
	movzbl	17(%r12), %eax
	testq	$16, %rax
	je	.LBB9_134
# BB#130:                               # %if.then136
	movq	(%r12), %rax
	movq	48(%rax), %rbx
	movq	%r12, %rdi
	callq	Perl_newRV_noinc
	movq	%rax, %r12
	testq	%rbx, %rbx
	je	.LBB9_135
# BB#131:                               # %if.then136
	movq	PL_amagic_generation(%rip), %rax
	testq	%rax, %rax
	je	.LBB9_135
# BB#132:                               # %land.lhs.true145
	movq	%rbx, %rdi
	callq	Perl_Gv_AMupdate
	testq	$255, %rax
	je	.LBB9_135
# BB#133:                               # %if.then149
	orq	$268435456, 16(%r12)    # imm = 0x10000000
	jmp	.LBB9_135
.LBB9_124:
	movabsq	$PL_sv_undef, %r12
	jmp	.LBB9_135
.LBB9_134:                              # %if.end153
	movq	%r12, %rdi
	callq	Perl_newRV_noinc
	movq	%rax, %r12
.LBB9_135:                              # %return
	movq	%r12, %rax
	addq	$320, %rsp              # imm = 0x140
	popq	%rbx
	popq	%r12
	popq	%r13
	popq	%r14
	popq	%r15
	retq
.LBB9_91:                               # %if.then236.i
	leaq	48(%rsp), %rdi
	movq	%r13, %rdx
	callq	memcpy
	movq	%rbx, 168(%r14)
.LBB9_93:                               # %if.end256.i
	movq	$32, %rcx
	movq	%r12, %r13
	shlq	%cl, %r13
	movq	$32, %rcx
	sarq	%cl, %r13
	movabsq	$4294967295, %rbx       # imm = 0xFFFFFFFF
	andq	%rbx, %r12
	cmpq	$4, %r12
	jne	.LBB9_95
# BB#94:                                # %lor.lhs.false260.i
	movabsq	$byteorderstr, %rsi
	leaq	48(%rsp), %rdi
	movq	%r13, %rdx
	callq	memcmp
	testq	%rbx, %rax
	je	.LBB9_96
.LBB9_95:                               # %if.then265.i
	movq	$1, %rax
	movl	%eax, 112(%r14)
	movabsq	$.L.str43, %rdi
	xorq	%rax, %rax
	callq	Perl_croak
.LBB9_96:                               # %if.end267.i
	movzbl	48(%rsp,%r13), %eax
	cmpq	$4, %rax
	je	.LBB9_98
# BB#97:                                # %if.then276.i
	movq	$1, %rax
	movl	%eax, 112(%r14)
	movabsq	$.L.str44, %rdi
	xorq	%rax, %rax
	callq	Perl_croak
.LBB9_98:                               # %if.end278.i
	movzbl	49(%rsp,%r13), %eax
	cmpq	$8, %rax
	movq	(%rsp), %rbx            # 8-byte Reload
	je	.LBB9_100
# BB#99:                                # %if.then284.i
	movq	$1, %rax
	movl	%eax, 112(%r14)
	movabsq	$.L.str45, %rdi
	xorq	%rax, %rax
	callq	Perl_croak
.LBB9_100:                              # %if.end286.i
	movzbl	50(%rsp,%r13), %eax
	cmpq	$8, %rax
	je	.LBB9_102
# BB#101:                               # %if.then291.i
	movq	$1, %rax
	movl	%eax, 112(%r14)
	movabsq	$.L.str46, %rdi
	xorq	%rax, %rax
	callq	Perl_croak
.LBB9_102:                              # %if.end293.i
	testq	%rbx, %rbx
	je	.LBB9_109
# BB#103:                               # %if.then295.i
	leaq	48(%rsp), %rax
	movzbl	3(%r13,%rax), %eax
	cmpq	$8, %rax
	je	.LBB9_109
# BB#104:                               # %if.then301.i
	movq	$1, %rax
	movl	%eax, 112(%r14)
	movabsq	$.L.str47, %rdi
	xorq	%rax, %rax
	callq	Perl_croak
	jmp	.LBB9_109
.Ltmp47:
	.size	do_retrieve, .Ltmp47-do_retrieve
	.cfi_endproc

	.globl	mretrieve
	.align	16, 0x90
	.type	mretrieve,@function
mretrieve:                              # @mretrieve
	.cfi_startproc
# BB#0:                                 # %entry
	movq	%rdi, %rax
	xorq	%rdi, %rdi
	xorq	%rdx, %rdx
	movq	%rax, %rsi
	jmp	do_retrieve  # TAILCALL
.Ltmp48:
	.size	mretrieve, .Ltmp48-mretrieve
	.cfi_endproc

	.globl	dclone
	.align	16, 0x90
	.type	dclone,@function
dclone:                                 # @dclone
	.cfi_startproc
# BB#0:                                 # %entry
	pushq	%r15
.Ltmp54:
	.cfi_def_cfa_offset 16
	pushq	%r14
.Ltmp55:
	.cfi_def_cfa_offset 24
	pushq	%r12
.Ltmp56:
	.cfi_def_cfa_offset 32
	pushq	%rbx
.Ltmp57:
	.cfi_def_cfa_offset 40
	pushq	%rax
.Ltmp58:
	.cfi_def_cfa_offset 48
.Ltmp59:
	.cfi_offset %rbx, -40
.Ltmp60:
	.cfi_offset %r12, -32
.Ltmp61:
	.cfi_offset %r14, -24
.Ltmp62:
	.cfi_offset %r15, -16
	movq	Context_ptr(%rip), %rax
	movl	112(%rax), %ecx
	movq	%rdi, %r14
	testq	%rcx, %rcx
	je	.LBB11_8
# BB#1:                                 # %if.then
	movl	116(%rax), %ecx
	testq	%rcx, %rcx
	je	.LBB11_3
# BB#2:                                 # %if.then.i
	xorq	%rcx, %rcx
	movl	%ecx, 116(%rax)
	movq	208(%rax), %rcx
	movq	%rcx, 176(%rax)
	movq	200(%rax), %rcx
	movq	%rcx, 168(%rax)
	movq	184(%rax), %rcx
	movq	192(%rax), %rdx
	movq	%rdx, 160(%rax)
	movq	%rcx, 152(%rax)
.LBB11_3:                               # %if.end.i
	movl	4(%rax), %ecx
	testq	$2, %rcx
	je	.LBB11_5
# BB#4:                                 # %if.then3.i
	movq	%rax, %rdi
	callq	clean_retrieve_context
	jmp	.LBB11_8
.LBB11_5:                               # %if.else.i
	testq	$1, %rcx
	je	.LBB11_7
# BB#6:                                 # %if.then7.i
	movq	%rax, %rdi
	callq	clean_store_context
	jmp	.LBB11_8
.LBB11_7:                               # %if.else8.i
	xorq	%rdx, %rdx
	movl	%edx, (%rax)
	movl	%edx, 112(%rax)
	movabsq	$4294967292, %rdx       # imm = 0xFFFFFFFC
	andq	%rdx, %rcx
	movl	%ecx, 4(%rax)
.LBB11_8:                               # %if.end
	xorq	%rdi, %rdi
	movq	$4, %rdx
	xorq	%rcx, %rcx
	xorq	%r8, %r8
	movq	%r14, %rsi
	callq	do_store
	movabsq	$4294967295, %r12       # imm = 0xFFFFFFFF
	testq	%r12, %rax
	je	.LBB11_19
# BB#9:                                 # %if.end3
	movq	Context_ptr(%rip), %r15
	movq	152(%r15), %rax
	movq	168(%r15), %rbx
	subq	%rax, %rbx
	testq	%rax, %rax
	jne	.LBB11_11
# BB#10:                                # %if.then9
	movq	$8192, %rdi             # imm = 0x2000
	callq	Perl_safesysmalloc
	movq	%rax, 152(%r15)
	movq	$8192, 160(%r15)        # imm = 0x2000
.LBB11_11:                              # %if.end14
	testq	%r12, %rbx
	movq	%rax, 168(%r15)
	je	.LBB11_13
# BB#12:                                # %if.then20
	movq	$32, %rcx
	shlq	%cl, %rbx
	movq	$32, %rcx
	sarq	%cl, %rbx
	addq	%rbx, %rax
	jmp	.LBB11_14
.LBB11_19:                              # %return
	movabsq	$PL_sv_undef, %rax
	addq	$8, %rsp
	popq	%rbx
	popq	%r12
	popq	%r14
	popq	%r15
	retq
.LBB11_13:                              # %if.else
	movq	160(%r15), %rcx
	addq	%rcx, %rax
.LBB11_14:                              # %if.end31
	movq	%rax, 176(%r15)
	movzbl	17(%r14), %ecx
	xorq	%rax, %rax
	testq	$224, %rcx
	je	.LBB11_18
# BB#15:                                # %land.rhs
	movq	%r14, %rdi
	callq	Perl_sv_tainted
	testq	$255, %rax
	je	.LBB11_16
# BB#17:                                # %land.rhs
	movabsq	$1, %rax
	jmp	.LBB11_18
.LBB11_16:
	movabsq	$0, %rax
.LBB11_18:                              # %land.end
	xorq	%rdi, %rdi
	xorq	%rsi, %rsi
	movq	$4, %rdx
	movl	%eax, 84(%r15)
	addq	$8, %rsp
	popq	%rbx
	popq	%r12
	popq	%r14
	popq	%r15
	jmp	do_retrieve  # TAILCALL
.Ltmp63:
	.size	dclone, .Ltmp63-dclone
	.cfi_endproc

	.globl	XS_Storable__Cxt_DESTROY
	.align	16, 0x90
	.type	XS_Storable__Cxt_DESTROY,@function
XS_Storable__Cxt_DESTROY:               # @XS_Storable__Cxt_DESTROY
	.cfi_startproc
# BB#0:                                 # %entry
	pushq	%r15
.Ltmp68:
	.cfi_def_cfa_offset 16
	pushq	%r14
.Ltmp69:
	.cfi_def_cfa_offset 24
	pushq	%rbx
.Ltmp70:
	.cfi_def_cfa_offset 32
.Ltmp71:
	.cfi_offset %rbx, -32
.Ltmp72:
	.cfi_offset %r14, -24
.Ltmp73:
	.cfi_offset %r15, -16
	movq	PL_markstack_ptr(%rip), %rax
	movq	PL_stack_sp(%rip), %r14
	leaq	-8(%rax), %rcx
	movq	%rcx, PL_markstack_ptr(%rip)
	movq	(%rax), %r15
	movq	PL_stack_base(%rip), %rax
	leaq	(%rax,%r15,8), %rdx
	movq	$3, %rcx
	shlq	%cl, %r15
	movq	$3, %rcx
	sarq	%cl, %r15
	movq	%r14, %rbx
	subq	%rdx, %rbx
	movq	$3, %rcx
	sarq	%cl, %rbx
	cmpq	$1, %rbx
	je	.LBB12_2
# BB#1:                                 # %if.then
	movabsq	$.L.str, %rdi
	xorq	%rax, %rax
	callq	Perl_croak
	movq	PL_stack_base(%rip), %rax
.LBB12_2:                               # %if.end
	movq	8(%rax,%r15,8), %rax
	movq	(%rax), %rax
	movq	(%rax), %rax
	movq	(%rax), %rax
	movq	(%rax), %r15
	movq	120(%r15), %rdi
	movq	$3, %rcx
	shlq	%cl, %rbx
	testq	%rdi, %rdi
	je	.LBB12_4
# BB#3:                                 # %if.then8
	callq	Perl_safesysfree
.LBB12_4:                               # %if.end11
	movl	116(%r15), %eax
	subq	%rbx, %r14
	testq	%rax, %rax
	jne	.LBB12_7
# BB#5:                                 # %land.lhs.true
	movq	152(%r15), %rdi
	testq	%rdi, %rdi
	je	.LBB12_9
# BB#6:                                 # %if.end18
	callq	Perl_safesysfree
	movl	116(%r15), %eax
	testq	%rax, %rax
	je	.LBB12_9
.LBB12_7:                               # %land.lhs.true21
	movq	184(%r15), %rdi
	testq	%rdi, %rdi
	je	.LBB12_9
# BB#8:                                 # %if.then24
	callq	Perl_safesysfree
.LBB12_9:                               # %if.end27
	movq	%r14, PL_stack_sp(%rip)
	popq	%rbx
	popq	%r14
	popq	%r15
	retq
.Ltmp74:
	.size	XS_Storable__Cxt_DESTROY, .Ltmp74-XS_Storable__Cxt_DESTROY
	.cfi_endproc

	.globl	XS_Storable_init_perinterp
	.align	16, 0x90
	.type	XS_Storable_init_perinterp,@function
XS_Storable_init_perinterp:             # @XS_Storable_init_perinterp
	.cfi_startproc
# BB#0:                                 # %entry
	pushq	%r15
.Ltmp80:
	.cfi_def_cfa_offset 16
	pushq	%r14
.Ltmp81:
	.cfi_def_cfa_offset 24
	pushq	%r12
.Ltmp82:
	.cfi_def_cfa_offset 32
	pushq	%rbx
.Ltmp83:
	.cfi_def_cfa_offset 40
	pushq	%rax
.Ltmp84:
	.cfi_def_cfa_offset 48
.Ltmp85:
	.cfi_offset %rbx, -40
.Ltmp86:
	.cfi_offset %r12, -32
.Ltmp87:
	.cfi_offset %r14, -24
.Ltmp88:
	.cfi_offset %r15, -16
	movq	PL_markstack_ptr(%rip), %rax
	movq	PL_stack_sp(%rip), %rdx
	leaq	-8(%rax), %rcx
	movq	%rcx, PL_markstack_ptr(%rip)
	movq	(%rax), %r15
	movq	PL_stack_base(%rip), %rax
	leaq	(%rax,%r15,8), %rax
	movq	$3, %rcx
	shlq	%cl, %r15
	movq	$3, %rcx
	sarq	%cl, %r15
	cmpq	%rax, %rdx
	je	.LBB13_2
# BB#1:                                 # %if.then
	movabsq	$.L.str1, %rdi
	xorq	%rax, %rax
	callq	Perl_croak
.LBB13_2:                               # %if.end
	movq	$255, %rdi
	callq	Perl_newSV
	movq	%rax, %rbx
	movq	%rbx, %rdi
	callq	Perl_newRV_noinc
	movq	%rax, %r14
	movabsq	$.L.str29, %rdi
	movq	$1, %rsi
	callq	Perl_gv_stashpv
	movq	%r14, %rdi
	movq	%rax, %rsi
	callq	Perl_sv_bless
	movq	(%rbx), %rax
	movq	(%rax), %rbx
	xorq	%rsi, %rsi
	movq	$248, %rdx
	xorq	%r12, %r12
	movq	%rbx, %rdi
	callq	memset
	movq	%r14, 248(%rbx)
	movq	%rbx, Context_ptr(%rip)
	movl	%r12d, 80(%rbx)
	movabsq	$4294967295, %rax       # imm = 0xFFFFFFFF
	movl	%eax, 88(%rbx)
	movq	PL_stack_base(%rip), %rax
	leaq	(%rax,%r15,8), %rax
	movq	%rax, PL_stack_sp(%rip)
	addq	$8, %rsp
	popq	%rbx
	popq	%r12
	popq	%r14
	popq	%r15
	retq
.Ltmp89:
	.size	XS_Storable_init_perinterp, .Ltmp89-XS_Storable_init_perinterp
	.cfi_endproc

	.globl	XS_Storable_pstore
	.align	16, 0x90
	.type	XS_Storable_pstore,@function
XS_Storable_pstore:                     # @XS_Storable_pstore
	.cfi_startproc
# BB#0:                                 # %entry
	pushq	%r15
.Ltmp96:
	.cfi_def_cfa_offset 16
	pushq	%r14
.Ltmp97:
	.cfi_def_cfa_offset 24
	pushq	%r13
.Ltmp98:
	.cfi_def_cfa_offset 32
	pushq	%r12
.Ltmp99:
	.cfi_def_cfa_offset 40
	pushq	%rbx
.Ltmp100:
	.cfi_def_cfa_offset 48
.Ltmp101:
	.cfi_offset %rbx, -48
.Ltmp102:
	.cfi_offset %r12, -40
.Ltmp103:
	.cfi_offset %r13, -32
.Ltmp104:
	.cfi_offset %r14, -24
.Ltmp105:
	.cfi_offset %r15, -16
	movq	PL_markstack_ptr(%rip), %rax
	movq	PL_stack_sp(%rip), %rdx
	leaq	-8(%rax), %rcx
	movq	%rcx, PL_markstack_ptr(%rip)
	movq	(%rax), %rbx
	movq	PL_stack_base(%rip), %rax
	leaq	(%rax,%rbx,8), %rsi
	movq	$3, %rcx
	shlq	%cl, %rbx
	movq	$3, %rcx
	sarq	%cl, %rbx
	subq	%rsi, %rdx
	cmpq	$16, %rdx
	je	.LBB14_2
# BB#1:                                 # %if.then
	movabsq	$.L.str2, %rdi
	xorq	%rax, %rax
	callq	Perl_croak
	movq	PL_stack_base(%rip), %rax
.LBB14_2:                               # %if.end
	movq	8(%rax,%rbx,8), %rdi
	leaq	1(%rbx), %r13
	callq	Perl_sv_2io
	movq	(%rax), %rcx
	movq	PL_op(%rip), %rax
	movq	PL_stack_base(%rip), %rdx
	movq	64(%rcx), %r14
	movzbl	37(%rax), %ecx
	movq	16(%rdx,%rbx,8), %r15
	testq	$32, %rcx
	je	.LBB14_4
# BB#3:                                 # %cond.true
	movq	24(%rax), %rax
	movq	PL_curpad(%rip), %rcx
	movq	(%rcx,%rax,8), %r12
	jmp	.LBB14_5
.LBB14_4:                               # %cond.false
	callq	Perl_sv_newmortal
	movq	%rax, %r12
.LBB14_5:                               # %cond.end
	xorq	%rdx, %rdx
	xorq	%rcx, %rcx
	xorq	%r8, %r8
	movq	%r14, %rdi
	movq	%r15, %rsi
	callq	do_store
	movq	PL_stack_base(%rip), %r14
	movq	$32, %rcx
	shlq	%cl, %rax
	movq	$32, %rcx
	sarq	%cl, %rax
	movq	%r12, %rdi
	movq	%rax, %rsi
	callq	Perl_sv_setiv
	movzbl	17(%r12), %eax
	testq	$64, %rax
	je	.LBB14_7
# BB#6:                                 # %if.then16
	movq	%r12, %rdi
	callq	Perl_mg_set
.LBB14_7:                               # %if.end18
	movq	%r12, 8(%r14,%rbx,8)
	movq	PL_stack_base(%rip), %rax
	leaq	(%rax,%r13,8), %rax
	movq	%rax, PL_stack_sp(%rip)
	popq	%rbx
	popq	%r12
	popq	%r13
	popq	%r14
	popq	%r15
	retq
.Ltmp106:
	.size	XS_Storable_pstore, .Ltmp106-XS_Storable_pstore
	.cfi_endproc

	.globl	XS_Storable_net_pstore
	.align	16, 0x90
	.type	XS_Storable_net_pstore,@function
XS_Storable_net_pstore:                 # @XS_Storable_net_pstore
	.cfi_startproc
# BB#0:                                 # %entry
	pushq	%r15
.Ltmp113:
	.cfi_def_cfa_offset 16
	pushq	%r14
.Ltmp114:
	.cfi_def_cfa_offset 24
	pushq	%r13
.Ltmp115:
	.cfi_def_cfa_offset 32
	pushq	%r12
.Ltmp116:
	.cfi_def_cfa_offset 40
	pushq	%rbx
.Ltmp117:
	.cfi_def_cfa_offset 48
.Ltmp118:
	.cfi_offset %rbx, -48
.Ltmp119:
	.cfi_offset %r12, -40
.Ltmp120:
	.cfi_offset %r13, -32
.Ltmp121:
	.cfi_offset %r14, -24
.Ltmp122:
	.cfi_offset %r15, -16
	movq	PL_markstack_ptr(%rip), %rax
	movq	PL_stack_sp(%rip), %rdx
	leaq	-8(%rax), %rcx
	movq	%rcx, PL_markstack_ptr(%rip)
	movq	(%rax), %rbx
	movq	PL_stack_base(%rip), %rax
	leaq	(%rax,%rbx,8), %rsi
	movq	$3, %rcx
	shlq	%cl, %rbx
	movq	$3, %rcx
	sarq	%cl, %rbx
	subq	%rsi, %rdx
	cmpq	$16, %rdx
	je	.LBB15_2
# BB#1:                                 # %if.then
	movabsq	$.L.str3, %rdi
	xorq	%rax, %rax
	callq	Perl_croak
	movq	PL_stack_base(%rip), %rax
.LBB15_2:                               # %if.end
	movq	8(%rax,%rbx,8), %rdi
	leaq	1(%rbx), %r13
	callq	Perl_sv_2io
	movq	(%rax), %rcx
	movq	PL_op(%rip), %rax
	movq	PL_stack_base(%rip), %rdx
	movq	64(%rcx), %r14
	movzbl	37(%rax), %ecx
	movq	16(%rdx,%rbx,8), %r15
	testq	$32, %rcx
	je	.LBB15_4
# BB#3:                                 # %cond.true
	movq	24(%rax), %rax
	movq	PL_curpad(%rip), %rcx
	movq	(%rcx,%rax,8), %r12
	jmp	.LBB15_5
.LBB15_4:                               # %cond.false
	callq	Perl_sv_newmortal
	movq	%rax, %r12
.LBB15_5:                               # %cond.end
	xorq	%rdx, %rdx
	movq	$1, %rcx
	xorq	%r8, %r8
	movq	%r14, %rdi
	movq	%r15, %rsi
	callq	do_store
	movq	PL_stack_base(%rip), %r14
	movq	$32, %rcx
	shlq	%cl, %rax
	movq	$32, %rcx
	sarq	%cl, %rax
	movq	%r12, %rdi
	movq	%rax, %rsi
	callq	Perl_sv_setiv
	movzbl	17(%r12), %eax
	testq	$64, %rax
	je	.LBB15_7
# BB#6:                                 # %if.then16
	movq	%r12, %rdi
	callq	Perl_mg_set
.LBB15_7:                               # %if.end18
	movq	%r12, 8(%r14,%rbx,8)
	movq	PL_stack_base(%rip), %rax
	leaq	(%rax,%r13,8), %rax
	movq	%rax, PL_stack_sp(%rip)
	popq	%rbx
	popq	%r12
	popq	%r13
	popq	%r14
	popq	%r15
	retq
.Ltmp123:
	.size	XS_Storable_net_pstore, .Ltmp123-XS_Storable_net_pstore
	.cfi_endproc

	.globl	XS_Storable_mstore
	.align	16, 0x90
	.type	XS_Storable_mstore,@function
XS_Storable_mstore:                     # @XS_Storable_mstore
	.cfi_startproc
# BB#0:                                 # %entry
	pushq	%r14
.Ltmp127:
	.cfi_def_cfa_offset 16
	pushq	%rbx
.Ltmp128:
	.cfi_def_cfa_offset 24
	pushq	%rax
.Ltmp129:
	.cfi_def_cfa_offset 32
.Ltmp130:
	.cfi_offset %rbx, -24
.Ltmp131:
	.cfi_offset %r14, -16
	movq	PL_markstack_ptr(%rip), %rax
	movq	PL_stack_sp(%rip), %rdx
	leaq	-8(%rax), %rcx
	movq	%rcx, PL_markstack_ptr(%rip)
	movq	(%rax), %rbx
	movq	PL_stack_base(%rip), %rax
	leaq	(%rax,%rbx,8), %rsi
	movq	$3, %rcx
	shlq	%cl, %rbx
	movq	$3, %rcx
	sarq	%cl, %rbx
	subq	%rsi, %rdx
	cmpq	$8, %rdx
	je	.LBB16_2
# BB#1:                                 # %if.then
	movabsq	$.L.str4, %rdi
	xorq	%rax, %rax
	callq	Perl_croak
	movq	PL_stack_base(%rip), %rax
.LBB16_2:                               # %if.end
	movq	8(%rax,%rbx,8), %rsi
	leaq	1(%rbx), %r14
	leaq	(%rsp), %r8
	xorq	%rdi, %rdi
	xorq	%rdx, %rdx
	xorq	%rcx, %rcx
	callq	do_store
	movabsq	$4294967295, %rcx       # imm = 0xFFFFFFFF
	testq	%rcx, %rax
	je	.LBB16_3
# BB#4:                                 # %if.end
	movq	(%rsp), %rax
	jmp	.LBB16_5
.LBB16_3:
	movabsq	$PL_sv_undef, %rax
.LBB16_5:                               # %if.end
	movq	PL_stack_base(%rip), %rcx
	movq	%rax, 8(%rcx,%rbx,8)
	movq	PL_stack_base(%rip), %rax
	movq	8(%rax,%rbx,8), %rdi
	callq	Perl_sv_2mortal
	movq	PL_stack_base(%rip), %rax
	leaq	(%rax,%r14,8), %rax
	movq	%rax, PL_stack_sp(%rip)
	addq	$8, %rsp
	popq	%rbx
	popq	%r14
	retq
.Ltmp132:
	.size	XS_Storable_mstore, .Ltmp132-XS_Storable_mstore
	.cfi_endproc

	.globl	XS_Storable_net_mstore
	.align	16, 0x90
	.type	XS_Storable_net_mstore,@function
XS_Storable_net_mstore:                 # @XS_Storable_net_mstore
	.cfi_startproc
# BB#0:                                 # %entry
	pushq	%r14
.Ltmp136:
	.cfi_def_cfa_offset 16
	pushq	%rbx
.Ltmp137:
	.cfi_def_cfa_offset 24
	pushq	%rax
.Ltmp138:
	.cfi_def_cfa_offset 32
.Ltmp139:
	.cfi_offset %rbx, -24
.Ltmp140:
	.cfi_offset %r14, -16
	movq	PL_markstack_ptr(%rip), %rax
	movq	PL_stack_sp(%rip), %rdx
	leaq	-8(%rax), %rcx
	movq	%rcx, PL_markstack_ptr(%rip)
	movq	(%rax), %rbx
	movq	PL_stack_base(%rip), %rax
	leaq	(%rax,%rbx,8), %rsi
	movq	$3, %rcx
	shlq	%cl, %rbx
	movq	$3, %rcx
	sarq	%cl, %rbx
	subq	%rsi, %rdx
	cmpq	$8, %rdx
	je	.LBB17_2
# BB#1:                                 # %if.then
	movabsq	$.L.str5, %rdi
	xorq	%rax, %rax
	callq	Perl_croak
	movq	PL_stack_base(%rip), %rax
.LBB17_2:                               # %if.end
	movq	8(%rax,%rbx,8), %rsi
	leaq	1(%rbx), %r14
	leaq	(%rsp), %r8
	xorq	%rdi, %rdi
	xorq	%rdx, %rdx
	movq	$1, %rcx
	callq	do_store
	movabsq	$4294967295, %rcx       # imm = 0xFFFFFFFF
	testq	%rcx, %rax
	je	.LBB17_3
# BB#4:                                 # %if.end
	movq	(%rsp), %rax
	jmp	.LBB17_5
.LBB17_3:
	movabsq	$PL_sv_undef, %rax
.LBB17_5:                               # %if.end
	movq	PL_stack_base(%rip), %rcx
	movq	%rax, 8(%rcx,%rbx,8)
	movq	PL_stack_base(%rip), %rax
	movq	8(%rax,%rbx,8), %rdi
	callq	Perl_sv_2mortal
	movq	PL_stack_base(%rip), %rax
	leaq	(%rax,%r14,8), %rax
	movq	%rax, PL_stack_sp(%rip)
	addq	$8, %rsp
	popq	%rbx
	popq	%r14
	retq
.Ltmp141:
	.size	XS_Storable_net_mstore, .Ltmp141-XS_Storable_net_mstore
	.cfi_endproc

	.globl	XS_Storable_pretrieve
	.align	16, 0x90
	.type	XS_Storable_pretrieve,@function
XS_Storable_pretrieve:                  # @XS_Storable_pretrieve
	.cfi_startproc
# BB#0:                                 # %entry
	pushq	%r14
.Ltmp145:
	.cfi_def_cfa_offset 16
	pushq	%rbx
.Ltmp146:
	.cfi_def_cfa_offset 24
	pushq	%rax
.Ltmp147:
	.cfi_def_cfa_offset 32
.Ltmp148:
	.cfi_offset %rbx, -24
.Ltmp149:
	.cfi_offset %r14, -16
	movq	PL_markstack_ptr(%rip), %rax
	movq	PL_stack_sp(%rip), %rdx
	leaq	-8(%rax), %rcx
	movq	%rcx, PL_markstack_ptr(%rip)
	movq	(%rax), %rbx
	movq	PL_stack_base(%rip), %rax
	leaq	(%rax,%rbx,8), %rsi
	movq	$3, %rcx
	shlq	%cl, %rbx
	movq	$3, %rcx
	sarq	%cl, %rbx
	leaq	1(%rbx), %r14
	subq	%rsi, %rdx
	cmpq	$8, %rdx
	je	.LBB18_2
# BB#1:                                 # %if.then
	movabsq	$.L.str6, %rdi
	xorq	%rax, %rax
	callq	Perl_croak
	movq	PL_stack_base(%rip), %rax
.LBB18_2:                               # %if.end
	movq	8(%rax,%rbx,8), %rdi
	callq	Perl_sv_2io
	movq	(%rax), %rax
	movq	56(%rax), %rdi
	xorq	%rsi, %rsi
	xorq	%rdx, %rdx
	callq	do_retrieve
	movq	PL_stack_base(%rip), %rcx
	movq	%rax, 8(%rcx,%rbx,8)
	movq	PL_stack_base(%rip), %rax
	movq	8(%rax,%rbx,8), %rdi
	callq	Perl_sv_2mortal
	movq	PL_stack_base(%rip), %rax
	leaq	(%rax,%r14,8), %rax
	movq	%rax, PL_stack_sp(%rip)
	addq	$8, %rsp
	popq	%rbx
	popq	%r14
	retq
.Ltmp150:
	.size	XS_Storable_pretrieve, .Ltmp150-XS_Storable_pretrieve
	.cfi_endproc

	.globl	XS_Storable_mretrieve
	.align	16, 0x90
	.type	XS_Storable_mretrieve,@function
XS_Storable_mretrieve:                  # @XS_Storable_mretrieve
	.cfi_startproc
# BB#0:                                 # %entry
	pushq	%r14
.Ltmp154:
	.cfi_def_cfa_offset 16
	pushq	%rbx
.Ltmp155:
	.cfi_def_cfa_offset 24
	pushq	%rax
.Ltmp156:
	.cfi_def_cfa_offset 32
.Ltmp157:
	.cfi_offset %rbx, -24
.Ltmp158:
	.cfi_offset %r14, -16
	movq	PL_markstack_ptr(%rip), %rax
	movq	PL_stack_sp(%rip), %rdx
	leaq	-8(%rax), %rcx
	movq	%rcx, PL_markstack_ptr(%rip)
	movq	(%rax), %rbx
	movq	PL_stack_base(%rip), %rax
	leaq	(%rax,%rbx,8), %rsi
	movq	$3, %rcx
	shlq	%cl, %rbx
	movq	$3, %rcx
	sarq	%cl, %rbx
	leaq	1(%rbx), %r14
	subq	%rsi, %rdx
	cmpq	$8, %rdx
	je	.LBB19_2
# BB#1:                                 # %if.then
	movabsq	$.L.str7, %rdi
	xorq	%rax, %rax
	callq	Perl_croak
	movq	PL_stack_base(%rip), %rax
.LBB19_2:                               # %if.end
	movq	8(%rax,%rbx,8), %rsi
	xorq	%rdi, %rdi
	xorq	%rdx, %rdx
	callq	do_retrieve
	movq	PL_stack_base(%rip), %rcx
	movq	%rax, 8(%rcx,%rbx,8)
	movq	PL_stack_base(%rip), %rax
	movq	8(%rax,%rbx,8), %rdi
	callq	Perl_sv_2mortal
	movq	PL_stack_base(%rip), %rax
	leaq	(%rax,%r14,8), %rax
	movq	%rax, PL_stack_sp(%rip)
	addq	$8, %rsp
	popq	%rbx
	popq	%r14
	retq
.Ltmp159:
	.size	XS_Storable_mretrieve, .Ltmp159-XS_Storable_mretrieve
	.cfi_endproc

	.globl	XS_Storable_dclone
	.align	16, 0x90
	.type	XS_Storable_dclone,@function
XS_Storable_dclone:                     # @XS_Storable_dclone
	.cfi_startproc
# BB#0:                                 # %entry
	pushq	%r14
.Ltmp163:
	.cfi_def_cfa_offset 16
	pushq	%rbx
.Ltmp164:
	.cfi_def_cfa_offset 24
	pushq	%rax
.Ltmp165:
	.cfi_def_cfa_offset 32
.Ltmp166:
	.cfi_offset %rbx, -24
.Ltmp167:
	.cfi_offset %r14, -16
	movq	PL_markstack_ptr(%rip), %rax
	movq	PL_stack_sp(%rip), %rdx
	leaq	-8(%rax), %rcx
	movq	%rcx, PL_markstack_ptr(%rip)
	movq	(%rax), %rbx
	movq	PL_stack_base(%rip), %rax
	leaq	(%rax,%rbx,8), %rsi
	movq	$3, %rcx
	shlq	%cl, %rbx
	movq	$3, %rcx
	sarq	%cl, %rbx
	leaq	1(%rbx), %r14
	subq	%rsi, %rdx
	cmpq	$8, %rdx
	je	.LBB20_2
# BB#1:                                 # %if.then
	movabsq	$.L.str8, %rdi
	xorq	%rax, %rax
	callq	Perl_croak
	movq	PL_stack_base(%rip), %rax
.LBB20_2:                               # %if.end
	movq	8(%rax,%rbx,8), %rdi
	callq	dclone
	movq	PL_stack_base(%rip), %rcx
	movq	%rax, 8(%rcx,%rbx,8)
	movq	PL_stack_base(%rip), %rax
	movq	8(%rax,%rbx,8), %rdi
	callq	Perl_sv_2mortal
	movq	PL_stack_base(%rip), %rax
	leaq	(%rax,%r14,8), %rax
	movq	%rax, PL_stack_sp(%rip)
	addq	$8, %rsp
	popq	%rbx
	popq	%r14
	retq
.Ltmp168:
	.size	XS_Storable_dclone, .Ltmp168-XS_Storable_dclone
	.cfi_endproc

	.globl	XS_Storable_last_op_in_netorder
	.align	16, 0x90
	.type	XS_Storable_last_op_in_netorder,@function
XS_Storable_last_op_in_netorder:        # @XS_Storable_last_op_in_netorder
	.cfi_startproc
# BB#0:                                 # %entry
	pushq	%r15
.Ltmp174:
	.cfi_def_cfa_offset 16
	pushq	%r14
.Ltmp175:
	.cfi_def_cfa_offset 24
	pushq	%r12
.Ltmp176:
	.cfi_def_cfa_offset 32
	pushq	%rbx
.Ltmp177:
	.cfi_def_cfa_offset 40
	pushq	%rax
.Ltmp178:
	.cfi_def_cfa_offset 48
.Ltmp179:
	.cfi_offset %rbx, -40
.Ltmp180:
	.cfi_offset %r12, -32
.Ltmp181:
	.cfi_offset %r14, -24
.Ltmp182:
	.cfi_offset %r15, -16
	movq	PL_markstack_ptr(%rip), %rax
	movq	PL_stack_sp(%rip), %rdx
	leaq	-8(%rax), %rcx
	movq	%rcx, PL_markstack_ptr(%rip)
	movq	(%rax), %rbx
	movq	PL_stack_base(%rip), %rax
	leaq	(%rax,%rbx,8), %rax
	movq	$3, %rcx
	shlq	%cl, %rbx
	movq	$3, %rcx
	sarq	%cl, %rbx
	cmpq	%rax, %rdx
	je	.LBB21_2
# BB#1:                                 # %if.then
	movabsq	$.L.str9, %rdi
	xorq	%rax, %rax
	callq	Perl_croak
.LBB21_2:                               # %if.end
	movq	PL_op(%rip), %rax
	movzbl	37(%rax), %ecx
	leaq	1(%rbx), %r15
	testq	$32, %rcx
	je	.LBB21_4
# BB#3:                                 # %cond.true
	movq	24(%rax), %rax
	movq	PL_curpad(%rip), %rcx
	movq	(%rcx,%rax,8), %r14
	jmp	.LBB21_5
.LBB21_4:                               # %cond.false
	callq	Perl_sv_newmortal
	movq	%rax, %r14
.LBB21_5:                               # %cond.end
	movq	Context_ptr(%rip), %rax
	movq	PL_stack_base(%rip), %r12
	movslq	80(%rax), %rsi
	movq	%r14, %rdi
	callq	Perl_sv_setiv
	movzbl	17(%r14), %eax
	testq	$64, %rax
	je	.LBB21_7
# BB#6:                                 # %if.then11
	movq	%r14, %rdi
	callq	Perl_mg_set
.LBB21_7:                               # %if.end13
	movq	%r14, 8(%r12,%rbx,8)
	movq	PL_stack_base(%rip), %rax
	leaq	(%rax,%r15,8), %rax
	movq	%rax, PL_stack_sp(%rip)
	addq	$8, %rsp
	popq	%rbx
	popq	%r12
	popq	%r14
	popq	%r15
	retq
.Ltmp183:
	.size	XS_Storable_last_op_in_netorder, .Ltmp183-XS_Storable_last_op_in_netorder
	.cfi_endproc

	.globl	XS_Storable_is_storing
	.align	16, 0x90
	.type	XS_Storable_is_storing,@function
XS_Storable_is_storing:                 # @XS_Storable_is_storing
	.cfi_startproc
# BB#0:                                 # %entry
	pushq	%r15
.Ltmp189:
	.cfi_def_cfa_offset 16
	pushq	%r14
.Ltmp190:
	.cfi_def_cfa_offset 24
	pushq	%r12
.Ltmp191:
	.cfi_def_cfa_offset 32
	pushq	%rbx
.Ltmp192:
	.cfi_def_cfa_offset 40
	pushq	%rax
.Ltmp193:
	.cfi_def_cfa_offset 48
.Ltmp194:
	.cfi_offset %rbx, -40
.Ltmp195:
	.cfi_offset %r12, -32
.Ltmp196:
	.cfi_offset %r14, -24
.Ltmp197:
	.cfi_offset %r15, -16
	movq	PL_markstack_ptr(%rip), %rax
	movq	PL_stack_sp(%rip), %rdx
	leaq	-8(%rax), %rcx
	movq	%rcx, PL_markstack_ptr(%rip)
	movq	(%rax), %rbx
	movq	PL_stack_base(%rip), %rax
	leaq	(%rax,%rbx,8), %rax
	movq	$3, %rcx
	shlq	%cl, %rbx
	movq	$3, %rcx
	sarq	%cl, %rbx
	cmpq	%rax, %rdx
	je	.LBB22_2
# BB#1:                                 # %if.then
	movabsq	$.L.str10, %rdi
	xorq	%rax, %rax
	callq	Perl_croak
.LBB22_2:                               # %if.end
	movq	PL_op(%rip), %rax
	movzbl	37(%rax), %ecx
	leaq	1(%rbx), %r15
	testq	$32, %rcx
	je	.LBB22_4
# BB#3:                                 # %cond.true
	movq	24(%rax), %rax
	movq	PL_curpad(%rip), %rcx
	movq	(%rcx,%rax,8), %r14
	jmp	.LBB22_5
.LBB22_4:                               # %cond.false
	callq	Perl_sv_newmortal
	movq	%rax, %r14
.LBB22_5:                               # %cond.end
	movq	Context_ptr(%rip), %rax
	movl	(%rax), %ecx
	xorq	%rsi, %rsi
	testq	%rcx, %rcx
	je	.LBB22_7
# BB#6:                                 # %land.rhs.i
	movzbl	4(%rax), %esi
	andq	$1, %rsi
.LBB22_7:                               # %is_storing.exit
	movq	PL_stack_base(%rip), %r12
	movq	%r14, %rdi
	callq	Perl_sv_setiv
	movzbl	17(%r14), %eax
	testq	$64, %rax
	je	.LBB22_9
# BB#8:                                 # %if.then11
	movq	%r14, %rdi
	callq	Perl_mg_set
.LBB22_9:                               # %if.end13
	movq	%r14, 8(%r12,%rbx,8)
	movq	PL_stack_base(%rip), %rax
	leaq	(%rax,%r15,8), %rax
	movq	%rax, PL_stack_sp(%rip)
	addq	$8, %rsp
	popq	%rbx
	popq	%r12
	popq	%r14
	popq	%r15
	retq
.Ltmp198:
	.size	XS_Storable_is_storing, .Ltmp198-XS_Storable_is_storing
	.cfi_endproc

	.globl	XS_Storable_is_retrieving
	.align	16, 0x90
	.type	XS_Storable_is_retrieving,@function
XS_Storable_is_retrieving:              # @XS_Storable_is_retrieving
	.cfi_startproc
# BB#0:                                 # %entry
	pushq	%r15
.Ltmp204:
	.cfi_def_cfa_offset 16
	pushq	%r14
.Ltmp205:
	.cfi_def_cfa_offset 24
	pushq	%r12
.Ltmp206:
	.cfi_def_cfa_offset 32
	pushq	%rbx
.Ltmp207:
	.cfi_def_cfa_offset 40
	pushq	%rax
.Ltmp208:
	.cfi_def_cfa_offset 48
.Ltmp209:
	.cfi_offset %rbx, -40
.Ltmp210:
	.cfi_offset %r12, -32
.Ltmp211:
	.cfi_offset %r14, -24
.Ltmp212:
	.cfi_offset %r15, -16
	movq	PL_markstack_ptr(%rip), %rax
	movq	PL_stack_sp(%rip), %rdx
	leaq	-8(%rax), %rcx
	movq	%rcx, PL_markstack_ptr(%rip)
	movq	(%rax), %rbx
	movq	PL_stack_base(%rip), %rax
	leaq	(%rax,%rbx,8), %rax
	movq	$3, %rcx
	shlq	%cl, %rbx
	movq	$3, %rcx
	sarq	%cl, %rbx
	cmpq	%rax, %rdx
	je	.LBB23_2
# BB#1:                                 # %if.then
	movabsq	$.L.str11, %rdi
	xorq	%rax, %rax
	callq	Perl_croak
.LBB23_2:                               # %if.end
	movq	PL_op(%rip), %rax
	movzbl	37(%rax), %ecx
	leaq	1(%rbx), %r15
	testq	$32, %rcx
	je	.LBB23_4
# BB#3:                                 # %cond.true
	movq	24(%rax), %rax
	movq	PL_curpad(%rip), %rcx
	movq	(%rcx,%rax,8), %r14
	jmp	.LBB23_5
.LBB23_4:                               # %cond.false
	callq	Perl_sv_newmortal
	movq	%rax, %r14
.LBB23_5:                               # %cond.end
	movq	Context_ptr(%rip), %rax
	movl	(%rax), %ecx
	xorq	%rsi, %rsi
	testq	%rcx, %rcx
	je	.LBB23_7
# BB#6:                                 # %land.rhs.i
	movzbl	4(%rax), %esi
	andq	$2, %rsi
	movq	$1, %rcx
	shrq	%cl, %rsi
.LBB23_7:                               # %is_retrieving.exit
	movq	PL_stack_base(%rip), %r12
	movq	%r14, %rdi
	callq	Perl_sv_setiv
	movzbl	17(%r14), %eax
	testq	$64, %rax
	je	.LBB23_9
# BB#8:                                 # %if.then11
	movq	%r14, %rdi
	callq	Perl_mg_set
.LBB23_9:                               # %if.end13
	movq	%r14, 8(%r12,%rbx,8)
	movq	PL_stack_base(%rip), %rax
	leaq	(%rax,%r15,8), %rax
	movq	%rax, PL_stack_sp(%rip)
	addq	$8, %rsp
	popq	%rbx
	popq	%r12
	popq	%r14
	popq	%r15
	retq
.Ltmp213:
	.size	XS_Storable_is_retrieving, .Ltmp213-XS_Storable_is_retrieving
	.cfi_endproc

	.globl	boot_Storable
	.align	16, 0x90
	.type	boot_Storable,@function
boot_Storable:                          # @boot_Storable
	.cfi_startproc
# BB#0:                                 # %entry
	pushq	%r15
.Ltmp220:
	.cfi_def_cfa_offset 16
	pushq	%r14
.Ltmp221:
	.cfi_def_cfa_offset 24
	pushq	%r13
.Ltmp222:
	.cfi_def_cfa_offset 32
	pushq	%r12
.Ltmp223:
	.cfi_def_cfa_offset 40
	pushq	%rbx
.Ltmp224:
	.cfi_def_cfa_offset 48
.Ltmp225:
	.cfi_offset %rbx, -48
.Ltmp226:
	.cfi_offset %r12, -40
.Ltmp227:
	.cfi_offset %r13, -32
.Ltmp228:
	.cfi_offset %r14, -24
.Ltmp229:
	.cfi_offset %r15, -16
	movq	PL_markstack_ptr(%rip), %rax
	leaq	-8(%rax), %rcx
	movq	%rcx, PL_markstack_ptr(%rip)
	movq	(%rax), %r13
	movabsq	$.L.str13, %rdi
	movabsq	$XS_Storable__Cxt_DESTROY, %rsi
	movabsq	$.L.str12, %r12
	movq	%r12, %rdx
	callq	Perl_newXS
	movabsq	$.L.str14, %rdi
	movabsq	$XS_Storable_init_perinterp, %rsi
	movq	%r12, %rdx
	callq	Perl_newXS
	movabsq	$.L.str15, %r14
	movq	%rax, %rdi
	movq	%r14, %rsi
	callq	Perl_sv_setpv
	movabsq	$.L.str16, %rdi
	movabsq	$XS_Storable_pstore, %rsi
	movq	%r12, %rdx
	callq	Perl_newXS
	movabsq	$.L.str17, %rbx
	movq	%rax, %rdi
	movq	%rbx, %rsi
	callq	Perl_sv_setpv
	movabsq	$.L.str18, %rdi
	movabsq	$XS_Storable_net_pstore, %rsi
	movq	%r12, %rdx
	callq	Perl_newXS
	movq	%rax, %rdi
	movq	%rbx, %rsi
	callq	Perl_sv_setpv
	movabsq	$.L.str19, %rdi
	movabsq	$XS_Storable_mstore, %rsi
	movq	%r12, %rdx
	callq	Perl_newXS
	movabsq	$.L.str20, %r15
	movq	%rax, %rdi
	movq	%r15, %rsi
	callq	Perl_sv_setpv
	movabsq	$.L.str21, %rdi
	movabsq	$XS_Storable_net_mstore, %rsi
	movq	%r12, %rdx
	callq	Perl_newXS
	movq	%rax, %rdi
	movq	%r15, %rsi
	callq	Perl_sv_setpv
	movabsq	$.L.str22, %rdi
	movabsq	$XS_Storable_pretrieve, %rsi
	movq	%r12, %rdx
	callq	Perl_newXS
	movq	%rax, %rdi
	movq	%r15, %rsi
	callq	Perl_sv_setpv
	movabsq	$.L.str23, %rdi
	movabsq	$XS_Storable_mretrieve, %rsi
	movq	%r12, %rdx
	callq	Perl_newXS
	movq	%rax, %rdi
	movq	%r15, %rsi
	callq	Perl_sv_setpv
	movabsq	$.L.str24, %rdi
	movabsq	$XS_Storable_dclone, %rsi
	movq	%r12, %rdx
	callq	Perl_newXS
	movq	%rax, %rdi
	movq	%r15, %rsi
	callq	Perl_sv_setpv
	movabsq	$.L.str25, %rdi
	movabsq	$XS_Storable_last_op_in_netorder, %rsi
	movq	%r12, %rdx
	callq	Perl_newXS
	movq	%rax, %rdi
	movq	%r14, %rsi
	callq	Perl_sv_setpv
	movabsq	$.L.str26, %rdi
	movabsq	$XS_Storable_is_storing, %rsi
	movq	%r12, %rdx
	callq	Perl_newXS
	movq	%rax, %rdi
	movq	%r14, %rsi
	callq	Perl_sv_setpv
	movabsq	$.L.str27, %rdi
	movabsq	$XS_Storable_is_retrieving, %rsi
	movq	%r12, %rdx
	callq	Perl_newXS
	movq	%rax, %rdi
	movq	%r14, %rsi
	callq	Perl_sv_setpv
	movq	$255, %rdi
	callq	Perl_newSV
	movq	%rax, %rbx
	movq	%rbx, %rdi
	callq	Perl_newRV_noinc
	movq	%rax, %r14
	movabsq	$.L.str29, %rdi
	movq	$1, %rsi
	callq	Perl_gv_stashpv
	movq	%r14, %rdi
	movq	%rax, %rsi
	callq	Perl_sv_bless
	movq	(%rbx), %rax
	movq	(%rax), %rbx
	xorq	%rsi, %rsi
	movq	$248, %rdx
	xorq	%r15, %r15
	movq	%rbx, %rdi
	callq	memset
	movq	%r14, 248(%rbx)
	movq	%rbx, Context_ptr(%rip)
	movl	%r15d, 80(%rbx)
	movabsq	$4294967295, %rax       # imm = 0xFFFFFFFF
	movl	%eax, 88(%rbx)
	movabsq	$.L.str28, %rdi
	movq	$2, %rsi
	movq	$4, %rdx
	callq	Perl_gv_fetchpv
	movq	PL_stack_base(%rip), %rax
	movq	$PL_sv_yes, 8(%rax,%r13,8)
	movq	PL_stack_base(%rip), %rax
	leaq	8(%rax,%r13,8), %rax
	movq	%rax, PL_stack_sp(%rip)
	popq	%rbx
	popq	%r12
	popq	%r13
	popq	%r14
	popq	%r15
	retq
.Ltmp230:
	.size	boot_Storable, .Ltmp230-boot_Storable
	.cfi_endproc

	.align	16, 0x90
	.type	clean_retrieve_context,@function
clean_retrieve_context:                 # @clean_retrieve_context
	.cfi_startproc
# BB#0:                                 # %entry
	pushq	%r14
.Ltmp234:
	.cfi_def_cfa_offset 16
	pushq	%rbx
.Ltmp235:
	.cfi_def_cfa_offset 24
	pushq	%rax
.Ltmp236:
	.cfi_def_cfa_offset 32
.Ltmp237:
	.cfi_offset %rbx, -24
.Ltmp238:
	.cfi_offset %r14, -16
	movq	%rdi, %rbx
	movq	24(%rbx), %r14
	testq	%r14, %r14
	je	.LBB25_2
# BB#1:                                 # %if.then
	movq	$0, 24(%rbx)
	movq	%r14, %rdi
	callq	Perl_av_undef
	movq	%r14, %rdi
	callq	Perl_sv_free
.LBB25_2:                               # %if.end
	movq	$-1, 32(%rbx)
	movq	48(%rbx), %r14
	testq	%r14, %r14
	je	.LBB25_4
# BB#3:                                 # %if.then5
	movq	$0, 48(%rbx)
	movq	%r14, %rdi
	callq	Perl_av_undef
	movq	%r14, %rdi
	callq	Perl_sv_free
.LBB25_4:                               # %if.end9
	movq	56(%rbx), %r14
	testq	%r14, %r14
	je	.LBB25_6
# BB#5:                                 # %if.then11
	movq	$0, 56(%rbx)
	movq	%r14, %rdi
	callq	Perl_hv_undef
	movq	%r14, %rdi
	callq	Perl_sv_free
.LBB25_6:                               # %if.end15
	movq	8(%rbx), %r14
	testq	%r14, %r14
	je	.LBB25_8
# BB#7:                                 # %if.then17
	movq	$0, 8(%rbx)
	movq	%r14, %rdi
	callq	Perl_hv_undef
	movq	%r14, %rdi
	callq	Perl_sv_free
.LBB25_8:                               # %if.end21
	movabsq	$4294967295, %rax       # imm = 0xFFFFFFFF
	movl	%eax, 108(%rbx)
	xorq	%rax, %rax
	movl	%eax, (%rbx)
	movl	%eax, 112(%rbx)
	movl	4(%rbx), %eax
	movabsq	$4294967292, %rcx       # imm = 0xFFFFFFFC
	andq	%rax, %rcx
	movl	%ecx, 4(%rbx)
	addq	$8, %rsp
	popq	%rbx
	popq	%r14
	retq
.Ltmp239:
	.size	clean_retrieve_context, .Ltmp239-clean_retrieve_context
	.cfi_endproc

	.align	16, 0x90
	.type	clean_store_context,@function
clean_store_context:                    # @clean_store_context
	.cfi_startproc
# BB#0:                                 # %entry
	pushq	%r14
.Ltmp243:
	.cfi_def_cfa_offset 16
	pushq	%rbx
.Ltmp244:
	.cfi_def_cfa_offset 24
	pushq	%rax
.Ltmp245:
	.cfi_def_cfa_offset 32
.Ltmp246:
	.cfi_offset %rbx, -24
.Ltmp247:
	.cfi_offset %r14, -16
	movq	%rdi, %rbx
	movq	8(%rbx), %rdi
	testq	%rdi, %rdi
	je	.LBB26_4
# BB#1:                                 # %if.then
	callq	Perl_hv_iterinit
	jmp	.LBB26_3
	.align	16, 0x90
.LBB26_2:                               # %while.body
                                        #   in Loop: Header=BB26_3 Depth=1
	movq	$PL_sv_undef, 16(%rax)
.LBB26_3:                               # %while.body
                                        # =>This Inner Loop Header: Depth=1
	movq	8(%rbx), %rdi
	callq	Perl_hv_iternext
	testq	%rax, %rax
	jne	.LBB26_2
.LBB26_4:                               # %if.end
	movq	40(%rbx), %rdi
	testq	%rdi, %rdi
	je	.LBB26_8
# BB#5:                                 # %if.then6
	callq	Perl_hv_iterinit
	jmp	.LBB26_7
	.align	16, 0x90
.LBB26_6:                               # %while.body13
                                        #   in Loop: Header=BB26_7 Depth=1
	movq	$PL_sv_undef, 16(%rax)
.LBB26_7:                               # %while.body13
                                        # =>This Inner Loop Header: Depth=1
	movq	40(%rbx), %rdi
	callq	Perl_hv_iternext
	testq	%rax, %rax
	jne	.LBB26_6
.LBB26_8:                               # %if.end16
	movq	8(%rbx), %r14
	testq	%r14, %r14
	je	.LBB26_10
# BB#9:                                 # %if.then19
	movq	$0, 8(%rbx)
	movq	%r14, %rdi
	callq	Perl_hv_undef
	movq	%r14, %rdi
	callq	Perl_sv_free
.LBB26_10:                              # %if.end23
	movq	40(%rbx), %r14
	testq	%r14, %r14
	je	.LBB26_12
# BB#11:                                # %if.then26
	movq	$0, 40(%rbx)
	movq	%r14, %rdi
	callq	Perl_hv_undef
	movq	%r14, %rdi
	callq	Perl_sv_free
.LBB26_12:                              # %if.end30
	movq	56(%rbx), %r14
	testq	%r14, %r14
	je	.LBB26_14
# BB#13:                                # %if.then32
	movq	$0, 56(%rbx)
	movq	%r14, %rdi
	callq	Perl_hv_undef
	movq	%r14, %rdi
	callq	Perl_sv_free
.LBB26_14:                              # %if.end36
	movq	16(%rbx), %r14
	testq	%r14, %r14
	je	.LBB26_16
# BB#15:                                # %if.then38
	movq	$0, 16(%rbx)
	movq	%r14, %rdi
	callq	Perl_av_undef
	movq	%r14, %rdi
	callq	Perl_sv_free
.LBB26_16:                              # %if.end42
	movq	$-1, 88(%rbx)
	movq	96(%rbx), %rdi
	testq	%rdi, %rdi
	je	.LBB26_18
# BB#17:                                # %if.then44
	callq	Perl_sv_free
.LBB26_18:                              # %if.end46
	movq	$0, 96(%rbx)
	movabsq	$4294967295, %rax       # imm = 0xFFFFFFFF
	movl	%eax, 104(%rbx)
	xorq	%rax, %rax
	movl	%eax, (%rbx)
	movl	%eax, 112(%rbx)
	movl	4(%rbx), %eax
	movabsq	$4294967292, %rcx       # imm = 0xFFFFFFFC
	andq	%rax, %rcx
	movl	%ecx, 4(%rbx)
	addq	$8, %rsp
	popq	%rbx
	popq	%r14
	retq
.Ltmp248:
	.size	clean_store_context, .Ltmp248-clean_store_context
	.cfi_endproc

	.align	16, 0x90
	.type	retrieve,@function
retrieve:                               # @retrieve
	.cfi_startproc
# BB#0:                                 # %entry
	pushq	%r15
.Ltmp255:
	.cfi_def_cfa_offset 16
	pushq	%r14
.Ltmp256:
	.cfi_def_cfa_offset 24
	pushq	%r13
.Ltmp257:
	.cfi_def_cfa_offset 32
	pushq	%r12
.Ltmp258:
	.cfi_def_cfa_offset 40
	pushq	%rbx
.Ltmp259:
	.cfi_def_cfa_offset 48
	subq	$48, %rsp
.Ltmp260:
	.cfi_def_cfa_offset 96
.Ltmp261:
	.cfi_offset %rbx, -48
.Ltmp262:
	.cfi_offset %r12, -40
.Ltmp263:
	.cfi_offset %r13, -32
.Ltmp264:
	.cfi_offset %r14, -24
.Ltmp265:
	.cfi_offset %r15, -16
	movq	%rdi, %r12
	cmpq	$0, 8(%r12)
	movq	%rsi, %r14
	je	.LBB27_27
# BB#1:                                 # %if.then
	movl	80(%r12), %eax
	movq	216(%r12), %rdi
	testq	%rax, %rax
	je	.LBB27_7
# BB#2:                                 # %if.then2
	testq	%rdi, %rdi
	je	.LBB27_3
# BB#5:                                 # %if.else12
	leaq	32(%rsp), %rsi
	movq	$8, %rdx
	callq	Perl_PerlIO_read
	xorq	%rbx, %rbx
	cmpq	$8, %rax
	jne	.LBB27_103
# BB#6:                                 # %if.else12.if.end17_crit_edge
	movq	32(%rsp), %rax
	movq	%rax, 40(%rsp)
	jmp	.LBB27_11
.LBB27_27:                              # %if.end89
	movq	216(%r12), %rdi
	testq	%rdi, %rdi
	je	.LBB27_28
# BB#30:                                # %if.else106
	callq	PerlIO_getc
	movq	%rax, %r15
	movabsq	$4294967295, %rax       # imm = 0xFFFFFFFF
	movq	%r15, %rcx
	andq	%rax, %rcx
	xorq	%rbx, %rbx
	cmpq	%rax, %rcx
	jne	.LBB27_31
	jmp	.LBB27_103
.LBB27_7:                               # %if.else18
	testq	%rdi, %rdi
	je	.LBB27_8
# BB#10:                                # %if.else36
	leaq	40(%rsp), %rsi
	movq	$8, %rdx
	callq	Perl_PerlIO_read
	xorq	%rbx, %rbx
	cmpq	$8, %rax
	jne	.LBB27_103
	jmp	.LBB27_11
.LBB27_3:                               # %if.then4
	movq	168(%r12), %rax
	movq	176(%r12), %rdx
	leaq	8(%rax), %rcx
	xorq	%rbx, %rbx
	cmpq	%rdx, %rcx
	ja	.LBB27_103
# BB#4:                                 # %if.then6
	movq	(%rax), %rax
	movq	%rax, 32(%rsp)
	movq	%rcx, 168(%r12)
	movq	%rax, 40(%rsp)
	jmp	.LBB27_11
.LBB27_28:                              # %if.then92
	movq	168(%r12), %rax
	movq	176(%r12), %rcx
	xorq	%rbx, %rbx
	cmpq	%rcx, %rax
	jae	.LBB27_103
# BB#29:                                # %if.then99
	leaq	1(%rax), %rcx
	movq	%rcx, 168(%r12)
	movzbl	(%rax), %r15d
.LBB27_31:                              # %if.end113
	movabsq	$4294967295, %rbx       # imm = 0xFFFFFFFF
	testq	%rbx, %r15
	je	.LBB27_32
# BB#41:                                # %if.else171
	movq	$32, %rcx
	movq	%r15, %rax
	shlq	%cl, %rax
	movq	$32, %rcx
	sarq	%cl, %rax
	cmpq	$27, %rax
	jl	.LBB27_67
# BB#42:                                # %land.lhs.true
	movslq	228(%r12), %rax
	cmpq	$7, %rax
	jl	.LBB27_67
# BB#43:                                # %if.then176
	movslq	108(%r12), %rax
	testq	%rax, %rax
	jns	.LBB27_65
# BB#44:                                # %if.then179
	movabsq	$.L.str37, %rdi
	movq	$1, %rsi
	callq	Perl_get_sv
	movq	%rax, %rcx
	xorq	%rax, %rax
	testq	%rcx, %rcx
	je	.LBB27_61
# BB#45:                                # %cond.false183
	movabsq	$.L.str37, %rdi
	movq	$1, %rsi
	movq	%rdi, %r13
	callq	Perl_get_sv
	movq	16(%rax), %rax
	movq	%rax, 8(%rsp)           # 8-byte Spill
	movq	$1, %rsi
	movq	%r13, %rdi
	callq	Perl_get_sv
	testq	$262144, 8(%rsp)        # 8-byte Folded Reload
                                        # imm = 0x40000
	je	.LBB27_52
# BB#46:                                # %cond.true188
	movq	(%rax), %rcx
	xorq	%rax, %rax
	testq	%rcx, %rcx
	movq	%rcx, PL_Xpv(%rip)
	je	.LBB27_61
# BB#47:                                # %land.rhs192
	movq	8(%rcx), %rdx
	cmpq	$1, %rdx
	movq	$1, %rax
	ja	.LBB27_61
# BB#48:                                # %lor.rhs
	testq	%rdx, %rdx
	movabsq	$0, %rax
	je	.LBB27_61
# BB#49:                                # %land.rhs197
	movq	(%rcx), %rax
	movzbl	(%rax), %eax
	cmpq	$48, %rax
	je	.LBB27_50
# BB#51:                                # %land.rhs197
	movabsq	$1, %rax
	jmp	.LBB27_61
.LBB27_8:                               # %if.then21
	movq	168(%r12), %rax
	movq	176(%r12), %rdx
	leaq	8(%rax), %rcx
	xorq	%rbx, %rbx
	cmpq	%rdx, %rcx
	ja	.LBB27_103
# BB#9:                                 # %if.then28
	movq	(%rax), %rax
	movq	%rax, 40(%rsp)
	movq	%rcx, 168(%r12)
.LBB27_11:                              # %if.end43
	movq	216(%r12), %rdi
	testq	%rdi, %rdi
	je	.LBB27_12
# BB#14:                                # %if.else57
	callq	PerlIO_getc
	movq	%rax, %r15
	movabsq	$4294967295, %rax       # imm = 0xFFFFFFFF
	movq	%r15, %rcx
	andq	%rax, %rcx
	xorq	%rbx, %rbx
	cmpq	%rax, %rcx
	jne	.LBB27_15
	jmp	.LBB27_103
.LBB27_12:                              # %if.then46
	movq	168(%r12), %rax
	movq	176(%r12), %rcx
	xorq	%rbx, %rbx
	cmpq	%rcx, %rax
	jae	.LBB27_103
# BB#13:                                # %if.then52
	leaq	1(%rax), %rcx
	movq	%rcx, 168(%r12)
	movzbl	(%rax), %r15d
.LBB27_15:                              # %if.end64
	movq	8(%r12), %r13
	movabsq	$4294967295, %rax       # imm = 0xFFFFFFFF
	testq	%rax, %r15
	je	.LBB27_16
# BB#26:                                # %if.end82
	movq	64(%r12), %rdi
	callq	Perl_newSViv
	leaq	40(%rsp), %rsi
	movq	$8, %rdx
	xorq	%r8, %r8
	xorq	%rbx, %rbx
	movq	%r13, %rdi
	movq	%rax, %rcx
	callq	Perl_hv_store
	testq	%rax, %rax
	jne	.LBB27_67
	jmp	.LBB27_103
.LBB27_32:                              # %if.then116
	movq	216(%r12), %rdi
	testq	%rdi, %rdi
	je	.LBB27_33
# BB#37:                                # %if.else149
	leaq	24(%rsp), %rsi
	movq	$8, %rdx
	callq	Perl_PerlIO_read
	xorq	%rbx, %rbx
	cmpq	$8, %rax
	jne	.LBB27_103
	jmp	.LBB27_38
.LBB27_16:                              # %if.then67
	leaq	40(%rsp), %rsi
	movq	$8, %rdx
	xorq	%rcx, %rcx
	movq	%r13, %rdi
	callq	Perl_hv_fetch
	movq	%rax, %rbx
	testq	%rbx, %rbx
	jne	.LBB27_18
# BB#17:                                # %if.then71
	movq	$1, %rax
	movl	%eax, 112(%r12)
	movq	40(%rsp), %rsi
	movabsq	$.L.str35, %rdi
	xorq	%rax, %rax
	callq	Perl_croak
.LBB27_18:                              # %if.end72
	movq	(%rbx), %rdi
	movzbl	18(%rdi), %eax
	testq	$1, %rax
	je	.LBB27_20
# BB#19:                                # %cond.true
	movq	(%rdi), %rax
	movq	24(%rax), %r14
	jmp	.LBB27_21
.LBB27_33:                              # %if.then120
	movq	168(%r12), %rcx
	movq	176(%r12), %rdx
	leaq	4(%rcx), %rax
	xorq	%rbx, %rbx
	cmpq	%rdx, %rax
	ja	.LBB27_103
# BB#34:                                # %if.then128
	movq	%rcx, %rdx
	andq	$-4, %rdx
	cmpq	%rdx, %rcx
	jne	.LBB27_36
# BB#35:                                # %if.then136
	movslq	(%rcx), %rcx
	movq	%rcx, 24(%rsp)
	movq	%rax, 168(%r12)
	jmp	.LBB27_38
.LBB27_20:                              # %cond.false
	callq	Perl_sv_2iv
	movq	%rax, %r14
.LBB27_21:                              # %cond.end
	movq	24(%r12), %rdi
	xorq	%rdx, %rdx
	xorq	%rbx, %rbx
	movq	%r14, %rsi
	callq	Perl_av_fetch
	movq	%rax, %r15
	testq	%r15, %r15
	jne	.LBB27_23
# BB#22:                                # %if.then77
	movq	$1, %rax
	movl	%eax, 112(%r12)
	movabsq	$.L.str36, %rdi
	xorq	%rax, %rax
	movq	%r14, %rsi
	callq	Perl_croak
.LBB27_23:                              # %if.end79
	movq	(%r15), %rax
	jmp	.LBB27_24
.LBB27_36:                              # %if.else140
	movl	(%rcx), %ecx
	movl	%ecx, 24(%rsp)
	movq	%rax, 168(%r12)
.LBB27_38:                              # %if.end156
	movq	24(%rsp), %rdi
	callq	Perl_my_ntohl
	movq	%rax, 24(%rsp)
	movq	24(%r12), %rdi
	xorq	%rdx, %rdx
	xorq	%rbx, %rbx
	movq	%rax, %rsi
	callq	Perl_av_fetch
	movq	%rax, %r14
	testq	%r14, %r14
	jne	.LBB27_40
# BB#39:                                # %if.then161
	movq	$1, %rax
	movl	%eax, 112(%r12)
	movq	24(%rsp), %rsi
	movabsq	$.L.str36, %rdi
	xorq	%rax, %rax
	callq	Perl_croak
.LBB27_40:                              # %if.end163
	movq	(%r14), %rax
.LBB27_24:                              # %if.end79
	testq	%rax, %rax
	movq	%rax, PL_Sv(%rip)
	je	.LBB27_103
# BB#25:                                # %land.rhs
	incq	8(%rax)
	movq	%rax, %rbx
	jmp	.LBB27_103
.LBB27_52:                              # %cond.false206
	movq	16(%rax), %r13
	movabsq	$.L.str37, %rdi
	movq	$1, %rsi
	callq	Perl_get_sv
	testq	$65536, %r13            # imm = 0x10000
	je	.LBB27_56
# BB#53:                                # %cond.true211
	movq	(%rax), %rax
	cmpq	$0, 24(%rax)
	je	.LBB27_54
# BB#55:                                # %cond.true211
	movabsq	$1, %rax
	jmp	.LBB27_61
.LBB27_56:                              # %cond.false217
	movq	16(%rax), %r13
	movabsq	$.L.str37, %rdi
	movq	$1, %rsi
	callq	Perl_get_sv
	testq	$131072, %r13           # imm = 0x20000
	je	.LBB27_60
# BB#57:                                # %cond.true222
	movq	(%rax), %rax
	movq	32(%rax), %rdi
	xorq	%rsi, %rsi
	callq	__nedf2
	testq	%rax, %rax
	je	.LBB27_58
# BB#59:                                # %cond.true222
	movabsq	$1, %rax
	jmp	.LBB27_61
.LBB27_54:
	movabsq	$0, %rax
	jmp	.LBB27_61
.LBB27_50:
	movabsq	$0, %rax
	jmp	.LBB27_61
.LBB27_60:                              # %cond.false227
	movq	%rax, %rdi
	callq	Perl_sv_2bool
	jmp	.LBB27_61
.LBB27_58:
	movabsq	$0, %rax
.LBB27_61:                              # %cond.end237
	testq	%rbx, %rax
	je	.LBB27_62
# BB#63:                                # %cond.end237
	movabsq	$1, %rax
	jmp	.LBB27_64
.LBB27_62:
	movabsq	$0, %rax
.LBB27_64:                              # %cond.end237
	movl	%eax, 108(%r12)
.LBB27_65:                              # %if.end242
	andq	%rbx, %rax
	cmpq	$1, %rax
	jne	.LBB27_67
# BB#66:                                # %if.then246
	movq	$1, %rax
	movl	%eax, 112(%r12)
	movl	228(%r12), %edx
	movl	224(%r12), %esi
	movabsq	$.L.str38, %rdi
	movq	$2, %r8
	movq	$6, %r9
	xorq	%rax, %rax
	movq	$26, (%rsp)
	movq	%r15, %rcx
	callq	Perl_croak
.LBB27_67:                              # %first_time
	movq	$32, %rcx
	shlq	%cl, %r15
	movq	$32, %rcx
	sarq	%cl, %r15
	cmpq	$27, %r15
	jle	.LBB27_69
# BB#68:                                # %first_time
	movq	$27, %r15
.LBB27_69:                              # %first_time
	movq	232(%r12), %rcx
	xorq	%rax, %rax
	xorq	%rbx, %rbx
	movq	%r12, %rdi
	movq	%r14, %rsi
	callq	*(%rcx,%r15,8)
	movq	%rax, %r14
	testq	%r14, %r14
	je	.LBB27_103
# BB#70:                                # %if.end261
	movslq	224(%r12), %rax
	cmpq	$1, %rax
	jg	.LBB27_71
# BB#72:                                # %while.cond.preheader
	movabsq	$4294967295, %r15       # imm = 0xFFFFFFFF
	jmp	.LBB27_73
	.align	16, 0x90
.LBB27_100:                             # %if.end408
                                        #   in Loop: Header=BB27_73 Depth=1
	movq	120(%r12), %rax
	xorq	%rdx, %rdx
	movb	%dl, (%rax,%rcx)
	movq	120(%r12), %rdi
	movq	$1, %rsi
	callq	Perl_gv_stashpv
	movq	%rax, %r13
	movq	%r14, %rdi
	callq	Perl_newRV_noinc
	movq	%rax, %rbx
	movq	%rbx, %rdi
	movq	%r13, %rsi
	callq	Perl_sv_bless
	movq	(%rbx), %rax
	movq	$0, (%rax)
	movq	%rbx, %rdi
	callq	Perl_sv_free
.LBB27_73:                              # %while.cond
                                        # =>This Inner Loop Header: Depth=1
	movq	216(%r12), %rdi
	testq	%rdi, %rdi
	jne	.LBB27_74
# BB#75:                                # %cond.false271
                                        #   in Loop: Header=BB27_73 Depth=1
	movq	168(%r12), %rax
	movq	176(%r12), %rcx
	cmpq	%rcx, %rax
	jae	.LBB27_102
# BB#76:                                # %cond.false279
                                        #   in Loop: Header=BB27_73 Depth=1
	leaq	1(%rax), %rcx
	movq	%rcx, 168(%r12)
	movsbq	(%rax), %rax
	jmp	.LBB27_77
	.align	16, 0x90
.LBB27_74:                              # %cond.true268
                                        #   in Loop: Header=BB27_73 Depth=1
	callq	PerlIO_getc
.LBB27_77:                              # %cond.end286
                                        #   in Loop: Header=BB27_73 Depth=1
	andq	%r15, %rax
	cmpq	$66, %rax
	je	.LBB27_84
# BB#78:                                # %cond.end286
                                        #   in Loop: Header=BB27_73 Depth=1
	cmpq	$88, %rax
	je	.LBB27_79
# BB#80:                                # %cond.end286
                                        #   in Loop: Header=BB27_73 Depth=1
	cmpq	$98, %rax
	jne	.LBB27_102
# BB#81:                                # %sw.bb
                                        #   in Loop: Header=BB27_73 Depth=1
	movq	216(%r12), %rdi
	testq	%rdi, %rdi
	jne	.LBB27_101
# BB#82:                                # %if.then292
                                        #   in Loop: Header=BB27_73 Depth=1
	movq	168(%r12), %rax
	movq	176(%r12), %rcx
	cmpq	%rcx, %rax
	jae	.LBB27_102
# BB#83:                                # %if.then299
                                        #   in Loop: Header=BB27_73 Depth=1
	leaq	1(%rax), %rcx
	movq	%rcx, 168(%r12)
	movzbl	(%rax), %eax
	jmp	.LBB27_92
	.align	16, 0x90
.LBB27_84:                              # %sw.bb317
                                        #   in Loop: Header=BB27_73 Depth=1
	movq	216(%r12), %rdi
	testq	%rdi, %rdi
	jne	.LBB27_89
# BB#85:                                # %if.then320
                                        #   in Loop: Header=BB27_73 Depth=1
	movq	168(%r12), %rcx
	movq	176(%r12), %rdx
	leaq	4(%rcx), %rax
	cmpq	%rdx, %rax
	ja	.LBB27_102
# BB#86:                                # %if.then328
                                        #   in Loop: Header=BB27_73 Depth=1
	movq	%rcx, %rdx
	andq	$-4, %rdx
	cmpq	%rdx, %rcx
	jne	.LBB27_88
# BB#87:                                # %if.then336
                                        #   in Loop: Header=BB27_73 Depth=1
	movslq	(%rcx), %rcx
	movq	%rcx, 16(%rsp)
	movq	%rax, 168(%r12)
	jmp	.LBB27_90
.LBB27_89:                              # %if.else349
                                        #   in Loop: Header=BB27_73 Depth=1
	movq	$8, %rdx
	leaq	16(%rsp), %rsi
	callq	Perl_PerlIO_read
	cmpq	$8, %rax
	je	.LBB27_90
	jmp	.LBB27_102
.LBB27_101:                             # %if.else307
                                        #   in Loop: Header=BB27_73 Depth=1
	callq	PerlIO_getc
	movq	%rax, %rdx
	andq	%r15, %rdx
	movq	$32, %rcx
	shlq	%cl, %rax
	movq	$32, %rcx
	sarq	%cl, %rax
	cmpq	%r15, %rdx
	movq	%rax, 16(%rsp)
	jne	.LBB27_93
	jmp	.LBB27_102
.LBB27_88:                              # %if.else340
                                        #   in Loop: Header=BB27_73 Depth=1
	movl	(%rcx), %ecx
	movl	%ecx, 16(%rsp)
	movq	%rax, 168(%r12)
.LBB27_90:                              # %if.end356
                                        #   in Loop: Header=BB27_73 Depth=1
	movl	80(%r12), %ecx
	movq	16(%rsp), %rax
	testq	%rcx, %rcx
	je	.LBB27_93
# BB#91:                                # %if.then359
                                        #   in Loop: Header=BB27_73 Depth=1
	movq	%rax, %rdi
	callq	Perl_my_ntohl
	movq	$32, %rcx
	shlq	%cl, %rax
	movq	$32, %rcx
	sarq	%cl, %rax
.LBB27_92:                              # %sw.epilog
                                        #   in Loop: Header=BB27_73 Depth=1
	movq	%rax, 16(%rsp)
.LBB27_93:                              # %sw.epilog
                                        #   in Loop: Header=BB27_73 Depth=1
	movq	128(%r12), %rcx
	cmpq	%rcx, %rax
	jb	.LBB27_95
# BB#94:                                # %if.then367
                                        #   in Loop: Header=BB27_73 Depth=1
	movq	120(%r12), %rdi
	incq	%rax
	movq	%rax, %rsi
	callq	Perl_safesysrealloc
	movq	%rax, 120(%r12)
	movq	16(%rsp), %rax
	leaq	1(%rax), %rcx
	movq	%rcx, 128(%r12)
.LBB27_95:                              # %if.end375
                                        #   in Loop: Header=BB27_73 Depth=1
	xorq	%rcx, %rcx
	testq	%rax, %rax
	je	.LBB27_100
# BB#96:                                # %if.then377
                                        #   in Loop: Header=BB27_73 Depth=1
	movq	216(%r12), %rdi
	testq	%rdi, %rdi
	jne	.LBB27_99
# BB#97:                                # %if.then380
                                        #   in Loop: Header=BB27_73 Depth=1
	movq	168(%r12), %rsi
	movq	176(%r12), %rcx
	leaq	(%rsi,%rax), %rdx
	cmpq	%rcx, %rdx
	ja	.LBB27_102
# BB#98:                                # %if.then388
                                        #   in Loop: Header=BB27_73 Depth=1
	movq	120(%r12), %rdi
	movq	%rax, %rdx
	callq	memcpy
	movq	16(%rsp), %rcx
	addq	%rcx, 168(%r12)
	jmp	.LBB27_100
.LBB27_99:                              # %if.else398
                                        #   in Loop: Header=BB27_73 Depth=1
	movq	120(%r12), %rsi
	movq	%rax, %rdx
	callq	Perl_PerlIO_read
	movq	16(%rsp), %rdx
	movq	%rax, %rcx
	cmpq	%rdx, %rcx
	je	.LBB27_100
.LBB27_102:                             # %return.loopexit
	xorq	%rbx, %rbx
	jmp	.LBB27_103
.LBB27_71:
	movq	%r14, %rbx
.LBB27_103:                             # %return
	movq	%rbx, %rax
	addq	$48, %rsp
	popq	%rbx
	popq	%r12
	popq	%r13
	popq	%r14
	popq	%r15
	retq
.LBB27_79:
	movq	%r14, %rbx
	jmp	.LBB27_103
.Ltmp266:
	.size	retrieve, .Ltmp266-retrieve
	.cfi_endproc

	.align	16, 0x90
	.type	sv_type,@function
sv_type:                                # @sv_type
	.cfi_startproc
# BB#0:                                 # %entry
	pushq	%rbx
.Ltmp269:
	.cfi_def_cfa_offset 16
.Ltmp270:
	.cfi_offset %rbx, -16
	movq	%rdi, %rbx
	movq	16(%rbx), %rdx
	movq	%rdx, %rcx
	andq	$255, %rcx
	cmpq	$12, %rcx
	jbe	.LBB28_1
# BB#16:                                # %sw.epilog
	movq	$7, %rax
	jmp	.LBB28_17
.LBB28_1:                               # %entry
	movq	$1, %rax
	jmpq	*.LJTI28_0(,%rcx,8)
.LBB28_2:                               # %sw.bb4
	testq	$32768, %rdx            # imm = 0x8000
	je	.LBB28_5
# BB#3:                                 # %land.lhs.true
	movq	$112, %rsi
	movq	%rbx, %rdi
	callq	Perl_mg_find
	testq	%rax, %rax
	movq	$5, %rax
	jne	.LBB28_17
# BB#4:                                 # %land.lhs.true.sw.bb9_crit_edge
	movq	16(%rbx), %rdx
.LBB28_5:                               # %sw.bb9
	testq	$32768, %rdx            # imm = 0x8000
	je	.LBB28_8
# BB#6:                                 # %land.lhs.true13
	movq	$113, %rsi
	movq	%rbx, %rdi
	callq	Perl_mg_find
	testq	%rax, %rax
	movq	$4, %rax
	jne	.LBB28_17
# BB#7:                                 # %land.lhs.true13.if.end17_crit_edge
	movq	16(%rbx), %rdx
.LBB28_8:                               # %sw.bb1
	movq	$19, %rcx
	shrq	%cl, %rdx
	notq	%rdx
	andq	$1, %rdx
	movq	%rdx, %rax
	popq	%rbx
	retq
.LBB28_9:                               # %sw.bb22
	testq	$32768, %rdx            # imm = 0x8000
	je	.LBB28_11
# BB#10:                                # %land.lhs.true26
	movq	$80, %rsi
	movq	%rbx, %rdi
	callq	Perl_mg_find
	testq	%rax, %rax
	movq	$4, %rax
	jne	.LBB28_17
.LBB28_11:                              # %if.end30
	movq	$2, %rax
	popq	%rbx
	retq
.LBB28_12:                              # %sw.bb31
	testq	$32768, %rdx            # imm = 0x8000
	je	.LBB28_14
# BB#13:                                # %land.lhs.true35
	movq	$80, %rsi
	movq	%rbx, %rdi
	callq	Perl_mg_find
	testq	%rax, %rax
	movq	$4, %rax
	je	.LBB28_14
.LBB28_17:                              # %return
	popq	%rbx
	retq
.LBB28_15:                              # %sw.bb40
	movq	$6, %rax
	popq	%rbx
	retq
.LBB28_14:                              # %if.end39
	movq	$3, %rax
	popq	%rbx
	retq
.Ltmp271:
	.size	sv_type, .Ltmp271-sv_type
	.cfi_endproc
	.section	.rodata,"a",@progbits
	.align	8
.LJTI28_0:
	.quad	.LBB28_17
	.quad	.LBB28_17
	.quad	.LBB28_17
	.quad	.LBB28_8
	.quad	.LBB28_8
	.quad	.LBB28_8
	.quad	.LBB28_8
	.quad	.LBB28_2
	.quad	.LBB28_5
	.quad	.LBB28_2
	.quad	.LBB28_9
	.quad	.LBB28_12
	.quad	.LBB28_15

	.text
	.align	16, 0x90
	.type	retrieve_lscalar,@function
retrieve_lscalar:                       # @retrieve_lscalar
	.cfi_startproc
# BB#0:                                 # %entry
	pushq	%r15
.Ltmp278:
	.cfi_def_cfa_offset 16
	pushq	%r14
.Ltmp279:
	.cfi_def_cfa_offset 24
	pushq	%r13
.Ltmp280:
	.cfi_def_cfa_offset 32
	pushq	%r12
.Ltmp281:
	.cfi_def_cfa_offset 40
	pushq	%rbx
.Ltmp282:
	.cfi_def_cfa_offset 48
	subq	$16, %rsp
.Ltmp283:
	.cfi_def_cfa_offset 64
.Ltmp284:
	.cfi_offset %rbx, -48
.Ltmp285:
	.cfi_offset %r12, -40
.Ltmp286:
	.cfi_offset %r13, -32
.Ltmp287:
	.cfi_offset %r14, -24
.Ltmp288:
	.cfi_offset %r15, -16
	movq	%rdi, %rbx
	movq	216(%rbx), %rdi
	movq	%rsi, %r12
	testq	%rdi, %rdi
	je	.LBB29_1
# BB#5:                                 # %if.else18
	leaq	8(%rsp), %rsi
	movq	$8, %rdx
	callq	Perl_PerlIO_read
	xorq	%r15, %r15
	cmpq	$8, %rax
	jne	.LBB29_22
	jmp	.LBB29_6
.LBB29_1:                               # %if.then
	movq	168(%rbx), %rcx
	movq	176(%rbx), %rdx
	leaq	4(%rcx), %rax
	xorq	%r15, %r15
	cmpq	%rdx, %rax
	ja	.LBB29_22
# BB#2:                                 # %if.then2
	movq	%rcx, %rdx
	andq	$-4, %rdx
	cmpq	%rdx, %rcx
	jne	.LBB29_4
# BB#3:                                 # %if.then8
	movslq	(%rcx), %rcx
	movq	%rcx, 8(%rsp)
	movq	%rax, 168(%rbx)
	jmp	.LBB29_6
.LBB29_4:                               # %if.else
	movl	(%rcx), %ecx
	movl	%ecx, 8(%rsp)
	movq	%rax, 168(%rbx)
.LBB29_6:                               # %if.end24
	movl	80(%rbx), %eax
	movq	8(%rsp), %rdi
	testq	%rax, %rax
	je	.LBB29_8
# BB#7:                                 # %if.then26
	callq	Perl_my_ntohl
	movq	%rax, %rdi
	movq	$32, %rcx
	shlq	%cl, %rdi
	movq	$32, %rcx
	sarq	%cl, %rdi
	movq	%rdi, 8(%rsp)
.LBB29_8:                               # %if.end30
	callq	Perl_newSV
	movq	%rax, %r14
	xorq	%r15, %r15
	testq	%r14, %r14
	je	.LBB29_22
# BB#9:                                 # %if.end34
	movq	64(%rbx), %rsi
	movq	24(%rbx), %rdi
	leaq	1(%rsi), %rax
	movq	%rax, 64(%rbx)
	movq	%r14, PL_Sv(%rip)
	incq	8(%r14)
	movq	%r14, %rdx
	callq	Perl_av_store
	testq	%rax, %rax
	je	.LBB29_22
# BB#10:                                # %if.end42
	testq	%r12, %r12
	je	.LBB29_12
# BB#11:                                # %if.then44
	movq	$1, %rsi
	movq	%r12, %rdi
	callq	Perl_gv_stashpv
	movq	%rax, %r12
	movq	%r14, %rdi
	callq	Perl_newRV_noinc
	movq	%rax, %r13
	movq	%r13, %rdi
	movq	%r12, %rsi
	callq	Perl_sv_bless
	movq	(%r13), %rax
	movq	$0, (%rax)
	movq	%r13, %rdi
	callq	Perl_sv_free
.LBB29_12:                              # %if.end48
	movq	216(%rbx), %rdi
	testq	%rdi, %rdi
	je	.LBB29_13
# BB#20:                                # %if.else68
	movq	(%r14), %rax
	movq	(%rax), %rsi
	movq	8(%rsp), %rdx
	callq	Perl_PerlIO_read
	movq	8(%rsp), %rcx
	cmpq	%rcx, %rax
	je	.LBB29_15
	jmp	.LBB29_21
.LBB29_13:                              # %if.then51
	movq	168(%rbx), %rsi
	movq	8(%rsp), %rdx
	movq	176(%rbx), %rax
	leaq	(%rsi,%rdx), %rcx
	cmpq	%rax, %rcx
	jbe	.LBB29_14
.LBB29_21:                              # %if.else66
	movq	%r14, %rdi
	callq	Perl_sv_free
	jmp	.LBB29_22
.LBB29_14:                              # %if.then59
	movq	(%r14), %rax
	movq	(%rax), %rdi
	callq	memcpy
	movq	8(%rsp), %rax
	addq	%rax, 168(%rbx)
.LBB29_15:                              # %if.end77
	movq	(%r14), %rcx
	movq	%rax, 8(%rcx)
	movq	(%rcx), %rcx
	xorq	%rdx, %rdx
	movb	%dl, (%rcx,%rax)
	movq	16(%r14), %rax
	andq	$1223753727, %rax       # imm = 0x48F0FFFF
	orq	$67371008, %rax         # imm = 0x4040000
	movq	%rax, 16(%r14)
	movl	84(%rbx), %eax
	testq	%rax, %rax
	je	.LBB29_19
# BB#16:                                # %if.end77
	movzbl	PL_tainting(%rip), %eax
	testq	$255, %rax
	je	.LBB29_19
# BB#17:                                # %if.end77
	movzbl	PL_tainted(%rip), %eax
	testq	$255, %rax
	je	.LBB29_19
# BB#18:                                # %if.then93
	movq	%r14, %rdi
	callq	Perl_sv_taint
.LBB29_19:                              # %return
	movq	%r14, %r15
.LBB29_22:                              # %return
	movq	%r15, %rax
	addq	$16, %rsp
	popq	%rbx
	popq	%r12
	popq	%r13
	popq	%r14
	popq	%r15
	retq
.Ltmp289:
	.size	retrieve_lscalar, .Ltmp289-retrieve_lscalar
	.cfi_endproc

	.align	16, 0x90
	.type	old_retrieve_array,@function
old_retrieve_array:                     # @old_retrieve_array
	.cfi_startproc
# BB#0:                                 # %entry
	pushq	%r15
.Ltmp296:
	.cfi_def_cfa_offset 16
	pushq	%r14
.Ltmp297:
	.cfi_def_cfa_offset 24
	pushq	%r13
.Ltmp298:
	.cfi_def_cfa_offset 32
	pushq	%r12
.Ltmp299:
	.cfi_def_cfa_offset 40
	pushq	%rbx
.Ltmp300:
	.cfi_def_cfa_offset 48
	subq	$16, %rsp
.Ltmp301:
	.cfi_def_cfa_offset 64
.Ltmp302:
	.cfi_offset %rbx, -48
.Ltmp303:
	.cfi_offset %r12, -40
.Ltmp304:
	.cfi_offset %r13, -32
.Ltmp305:
	.cfi_offset %r14, -24
.Ltmp306:
	.cfi_offset %r15, -16
	movq	%rdi, %r15
	movq	216(%r15), %rdi
	testq	%rdi, %rdi
	je	.LBB30_1
# BB#5:                                 # %if.else18
	leaq	8(%rsp), %rsi
	movq	$8, %rdx
	callq	Perl_PerlIO_read
	xorq	%r13, %r13
	cmpq	$8, %rax
	jne	.LBB30_31
	jmp	.LBB30_6
.LBB30_1:                               # %if.then
	movq	168(%r15), %rcx
	movq	176(%r15), %rdx
	leaq	4(%rcx), %rax
	xorq	%r13, %r13
	cmpq	%rdx, %rax
	ja	.LBB30_31
# BB#2:                                 # %if.then2
	movq	%rcx, %rdx
	andq	$-4, %rdx
	cmpq	%rdx, %rcx
	jne	.LBB30_4
# BB#3:                                 # %if.then8
	movslq	(%rcx), %rcx
	movq	%rcx, 8(%rsp)
	movq	%rax, 168(%r15)
	jmp	.LBB30_6
.LBB30_4:                               # %if.else
	movl	(%rcx), %ecx
	movl	%ecx, 8(%rsp)
	movq	%rax, 168(%r15)
.LBB30_6:                               # %if.end24
	movl	80(%r15), %eax
	testq	%rax, %rax
	je	.LBB30_8
# BB#7:                                 # %if.then26
	movq	8(%rsp), %rdi
	callq	Perl_my_ntohl
	movq	$32, %rcx
	shlq	%cl, %rax
	movq	$32, %rcx
	sarq	%cl, %rax
	movq	%rax, 8(%rsp)
.LBB30_8:                               # %if.end30
	callq	Perl_newAV
	movq	%rax, %r14
	xorq	%r13, %r13
	testq	%r14, %r14
	je	.LBB30_31
# BB#9:                                 # %if.end34
	movq	64(%r15), %rsi
	movq	24(%r15), %rdi
	leaq	1(%rsi), %rax
	movq	%rax, 64(%r15)
	movq	%r14, PL_Sv(%rip)
	incq	8(%r14)
	movq	%r14, %rdx
	callq	Perl_av_store
	testq	%rax, %rax
	je	.LBB30_31
# BB#10:                                # %if.end42
	movq	8(%rsp), %rsi
	testq	%rsi, %rsi
	movq	%r14, %r13
	je	.LBB30_31
# BB#11:                                # %if.then44
	movq	%r14, %rdi
	callq	Perl_av_extend
	cmpq	$0, 8(%rsp)
	movq	%r14, %r13
	jle	.LBB30_31
# BB#12:                                # %for.body.lr.ph
	xorq	%rbx, %rbx
	movabsq	$4294967295, %r12       # imm = 0xFFFFFFFF
	.align	16, 0x90
.LBB30_13:                              # %for.body
                                        # =>This Inner Loop Header: Depth=1
	movq	216(%r15), %rdi
	testq	%rdi, %rdi
	jne	.LBB30_16
# BB#14:                                # %if.then51
                                        #   in Loop: Header=BB30_13 Depth=1
	movq	168(%r15), %rax
	movq	176(%r15), %rcx
	xorq	%r13, %r13
	cmpq	%rcx, %rax
	jae	.LBB30_31
# BB#15:                                # %if.then58
                                        #   in Loop: Header=BB30_13 Depth=1
	leaq	1(%rax), %rcx
	movq	%rcx, 168(%r15)
	movzbl	(%rax), %eax
	jmp	.LBB30_17
	.align	16, 0x90
.LBB30_16:                              # %if.else64
                                        #   in Loop: Header=BB30_13 Depth=1
	callq	PerlIO_getc
	movq	%rax, %rcx
	andq	%r12, %rcx
	xorq	%r13, %r13
	cmpq	%r12, %rcx
	je	.LBB30_31
.LBB30_17:                              # %if.end71
                                        #   in Loop: Header=BB30_13 Depth=1
	andq	%r12, %rax
	cmpq	$73, %rax
	je	.LBB30_30
# BB#18:                                # %if.end71
                                        #   in Loop: Header=BB30_13 Depth=1
	cmpq	$105, %rax
	je	.LBB30_28
# BB#19:                                # %if.then78
                                        #   in Loop: Header=BB30_13 Depth=1
	movl	224, %edx
	movl	228, %ecx
	cmpq	$2, %rdx
	jne	.LBB30_24
# BB#20:                                #   in Loop: Header=BB30_13 Depth=1
	movq	%rcx, %r8
	jmp	.LBB30_21
.LBB30_24:                              # %land.lhs.true.i
                                        #   in Loop: Header=BB30_13 Depth=1
	movq	%rcx, %rax
	andq	%r12, %rax
	movq	$6, %r8
	cmpq	$6, %rax
	jne	.LBB30_25
.LBB30_21:                              # %if.else.i
                                        #   in Loop: Header=BB30_13 Depth=1
	movq	$1, %rax
	movl	%eax, 112
	cmpq	$0, 216
	movabsq	$.L.str33, %rsi
	jne	.LBB30_23
# BB#22:                                # %select.mid16
                                        #   in Loop: Header=BB30_13 Depth=1
	movabsq	$.L.str34, %rsi
.LBB30_23:                              # %select.end15
                                        #   in Loop: Header=BB30_13 Depth=1
	xorq	%rax, %rax
	movabsq	$.L.str40, %rdi
	movq	%r8, %rcx
	callq	Perl_croak
	jmp	.LBB30_28
.LBB30_25:                              # %if.then.i
                                        #   in Loop: Header=BB30_13 Depth=1
	movq	$1, %rax
	movl	%eax, 112
	cmpq	$0, 216
	movabsq	$.L.str33, %rsi
	jne	.LBB30_27
# BB#26:                                # %select.mid
                                        #   in Loop: Header=BB30_13 Depth=1
	movabsq	$.L.str34, %rsi
.LBB30_27:                              # %select.end
                                        #   in Loop: Header=BB30_13 Depth=1
	movq	$2, %r8
	movq	$6, %r9
	xorq	%rax, %rax
	movabsq	$.L.str39, %rdi
	callq	Perl_croak
	.align	16, 0x90
.LBB30_28:                              # %if.end80
                                        #   in Loop: Header=BB30_13 Depth=1
	xorq	%rsi, %rsi
	xorq	%r13, %r13
	movq	%r15, %rdi
	callq	retrieve
	testq	%rax, %rax
	je	.LBB30_31
# BB#29:                                # %if.end84
                                        #   in Loop: Header=BB30_13 Depth=1
	movq	%r14, %rdi
	movq	%rbx, %rsi
	movq	%rax, %rdx
	callq	Perl_av_store
	testq	%rax, %rax
	je	.LBB30_31
.LBB30_30:                              # %for.inc
                                        #   in Loop: Header=BB30_13 Depth=1
	movq	8(%rsp), %rax
	incq	%rbx
	cmpq	%rax, %rbx
	movq	%r14, %r13
	jl	.LBB30_13
.LBB30_31:                              # %return
	movq	%r13, %rax
	addq	$16, %rsp
	popq	%rbx
	popq	%r12
	popq	%r13
	popq	%r14
	popq	%r15
	retq
.Ltmp307:
	.size	old_retrieve_array, .Ltmp307-old_retrieve_array
	.cfi_endproc

	.align	16, 0x90
	.type	old_retrieve_hash,@function
old_retrieve_hash:                      # @old_retrieve_hash
	.cfi_startproc
# BB#0:                                 # %entry
	pushq	%r15
.Ltmp314:
	.cfi_def_cfa_offset 16
	pushq	%r14
.Ltmp315:
	.cfi_def_cfa_offset 24
	pushq	%r13
.Ltmp316:
	.cfi_def_cfa_offset 32
	pushq	%r12
.Ltmp317:
	.cfi_def_cfa_offset 40
	pushq	%rbx
.Ltmp318:
	.cfi_def_cfa_offset 48
	subq	$32, %rsp
.Ltmp319:
	.cfi_def_cfa_offset 80
.Ltmp320:
	.cfi_offset %rbx, -48
.Ltmp321:
	.cfi_offset %r12, -40
.Ltmp322:
	.cfi_offset %r13, -32
.Ltmp323:
	.cfi_offset %r14, -24
.Ltmp324:
	.cfi_offset %r15, -16
	movq	%rdi, %rbx
	movq	216(%rbx), %rdi
	testq	%rdi, %rdi
	je	.LBB31_1
# BB#5:                                 # %if.else18
	leaq	24(%rsp), %rsi
	movq	$8, %rdx
	callq	Perl_PerlIO_read
	xorq	%r15, %r15
	cmpq	$8, %rax
	jne	.LBB31_64
	jmp	.LBB31_6
.LBB31_1:                               # %if.then
	movq	168(%rbx), %rcx
	movq	176(%rbx), %rdx
	leaq	4(%rcx), %rax
	xorq	%r15, %r15
	cmpq	%rdx, %rax
	ja	.LBB31_64
# BB#2:                                 # %if.then2
	movq	%rcx, %rdx
	andq	$-4, %rdx
	cmpq	%rdx, %rcx
	jne	.LBB31_4
# BB#3:                                 # %if.then8
	movslq	(%rcx), %rcx
	movq	%rcx, 24(%rsp)
	movq	%rax, 168(%rbx)
	jmp	.LBB31_6
.LBB31_4:                               # %if.else
	movl	(%rcx), %ecx
	movl	%ecx, 24(%rsp)
	movq	%rax, 168(%rbx)
.LBB31_6:                               # %if.end24
	movl	80(%rbx), %eax
	testq	%rax, %rax
	je	.LBB31_8
# BB#7:                                 # %if.then26
	movq	24(%rsp), %rdi
	callq	Perl_my_ntohl
	movq	$32, %rcx
	shlq	%cl, %rax
	movq	$32, %rcx
	sarq	%cl, %rax
	movq	%rax, 24(%rsp)
.LBB31_8:                               # %if.end30
	callq	Perl_newHV
	movq	%rax, %r14
	xorq	%r15, %r15
	testq	%r14, %r14
	je	.LBB31_64
# BB#9:                                 # %if.end34
	movq	64(%rbx), %rsi
	movq	24(%rbx), %rdi
	leaq	1(%rsi), %rax
	movq	%rax, 64(%rbx)
	movq	%r14, PL_Sv(%rip)
	incq	8(%r14)
	movq	%r14, %rdx
	callq	Perl_av_store
	testq	%rax, %rax
	je	.LBB31_64
# BB#10:                                # %if.end42
	movq	24(%rsp), %rsi
	testq	%rsi, %rsi
	movq	%r14, %r15
	je	.LBB31_64
# BB#11:                                # %if.end46
	movq	%r14, %rdi
	callq	Perl_hv_ksplit
	cmpq	$0, 24(%rsp)
	movq	%r14, %r15
	jle	.LBB31_64
# BB#12:                                # %for.body.lr.ph
	movq	$0, 8(%rsp)             # 8-byte Folded Spill
	movabsq	$4294967295, %r13       # imm = 0xFFFFFFFF
	xorq	%r12, %r12
	.align	16, 0x90
.LBB31_14:                              # %for.body
                                        # =>This Inner Loop Header: Depth=1
	movq	216(%rbx), %rdi
	testq	%rdi, %rdi
	jne	.LBB31_17
# BB#15:                                # %if.then51
                                        #   in Loop: Header=BB31_14 Depth=1
	movq	168(%rbx), %rax
	movq	176(%rbx), %rcx
	xorq	%r15, %r15
	cmpq	%rcx, %rax
	jae	.LBB31_64
# BB#16:                                # %if.then58
                                        #   in Loop: Header=BB31_14 Depth=1
	leaq	1(%rax), %rcx
	movq	%rcx, 168(%rbx)
	movzbl	(%rax), %eax
	jmp	.LBB31_18
	.align	16, 0x90
.LBB31_17:                              # %if.else64
                                        #   in Loop: Header=BB31_14 Depth=1
	callq	PerlIO_getc
	movq	%rax, %rcx
	andq	%r13, %rcx
	xorq	%r15, %r15
	cmpq	%r13, %rcx
	je	.LBB31_64
.LBB31_18:                              # %if.end71
                                        #   in Loop: Header=BB31_14 Depth=1
	andq	%r13, %rax
	cmpq	$118, %rax
	jne	.LBB31_19
# BB#24:                                # %if.then89
                                        #   in Loop: Header=BB31_14 Depth=1
	xorq	%rsi, %rsi
	xorq	%r15, %r15
	movq	%rbx, %rdi
	callq	retrieve
	movq	%rax, 8(%rsp)           # 8-byte Spill
	testq	%rax, %rax
	jne	.LBB31_34
	jmp	.LBB31_64
	.align	16, 0x90
.LBB31_19:                              # %if.end71
                                        #   in Loop: Header=BB31_14 Depth=1
	cmpq	$86, %rax
	jne	.LBB31_25
# BB#20:                                # %if.then74
                                        #   in Loop: Header=BB31_14 Depth=1
	movq	old_retrieve_hash.sv_h_undef(%rip), %rax
	testq	%rax, %rax
	jne	.LBB31_21
# BB#22:                                # %if.end78
                                        #   in Loop: Header=BB31_14 Depth=1
	movabsq	$PL_sv_undef, %rdi
	callq	Perl_newSVsv
	movq	$0, 8(%rsp)             # 8-byte Folded Spill
	testq	%rax, %rax
	movq	%rax, old_retrieve_hash.sv_h_undef(%rip)
	movq	%rax, PL_Sv(%rip)
	je	.LBB31_34
	jmp	.LBB31_23
.LBB31_25:                              # %if.else94
                                        #   in Loop: Header=BB31_14 Depth=1
	movl	224, %edx
	movl	228, %ecx
	cmpq	$2, %rdx
	jne	.LBB31_30
# BB#26:                                #   in Loop: Header=BB31_14 Depth=1
	movq	%rcx, %r8
	jmp	.LBB31_27
.LBB31_21:                              # %if.end78.thread
                                        #   in Loop: Header=BB31_14 Depth=1
	movq	%rax, PL_Sv(%rip)
.LBB31_23:                              # %land.rhs80
                                        #   in Loop: Header=BB31_14 Depth=1
	incq	8(%rax)
	movq	%rax, 8(%rsp)           # 8-byte Spill
	jmp	.LBB31_34
.LBB31_30:                              # %land.lhs.true.i
                                        #   in Loop: Header=BB31_14 Depth=1
	movq	%rcx, %rax
	andq	%r13, %rax
	movq	$6, %r8
	cmpq	$6, %rax
	jne	.LBB31_31
.LBB31_27:                              # %if.else.i
                                        #   in Loop: Header=BB31_14 Depth=1
	movq	$1, %rax
	movl	%eax, 112
	cmpq	$0, 216
	movabsq	$.L.str33, %rsi
	jne	.LBB31_29
# BB#28:                                # %select.mid16
                                        #   in Loop: Header=BB31_14 Depth=1
	movabsq	$.L.str34, %rsi
.LBB31_29:                              # %select.end15
                                        #   in Loop: Header=BB31_14 Depth=1
	xorq	%rax, %rax
	movabsq	$.L.str40, %rdi
	movq	%r8, %rcx
	callq	Perl_croak
	jmp	.LBB31_34
.LBB31_31:                              # %if.then.i
                                        #   in Loop: Header=BB31_14 Depth=1
	movq	$1, %rax
	movl	%eax, 112
	cmpq	$0, 216
	movabsq	$.L.str33, %rsi
	jne	.LBB31_33
# BB#32:                                # %select.mid
                                        #   in Loop: Header=BB31_14 Depth=1
	movabsq	$.L.str34, %rsi
.LBB31_33:                              # %select.end
                                        #   in Loop: Header=BB31_14 Depth=1
	movq	$2, %r8
	movq	$6, %r9
	xorq	%rax, %rax
	movabsq	$.L.str39, %rdi
	callq	Perl_croak
	.align	16, 0x90
.LBB31_34:                              # %if.end97
                                        #   in Loop: Header=BB31_14 Depth=1
	movq	216(%rbx), %rdi
	testq	%rdi, %rdi
	jne	.LBB31_37
# BB#35:                                # %if.then100
                                        #   in Loop: Header=BB31_14 Depth=1
	movq	168(%rbx), %rax
	movq	176(%rbx), %rcx
	xorq	%r15, %r15
	cmpq	%rcx, %rax
	jae	.LBB31_64
# BB#36:                                # %if.then107
                                        #   in Loop: Header=BB31_14 Depth=1
	leaq	1(%rax), %rcx
	movq	%rcx, 168(%rbx)
	movzbl	(%rax), %eax
	jmp	.LBB31_38
	.align	16, 0x90
.LBB31_37:                              # %if.else114
                                        #   in Loop: Header=BB31_14 Depth=1
	callq	PerlIO_getc
	movq	%rax, %rcx
	andq	%r13, %rcx
	xorq	%r15, %r15
	cmpq	%r13, %rcx
	je	.LBB31_64
.LBB31_38:                              # %if.end121
                                        #   in Loop: Header=BB31_14 Depth=1
	andq	%r13, %rax
	cmpq	$107, %rax
	je	.LBB31_48
# BB#39:                                # %if.then124
                                        #   in Loop: Header=BB31_14 Depth=1
	movl	224, %edx
	movl	228, %ecx
	cmpq	$2, %rdx
	jne	.LBB31_44
# BB#40:                                #   in Loop: Header=BB31_14 Depth=1
	movq	%rcx, %r8
	jmp	.LBB31_41
.LBB31_44:                              # %land.lhs.true.i280
                                        #   in Loop: Header=BB31_14 Depth=1
	movq	%rcx, %rax
	andq	%r13, %rax
	movq	$6, %r8
	cmpq	$6, %rax
	jne	.LBB31_45
.LBB31_41:                              # %if.else.i286
                                        #   in Loop: Header=BB31_14 Depth=1
	movq	$1, %rax
	movl	%eax, 112
	cmpq	$0, 216
	movabsq	$.L.str33, %rsi
	jne	.LBB31_43
# BB#42:                                # %select.mid32
                                        #   in Loop: Header=BB31_14 Depth=1
	movabsq	$.L.str34, %rsi
.LBB31_43:                              # %select.end31
                                        #   in Loop: Header=BB31_14 Depth=1
	xorq	%rax, %rax
	movabsq	$.L.str40, %rdi
	movq	%r8, %rcx
	callq	Perl_croak
	jmp	.LBB31_48
.LBB31_45:                              # %if.then.i283
                                        #   in Loop: Header=BB31_14 Depth=1
	movq	$1, %rax
	movl	%eax, 112
	cmpq	$0, 216
	movabsq	$.L.str33, %rsi
	jne	.LBB31_47
# BB#46:                                # %select.mid30
                                        #   in Loop: Header=BB31_14 Depth=1
	movabsq	$.L.str34, %rsi
.LBB31_47:                              # %select.end29
                                        #   in Loop: Header=BB31_14 Depth=1
	movq	$2, %r8
	movq	$6, %r9
	xorq	%rax, %rax
	movabsq	$.L.str39, %rdi
	callq	Perl_croak
	.align	16, 0x90
.LBB31_48:                              # %if.end126
                                        #   in Loop: Header=BB31_14 Depth=1
	movq	216(%rbx), %rdi
	testq	%rdi, %rdi
	jne	.LBB31_53
# BB#49:                                # %if.then129
                                        #   in Loop: Header=BB31_14 Depth=1
	movq	168(%rbx), %rcx
	movq	176(%rbx), %rdx
	leaq	4(%rcx), %rax
	xorq	%r15, %r15
	cmpq	%rdx, %rax
	ja	.LBB31_64
# BB#50:                                # %if.then137
                                        #   in Loop: Header=BB31_14 Depth=1
	movq	%rcx, %rdx
	andq	$-4, %rdx
	cmpq	%rdx, %rcx
	jne	.LBB31_52
# BB#51:                                # %if.then145
                                        #   in Loop: Header=BB31_14 Depth=1
	movslq	(%rcx), %rcx
	movq	%rcx, 16(%rsp)
	movq	%rax, 168(%rbx)
	jmp	.LBB31_54
	.align	16, 0x90
.LBB31_53:                              # %if.else158
                                        #   in Loop: Header=BB31_14 Depth=1
	movq	$8, %rdx
	leaq	16(%rsp), %rsi
	callq	Perl_PerlIO_read
	xorq	%r15, %r15
	cmpq	$8, %rax
	je	.LBB31_54
	jmp	.LBB31_64
.LBB31_52:                              # %if.else149
                                        #   in Loop: Header=BB31_14 Depth=1
	movl	(%rcx), %ecx
	movl	%ecx, 16(%rsp)
	movq	%rax, 168(%rbx)
.LBB31_54:                              # %if.end165
                                        #   in Loop: Header=BB31_14 Depth=1
	movl	80(%rbx), %ecx
	movq	16(%rsp), %rax
	testq	%rcx, %rcx
	je	.LBB31_56
# BB#55:                                # %if.then168
                                        #   in Loop: Header=BB31_14 Depth=1
	movq	%rax, %rdi
	callq	Perl_my_ntohl
	movq	$32, %rcx
	shlq	%cl, %rax
	movq	$32, %rcx
	sarq	%cl, %rax
	movq	%rax, 16(%rsp)
.LBB31_56:                              # %if.end172
                                        #   in Loop: Header=BB31_14 Depth=1
	movq	128(%rbx), %rcx
	cmpq	%rcx, %rax
	jb	.LBB31_58
# BB#57:                                # %if.then175
                                        #   in Loop: Header=BB31_14 Depth=1
	movq	120(%rbx), %rdi
	incq	%rax
	movq	%rax, %rsi
	callq	Perl_safesysrealloc
	movq	%rax, 120(%rbx)
	movq	16(%rsp), %rax
	leaq	1(%rax), %rcx
	movq	%rcx, 128(%rbx)
.LBB31_58:                              # %if.end183
                                        #   in Loop: Header=BB31_14 Depth=1
	xorq	%rdx, %rdx
	testq	%rax, %rax
	movabsq	$0, %rcx
	je	.LBB31_63
# BB#59:                                # %if.then185
                                        #   in Loop: Header=BB31_14 Depth=1
	movq	216(%rbx), %rdi
	testq	%rdi, %rdi
	jne	.LBB31_62
# BB#60:                                # %if.then188
                                        #   in Loop: Header=BB31_14 Depth=1
	movq	168(%rbx), %rsi
	movq	176(%rbx), %rcx
	leaq	(%rsi,%rax), %rdx
	xorq	%r15, %r15
	cmpq	%rcx, %rdx
	ja	.LBB31_64
# BB#61:                                # %if.then196
                                        #   in Loop: Header=BB31_14 Depth=1
	movq	120(%rbx), %rdi
	movq	%rax, %rdx
	callq	memcpy
	xorq	%rdx, %rdx
	movq	16(%rsp), %rcx
	addq	%rcx, 168(%rbx)
	jmp	.LBB31_63
.LBB31_62:                              # %if.else206
                                        #   in Loop: Header=BB31_14 Depth=1
	movq	120(%rbx), %rsi
	movq	%rax, %rdx
	callq	Perl_PerlIO_read
	movq	16(%rsp), %rdx
	movq	%rax, %rcx
	xorq	%r15, %r15
	cmpq	%rdx, %rcx
	movabsq	$0, %rdx
	jne	.LBB31_64
.LBB31_63:                              # %if.end216
                                        #   in Loop: Header=BB31_14 Depth=1
	movq	120(%rbx), %rax
	movb	%dl, (%rax,%rcx)
	movq	120(%rbx), %rsi
	movq	16(%rsp), %rdx
	xorq	%r8, %r8
	movq	%r14, %rdi
	movq	8(%rsp), %rcx           # 8-byte Reload
	callq	Perl_hv_store
	testq	%rax, %rax
	movabsq	$0, %r15
	je	.LBB31_64
# BB#13:                                # %for.cond
                                        #   in Loop: Header=BB31_14 Depth=1
	movq	24(%rsp), %rax
	incq	%r12
	cmpq	%rax, %r12
	movq	%r14, %r15
	jl	.LBB31_14
.LBB31_64:                              # %return
	movq	%r15, %rax
	addq	$32, %rsp
	popq	%rbx
	popq	%r12
	popq	%r13
	popq	%r14
	popq	%r15
	retq
.Ltmp325:
	.size	old_retrieve_hash, .Ltmp325-old_retrieve_hash
	.cfi_endproc

	.align	16, 0x90
	.type	retrieve_ref,@function
retrieve_ref:                           # @retrieve_ref
	.cfi_startproc
# BB#0:                                 # %entry
	pushq	%r15
.Ltmp332:
	.cfi_def_cfa_offset 16
	pushq	%r14
.Ltmp333:
	.cfi_def_cfa_offset 24
	pushq	%r13
.Ltmp334:
	.cfi_def_cfa_offset 32
	pushq	%r12
.Ltmp335:
	.cfi_def_cfa_offset 40
	pushq	%rbx
.Ltmp336:
	.cfi_def_cfa_offset 48
.Ltmp337:
	.cfi_offset %rbx, -48
.Ltmp338:
	.cfi_offset %r12, -40
.Ltmp339:
	.cfi_offset %r13, -32
.Ltmp340:
	.cfi_offset %r14, -24
.Ltmp341:
	.cfi_offset %r15, -16
	movq	%rsi, %r14
	movq	%rdi, %r15
	xorq	%rdi, %rdi
	xorq	%r12, %r12
	callq	Perl_newSV
	movq	%rax, %rbx
	testq	%rbx, %rbx
	je	.LBB32_8
# BB#1:                                 # %if.end
	movq	64(%r15), %rsi
	movq	24(%r15), %rdi
	leaq	1(%rsi), %rax
	movq	%rax, 64(%r15)
	movq	%rbx, PL_Sv(%rip)
	incq	8(%rbx)
	movq	%rbx, %rdx
	callq	Perl_av_store
	testq	%rax, %rax
	je	.LBB32_8
# BB#2:                                 # %if.end6
	testq	%r14, %r14
	je	.LBB32_4
# BB#3:                                 # %if.then8
	movq	$1, %rsi
	movq	%r14, %rdi
	callq	Perl_gv_stashpv
	movq	%rax, %r12
	movq	%rbx, %rdi
	callq	Perl_newRV_noinc
	movq	%rax, %r13
	movq	%r13, %rdi
	movq	%r12, %rsi
	callq	Perl_sv_bless
	movq	(%r13), %rax
	movq	$0, (%rax)
	movq	%r13, %rdi
	callq	Perl_sv_free
.LBB32_4:                               # %if.end12
	xorq	%rsi, %rsi
	xorq	%r12, %r12
	movq	%r15, %rdi
	callq	retrieve
	movq	%rax, %r15
	testq	%r15, %r15
	je	.LBB32_8
# BB#5:                                 # %if.end16
	testq	%r14, %r14
	jne	.LBB32_7
# BB#6:                                 # %if.else
	movq	$3, %rsi
	movq	%rbx, %rdi
	callq	Perl_sv_upgrade
.LBB32_7:                               # %if.end20
	movq	(%rbx), %rax
	movq	%r15, (%rax)
	orq	$524288, 16(%rbx)       # imm = 0x80000
	movq	%rbx, %r12
.LBB32_8:                               # %return
	movq	%r12, %rax
	popq	%rbx
	popq	%r12
	popq	%r13
	popq	%r14
	popq	%r15
	retq
.Ltmp342:
	.size	retrieve_ref, .Ltmp342-retrieve_ref
	.cfi_endproc

	.align	16, 0x90
	.type	retrieve_undef,@function
retrieve_undef:                         # @retrieve_undef
	.cfi_startproc
# BB#0:                                 # %entry
	pushq	%r15
.Ltmp348:
	.cfi_def_cfa_offset 16
	pushq	%r14
.Ltmp349:
	.cfi_def_cfa_offset 24
	pushq	%r12
.Ltmp350:
	.cfi_def_cfa_offset 32
	pushq	%rbx
.Ltmp351:
	.cfi_def_cfa_offset 40
	pushq	%rax
.Ltmp352:
	.cfi_def_cfa_offset 48
.Ltmp353:
	.cfi_offset %rbx, -40
.Ltmp354:
	.cfi_offset %r12, -32
.Ltmp355:
	.cfi_offset %r14, -24
.Ltmp356:
	.cfi_offset %r15, -16
	movq	%rsi, %r14
	movq	%rdi, %rbx
	xorq	%rdi, %rdi
	xorq	%r15, %r15
	callq	Perl_newSV
	movq	%rax, %r12
	testq	%r12, %r12
	je	.LBB33_5
# BB#1:                                 # %if.end
	movq	64(%rbx), %rsi
	movq	24(%rbx), %rdi
	leaq	1(%rsi), %rax
	movq	%rax, 64(%rbx)
	movq	%r12, PL_Sv(%rip)
	incq	8(%r12)
	movq	%r12, %rdx
	callq	Perl_av_store
	testq	%rax, %rax
	je	.LBB33_5
# BB#2:                                 # %if.end6
	testq	%r14, %r14
	je	.LBB33_4
# BB#3:                                 # %if.then8
	movq	$1, %rsi
	movq	%r14, %rdi
	callq	Perl_gv_stashpv
	movq	%rax, %r14
	movq	%r12, %rdi
	callq	Perl_newRV_noinc
	movq	%rax, %rbx
	movq	%rbx, %rdi
	movq	%r14, %rsi
	callq	Perl_sv_bless
	movq	(%rbx), %rax
	movq	$0, (%rax)
	movq	%rbx, %rdi
	callq	Perl_sv_free
.LBB33_4:                               # %return
	movq	%r12, %r15
.LBB33_5:                               # %return
	movq	%r15, %rax
	addq	$8, %rsp
	popq	%rbx
	popq	%r12
	popq	%r14
	popq	%r15
	retq
.Ltmp357:
	.size	retrieve_undef, .Ltmp357-retrieve_undef
	.cfi_endproc

	.align	16, 0x90
	.type	retrieve_integer,@function
retrieve_integer:                       # @retrieve_integer
	.cfi_startproc
# BB#0:                                 # %entry
	pushq	%r15
.Ltmp363:
	.cfi_def_cfa_offset 16
	pushq	%r14
.Ltmp364:
	.cfi_def_cfa_offset 24
	pushq	%r12
.Ltmp365:
	.cfi_def_cfa_offset 32
	pushq	%rbx
.Ltmp366:
	.cfi_def_cfa_offset 40
	pushq	%rax
.Ltmp367:
	.cfi_def_cfa_offset 48
.Ltmp368:
	.cfi_offset %rbx, -40
.Ltmp369:
	.cfi_offset %r12, -32
.Ltmp370:
	.cfi_offset %r14, -24
.Ltmp371:
	.cfi_offset %r15, -16
	movq	%rdi, %rbx
	movq	216(%rbx), %rdi
	movq	%rsi, %r14
	testq	%rdi, %rdi
	je	.LBB34_1
# BB#3:                                 # %if.else8
	leaq	(%rsp), %rsi
	movq	$8, %rdx
	callq	Perl_PerlIO_read
	xorq	%r12, %r12
	cmpq	$8, %rax
	jne	.LBB34_10
# BB#4:                                 # %if.else8.if.end13_crit_edge
	movq	(%rsp), %rdi
	jmp	.LBB34_5
.LBB34_1:                               # %if.then
	movq	168(%rbx), %rax
	movq	176(%rbx), %rdx
	leaq	8(%rax), %rcx
	xorq	%r12, %r12
	cmpq	%rdx, %rcx
	ja	.LBB34_10
# BB#2:                                 # %if.then2
	movq	(%rax), %rdi
	movq	%rdi, (%rsp)
	movq	%rcx, 168(%rbx)
.LBB34_5:                               # %if.end13
	callq	Perl_newSViv
	movq	%rax, %r15
	xorq	%r12, %r12
	testq	%r15, %r15
	je	.LBB34_10
# BB#6:                                 # %if.end17
	movq	64(%rbx), %rsi
	movq	24(%rbx), %rdi
	leaq	1(%rsi), %rax
	movq	%rax, 64(%rbx)
	movq	%r15, PL_Sv(%rip)
	incq	8(%r15)
	movq	%r15, %rdx
	callq	Perl_av_store
	testq	%rax, %rax
	je	.LBB34_10
# BB#7:                                 # %if.end24
	testq	%r14, %r14
	je	.LBB34_9
# BB#8:                                 # %if.then26
	movq	$1, %rsi
	movq	%r14, %rdi
	callq	Perl_gv_stashpv
	movq	%rax, %r14
	movq	%r15, %rdi
	callq	Perl_newRV_noinc
	movq	%rax, %rbx
	movq	%rbx, %rdi
	movq	%r14, %rsi
	callq	Perl_sv_bless
	movq	(%rbx), %rax
	movq	$0, (%rax)
	movq	%rbx, %rdi
	callq	Perl_sv_free
.LBB34_9:                               # %return
	movq	%r15, %r12
.LBB34_10:                              # %return
	movq	%r12, %rax
	addq	$8, %rsp
	popq	%rbx
	popq	%r12
	popq	%r14
	popq	%r15
	retq
.Ltmp372:
	.size	retrieve_integer, .Ltmp372-retrieve_integer
	.cfi_endproc

	.align	16, 0x90
	.type	retrieve_double,@function
retrieve_double:                        # @retrieve_double
	.cfi_startproc
# BB#0:                                 # %entry
	pushq	%r15
.Ltmp378:
	.cfi_def_cfa_offset 16
	pushq	%r14
.Ltmp379:
	.cfi_def_cfa_offset 24
	pushq	%r12
.Ltmp380:
	.cfi_def_cfa_offset 32
	pushq	%rbx
.Ltmp381:
	.cfi_def_cfa_offset 40
	pushq	%rax
.Ltmp382:
	.cfi_def_cfa_offset 48
.Ltmp383:
	.cfi_offset %rbx, -40
.Ltmp384:
	.cfi_offset %r12, -32
.Ltmp385:
	.cfi_offset %r14, -24
.Ltmp386:
	.cfi_offset %r15, -16
	movq	%rdi, %rbx
	movq	216(%rbx), %rdi
	movq	%rsi, %r14
	testq	%rdi, %rdi
	je	.LBB35_1
# BB#3:                                 # %if.else8
	leaq	(%rsp), %rsi
	movq	$8, %rdx
	callq	Perl_PerlIO_read
	xorq	%r12, %r12
	cmpq	$8, %rax
	jne	.LBB35_10
# BB#4:                                 # %if.else8.if.end13_crit_edge
	movq	(%rsp), %rdi
	jmp	.LBB35_5
.LBB35_1:                               # %if.then
	movq	168(%rbx), %rax
	movq	176(%rbx), %rdx
	leaq	8(%rax), %rcx
	xorq	%r12, %r12
	cmpq	%rdx, %rcx
	ja	.LBB35_10
# BB#2:                                 # %if.then2
	movq	(%rax), %rdi
	movq	%rdi, (%rsp)
	movq	%rcx, 168(%rbx)
.LBB35_5:                               # %if.end13
	callq	Perl_newSVnv
	movq	%rax, %r15
	xorq	%r12, %r12
	testq	%r15, %r15
	je	.LBB35_10
# BB#6:                                 # %if.end17
	movq	64(%rbx), %rsi
	movq	24(%rbx), %rdi
	leaq	1(%rsi), %rax
	movq	%rax, 64(%rbx)
	movq	%r15, PL_Sv(%rip)
	incq	8(%r15)
	movq	%r15, %rdx
	callq	Perl_av_store
	testq	%rax, %rax
	je	.LBB35_10
# BB#7:                                 # %if.end24
	testq	%r14, %r14
	je	.LBB35_9
# BB#8:                                 # %if.then26
	movq	$1, %rsi
	movq	%r14, %rdi
	callq	Perl_gv_stashpv
	movq	%rax, %r14
	movq	%r15, %rdi
	callq	Perl_newRV_noinc
	movq	%rax, %rbx
	movq	%rbx, %rdi
	movq	%r14, %rsi
	callq	Perl_sv_bless
	movq	(%rbx), %rax
	movq	$0, (%rax)
	movq	%rbx, %rdi
	callq	Perl_sv_free
.LBB35_9:                               # %return
	movq	%r15, %r12
.LBB35_10:                              # %return
	movq	%r12, %rax
	addq	$8, %rsp
	popq	%rbx
	popq	%r12
	popq	%r14
	popq	%r15
	retq
.Ltmp387:
	.size	retrieve_double, .Ltmp387-retrieve_double
	.cfi_endproc

	.align	16, 0x90
	.type	retrieve_byte,@function
retrieve_byte:                          # @retrieve_byte
	.cfi_startproc
# BB#0:                                 # %entry
	pushq	%r15
.Ltmp393:
	.cfi_def_cfa_offset 16
	pushq	%r14
.Ltmp394:
	.cfi_def_cfa_offset 24
	pushq	%r12
.Ltmp395:
	.cfi_def_cfa_offset 32
	pushq	%rbx
.Ltmp396:
	.cfi_def_cfa_offset 40
	pushq	%rax
.Ltmp397:
	.cfi_def_cfa_offset 48
.Ltmp398:
	.cfi_offset %rbx, -40
.Ltmp399:
	.cfi_offset %r12, -32
.Ltmp400:
	.cfi_offset %r14, -24
.Ltmp401:
	.cfi_offset %r15, -16
	movq	%rdi, %rbx
	movq	216(%rbx), %rdi
	movq	%rsi, %r14
	testq	%rdi, %rdi
	je	.LBB36_1
# BB#3:                                 # %if.else5
	callq	PerlIO_getc
	movabsq	$4294967295, %rcx       # imm = 0xFFFFFFFF
	movq	%rax, %rdx
	andq	%rcx, %rdx
	xorq	%r12, %r12
	cmpq	%rcx, %rdx
	jne	.LBB36_4
	jmp	.LBB36_9
.LBB36_1:                               # %if.then
	movq	168(%rbx), %rax
	movq	176(%rbx), %rcx
	xorq	%r12, %r12
	cmpq	%rcx, %rax
	jae	.LBB36_9
# BB#2:                                 # %if.then2
	leaq	1(%rax), %rcx
	movq	%rcx, 168(%rbx)
	movzbl	(%rax), %eax
.LBB36_4:                               # %if.end11
	addq	$128, %rax
	movq	$56, %rcx
	shlq	%cl, %rax
	movq	$56, %rcx
	sarq	%cl, %rax
	movq	%rax, %rdi
	callq	Perl_newSViv
	movq	%rax, %r15
	xorq	%r12, %r12
	testq	%r15, %r15
	je	.LBB36_9
# BB#5:                                 # %if.end19
	movq	64(%rbx), %rsi
	movq	24(%rbx), %rdi
	leaq	1(%rsi), %rax
	movq	%rax, 64(%rbx)
	movq	%r15, PL_Sv(%rip)
	incq	8(%r15)
	movq	%r15, %rdx
	callq	Perl_av_store
	testq	%rax, %rax
	je	.LBB36_9
# BB#6:                                 # %if.end27
	testq	%r14, %r14
	je	.LBB36_8
# BB#7:                                 # %if.then29
	movq	$1, %rsi
	movq	%r14, %rdi
	callq	Perl_gv_stashpv
	movq	%rax, %r14
	movq	%r15, %rdi
	callq	Perl_newRV_noinc
	movq	%rax, %rbx
	movq	%rbx, %rdi
	movq	%r14, %rsi
	callq	Perl_sv_bless
	movq	(%rbx), %rax
	movq	$0, (%rax)
	movq	%rbx, %rdi
	callq	Perl_sv_free
.LBB36_8:                               # %return
	movq	%r15, %r12
.LBB36_9:                               # %return
	movq	%r12, %rax
	addq	$8, %rsp
	popq	%rbx
	popq	%r12
	popq	%r14
	popq	%r15
	retq
.Ltmp402:
	.size	retrieve_byte, .Ltmp402-retrieve_byte
	.cfi_endproc

	.align	16, 0x90
	.type	retrieve_netint,@function
retrieve_netint:                        # @retrieve_netint
	.cfi_startproc
# BB#0:                                 # %entry
	pushq	%r15
.Ltmp408:
	.cfi_def_cfa_offset 16
	pushq	%r14
.Ltmp409:
	.cfi_def_cfa_offset 24
	pushq	%r12
.Ltmp410:
	.cfi_def_cfa_offset 32
	pushq	%rbx
.Ltmp411:
	.cfi_def_cfa_offset 40
	pushq	%rax
.Ltmp412:
	.cfi_def_cfa_offset 48
.Ltmp413:
	.cfi_offset %rbx, -40
.Ltmp414:
	.cfi_offset %r12, -32
.Ltmp415:
	.cfi_offset %r14, -24
.Ltmp416:
	.cfi_offset %r15, -16
	movq	%rdi, %r12
	movq	216(%r12), %rdi
	movq	%rsi, %r14
	testq	%rdi, %rdi
	je	.LBB37_1
# BB#5:                                 # %if.else18
	leaq	(%rsp), %rsi
	movq	$8, %rdx
	callq	Perl_PerlIO_read
	xorq	%rbx, %rbx
	cmpq	$8, %rax
	jne	.LBB37_11
	jmp	.LBB37_6
.LBB37_1:                               # %if.then
	movq	168(%r12), %rcx
	movq	176(%r12), %rdx
	leaq	4(%rcx), %rax
	xorq	%rbx, %rbx
	cmpq	%rdx, %rax
	ja	.LBB37_11
# BB#2:                                 # %if.then2
	movq	%rcx, %rdx
	andq	$-4, %rdx
	cmpq	%rdx, %rcx
	jne	.LBB37_4
# BB#3:                                 # %if.then8
	movslq	(%rcx), %rcx
	movq	%rcx, (%rsp)
	movq	%rax, 168(%r12)
	jmp	.LBB37_6
.LBB37_4:                               # %if.else
	movl	(%rcx), %ecx
	movl	%ecx, (%rsp)
	movq	%rax, 168(%r12)
.LBB37_6:                               # %if.end24
	movq	(%rsp), %rdi
	callq	Perl_my_ntohl
	movq	$32, %rcx
	shlq	%cl, %rax
	movq	$32, %rcx
	sarq	%cl, %rax
	movq	%rax, %rdi
	callq	Perl_newSViv
	movq	%rax, %r15
	xorq	%rbx, %rbx
	testq	%r15, %r15
	je	.LBB37_11
# BB#7:                                 # %if.end31
	movq	64(%r12), %rsi
	movq	24(%r12), %rdi
	leaq	1(%rsi), %rax
	movq	%rax, 64(%r12)
	movq	%r15, PL_Sv(%rip)
	incq	8(%r15)
	movq	%r15, %rdx
	callq	Perl_av_store
	testq	%rax, %rax
	je	.LBB37_11
# BB#8:                                 # %if.end39
	testq	%r14, %r14
	je	.LBB37_10
# BB#9:                                 # %if.then41
	movq	$1, %rsi
	movq	%r14, %rdi
	callq	Perl_gv_stashpv
	movq	%rax, %r14
	movq	%r15, %rdi
	callq	Perl_newRV_noinc
	movq	%rax, %rbx
	movq	%rbx, %rdi
	movq	%r14, %rsi
	callq	Perl_sv_bless
	movq	(%rbx), %rax
	movq	$0, (%rax)
	movq	%rbx, %rdi
	callq	Perl_sv_free
.LBB37_10:                              # %return
	movq	%r15, %rbx
.LBB37_11:                              # %return
	movq	%rbx, %rax
	addq	$8, %rsp
	popq	%rbx
	popq	%r12
	popq	%r14
	popq	%r15
	retq
.Ltmp417:
	.size	retrieve_netint, .Ltmp417-retrieve_netint
	.cfi_endproc

	.align	16, 0x90
	.type	retrieve_scalar,@function
retrieve_scalar:                        # @retrieve_scalar
	.cfi_startproc
# BB#0:                                 # %entry
	pushq	%r15
.Ltmp424:
	.cfi_def_cfa_offset 16
	pushq	%r14
.Ltmp425:
	.cfi_def_cfa_offset 24
	pushq	%r13
.Ltmp426:
	.cfi_def_cfa_offset 32
	pushq	%r12
.Ltmp427:
	.cfi_def_cfa_offset 40
	pushq	%rbx
.Ltmp428:
	.cfi_def_cfa_offset 48
	subq	$16, %rsp
.Ltmp429:
	.cfi_def_cfa_offset 64
.Ltmp430:
	.cfi_offset %rbx, -48
.Ltmp431:
	.cfi_offset %r12, -40
.Ltmp432:
	.cfi_offset %r13, -32
.Ltmp433:
	.cfi_offset %r14, -24
.Ltmp434:
	.cfi_offset %r15, -16
	movq	%rdi, %r12
	movq	216(%r12), %rdi
	movq	%rsi, 8(%rsp)           # 8-byte Spill
	testq	%rdi, %rdi
	je	.LBB38_1
# BB#3:                                 # %if.else5
	callq	PerlIO_getc
	movq	%rax, %r13
	movabsq	$4294967295, %rax       # imm = 0xFFFFFFFF
	movq	%r13, %rcx
	andq	%rax, %rcx
	xorq	%r15, %r15
	cmpq	%rax, %rcx
	jne	.LBB38_4
	jmp	.LBB38_25
.LBB38_1:                               # %if.then
	movq	168(%r12), %rax
	movq	176(%r12), %rcx
	xorq	%r15, %r15
	cmpq	%rcx, %rax
	jae	.LBB38_25
# BB#2:                                 # %if.then2
	leaq	1(%rax), %rcx
	movq	%rcx, 168(%r12)
	movzbl	(%rax), %r13d
.LBB38_4:                               # %if.end11
	movq	$32, %rcx
	movq	%r13, %rbx
	shlq	%cl, %rbx
	movq	$32, %rcx
	sarq	%cl, %rbx
	movq	%rbx, %rdi
	callq	Perl_newSV
	movq	%rax, %r14
	xorq	%r15, %r15
	testq	%r14, %r14
	je	.LBB38_25
# BB#5:                                 # %if.end16
	movq	64(%r12), %rsi
	movq	24(%r12), %rdi
	leaq	1(%rsi), %rax
	movq	%rax, 64(%r12)
	movq	%r14, PL_Sv(%rip)
	incq	8(%r14)
	movq	%r14, %rdx
	callq	Perl_av_store
	testq	%rax, %rax
	je	.LBB38_25
# BB#6:                                 # %if.end24
	movq	8(%rsp), %rdi           # 8-byte Reload
	testq	%rdi, %rdi
	je	.LBB38_8
# BB#7:                                 # %if.then26
	movq	$1, %rsi
	callq	Perl_gv_stashpv
	movq	%rax, 8(%rsp)           # 8-byte Spill
	movq	%r14, %rdi
	callq	Perl_newRV_noinc
	movq	%rax, (%rsp)            # 8-byte Spill
	movq	%rax, %rdi
	movq	8(%rsp), %rsi           # 8-byte Reload
	callq	Perl_sv_bless
	movq	(%rsp), %rdi            # 8-byte Reload
	movq	(%rdi), %rax
	movq	$0, (%rax)
	callq	Perl_sv_free
.LBB38_8:                               # %if.end30
	movabsq	$4294967295, %rax       # imm = 0xFFFFFFFF
	testq	%rax, %r13
	je	.LBB38_9
# BB#14:                                # %if.else47
	movq	216(%r12), %rdi
	testq	%rdi, %rdi
	je	.LBB38_15
# BB#23:                                # %if.else70
	movq	(%r14), %rax
	movq	(%rax), %rsi
	movq	%rbx, %rdx
	callq	Perl_PerlIO_read
	cmpq	%rbx, %rax
	je	.LBB38_17
	jmp	.LBB38_24
.LBB38_9:                               # %if.then33
	movzbl	16(%r14), %eax
	cmpq	$4, %rax
	ja	.LBB38_11
# BB#10:                                # %if.then36
	movq	$4, %rsi
	movq	%r14, %rdi
	callq	Perl_sv_upgrade
.LBB38_11:                              # %if.end38
	movq	(%r14), %rax
	cmpq	$0, 16(%rax)
	jne	.LBB38_13
# BB#12:                                # %cond.true
	movq	$1, %rsi
	movq	%r14, %rdi
	callq	Perl_sv_grow
	movq	(%r14), %rax
.LBB38_13:                              # %cond.end
	movq	(%rax), %rcx
	movq	8(%rax), %rdx
	leaq	16(%r14), %rax
	xorq	%rsi, %rsi
	movb	%sil, (%rcx,%rdx)
	jmp	.LBB38_18
.LBB38_15:                              # %if.then50
	movq	168(%r12), %rsi
	movq	176(%r12), %rax
	leaq	(%rsi,%rbx), %rcx
	cmpq	%rax, %rcx
	jbe	.LBB38_16
.LBB38_24:                              # %if.else68
	movq	%r14, %rdi
	callq	Perl_sv_free
	jmp	.LBB38_25
.LBB38_16:                              # %if.then58
	movq	(%r14), %rax
	movq	(%rax), %rdi
	movq	%rbx, %rdx
	callq	memcpy
	addq	%rbx, 168(%r12)
.LBB38_17:                              # %if.end81
	movq	(%r14), %rax
	movq	%rbx, 8(%rax)
	movq	(%rax), %rax
	xorq	%rcx, %rcx
	movb	%cl, (%rax,%rbx)
	leaq	16(%r14), %rax
.LBB38_18:                              # %if.end90
	movq	(%rax), %rcx
	andq	$1223753727, %rcx       # imm = 0x48F0FFFF
	orq	$67371008, %rcx         # imm = 0x4040000
	movq	%rcx, (%rax)
	movl	84(%r12), %eax
	testq	%rax, %rax
	je	.LBB38_22
# BB#19:                                # %if.end90
	movzbl	PL_tainting(%rip), %eax
	testq	$255, %rax
	je	.LBB38_22
# BB#20:                                # %if.end90
	movzbl	PL_tainted(%rip), %eax
	testq	$255, %rax
	je	.LBB38_22
# BB#21:                                # %if.then101
	movq	%r14, %rdi
	callq	Perl_sv_taint
.LBB38_22:                              # %return
	movq	%r14, %r15
.LBB38_25:                              # %return
	movq	%r15, %rax
	addq	$16, %rsp
	popq	%rbx
	popq	%r12
	popq	%r13
	popq	%r14
	popq	%r15
	retq
.Ltmp435:
	.size	retrieve_scalar, .Ltmp435-retrieve_scalar
	.cfi_endproc

	.align	16, 0x90
	.type	retrieve_tied_array,@function
retrieve_tied_array:                    # @retrieve_tied_array
	.cfi_startproc
# BB#0:                                 # %entry
	pushq	%r15
.Ltmp441:
	.cfi_def_cfa_offset 16
	pushq	%r14
.Ltmp442:
	.cfi_def_cfa_offset 24
	pushq	%r12
.Ltmp443:
	.cfi_def_cfa_offset 32
	pushq	%rbx
.Ltmp444:
	.cfi_def_cfa_offset 40
	pushq	%rax
.Ltmp445:
	.cfi_def_cfa_offset 48
.Ltmp446:
	.cfi_offset %rbx, -40
.Ltmp447:
	.cfi_offset %r12, -32
.Ltmp448:
	.cfi_offset %r14, -24
.Ltmp449:
	.cfi_offset %r15, -16
	movq	%rsi, %r12
	movq	%rdi, %r14
	xorq	%rdi, %rdi
	xorq	%r15, %r15
	callq	Perl_newSV
	movq	%rax, %rbx
	testq	%rbx, %rbx
	je	.LBB39_6
# BB#1:                                 # %if.end
	movq	64(%r14), %rsi
	movq	24(%r14), %rdi
	leaq	1(%rsi), %rax
	movq	%rax, 64(%r14)
	movq	%rbx, PL_Sv(%rip)
	incq	8(%rbx)
	movq	%rbx, %rdx
	callq	Perl_av_store
	testq	%rax, %rax
	je	.LBB39_6
# BB#2:                                 # %if.end6
	testq	%r12, %r12
	je	.LBB39_4
# BB#3:                                 # %if.then8
	movq	$1, %rsi
	movq	%r12, %rdi
	callq	Perl_gv_stashpv
	movq	%rax, %r15
	movq	%rbx, %rdi
	callq	Perl_newRV_noinc
	movq	%rax, %r12
	movq	%r12, %rdi
	movq	%r15, %rsi
	callq	Perl_sv_bless
	movq	(%r12), %rax
	movq	$0, (%rax)
	movq	%r12, %rdi
	callq	Perl_sv_free
.LBB39_4:                               # %if.end12
	xorq	%rsi, %rsi
	xorq	%r15, %r15
	movq	%r14, %rdi
	callq	retrieve
	movq	%rax, %r14
	testq	%r14, %r14
	je	.LBB39_6
# BB#5:                                 # %if.end16
	movq	$10, %rsi
	movq	%rbx, %rdi
	callq	Perl_sv_upgrade
	movq	(%rbx), %rax
	movzbl	72(%rax), %ecx
	andq	$254, %rcx
	movb	%cl, 72(%rax)
	movq	$80, %rdx
	xorq	%rcx, %rcx
	xorq	%r8, %r8
	movq	%rbx, %rdi
	movq	%r14, %rsi
	callq	Perl_sv_magic
	movq	%r14, %rdi
	callq	Perl_sv_free
	movq	%rbx, %r15
.LBB39_6:                               # %return
	movq	%r15, %rax
	addq	$8, %rsp
	popq	%rbx
	popq	%r12
	popq	%r14
	popq	%r15
	retq
.Ltmp450:
	.size	retrieve_tied_array, .Ltmp450-retrieve_tied_array
	.cfi_endproc

	.align	16, 0x90
	.type	retrieve_tied_hash,@function
retrieve_tied_hash:                     # @retrieve_tied_hash
	.cfi_startproc
# BB#0:                                 # %entry
	pushq	%r15
.Ltmp456:
	.cfi_def_cfa_offset 16
	pushq	%r14
.Ltmp457:
	.cfi_def_cfa_offset 24
	pushq	%r12
.Ltmp458:
	.cfi_def_cfa_offset 32
	pushq	%rbx
.Ltmp459:
	.cfi_def_cfa_offset 40
	pushq	%rax
.Ltmp460:
	.cfi_def_cfa_offset 48
.Ltmp461:
	.cfi_offset %rbx, -40
.Ltmp462:
	.cfi_offset %r12, -32
.Ltmp463:
	.cfi_offset %r14, -24
.Ltmp464:
	.cfi_offset %r15, -16
	movq	%rsi, %r12
	movq	%rdi, %r14
	xorq	%rdi, %rdi
	xorq	%r15, %r15
	callq	Perl_newSV
	movq	%rax, %rbx
	testq	%rbx, %rbx
	je	.LBB40_6
# BB#1:                                 # %if.end
	movq	64(%r14), %rsi
	movq	24(%r14), %rdi
	leaq	1(%rsi), %rax
	movq	%rax, 64(%r14)
	movq	%rbx, PL_Sv(%rip)
	incq	8(%rbx)
	movq	%rbx, %rdx
	callq	Perl_av_store
	testq	%rax, %rax
	je	.LBB40_6
# BB#2:                                 # %if.end6
	testq	%r12, %r12
	je	.LBB40_4
# BB#3:                                 # %if.then8
	movq	$1, %rsi
	movq	%r12, %rdi
	callq	Perl_gv_stashpv
	movq	%rax, %r15
	movq	%rbx, %rdi
	callq	Perl_newRV_noinc
	movq	%rax, %r12
	movq	%r12, %rdi
	movq	%r15, %rsi
	callq	Perl_sv_bless
	movq	(%r12), %rax
	movq	$0, (%rax)
	movq	%r12, %rdi
	callq	Perl_sv_free
.LBB40_4:                               # %if.end12
	xorq	%rsi, %rsi
	xorq	%r15, %r15
	movq	%r14, %rdi
	callq	retrieve
	movq	%rax, %r14
	testq	%r14, %r14
	je	.LBB40_6
# BB#5:                                 # %if.end16
	movq	$11, %rsi
	movq	%rbx, %rdi
	callq	Perl_sv_upgrade
	movq	$80, %rdx
	xorq	%rcx, %rcx
	xorq	%r8, %r8
	movq	%rbx, %rdi
	movq	%r14, %rsi
	callq	Perl_sv_magic
	movq	%r14, %rdi
	callq	Perl_sv_free
	movq	%rbx, %r15
.LBB40_6:                               # %return
	movq	%r15, %rax
	addq	$8, %rsp
	popq	%rbx
	popq	%r12
	popq	%r14
	popq	%r15
	retq
.Ltmp465:
	.size	retrieve_tied_hash, .Ltmp465-retrieve_tied_hash
	.cfi_endproc

	.align	16, 0x90
	.type	retrieve_tied_scalar,@function
retrieve_tied_scalar:                   # @retrieve_tied_scalar
	.cfi_startproc
# BB#0:                                 # %entry
	pushq	%r15
.Ltmp471:
	.cfi_def_cfa_offset 16
	pushq	%r14
.Ltmp472:
	.cfi_def_cfa_offset 24
	pushq	%r12
.Ltmp473:
	.cfi_def_cfa_offset 32
	pushq	%rbx
.Ltmp474:
	.cfi_def_cfa_offset 40
	pushq	%rax
.Ltmp475:
	.cfi_def_cfa_offset 48
.Ltmp476:
	.cfi_offset %rbx, -40
.Ltmp477:
	.cfi_offset %r12, -32
.Ltmp478:
	.cfi_offset %r14, -24
.Ltmp479:
	.cfi_offset %r15, -16
	movq	%rsi, %r12
	movq	%rdi, %r14
	xorq	%rdi, %rdi
	xorq	%rbx, %rbx
	callq	Perl_newSV
	movq	%rax, %r15
	testq	%r15, %r15
	je	.LBB41_10
# BB#1:                                 # %if.end
	movq	64(%r14), %rsi
	movq	24(%r14), %rdi
	leaq	1(%rsi), %rax
	movq	%rax, 64(%r14)
	movq	%r15, PL_Sv(%rip)
	incq	8(%r15)
	movq	%r15, %rdx
	callq	Perl_av_store
	testq	%rax, %rax
	je	.LBB41_10
# BB#2:                                 # %if.end6
	testq	%r12, %r12
	je	.LBB41_4
# BB#3:                                 # %if.then8
	movq	$1, %rsi
	movq	%r12, %rdi
	callq	Perl_gv_stashpv
	movq	%rax, %r12
	movq	%r15, %rdi
	callq	Perl_newRV_noinc
	movq	%rax, %rbx
	movq	%rbx, %rdi
	movq	%r12, %rsi
	callq	Perl_sv_bless
	movq	(%rbx), %rax
	movq	$0, (%rax)
	movq	%rbx, %rdi
	callq	Perl_sv_free
.LBB41_4:                               # %if.end12
	xorq	%rsi, %rsi
	xorq	%rbx, %rbx
	movq	%r14, %rdi
	callq	retrieve
	testq	%rax, %rax
	je	.LBB41_10
# BB#5:                                 # %if.else
	movzbl	16(%rax), %ebx
	testq	%rbx, %rbx
	je	.LBB41_7
# BB#6:                                 # %if.else
	movq	%rax, %rbx
.LBB41_7:                               # %if.else
	movq	$7, %rsi
	movq	%r15, %rdi
	callq	Perl_sv_upgrade
	movq	$113, %rdx
	xorq	%rcx, %rcx
	xorq	%r8, %r8
	movq	%r15, %rdi
	movq	%rbx, %rsi
	callq	Perl_sv_magic
	testq	%rbx, %rbx
	je	.LBB41_9
# BB#8:                                 # %if.then22
	movq	%rbx, %rdi
	callq	Perl_sv_free
.LBB41_9:                               # %return
	movq	%r15, %rbx
.LBB41_10:                              # %return
	movq	%rbx, %rax
	addq	$8, %rsp
	popq	%rbx
	popq	%r12
	popq	%r14
	popq	%r15
	retq
.Ltmp480:
	.size	retrieve_tied_scalar, .Ltmp480-retrieve_tied_scalar
	.cfi_endproc

	.align	16, 0x90
	.type	retrieve_other,@function
retrieve_other:                         # @retrieve_other
	.cfi_startproc
# BB#0:                                 # %entry
	pushq	%rax
.Ltmp482:
	.cfi_def_cfa_offset 16
	movl	224(%rdi), %edx
	movl	228(%rdi), %ecx
	cmpq	$2, %rdx
	jne	.LBB42_4
# BB#1:
	movq	%rcx, %r8
	jmp	.LBB42_2
.LBB42_4:                               # %land.lhs.true
	movabsq	$4294967295, %rax       # imm = 0xFFFFFFFF
	andq	%rcx, %rax
	movq	$6, %r8
	cmpq	$6, %rax
	jne	.LBB42_5
.LBB42_2:                               # %if.else
	movq	$1, %rax
	movl	%eax, 112(%rdi)
	cmpq	$0, 216(%rdi)
	je	.LBB42_9
# BB#3:
	movabsq	$.L.str33, %rsi
	jmp	.LBB42_10
.LBB42_9:                               # %select.mid2
	movabsq	$.L.str34, %rsi
.LBB42_10:                              # %select.end1
	movabsq	$.L.str40, %rdi
	xorq	%rax, %rax
	movq	%r8, %rcx
	callq	Perl_croak
	jmp	.LBB42_11
.LBB42_5:                               # %if.then
	movq	$1, %rax
	movl	%eax, 112(%rdi)
	cmpq	$0, 216(%rdi)
	je	.LBB42_7
# BB#6:
	movabsq	$.L.str33, %rsi
	jmp	.LBB42_8
.LBB42_7:                               # %select.mid
	movabsq	$.L.str34, %rsi
.LBB42_8:                               # %select.end
	movabsq	$.L.str39, %rdi
	movq	$2, %r8
	movq	$6, %r9
	xorq	%rax, %rax
	callq	Perl_croak
.LBB42_11:                              # %if.end
	xorq	%rax, %rax
	popq	%rdx
	retq
.Ltmp483:
	.size	retrieve_other, .Ltmp483-retrieve_other
	.cfi_endproc

	.align	16, 0x90
	.type	retrieve_array,@function
retrieve_array:                         # @retrieve_array
	.cfi_startproc
# BB#0:                                 # %entry
	pushq	%r15
.Ltmp490:
	.cfi_def_cfa_offset 16
	pushq	%r14
.Ltmp491:
	.cfi_def_cfa_offset 24
	pushq	%r13
.Ltmp492:
	.cfi_def_cfa_offset 32
	pushq	%r12
.Ltmp493:
	.cfi_def_cfa_offset 40
	pushq	%rbx
.Ltmp494:
	.cfi_def_cfa_offset 48
	subq	$16, %rsp
.Ltmp495:
	.cfi_def_cfa_offset 64
.Ltmp496:
	.cfi_offset %rbx, -48
.Ltmp497:
	.cfi_offset %r12, -40
.Ltmp498:
	.cfi_offset %r13, -32
.Ltmp499:
	.cfi_offset %r14, -24
.Ltmp500:
	.cfi_offset %r15, -16
	movq	%rdi, %r14
	movq	216(%r14), %rdi
	movq	%rsi, %r15
	testq	%rdi, %rdi
	je	.LBB43_1
# BB#5:                                 # %if.else18
	leaq	8(%rsp), %rsi
	movq	$8, %rdx
	callq	Perl_PerlIO_read
	xorq	%r13, %r13
	cmpq	$8, %rax
	jne	.LBB43_18
	jmp	.LBB43_6
.LBB43_1:                               # %if.then
	movq	168(%r14), %rcx
	movq	176(%r14), %rdx
	leaq	4(%rcx), %rax
	xorq	%r13, %r13
	cmpq	%rdx, %rax
	ja	.LBB43_18
# BB#2:                                 # %if.then2
	movq	%rcx, %rdx
	andq	$-4, %rdx
	cmpq	%rdx, %rcx
	jne	.LBB43_4
# BB#3:                                 # %if.then8
	movslq	(%rcx), %rcx
	movq	%rcx, 8(%rsp)
	movq	%rax, 168(%r14)
	jmp	.LBB43_6
.LBB43_4:                               # %if.else
	movl	(%rcx), %ecx
	movl	%ecx, 8(%rsp)
	movq	%rax, 168(%r14)
.LBB43_6:                               # %if.end24
	movl	80(%r14), %eax
	testq	%rax, %rax
	je	.LBB43_8
# BB#7:                                 # %if.then26
	movq	8(%rsp), %rdi
	callq	Perl_my_ntohl
	movq	$32, %rcx
	shlq	%cl, %rax
	movq	$32, %rcx
	sarq	%cl, %rax
	movq	%rax, 8(%rsp)
.LBB43_8:                               # %if.end30
	callq	Perl_newAV
	movq	%rax, %r12
	xorq	%r13, %r13
	testq	%r12, %r12
	je	.LBB43_18
# BB#9:                                 # %if.end34
	movq	64(%r14), %rsi
	movq	24(%r14), %rdi
	leaq	1(%rsi), %rax
	movq	%rax, 64(%r14)
	movq	%r12, PL_Sv(%rip)
	incq	8(%r12)
	movq	%r12, %rdx
	callq	Perl_av_store
	testq	%rax, %rax
	je	.LBB43_18
# BB#10:                                # %if.end42
	testq	%r15, %r15
	je	.LBB43_12
# BB#11:                                # %if.then44
	movq	$1, %rsi
	movq	%r15, %rdi
	callq	Perl_gv_stashpv
	movq	%rax, %r15
	movq	%r12, %rdi
	callq	Perl_newRV_noinc
	movq	%rax, %rbx
	movq	%rbx, %rdi
	movq	%r15, %rsi
	callq	Perl_sv_bless
	movq	(%rbx), %rax
	movq	$0, (%rax)
	movq	%rbx, %rdi
	callq	Perl_sv_free
.LBB43_12:                              # %if.end48
	movq	8(%rsp), %rsi
	testq	%rsi, %rsi
	movq	%r12, %r13
	je	.LBB43_18
# BB#13:                                # %if.then50
	movq	%r12, %rdi
	callq	Perl_av_extend
	cmpq	$0, 8(%rsp)
	movq	%r12, %r13
	jle	.LBB43_18
# BB#14:
	xorq	%rbx, %rbx
	.align	16, 0x90
.LBB43_16:                              # %for.body
                                        # =>This Inner Loop Header: Depth=1
	xorq	%rsi, %rsi
	xorq	%r13, %r13
	movq	%r14, %rdi
	callq	retrieve
	testq	%rax, %rax
	je	.LBB43_18
# BB#17:                                # %if.end58
                                        #   in Loop: Header=BB43_16 Depth=1
	movq	%r12, %rdi
	movq	%rbx, %rsi
	movq	%rax, %rdx
	callq	Perl_av_store
	testq	%rax, %rax
	je	.LBB43_18
# BB#15:                                # %for.cond
                                        #   in Loop: Header=BB43_16 Depth=1
	movq	8(%rsp), %rax
	incq	%rbx
	cmpq	%rax, %rbx
	movq	%r12, %r13
	jl	.LBB43_16
.LBB43_18:                              # %return
	movq	%r13, %rax
	addq	$16, %rsp
	popq	%rbx
	popq	%r12
	popq	%r13
	popq	%r14
	popq	%r15
	retq
.Ltmp501:
	.size	retrieve_array, .Ltmp501-retrieve_array
	.cfi_endproc

	.align	16, 0x90
	.type	retrieve_hash,@function
retrieve_hash:                          # @retrieve_hash
	.cfi_startproc
# BB#0:                                 # %entry
	pushq	%r15
.Ltmp508:
	.cfi_def_cfa_offset 16
	pushq	%r14
.Ltmp509:
	.cfi_def_cfa_offset 24
	pushq	%r13
.Ltmp510:
	.cfi_def_cfa_offset 32
	pushq	%r12
.Ltmp511:
	.cfi_def_cfa_offset 40
	pushq	%rbx
.Ltmp512:
	.cfi_def_cfa_offset 48
	subq	$16, %rsp
.Ltmp513:
	.cfi_def_cfa_offset 64
.Ltmp514:
	.cfi_offset %rbx, -48
.Ltmp515:
	.cfi_offset %r12, -40
.Ltmp516:
	.cfi_offset %r13, -32
.Ltmp517:
	.cfi_offset %r14, -24
.Ltmp518:
	.cfi_offset %r15, -16
	movq	%rdi, %r13
	movq	216(%r13), %rdi
	movq	%rsi, %r15
	testq	%rdi, %rdi
	je	.LBB44_1
# BB#5:                                 # %if.else18
	leaq	8(%rsp), %rsi
	movq	$8, %rdx
	callq	Perl_PerlIO_read
	xorq	%rbx, %rbx
	cmpq	$8, %rax
	jne	.LBB44_37
	jmp	.LBB44_6
.LBB44_1:                               # %if.then
	movq	168(%r13), %rcx
	movq	176(%r13), %rdx
	leaq	4(%rcx), %rax
	xorq	%rbx, %rbx
	cmpq	%rdx, %rax
	ja	.LBB44_37
# BB#2:                                 # %if.then2
	movq	%rcx, %rdx
	andq	$-4, %rdx
	cmpq	%rdx, %rcx
	jne	.LBB44_4
# BB#3:                                 # %if.then8
	movslq	(%rcx), %rcx
	movq	%rcx, 8(%rsp)
	movq	%rax, 168(%r13)
	jmp	.LBB44_6
.LBB44_4:                               # %if.else
	movl	(%rcx), %ecx
	movl	%ecx, 8(%rsp)
	movq	%rax, 168(%r13)
.LBB44_6:                               # %if.end24
	movl	80(%r13), %eax
	testq	%rax, %rax
	je	.LBB44_8
# BB#7:                                 # %if.then26
	movq	8(%rsp), %rdi
	callq	Perl_my_ntohl
	movq	$32, %rcx
	shlq	%cl, %rax
	movq	$32, %rcx
	sarq	%cl, %rax
	movq	%rax, 8(%rsp)
.LBB44_8:                               # %if.end30
	callq	Perl_newHV
	movq	%rax, %r14
	xorq	%rbx, %rbx
	testq	%r14, %r14
	je	.LBB44_37
# BB#9:                                 # %if.end34
	movq	64(%r13), %rsi
	movq	24(%r13), %rdi
	leaq	1(%rsi), %rax
	movq	%rax, 64(%r13)
	movq	%r14, PL_Sv(%rip)
	incq	8(%r14)
	movq	%r14, %rdx
	callq	Perl_av_store
	testq	%rax, %rax
	je	.LBB44_37
# BB#10:                                # %if.end42
	testq	%r15, %r15
	je	.LBB44_12
# BB#11:                                # %if.then44
	movq	$1, %rsi
	movq	%r15, %rdi
	callq	Perl_gv_stashpv
	movq	%rax, %r15
	movq	%r14, %rdi
	callq	Perl_newRV_noinc
	movq	%rax, %rbx
	movq	%rbx, %rdi
	movq	%r15, %rsi
	callq	Perl_sv_bless
	movq	(%rbx), %rax
	movq	$0, (%rax)
	movq	%rbx, %rdi
	callq	Perl_sv_free
.LBB44_12:                              # %if.end48
	movq	8(%rsp), %rsi
	testq	%rsi, %rsi
	movq	%r14, %rbx
	je	.LBB44_37
# BB#13:                                # %if.end52
	movq	%r14, %rdi
	callq	Perl_hv_ksplit
	cmpq	$0, 8(%rsp)
	movq	%r14, %rbx
	jle	.LBB44_37
# BB#14:                                # %for.body.lr.ph
	xorq	%r15, %r15
	.align	16, 0x90
.LBB44_16:                              # %for.body
                                        # =>This Inner Loop Header: Depth=1
	xorq	%rsi, %rsi
	movq	%r13, %rdi
	callq	retrieve
	movq	%rax, %r12
	testq	%r12, %r12
	je	.LBB44_17
# BB#18:                                # %if.end58
                                        #   in Loop: Header=BB44_16 Depth=1
	movq	216(%r13), %rdi
	testq	%rdi, %rdi
	jne	.LBB44_23
# BB#19:                                # %if.then61
                                        #   in Loop: Header=BB44_16 Depth=1
	movq	168(%r13), %rcx
	movq	176(%r13), %rdx
	leaq	4(%rcx), %rax
	cmpq	%rdx, %rax
	ja	.LBB44_20
# BB#21:                                # %if.then69
                                        #   in Loop: Header=BB44_16 Depth=1
	movq	%rcx, %rdx
	andq	$-4, %rdx
	cmpq	%rdx, %rcx
	jne	.LBB44_25
# BB#22:                                # %if.then77
                                        #   in Loop: Header=BB44_16 Depth=1
	movslq	(%rcx), %rcx
	movq	%rcx, (%rsp)
	jmp	.LBB44_26
	.align	16, 0x90
.LBB44_23:                              # %if.else90
                                        #   in Loop: Header=BB44_16 Depth=1
	movq	$8, %rdx
	leaq	(%rsp), %rsi
	callq	Perl_PerlIO_read
	cmpq	$8, %rax
	je	.LBB44_27
	jmp	.LBB44_24
.LBB44_25:                              # %if.else81
                                        #   in Loop: Header=BB44_16 Depth=1
	movl	(%rcx), %ecx
	movl	%ecx, (%rsp)
.LBB44_26:                              # %if.end97
                                        #   in Loop: Header=BB44_16 Depth=1
	movq	%rax, 168(%r13)
.LBB44_27:                              # %if.end97
                                        #   in Loop: Header=BB44_16 Depth=1
	movl	80(%r13), %ecx
	movq	(%rsp), %rax
	testq	%rcx, %rcx
	je	.LBB44_29
# BB#28:                                # %if.then100
                                        #   in Loop: Header=BB44_16 Depth=1
	movq	%rax, %rdi
	callq	Perl_my_ntohl
	movq	$32, %rcx
	shlq	%cl, %rax
	movq	$32, %rcx
	sarq	%cl, %rax
	movq	%rax, (%rsp)
.LBB44_29:                              # %if.end104
                                        #   in Loop: Header=BB44_16 Depth=1
	movq	128(%r13), %rcx
	cmpq	%rcx, %rax
	jb	.LBB44_31
# BB#30:                                # %if.then107
                                        #   in Loop: Header=BB44_16 Depth=1
	movq	120(%r13), %rdi
	incq	%rax
	movq	%rax, %rsi
	callq	Perl_safesysrealloc
	movq	%rax, 120(%r13)
	movq	(%rsp), %rax
	leaq	1(%rax), %rcx
	movq	%rcx, 128(%r13)
.LBB44_31:                              # %if.end115
                                        #   in Loop: Header=BB44_16 Depth=1
	xorq	%rdx, %rdx
	testq	%rax, %rax
	movabsq	$0, %rcx
	je	.LBB44_36
# BB#32:                                # %if.then117
                                        #   in Loop: Header=BB44_16 Depth=1
	movq	216(%r13), %rdi
	testq	%rdi, %rdi
	jne	.LBB44_35
# BB#33:                                # %if.then120
                                        #   in Loop: Header=BB44_16 Depth=1
	movq	168(%r13), %rsi
	movq	176(%r13), %rcx
	leaq	(%rsi,%rax), %rdx
	xorq	%rbx, %rbx
	cmpq	%rcx, %rdx
	ja	.LBB44_37
# BB#34:                                # %if.then128
                                        #   in Loop: Header=BB44_16 Depth=1
	movq	120(%r13), %rdi
	movq	%rax, %rdx
	callq	memcpy
	xorq	%rdx, %rdx
	movq	(%rsp), %rcx
	addq	%rcx, 168(%r13)
	jmp	.LBB44_36
.LBB44_35:                              # %if.else138
                                        #   in Loop: Header=BB44_16 Depth=1
	movq	120(%r13), %rsi
	movq	%rax, %rdx
	callq	Perl_PerlIO_read
	movq	(%rsp), %rdx
	movq	%rax, %rcx
	xorq	%rbx, %rbx
	cmpq	%rdx, %rcx
	movabsq	$0, %rdx
	jne	.LBB44_37
.LBB44_36:                              # %if.end148
                                        #   in Loop: Header=BB44_16 Depth=1
	movq	120(%r13), %rax
	movb	%dl, (%rax,%rcx)
	movq	120(%r13), %rsi
	movq	(%rsp), %rdx
	xorq	%r8, %r8
	movq	%r14, %rdi
	movq	%r12, %rcx
	callq	Perl_hv_store
	testq	%rax, %rax
	movabsq	$0, %rbx
	je	.LBB44_37
# BB#15:                                # %for.cond
                                        #   in Loop: Header=BB44_16 Depth=1
	movq	8(%rsp), %rax
	incq	%r15
	cmpq	%rax, %r15
	movq	%r14, %rbx
	jl	.LBB44_16
	jmp	.LBB44_37
.LBB44_17:
	xorq	%rbx, %rbx
	jmp	.LBB44_37
.LBB44_20:
	xorq	%rbx, %rbx
	jmp	.LBB44_37
.LBB44_24:
	xorq	%rbx, %rbx
.LBB44_37:                              # %return
	movq	%rbx, %rax
	addq	$16, %rsp
	popq	%rbx
	popq	%r12
	popq	%r13
	popq	%r14
	popq	%r15
	retq
.Ltmp519:
	.size	retrieve_hash, .Ltmp519-retrieve_hash
	.cfi_endproc

	.align	16, 0x90
	.type	retrieve_sv_undef,@function
retrieve_sv_undef:                      # @retrieve_sv_undef
	.cfi_startproc
# BB#0:                                 # %entry
	pushq	%r15
.Ltmp524:
	.cfi_def_cfa_offset 16
	pushq	%r14
.Ltmp525:
	.cfi_def_cfa_offset 24
	pushq	%rbx
.Ltmp526:
	.cfi_def_cfa_offset 32
.Ltmp527:
	.cfi_offset %rbx, -32
.Ltmp528:
	.cfi_offset %r14, -24
.Ltmp529:
	.cfi_offset %r15, -16
	movq	32(%rdi), %rcx
	movq	64(%rdi), %rax
	movq	%rsi, %r14
	cmpq	$-1, %rcx
	jne	.LBB45_2
# BB#1:                                 # %if.then
	movq	%rax, 32(%rdi)
.LBB45_2:                               # %if.end3
	movq	24(%rdi), %rcx
	leaq	1(%rax), %rdx
	movq	%rdx, 64(%rdi)
	movabsq	$PL_sv_undef, %r15
	movq	%rcx, %rdi
	movq	%rax, %rsi
	movq	%r15, %rdx
	callq	Perl_av_store
	xorq	%rbx, %rbx
	testq	%rax, %rax
	je	.LBB45_5
# BB#3:                                 # %if.end7
	testq	%r14, %r14
	movq	%r15, %rbx
	je	.LBB45_5
# BB#4:                                 # %if.then9
	movq	$1, %rsi
	movq	%r14, %rdi
	callq	Perl_gv_stashpv
	movq	%rax, %r14
	movabsq	$PL_sv_undef, %rbx
	movq	%rbx, %rdi
	callq	Perl_newRV_noinc
	movq	%rax, %r15
	movq	%r15, %rdi
	movq	%r14, %rsi
	callq	Perl_sv_bless
	movq	(%r15), %rax
	movq	$0, (%rax)
	movq	%r15, %rdi
	callq	Perl_sv_free
.LBB45_5:                               # %return
	movq	%rbx, %rax
	popq	%rbx
	popq	%r14
	popq	%r15
	retq
.Ltmp530:
	.size	retrieve_sv_undef, .Ltmp530-retrieve_sv_undef
	.cfi_endproc

	.align	16, 0x90
	.type	retrieve_sv_yes,@function
retrieve_sv_yes:                        # @retrieve_sv_yes
	.cfi_startproc
# BB#0:                                 # %entry
	pushq	%r15
.Ltmp535:
	.cfi_def_cfa_offset 16
	pushq	%r14
.Ltmp536:
	.cfi_def_cfa_offset 24
	pushq	%rbx
.Ltmp537:
	.cfi_def_cfa_offset 32
.Ltmp538:
	.cfi_offset %rbx, -32
.Ltmp539:
	.cfi_offset %r14, -24
.Ltmp540:
	.cfi_offset %r15, -16
	movq	64(%rdi), %rax
	movq	24(%rdi), %rcx
	movq	%rsi, %r14
	leaq	1(%rax), %rdx
	movq	%rdx, 64(%rdi)
	movabsq	$PL_sv_yes, %r15
	movq	%rcx, %rdi
	movq	%rax, %rsi
	movq	%r15, %rdx
	callq	Perl_av_store
	xorq	%rbx, %rbx
	testq	%rax, %rax
	je	.LBB46_3
# BB#1:                                 # %if.end2
	testq	%r14, %r14
	movq	%r15, %rbx
	je	.LBB46_3
# BB#2:                                 # %if.then4
	movq	$1, %rsi
	movq	%r14, %rdi
	callq	Perl_gv_stashpv
	movq	%rax, %r14
	movabsq	$PL_sv_yes, %rbx
	movq	%rbx, %rdi
	callq	Perl_newRV_noinc
	movq	%rax, %r15
	movq	%r15, %rdi
	movq	%r14, %rsi
	callq	Perl_sv_bless
	movq	(%r15), %rax
	movq	$0, (%rax)
	movq	%r15, %rdi
	callq	Perl_sv_free
.LBB46_3:                               # %return
	movq	%rbx, %rax
	popq	%rbx
	popq	%r14
	popq	%r15
	retq
.Ltmp541:
	.size	retrieve_sv_yes, .Ltmp541-retrieve_sv_yes
	.cfi_endproc

	.align	16, 0x90
	.type	retrieve_sv_no,@function
retrieve_sv_no:                         # @retrieve_sv_no
	.cfi_startproc
# BB#0:                                 # %entry
	pushq	%r15
.Ltmp546:
	.cfi_def_cfa_offset 16
	pushq	%r14
.Ltmp547:
	.cfi_def_cfa_offset 24
	pushq	%rbx
.Ltmp548:
	.cfi_def_cfa_offset 32
.Ltmp549:
	.cfi_offset %rbx, -32
.Ltmp550:
	.cfi_offset %r14, -24
.Ltmp551:
	.cfi_offset %r15, -16
	movq	64(%rdi), %rax
	movq	24(%rdi), %rcx
	movq	%rsi, %r14
	leaq	1(%rax), %rdx
	movq	%rdx, 64(%rdi)
	movabsq	$PL_sv_no, %r15
	movq	%rcx, %rdi
	movq	%rax, %rsi
	movq	%r15, %rdx
	callq	Perl_av_store
	xorq	%rbx, %rbx
	testq	%rax, %rax
	je	.LBB47_3
# BB#1:                                 # %if.end2
	testq	%r14, %r14
	movq	%r15, %rbx
	je	.LBB47_3
# BB#2:                                 # %if.then4
	movq	$1, %rsi
	movq	%r14, %rdi
	callq	Perl_gv_stashpv
	movq	%rax, %r14
	movabsq	$PL_sv_no, %rbx
	movq	%rbx, %rdi
	callq	Perl_newRV_noinc
	movq	%rax, %r15
	movq	%r15, %rdi
	movq	%r14, %rsi
	callq	Perl_sv_bless
	movq	(%r15), %rax
	movq	$0, (%rax)
	movq	%r15, %rdi
	callq	Perl_sv_free
.LBB47_3:                               # %return
	movq	%rbx, %rax
	popq	%rbx
	popq	%r14
	popq	%r15
	retq
.Ltmp552:
	.size	retrieve_sv_no, .Ltmp552-retrieve_sv_no
	.cfi_endproc

	.align	16, 0x90
	.type	retrieve_blessed,@function
retrieve_blessed:                       # @retrieve_blessed
	.cfi_startproc
# BB#0:                                 # %entry
	pushq	%r15
.Ltmp559:
	.cfi_def_cfa_offset 16
	pushq	%r14
.Ltmp560:
	.cfi_def_cfa_offset 24
	pushq	%r13
.Ltmp561:
	.cfi_def_cfa_offset 32
	pushq	%r12
.Ltmp562:
	.cfi_def_cfa_offset 40
	pushq	%rbx
.Ltmp563:
	.cfi_def_cfa_offset 48
	subq	$144, %rsp
.Ltmp564:
	.cfi_def_cfa_offset 192
.Ltmp565:
	.cfi_offset %rbx, -48
.Ltmp566:
	.cfi_offset %r12, -40
.Ltmp567:
	.cfi_offset %r13, -32
.Ltmp568:
	.cfi_offset %r14, -24
.Ltmp569:
	.cfi_offset %r15, -16
	movq	%rdi, %r15
	movq	216(%r15), %rdi
	testq	%rdi, %rdi
	je	.LBB48_1
# BB#3:                                 # %if.else6
	callq	PerlIO_getc
	movabsq	$4294967295, %rdx       # imm = 0xFFFFFFFF
	movq	%rax, %rsi
	andq	%rdx, %rsi
	movq	$32, %rcx
	shlq	%cl, %rax
	movq	$32, %rcx
	sarq	%cl, %rax
	xorq	%rbx, %rbx
	cmpq	%rdx, %rsi
	movq	%rax, 136(%rsp)
	jne	.LBB48_4
	jmp	.LBB48_22
.LBB48_1:                               # %if.then
	movq	168(%r15), %rax
	movq	176(%r15), %rcx
	xorq	%rbx, %rbx
	cmpq	%rcx, %rax
	jae	.LBB48_22
# BB#2:                                 # %if.then2
	leaq	1(%rax), %rcx
	movq	%rcx, 168(%r15)
	movzbl	(%rax), %eax
	movq	%rax, 136(%rsp)
.LBB48_4:                               # %if.end14
	testq	$128, %rax
	je	.LBB48_5
# BB#6:                                 # %if.then16
	movq	216(%r15), %rdi
	testq	%rdi, %rdi
	je	.LBB48_7
# BB#11:                                # %if.else47
	leaq	136(%rsp), %rsi
	movq	$8, %rdx
	callq	Perl_PerlIO_read
	xorq	%rbx, %rbx
	cmpq	$8, %rax
	jne	.LBB48_22
	jmp	.LBB48_12
.LBB48_5:
	leaq	(%rsp), %r14
	jmp	.LBB48_15
.LBB48_7:                               # %if.then19
	movq	168(%r15), %rcx
	movq	176(%r15), %rdx
	leaq	4(%rcx), %rax
	xorq	%rbx, %rbx
	cmpq	%rdx, %rax
	ja	.LBB48_22
# BB#8:                                 # %if.then26
	movq	%rcx, %rdx
	andq	$-4, %rdx
	cmpq	%rdx, %rcx
	jne	.LBB48_10
# BB#9:                                 # %if.then34
	movslq	(%rcx), %rcx
	movq	%rcx, 136(%rsp)
	movq	%rax, 168(%r15)
	jmp	.LBB48_12
.LBB48_10:                              # %if.else38
	movl	(%rcx), %ecx
	movl	%ecx, 136(%rsp)
	movq	%rax, 168(%r15)
.LBB48_12:                              # %if.end54
	movl	80(%r15), %eax
	movq	136(%rsp), %rdi
	testq	%rax, %rax
	je	.LBB48_14
# BB#13:                                # %if.then56
	callq	Perl_my_ntohl
	movq	%rax, %rdi
	movq	$32, %rcx
	shlq	%cl, %rdi
	movq	$32, %rcx
	sarq	%cl, %rdi
	movq	%rdi, 136(%rsp)
.LBB48_14:                              # %if.end60
	incq	%rdi
	callq	Perl_safesysmalloc
	movq	%rax, %r14
.LBB48_15:                              # %if.end62
	movq	216(%r15), %rdi
	testq	%rdi, %rdi
	je	.LBB48_16
# BB#18:                                # %if.else81
	movq	136(%rsp), %rdx
	movq	%r14, %rsi
	callq	Perl_PerlIO_read
	movq	136(%rsp), %rcx
	xorq	%rbx, %rbx
	cmpq	%rcx, %rax
	jne	.LBB48_22
	jmp	.LBB48_19
.LBB48_16:                              # %if.then65
	movq	168(%r15), %rsi
	movq	136(%rsp), %rdx
	movq	176(%r15), %rax
	leaq	(%rsi,%rdx), %rcx
	xorq	%rbx, %rbx
	cmpq	%rax, %rcx
	ja	.LBB48_22
# BB#17:                                # %if.then73
	movq	%r14, %rdi
	callq	memcpy
	movq	136(%rsp), %rax
	addq	%rax, 168(%r15)
.LBB48_19:                              # %if.end88
	xorq	%rbx, %rbx
	movb	%bl, (%r14,%rax)
	movq	72(%r15), %r12
	movq	48(%r15), %r13
	leaq	1(%r12), %rax
	movq	%rax, 72(%r15)
	movq	136(%rsp), %rsi
	movq	%r14, %rdi
	callq	Perl_newSVpvn
	movq	%r13, %rdi
	movq	%r12, %rsi
	movq	%rax, %rdx
	callq	Perl_av_store
	testq	%rax, %rax
	je	.LBB48_22
# BB#20:                                # %if.end93
	movq	%r15, %rdi
	movq	%r14, %rsi
	callq	retrieve
	movq	%rax, %rbx
	leaq	(%rsp), %rax
	cmpq	%rax, %r14
	je	.LBB48_22
# BB#21:                                # %if.then98
	movq	%r14, %rdi
	callq	Perl_safesysfree
.LBB48_22:                              # %cleanup
	movq	%rbx, %rax
	addq	$144, %rsp
	popq	%rbx
	popq	%r12
	popq	%r13
	popq	%r14
	popq	%r15
	retq
.Ltmp570:
	.size	retrieve_blessed, .Ltmp570-retrieve_blessed
	.cfi_endproc

	.align	16, 0x90
	.type	retrieve_idx_blessed,@function
retrieve_idx_blessed:                   # @retrieve_idx_blessed
	.cfi_startproc
# BB#0:                                 # %entry
	pushq	%r14
.Ltmp574:
	.cfi_def_cfa_offset 16
	pushq	%rbx
.Ltmp575:
	.cfi_def_cfa_offset 24
	pushq	%rax
.Ltmp576:
	.cfi_def_cfa_offset 32
.Ltmp577:
	.cfi_offset %rbx, -24
.Ltmp578:
	.cfi_offset %r14, -16
	movq	%rdi, %r14
	movq	216(%r14), %rdi
	testq	%rdi, %rdi
	je	.LBB49_1
# BB#3:                                 # %if.else6
	callq	PerlIO_getc
	movabsq	$4294967295, %rdx       # imm = 0xFFFFFFFF
	movq	%rax, %rsi
	andq	%rdx, %rsi
	movq	$32, %rcx
	shlq	%cl, %rax
	movq	$32, %rcx
	sarq	%cl, %rax
	xorq	%rcx, %rcx
	cmpq	%rdx, %rsi
	movq	%rax, (%rsp)
	jne	.LBB49_4
	jmp	.LBB49_16
.LBB49_1:                               # %if.then
	movq	168(%r14), %rax
	movq	176(%r14), %rdx
	xorq	%rcx, %rcx
	cmpq	%rdx, %rax
	jae	.LBB49_16
# BB#2:                                 # %if.then2
	leaq	1(%rax), %rcx
	movq	%rcx, 168(%r14)
	movzbl	(%rax), %eax
	movq	%rax, (%rsp)
.LBB49_4:                               # %if.end14
	testq	$128, %rax
	je	.LBB49_13
# BB#5:                                 # %if.then16
	movq	216(%r14), %rdi
	testq	%rdi, %rdi
	je	.LBB49_6
# BB#10:                                # %if.else47
	leaq	(%rsp), %rsi
	movq	$8, %rdx
	callq	Perl_PerlIO_read
	xorq	%rcx, %rcx
	cmpq	$8, %rax
	jne	.LBB49_16
	jmp	.LBB49_11
.LBB49_6:                               # %if.then19
	movq	168(%r14), %rdx
	movq	176(%r14), %rsi
	leaq	4(%rdx), %rax
	xorq	%rcx, %rcx
	cmpq	%rsi, %rax
	ja	.LBB49_16
# BB#7:                                 # %if.then26
	movq	%rdx, %rcx
	andq	$-4, %rcx
	cmpq	%rcx, %rdx
	jne	.LBB49_9
# BB#8:                                 # %if.then34
	movslq	(%rdx), %rcx
	movq	%rcx, (%rsp)
	movq	%rax, 168(%r14)
	jmp	.LBB49_11
.LBB49_9:                               # %if.else38
	movl	(%rdx), %ecx
	movl	%ecx, (%rsp)
	movq	%rax, 168(%r14)
.LBB49_11:                              # %if.end54
	movl	80(%r14), %ecx
	movq	(%rsp), %rax
	testq	%rcx, %rcx
	je	.LBB49_13
# BB#12:                                # %if.then56
	movq	%rax, %rdi
	callq	Perl_my_ntohl
	movq	$32, %rcx
	shlq	%cl, %rax
	movq	$32, %rcx
	sarq	%cl, %rax
	movq	%rax, (%rsp)
.LBB49_13:                              # %if.end61
	movq	48(%r14), %rdi
	xorq	%rdx, %rdx
	movq	%rax, %rsi
	callq	Perl_av_fetch
	movq	%rax, %rbx
	testq	%rbx, %rbx
	jne	.LBB49_15
# BB#14:                                # %if.then64
	movq	$1, %rax
	movl	%eax, 112(%r14)
	movq	(%rsp), %rsi
	movabsq	$.L.str60, %rdi
	xorq	%rax, %rax
	callq	Perl_croak
.LBB49_15:                              # %if.end65
	movq	(%rbx), %rax
	movq	(%rax), %rax
	movq	(%rax), %rsi
	movq	%r14, %rdi
	callq	retrieve
	movq	%rax, %rcx
.LBB49_16:                              # %return
	movq	%rcx, %rax
	addq	$8, %rsp
	popq	%rbx
	popq	%r14
	retq
.Ltmp579:
	.size	retrieve_idx_blessed, .Ltmp579-retrieve_idx_blessed
	.cfi_endproc

	.align	16, 0x90
	.type	retrieve_hook,@function
retrieve_hook:                          # @retrieve_hook
	.cfi_startproc
# BB#0:                                 # %entry
	pushq	%r15
.Ltmp586:
	.cfi_def_cfa_offset 16
	pushq	%r14
.Ltmp587:
	.cfi_def_cfa_offset 24
	pushq	%r13
.Ltmp588:
	.cfi_def_cfa_offset 32
	pushq	%r12
.Ltmp589:
	.cfi_def_cfa_offset 40
	pushq	%rbx
.Ltmp590:
	.cfi_def_cfa_offset 48
	subq	$256, %rsp              # imm = 0x100
.Ltmp591:
	.cfi_def_cfa_offset 304
.Ltmp592:
	.cfi_offset %rbx, -48
.Ltmp593:
	.cfi_offset %r12, -40
.Ltmp594:
	.cfi_offset %r13, -32
.Ltmp595:
	.cfi_offset %r14, -24
.Ltmp596:
	.cfi_offset %r15, -16
	movq	%rdi, %r14
	movq	$0, 96(%rsp)
	movl	4(%r14), %r13d
	movq	216(%r14), %rdi
	andq	$4, %r13
	testq	%rdi, %rdi
	je	.LBB50_1
# BB#3:                                 # %if.else5
	callq	PerlIO_getc
	movq	%rax, %r15
	movabsq	$4294967295, %rax       # imm = 0xFFFFFFFF
	movq	%r15, %rcx
	andq	%rax, %rcx
	xorq	%r12, %r12
	cmpq	%rax, %rcx
	jne	.LBB50_4
	jmp	.LBB50_210
.LBB50_1:                               # %if.then
	movq	168(%r14), %rax
	movq	176(%r14), %rcx
	xorq	%r12, %r12
	cmpq	%rcx, %rax
	jae	.LBB50_210
# BB#2:                                 # %if.then2
	leaq	1(%rax), %rcx
	movq	%rcx, 168(%r14)
	movzbl	(%rax), %r15d
.LBB50_4:                               # %if.end11
	movq	%r15, %rax
	andq	$3, %rax
	cmpq	$3, %rax
	jbe	.LBB50_5
# BB#30:                                # %sw.default50
	movl	224(%r14), %edx
	movl	228(%r14), %ecx
	cmpq	$2, %rdx
	jne	.LBB50_34
# BB#31:
	movq	%rcx, %rbx
	jmp	.LBB50_32
.LBB50_5:                               # %if.end11
	jmpq	*.LJTI50_0(,%rax,8)
.LBB50_39:                              # %sw.bb
	xorq	%rdi, %rdi
	xorq	%r12, %r12
	callq	Perl_newSV
	movq	%rax, %rbx
	jmp	.LBB50_40
.LBB50_34:                              # %land.lhs.true.i825
	movabsq	$4294967295, %rax       # imm = 0xFFFFFFFF
	andq	%rcx, %rax
	movq	$6, %rbx
	cmpq	$6, %rax
	jne	.LBB50_35
.LBB50_32:                              # %if.else.i835
	movq	$1, %rax
	movl	%eax, 112(%r14)
	cmpq	$0, 216(%r14)
	je	.LBB50_37
# BB#33:
	movabsq	$.L.str33, %rsi
	jmp	.LBB50_38
.LBB50_37:                              # %select.mid33
	movabsq	$.L.str34, %rsi
.LBB50_38:                              # %select.end32
	movabsq	$.L.str40, %rdi
	xorq	%rax, %rax
	xorq	%r12, %r12
	movq	%rbx, %rcx
	callq	Perl_croak
	jmp	.LBB50_210
.LBB50_6:                               # %sw.bb14
	callq	Perl_newAV
	jmp	.LBB50_7
.LBB50_8:                               # %sw.bb16
	callq	Perl_newHV
.LBB50_7:                               # %sw.epilog52
	movq	%rax, %rbx
	xorq	%r12, %r12
.LBB50_40:                              # %sw.epilog52
	xorq	%rax, %rax
.LBB50_41:                              # %sw.epilog52
	testq	%rbx, %rbx
	je	.LBB50_42
# BB#43:                                # %if.end55
	movq	%rax, 64(%rsp)          # 8-byte Spill
	movq	64(%r14), %rsi
	movq	24(%r14), %rdi
	leaq	1(%rsi), %rax
	movq	%rax, 64(%r14)
	movq	%rbx, PL_Sv(%rip)
	incq	8(%rbx)
	movq	%rbx, %rdx
	callq	Perl_av_store
	testq	%rax, %rax
	je	.LBB50_44
# BB#45:                                # %while.cond.preheader
	movq	%r12, 48(%rsp)          # 8-byte Spill
	movq	%rbx, 56(%rsp)          # 8-byte Spill
	testq	$64, %r15
	je	.LBB50_53
# BB#46:                                # %while.body.lr.ph
	movabsq	$4294967295, %rbx       # imm = 0xFFFFFFFF
	xorq	%r12, %r12
	.align	16, 0x90
.LBB50_47:                              # %while.body
                                        # =>This Inner Loop Header: Depth=1
	xorq	%rsi, %rsi
	movq	%r14, %rdi
	callq	retrieve
	testq	%rax, %rax
	je	.LBB50_210
# BB#48:                                # %if.end69
                                        #   in Loop: Header=BB50_47 Depth=1
	movq	%rax, %rdi
	callq	Perl_sv_free
	movq	216(%r14), %rdi
	testq	%rdi, %rdi
	jne	.LBB50_51
# BB#49:                                # %if.then72
                                        #   in Loop: Header=BB50_47 Depth=1
	movq	168(%r14), %rax
	movq	176(%r14), %rcx
	cmpq	%rcx, %rax
	jae	.LBB50_210
# BB#50:                                # %if.then79
                                        #   in Loop: Header=BB50_47 Depth=1
	leaq	1(%rax), %rcx
	movq	%rcx, 168(%r14)
	movzbl	(%rax), %r15d
	jmp	.LBB50_52
	.align	16, 0x90
.LBB50_51:                              # %if.else86
                                        #   in Loop: Header=BB50_47 Depth=1
	callq	PerlIO_getc
	movq	%rax, %r15
                                        # kill: RAX<def> R15<kill>
	andq	%rbx, %rax
	cmpq	%rbx, %rax
	je	.LBB50_210
.LBB50_52:                              # %while.cond.backedge
                                        #   in Loop: Header=BB50_47 Depth=1
	testq	$64, %r15
	jne	.LBB50_47
.LBB50_53:                              # %while.end
	movq	216(%r14), %rdi
	movq	%r15, %rax
	andq	$4, %rax
	movq	%r15, %r12
	movabsq	$4294967295, %rbx       # imm = 0xFFFFFFFF
	andq	$32, %r12
	je	.LBB50_76
# BB#54:                                # %if.then96
	testq	%rbx, %rax
	je	.LBB50_66
# BB#55:                                # %if.then99
	testq	%rdi, %rdi
	je	.LBB50_56
# BB#60:                                # %if.else130
	leaq	88(%rsp), %rsi
	movq	$8, %rdx
	callq	Perl_PerlIO_read
	cmpq	$8, %rax
	je	.LBB50_64
# BB#61:
	xorq	%r12, %r12
	jmp	.LBB50_210
.LBB50_42:
	xorq	%r12, %r12
	jmp	.LBB50_210
.LBB50_9:                               # %sw.bb18
	movq	216(%r14), %rdi
	testq	%rdi, %rdi
	je	.LBB50_10
# BB#12:                                # %if.else35
	callq	PerlIO_getc
	movabsq	$4294967295, %rcx       # imm = 0xFFFFFFFF
	movq	%rax, %rdx
	andq	%rcx, %rdx
	xorq	%r12, %r12
	cmpq	%rcx, %rdx
	jne	.LBB50_13
	jmp	.LBB50_210
.LBB50_35:                              # %if.then.i830
	movq	$1, %rax
	movl	%eax, 112(%r14)
	cmpq	$0, 216(%r14)
	je	.LBB50_26
# BB#36:
	movabsq	$.L.str33, %rsi
	jmp	.LBB50_27
.LBB50_44:
	xorq	%r12, %r12
	jmp	.LBB50_210
.LBB50_10:                              # %if.then21
	movq	168(%r14), %rax
	movq	176(%r14), %rcx
	xorq	%r12, %r12
	cmpq	%rcx, %rax
	jae	.LBB50_210
# BB#11:                                # %if.then28
	leaq	1(%rax), %rcx
	movq	%rcx, 168(%r14)
	movzbl	(%rax), %eax
.LBB50_13:                              # %if.end42
	movabsq	$4294967295, %rsi       # imm = 0xFFFFFFFF
	andq	%rsi, %rax
	cmpq	$6, %rax
	je	.LBB50_18
# BB#14:                                # %if.end42
	cmpq	$5, %rax
	jne	.LBB50_15
# BB#17:                                # %sw.bb45
	callq	Perl_newAV
	movq	%rax, %rbx
	movq	$5, %rax
	movq	$80, %r12
	jmp	.LBB50_41
.LBB50_76:                              # %if.else177
	testq	%rbx, %rax
	je	.LBB50_88
# BB#77:                                # %if.then180
	testq	%rdi, %rdi
	je	.LBB50_78
# BB#82:                                # %if.else212
	leaq	248(%rsp), %rsi
	movq	$8, %rdx
	callq	Perl_PerlIO_read
	cmpq	$8, %rax
	je	.LBB50_86
# BB#83:
	xorq	%r12, %r12
	jmp	.LBB50_210
.LBB50_18:                              # %sw.bb47
	callq	Perl_newHV
	movq	%rax, %rbx
	movq	$6, %rax
	movq	$80, %r12
	jmp	.LBB50_41
.LBB50_15:                              # %if.end42
	cmpq	$4, %rax
	jne	.LBB50_19
# BB#16:                                # %sw.bb43
	xorq	%rdi, %rdi
	callq	Perl_newSV
	movq	%rax, %rbx
	movq	$4, %rax
	movq	$113, %r12
	jmp	.LBB50_41
.LBB50_66:                              # %if.else144
	testq	%rdi, %rdi
	je	.LBB50_67
# BB#69:                                # %if.else162
	callq	PerlIO_getc
	movq	%rax, %rsi
                                        # kill: RAX<def> RSI<kill>
	andq	%rbx, %rax
	movq	$32, %rcx
	shlq	%cl, %rsi
	movq	$32, %rcx
	sarq	%cl, %rsi
	cmpq	%rbx, %rax
	movq	%rsi, 88(%rsp)
	jne	.LBB50_73
# BB#70:
	xorq	%r12, %r12
	jmp	.LBB50_210
.LBB50_56:                              # %if.then102
	movq	168(%r14), %rcx
	movq	176(%r14), %rdx
	leaq	4(%rcx), %rax
	cmpq	%rdx, %rax
	jbe	.LBB50_58
# BB#57:
	xorq	%r12, %r12
	jmp	.LBB50_210
.LBB50_88:                              # %if.else227
	testq	%rdi, %rdi
	je	.LBB50_89
# BB#91:                                # %if.else245
	callq	PerlIO_getc
	movq	%rax, %rdi
                                        # kill: RAX<def> RDI<kill>
	andq	%rbx, %rax
	movq	$32, %rcx
	shlq	%cl, %rdi
	movq	$32, %rcx
	sarq	%cl, %rdi
	cmpq	%rbx, %rax
	movq	%rdi, 248(%rsp)
	jne	.LBB50_95
# BB#92:
	xorq	%r12, %r12
	jmp	.LBB50_210
.LBB50_19:                              # %sw.default
	movl	224(%r14), %edx
	movl	228(%r14), %ecx
	cmpq	$2, %rdx
	jne	.LBB50_23
# BB#20:
	movq	%rcx, %r8
	jmp	.LBB50_21
.LBB50_78:                              # %if.then183
	movq	168(%r14), %rcx
	movq	176(%r14), %rdx
	leaq	4(%rcx), %rax
	cmpq	%rdx, %rax
	jbe	.LBB50_80
# BB#79:
	xorq	%r12, %r12
	jmp	.LBB50_210
.LBB50_67:                              # %if.then147
	movq	168(%r14), %rax
	movq	176(%r14), %rcx
	cmpq	%rcx, %rax
	jae	.LBB50_68
# BB#71:                                # %if.then154
	leaq	1(%rax), %rcx
	movq	%rcx, 168(%r14)
	movzbl	(%rax), %esi
	jmp	.LBB50_72
.LBB50_58:                              # %if.then109
	movq	%rcx, %rdx
	andq	$-4, %rdx
	cmpq	%rdx, %rcx
	jne	.LBB50_62
# BB#59:                                # %if.then117
	movslq	(%rcx), %rcx
	movq	%rcx, 88(%rsp)
	jmp	.LBB50_63
.LBB50_23:                              # %land.lhs.true.i
	andq	%rcx, %rsi
	movq	$6, %r8
	cmpq	$6, %rsi
	jne	.LBB50_24
.LBB50_21:                              # %if.else.i
	movq	$1, %rax
	movl	%eax, 112(%r14)
	cmpq	$0, 216(%r14)
	je	.LBB50_28
# BB#22:
	movabsq	$.L.str33, %rsi
	jmp	.LBB50_29
.LBB50_89:                              # %if.then230
	movq	168(%r14), %rax
	movq	176(%r14), %rcx
	cmpq	%rcx, %rax
	jae	.LBB50_90
# BB#93:                                # %if.then237
	leaq	1(%rax), %rcx
	movq	%rcx, 168(%r14)
	movzbl	(%rax), %edi
	jmp	.LBB50_94
.LBB50_80:                              # %if.then191
	movq	%rcx, %rdx
	andq	$-4, %rdx
	cmpq	%rdx, %rcx
	jne	.LBB50_84
# BB#81:                                # %if.then199
	movslq	(%rcx), %rcx
	movq	%rcx, 248(%rsp)
	jmp	.LBB50_85
.LBB50_68:
	xorq	%r12, %r12
	jmp	.LBB50_210
.LBB50_62:                              # %if.else121
	movl	(%rcx), %ecx
	movl	%ecx, 88(%rsp)
.LBB50_63:                              # %if.end137
	movq	%rax, 168(%r14)
.LBB50_64:                              # %if.end137
	movl	80(%r14), %eax
	movq	88(%rsp), %rsi
	testq	%rax, %rax
	je	.LBB50_73
# BB#65:                                # %if.then139
	movq	%rsi, %rdi
	callq	Perl_my_ntohl
	movq	%rax, %rsi
	movq	$32, %rcx
	shlq	%cl, %rsi
	movq	$32, %rcx
	sarq	%cl, %rsi
.LBB50_72:                              # %if.end172
	movq	%rsi, 88(%rsp)
.LBB50_73:                              # %if.end172
	movq	48(%r14), %rdi
	xorq	%rdx, %rdx
	callq	Perl_av_fetch
	movq	%rax, %rbx
	testq	%rbx, %rbx
	jne	.LBB50_75
# BB#74:                                # %if.then175
	movq	$1, %rax
	movl	%eax, 112(%r14)
	movq	88(%rsp), %rsi
	movabsq	$.L.str60, %rdi
	xorq	%rax, %rax
	callq	Perl_croak
.LBB50_75:                              # %if.end176
	movq	%r12, 32(%rsp)          # 8-byte Spill
	movq	(%rbx), %rax
	movq	(%rax), %rax
	movq	(%rax), %rax
	movq	%rax, 40(%rsp)          # 8-byte Spill
.LBB50_105:                             # %if.end294
	movq	216(%r14), %rdi
	testq	$8, %r15
	je	.LBB50_117
# BB#106:                               # %if.then297
	testq	%rdi, %rdi
	je	.LBB50_107
# BB#111:                               # %if.else329
	leaq	104(%rsp), %rsi
	movq	$8, %rdx
	callq	Perl_PerlIO_read
	cmpq	$8, %rax
	movq	56(%rsp), %r12          # 8-byte Reload
	je	.LBB50_115
# BB#112:
	xorq	%r12, %r12
	jmp	.LBB50_210
.LBB50_117:                             # %if.else344
	testq	%rdi, %rdi
	je	.LBB50_118
# BB#120:                               # %if.else362
	callq	PerlIO_getc
	movq	%rax, %rdi
	movabsq	$4294967295, %rax       # imm = 0xFFFFFFFF
	movq	%rdi, %rdx
	andq	%rax, %rdx
	movq	$32, %rcx
	shlq	%cl, %rdi
	movq	$32, %rcx
	sarq	%cl, %rdi
	cmpq	%rax, %rdx
	movq	%rdi, 104(%rsp)
	movq	56(%rsp), %r12          # 8-byte Reload
	jne	.LBB50_124
# BB#121:
	xorq	%r12, %r12
	jmp	.LBB50_210
.LBB50_107:                             # %if.then300
	movq	168(%r14), %rcx
	movq	176(%r14), %rdx
	leaq	4(%rcx), %rax
	cmpq	%rdx, %rax
	jbe	.LBB50_109
# BB#108:
	xorq	%r12, %r12
	jmp	.LBB50_210
.LBB50_118:                             # %if.then347
	movq	168(%r14), %rax
	movq	176(%r14), %rcx
	cmpq	%rcx, %rax
	movq	56(%rsp), %r12          # 8-byte Reload
	jae	.LBB50_119
# BB#122:                               # %if.then354
	leaq	1(%rax), %rcx
	movq	%rcx, 168(%r14)
	movzbl	(%rax), %edi
	jmp	.LBB50_123
.LBB50_109:                             # %if.then308
	movq	%rcx, %rdx
	andq	$-4, %rdx
	cmpq	%rdx, %rcx
	movq	56(%rsp), %r12          # 8-byte Reload
	jne	.LBB50_113
# BB#110:                               # %if.then316
	movslq	(%rcx), %rcx
	movq	%rcx, 104(%rsp)
	jmp	.LBB50_114
.LBB50_28:                              # %select.mid23
	movabsq	$.L.str34, %rsi
.LBB50_29:                              # %select.end22
	movabsq	$.L.str40, %rdi
	xorq	%rax, %rax
	xorq	%r12, %r12
	movq	%r8, %rcx
	callq	Perl_croak
	jmp	.LBB50_210
.LBB50_24:                              # %if.then.i
	movq	$1, %rax
	movl	%eax, 112(%r14)
	cmpq	$0, 216(%r14)
	je	.LBB50_26
# BB#25:
	movabsq	$.L.str33, %rsi
	jmp	.LBB50_27
.LBB50_26:                              # %select.mid
	movabsq	$.L.str34, %rsi
.LBB50_27:                              # %select.end
	movabsq	$.L.str39, %rdi
	movq	$2, %r8
	movq	$6, %r9
	xorq	%rax, %rax
	xorq	%r12, %r12
	callq	Perl_croak
.LBB50_210:                             # %cleanup
	movq	%r12, %rax
	addq	$256, %rsp              # imm = 0x100
	popq	%rbx
	popq	%r12
	popq	%r13
	popq	%r14
	popq	%r15
	retq
.LBB50_90:
	xorq	%r12, %r12
	jmp	.LBB50_210
.LBB50_119:
	xorq	%r12, %r12
	jmp	.LBB50_210
.LBB50_84:                              # %if.else203
	movl	(%rcx), %ecx
	movl	%ecx, 248(%rsp)
.LBB50_85:                              # %if.end219
	movq	%rax, 168(%r14)
.LBB50_86:                              # %if.end219
	movl	80(%r14), %eax
	movq	248(%rsp), %rdi
	testq	%rax, %rax
	je	.LBB50_95
# BB#87:                                # %if.then222
	callq	Perl_my_ntohl
	movq	%rax, %rdi
	movq	$32, %rcx
	shlq	%cl, %rdi
	movq	$32, %rcx
	sarq	%cl, %rdi
.LBB50_94:                              # %if.end255
	movq	%rdi, 248(%rsp)
.LBB50_95:                              # %if.end255
	cmpq	$128, %rdi
	jl	.LBB50_96
# BB#97:                                # %if.then258
	incq	%rdi
	callq	Perl_safesysmalloc
	movq	%rax, %rbx
	jmp	.LBB50_98
.LBB50_96:
	leaq	112(%rsp), %rbx
.LBB50_98:                              # %if.end260
	movq	216(%r14), %rdi
	testq	%rdi, %rdi
	je	.LBB50_99
# BB#101:                               # %if.else279
	movq	248(%rsp), %rdx
	movq	%rbx, %rsi
	callq	Perl_PerlIO_read
	movq	248(%rsp), %rcx
	cmpq	%rcx, %rax
	je	.LBB50_104
# BB#102:
	xorq	%r12, %r12
	jmp	.LBB50_210
.LBB50_99:                              # %if.then263
	movq	168(%r14), %rsi
	movq	248(%rsp), %rdx
	movq	176(%r14), %rax
	leaq	(%rsi,%rdx), %rcx
	cmpq	%rax, %rcx
	jbe	.LBB50_103
# BB#100:
	xorq	%r12, %r12
	jmp	.LBB50_210
.LBB50_103:                             # %if.then271
	movq	%rbx, %rdi
	callq	memcpy
	movq	248(%rsp), %rax
	addq	%rax, 168(%r14)
.LBB50_104:                             # %if.end286
	movq	%r12, 32(%rsp)          # 8-byte Spill
	xorq	%r12, %r12
	movb	%r12b, (%rbx,%rax)
	movq	%rbx, %rdi
	movq	%rdi, 40(%rsp)          # 8-byte Spill
	movq	72(%r14), %rbx
	movq	48(%r14), %rax
	movq	%rax, 24(%rsp)          # 8-byte Spill
	leaq	1(%rbx), %rax
	movq	%rax, 72(%r14)
	movq	248(%rsp), %rsi
	callq	Perl_newSVpvn
	movq	24(%rsp), %rdi          # 8-byte Reload
	movq	%rbx, %rsi
	movq	%rax, %rdx
	callq	Perl_av_store
	testq	%rax, %rax
	jne	.LBB50_105
	jmp	.LBB50_210
.LBB50_113:                             # %if.else320
	movl	(%rcx), %ecx
	movl	%ecx, 104(%rsp)
.LBB50_114:                             # %if.end336
	movq	%rax, 168(%r14)
.LBB50_115:                             # %if.end336
	movl	80(%r14), %eax
	movq	104(%rsp), %rdi
	testq	%rax, %rax
	je	.LBB50_124
# BB#116:                               # %if.then339
	callq	Perl_my_ntohl
	movq	%rax, %rdi
	movq	$32, %rcx
	shlq	%cl, %rdi
	movq	$32, %rcx
	sarq	%cl, %rdi
.LBB50_123:                             # %if.end372
	movq	%rdi, 104(%rsp)
.LBB50_124:                             # %if.end372
	callq	Perl_newSV
	movq	104(%rsp), %rdx
	movq	%rax, %rbx
	testq	%rdx, %rdx
	je	.LBB50_129
# BB#125:                               # %if.then375
	movq	216(%r14), %rdi
	testq	%rdi, %rdi
	je	.LBB50_126
# BB#139:                               # %if.else396
	movq	(%rbx), %rax
	movq	(%rax), %rsi
	callq	Perl_PerlIO_read
	movq	104(%rsp), %rcx
	cmpq	%rcx, %rax
	je	.LBB50_128
	jmp	.LBB50_140
.LBB50_126:                             # %if.then378
	movq	168(%r14), %rsi
	movq	176(%r14), %rax
	leaq	(%rsi,%rdx), %rcx
	cmpq	%rax, %rcx
	jbe	.LBB50_127
.LBB50_140:                             # %if.else394
	movq	%rbx, %rdi
	callq	Perl_sv_free
	xorq	%r12, %r12
	jmp	.LBB50_210
.LBB50_127:                             # %if.then386
	movq	(%rbx), %rax
	movq	(%rax), %rdi
	callq	memcpy
	movq	104(%rsp), %rax
	addq	%rax, 168(%r14)
.LBB50_128:                             # %if.end405
	movq	(%rbx), %rcx
	movq	%rax, 8(%rcx)
	movq	(%rcx), %rcx
	xorq	%rdx, %rdx
	movb	%dl, (%rcx,%rax)
.LBB50_129:                             # %if.end412
	movq	16(%rbx), %rax
	andq	$1223753727, %rax       # imm = 0x48F0FFFF
	orq	$67371008, %rax         # imm = 0x4040000
	movq	%rax, 16(%rbx)
	movl	84(%r14), %eax
	testq	%rax, %rax
	je	.LBB50_133
# BB#130:                               # %if.end412
	movzbl	PL_tainting(%rip), %eax
	testq	$255, %rax
	je	.LBB50_133
# BB#131:                               # %if.end412
	movzbl	PL_tainted(%rip), %eax
	testq	$255, %rax
	je	.LBB50_133
# BB#132:                               # %if.then422
	movq	%rbx, %rdi
	callq	Perl_sv_taint
.LBB50_133:                             # %if.end426
	xorq	%rdx, %rdx
	testq	$128, %r15
	movabsq	$0, %rcx
	je	.LBB50_167
# BB#134:                               # %if.then429
	movq	216(%r14), %rdi
	testq	$16, %r15
	je	.LBB50_145
# BB#135:                               # %if.then432
	movq	%rbx, %r15
	movq	%r12, %rbx
	testq	%rdi, %rdi
	je	.LBB50_136
# BB#142:                               # %if.else464
	leaq	96(%rsp), %rsi
	movq	$8, %rdx
	callq	Perl_PerlIO_read
	xorq	%r12, %r12
	cmpq	$8, %rax
	jne	.LBB50_210
	jmp	.LBB50_143
.LBB50_145:                             # %if.else479
	movq	%rbx, %r15
	movq	%r12, %rbx
	testq	%rdi, %rdi
	je	.LBB50_146
# BB#148:                               # %if.else497
	callq	PerlIO_getc
	movabsq	$4294967295, %rdx       # imm = 0xFFFFFFFF
	movq	%rax, %rsi
	andq	%rdx, %rsi
	movq	$32, %rcx
	shlq	%cl, %rax
	movq	$32, %rcx
	sarq	%cl, %rax
	xorq	%r12, %r12
	cmpq	%rdx, %rsi
	movq	%rax, 96(%rsp)
	jne	.LBB50_149
	jmp	.LBB50_210
.LBB50_136:                             # %if.then435
	movq	168(%r14), %rcx
	movq	176(%r14), %rdx
	leaq	4(%rcx), %rax
	xorq	%r12, %r12
	cmpq	%rdx, %rax
	ja	.LBB50_210
# BB#137:                               # %if.then443
	movq	%rcx, %rdx
	andq	$-4, %rdx
	cmpq	%rdx, %rcx
	jne	.LBB50_141
# BB#138:                               # %if.then451
	movslq	(%rcx), %rcx
	movq	%rcx, 96(%rsp)
	movq	%rax, 168(%r14)
	jmp	.LBB50_143
.LBB50_146:                             # %if.then482
	movq	168(%r14), %rax
	movq	176(%r14), %rcx
	xorq	%r12, %r12
	cmpq	%rcx, %rax
	jae	.LBB50_210
# BB#147:                               # %if.then489
	leaq	1(%rax), %rcx
	movq	%rcx, 168(%r14)
	movzbl	(%rax), %eax
	movq	%rax, 96(%rsp)
	jmp	.LBB50_149
.LBB50_141:                             # %if.else455
	movl	(%rcx), %ecx
	movl	%ecx, 96(%rsp)
	movq	%rax, 168(%r14)
.LBB50_143:                             # %if.end471
	movl	80(%r14), %ecx
	movq	96(%rsp), %rax
	testq	%rcx, %rcx
	je	.LBB50_149
# BB#144:                               # %if.then474
	movq	%rax, %rdi
	callq	Perl_my_ntohl
	movq	$32, %rcx
	shlq	%cl, %rax
	movq	$32, %rcx
	sarq	%cl, %rax
	movq	%rax, 96(%rsp)
.LBB50_149:                             # %if.end507
	xorq	%rdx, %rdx
	testq	%rax, %rax
	movabsq	$0, %rcx
	movq	%rbx, %r12
	movq	%r15, %rbx
	je	.LBB50_167
# BB#150:                               # %if.end514
	callq	Perl_newAV
	movq	96(%rsp), %rsi
	movq	%rax, %r15
	incq	%rsi
	movq	%r15, %rdi
	callq	Perl_av_extend
	movq	96(%rsp), %rcx
	movq	(%r15), %rax
	xorq	%rdx, %rdx
	testq	%r15, %r15
	movq	%rcx, 8(%rax)
	movabsq	$0, %rcx
	je	.LBB50_167
# BB#151:                               # %if.then516
	cmpq	$0, 96(%rsp)
	movq	$1, %rdx
	jle	.LBB50_152
# BB#153:                               # %for.body.lr.ph
	movq	%r15, 8(%rsp)           # 8-byte Spill
	movq	(%rax), %rax
	movq	%rax, 24(%rsp)          # 8-byte Spill
	xorq	%r15, %r15
.LBB50_154:                             # %for.body
                                        # =>This Inner Loop Header: Depth=1
	movq	216(%r14), %rdi
	testq	%rdi, %rdi
	jne	.LBB50_159
# BB#155:                               # %if.then528
                                        #   in Loop: Header=BB50_154 Depth=1
	movq	168(%r14), %rcx
	movq	176(%r14), %rdx
	leaq	4(%rcx), %rax
	xorq	%r12, %r12
	cmpq	%rdx, %rax
	ja	.LBB50_210
# BB#156:                               # %if.then536
                                        #   in Loop: Header=BB50_154 Depth=1
	movq	%rcx, %rdx
	andq	$-4, %rdx
	cmpq	%rdx, %rcx
	jne	.LBB50_158
# BB#157:                               # %if.then544
                                        #   in Loop: Header=BB50_154 Depth=1
	movslq	(%rcx), %rcx
	movq	%rcx, 80(%rsp)
	movq	%rax, 168(%r14)
	jmp	.LBB50_160
.LBB50_159:                             # %if.else557
                                        #   in Loop: Header=BB50_154 Depth=1
	movq	$8, %rdx
	leaq	80(%rsp), %rsi
	callq	Perl_PerlIO_read
	xorq	%r12, %r12
	cmpq	$8, %rax
	je	.LBB50_160
	jmp	.LBB50_210
.LBB50_158:                             # %if.else548
                                        #   in Loop: Header=BB50_154 Depth=1
	movl	(%rcx), %ecx
	movl	%ecx, 80(%rsp)
	movq	%rax, 168(%r14)
.LBB50_160:                             # %if.end564
                                        #   in Loop: Header=BB50_154 Depth=1
	movq	80(%rsp), %rdi
	callq	Perl_my_ntohl
	movq	%rax, 80(%rsp)
	movq	24(%r14), %rdi
	xorq	%rdx, %rdx
	movq	%rax, %rsi
	callq	Perl_av_fetch
	testq	%rax, %rax
	jne	.LBB50_163
# BB#161:                               # %if.then569
                                        #   in Loop: Header=BB50_154 Depth=1
	movq	80(%rsp), %rcx
	movq	32(%r14), %rax
	cmpq	%rax, %rcx
	jne	.LBB50_211
# BB#162:                               # %if.then572
                                        #   in Loop: Header=BB50_154 Depth=1
	movq	$PL_sv_undef, 72(%rsp)
	leaq	72(%rsp), %rax
.LBB50_163:                             # %if.end576
                                        #   in Loop: Header=BB50_154 Depth=1
	movq	(%rax), %rax
	testq	%rax, %rax
	movq	%rax, 72(%rsp)
	movq	%rax, PL_Sv(%rip)
	je	.LBB50_165
# BB#164:                               # %land.rhs578
                                        #   in Loop: Header=BB50_154 Depth=1
	incq	8(%rax)
.LBB50_165:                             # %land.end582
                                        #   in Loop: Header=BB50_154 Depth=1
	movq	24(%rsp), %rcx          # 8-byte Reload
	movq	%rax, 8(%rcx,%r15,8)
	movq	96(%rsp), %rax
	incq	%r15
	cmpq	%rax, %r15
	jl	.LBB50_154
# BB#166:
	movq	8(%rsp), %rcx           # 8-byte Reload
	movq	56(%rsp), %r12          # 8-byte Reload
	movq	$1, %rdx
	jmp	.LBB50_167
.LBB50_152:
	movq	%r15, %rcx
.LBB50_167:                             # %if.end586
	movq	%rdx, 8(%rsp)           # 8-byte Spill
	movq	%rcx, 24(%rsp)          # 8-byte Spill
	movq	%rbx, 16(%rsp)          # 8-byte Spill
	movq	$1, %rsi
	movq	40(%rsp), %rdi          # 8-byte Reload
	callq	Perl_gv_stashpv
	movq	%rax, %r15
	movq	%r12, %rdi
	callq	Perl_newRV_noinc
	movq	%rax, %rbx
	movq	%rbx, %rdi
	movq	%r15, %rsi
	callq	Perl_sv_bless
	movq	(%rbx), %rax
	movq	$0, (%rax)
	movq	%rbx, %rdi
	movq	%r12, %r15
	callq	Perl_sv_free
	movq	(%r15), %rax
	movq	56(%r14), %rdi
	movq	48(%rax), %rsi
	movabsq	$.L.str61, %rdx
	callq	pkg_can
	movq	%rax, %rbx
	testq	%rbx, %rbx
	jne	.LBB50_170
# BB#168:                               # %if.then597
	movabsq	$.L.str58, %rdi
	movq	$8, %rsi
	callq	Perl_newSVpvn
	movq	%r15, %r12
	movq	%rax, %rbx
	movq	%rbx, %rdi
	movq	40(%rsp), %rsi          # 8-byte Reload
	callq	Perl_sv_catpv
	movq	$2, %rsi
	movq	%rbx, %rdi
	callq	Perl_eval_sv
	movq	%rbx, %rdi
	callq	Perl_sv_free
	movq	(%r12), %rax
	movq	48(%rax), %rax
	movq	(%rax), %rax
	movq	56(%r14), %r15
	movq	80(%rax), %rbx
	movq	%rbx, %rdi
	callq	strlen
	movq	$2, %rcx
	movq	%r15, %rdi
	movq	%rbx, %rsi
	movq	%r12, %r15
	movq	%rax, %rdx
	callq	Perl_hv_delete
	movq	(%r15), %rax
	movq	56(%r14), %rdi
	movq	48(%rax), %rsi
	movabsq	$.L.str61, %rdx
	callq	pkg_can
	movq	%rax, %rbx
	testq	%rbx, %rbx
	jne	.LBB50_170
# BB#169:                               # %if.then609
	movq	$1, %rax
	movl	%eax, 112(%r14)
	movabsq	$.L.str62, %rdi
	xorq	%rax, %rax
	xorq	%rbx, %rbx
	movq	40(%rsp), %rsi          # 8-byte Reload
	movq	%rsi, %rdx
	callq	Perl_croak
.LBB50_170:                             # %if.end612
	cmpq	$0, 8(%rsp)             # 8-byte Folded Reload
	movq	24(%rsp), %rdx          # 8-byte Reload
	jne	.LBB50_172
# BB#171:                               # %if.then614
	callq	Perl_newAV
	movq	%rax, %r12
	movq	$1, %rsi
	movq	%r12, %rdi
	callq	Perl_av_extend
	movq	%r12, %rdx
	movq	(%rdx), %rax
	movq	$0, 8(%rax)
.LBB50_172:                             # %if.end618
	movq	%rbx, 8(%rsp)           # 8-byte Spill
	movq	16(%rsp), %rcx          # 8-byte Reload
	movq	%rcx, PL_Sv(%rip)
	testq	%rcx, %rcx
	je	.LBB50_174
# BB#173:                               # %land.rhs620
	incq	8(%rcx)
.LBB50_174:                             # %land.end624
	movq	(%rdx), %rax
	movq	%rdx, %rbx
	movq	(%rax), %rax
	movq	%rcx, (%rax)
	movq	%r15, %rdi
	callq	Perl_newRV
	movq	PL_stack_sp(%rip), %r15
	movq	%rax, %r12
	callq	Perl_push_scope
	movabsq	$PL_tmps_floor, %rdi
	callq	Perl_save_int
	movq	PL_tmps_ix(%rip), %rcx
	movq	PL_markstack_ptr(%rip), %rax
	movq	PL_markstack_max(%rip), %rdx
	movq	%rcx, PL_tmps_floor(%rip)
	addq	$8, %rax
	movq	%rax, PL_markstack_ptr(%rip)
	cmpq	%rdx, %rax
	jne	.LBB50_176
# BB#175:                               # %if.then.i839
	callq	Perl_markstack_grow
	movq	PL_markstack_ptr(%rip), %rax
.LBB50_176:                             # %if.end.i
	movq	PL_stack_base(%rip), %rcx
	movq	%r15, %rdx
	subq	%rcx, %rdx
	movq	$3, %rcx
	sarq	%cl, %rdx
	movq	%rdx, (%rax)
	movq	PL_stack_max(%rip), %rax
	subq	%r15, %rax
	cmpq	$7, %rax
	jg	.LBB50_178
# BB#177:                               # %if.then6.i
	movq	$1, %rdx
	movq	%r15, %rdi
	movq	%r15, %rsi
	callq	Perl_stack_grow
	movq	%rax, %r15
.LBB50_178:                             # %if.end7.i
	movq	%r12, 8(%r15)
	movq	PL_stack_max(%rip), %rax
	addq	$8, %r15
	subq	%r15, %rax
	cmpq	$7, %rax
	jg	.LBB50_180
# BB#179:                               # %if.then15.i
	movq	$1, %rdx
	movq	%r15, %rdi
	movq	%r15, %rsi
	callq	Perl_stack_grow
	movq	%rax, %r15
.LBB50_180:                             # %if.end17.i
	movabsq	$4294967295, %rax       # imm = 0xFFFFFFFF
	andq	%rax, %r13
	movq	%r13, %rdi
	callq	Perl_newSViv
	movq	%rax, %rdi
	callq	Perl_sv_2mortal
	movq	%rax, 8(%r15)
	addq	$8, %r15
	movq	%rbx, %rdx
	testq	%rdx, %rdx
	je	.LBB50_181
# BB#182:                               # %if.then22.i
	movq	(%rdx), %rax
	movq	8(%rax), %rbx
	movq	PL_stack_max(%rip), %rcx
	movq	(%rax), %r13
	incq	%rbx
	subq	%r15, %rcx
	cmpq	$7, %rcx
	jg	.LBB50_183
# BB#184:                               # %if.then34.i
	movq	%r12, (%rsp)            # 8-byte Spill
	movq	%rdx, 24(%rsp)          # 8-byte Spill
	movq	$1, %rdx
	movq	%r15, %rdi
	movq	%r15, %rsi
	callq	Perl_stack_grow
	movq	%rax, %r15
	jmp	.LBB50_185
.LBB50_181:
	movq	%r12, (%rsp)            # 8-byte Spill
	movq	%rdx, 24(%rsp)          # 8-byte Spill
	jmp	.LBB50_190
.LBB50_183:
	movq	%r12, (%rsp)            # 8-byte Spill
	movq	%rdx, 24(%rsp)          # 8-byte Spill
.LBB50_185:                             # %if.end36.i
	movq	$32, %rcx
	movq	%rbx, %rax
	shlq	%cl, %rax
	movq	$32, %rcx
	movq	(%r13), %rdx
	sarq	%cl, %rax
	cmpq	$2, %rax
	movq	%rdx, 8(%r15)
	leaq	8(%r15), %r15
	jl	.LBB50_190
# BB#186:                               # %for.body.lr.ph.i
	movq	$2, %r12
	movabsq	$4294967295, %rax       # imm = 0xFFFFFFFF
	andq	%rax, %rbx
.LBB50_187:                             # %for.body.i
                                        # =>This Inner Loop Header: Depth=1
	movq	PL_stack_max(%rip), %rax
	subq	%r15, %rax
	cmpq	$7, %rax
	jg	.LBB50_189
# BB#188:                               # %if.then47.i
                                        #   in Loop: Header=BB50_187 Depth=1
	movq	$1, %rdx
	movq	%r15, %rdi
	movq	%r15, %rsi
	callq	Perl_stack_grow
	movq	%rax, %r15
.LBB50_189:                             # %if.end49.i
                                        #   in Loop: Header=BB50_187 Depth=1
	movq	-8(%r13,%r12,8), %rdi
	callq	Perl_newRV
	movq	%rax, %rdi
	callq	Perl_sv_2mortal
	movq	%rax, 8(%r15)
	addq	$8, %r15
	movq	%r12, %rax
	movabsq	$4294967295, %rcx       # imm = 0xFFFFFFFF
	andq	%rcx, %rax
	incq	%r12
	cmpq	%rbx, %rax
	jne	.LBB50_187
.LBB50_190:                             # %if.end55.i
	movq	%r15, PL_stack_sp(%rip)
	movq	$2, %rsi
	movq	8(%rsp), %rdi           # 8-byte Reload
	callq	Perl_call_sv
	movq	PL_stack_sp(%rip), %rcx
	movabsq	$4294967295, %rdx       # imm = 0xFFFFFFFF
	testq	%rdx, %rax
	je	.LBB50_191
# BB#192:                               # %if.then59.i
	movq	(%rcx), %rax
	addq	$-8, %rcx
	testq	%rax, %rax
	movq	%rax, PL_Sv(%rip)
	movq	56(%rsp), %r13          # 8-byte Reload
	movq	32(%rsp), %r15          # 8-byte Reload
	movq	16(%rsp), %r12          # 8-byte Reload
	movq	(%rsp), %rbx            # 8-byte Reload
	je	.LBB50_194
# BB#193:                               # %land.rhs.i
	incq	8(%rax)
	jmp	.LBB50_194
.LBB50_191:
	movq	56(%rsp), %r13          # 8-byte Reload
	movq	32(%rsp), %r15          # 8-byte Reload
	movq	16(%rsp), %r12          # 8-byte Reload
	movq	(%rsp), %rbx            # 8-byte Reload
.LBB50_194:                             # %if.end64.i
	movq	PL_tmps_ix(%rip), %rax
	movq	PL_tmps_floor(%rip), %rdx
	movq	%rcx, PL_stack_sp(%rip)
	cmpq	%rdx, %rax
	jle	.LBB50_196
# BB#195:                               # %if.then67.i
	callq	Perl_free_tmps
.LBB50_196:                             # %scalar_call.exit
	callq	Perl_pop_scope
	movq	%rbx, %rdi
	callq	Perl_sv_free
	movq	%r12, %rdi
	callq	Perl_sv_free
	movq	24(%rsp), %rbx          # 8-byte Reload
	movq	%rbx, %rdi
	callq	Perl_av_undef
	movq	%rbx, %rdi
	callq	Perl_sv_free
	movabsq	$4294967295, %rbx       # imm = 0xFFFFFFFF
	testq	%rbx, %r15
	movq	48(%rsp), %r12          # 8-byte Reload
	movq	40(%rsp), %rdi          # 8-byte Reload
	jne	.LBB50_199
# BB#197:                               # %scalar_call.exit
	leaq	112(%rsp), %rax
	cmpq	%rax, %rdi
	je	.LBB50_199
# BB#198:                               # %if.then636
	callq	Perl_safesysfree
.LBB50_199:                             # %if.end637
	movq	64(%rsp), %rax          # 8-byte Reload
	testq	%rbx, %rax
	je	.LBB50_209
# BB#200:                               # %if.end640
	movq	%rbx, %r15
	movq	%rax, %rbx
	xorq	%rsi, %rsi
	movq	%r14, %rdi
	callq	retrieve
	movq	%rbx, %rsi
	movq	%r15, %rcx
	movq	%rax, %r15
	andq	%rsi, %rcx
	cmpq	$6, %rcx
	je	.LBB50_206
# BB#201:                               # %if.end640
	cmpq	$5, %rcx
	jne	.LBB50_202
# BB#205:                               # %sw.bb644
	movq	$10, %rsi
	movq	%r13, %rdi
	callq	Perl_sv_upgrade
	movq	(%r13), %rax
	movzbl	72(%rax), %ecx
	andq	$254, %rcx
	movb	%cl, 72(%rax)
	jmp	.LBB50_208
.LBB50_206:                             # %sw.bb650
	movq	$11, %rsi
	jmp	.LBB50_204
.LBB50_202:                             # %if.end640
	cmpq	$4, %rcx
	jne	.LBB50_207
# BB#203:                               # %sw.bb642
	movq	$7, %rsi
.LBB50_204:                             # %sw.epilog654
	movq	%r13, %rdi
	callq	Perl_sv_upgrade
	jmp	.LBB50_208
.LBB50_207:                             # %sw.default652
	movq	$1, %rax
	movl	%eax, 112(%r14)
	movabsq	$.L.str63, %rdi
	xorq	%rax, %rax
	callq	Perl_croak
.LBB50_208:                             # %sw.epilog654
	xorq	%rcx, %rcx
	xorq	%r8, %r8
	movq	%r13, %rdi
	movq	%r15, %rsi
	movq	%r12, %rdx
	callq	Perl_sv_magic
	movq	%r15, %rdi
	callq	Perl_sv_free
.LBB50_209:                             # %cleanup
	movq	%r13, %r12
	jmp	.LBB50_210
.LBB50_211:                             # %if.else573
	movq	$1, %rax
	movl	%eax, 112(%r14)
	movabsq	$.L.str36, %rdx
	xorq	%rax, %rax
	movq	%rdx, %rdi
	movq	%rcx, %rsi
	callq	Perl_croak
.Ltmp597:
	.size	retrieve_hook, .Ltmp597-retrieve_hook
	.cfi_endproc
	.section	.rodata,"a",@progbits
	.align	8
.LJTI50_0:
	.quad	.LBB50_39
	.quad	.LBB50_6
	.quad	.LBB50_8
	.quad	.LBB50_9

	.text
	.align	16, 0x90
	.type	retrieve_overloaded,@function
retrieve_overloaded:                    # @retrieve_overloaded
	.cfi_startproc
# BB#0:                                 # %entry
	pushq	%r15
.Ltmp604:
	.cfi_def_cfa_offset 16
	pushq	%r14
.Ltmp605:
	.cfi_def_cfa_offset 24
	pushq	%r13
.Ltmp606:
	.cfi_def_cfa_offset 32
	pushq	%r12
.Ltmp607:
	.cfi_def_cfa_offset 40
	pushq	%rbx
.Ltmp608:
	.cfi_def_cfa_offset 48
	subq	$16, %rsp
.Ltmp609:
	.cfi_def_cfa_offset 64
.Ltmp610:
	.cfi_offset %rbx, -48
.Ltmp611:
	.cfi_offset %r12, -40
.Ltmp612:
	.cfi_offset %r13, -32
.Ltmp613:
	.cfi_offset %r14, -24
.Ltmp614:
	.cfi_offset %r15, -16
	movq	%rsi, %r15
	movq	%rdi, %r14
	xorq	%rdi, %rdi
	xorq	%rbx, %rbx
	callq	Perl_newSV
	movq	%rax, %r13
	testq	%r13, %r13
	je	.LBB51_14
# BB#1:                                 # %if.end
	movq	64(%r14), %rsi
	movq	24(%r14), %rdi
	leaq	1(%rsi), %rax
	movq	%rax, 64(%r14)
	movq	%r13, PL_Sv(%rip)
	incq	8(%r13)
	movq	%r13, %rdx
	callq	Perl_av_store
	testq	%rax, %rax
	je	.LBB51_14
# BB#2:                                 # %if.end6
	testq	%r15, %r15
	je	.LBB51_4
# BB#3:                                 # %if.then8
	movq	$1, %rsi
	movq	%r15, %rdi
	callq	Perl_gv_stashpv
	movq	%rax, %r15
	movq	%r13, %rdi
	callq	Perl_newRV_noinc
	movq	%rax, %rbx
	movq	%rbx, %rdi
	movq	%r15, %rsi
	callq	Perl_sv_bless
	movq	(%rbx), %rax
	movq	$0, (%rax)
	movq	%rbx, %rdi
	callq	Perl_sv_free
.LBB51_4:                               # %if.end13
	xorq	%rsi, %rsi
	xorq	%rbx, %rbx
	movq	%r14, %rdi
	callq	retrieve
	movq	%rax, %r15
	testq	%r15, %r15
	je	.LBB51_14
# BB#5:                                 # %if.end17
	movq	$3, %rsi
	movq	%r13, %rdi
	callq	Perl_sv_upgrade
	movq	(%r13), %rax
	movq	%r15, (%rax)
	orq	$524288, 16(%r13)       # imm = 0x80000
	movzbl	16(%r15), %eax
	testq	%rax, %rax
	je	.LBB51_7
# BB#6:                                 # %cond.end
	movq	(%r15), %rax
	movq	48(%rax), %r12
	testq	%r12, %r12
	jne	.LBB51_8
.LBB51_7:                               # %if.then25
	movq	$1, %rax
	movl	%eax, 112(%r14)
	xorq	%rsi, %rsi
	xorq	%r12, %r12
	movq	%r15, %rdi
	callq	Perl_sv_reftype
	movq	%rax, %rcx
	movabsq	$.L.str57, %rdi
	xorq	%rax, %rax
	movq	%rcx, %rsi
	movq	%r15, %rdx
	callq	Perl_croak
.LBB51_8:                               # %if.end27
	cmpq	$0, PL_amagic_generation(%rip)
	je	.LBB51_10
# BB#9:                                 # %land.lhs.true
	movq	%r12, %rdi
	callq	Perl_Gv_AMupdate
	testq	$255, %rax
	jne	.LBB51_13
.LBB51_10:                              # %if.then31
	movabsq	$.L.str58, %rdi
	movq	$8, %rsi
	callq	Perl_newSVpvn
	movq	(%r12), %rcx
	movq	80(%rcx), %rsi
	movq	%rsi, 8(%rsp)           # 8-byte Spill
	movq	%rax, %rbx
	movq	%rbx, %rdi
	callq	Perl_sv_catpv
	movq	$2, %rsi
	movq	%rbx, %rdi
	callq	Perl_eval_sv
	movq	%rbx, %rdi
	callq	Perl_sv_free
	cmpq	$0, PL_amagic_generation(%rip)
	je	.LBB51_12
# BB#11:                                # %land.lhs.true36
	movq	%r12, %rdi
	callq	Perl_Gv_AMupdate
	testq	$255, %rax
	jne	.LBB51_13
.LBB51_12:                              # %if.then40
	movq	$1, %rax
	movl	%eax, 112(%r14)
	xorq	%rsi, %rsi
	movq	%r15, %rdi
	callq	Perl_sv_reftype
	movq	%rax, %rcx
	movabsq	$.L.str59, %rdi
	xorq	%rax, %rax
	movq	%rcx, %rsi
	movq	%r15, %rdx
	movq	8(%rsp), %rcx           # 8-byte Reload
	movq	%rcx, %r8
	callq	Perl_croak
.LBB51_13:                              # %if.end44
	orq	$268435456, 16(%r13)    # imm = 0x10000000
	movq	%r13, %rbx
.LBB51_14:                              # %return
	movq	%rbx, %rax
	addq	$16, %rsp
	popq	%rbx
	popq	%r12
	popq	%r13
	popq	%r14
	popq	%r15
	retq
.Ltmp615:
	.size	retrieve_overloaded, .Ltmp615-retrieve_overloaded
	.cfi_endproc

	.align	16, 0x90
	.type	retrieve_tied_key,@function
retrieve_tied_key:                      # @retrieve_tied_key
	.cfi_startproc
# BB#0:                                 # %entry
	pushq	%r15
.Ltmp621:
	.cfi_def_cfa_offset 16
	pushq	%r14
.Ltmp622:
	.cfi_def_cfa_offset 24
	pushq	%r12
.Ltmp623:
	.cfi_def_cfa_offset 32
	pushq	%rbx
.Ltmp624:
	.cfi_def_cfa_offset 40
	pushq	%rax
.Ltmp625:
	.cfi_def_cfa_offset 48
.Ltmp626:
	.cfi_offset %rbx, -40
.Ltmp627:
	.cfi_offset %r12, -32
.Ltmp628:
	.cfi_offset %r14, -24
.Ltmp629:
	.cfi_offset %r15, -16
	movq	%rsi, %r12
	movq	%rdi, %r14
	xorq	%rdi, %rdi
	xorq	%rbx, %rbx
	callq	Perl_newSV
	movq	%rax, %r15
	testq	%r15, %r15
	je	.LBB52_7
# BB#1:                                 # %if.end
	movq	64(%r14), %rsi
	movq	24(%r14), %rdi
	leaq	1(%rsi), %rax
	movq	%rax, 64(%r14)
	movq	%r15, PL_Sv(%rip)
	incq	8(%r15)
	movq	%r15, %rdx
	callq	Perl_av_store
	testq	%rax, %rax
	je	.LBB52_7
# BB#2:                                 # %if.end6
	testq	%r12, %r12
	je	.LBB52_4
# BB#3:                                 # %if.then8
	movq	$1, %rsi
	movq	%r12, %rdi
	callq	Perl_gv_stashpv
	movq	%rax, %r12
	movq	%r15, %rdi
	callq	Perl_newRV_noinc
	movq	%rax, %rbx
	movq	%rbx, %rdi
	movq	%r12, %rsi
	callq	Perl_sv_bless
	movq	(%rbx), %rax
	movq	$0, (%rax)
	movq	%rbx, %rdi
	callq	Perl_sv_free
.LBB52_4:                               # %if.end12
	xorq	%rsi, %rsi
	xorq	%rbx, %rbx
	movq	%r14, %rdi
	callq	retrieve
	movq	%rax, %r12
	testq	%r12, %r12
	je	.LBB52_7
# BB#5:                                 # %if.end16
	xorq	%rsi, %rsi
	xorq	%rbx, %rbx
	movq	%r14, %rdi
	callq	retrieve
	movq	%rax, %r14
	testq	%r14, %r14
	je	.LBB52_7
# BB#6:                                 # %if.end20
	movq	$7, %rsi
	movq	%r15, %rdi
	callq	Perl_sv_upgrade
	movq	$112, %rdx
	movq	$-2, %r8
	movq	%r15, %rdi
	movq	%r12, %rsi
	movq	%r14, %rcx
	callq	Perl_sv_magic
	movq	%r14, %rdi
	callq	Perl_sv_free
	movq	%r12, %rdi
	callq	Perl_sv_free
	movq	%r15, %rbx
.LBB52_7:                               # %return
	movq	%rbx, %rax
	addq	$8, %rsp
	popq	%rbx
	popq	%r12
	popq	%r14
	popq	%r15
	retq
.Ltmp630:
	.size	retrieve_tied_key, .Ltmp630-retrieve_tied_key
	.cfi_endproc

	.align	16, 0x90
	.type	retrieve_tied_idx,@function
retrieve_tied_idx:                      # @retrieve_tied_idx
	.cfi_startproc
# BB#0:                                 # %entry
	pushq	%r15
.Ltmp637:
	.cfi_def_cfa_offset 16
	pushq	%r14
.Ltmp638:
	.cfi_def_cfa_offset 24
	pushq	%r13
.Ltmp639:
	.cfi_def_cfa_offset 32
	pushq	%r12
.Ltmp640:
	.cfi_def_cfa_offset 40
	pushq	%rbx
.Ltmp641:
	.cfi_def_cfa_offset 48
	subq	$16, %rsp
.Ltmp642:
	.cfi_def_cfa_offset 64
.Ltmp643:
	.cfi_offset %rbx, -48
.Ltmp644:
	.cfi_offset %r12, -40
.Ltmp645:
	.cfi_offset %r13, -32
.Ltmp646:
	.cfi_offset %r14, -24
.Ltmp647:
	.cfi_offset %r15, -16
	movq	%rsi, %r15
	movq	%rdi, %r13
	xorq	%rdi, %rdi
	xorq	%r12, %r12
	callq	Perl_newSV
	movq	%rax, %r14
	testq	%r14, %r14
	je	.LBB53_14
# BB#1:                                 # %if.end
	movq	64(%r13), %rsi
	movq	24(%r13), %rdi
	leaq	1(%rsi), %rax
	movq	%rax, 64(%r13)
	movq	%r14, PL_Sv(%rip)
	incq	8(%r14)
	movq	%r14, %rdx
	callq	Perl_av_store
	testq	%rax, %rax
	je	.LBB53_14
# BB#2:                                 # %if.end6
	testq	%r15, %r15
	je	.LBB53_4
# BB#3:                                 # %if.then8
	movq	$1, %rsi
	movq	%r15, %rdi
	callq	Perl_gv_stashpv
	movq	%rax, %r15
	movq	%r14, %rdi
	callq	Perl_newRV_noinc
	movq	%rax, %rbx
	movq	%rbx, %rdi
	movq	%r15, %rsi
	callq	Perl_sv_bless
	movq	(%rbx), %rax
	movq	$0, (%rax)
	movq	%rbx, %rdi
	callq	Perl_sv_free
.LBB53_4:                               # %if.end12
	xorq	%rsi, %rsi
	xorq	%r12, %r12
	movq	%r13, %rdi
	callq	retrieve
	movq	%rax, %r15
	testq	%r15, %r15
	je	.LBB53_14
# BB#5:                                 # %if.end16
	movq	216(%r13), %rdi
	testq	%rdi, %rdi
	je	.LBB53_6
# BB#10:                                # %if.else38
	leaq	8(%rsp), %rsi
	movq	$8, %rdx
	callq	Perl_PerlIO_read
	cmpq	$8, %rax
	jne	.LBB53_14
	jmp	.LBB53_11
.LBB53_6:                               # %if.then18
	movq	168(%r13), %rcx
	movq	176(%r13), %rdx
	leaq	4(%rcx), %rax
	cmpq	%rdx, %rax
	ja	.LBB53_14
# BB#7:                                 # %if.then21
	movq	%rcx, %rdx
	andq	$-4, %rdx
	cmpq	%rdx, %rcx
	jne	.LBB53_9
# BB#8:                                 # %if.then27
	movslq	(%rcx), %rcx
	movq	%rcx, 8(%rsp)
	movq	%rax, 168(%r13)
	jmp	.LBB53_11
.LBB53_9:                               # %if.else
	movl	(%rcx), %ecx
	movl	%ecx, 8(%rsp)
	movq	%rax, 168(%r13)
.LBB53_11:                              # %if.end45
	movl	80(%r13), %eax
	testq	%rax, %rax
	je	.LBB53_13
# BB#12:                                # %if.then47
	movq	8(%rsp), %rdi
	callq	Perl_my_ntohl
	movq	$32, %rcx
	shlq	%cl, %rax
	movq	$32, %rcx
	sarq	%cl, %rax
	movq	%rax, 8(%rsp)
.LBB53_13:                              # %if.end51
	movq	$7, %rsi
	movq	%r14, %rdi
	callq	Perl_sv_upgrade
	movq	8(%rsp), %r8
	movq	$112, %rdx
	xorq	%rcx, %rcx
	movq	%r14, %rdi
	movq	%r15, %rsi
	callq	Perl_sv_magic
	movq	%r15, %rdi
	callq	Perl_sv_free
	movq	%r14, %r12
.LBB53_14:                              # %return
	movq	%r12, %rax
	addq	$16, %rsp
	popq	%rbx
	popq	%r12
	popq	%r13
	popq	%r14
	popq	%r15
	retq
.Ltmp648:
	.size	retrieve_tied_idx, .Ltmp648-retrieve_tied_idx
	.cfi_endproc

	.align	16, 0x90
	.type	retrieve_utf8str,@function
retrieve_utf8str:                       # @retrieve_utf8str
	.cfi_startproc
# BB#0:                                 # %entry
	pushq	%rax
.Ltmp650:
	.cfi_def_cfa_offset 16
	callq	retrieve_scalar
	testq	%rax, %rax
	je	.LBB54_2
# BB#1:                                 # %if.then
	orq	$536870912, 16(%rax)    # imm = 0x20000000
.LBB54_2:                               # %if.end
	popq	%rdx
	retq
.Ltmp651:
	.size	retrieve_utf8str, .Ltmp651-retrieve_utf8str
	.cfi_endproc

	.align	16, 0x90
	.type	retrieve_lutf8str,@function
retrieve_lutf8str:                      # @retrieve_lutf8str
	.cfi_startproc
# BB#0:                                 # %entry
	pushq	%rax
.Ltmp653:
	.cfi_def_cfa_offset 16
	callq	retrieve_lscalar
	testq	%rax, %rax
	je	.LBB55_2
# BB#1:                                 # %if.then
	orq	$536870912, 16(%rax)    # imm = 0x20000000
.LBB55_2:                               # %if.end
	popq	%rdx
	retq
.Ltmp654:
	.size	retrieve_lutf8str, .Ltmp654-retrieve_lutf8str
	.cfi_endproc

	.align	16, 0x90
	.type	retrieve_flag_hash,@function
retrieve_flag_hash:                     # @retrieve_flag_hash
	.cfi_startproc
# BB#0:                                 # %entry
	pushq	%r15
.Ltmp661:
	.cfi_def_cfa_offset 16
	pushq	%r14
.Ltmp662:
	.cfi_def_cfa_offset 24
	pushq	%r13
.Ltmp663:
	.cfi_def_cfa_offset 32
	pushq	%r12
.Ltmp664:
	.cfi_def_cfa_offset 40
	pushq	%rbx
.Ltmp665:
	.cfi_def_cfa_offset 48
	subq	$48, %rsp
.Ltmp666:
	.cfi_def_cfa_offset 96
.Ltmp667:
	.cfi_offset %rbx, -48
.Ltmp668:
	.cfi_offset %r12, -40
.Ltmp669:
	.cfi_offset %r13, -32
.Ltmp670:
	.cfi_offset %r14, -24
.Ltmp671:
	.cfi_offset %r15, -16
	movq	%rdi, %rbx
	movq	216(%rbx), %rdi
	movq	%rsi, %r12
	testq	%rdi, %rdi
	je	.LBB56_1
# BB#3:                                 # %if.else5
	callq	PerlIO_getc
	movabsq	$4294967295, %rdx       # imm = 0xFFFFFFFF
	movq	%rax, %rcx
	andq	%rdx, %rcx
	xorq	%r14, %r14
	cmpq	%rdx, %rcx
	je	.LBB56_56
# BB#4:                                 # %if.end11
	movq	216(%rbx), %rdi
	testq	%rdi, %rdi
	je	.LBB56_5
# BB#9:                                 # %if.else41
	movq	%rax, 24(%rsp)          # 8-byte Spill
	leaq	40(%rsp), %rsi
	movq	$8, %rdx
	callq	Perl_PerlIO_read
	cmpq	$8, %rax
	jne	.LBB56_56
	jmp	.LBB56_10
.LBB56_1:                               # %if.then
	movq	168(%rbx), %rax
	movq	176(%rbx), %rcx
	xorq	%r14, %r14
	cmpq	%rcx, %rax
	jae	.LBB56_56
# BB#2:                                 # %if.end11.thread
	leaq	1(%rax), %rcx
	movq	%rcx, 168(%rbx)
	movzbl	(%rax), %eax
.LBB56_5:
	movq	%rax, 24(%rsp)          # 8-byte Spill
	movq	168(%rbx), %rcx
	movq	176(%rbx), %rdx
	leaq	4(%rcx), %rax
	xorq	%r14, %r14
	cmpq	%rdx, %rax
	ja	.LBB56_56
# BB#6:                                 # %if.then21
	movq	%rcx, %rdx
	andq	$-4, %rdx
	cmpq	%rdx, %rcx
	jne	.LBB56_8
# BB#7:                                 # %if.then28
	movslq	(%rcx), %rcx
	movq	%rcx, 40(%rsp)
	movq	%rax, 168(%rbx)
	jmp	.LBB56_10
.LBB56_8:                               # %if.else32
	movl	(%rcx), %ecx
	movl	%ecx, 40(%rsp)
	movq	%rax, 168(%rbx)
.LBB56_10:                              # %if.end48
	movl	80(%rbx), %eax
	testq	%rax, %rax
	je	.LBB56_12
# BB#11:                                # %if.then50
	movq	40(%rsp), %rdi
	callq	Perl_my_ntohl
	movq	$32, %rcx
	shlq	%cl, %rax
	movq	$32, %rcx
	sarq	%cl, %rax
	movq	%rax, 40(%rsp)
.LBB56_12:                              # %if.end54
	callq	Perl_newHV
	xorq	%r14, %r14
	testq	%rax, %rax
	je	.LBB56_56
# BB#13:                                # %if.end58
	movq	64(%rbx), %rsi
	movq	24(%rbx), %rdi
	leaq	1(%rsi), %rcx
	movq	%rcx, 64(%rbx)
	movq	%rax, PL_Sv(%rip)
	incq	8(%rax)
	movq	%rax, %rdx
	movq	%rax, %r15
	callq	Perl_av_store
	testq	%rax, %rax
	je	.LBB56_56
# BB#14:                                # %if.end66
	testq	%r12, %r12
	je	.LBB56_16
# BB#15:                                # %if.then68
	movq	$1, %rsi
	movq	%r12, %rdi
	callq	Perl_gv_stashpv
	movq	%rax, %r14
	movq	%r15, %rdi
	callq	Perl_newRV_noinc
	movq	%rax, %r12
	movq	%r12, %rdi
	movq	%r14, %rsi
	callq	Perl_sv_bless
	movq	(%r12), %rax
	movq	$0, (%rax)
	movq	%r12, %rdi
	callq	Perl_sv_free
.LBB56_16:                              # %if.end72
	movq	40(%rsp), %rsi
	testq	%rsi, %rsi
	movq	%r15, %r14
	je	.LBB56_56
# BB#17:                                # %if.end76
	movq	%r15, %rdi
	callq	Perl_hv_ksplit
	cmpq	$0, 40(%rsp)
	jle	.LBB56_18
# BB#19:                                # %for.body.lr.ph
	movq	%r15, 16(%rsp)          # 8-byte Spill
	andq	$1, 24(%rsp)            # 8-byte Folded Spill
	xorq	%r15, %r15
	.align	16, 0x90
.LBB56_20:                              # %for.body
                                        # =>This Inner Loop Header: Depth=1
	xorq	%rsi, %rsi
	movq	%rbx, %rdi
	callq	retrieve
	movq	%rax, %r13
	testq	%r13, %r13
	je	.LBB56_21
# BB#22:                                # %if.end82
                                        #   in Loop: Header=BB56_20 Depth=1
	movq	216(%rbx), %rdi
	testq	%rdi, %rdi
	jne	.LBB56_25
# BB#23:                                # %if.then85
                                        #   in Loop: Header=BB56_20 Depth=1
	movq	168(%rbx), %rax
	movq	176(%rbx), %rcx
	cmpq	%rcx, %rax
	jae	.LBB56_24
# BB#27:                                # %if.then92
                                        #   in Loop: Header=BB56_20 Depth=1
	leaq	1(%rax), %rcx
	movq	%rcx, 168(%rbx)
	movzbl	(%rax), %r12d
	jmp	.LBB56_28
.LBB56_25:                              # %if.else99
                                        #   in Loop: Header=BB56_20 Depth=1
	callq	PerlIO_getc
	movq	%rax, %r12
                                        # kill: RAX<def> R12<kill>
	movabsq	$4294967295, %rcx       # imm = 0xFFFFFFFF
	andq	%rcx, %rax
	cmpq	%rcx, %rax
	je	.LBB56_26
.LBB56_28:                              # %if.end106
                                        #   in Loop: Header=BB56_20 Depth=1
	cmpq	$0, 24(%rsp)            # 8-byte Folded Reload
	je	.LBB56_31
# BB#29:                                # %if.end106
                                        #   in Loop: Header=BB56_20 Depth=1
	movq	%r12, %rax
	andq	$4, %rax
	movabsq	$4294967295, %rcx       # imm = 0xFFFFFFFF
	testq	%rcx, %rax
	je	.LBB56_31
# BB#30:                                # %if.then111
                                        #   in Loop: Header=BB56_20 Depth=1
	orq	$8388608, 16(%r13)      # imm = 0x800000
.LBB56_31:                              # %if.end112
                                        #   in Loop: Header=BB56_20 Depth=1
	testq	$8, %r12
	jne	.LBB56_32
# BB#34:                                # %if.else124
                                        #   in Loop: Header=BB56_20 Depth=1
	xorq	%rax, %rax
	testq	$16, %r12
	je	.LBB56_36
# BB#35:                                # %if.then127
                                        #   in Loop: Header=BB56_20 Depth=1
	movq	%r13, %rdi
	callq	Perl_sv_free
	movq	$512, %rax              # imm = 0x200
	movabsq	$PL_sv_placeholder, %r13
.LBB56_36:                              # %if.end129
                                        #   in Loop: Header=BB56_20 Depth=1
	movq	216(%rbx), %rdi
	andq	$3, %r12
	orq	%rax, %r12
	testq	%rdi, %rdi
	jne	.LBB56_41
# BB#37:                                # %if.then142
                                        #   in Loop: Header=BB56_20 Depth=1
	movq	168(%rbx), %rcx
	movq	176(%rbx), %rdx
	leaq	4(%rcx), %rax
	xorq	%r14, %r14
	cmpq	%rdx, %rax
	ja	.LBB56_56
# BB#38:                                # %if.then150
                                        #   in Loop: Header=BB56_20 Depth=1
	movq	%rcx, %rdx
	andq	$-4, %rdx
	cmpq	%rdx, %rcx
	jne	.LBB56_40
# BB#39:                                # %if.then158
                                        #   in Loop: Header=BB56_20 Depth=1
	movslq	(%rcx), %rcx
	movq	%rcx, 32(%rsp)
	movq	%rax, 168(%rbx)
	jmp	.LBB56_42
.LBB56_32:                              # %if.then115
                                        #   in Loop: Header=BB56_20 Depth=1
	xorq	%rsi, %rsi
	xorq	%r14, %r14
	movq	%rbx, %rdi
	callq	retrieve
	testq	%rax, %rax
	je	.LBB56_56
# BB#33:                                # %if.end119
                                        #   in Loop: Header=BB56_20 Depth=1
	xorq	%rcx, %rcx
	xorq	%r14, %r14
	movq	16(%rsp), %rdi          # 8-byte Reload
	movq	%rax, %rsi
	movq	%r13, %rdx
	callq	Perl_hv_store_ent
	testq	%rax, %rax
	jne	.LBB56_52
	jmp	.LBB56_56
.LBB56_41:                              # %if.else171
                                        #   in Loop: Header=BB56_20 Depth=1
	movq	$8, %rdx
	leaq	32(%rsp), %rsi
	callq	Perl_PerlIO_read
	xorq	%r14, %r14
	cmpq	$8, %rax
	je	.LBB56_42
	jmp	.LBB56_56
.LBB56_40:                              # %if.else162
                                        #   in Loop: Header=BB56_20 Depth=1
	movl	(%rcx), %ecx
	movl	%ecx, 32(%rsp)
	movq	%rax, 168(%rbx)
.LBB56_42:                              # %if.end178
                                        #   in Loop: Header=BB56_20 Depth=1
	movl	80(%rbx), %ecx
	movq	32(%rsp), %rax
	testq	%rcx, %rcx
	je	.LBB56_44
# BB#43:                                # %if.then181
                                        #   in Loop: Header=BB56_20 Depth=1
	movq	%rax, %rdi
	callq	Perl_my_ntohl
	movq	$32, %rcx
	shlq	%cl, %rax
	movq	$32, %rcx
	sarq	%cl, %rax
	movq	%rax, 32(%rsp)
.LBB56_44:                              # %if.end185
                                        #   in Loop: Header=BB56_20 Depth=1
	movq	128(%rbx), %rcx
	cmpq	%rcx, %rax
	jb	.LBB56_46
# BB#45:                                # %if.then188
                                        #   in Loop: Header=BB56_20 Depth=1
	movq	120(%rbx), %rdi
	incq	%rax
	movq	%rax, %rsi
	callq	Perl_safesysrealloc
	movq	%rax, 120(%rbx)
	movq	32(%rsp), %rax
	leaq	1(%rax), %rcx
	movq	%rcx, 128(%rbx)
.LBB56_46:                              # %if.end196
                                        #   in Loop: Header=BB56_20 Depth=1
	xorq	%rdx, %rdx
	testq	%rax, %rax
	movabsq	$0, %rcx
	je	.LBB56_51
# BB#47:                                # %if.then198
                                        #   in Loop: Header=BB56_20 Depth=1
	movq	216(%rbx), %rdi
	testq	%rdi, %rdi
	jne	.LBB56_50
# BB#48:                                # %if.then201
                                        #   in Loop: Header=BB56_20 Depth=1
	movq	168(%rbx), %rsi
	movq	176(%rbx), %rcx
	leaq	(%rsi,%rax), %rdx
	xorq	%r14, %r14
	cmpq	%rcx, %rdx
	ja	.LBB56_56
# BB#49:                                # %if.then209
                                        #   in Loop: Header=BB56_20 Depth=1
	movq	120(%rbx), %rdi
	movq	%rax, %rdx
	callq	memcpy
	xorq	%rdx, %rdx
	movq	32(%rsp), %rcx
	addq	%rcx, 168(%rbx)
	jmp	.LBB56_51
.LBB56_50:                              # %if.else219
                                        #   in Loop: Header=BB56_20 Depth=1
	movq	120(%rbx), %rsi
	movq	%rax, %rdx
	callq	Perl_PerlIO_read
	movq	32(%rsp), %rdx
	movq	%rax, %rcx
	xorq	%r14, %r14
	cmpq	%rdx, %rcx
	movabsq	$0, %rdx
	jne	.LBB56_56
.LBB56_51:                              # %if.end229
                                        #   in Loop: Header=BB56_20 Depth=1
	movq	120(%rbx), %rax
	movb	%dl, (%rax,%rcx)
	movq	120(%rbx), %rsi
	movq	32(%rsp), %rdx
	xorq	%r8, %r8
	movq	16(%rsp), %rdi          # 8-byte Reload
	movq	%r13, %rcx
	movq	%r12, %r9
	callq	Perl_hv_store_flags
	testq	%rax, %rax
	movabsq	$0, %r14
	je	.LBB56_56
.LBB56_52:                              # %for.inc
                                        #   in Loop: Header=BB56_20 Depth=1
	movq	40(%rsp), %rax
	incq	%r15
	cmpq	%rax, %r15
	jl	.LBB56_20
# BB#53:
	movq	24(%rsp), %rax          # 8-byte Reload
	movq	16(%rsp), %r15          # 8-byte Reload
	jmp	.LBB56_54
.LBB56_18:                              # %if.end76.for.end_crit_edge
	movq	24(%rsp), %rax          # 8-byte Reload
	andq	$1, %rax
.LBB56_54:                              # %for.end
	testq	%rax, %rax
	movq	%r15, %r14
	je	.LBB56_56
# BB#55:                                # %if.then243
	orq	$8388608, 16(%r15)      # imm = 0x800000
	movq	%r15, %r14
	jmp	.LBB56_56
.LBB56_21:
	xorq	%r14, %r14
	jmp	.LBB56_56
.LBB56_24:
	xorq	%r14, %r14
	jmp	.LBB56_56
.LBB56_26:
	xorq	%r14, %r14
.LBB56_56:                              # %return
	movq	%r14, %rax
	addq	$48, %rsp
	popq	%rbx
	popq	%r12
	popq	%r13
	popq	%r14
	popq	%r15
	retq
.Ltmp672:
	.size	retrieve_flag_hash, .Ltmp672-retrieve_flag_hash
	.cfi_endproc

	.align	16, 0x90
	.type	retrieve_code,@function
retrieve_code:                          # @retrieve_code
	.cfi_startproc
# BB#0:                                 # %entry
	pushq	%r15
.Ltmp679:
	.cfi_def_cfa_offset 16
	pushq	%r14
.Ltmp680:
	.cfi_def_cfa_offset 24
	pushq	%r13
.Ltmp681:
	.cfi_def_cfa_offset 32
	pushq	%r12
.Ltmp682:
	.cfi_def_cfa_offset 40
	pushq	%rbx
.Ltmp683:
	.cfi_def_cfa_offset 48
	subq	$48, %rsp
.Ltmp684:
	.cfi_def_cfa_offset 96
.Ltmp685:
	.cfi_offset %rbx, -48
.Ltmp686:
	.cfi_offset %r12, -40
.Ltmp687:
	.cfi_offset %r13, -32
.Ltmp688:
	.cfi_offset %r14, -24
.Ltmp689:
	.cfi_offset %r15, -16
	movq	%rdi, %r15
	movq	PL_stack_sp(%rip), %r13
	movq	64(%r15), %r14
	movq	%rsi, %r12
	xorq	%rdi, %rdi
	callq	Perl_newSViv
	movq	%rax, %rbx
	testq	%rbx, %rbx
	je	.LBB57_1
# BB#2:                                 # %if.end
	movq	%r13, 40(%rsp)          # 8-byte Spill
	movq	64(%r15), %rsi
	movq	24(%r15), %rdi
	leaq	1(%rsi), %rax
	movq	%rax, 64(%r15)
	movq	%rbx, PL_Sv(%rip)
	incq	8(%rbx)
	movq	%rbx, %rdx
	callq	Perl_av_store
	testq	%rax, %rax
	je	.LBB57_3
# BB#4:                                 # %if.end9
	movq	%r14, 32(%rsp)          # 8-byte Spill
	movq	%r12, %r14
	testq	%r14, %r14
	je	.LBB57_6
# BB#5:                                 # %if.then11
	movq	$1, %rsi
	movq	%r14, %rdi
	callq	Perl_gv_stashpv
	movq	%r14, %r12
	movq	%rax, %r14
	movq	%rbx, %rdi
	callq	Perl_newRV_noinc
	movq	%r15, %r13
	movq	%rax, %r15
	movq	%r15, %rdi
	movq	%r14, %rsi
	movq	%r12, %r14
	callq	Perl_sv_bless
	movq	(%r15), %rax
	movq	$0, (%rax)
	movq	%r15, %rdi
	movq	%r13, %r15
	callq	Perl_sv_free
.LBB57_6:                               # %if.end15
	movq	216(%r15), %rdi
	testq	%rdi, %rdi
	movabsq	$0, %r12
	je	.LBB57_7
# BB#9:                                 # %if.else26
	callq	PerlIO_getc
	movq	%rax, %rcx
	movabsq	$4294967295, %rax       # imm = 0xFFFFFFFF
	movq	%rcx, %rdx
	andq	%rax, %rdx
	cmpq	%rax, %rdx
	jne	.LBB57_10
	jmp	.LBB57_105
.LBB57_1:
	xorq	%r12, %r12
	jmp	.LBB57_105
.LBB57_3:
	xorq	%r12, %r12
	jmp	.LBB57_105
.LBB57_7:                               # %if.then17
	movq	168(%r15), %rax
	movq	176(%r15), %rcx
	cmpq	%rcx, %rax
	jae	.LBB57_105
# BB#8:                                 # %if.then21
	leaq	1(%rax), %rcx
	movq	%rcx, 168(%r15)
	movzbl	(%rax), %ecx
.LBB57_10:                              # %if.end33
	movq	%rbx, 24(%rsp)          # 8-byte Spill
	movabsq	$4294967295, %r12       # imm = 0xFFFFFFFF
	movq	%rcx, %rax
	andq	%r12, %rax
	cmpq	$1, %rax
	jne	.LBB57_11
# BB#13:                                # %sw.bb35
	movq	%r15, %rdi
	movq	%r14, %rsi
	callq	retrieve_lscalar
	movq	%rax, %rbx
	jmp	.LBB57_15
.LBB57_11:                              # %if.end33
	cmpq	$10, %rax
	jne	.LBB57_14
# BB#12:                                # %sw.bb
	movq	%r15, %rdi
	movq	%r14, %rsi
	callq	retrieve_scalar
	movq	%rax, %rbx
	jmp	.LBB57_15
.LBB57_14:                              # %sw.default
	movq	$1, %rax
	movl	%eax, 112(%r15)
	movabsq	$.L.str48, %rdi
	xorq	%rax, %rax
	movq	%rcx, %rsi
	callq	Perl_croak
                                        # implicit-def: RBX
.LBB57_15:                              # %sw.epilog
	movabsq	$.L.str49, %rdi
	movq	$4, %rsi
	callq	Perl_newSVpvn
	movzbl	18(%rbx), %ecx
	movq	%rax, %r13
	testq	$4, %rcx
	je	.LBB57_17
# BB#16:                                # %cond.true
	movq	(%rbx), %rax
	movq	(%rax), %rsi
	jmp	.LBB57_18
.LBB57_17:                              # %cond.false
	movq	%rbx, %rdi
	callq	Perl_sv_2pv_nolen
	movq	%rax, %rsi
.LBB57_18:                              # %cond.end
	movq	%r13, %rdi
	callq	Perl_sv_catpv
	movq	%rbx, %rdi
	callq	Perl_sv_free
	movq	96(%r15), %rdi
	testq	%rdi, %rdi
	jne	.LBB57_22
# BB#19:                                # %if.then44
	movabsq	$.L.str50, %rdi
	movq	$1, %rsi
	callq	Perl_get_sv
	testq	%rax, %rax
	movq	%rax, 96(%r15)
	movq	%rax, PL_Sv(%rip)
	je	.LBB57_21
# BB#20:                                # %land.rhs49
	incq	8(%rax)
.LBB57_21:                              # %if.end55
	movq	96(%r15), %rdi
	testq	%rdi, %rdi
	je	.LBB57_46
.LBB57_22:                              # %cond.false59
	movq	16(%rdi), %rax
	testq	$262144, %rax           # imm = 0x40000
	je	.LBB57_41
# BB#23:                                # %cond.true64
	movq	(%rdi), %rax
	testq	%rax, %rax
	movq	%rax, PL_Xpv(%rip)
	je	.LBB57_46
# BB#24:                                # %land.lhs.true
	movq	8(%rax), %rcx
	cmpq	$1, %rcx
	ja	.LBB57_27
# BB#25:                                # %lor.lhs.false
	testq	%rcx, %rcx
	je	.LBB57_46
# BB#26:                                # %land.lhs.true72
	movq	(%rax), %rax
	movzbl	(%rax), %eax
	cmpq	$48, %rax
	je	.LBB57_46
	jmp	.LBB57_27
.LBB57_41:                              # %cond.false79
	testq	$65536, %rax            # imm = 0x10000
	je	.LBB57_43
# BB#42:                                # %cond.true84
	movq	(%rdi), %rax
	cmpq	$0, 24(%rax)
	jne	.LBB57_27
	jmp	.LBB57_46
.LBB57_43:                              # %cond.false89
	testq	$131072, %rax           # imm = 0x20000
	je	.LBB57_45
# BB#44:                                # %cond.true94
	movq	(%rdi), %rax
	movq	32(%rax), %rdi
	xorq	%rsi, %rsi
	callq	__nedf2
	testq	%rax, %rax
	jne	.LBB57_27
	jmp	.LBB57_46
.LBB57_45:                              # %cond.false99
	callq	Perl_sv_2bool
	testq	$255, %rax
	jne	.LBB57_27
.LBB57_46:                              # %if.then104
	movl	88(%r15), %eax
	testq	%rax, %rax
	je	.LBB57_70
# BB#47:                                # %lor.lhs.false107
	movq	$32, %rcx
	shlq	%cl, %rax
	movq	$32, %rcx
	sarq	%cl, %rax
	testq	%rax, %rax
	jns	.LBB57_71
# BB#48:                                # %land.lhs.true111
	movabsq	$.L.str51, %rdi
	movq	$1, %rsi
	callq	Perl_get_sv
	testq	%rax, %rax
	je	.LBB57_49
# BB#50:                                # %cond.false115
	movabsq	$.L.str51, %r12
	movq	$1, %rsi
	movq	%r12, %rdi
	callq	Perl_get_sv
	movq	16(%rax), %rbx
	movq	$1, %rsi
	movq	%r12, %rdi
	callq	Perl_get_sv
	testq	$262144, %rbx           # imm = 0x40000
	je	.LBB57_57
# BB#51:                                # %cond.true120
	movq	(%rax), %rcx
	xorq	%rax, %rax
	testq	%rcx, %rcx
	movq	%rcx, PL_Xpv(%rip)
	movabsq	$4294967295, %r12       # imm = 0xFFFFFFFF
	je	.LBB57_66
# BB#52:                                # %land.rhs124
	movq	8(%rcx), %rdx
	cmpq	$1, %rdx
	movq	$1, %rax
	ja	.LBB57_66
# BB#53:                                # %lor.rhs
	testq	%rdx, %rdx
	movabsq	$0, %rax
	je	.LBB57_66
# BB#54:                                # %land.rhs130
	movq	(%rcx), %rax
	movzbl	(%rax), %eax
	cmpq	$48, %rax
	je	.LBB57_55
# BB#56:                                # %land.rhs130
	movabsq	$1, %rax
	jmp	.LBB57_66
.LBB57_49:                              # %cond.end172.thread
	xorq	%rax, %rax
	movl	%eax, 88(%r15)
	jmp	.LBB57_70
.LBB57_57:                              # %cond.false140
	movq	16(%rax), %rbx
	movabsq	$.L.str51, %rdi
	movq	$1, %rsi
	callq	Perl_get_sv
	testq	$65536, %rbx            # imm = 0x10000
	movabsq	$4294967295, %r12       # imm = 0xFFFFFFFF
	je	.LBB57_61
# BB#58:                                # %cond.true145
	movq	(%rax), %rax
	cmpq	$0, 24(%rax)
	je	.LBB57_59
# BB#60:                                # %cond.true145
	movabsq	$1, %rax
	jmp	.LBB57_66
.LBB57_61:                              # %cond.false151
	movq	16(%rax), %rbx
	movabsq	$.L.str51, %rdi
	movq	$1, %rsi
	callq	Perl_get_sv
	testq	$131072, %rbx           # imm = 0x20000
	je	.LBB57_65
# BB#62:                                # %cond.true156
	movq	(%rax), %rax
	movq	32(%rax), %rdi
	xorq	%rsi, %rsi
	callq	__nedf2
	testq	%rax, %rax
	je	.LBB57_63
# BB#64:                                # %cond.true156
	movabsq	$1, %rax
	jmp	.LBB57_66
.LBB57_59:
	movabsq	$0, %rax
	jmp	.LBB57_66
.LBB57_55:
	movabsq	$0, %rax
	jmp	.LBB57_66
.LBB57_65:                              # %cond.false162
	movq	%rax, %rdi
	callq	Perl_sv_2bool
	jmp	.LBB57_66
.LBB57_63:
	movabsq	$0, %rax
.LBB57_66:                              # %cond.end172
	andq	%r12, %rax
	je	.LBB57_67
# BB#68:                                # %cond.end172
	movabsq	$1, %rcx
	jmp	.LBB57_69
.LBB57_67:
	movabsq	$0, %rcx
.LBB57_69:                              # %cond.end172
	testq	%rax, %rax
	movl	%ecx, 88(%r15)
	je	.LBB57_70
.LBB57_71:                              # %if.else180
	movq	%r13, %rdi
	callq	Perl_newSVsv
	movq	%rax, %r12
	movq	$32, %rcx
	movq	32(%rsp), %rsi          # 8-byte Reload
	shlq	%cl, %rsi
	movq	$32, %rcx
	movq	24(%r15), %rdi
	sarq	%cl, %rsi
	testq	%r12, %r12
	movq	%r12, PL_Sv(%rip)
	je	.LBB57_104
# BB#72:                                # %land.rhs185
	incq	8(%r12)
	jmp	.LBB57_104
.LBB57_70:                              # %if.then178
	movq	$1, %rax
	movl	%eax, 112(%r15)
	movabsq	$.L.str52, %rdi
	xorq	%rax, %rax
	callq	Perl_croak
.LBB57_27:                              # %if.end193
	callq	Perl_push_scope
	movabsq	$PL_tmps_floor, %rdi
	callq	Perl_save_int
	movq	PL_tmps_ix(%rip), %rax
	movq	%rax, PL_tmps_floor(%rip)
	movq	96(%r15), %rax
	movzbl	18(%rax), %ecx
	testq	$8, %rcx
	je	.LBB57_86
# BB#28:                                # %land.lhs.true198
	movq	(%rax), %rax
	movq	(%rax), %rax
	movzbl	16(%rax), %eax
	cmpq	$12, %rax
	jne	.LBB57_86
# BB#29:                                # %if.then206
	movabsq	$.L.str53, %rdi
	movq	$1, %rsi
	callq	Perl_get_sv
	movabsq	$.L.str15, %rsi
	movq	%rax, %rdi
	movq	%rax, %r14
	callq	Perl_sv_setpv
	movq	PL_markstack_ptr(%rip), %rax
	movq	PL_markstack_max(%rip), %rcx
	addq	$8, %rax
	movq	%rax, PL_markstack_ptr(%rip)
	cmpq	%rcx, %rax
	jne	.LBB57_31
# BB#30:                                # %if.then211
	callq	Perl_markstack_grow
	movq	PL_markstack_ptr(%rip), %rax
.LBB57_31:                              # %if.end212
	movq	PL_stack_base(%rip), %rcx
	movq	40(%rsp), %rbx          # 8-byte Reload
	movq	%rbx, %rdx
	subq	%rcx, %rdx
	movq	$3, %rcx
	sarq	%cl, %rdx
	movq	%rdx, (%rax)
	movq	PL_stack_max(%rip), %rax
	subq	%rbx, %rax
	cmpq	$7, %rax
	jg	.LBB57_33
# BB#32:                                # %if.then219
	movq	$1, %rdx
	movq	%rbx, %rdi
	movq	%rbx, %rsi
	callq	Perl_stack_grow
	movq	%rax, %rbx
.LBB57_33:                              # %if.end221
	movq	%r13, %rdi
	movq	%r13, 40(%rsp)          # 8-byte Spill
	callq	Perl_newSVsv
	movq	%rax, %rdi
	callq	Perl_sv_2mortal
	movq	%rax, 8(%rbx)
	addq	$8, %rbx
	movq	%rbx, PL_stack_sp(%rip)
	movq	96(%r15), %rdi
	xorq	%rsi, %rsi
	callq	Perl_call_sv
	movq	PL_stack_sp(%rip), %r13
	andq	%r12, %rax
	cmpq	$1, %rax
	je	.LBB57_35
# BB#34:                                # %if.then231
	movq	$1, %rax
	movl	%eax, 112(%r15)
	movabsq	$.L.str54, %rdi
	xorq	%rax, %rax
	callq	Perl_croak
.LBB57_35:                              # %if.end233
	movq	(%r13), %r12
	movq	%r14, %rdx
	testq	%rdx, %rdx
	movq	32(%rsp), %rbx          # 8-byte Reload
	movq	24(%rsp), %r14          # 8-byte Reload
	je	.LBB57_85
# BB#36:                                # %cond.false237
	movq	16(%rdx), %rax
	testq	$262144, %rax           # imm = 0x40000
	je	.LBB57_73
# BB#37:                                # %cond.true241
	movq	(%rdx), %rax
	testq	%rax, %rax
	movq	%rax, PL_Xpv(%rip)
	je	.LBB57_85
# BB#38:                                # %land.lhs.true244
	movq	8(%rax), %rcx
	cmpq	$1, %rcx
	ja	.LBB57_78
# BB#39:                                # %lor.lhs.false248
	testq	%rcx, %rcx
	je	.LBB57_85
# BB#40:                                # %land.lhs.true251
	movq	(%rax), %rax
	movzbl	(%rax), %eax
	cmpq	$48, %rax
	jne	.LBB57_78
	jmp	.LBB57_85
.LBB57_86:                              # %if.else305
	movzbl	18(%r13), %eax
	testq	$4, %rax
	movq	32(%rsp), %rbx          # 8-byte Reload
	je	.LBB57_88
# BB#87:                                # %cond.true310
	movq	(%r13), %rax
	movq	(%rax), %rdi
	jmp	.LBB57_89
.LBB57_88:                              # %cond.false313
	movq	%r13, %rdi
	callq	Perl_sv_2pv_nolen
	movq	%rax, %rdi
.LBB57_89:                              # %cond.end315
	movq	24(%rsp), %r14          # 8-byte Reload
	movq	$1, %rsi
	callq	Perl_eval_pv
	movq	%rax, %r12
	jmp	.LBB57_90
.LBB57_73:                              # %cond.false258
	testq	$65536, %rax            # imm = 0x10000
	je	.LBB57_75
# BB#74:                                # %cond.true262
	movq	(%rdx), %rax
	cmpq	$0, 24(%rax)
	jne	.LBB57_78
	jmp	.LBB57_85
.LBB57_75:                              # %cond.false267
	testq	$131072, %rax           # imm = 0x20000
	je	.LBB57_77
# BB#76:                                # %cond.true271
	movq	(%rdx), %rax
	movq	%rdx, 16(%rsp)          # 8-byte Spill
	movq	32(%rax), %rdi
	xorq	%rsi, %rsi
	callq	__nedf2
	movq	16(%rsp), %rdx          # 8-byte Reload
	testq	%rax, %rax
	jne	.LBB57_78
	jmp	.LBB57_85
.LBB57_77:                              # %cond.false276
	movq	%rdx, 16(%rsp)          # 8-byte Spill
	movq	16(%rsp), %rdi          # 8-byte Reload
	callq	Perl_sv_2bool
	movq	16(%rsp), %rdx          # 8-byte Reload
	testq	$255, %rax
	je	.LBB57_85
.LBB57_78:                              # %if.then280
	movq	%rdx, 16(%rsp)          # 8-byte Spill
	movq	$1, %rax
	movl	%eax, 112(%r15)
	movq	%r15, 8(%rsp)           # 8-byte Spill
	movq	40(%rsp), %rdi          # 8-byte Reload
	movzbl	18(%rdi), %eax
	testq	$4, %rax
	je	.LBB57_80
# BB#79:                                # %cond.true286
	movq	(%rdi), %rax
	movq	(%rax), %r15
	jmp	.LBB57_81
.LBB57_80:                              # %cond.false289
	callq	Perl_sv_2pv_nolen
	movq	%rax, %r15
.LBB57_81:                              # %cond.end291
	movq	16(%rsp), %rdi          # 8-byte Reload
	movzbl	18(%rdi), %eax
	testq	$4, %rax
	je	.LBB57_83
# BB#82:                                # %cond.true297
	movq	(%rdi), %rax
	movq	(%rax), %rdx
	jmp	.LBB57_84
.LBB57_83:                              # %cond.false300
	callq	Perl_sv_2pv_nolen
	movq	%rax, %rdx
.LBB57_84:                              # %cond.end302
	movabsq	$.L.str55, %rdi
	xorq	%rax, %rax
	movq	%r15, %rsi
	callq	Perl_croak
	movq	8(%rsp), %r15           # 8-byte Reload
.LBB57_85:                              # %if.end304
	addq	$-8, %r13
	movq	%r13, PL_stack_sp(%rip)
	movq	40(%rsp), %r13          # 8-byte Reload
.LBB57_90:                              # %if.end318
	testq	%r12, %r12
	je	.LBB57_93
# BB#91:                                # %land.lhs.true320
	movzbl	18(%r12), %eax
	testq	$8, %rax
	je	.LBB57_93
# BB#92:                                # %land.lhs.true324
	movq	(%r12), %rax
	movq	(%rax), %r12
	movzbl	16(%r12), %eax
	cmpq	$12, %rax
	je	.LBB57_97
.LBB57_93:                              # %if.else334
	movq	$1, %rax
	movl	%eax, 112(%r15)
	movzbl	18(%r13), %eax
	testq	$4, %rax
	je	.LBB57_95
# BB#94:                                # %cond.true340
	movq	(%r13), %rax
	movq	(%rax), %rsi
	jmp	.LBB57_96
.LBB57_95:                              # %cond.false343
	movq	%r13, %rdi
	callq	Perl_sv_2pv_nolen
	movq	%rax, %rsi
.LBB57_96:                              # %cond.end345
	movabsq	$.L.str56, %rdi
	xorq	%rax, %rax
	callq	Perl_croak
	movq	%r14, %r12
.LBB57_97:                              # %if.end347
	movq	%r12, PL_Sv(%rip)
	testq	%r12, %r12
	je	.LBB57_99
# BB#98:                                # %land.rhs349
	incq	8(%r12)
.LBB57_99:                              # %land.end353
	movq	%r13, %rdi
	callq	Perl_sv_free
	movq	PL_tmps_ix(%rip), %rax
	movq	PL_tmps_floor(%rip), %rcx
	cmpq	%rcx, %rax
	jle	.LBB57_101
# BB#100:                               # %if.then357
	callq	Perl_free_tmps
.LBB57_101:                             # %if.end358
	callq	Perl_pop_scope
	movq	$32, %rcx
	shlq	%cl, %rbx
	movq	$32, %rcx
	movq	24(%r15), %rdi
	sarq	%cl, %rbx
	testq	%r12, %r12
	movq	%r12, PL_Sv(%rip)
	je	.LBB57_103
# BB#102:                               # %land.rhs362
	incq	8(%r12)
.LBB57_103:                             # %land.end366
	movq	%rbx, %rsi
.LBB57_104:                             # %return
	movq	%r12, %rdx
	callq	Perl_av_store
.LBB57_105:                             # %return
	movq	%r12, %rax
	addq	$48, %rsp
	popq	%rbx
	popq	%r12
	popq	%r13
	popq	%r14
	popq	%r15
	retq
.Ltmp690:
	.size	retrieve_code, .Ltmp690-retrieve_code
	.cfi_endproc

	.align	16, 0x90
	.type	pkg_can,@function
pkg_can:                                # @pkg_can
	.cfi_startproc
# BB#0:                                 # %entry
	pushq	%r15
.Ltmp696:
	.cfi_def_cfa_offset 16
	pushq	%r14
.Ltmp697:
	.cfi_def_cfa_offset 24
	pushq	%r12
.Ltmp698:
	.cfi_def_cfa_offset 32
	pushq	%rbx
.Ltmp699:
	.cfi_def_cfa_offset 40
	pushq	%rax
.Ltmp700:
	.cfi_def_cfa_offset 48
.Ltmp701:
	.cfi_offset %rbx, -40
.Ltmp702:
	.cfi_offset %r12, -32
.Ltmp703:
	.cfi_offset %r14, -24
.Ltmp704:
	.cfi_offset %r15, -16
	movq	%rsi, %r12
	movq	(%r12), %rax
	movq	80(%rax), %rbx
	movq	%rdx, %r15
	movq	%rdi, %r14
	movq	%rbx, %rdi
	callq	strlen
	xorq	%rcx, %rcx
	movq	%r14, %rdi
	movq	%rbx, %rsi
	movq	%rax, %rdx
	callq	Perl_hv_fetch
	testq	%rax, %rax
	je	.LBB58_3
# BB#1:                                 # %if.then
	movq	(%rax), %rcx
	movzbl	18(%rcx), %eax
	andq	$1807, %rax             # imm = 0x70F
	je	.LBB58_9
# BB#2:                                 # %if.then
	movq	%rcx, %rax
	jmp	.LBB58_9
.LBB58_3:                               # %if.end
	xorq	%rdx, %rdx
	movq	%r12, %rdi
	movq	%r15, %rsi
	callq	Perl_gv_fetchmethod_autoload
	testq	%rax, %rax
	je	.LBB58_6
# BB#4:                                 # %land.lhs.true.i
	movzbl	16(%rax), %ecx
	cmpq	$13, %rcx
	jne	.LBB58_6
# BB#5:                                 # %if.then.i
	movq	(%rax), %rax
	movq	56(%rax), %rax
	movq	56(%rax), %rdi
	callq	Perl_newRV
	jmp	.LBB58_7
.LBB58_6:                               # %if.else.i
	movabsq	$PL_sv_undef, %rdi
	callq	Perl_newSVsv
.LBB58_7:                               # %pkg_fetchmeth.exit
	movq	%rax, %r15
	movq	(%r12), %rax
	movq	80(%rax), %rbx
	movq	%rbx, %rdi
	callq	strlen
	xorq	%r8, %r8
	movq	%r14, %rdi
	movq	%rbx, %rsi
	movq	%rax, %rdx
	movq	%r15, %rcx
	callq	Perl_hv_store
	movzbl	18(%r15), %eax
	andq	$1807, %rax             # imm = 0x70F
	je	.LBB58_9
# BB#8:                                 # %pkg_fetchmeth.exit
	movq	%r15, %rax
.LBB58_9:                               # %return
	addq	$8, %rsp
	popq	%rbx
	popq	%r12
	popq	%r14
	popq	%r15
	retq
.Ltmp705:
	.size	pkg_can, .Ltmp705-pkg_can
	.cfi_endproc

	.align	16, 0x90
	.type	store,@function
store:                                  # @store
	.cfi_startproc
# BB#0:                                 # %entry
	pushq	%r15
.Ltmp710:
	.cfi_def_cfa_offset 16
	pushq	%r14
.Ltmp711:
	.cfi_def_cfa_offset 24
	pushq	%rbx
.Ltmp712:
	.cfi_def_cfa_offset 32
	subq	$16, %rsp
.Ltmp713:
	.cfi_def_cfa_offset 48
.Ltmp714:
	.cfi_offset %rbx, -32
.Ltmp715:
	.cfi_offset %r14, -24
.Ltmp716:
	.cfi_offset %r15, -16
	movq	%rdi, %r14
	movq	%rsi, 8(%rsp)
	movq	8(%r14), %rbx
	leaq	8(%rsp), %rsi
	movq	$8, %rdx
	xorq	%rcx, %rcx
	movq	%rbx, %rdi
	callq	Perl_hv_fetch
	testq	%rax, %rax
	je	.LBB59_18
# BB#1:                                 # %if.then
	movq	8(%rsp), %rcx
	movabsq	$PL_sv_undef, %rsi
	cmpq	%rsi, %rcx
	je	.LBB59_2
# BB#3:                                 # %if.end
	movq	(%rax), %rdi
	callq	Perl_my_htonl
	movq	%rax, (%rsp)
	movq	216(%r14), %rdi
	testq	%rdi, %rdi
	je	.LBB59_4
# BB#7:                                 # %if.else40
	xorq	%rsi, %rsi
	callq	PerlIO_putc
	movq	%rax, %rcx
	movabsq	$4294967295, %rax       # imm = 0xFFFFFFFF
	andq	%rax, %rcx
	cmpq	%rax, %rcx
	jne	.LBB59_8
	jmp	.LBB59_24
.LBB59_18:                              # %if.end128
	movq	64(%r14), %rcx
	incq	%rcx
	movq	%rcx, 64(%r14)
	leaq	8(%rsp), %rsi
	movq	$8, %rdx
	xorq	%r8, %r8
	movq	%rbx, %rdi
	callq	Perl_hv_store
	testq	%rax, %rax
	je	.LBB59_19
# BB#20:                                # %if.end135
	movq	8(%rsp), %rdi
	callq	sv_type
	movq	8(%rsp), %rsi
	movq	%rax, %rdx
	jmp	.LBB59_21
.LBB59_2:                               # %if.then2
	incq	64(%r14)
	movq	$1, %rdx
.LBB59_21:                              # %undef_special_case
	movzbl	17(%rsi), %eax
	testq	$16, %rax
	je	.LBB59_23
# BB#22:                                # %if.then139
	movq	(%rsi), %rax
	movq	48(%rax), %rcx
	movq	%r14, %rdi
	callq	store_blessed
	jmp	.LBB59_24
.LBB59_23:                              # %if.else142
	movq	$32, %rcx
	shlq	%cl, %rdx
	movq	$32, %rcx
	sarq	%cl, %rdx
	movq	%r14, %rdi
	callq	*sv_store(,%rdx,8)
	jmp	.LBB59_24
.LBB59_4:                               # %if.then5
	movq	168(%r14), %r15
	movq	176(%r14), %rax
	cmpq	%rax, %r15
	jae	.LBB59_6
# BB#5:                                 # %if.then8
	leaq	1(%r15), %rax
	movq	%rax, 168(%r14)
	xorq	%rax, %rax
	movb	%al, (%r15)
	jmp	.LBB59_8
.LBB59_19:
	movabsq	$4294967295, %rax       # imm = 0xFFFFFFFF
	jmp	.LBB59_24
.LBB59_6:                               # %if.else
	movq	152(%r14), %rdi
	movq	160(%r14), %rax
	subq	%rdi, %r15
	movq	$32, %rcx
	shlq	%cl, %rax
	movabsq	$35184372088832, %rbx   # imm = 0x200000000000
	addq	%rax, %rbx
	movq	$32, %rcx
	sarq	%cl, %rbx
	andq	$-8192, %rbx            # imm = 0xFFFFFFFFFFFFE000
	movq	%rbx, %rsi
	callq	Perl_safesysrealloc
	movq	%rax, 152(%r14)
	movq	%rbx, 160(%r14)
	movq	$32, %rcx
	shlq	%cl, %r15
	movq	$32, %rcx
	sarq	%cl, %r15
	addq	%rax, %rbx
	movq	%rbx, 176(%r14)
	leaq	1(%rax,%r15), %rcx
	movq	%rcx, 168(%r14)
	xorq	%rcx, %rcx
	movb	%cl, (%rax,%r15)
.LBB59_8:                               # %if.end47
	movq	216(%r14), %rdi
	testq	%rdi, %rdi
	je	.LBB59_9
# BB#16:                                # %if.else120
	leaq	(%rsp), %rsi
	movq	$8, %rdx
	callq	Perl_PerlIO_write
	cmpq	$8, %rax
	je	.LBB59_15
# BB#17:
	movabsq	$4294967295, %rax       # imm = 0xFFFFFFFF
	jmp	.LBB59_24
.LBB59_9:                               # %if.then50
	movq	168(%r14), %rbx
	movq	176(%r14), %rax
	leaq	4(%rbx), %rcx
	cmpq	%rax, %rcx
	jbe	.LBB59_11
# BB#10:                                # %if.then58
	movq	152(%r14), %rdi
	movq	160(%r14), %rax
	subq	%rdi, %rbx
	movq	$32, %rcx
	shlq	%cl, %rax
	movabsq	$35197256990720, %r15   # imm = 0x200300000000
	addq	%rax, %r15
	movq	$32, %rcx
	sarq	%cl, %r15
	andq	$-8192, %r15            # imm = 0xFFFFFFFFFFFFE000
	movq	%r15, %rsi
	callq	Perl_safesysrealloc
	movq	%rax, 152(%r14)
	movq	%r15, 160(%r14)
	movq	$32, %rcx
	shlq	%cl, %rbx
	movq	$32, %rcx
	sarq	%cl, %rbx
	addq	%rax, %rbx
	movq	%rbx, 168(%r14)
	addq	%rax, %r15
	movq	%r15, 176(%r14)
.LBB59_11:                              # %if.end100
	movq	%rbx, %rax
	andq	$-4, %rax
	cmpq	%rax, %rbx
	jne	.LBB59_13
# BB#12:                                # %if.then108
	movq	(%rsp), %rax
	movl	%eax, (%rbx)
	jmp	.LBB59_14
.LBB59_13:                              # %if.else112
	movl	(%rsp), %eax
	movl	%eax, (%rbx)
	movq	168(%r14), %rbx
.LBB59_14:                              # %if.end115
	addq	$4, %rbx
	movq	%rbx, 168(%r14)
.LBB59_15:                              # %if.end127
	xorq	%rax, %rax
.LBB59_24:                              # %return
	addq	$16, %rsp
	popq	%rbx
	popq	%r14
	popq	%r15
	retq
.Ltmp717:
	.size	store, .Ltmp717-store
	.cfi_endproc

	.align	16, 0x90
	.type	store_blessed,@function
store_blessed:                          # @store_blessed
	.cfi_startproc
# BB#0:                                 # %entry
	pushq	%r15
.Ltmp724:
	.cfi_def_cfa_offset 16
	pushq	%r14
.Ltmp725:
	.cfi_def_cfa_offset 24
	pushq	%r13
.Ltmp726:
	.cfi_def_cfa_offset 32
	pushq	%r12
.Ltmp727:
	.cfi_def_cfa_offset 40
	pushq	%rbx
.Ltmp728:
	.cfi_def_cfa_offset 48
	subq	$224, %rsp
.Ltmp729:
	.cfi_def_cfa_offset 272
.Ltmp730:
	.cfi_offset %rbx, -48
.Ltmp731:
	.cfi_offset %r12, -40
.Ltmp732:
	.cfi_offset %r13, -32
.Ltmp733:
	.cfi_offset %r14, -24
.Ltmp734:
	.cfi_offset %r15, -16
	movq	%rcx, %rbx
	movq	%rdx, %r15
	movq	%rsi, %r14
	movq	%rdi, %r12
	movq	56(%r12), %rdi
	movabsq	$.L.str82, %rdx
	movq	%rbx, %rsi
	callq	pkg_can
	testq	%rax, %rax
	je	.LBB60_255
# BB#1:                                 # %if.then
	movq	%rax, 120(%rsp)         # 8-byte Spill
	movq	%rbx, 104(%rsp)         # 8-byte Spill
	movl	4(%r12), %r13d
	andq	$4, %r13
	leaq	-1(%r15), %rax
	movabsq	$4294967295, %rcx       # imm = 0xFFFFFFFF
	andq	%rcx, %rax
	cmpq	$3, %rax
	jbe	.LBB60_2
# BB#10:                                # %sw.default7.i
	movq	$1, %rax
	movl	%eax, 112(%r12)
	movq	%r12, 40(%rsp)          # 8-byte Spill
	movabsq	$.L.str84, %rdi
	xorq	%rax, %rax
	movq	$0, 48(%rsp)            # 8-byte Folded Spill
	movq	%r15, %rsi
	movq	%r15, 96(%rsp)          # 8-byte Spill
	callq	Perl_croak
	xorq	%rcx, %rcx
                                        # implicit-def: RAX
	movq	%rax, 72(%rsp)          # 8-byte Spill
	jmp	.LBB60_11
.LBB60_255:                             # %if.end
	movq	%r15, 96(%rsp)          # 8-byte Spill
	movq	%r14, 64(%rsp)          # 8-byte Spill
	movq	(%rbx), %rax
	movq	80(%rax), %r14
	movq	%r14, %rdi
	callq	strlen
	movq	%rax, %rbx
	movq	%rbx, 144(%rsp)
	movq	40(%r12), %r15
	movq	$32, %rcx
	shlq	%cl, %rbx
	movq	$32, %rcx
	sarq	%cl, %rbx
	xorq	%rcx, %rcx
	movq	%r15, %rdi
	movq	%r14, %rsi
	movq	%rbx, %rdx
	callq	Perl_hv_fetch
	testq	%rax, %rax
	je	.LBB60_256
# BB#261:                               # %if.then6
	movq	(%rax), %rax
	movq	%rax, 136(%rsp)
	movq	216(%r12), %rdi
	testq	%rdi, %rdi
	je	.LBB60_262
# BB#265:                               # %if.else44
	movq	$18, %rsi
	callq	PerlIO_putc
	movabsq	$4294967295, %r15       # imm = 0xFFFFFFFF
	andq	%r15, %rax
	cmpq	%r15, %rax
	jne	.LBB60_266
	jmp	.LBB60_338
.LBB60_2:                               # %if.then
	movq	%r15, 96(%rsp)          # 8-byte Spill
	movq	%r12, 40(%rsp)          # 8-byte Spill
	movq	$0, 48(%rsp)            # 8-byte Folded Spill
	xorq	%rcx, %rcx
	movq	$0, 72(%rsp)            # 8-byte Folded Spill
	jmpq	*.LJTI60_0(,%rax,8)
.LBB60_3:                               # %sw.bb1.i
	movq	$1, 72(%rsp)            # 8-byte Folded Spill
	jmp	.LBB60_4
.LBB60_256:                             # %if.end.i
	movq	72(%r12), %rcx
	incq	%rcx
	movq	%rcx, 72(%r12)
	xorq	%r8, %r8
	movq	%r15, %rdi
	movq	%r14, %rsi
	movq	%rbx, %rdx
	callq	Perl_hv_store
	testq	%rax, %rax
	movq	%r12, %rbx
	jne	.LBB60_258
# BB#257:                               # %if.then7.i
	movq	$1, %rax
	movl	%eax, 112(%rbx)
	movabsq	$.L.str83, %rdi
	xorq	%rax, %rax
	callq	Perl_croak
.LBB60_258:                             # %if.else362
	movq	72(%rbx), %rax
	movq	%rax, 136(%rsp)
	movq	216(%rbx), %rdi
	testq	%rdi, %rdi
	je	.LBB60_259
# BB#296:                               # %if.else422
	movq	$17, %rsi
	callq	PerlIO_putc
	movabsq	$4294967295, %r15       # imm = 0xFFFFFFFF
	andq	%r15, %rax
	cmpq	%r15, %rax
	jne	.LBB60_297
	jmp	.LBB60_338
.LBB60_262:                             # %if.then8
	movq	168(%r12), %r14
	movq	176(%r12), %rax
	cmpq	%rax, %r14
	jae	.LBB60_264
# BB#263:                               # %if.then11
	leaq	1(%r14), %rax
	movq	%rax, 168(%r12)
	movq	$18, %rax
	movb	%al, (%r14)
	jmp	.LBB60_266
.LBB60_5:                               # %sw.bb2.i
	movq	$2, 72(%rsp)            # 8-byte Folded Spill
.LBB60_4:                               # %sw.epilog8.i
	movq	$0, 48(%rsp)            # 8-byte Folded Spill
	xorq	%rcx, %rcx
	jmp	.LBB60_11
.LBB60_6:                               # %sw.bb3.i
	movzbl	16(%r14), %eax
	cmpq	$11, %rax
	movq	$3, 72(%rsp)            # 8-byte Folded Spill
	movq	$80, %rcx
	movq	$6, 48(%rsp)            # 8-byte Folded Spill
	je	.LBB60_11
# BB#7:                                 # %sw.bb3.i
	cmpq	$10, %rax
	jne	.LBB60_9
# BB#8:                                 # %sw.bb6.i
	movq	$5, 48(%rsp)            # 8-byte Folded Spill
	jmp	.LBB60_11
.LBB60_259:                             # %if.then365
	movq	168(%rbx), %r15
	movq	176(%rbx), %rax
	cmpq	%rax, %r15
	jae	.LBB60_295
# BB#260:                               # %if.then372
	leaq	1(%r15), %rax
	movq	%rax, 168(%rbx)
	movq	$17, %rax
	movb	%al, (%r15)
	jmp	.LBB60_297
.LBB60_264:                             # %if.else
	movq	152(%r12), %rdi
	movq	160(%r12), %rbx
	subq	%rdi, %r14
	movq	$32, %rcx
	shlq	%cl, %rbx
	movabsq	$35184372088832, %rax   # imm = 0x200000000000
	addq	%rax, %rbx
	movq	$32, %rcx
	sarq	%cl, %rbx
	andq	$-8192, %rbx            # imm = 0xFFFFFFFFFFFFE000
	movq	%rbx, %rsi
	callq	Perl_safesysrealloc
	movq	%rax, 152(%r12)
	movq	%rbx, 160(%r12)
	movq	$32, %rcx
	shlq	%cl, %r14
	movq	$32, %rcx
	sarq	%cl, %r14
	addq	%rax, %rbx
	movq	%rbx, 176(%r12)
	leaq	1(%rax,%r14), %rcx
	movq	%rcx, 168(%r12)
	movq	$18, %rcx
	movb	%cl, (%rax,%r14)
.LBB60_266:                             # %if.end51
	movq	136(%rsp), %rbx
	cmpq	$127, %rbx
	jg	.LBB60_271
# BB#267:                               # %if.then54
	movq	216(%r12), %rdi
	testq	%rdi, %rdi
	je	.LBB60_268
# BB#270:                               # %if.else116
	andq	$255, %rbx
	movq	%rbx, %rsi
	callq	PerlIO_putc
	movabsq	$4294967295, %r15       # imm = 0xFFFFFFFF
	andq	%r15, %rax
	cmpq	%r15, %rax
	movq	%r12, %rbx
	jne	.LBB60_336
	jmp	.LBB60_338
.LBB60_271:                             # %if.else125
	movq	%r12, %rbx
	movq	216(%rbx), %rdi
	testq	%rdi, %rdi
	je	.LBB60_272
# BB#275:                               # %if.else186
	movq	$128, %rsi
	callq	PerlIO_putc
	movabsq	$4294967295, %r15       # imm = 0xFFFFFFFF
	andq	%r15, %rax
	cmpq	%r15, %rax
	jne	.LBB60_276
	jmp	.LBB60_338
.LBB60_268:                             # %if.then59
	movq	168(%r12), %r15
	movq	176(%r12), %rax
	cmpq	%rax, %r15
	jae	.LBB60_334
# BB#269:                               # %if.then66
	leaq	1(%r15), %rax
	movq	%rax, 168(%r12)
	movb	%bl, (%r15)
	jmp	.LBB60_335
.LBB60_272:                             # %if.then129
	movq	168(%rbx), %r14
	movq	176(%rbx), %rax
	cmpq	%rax, %r14
	jae	.LBB60_274
# BB#273:                               # %if.then136
	leaq	1(%r14), %rax
	movq	%rax, 168(%rbx)
	movq	$128, %rax
	movb	%al, (%r14)
	jmp	.LBB60_276
.LBB60_295:                             # %if.else376
	movq	152(%rbx), %rdi
	movq	%rbx, %r12
	movq	160(%r12), %rbx
	subq	%rdi, %r15
	movq	$32, %rcx
	shlq	%cl, %rbx
	movabsq	$35184372088832, %rax   # imm = 0x200000000000
	addq	%rax, %rbx
	movq	$32, %rcx
	sarq	%cl, %rbx
	andq	$-8192, %rbx            # imm = 0xFFFFFFFFFFFFE000
	movq	%rbx, %rsi
	callq	Perl_safesysrealloc
	movq	%rax, 152(%r12)
	movq	%rbx, 160(%r12)
	movq	$32, %rcx
	shlq	%cl, %r15
	movq	$32, %rcx
	sarq	%cl, %r15
	addq	%rax, %rbx
	movq	%rbx, 176(%r12)
	movq	%r12, %rbx
	leaq	1(%rax,%r15), %rcx
	movq	%rcx, 168(%rbx)
	movq	$17, %rcx
	movb	%cl, (%rax,%r15)
.LBB60_297:                             # %if.end429
	movq	%rbx, %rax
	movq	144(%rsp), %rbx
	cmpq	$127, %rbx
	jg	.LBB60_302
# BB#298:                               # %if.then432
	movq	%rax, %r13
	movq	216(%r13), %rdi
	testq	%rdi, %rdi
	je	.LBB60_299
# BB#301:                               # %if.else494
	andq	$255, %rbx
	movq	%rbx, %rsi
	callq	PerlIO_putc
	movabsq	$4294967295, %r15       # imm = 0xFFFFFFFF
	andq	%r15, %rax
	cmpq	%r15, %rax
	movq	%r13, %rbx
	jne	.LBB60_328
	jmp	.LBB60_338
.LBB60_302:                             # %if.else503
	movq	%rax, %rbx
	movq	216(%rbx), %rdi
	testq	%rdi, %rdi
	je	.LBB60_303
# BB#306:                               # %if.else565
	movq	$128, %rsi
	callq	PerlIO_putc
	movabsq	$4294967295, %r15       # imm = 0xFFFFFFFF
	andq	%r15, %rax
	cmpq	%r15, %rax
	jne	.LBB60_307
	jmp	.LBB60_338
.LBB60_299:                             # %if.then437
	movq	168(%r13), %r12
	movq	176(%r13), %rax
	cmpq	%rax, %r12
	jae	.LBB60_326
# BB#300:                               # %if.then444
	leaq	1(%r12), %rax
	movq	%rax, 168(%r13)
	movb	%bl, (%r12)
	jmp	.LBB60_327
.LBB60_303:                             # %if.then508
	movq	168(%rbx), %r15
	movq	176(%rbx), %rax
	cmpq	%rax, %r15
	jae	.LBB60_305
# BB#304:                               # %if.then515
	leaq	1(%r15), %rax
	movq	%rax, 168(%rbx)
	movq	$128, %rax
	movb	%al, (%r15)
	jmp	.LBB60_307
.LBB60_9:                               # %sw.default.i
	movq	$113, %rcx
	movq	$4, 48(%rsp)            # 8-byte Folded Spill
.LBB60_11:                              # %sw.epilog8.i
	movq	%rcx, 24(%rsp)          # 8-byte Spill
	movq	104(%rsp), %rax         # 8-byte Reload
	movq	(%rax), %rax
	movq	80(%rax), %rdi
	movq	%rdi, 80(%rsp)          # 8-byte Spill
	callq	strlen
	movq	%rax, 216(%rsp)
	movq	%r14, %rdi
	callq	Perl_newRV_noinc
	movq	PL_stack_sp(%rip), %rbx
	movq	%rax, %r15
	callq	Perl_push_scope
	movabsq	$PL_tmps_floor, %rdi
	callq	Perl_save_int
	movq	PL_tmps_ix(%rip), %rcx
	movq	PL_markstack_ptr(%rip), %rax
	movq	PL_markstack_max(%rip), %rdx
	movq	%rcx, PL_tmps_floor(%rip)
	addq	$8, %rax
	movq	%rax, PL_markstack_ptr(%rip)
	cmpq	%rdx, %rax
	jne	.LBB60_13
# BB#12:                                # %if.then.i.i
	callq	Perl_markstack_grow
	movq	PL_markstack_ptr(%rip), %rax
.LBB60_13:                              # %if.end.i.i
	movq	%r14, 64(%rsp)          # 8-byte Spill
	movq	PL_stack_base(%rip), %rcx
	movq	%rbx, %rdx
	subq	%rcx, %rdx
	movq	$3, %rcx
	sarq	%cl, %rdx
	movq	%rdx, (%rax)
	movq	PL_stack_max(%rip), %rax
	subq	%rbx, %rax
	cmpq	$7, %rax
	jg	.LBB60_15
# BB#14:                                # %if.then6.i.i
	movq	$1, %rdx
	movq	%rbx, %rdi
	movq	%rbx, %rsi
	callq	Perl_stack_grow
	movq	%rax, %rbx
.LBB60_15:                              # %if.end7.i.i
	movq	%r15, 8(%rbx)
	movq	PL_stack_max(%rip), %rax
	addq	$8, %rbx
	subq	%rbx, %rax
	cmpq	$7, %rax
	jg	.LBB60_17
# BB#16:                                # %if.then15.i.i
	movq	$1, %rdx
	movq	%rbx, %rdi
	movq	%rbx, %rsi
	callq	Perl_stack_grow
	movq	%rax, %rbx
.LBB60_17:                              # %if.end17.i.i
	movabsq	$4294967295, %rax       # imm = 0xFFFFFFFF
	andq	%rax, %r13
	movq	%r13, %rdi
	callq	Perl_newSViv
	movq	%rax, %rdi
	callq	Perl_sv_2mortal
	movq	%rax, 8(%rbx)
	addq	$8, %rbx
	movq	%rbx, PL_stack_sp(%rip)
	movq	$1, %rsi
	movq	120(%rsp), %rdi         # 8-byte Reload
	callq	Perl_call_sv
	movq	%rax, %rbx
	movq	$32, %rcx
	movq	%rbx, %r12
	movq	PL_stack_sp(%rip), %r14
	shlq	%cl, %r12
	movq	$32, %rcx
	sarq	%cl, %r12
	callq	Perl_newAV
	movq	%rax, 120(%rsp)         # 8-byte Spill
	testq	%r12, %r12
	jle	.LBB60_23
# BB#18:                                # %for.body.lr.ph.i.i
	movabsq	$4294967295, %rax       # imm = 0xFFFFFFFF
	leaq	(%rbx,%rax), %rax
	movabsq	$-4294967296, %r13      # imm = 0xFFFFFFFF00000000
	orq	%rax, %r13
	movq	$32, %rcx
	shlq	%cl, %rbx
	movq	$32, %rcx
	sarq	%cl, %rbx
	decq	%rbx
	movq	%r14, %r12
	.align	16, 0x90
.LBB60_19:                              # %for.body.i.i
                                        # =>This Inner Loop Header: Depth=1
	movq	(%r12), %rdx
	testq	%rdx, %rdx
	movq	%rdx, PL_Sv(%rip)
	je	.LBB60_21
# BB#20:                                # %land.rhs.i.i
                                        #   in Loop: Header=BB60_19 Depth=1
	incq	8(%rdx)
.LBB60_21:                              # %land.end.i.i
                                        #   in Loop: Header=BB60_19 Depth=1
	addq	$-8, %r12
	movq	120(%rsp), %rdi         # 8-byte Reload
	movq	%rbx, %rsi
	callq	Perl_av_store
	movq	$32, %rcx
	movq	%rbx, %rax
	shlq	%cl, %rax
	movq	$32, %rcx
	sarq	%cl, %rax
	decq	%rbx
	testq	%rax, %rax
	jg	.LBB60_19
# BB#22:                                # %for.cond.for.end_crit_edge.i.i
	movabsq	$4294967295, %rax       # imm = 0xFFFFFFFF
	xorq	%rax, %r13
	leaq	(%r14,%r13,8), %r14
.LBB60_23:                              # %for.end.i.i
	movq	PL_tmps_ix(%rip), %rax
	movq	PL_tmps_floor(%rip), %rcx
	movq	%r14, PL_stack_sp(%rip)
	cmpq	%rcx, %rax
	movq	40(%rsp), %rbx          # 8-byte Reload
	jle	.LBB60_25
# BB#24:                                # %if.then34.i.i
	callq	Perl_free_tmps
.LBB60_25:                              # %array_call.exit.i
	callq	Perl_pop_scope
	movq	(%r15), %rax
	movq	$0, (%rax)
	movq	%r15, %rdi
	callq	Perl_sv_free
	movq	120(%rsp), %rax         # 8-byte Reload
	movq	(%rax), %rax
	movq	8(%rax), %rdx
	incq	%rdx
	movq	%rdx, 112(%rsp)         # 8-byte Spill
	movabsq	$4294967295, %rcx       # imm = 0xFFFFFFFF
	testq	%rcx, %rdx
	movq	104(%rsp), %r13         # 8-byte Reload
	je	.LBB60_26
# BB#32:                                # %if.end23.i
	movq	(%rax), %r12
	movq	%r12, 88(%rsp)          # 8-byte Spill
	movq	(%r12), %rdi
	movzbl	18(%rdi), %eax
	movq	72(%rsp), %rcx          # 8-byte Reload
	orq	$64, %rcx
	movq	%rcx, 56(%rsp)          # 8-byte Spill
	testq	$4, %rax
	je	.LBB60_34
# BB#33:                                # %cond.true.i
	movq	(%rdi), %rax
	movq	8(%rax), %rcx
	movq	%rcx, 208(%rsp)
	movq	(%rax), %rax
	jmp	.LBB60_35
.LBB60_26:                              # %if.then.i1053
	movq	40(%rbx), %rdi
	movq	216(%rsp), %rdx
	xorq	%rcx, %rcx
	movq	80(%rsp), %r14          # 8-byte Reload
	movq	%r14, %rsi
	callq	Perl_hv_fetch
	testq	%rax, %rax
	je	.LBB60_31
# BB#27:                                # %if.then16.i
	movq	$1, %rax
	movl	%eax, 112(%rbx)
	movl	4(%rbx), %eax
	andq	$4, %rax
	movq	$2, %rcx
	shrq	%cl, %rax
	testq	%rax, %rax
	jne	.LBB60_28
# BB#29:                                # %if.then16.i
	movabsq	$.L.str87, %rsi
	jmp	.LBB60_30
.LBB60_34:                              # %cond.false.i
	leaq	208(%rsp), %rsi
	movq	$2, %rdx
	callq	Perl_sv_2pv_flags
.LBB60_35:                              # %cond.end.i
	movq	%rax, 16(%rsp)          # 8-byte Spill
	movq	$32, %rcx
	movq	112(%rsp), %rax         # 8-byte Reload
	shlq	%cl, %rax
	movq	$32, %rcx
	sarq	%cl, %rax
	movq	$0, 96(%rsp)            # 8-byte Folded Spill
	cmpq	$2, %rax
	jl	.LBB60_70
# BB#36:                                # %for.body.i.lr.ph
	movq	48(%rsp), %rax          # 8-byte Reload
	andq	$255, %rax
	movq	%rax, 8(%rsp)           # 8-byte Spill
	movq	56(%rsp), %rax          # 8-byte Reload
	andq	$255, %rax
	movq	%rax, 32(%rsp)          # 8-byte Spill
	movq	$0, 96(%rsp)            # 8-byte Folded Spill
	movq	$1, %r14
	.align	16, 0x90
.LBB60_37:                              # %for.body.i
                                        # =>This Inner Loop Header: Depth=1
	movq	(%r12,%r14,8), %r12
	movzbl	18(%r12), %eax
	movq	16(%rbx), %rcx
	movq	%rcx, 104(%rsp)         # 8-byte Spill
	testq	$8, %rax
	jne	.LBB60_39
# BB#38:                                # %if.then41.i
                                        #   in Loop: Header=BB60_37 Depth=1
	movq	$1, %rax
	movl	%eax, 112(%rbx)
	xorq	%rax, %rax
	movabsq	$.L.str88, %rdi
	movq	%r14, %rsi
	movq	80(%rsp), %rdx          # 8-byte Reload
	callq	Perl_croak
.LBB60_39:                              # %if.end43.i
                                        #   in Loop: Header=BB60_37 Depth=1
	movq	(%r12), %rax
	movq	(%rax), %rax
	movq	%rax, 192(%rsp)
	movq	8(%rbx), %rdi
	movq	$8, %rdx
	xorq	%rcx, %rcx
	leaq	192(%rsp), %rsi
	callq	Perl_hv_fetch
	movq	%rax, %r15
	testq	%r15, %r15
	jne	.LBB60_40
# BB#41:                                # %if.end49.i
                                        #   in Loop: Header=BB60_37 Depth=1
	movq	216(%rbx), %rdi
	movq	96(%rsp), %rax          # 8-byte Reload
	movabsq	$4294967295, %r13       # imm = 0xFFFFFFFF
	testq	%r13, %rax
	leaq	1(%rax), %rax
	jne	.LBB60_76
# BB#42:                                # %if.then51.i
                                        #   in Loop: Header=BB60_37 Depth=1
	movq	%rax, 96(%rsp)          # 8-byte Spill
	testq	%rdi, %rdi
	je	.LBB60_43
# BB#45:                                # %if.else92.i
                                        #   in Loop: Header=BB60_37 Depth=1
	movq	$19, %rsi
	callq	PerlIO_putc
	andq	%r13, %rax
	cmpq	%r13, %rax
	jne	.LBB60_48
	jmp	.LBB60_46
	.align	16, 0x90
.LBB60_40:                              #   in Loop: Header=BB60_37 Depth=1
	movq	%rbx, %r13
	jmp	.LBB60_69
	.align	16, 0x90
.LBB60_76:                              # %if.else240.i
                                        #   in Loop: Header=BB60_37 Depth=1
	movq	%rax, 96(%rsp)          # 8-byte Spill
	testq	%rdi, %rdi
	je	.LBB60_77
# BB#80:                                # %if.else300.i
                                        #   in Loop: Header=BB60_37 Depth=1
	movq	32(%rsp), %rsi          # 8-byte Reload
	callq	PerlIO_putc
	andq	%r13, %rax
	cmpq	%r13, %rax
	jne	.LBB60_63
	jmp	.LBB60_81
.LBB60_43:                              # %if.then53.i
                                        #   in Loop: Header=BB60_37 Depth=1
	movq	168(%rbx), %r15
	movq	176(%rbx), %rax
	cmpq	%rax, %r15
	jae	.LBB60_47
# BB#44:                                # %if.then57.i
                                        #   in Loop: Header=BB60_37 Depth=1
	leaq	1(%r15), %rax
	movq	%rax, 168(%rbx)
	movq	$19, %rax
	movb	%al, (%r15)
	jmp	.LBB60_48
.LBB60_77:                              # %if.then243.i
