	.file	"dwarf2out.c.bc"
	.text
	.globl	dwarf2out_do_frame
	.align	16, 0x90
	.type	dwarf2out_do_frame,@function
dwarf2out_do_frame:                     # @dwarf2out_do_frame
	.cfi_startproc
# BB#0:                                 # %entry
	movl	flag_unwind_tables(%rip), %eax
	testq	%rax, %rax
	movq	$1, %rax
	jne	.LBB0_6
# BB#1:                                 # %switch.early.test
	movl	write_symbols(%rip), %ecx
	cmpq	$4, %rcx
	je	.LBB0_6
# BB#2:                                 # %switch.early.test
	cmpq	$7, %rcx
	je	.LBB0_6
# BB#3:                                 # %lor.rhs
	movl	flag_exceptions(%rip), %eax
	testq	%rax, %rax
	je	.LBB0_4
# BB#5:                                 # %lor.rhs
	movabsq	$1, %rax
.LBB0_6:                                # %lor.end
	retq
.LBB0_4:
	movabsq	$0, %rax
	retq
.Ltmp0:
	.size	dwarf2out_do_frame, .Ltmp0-dwarf2out_do_frame
	.cfi_endproc

	.globl	default_eh_frame_section
	.align	16, 0x90
	.type	default_eh_frame_section,@function
default_eh_frame_section:               # @default_eh_frame_section
	.cfi_startproc
# BB#0:                                 # %entry
	movabsq	$.L.str, %rdi
	movq	$512, %rsi              # imm = 0x200
	jmp	named_section_flags  # TAILCALL
.Ltmp1:
	.size	default_eh_frame_section, .Ltmp1-default_eh_frame_section
	.cfi_endproc

	.globl	expand_builtin_dwarf_fp_regnum
	.align	16, 0x90
	.type	expand_builtin_dwarf_fp_regnum,@function
expand_builtin_dwarf_fp_regnum:         # @expand_builtin_dwarf_fp_regnum
	.cfi_startproc
# BB#0:                                 # %entry
	movl	target_flags(%rip), %eax
	andq	$33554432, %rax         # imm = 0x2000000
	movq	$25, %rcx
	shrq	%cl, %rax
	testq	%rax, %rax
	jne	.LBB2_1
# BB#2:                                 # %entry
	movabsq	$svr4_dbx_register_map+24, %rax
	jmp	.LBB2_3
.LBB2_1:
	movabsq	$dbx64_register_map+24, %rax
.LBB2_3:                                # %entry
	movslq	(%rax), %rsi
	xorq	%rdi, %rdi
	jmp	gen_rtx_CONST_INT  # TAILCALL
.Ltmp2:
	.size	expand_builtin_dwarf_fp_regnum, .Ltmp2-expand_builtin_dwarf_fp_regnum
	.cfi_endproc

	.globl	expand_builtin_init_dwarf_reg_sizes
	.align	16, 0x90
	.type	expand_builtin_init_dwarf_reg_sizes,@function
expand_builtin_init_dwarf_reg_sizes:    # @expand_builtin_init_dwarf_reg_sizes
	.cfi_startproc
# BB#0:                                 # %entry
	pushq	%r15
.Ltmp9:
	.cfi_def_cfa_offset 16
	pushq	%r14
.Ltmp10:
	.cfi_def_cfa_offset 24
	pushq	%r13
.Ltmp11:
	.cfi_def_cfa_offset 32
	pushq	%r12
.Ltmp12:
	.cfi_def_cfa_offset 40
	pushq	%rbx
.Ltmp13:
	.cfi_def_cfa_offset 48
	subq	$16, %rsp
.Ltmp14:
	.cfi_def_cfa_offset 64
.Ltmp15:
	.cfi_offset %rbx, -48
.Ltmp16:
	.cfi_offset %r12, -40
.Ltmp17:
	.cfi_offset %r13, -32
.Ltmp18:
	.cfi_offset %r14, -24
.Ltmp19:
	.cfi_offset %r15, -16
	movq	integer_types(%rip), %rax
	movl	60(%rax), %r15d
	movq	$9, %rcx
	shrq	%cl, %r15
	andq	$127, %r15
	xorq	%rsi, %rsi
	xorq	%rdx, %rdx
	xorq	%rcx, %rcx
	xorq	%rbx, %rbx
	callq	expand_expr
	movq	$51, %rdi
	movq	%rax, %rsi
	callq	gen_rtx_MEM
	movq	%rax, 8(%rsp)           # 8-byte Spill
	movabsq	$svr4_dbx_register_map, %r14
	.align	16, 0x90
.LBB3_1:                                # %for.body
                                        # =>This Inner Loop Header: Depth=1
	movzbl	target_flags+3(%rip), %eax
	testq	$2, %rax
	movq	%r14, %rax
	je	.LBB3_3
# BB#2:                                 # %for.body
                                        #   in Loop: Header=BB3_1 Depth=1
	movabsq	$dbx64_register_map, %rax
.LBB3_3:                                # %for.body
                                        #   in Loop: Header=BB3_1 Depth=1
	movslq	(%rax,%rbx,4), %rax
	cmpq	$16, %rax
	jg	.LBB3_6
# BB#4:                                 # %if.then
                                        #   in Loop: Header=BB3_1 Depth=1
	movzbl	mode_size(%r15), %edx
	imulq	%rax, %rdx
	movq	$32, %rcx
	movq	%rdx, %rax
	shlq	%cl, %rax
	movq	$32, %rcx
	sarq	%cl, %rax
	testq	%rax, %rax
	js	.LBB3_6
# BB#5:                                 # %if.end
                                        #   in Loop: Header=BB3_1 Depth=1
	movslq	reg_raw_mode(,%rbx,4), %rax
	movq	$32, %rcx
	movzbl	mode_size(%rax), %r12d
	shlq	%cl, %rdx
	movq	$32, %rcx
	sarq	%cl, %rdx
	movq	$1, %rcx
	movq	$1, %r8
	movq	8(%rsp), %rdi           # 8-byte Reload
	movq	%r15, %rsi
	callq	adjust_address_1
	movq	%rax, %r13
	xorq	%rdi, %rdi
	movq	%r12, %rsi
	callq	gen_rtx_CONST_INT
	movq	%r13, %rdi
	movq	%rax, %rsi
	callq	emit_move_insn
.LBB3_6:                                # %for.inc
                                        #   in Loop: Header=BB3_1 Depth=1
	incq	%rbx
	cmpq	$53, %rbx
	jne	.LBB3_1
# BB#7:                                 # %for.end
	addq	$16, %rsp
	popq	%rbx
	popq	%r12
	popq	%r13
	popq	%r14
	popq	%r15
	retq
.Ltmp20:
	.size	expand_builtin_init_dwarf_reg_sizes, .Ltmp20-expand_builtin_init_dwarf_reg_sizes
	.cfi_endproc

	.globl	dwarf2out_cfi_label
	.align	16, 0x90
	.type	dwarf2out_cfi_label,@function
dwarf2out_cfi_label:                    # @dwarf2out_cfi_label
	.cfi_startproc
# BB#0:                                 # %entry
	pushq	%rbx
.Ltmp23:
	.cfi_def_cfa_offset 16
.Ltmp24:
	.cfi_offset %rbx, -16
	movq	dwarf2out_cfi_label.label_num(%rip), %rcx
	leaq	1(%rcx), %rax
	movq	%rax, dwarf2out_cfi_label.label_num(%rip)
	movabsq	$dwarf2out_cfi_label.label, %rbx
	movabsq	$.L.str1, %rsi
	movabsq	$.L.str2, %rdx
	xorq	%rax, %rax
	movq	%rbx, %rdi
	callq	sprintf
	movq	asm_out_file(%rip), %rdi
	movq	%rbx, %rsi
	callq	assemble_name
	movq	asm_out_file(%rip), %rcx
	movabsq	$.L.str3, %rdi
	movq	$2, %rsi
	movq	$1, %rdx
	callq	fwrite
	movq	%rbx, %rax
	popq	%rbx
	retq
.Ltmp25:
	.size	dwarf2out_cfi_label, .Ltmp25-dwarf2out_cfi_label
	.cfi_endproc

	.globl	dwarf2out_def_cfa
	.align	16, 0x90
	.type	dwarf2out_def_cfa,@function
dwarf2out_def_cfa:                      # @dwarf2out_def_cfa
	.cfi_startproc
# BB#0:                                 # %entry
	subq	$40, %rsp
.Ltmp27:
	.cfi_def_cfa_offset 48
	xorq	%rax, %rax
	movl	%eax, 32(%rsp)
	movq	$0, 24(%rsp)
	movabsq	$4294967295, %rax       # imm = 0xFFFFFFFF
	andq	%rsi, %rax
	movq	%rax, 8(%rsp)
	movq	%rdx, 16(%rsp)
	leaq	8(%rsp), %rsi
	callq	def_cfa_1
	addq	$40, %rsp
	retq
.Ltmp28:
	.size	dwarf2out_def_cfa, .Ltmp28-dwarf2out_def_cfa
	.cfi_endproc

	.align	16, 0x90
	.type	def_cfa_1,@function
def_cfa_1:                              # @def_cfa_1
	.cfi_startproc
# BB#0:                                 # %entry
	pushq	%r15
.Ltmp35:
	.cfi_def_cfa_offset 16
	pushq	%r14
.Ltmp36:
	.cfi_def_cfa_offset 24
	pushq	%r13
.Ltmp37:
	.cfi_def_cfa_offset 32
	pushq	%r12
.Ltmp38:
	.cfi_def_cfa_offset 40
	pushq	%rbx
.Ltmp39:
	.cfi_def_cfa_offset 48
	subq	$32, %rsp
.Ltmp40:
	.cfi_def_cfa_offset 80
.Ltmp41:
	.cfi_offset %rbx, -48
.Ltmp42:
	.cfi_offset %r12, -40
.Ltmp43:
	.cfi_offset %r13, -32
.Ltmp44:
	.cfi_offset %r14, -24
.Ltmp45:
	.cfi_offset %r15, -16
	movq	24(%rsi), %rax
	movq	%rax, cfa+24(%rip)
	movq	16(%rsi), %rax
	movq	%rax, cfa+16(%rip)
	movq	(%rsi), %rax
	movq	8(%rsi), %rcx
	movq	%rcx, cfa+8(%rip)
	movq	%rax, cfa(%rip)
	movq	(%rsi), %r9
	movq	8(%rsi), %rcx
	movq	16(%rsi), %rax
	movq	%rax, 8(%rsp)           # 8-byte Spill
	movq	cfa_store(%rip), %rax
	movl	24(%rsi), %esi
	movq	%rdi, (%rsp)            # 8-byte Spill
	cmpq	%r9, %rax
	jne	.LBB6_3
# BB#1:                                 # %entry
	movabsq	$4294967295, %rax       # imm = 0xFFFFFFFF
	testq	%rax, %rsi
	jne	.LBB6_3
# BB#2:                                 # %if.then
	movq	%rcx, cfa_store+8(%rip)
.LBB6_3:                                # %if.end
	movzbl	target_flags+3(%rip), %eax
	testq	$2, %rax
	je	.LBB6_4
# BB#5:                                 # %if.end
	movabsq	$dbx64_register_map, %r8
	jmp	.LBB6_6
.LBB6_4:
	movabsq	$svr4_dbx_register_map, %r8
.LBB6_6:                                # %if.end
	movq	%rcx, 16(%rsp)          # 8-byte Spill
	movq	cie_cfi_head(%rip), %rbx
	xorq	%r15, %r15
	testq	%rbx, %rbx
	movq	$-1, %r13
	je	.LBB6_7
# BB#8:
	movabsq	$4294967295, %r11       # imm = 0xFFFFFFFF
	movabsq	$.L.str226, %r12
	xorq	%r10, %r10
	xorq	%r14, %r14
	.align	16, 0x90
.LBB6_9:                                # %for.body.i
                                        # =>This Loop Header: Depth=1
                                        #     Child Loop BB6_15 Depth 2
	movl	8(%rbx), %eax
	addq	$-12, %rax
	andq	%r11, %rax
	cmpq	$3, %rax
	ja	.LBB6_103
# BB#10:                                # %for.body.i
                                        #   in Loop: Header=BB6_9 Depth=1
	jmpq	*.LJTI6_0(,%rax,8)
.LBB6_13:                               # %sw.bb3.i102
                                        #   in Loop: Header=BB6_9 Depth=1
	movq	16(%rbx), %r13
	movq	24(%rbx), %r14
	jmp	.LBB6_103
.LBB6_12:                               # %sw.bb1.i97
                                        #   in Loop: Header=BB6_9 Depth=1
	movq	16(%rbx), %r13
	jmp	.LBB6_103
.LBB6_11:                               # %sw.bb.i94
                                        #   in Loop: Header=BB6_9 Depth=1
	movq	16(%rbx), %r14
	jmp	.LBB6_103
.LBB6_14:                               # %sw.bb9.i110
                                        #   in Loop: Header=BB6_9 Depth=1
	movq	16(%rbx), %rax
	xorq	%rdi, %rdi
	testq	%rax, %rax
	movq	$-1, %r13
	movabsq	$0, %r10
	movabsq	$0, %r14
	movabsq	$0, %r15
	je	.LBB6_103
	jmp	.LBB6_15
.LBB6_21:                               # %sw.bb22.i.i128
                                        #   in Loop: Header=BB6_15 Depth=2
	movq	24(%rax), %r14
	jmp	.LBB6_101
.LBB6_100:                              # %sw.bb2.i.i118
                                        #   in Loop: Header=BB6_15 Depth=2
	movq	24(%rax), %r13
	jmp	.LBB6_101
.LBB6_20:                               # %sw.bb12.i.i125
                                        #   in Loop: Header=BB6_15 Depth=2
	movq	24(%rax), %r13
	movq	48(%rax), %r10
.LBB6_101:                              # %for.inc.i.i210
                                        #   in Loop: Header=BB6_15 Depth=2
	movq	%rdi, %r15
	jmp	.LBB6_102
	.align	16, 0x90
.LBB6_15:                               # %for.body.i.i113
                                        #   Parent Loop BB6_9 Depth=1
                                        # =>  This Inner Loop Header: Depth=2
	movl	8(%rax), %ecx
	leaq	-3(%rcx), %rdx
	andq	%r11, %rdx
	cmpq	$147, %rdx
	ja	.LBB6_93
# BB#16:                                # %for.body.i.i113
                                        #   in Loop: Header=BB6_15 Depth=2
	movq	$1, %r15
	jmpq	*.LJTI6_1(,%rdx,8)
.LBB6_17:                               # %sw.bb.i.i116
                                        #   in Loop: Header=BB6_15 Depth=2
	addq	$-80, %rcx
	jmp	.LBB6_18
	.align	16, 0x90
.LBB6_19:                               # %sw.bb4.i.i122
                                        #   in Loop: Header=BB6_15 Depth=2
	movq	24(%rax), %r10
	addq	$-112, %rcx
.LBB6_18:                               # %for.inc.i.i210
                                        #   in Loop: Header=BB6_15 Depth=2
	andq	%r11, %rcx
	movq	%rdi, %r15
	movq	%rcx, %r13
.LBB6_102:                              # %for.inc.i.i210
                                        #   in Loop: Header=BB6_15 Depth=2
	movq	(%rax), %rax
	testq	%rax, %rax
	movq	%r15, %rdi
	jne	.LBB6_15
	.align	16, 0x90
.LBB6_103:                              # %lookup_cfa_1.exit211
                                        #   in Loop: Header=BB6_9 Depth=1
	movq	(%rbx), %rbx
	testq	%rbx, %rbx
	jne	.LBB6_9
	jmp	.LBB6_104
.LBB6_7:
	xorq	%r10, %r10
	xorq	%r14, %r14
.LBB6_104:                              # %for.end.i
	movl	fde_table_in_use(%rip), %eax
	testq	%rax, %rax
	je	.LBB6_200
# BB#105:                               # %if.then.i
	decq	%rax
	movq	fde_table(%rip), %rcx
	movabsq	$4294967295, %r11       # imm = 0xFFFFFFFF
	andq	%r11, %rax
	leaq	(%rax,%rax,4), %rax
	movq	24(%rcx,%rax,8), %rcx
	testq	%rcx, %rcx
	je	.LBB6_200
# BB#106:
	movabsq	$.L.str226, %r12
	.align	16, 0x90
.LBB6_107:                              # %for.body4.i
                                        # =>This Loop Header: Depth=1
                                        #     Child Loop BB6_113 Depth 2
	movl	8(%rcx), %eax
	addq	$-12, %rax
	andq	%r11, %rax
	cmpq	$3, %rax
	ja	.LBB6_199
# BB#108:                               # %for.body4.i
                                        #   in Loop: Header=BB6_107 Depth=1
	jmpq	*.LJTI6_2(,%rax,8)
.LBB6_111:                              # %sw.bb3.i
                                        #   in Loop: Header=BB6_107 Depth=1
	movq	16(%rcx), %r13
	movq	24(%rcx), %r14
	jmp	.LBB6_199
.LBB6_110:                              # %sw.bb1.i
                                        #   in Loop: Header=BB6_107 Depth=1
	movq	16(%rcx), %r13
	jmp	.LBB6_199
.LBB6_109:                              # %sw.bb.i
                                        #   in Loop: Header=BB6_107 Depth=1
	movq	16(%rcx), %r14
	jmp	.LBB6_199
.LBB6_112:                              # %sw.bb9.i
                                        #   in Loop: Header=BB6_107 Depth=1
	movq	16(%rcx), %rax
	xorq	%rdi, %rdi
	testq	%rax, %rax
	movq	$-1, %r13
	movabsq	$0, %r10
	movabsq	$0, %r14
	movabsq	$0, %r15
	je	.LBB6_199
	jmp	.LBB6_113
.LBB6_119:                              # %sw.bb22.i.i
                                        #   in Loop: Header=BB6_113 Depth=2
	movq	24(%rax), %r14
	jmp	.LBB6_197
.LBB6_196:                              # %sw.bb2.i.i
                                        #   in Loop: Header=BB6_113 Depth=2
	movq	24(%rax), %r13
	jmp	.LBB6_197
.LBB6_118:                              # %sw.bb12.i.i
                                        #   in Loop: Header=BB6_113 Depth=2
	movq	24(%rax), %r13
	movq	48(%rax), %r10
.LBB6_197:                              # %for.inc.i.i
                                        #   in Loop: Header=BB6_113 Depth=2
	movq	%rdi, %r15
	jmp	.LBB6_198
	.align	16, 0x90
.LBB6_113:                              # %for.body.i.i
                                        #   Parent Loop BB6_107 Depth=1
                                        # =>  This Inner Loop Header: Depth=2
	movl	8(%rax), %ebx
	leaq	-3(%rbx), %rdx
	andq	%r11, %rdx
	cmpq	$147, %rdx
	ja	.LBB6_191
# BB#114:                               # %for.body.i.i
                                        #   in Loop: Header=BB6_113 Depth=2
	movq	$1, %r15
	jmpq	*.LJTI6_3(,%rdx,8)
.LBB6_115:                              # %sw.bb.i.i
                                        #   in Loop: Header=BB6_113 Depth=2
	addq	$-80, %rbx
	jmp	.LBB6_116
	.align	16, 0x90
.LBB6_117:                              # %sw.bb4.i.i
                                        #   in Loop: Header=BB6_113 Depth=2
	movq	24(%rax), %r10
	addq	$-112, %rbx
.LBB6_116:                              # %for.inc.i.i
                                        #   in Loop: Header=BB6_113 Depth=2
	andq	%r11, %rbx
	movq	%rdi, %r15
	movq	%rbx, %r13
.LBB6_198:                              # %for.inc.i.i
                                        #   in Loop: Header=BB6_113 Depth=2
	movq	(%rax), %rax
	testq	%rax, %rax
	movq	%r15, %rdi
	jne	.LBB6_113
	.align	16, 0x90
.LBB6_199:                              # %lookup_cfa_1.exit
                                        #   in Loop: Header=BB6_107 Depth=1
	movq	(%rcx), %rcx
	testq	%rcx, %rcx
	jne	.LBB6_107
.LBB6_200:                              # %lookup_cfa.exit
	movslq	(%r8,%r9,4), %r12
	movabsq	$4294967295, %rbx       # imm = 0xFFFFFFFF
	testq	%rbx, %rsi
	movabsq	$0, %rax
	movabsq	$1, %rdx
	movq	%rax, %rcx
	jne	.LBB6_202
# BB#201:                               # %lookup_cfa.exit
	movq	%rdx, %rcx
.LBB6_202:                              # %lookup_cfa.exit
	cmpq	%r10, 8(%rsp)           # 8-byte Folded Reload
	jne	.LBB6_204
# BB#203:                               # %lookup_cfa.exit
	movq	%rdx, %rax
.LBB6_204:                              # %lookup_cfa.exit
	cmpq	%r13, %r12
	jne	.LBB6_208
# BB#205:                               # %lookup_cfa.exit
	cmpq	%r14, 16(%rsp)          # 8-byte Folded Reload
	jne	.LBB6_208
# BB#206:                               # %lookup_cfa.exit
	andq	%rbx, %r15
	movq	%rsi, %rdx
	andq	%rbx, %rdx
	cmpq	%r15, %rdx
	jne	.LBB6_208
# BB#207:                               # %lookup_cfa.exit
	orq	%rax, %rcx
	je	.LBB6_208
# BB#234:                               # %return
	addq	$32, %rsp
	popq	%rbx
	popq	%r12
	popq	%r13
	popq	%r14
	popq	%r15
	retq
.LBB6_93:                               # %sw.default.i.i.i203
	movabsq	$.L.str365, %r12
	jmp	.LBB6_99
.LBB6_208:                              # %if.end28
	movq	$32, %rdi
	movq	%rsi, %r15
	callq	xmalloc
	movq	%r15, %rcx
	movq	%rax, %r15
	cmpq	%r13, %r12
	movq	$0, (%r15)
	movq	$0, 24(%r15)
	movq	$0, 16(%r15)
	jne	.LBB6_211
# BB#209:                               # %if.end28
	testq	%rbx, %rcx
	jne	.LBB6_211
# BB#210:                               # %if.then36
	movq	$14, %rax
	movl	%eax, 8(%r15)
	movq	16(%rsp), %rax          # 8-byte Reload
	movq	%rax, 16(%r15)
	jmp	.LBB6_233
.LBB6_191:                              # %sw.default.i.i.i
	movabsq	$.L.str365, %r12
.LBB6_99:                               # %dwarf_stack_op_name.exit.i.i207
	movabsq	$.L.str497, %rdi
	xorq	%rax, %rax
	movq	%r12, %rsi
	callq	internal_error
.LBB6_211:                              # %if.else
	movq	%r15, %rdx
	addq	$16, %rdx
	movq	16(%rsp), %rax          # 8-byte Reload
	cmpq	%r14, %rax
	movq	%rax, %r14
	jne	.LBB6_215
# BB#212:                               # %if.else
	cmpq	$-1, %r13
	je	.LBB6_215
# BB#213:                               # %land.lhs.true46
	testq	%rbx, %rcx
	jne	.LBB6_217
# BB#214:                               # %if.then49
	movq	$13, %rax
	movl	%eax, 8(%r15)
	movq	%r12, 16(%r15)
	jmp	.LBB6_233
.LBB6_215:                              # %if.else53
	testq	%rbx, %rcx
	je	.LBB6_216
.LBB6_217:                              # %if.else64
	movq	%rdx, %r13
	movq	$15, %rax
	movl	%eax, 8(%r15)
	cmpq	$0, 8(%rsp)             # 8-byte Folded Reload
	je	.LBB6_221
# BB#218:                               # %if.then1.i
	andq	%r12, %rbx
	cmpq	$31, %rbx
	ja	.LBB6_220
# BB#219:                               # %if.then3.i
	addq	$112, %r12
	movq	$1, %rdi
	movq	$72, %rsi
	callq	xcalloc
	movq	%rax, %rbx
	movl	%r12d, 8(%rbx)
	movq	$6, %rax
	movl	%eax, 16(%rbx)
	movq	8(%rsp), %rcx           # 8-byte Reload
	movq	%rcx, 24(%rbx)
	jmp	.LBB6_224
.LBB6_221:                              # %if.else10.i
	andq	%r12, %rbx
	cmpq	$31, %rbx
	ja	.LBB6_223
# BB#222:                               # %if.then14.i
	addq	$80, %r12
	movq	$1, %rdi
	movq	$72, %rsi
	callq	xcalloc
	movq	%rax, %rbx
	movl	%r12d, 8(%rbx)
	movq	$6, %rax
	movl	%eax, 16(%rbx)
	movq	$0, 24(%rbx)
	jmp	.LBB6_224
.LBB6_220:                              # %if.else.i
	movq	$1, %rdi
	movq	$72, %rsi
	callq	xcalloc
	movq	%rax, %rbx
	movq	$146, %rax
	movl	%eax, 8(%rbx)
	movq	$6, %rax
	movl	%eax, 16(%rbx)
	movq	%r12, 24(%rbx)
	movl	%eax, 40(%rbx)
	movq	8(%rsp), %rax           # 8-byte Reload
	movq	%rax, 48(%rbx)
	jmp	.LBB6_225
.LBB6_216:                              # %if.then57
	movq	$12, %rax
	movl	%eax, 8(%r15)
	movq	%r12, 16(%r15)
	movq	%r14, 24(%r15)
	jmp	.LBB6_233
.LBB6_223:                              # %if.else19.i
	movq	$1, %rdi
	movq	$72, %rsi
	callq	xcalloc
	movq	%rax, %rbx
	movq	$144, %rax
	movl	%eax, 8(%rbx)
	movq	$6, %rax
	movl	%eax, 16(%rbx)
	movq	%r12, 24(%rbx)
.LBB6_224:                              # %if.end23.i
	movl	%eax, 40(%rbx)
	movq	$0, 48(%rbx)
.LBB6_225:                              # %if.end23.i
	movq	%rbx, 24(%rsp)
	movq	$5, %rax
	movl	%eax, 16(%rbx)
	movq	$1, %rdi
	movq	$72, %rsi
	callq	xcalloc
	testq	%rbx, %rbx
	movq	$6, %rcx
	movl	%ecx, 8(%rax)
	movl	%ecx, 16(%rax)
	movq	$0, 24(%rax)
	movl	%ecx, 40(%rax)
	movq	$0, 48(%rax)
	je	.LBB6_226
	.align	16, 0x90
.LBB6_227:                              # %for.cond.i.for.cond.i_crit_edge.i
                                        # =>This Inner Loop Header: Depth=1
	movq	%rbx, %rcx
	movq	(%rbx), %rbx
	testq	%rbx, %rbx
	jne	.LBB6_227
	jmp	.LBB6_228
.LBB6_226:
	leaq	24(%rsp), %rcx
.LBB6_228:                              # %add_loc_descr.exit.i
	movq	%rax, (%rcx)
	testq	%r14, %r14
	je	.LBB6_232
# BB#229:                               # %if.then27.i
	movq	$1, %rdi
	movq	$72, %rsi
	callq	xcalloc
	movq	$35, %rcx
	movl	%ecx, 8(%rax)
	movq	$6, %rcx
	movl	%ecx, 16(%rax)
	movq	%r14, 24(%rax)
	movl	%ecx, 40(%rax)
	movq	$0, 48(%rax)
	leaq	24(%rsp), %rcx
	.align	16, 0x90
.LBB6_230:                              # %for.cond.i82.i
                                        # =>This Inner Loop Header: Depth=1
	movq	%rcx, %rdx
	movq	(%rdx), %rcx
	testq	%rcx, %rcx
	jne	.LBB6_230
# BB#231:                               # %add_loc_descr.exit83.i
	movq	%rax, (%rdx)
.LBB6_232:                              # %build_cfa_loc.exit
	movq	24(%rsp), %rax
	movq	%rax, (%r13)
.LBB6_233:                              # %if.end70
	movq	(%rsp), %rdi            # 8-byte Reload
	movq	%r15, %rsi
	addq	$32, %rsp
	popq	%rbx
	popq	%r12
	popq	%r13
	popq	%r14
	popq	%r15
	jmp	add_fde_cfi  # TAILCALL
.LBB6_94:                               # %dwarf_stack_op_name.exit.loopexit.i.i204
	movabsq	$.L.str220, %r12
	jmp	.LBB6_99
.LBB6_95:                               # %dwarf_stack_op_name.exit.i.loopexit.i205
	movabsq	$.L.str222, %r12
	jmp	.LBB6_99
.LBB6_96:                               # %dwarf_stack_op_name.exit.i.i207.loopexit
	movabsq	$.L.str223, %r12
	jmp	.LBB6_99
.LBB6_97:                               # %dwarf_stack_op_name.exit.i.i207.loopexit288
	movabsq	$.L.str224, %r12
	jmp	.LBB6_99
.LBB6_22:                               # %sw.bb7.i.i.i132
	movabsq	$.L.str227, %r12
	jmp	.LBB6_99
.LBB6_23:                               # %sw.bb8.i.i.i133
	movabsq	$.L.str228, %r12
	jmp	.LBB6_99
.LBB6_24:                               # %sw.bb9.i.i.i134
	movabsq	$.L.str229, %r12
	jmp	.LBB6_99
.LBB6_25:                               # %sw.bb10.i.i.i135
	movabsq	$.L.str230, %r12
	jmp	.LBB6_99
.LBB6_26:                               # %sw.bb11.i.i.i136
	movabsq	$.L.str231, %r12
	jmp	.LBB6_99
.LBB6_27:                               # %sw.bb12.i.i.i137
	movabsq	$.L.str232, %r12
	jmp	.LBB6_99
.LBB6_28:                               # %sw.bb13.i.i.i138
	movabsq	$.L.str233, %r12
	jmp	.LBB6_99
.LBB6_29:                               # %sw.bb14.i.i.i139
	movabsq	$.L.str234, %r12
	jmp	.LBB6_99
.LBB6_30:                               # %sw.bb15.i.i.i140
	movabsq	$.L.str235, %r12
	jmp	.LBB6_99
.LBB6_31:                               # %sw.bb16.i.i.i141
	movabsq	$.L.str236, %r12
	jmp	.LBB6_99
.LBB6_32:                               # %sw.bb17.i.i.i142
	movabsq	$.L.str237, %r12
	jmp	.LBB6_99
.LBB6_33:                               # %sw.bb18.i.i.i143
	movabsq	$.L.str238, %r12
	jmp	.LBB6_99
.LBB6_34:                               # %sw.bb19.i.i.i144
	movabsq	$.L.str239, %r12
	jmp	.LBB6_99
.LBB6_35:                               # %sw.bb20.i.i.i145
	movabsq	$.L.str240, %r12
	jmp	.LBB6_99
.LBB6_36:                               # %sw.bb21.i.i.i146
	movabsq	$.L.str241, %r12
	jmp	.LBB6_99
.LBB6_37:                               # %sw.bb22.i.i.i147
	movabsq	$.L.str242, %r12
	jmp	.LBB6_99
.LBB6_38:                               # %sw.bb23.i.i.i148
	movabsq	$.L.str243, %r12
	jmp	.LBB6_99
.LBB6_39:                               # %sw.bb24.i.i.i149
	movabsq	$.L.str244, %r12
	jmp	.LBB6_99
.LBB6_40:                               # %sw.bb25.i.i.i150
	movabsq	$.L.str245, %r12
	jmp	.LBB6_99
.LBB6_41:                               # %sw.bb26.i.i.i151
	movabsq	$.L.str246, %r12
	jmp	.LBB6_99
.LBB6_42:                               # %sw.bb27.i.i.i152
	movabsq	$.L.str247, %r12
	jmp	.LBB6_99
.LBB6_43:                               # %sw.bb28.i.i.i153
	movabsq	$.L.str248, %r12
	jmp	.LBB6_99
.LBB6_44:                               # %sw.bb30.i.i.i154
	movabsq	$.L.str250, %r12
	jmp	.LBB6_99
.LBB6_45:                               # %sw.bb31.i.i.i155
	movabsq	$.L.str251, %r12
	jmp	.LBB6_99
.LBB6_46:                               # %sw.bb32.i.i.i156
	movabsq	$.L.str252, %r12
	jmp	.LBB6_99
.LBB6_47:                               # %sw.bb33.i.i.i157
	movabsq	$.L.str253, %r12
	jmp	.LBB6_99
.LBB6_48:                               # %sw.bb34.i.i.i158
	movabsq	$.L.str254, %r12
	jmp	.LBB6_99
.LBB6_49:                               # %sw.bb35.i.i.i159
	movabsq	$.L.str255, %r12
	jmp	.LBB6_99
.LBB6_50:                               # %sw.bb36.i.i.i160
	movabsq	$.L.str256, %r12
	jmp	.LBB6_99
.LBB6_51:                               # %sw.bb37.i.i.i161
	movabsq	$.L.str257, %r12
	jmp	.LBB6_99
.LBB6_52:                               # %sw.bb38.i.i.i162
	movabsq	$.L.str258, %r12
	jmp	.LBB6_99
.LBB6_53:                               # %sw.bb39.i.i.i163
	movabsq	$.L.str259, %r12
	jmp	.LBB6_99
.LBB6_54:                               # %sw.bb40.i.i.i164
	movabsq	$.L.str260, %r12
	jmp	.LBB6_99
.LBB6_55:                               # %sw.bb41.i.i.i165
	movabsq	$.L.str261, %r12
	jmp	.LBB6_99
.LBB6_56:                               # %sw.bb42.i.i.i166
	movabsq	$.L.str262, %r12
	jmp	.LBB6_99
.LBB6_57:                               # %sw.bb43.i.i.i167
	movabsq	$.L.str263, %r12
	jmp	.LBB6_99
.LBB6_58:                               # %sw.bb44.i.i.i168
	movabsq	$.L.str264, %r12
	jmp	.LBB6_99
.LBB6_59:                               # %sw.bb45.i.i.i169
	movabsq	$.L.str265, %r12
	jmp	.LBB6_99
.LBB6_60:                               # %sw.bb46.i.i.i170
	movabsq	$.L.str266, %r12
	jmp	.LBB6_99
.LBB6_61:                               # %sw.bb47.i.i.i171
	movabsq	$.L.str267, %r12
	jmp	.LBB6_99
.LBB6_62:                               # %sw.bb48.i.i.i172
	movabsq	$.L.str268, %r12
	jmp	.LBB6_99
.LBB6_63:                               # %sw.bb49.i.i.i173
	movabsq	$.L.str269, %r12
	jmp	.LBB6_99
.LBB6_64:                               # %sw.bb50.i.i.i174
	movabsq	$.L.str270, %r12
	jmp	.LBB6_99
.LBB6_65:                               # %sw.bb51.i.i.i175
	movabsq	$.L.str271, %r12
	jmp	.LBB6_99
.LBB6_66:                               # %sw.bb52.i.i.i176
	movabsq	$.L.str272, %r12
	jmp	.LBB6_99
.LBB6_67:                               # %sw.bb53.i.i.i177
	movabsq	$.L.str273, %r12
	jmp	.LBB6_99
.LBB6_68:                               # %sw.bb54.i.i.i178
	movabsq	$.L.str274, %r12
	jmp	.LBB6_99
.LBB6_69:                               # %sw.bb55.i.i.i179
	movabsq	$.L.str275, %r12
	jmp	.LBB6_99
.LBB6_70:                               # %sw.bb56.i.i.i180
	movabsq	$.L.str276, %r12
	jmp	.LBB6_99
.LBB6_71:                               # %sw.bb57.i.i.i181
	movabsq	$.L.str277, %r12
	jmp	.LBB6_99
.LBB6_72:                               # %sw.bb58.i.i.i182
	movabsq	$.L.str278, %r12
	jmp	.LBB6_99
.LBB6_73:                               # %sw.bb59.i.i.i183
	movabsq	$.L.str279, %r12
	jmp	.LBB6_99
.LBB6_74:                               # %sw.bb60.i.i.i184
	movabsq	$.L.str280, %r12
	jmp	.LBB6_99
.LBB6_75:                               # %sw.bb61.i.i.i185
	movabsq	$.L.str281, %r12
	jmp	.LBB6_99
.LBB6_76:                               # %sw.bb62.i.i.i186
	movabsq	$.L.str282, %r12
	jmp	.LBB6_99
.LBB6_77:                               # %sw.bb63.i.i.i187
	movabsq	$.L.str283, %r12
	jmp	.LBB6_99
.LBB6_78:                               # %sw.bb64.i.i.i188
	movabsq	$.L.str284, %r12
	jmp	.LBB6_99
.LBB6_79:                               # %sw.bb65.i.i.i189
	movabsq	$.L.str285, %r12
	jmp	.LBB6_99
.LBB6_80:                               # %sw.bb66.i.i.i190
	movabsq	$.L.str286, %r12
	jmp	.LBB6_99
.LBB6_81:                               # %sw.bb67.i.i.i191
	movabsq	$.L.str287, %r12
	jmp	.LBB6_99
.LBB6_82:                               # %sw.bb68.i.i.i192
	movabsq	$.L.str288, %r12
	jmp	.LBB6_99
.LBB6_83:                               # %sw.bb69.i.i.i193
	movabsq	$.L.str289, %r12
	jmp	.LBB6_99
.LBB6_84:                               # %sw.bb70.i.i.i194
	movabsq	$.L.str290, %r12
	jmp	.LBB6_99
.LBB6_85:                               # %sw.bb71.i.i.i195
	movabsq	$.L.str291, %r12
	jmp	.LBB6_99
.LBB6_86:                               # %sw.bb72.i.i.i196
	movabsq	$.L.str292, %r12
	jmp	.LBB6_99
.LBB6_87:                               # %sw.bb73.i.i.i197
	movabsq	$.L.str293, %r12
	jmp	.LBB6_99
.LBB6_88:                               # %sw.bb139.i.i.i198
	movabsq	$.L.str359, %r12
	jmp	.LBB6_99
.LBB6_89:                               # %sw.bb141.i.i.i199
	movabsq	$.L.str361, %r12
	jmp	.LBB6_99
.LBB6_90:                               # %sw.bb142.i.i.i200
	movabsq	$.L.str362, %r12
	jmp	.LBB6_99
.LBB6_91:                               # %sw.bb143.i.i.i201
	movabsq	$.L.str363, %r12
	jmp	.LBB6_99
.LBB6_92:                               # %sw.bb144.i.i.i202
	movabsq	$.L.str364, %r12
	jmp	.LBB6_99
.LBB6_192:                              # %dwarf_stack_op_name.exit.loopexit.i.i
	movabsq	$.L.str220, %r12
	jmp	.LBB6_99
.LBB6_193:                              # %dwarf_stack_op_name.exit.i.loopexit.i
	movabsq	$.L.str222, %r12
	jmp	.LBB6_99
.LBB6_194:                              # %dwarf_stack_op_name.exit.i.i.loopexit
	movabsq	$.L.str223, %r12
	jmp	.LBB6_99
.LBB6_195:                              # %dwarf_stack_op_name.exit.i.i.loopexit287
	movabsq	$.L.str224, %r12
	jmp	.LBB6_99
.LBB6_98:                               # %dwarf_stack_op_name.exit.i.i207.loopexit2
	movabsq	$.L.str225, %r12
	jmp	.LBB6_99
.LBB6_120:                              # %sw.bb7.i.i.i
	movabsq	$.L.str227, %r12
	jmp	.LBB6_99
.LBB6_121:                              # %sw.bb8.i.i.i
	movabsq	$.L.str228, %r12
	jmp	.LBB6_99
.LBB6_122:                              # %sw.bb9.i.i.i
	movabsq	$.L.str229, %r12
	jmp	.LBB6_99
.LBB6_123:                              # %sw.bb10.i.i.i
	movabsq	$.L.str230, %r12
	jmp	.LBB6_99
.LBB6_124:                              # %sw.bb11.i.i.i
	movabsq	$.L.str231, %r12
	jmp	.LBB6_99
.LBB6_125:                              # %sw.bb12.i.i.i
	movabsq	$.L.str232, %r12
	jmp	.LBB6_99
.LBB6_126:                              # %sw.bb13.i.i.i
	movabsq	$.L.str233, %r12
	jmp	.LBB6_99
.LBB6_127:                              # %sw.bb14.i.i.i
	movabsq	$.L.str234, %r12
	jmp	.LBB6_99
.LBB6_128:                              # %sw.bb15.i.i.i
	movabsq	$.L.str235, %r12
	jmp	.LBB6_99
.LBB6_129:                              # %sw.bb16.i.i.i
	movabsq	$.L.str236, %r12
	jmp	.LBB6_99
.LBB6_130:                              # %sw.bb17.i.i.i
	movabsq	$.L.str237, %r12
	jmp	.LBB6_99
.LBB6_131:                              # %sw.bb18.i.i.i
	movabsq	$.L.str238, %r12
	jmp	.LBB6_99
.LBB6_132:                              # %sw.bb19.i.i.i
	movabsq	$.L.str239, %r12
	jmp	.LBB6_99
.LBB6_133:                              # %sw.bb20.i.i.i
	movabsq	$.L.str240, %r12
	jmp	.LBB6_99
.LBB6_134:                              # %sw.bb21.i.i.i
	movabsq	$.L.str241, %r12
	jmp	.LBB6_99
.LBB6_135:                              # %sw.bb22.i.i.i
	movabsq	$.L.str242, %r12
	jmp	.LBB6_99
.LBB6_136:                              # %sw.bb23.i.i.i
	movabsq	$.L.str243, %r12
	jmp	.LBB6_99
.LBB6_137:                              # %sw.bb24.i.i.i
	movabsq	$.L.str244, %r12
	jmp	.LBB6_99
.LBB6_138:                              # %sw.bb25.i.i.i
	movabsq	$.L.str245, %r12
	jmp	.LBB6_99
.LBB6_139:                              # %sw.bb26.i.i.i
	movabsq	$.L.str246, %r12
	jmp	.LBB6_99
.LBB6_140:                              # %sw.bb27.i.i.i
	movabsq	$.L.str247, %r12
	jmp	.LBB6_99
.LBB6_141:                              # %sw.bb28.i.i.i
	movabsq	$.L.str248, %r12
	jmp	.LBB6_99
.LBB6_142:                              # %sw.bb30.i.i.i
	movabsq	$.L.str250, %r12
	jmp	.LBB6_99
.LBB6_143:                              # %sw.bb31.i.i.i
	movabsq	$.L.str251, %r12
	jmp	.LBB6_99
.LBB6_144:                              # %sw.bb32.i.i.i
	movabsq	$.L.str252, %r12
	jmp	.LBB6_99
.LBB6_145:                              # %sw.bb33.i.i.i
	movabsq	$.L.str253, %r12
	jmp	.LBB6_99
.LBB6_146:                              # %sw.bb34.i.i.i
	movabsq	$.L.str254, %r12
	jmp	.LBB6_99
.LBB6_147:                              # %sw.bb35.i.i.i
	movabsq	$.L.str255, %r12
	jmp	.LBB6_99
.LBB6_148:                              # %sw.bb36.i.i.i
	movabsq	$.L.str256, %r12
	jmp	.LBB6_99
.LBB6_149:                              # %sw.bb37.i.i.i
	movabsq	$.L.str257, %r12
	jmp	.LBB6_99
.LBB6_150:                              # %sw.bb38.i.i.i
	movabsq	$.L.str258, %r12
	jmp	.LBB6_99
.LBB6_151:                              # %sw.bb39.i.i.i
	movabsq	$.L.str259, %r12
	jmp	.LBB6_99
.LBB6_152:                              # %sw.bb40.i.i.i
	movabsq	$.L.str260, %r12
	jmp	.LBB6_99
.LBB6_153:                              # %sw.bb41.i.i.i
	movabsq	$.L.str261, %r12
	jmp	.LBB6_99
.LBB6_154:                              # %sw.bb42.i.i.i
	movabsq	$.L.str262, %r12
	jmp	.LBB6_99
.LBB6_155:                              # %sw.bb43.i.i.i
	movabsq	$.L.str263, %r12
	jmp	.LBB6_99
.LBB6_156:                              # %sw.bb44.i.i.i
	movabsq	$.L.str264, %r12
	jmp	.LBB6_99
.LBB6_157:                              # %sw.bb45.i.i.i
	movabsq	$.L.str265, %r12
	jmp	.LBB6_99
.LBB6_158:                              # %sw.bb46.i.i.i
	movabsq	$.L.str266, %r12
	jmp	.LBB6_99
.LBB6_159:                              # %sw.bb47.i.i.i
	movabsq	$.L.str267, %r12
	jmp	.LBB6_99
.LBB6_160:                              # %sw.bb48.i.i.i
	movabsq	$.L.str268, %r12
	jmp	.LBB6_99
.LBB6_161:                              # %sw.bb49.i.i.i
	movabsq	$.L.str269, %r12
	jmp	.LBB6_99
.LBB6_162:                              # %sw.bb50.i.i.i
	movabsq	$.L.str270, %r12
	jmp	.LBB6_99
.LBB6_163:                              # %sw.bb51.i.i.i
	movabsq	$.L.str271, %r12
	jmp	.LBB6_99
.LBB6_164:                              # %sw.bb52.i.i.i
	movabsq	$.L.str272, %r12
	jmp	.LBB6_99
.LBB6_165:                              # %sw.bb53.i.i.i
	movabsq	$.L.str273, %r12
	jmp	.LBB6_99
.LBB6_166:                              # %sw.bb54.i.i.i
	movabsq	$.L.str274, %r12
	jmp	.LBB6_99
.LBB6_167:                              # %sw.bb55.i.i.i
	movabsq	$.L.str275, %r12
	jmp	.LBB6_99
.LBB6_168:                              # %sw.bb56.i.i.i
	movabsq	$.L.str276, %r12
	jmp	.LBB6_99
.LBB6_169:                              # %sw.bb57.i.i.i
	movabsq	$.L.str277, %r12
	jmp	.LBB6_99
.LBB6_170:                              # %sw.bb58.i.i.i
	movabsq	$.L.str278, %r12
	jmp	.LBB6_99
.LBB6_171:                              # %sw.bb59.i.i.i
	movabsq	$.L.str279, %r12
	jmp	.LBB6_99
.LBB6_172:                              # %sw.bb60.i.i.i
	movabsq	$.L.str280, %r12
	jmp	.LBB6_99
.LBB6_173:                              # %sw.bb61.i.i.i
	movabsq	$.L.str281, %r12
	jmp	.LBB6_99
.LBB6_174:                              # %sw.bb62.i.i.i
	movabsq	$.L.str282, %r12
	jmp	.LBB6_99
.LBB6_175:                              # %sw.bb63.i.i.i
	movabsq	$.L.str283, %r12
	jmp	.LBB6_99
.LBB6_176:                              # %sw.bb64.i.i.i
	movabsq	$.L.str284, %r12
	jmp	.LBB6_99
.LBB6_177:                              # %sw.bb65.i.i.i
	movabsq	$.L.str285, %r12
	jmp	.LBB6_99
.LBB6_178:                              # %sw.bb66.i.i.i
	movabsq	$.L.str286, %r12
	jmp	.LBB6_99
.LBB6_179:                              # %sw.bb67.i.i.i
	movabsq	$.L.str287, %r12
	jmp	.LBB6_99
.LBB6_180:                              # %sw.bb68.i.i.i
	movabsq	$.L.str288, %r12
	jmp	.LBB6_99
.LBB6_181:                              # %sw.bb69.i.i.i
	movabsq	$.L.str289, %r12
	jmp	.LBB6_99
.LBB6_182:                              # %sw.bb70.i.i.i
	movabsq	$.L.str290, %r12
	jmp	.LBB6_99
.LBB6_183:                              # %sw.bb71.i.i.i
	movabsq	$.L.str291, %r12
	jmp	.LBB6_99
.LBB6_184:                              # %sw.bb72.i.i.i
	movabsq	$.L.str292, %r12
	jmp	.LBB6_99
.LBB6_185:                              # %sw.bb73.i.i.i
	movabsq	$.L.str293, %r12
	jmp	.LBB6_99
.LBB6_186:                              # %sw.bb139.i.i.i
	movabsq	$.L.str359, %r12
	jmp	.LBB6_99
.LBB6_187:                              # %sw.bb141.i.i.i
	movabsq	$.L.str361, %r12
	jmp	.LBB6_99
.LBB6_188:                              # %sw.bb142.i.i.i
	movabsq	$.L.str362, %r12
	jmp	.LBB6_99
.LBB6_189:                              # %sw.bb143.i.i.i
	movabsq	$.L.str363, %r12
	jmp	.LBB6_99
.LBB6_190:                              # %sw.bb144.i.i.i
	movabsq	$.L.str364, %r12
	jmp	.LBB6_99
.Ltmp46:
	.size	def_cfa_1, .Ltmp46-def_cfa_1
	.cfi_endproc
	.section	.rodata,"a",@progbits
	.align	8
.LJTI6_0:
	.quad	.LBB6_13
	.quad	.LBB6_12
	.quad	.LBB6_11
	.quad	.LBB6_14
.LJTI6_1:
	.quad	.LBB6_94
	.quad	.LBB6_93
	.quad	.LBB6_93
	.quad	.LBB6_102
	.quad	.LBB6_93
	.quad	.LBB6_95
	.quad	.LBB6_96
	.quad	.LBB6_97
	.quad	.LBB6_98
	.quad	.LBB6_99
	.quad	.LBB6_22
	.quad	.LBB6_23
	.quad	.LBB6_24
	.quad	.LBB6_25
	.quad	.LBB6_26
	.quad	.LBB6_27
	.quad	.LBB6_28
	.quad	.LBB6_29
	.quad	.LBB6_30
	.quad	.LBB6_31
	.quad	.LBB6_32
	.quad	.LBB6_33
	.quad	.LBB6_34
	.quad	.LBB6_35
	.quad	.LBB6_36
	.quad	.LBB6_37
	.quad	.LBB6_38
	.quad	.LBB6_39
	.quad	.LBB6_40
	.quad	.LBB6_41
	.quad	.LBB6_42
	.quad	.LBB6_43
	.quad	.LBB6_21
	.quad	.LBB6_44
	.quad	.LBB6_45
	.quad	.LBB6_46
	.quad	.LBB6_47
	.quad	.LBB6_48
	.quad	.LBB6_49
	.quad	.LBB6_50
	.quad	.LBB6_51
	.quad	.LBB6_52
	.quad	.LBB6_53
	.quad	.LBB6_54
	.quad	.LBB6_55
	.quad	.LBB6_56
	.quad	.LBB6_57
	.quad	.LBB6_58
	.quad	.LBB6_59
	.quad	.LBB6_60
	.quad	.LBB6_61
	.quad	.LBB6_62
	.quad	.LBB6_63
	.quad	.LBB6_64
	.quad	.LBB6_65
	.quad	.LBB6_66
	.quad	.LBB6_67
	.quad	.LBB6_68
	.quad	.LBB6_69
	.quad	.LBB6_70
	.quad	.LBB6_71
	.quad	.LBB6_72
	.quad	.LBB6_73
	.quad	.LBB6_74
	.quad	.LBB6_75
	.quad	.LBB6_76
	.quad	.LBB6_77
	.quad	.LBB6_78
	.quad	.LBB6_79
	.quad	.LBB6_80
	.quad	.LBB6_81
	.quad	.LBB6_82
	.quad	.LBB6_83
	.quad	.LBB6_84
	.quad	.LBB6_85
	.quad	.LBB6_86
	.quad	.LBB6_87
	.quad	.LBB6_17
	.quad	.LBB6_17
	.quad	.LBB6_17
	.quad	.LBB6_17
	.quad	.LBB6_17
	.quad	.LBB6_17
	.quad	.LBB6_17
	.quad	.LBB6_17
	.quad	.LBB6_17
	.quad	.LBB6_17
	.quad	.LBB6_17
	.quad	.LBB6_17
	.quad	.LBB6_17
	.quad	.LBB6_17
	.quad	.LBB6_17
	.quad	.LBB6_17
	.quad	.LBB6_17
	.quad	.LBB6_17
	.quad	.LBB6_17
	.quad	.LBB6_17
	.quad	.LBB6_17
	.quad	.LBB6_17
	.quad	.LBB6_17
	.quad	.LBB6_17
	.quad	.LBB6_17
	.quad	.LBB6_17
	.quad	.LBB6_17
	.quad	.LBB6_17
	.quad	.LBB6_17
	.quad	.LBB6_17
	.quad	.LBB6_17
	.quad	.LBB6_17
	.quad	.LBB6_19
	.quad	.LBB6_19
	.quad	.LBB6_19
	.quad	.LBB6_19
	.quad	.LBB6_19
	.quad	.LBB6_19
	.quad	.LBB6_19
	.quad	.LBB6_19
	.quad	.LBB6_19
	.quad	.LBB6_19
	.quad	.LBB6_19
	.quad	.LBB6_19
	.quad	.LBB6_19
	.quad	.LBB6_19
	.quad	.LBB6_19
	.quad	.LBB6_19
	.quad	.LBB6_19
	.quad	.LBB6_19
	.quad	.LBB6_19
	.quad	.LBB6_19
	.quad	.LBB6_19
	.quad	.LBB6_19
	.quad	.LBB6_19
	.quad	.LBB6_19
	.quad	.LBB6_19
	.quad	.LBB6_19
	.quad	.LBB6_19
	.quad	.LBB6_19
	.quad	.LBB6_19
	.quad	.LBB6_19
	.quad	.LBB6_19
	.quad	.LBB6_19
	.quad	.LBB6_100
	.quad	.LBB6_88
	.quad	.LBB6_20
	.quad	.LBB6_89
	.quad	.LBB6_90
	.quad	.LBB6_91
	.quad	.LBB6_92
.LJTI6_2:
	.quad	.LBB6_111
	.quad	.LBB6_110
	.quad	.LBB6_109
	.quad	.LBB6_112
.LJTI6_3:
	.quad	.LBB6_192
	.quad	.LBB6_191
	.quad	.LBB6_191
	.quad	.LBB6_198
	.quad	.LBB6_191
	.quad	.LBB6_193
	.quad	.LBB6_194
	.quad	.LBB6_195
	.quad	.LBB6_98
	.quad	.LBB6_99
	.quad	.LBB6_120
	.quad	.LBB6_121
	.quad	.LBB6_122
	.quad	.LBB6_123
	.quad	.LBB6_124
	.quad	.LBB6_125
	.quad	.LBB6_126
	.quad	.LBB6_127
	.quad	.LBB6_128
	.quad	.LBB6_129
	.quad	.LBB6_130
	.quad	.LBB6_131
	.quad	.LBB6_132
	.quad	.LBB6_133
	.quad	.LBB6_134
	.quad	.LBB6_135
	.quad	.LBB6_136
	.quad	.LBB6_137
	.quad	.LBB6_138
	.quad	.LBB6_139
	.quad	.LBB6_140
	.quad	.LBB6_141
	.quad	.LBB6_119
	.quad	.LBB6_142
	.quad	.LBB6_143
	.quad	.LBB6_144
	.quad	.LBB6_145
	.quad	.LBB6_146
	.quad	.LBB6_147
	.quad	.LBB6_148
	.quad	.LBB6_149
	.quad	.LBB6_150
	.quad	.LBB6_151
	.quad	.LBB6_152
	.quad	.LBB6_153
	.quad	.LBB6_154
	.quad	.LBB6_155
	.quad	.LBB6_156
	.quad	.LBB6_157
	.quad	.LBB6_158
	.quad	.LBB6_159
	.quad	.LBB6_160
	.quad	.LBB6_161
	.quad	.LBB6_162
	.quad	.LBB6_163
	.quad	.LBB6_164
	.quad	.LBB6_165
	.quad	.LBB6_166
	.quad	.LBB6_167
	.quad	.LBB6_168
	.quad	.LBB6_169
	.quad	.LBB6_170
	.quad	.LBB6_171
	.quad	.LBB6_172
	.quad	.LBB6_173
	.quad	.LBB6_174
	.quad	.LBB6_175
	.quad	.LBB6_176
	.quad	.LBB6_177
	.quad	.LBB6_178
	.quad	.LBB6_179
	.quad	.LBB6_180
	.quad	.LBB6_181
	.quad	.LBB6_182
	.quad	.LBB6_183
	.quad	.LBB6_184
	.quad	.LBB6_185
	.quad	.LBB6_115
	.quad	.LBB6_115
	.quad	.LBB6_115
	.quad	.LBB6_115
	.quad	.LBB6_115
	.quad	.LBB6_115
	.quad	.LBB6_115
	.quad	.LBB6_115
	.quad	.LBB6_115
	.quad	.LBB6_115
	.quad	.LBB6_115
	.quad	.LBB6_115
	.quad	.LBB6_115
	.quad	.LBB6_115
	.quad	.LBB6_115
	.quad	.LBB6_115
	.quad	.LBB6_115
	.quad	.LBB6_115
	.quad	.LBB6_115
	.quad	.LBB6_115
	.quad	.LBB6_115
	.quad	.LBB6_115
	.quad	.LBB6_115
	.quad	.LBB6_115
	.quad	.LBB6_115
	.quad	.LBB6_115
	.quad	.LBB6_115
	.quad	.LBB6_115
	.quad	.LBB6_115
	.quad	.LBB6_115
	.quad	.LBB6_115
	.quad	.LBB6_115
	.quad	.LBB6_117
	.quad	.LBB6_117
	.quad	.LBB6_117
	.quad	.LBB6_117
	.quad	.LBB6_117
	.quad	.LBB6_117
	.quad	.LBB6_117
	.quad	.LBB6_117
	.quad	.LBB6_117
	.quad	.LBB6_117
	.quad	.LBB6_117
	.quad	.LBB6_117
	.quad	.LBB6_117
	.quad	.LBB6_117
	.quad	.LBB6_117
	.quad	.LBB6_117
	.quad	.LBB6_117
	.quad	.LBB6_117
	.quad	.LBB6_117
	.quad	.LBB6_117
	.quad	.LBB6_117
	.quad	.LBB6_117
	.quad	.LBB6_117
	.quad	.LBB6_117
	.quad	.LBB6_117
	.quad	.LBB6_117
	.quad	.LBB6_117
	.quad	.LBB6_117
	.quad	.LBB6_117
	.quad	.LBB6_117
	.quad	.LBB6_117
	.quad	.LBB6_117
	.quad	.LBB6_196
	.quad	.LBB6_186
	.quad	.LBB6_118
	.quad	.LBB6_187
	.quad	.LBB6_188
	.quad	.LBB6_189
	.quad	.LBB6_190

	.text
	.globl	dwarf2out_window_save
	.align	16, 0x90
	.type	dwarf2out_window_save,@function
dwarf2out_window_save:                  # @dwarf2out_window_save
	.cfi_startproc
# BB#0:                                 # %entry
	pushq	%rbx
.Ltmp49:
	.cfi_def_cfa_offset 16
.Ltmp50:
	.cfi_offset %rbx, -16
	movq	%rdi, %rbx
	movq	$32, %rdi
	callq	xmalloc
	movq	$0, (%rax)
	movq	$0, 24(%rax)
	movq	$0, 16(%rax)
	movq	$45, %rcx
	movl	%ecx, 8(%rax)
	movq	%rbx, %rdi
	movq	%rax, %rsi
	popq	%rbx
	jmp	add_fde_cfi  # TAILCALL
.Ltmp51:
	.size	dwarf2out_window_save, .Ltmp51-dwarf2out_window_save
	.cfi_endproc

	.align	16, 0x90
	.type	add_fde_cfi,@function
add_fde_cfi:                            # @add_fde_cfi
	.cfi_startproc
# BB#0:                                 # %entry
	pushq	%r15
.Ltmp58:
	.cfi_def_cfa_offset 16
	pushq	%r14
.Ltmp59:
	.cfi_def_cfa_offset 24
	pushq	%r13
.Ltmp60:
	.cfi_def_cfa_offset 32
	pushq	%r12
.Ltmp61:
	.cfi_def_cfa_offset 40
	pushq	%rbx
.Ltmp62:
	.cfi_def_cfa_offset 48
	subq	$16, %rsp
.Ltmp63:
	.cfi_def_cfa_offset 64
.Ltmp64:
	.cfi_offset %rbx, -48
.Ltmp65:
	.cfi_offset %r12, -40
.Ltmp66:
	.cfi_offset %r13, -32
.Ltmp67:
	.cfi_offset %r14, -24
.Ltmp68:
	.cfi_offset %r15, -16
	movq	%rsi, %r14
	movq	%rdi, %r13
	testq	%r13, %r13
	je	.LBB8_1
# BB#4:                                 # %if.then
	movl	fde_table_in_use(%rip), %ebx
	decq	%rbx
	movzbl	(%r13), %eax
	movq	fde_table(%rip), %r15
	movabsq	$4294967295, %rcx       # imm = 0xFFFFFFFF
	andq	%rcx, %rbx
	testq	%rax, %rax
	jne	.LBB8_6
# BB#5:                                 # %if.then2
	movq	dwarf2out_cfi_label.label_num(%rip), %rcx
	leaq	1(%rcx), %rax
	movq	%rax, dwarf2out_cfi_label.label_num(%rip)
	movabsq	$dwarf2out_cfi_label.label, %r13
	movabsq	$.L.str1, %rsi
	movabsq	$.L.str2, %rdx
	xorq	%rax, %rax
	movq	%r13, %rdi
	callq	sprintf
	movq	asm_out_file(%rip), %rdi
	movq	%r13, %rsi
	callq	assemble_name
	movq	asm_out_file(%rip), %rcx
	movabsq	$.L.str3, %rdi
	movq	$2, %rsi
	movq	$1, %rdx
	callq	fwrite
.LBB8_6:                                # %if.end
	leaq	(%rbx,%rbx,4), %r12
	movq	8(%r15,%r12,8), %rsi
	testq	%rsi, %rsi
	je	.LBB8_9
# BB#7:                                 # %lor.lhs.false
	movq	%r13, %rdi
	callq	strcmp
	movabsq	$4294967295, %rcx       # imm = 0xFFFFFFFF
	testq	%rcx, %rax
	je	.LBB8_8
.LBB8_9:                                # %if.then9
	movq	%r14, 8(%rsp)           # 8-byte Spill
	leaq	8(%r15,%r12,8), %r14
	movq	%r13, %rdi
	callq	xstrdup
	movq	%rax, %rbx
	movq	%rbx, (%r14)
	movq	$32, %rdi
	callq	xmalloc
	movq	$0, (%rax)
	movq	$0, 24(%rax)
	movq	$0, 16(%rax)
	movq	$4, %rcx
	movl	%ecx, 8(%rax)
	leaq	24(%r15,%r12,8), %rcx
	movq	%rbx, 16(%rax)
	movq	%rcx, %rsi
	.align	16, 0x90
.LBB8_10:                               # %for.cond.i
                                        # =>This Inner Loop Header: Depth=1
	movq	%rsi, %rdx
	movq	(%rdx), %rsi
	testq	%rsi, %rsi
	jne	.LBB8_10
# BB#11:                                # %add_cfi.exit
	movq	%rax, (%rdx)
	movq	8(%rsp), %r14           # 8-byte Reload
	jmp	.LBB8_12
.LBB8_1:
	movabsq	$cie_cfi_head, %rax
	.align	16, 0x90
.LBB8_2:                                # %for.cond.i37
                                        # =>This Inner Loop Header: Depth=1
	movq	%rax, %rcx
	movq	(%rcx), %rax
	testq	%rax, %rax
	jne	.LBB8_2
# BB#3:                                 # %add_cfi.exit38
	movq	%r14, (%rcx)
	jmp	.LBB8_14
.LBB8_8:                                # %lor.lhs.false.if.end13_crit_edge
	leaq	24(%r15,%r12,8), %rcx
	.align	16, 0x90
.LBB8_12:                               # %for.cond.i32
                                        # =>This Inner Loop Header: Depth=1
	movq	%rcx, %rax
	movq	(%rax), %rcx
	testq	%rcx, %rcx
	jne	.LBB8_12
# BB#13:                                # %add_cfi.exit33
	movq	%r14, (%rax)
.LBB8_14:                               # %if.end15
	addq	$16, %rsp
	popq	%rbx
	popq	%r12
	popq	%r13
	popq	%r14
	popq	%r15
	retq
.Ltmp69:
	.size	add_fde_cfi, .Ltmp69-add_fde_cfi
	.cfi_endproc

	.globl	dwarf2out_args_size
	.align	16, 0x90
	.type	dwarf2out_args_size,@function
dwarf2out_args_size:                    # @dwarf2out_args_size
	.cfi_startproc
# BB#0:                                 # %entry
	pushq	%r14
.Ltmp73:
	.cfi_def_cfa_offset 16
	pushq	%rbx
.Ltmp74:
	.cfi_def_cfa_offset 24
	pushq	%rax
.Ltmp75:
	.cfi_def_cfa_offset 32
.Ltmp76:
	.cfi_offset %rbx, -24
.Ltmp77:
	.cfi_offset %r14, -16
	movq	old_args_size(%rip), %rax
	movq	%rsi, %rbx
	movq	%rdi, %r14
	cmpq	%rbx, %rax
	jne	.LBB9_2
# BB#1:                                 # %return
	addq	$8, %rsp
	popq	%rbx
	popq	%r14
	retq
.LBB9_2:                                # %if.end
	movq	%rbx, old_args_size(%rip)
	movq	$32, %rdi
	callq	xmalloc
	movq	$0, (%rax)
	movq	$0, 24(%rax)
	movq	$0, 16(%rax)
	movq	$46, %rcx
	movl	%ecx, 8(%rax)
	movq	%rbx, 16(%rax)
	movq	%r14, %rdi
	movq	%rax, %rsi
	addq	$8, %rsp
	popq	%rbx
	popq	%r14
	jmp	add_fde_cfi  # TAILCALL
.Ltmp78:
	.size	dwarf2out_args_size, .Ltmp78-dwarf2out_args_size
	.cfi_endproc

	.globl	dwarf2out_reg_save
	.align	16, 0x90
	.type	dwarf2out_reg_save,@function
dwarf2out_reg_save:                     # @dwarf2out_reg_save
	.cfi_startproc
# BB#0:                                 # %entry
	pushq	%r15
.Ltmp84:
	.cfi_def_cfa_offset 16
	pushq	%r14
.Ltmp85:
	.cfi_def_cfa_offset 24
	pushq	%r12
.Ltmp86:
	.cfi_def_cfa_offset 32
	pushq	%rbx
.Ltmp87:
	.cfi_def_cfa_offset 40
	pushq	%rax
.Ltmp88:
	.cfi_def_cfa_offset 48
.Ltmp89:
	.cfi_offset %rbx, -40
.Ltmp90:
	.cfi_offset %r12, -32
.Ltmp91:
	.cfi_offset %r14, -24
.Ltmp92:
	.cfi_offset %r15, -16
	movl	target_flags(%rip), %eax
	movq	%rdx, %r15
	movq	%rdi, %r14
	movabsq	$4294967295, %rbx       # imm = 0xFFFFFFFF
	andq	%rsi, %rbx
	testq	$33554432, %rax         # imm = 0x2000000
	je	.LBB10_1
# BB#2:                                 # %entry
	movabsq	$dbx64_register_map, %r12
	jmp	.LBB10_3
.LBB10_1:
	movabsq	$svr4_dbx_register_map, %r12
.LBB10_3:                               # %entry
	movq	$32, %rdi
	callq	xmalloc
	movl	(%r12,%rbx,4), %ecx
	movq	%rax, %rsi
	movq	$0, (%rsi)
	cmpq	$63, %rcx
	movq	%rcx, 16(%rsi)
	movq	$5, %rdi
	ja	.LBB10_5
# BB#4:                                 # %entry
	movq	$128, %rdi
.LBB10_5:                               # %entry
	movl	target_flags(%rip), %eax
	movq	$23, %rcx
	shrq	%cl, %rax
	andq	$4, %rax
	movq	$-4, %rcx
	subq	%rax, %rcx
	movq	%r15, %rax
	cqto
	idivq	%rcx
	testq	%rax, %rax
	movq	$17, %rcx
	js	.LBB10_7
# BB#6:                                 # %entry
	movq	%rdi, %rcx
.LBB10_7:                               # %entry
	movl	%ecx, 8(%rsi)
	movq	%rax, 24(%rsi)
	movq	%r14, %rdi
	addq	$8, %rsp
	popq	%rbx
	popq	%r12
	popq	%r14
	popq	%r15
	jmp	add_fde_cfi  # TAILCALL
.Ltmp93:
	.size	dwarf2out_reg_save, .Ltmp93-dwarf2out_reg_save
	.cfi_endproc

	.globl	dwarf2out_return_save
	.align	16, 0x90
	.type	dwarf2out_return_save,@function
dwarf2out_return_save:                  # @dwarf2out_return_save
	.cfi_startproc
# BB#0:                                 # %entry
	pushq	%r15
.Ltmp98:
	.cfi_def_cfa_offset 16
	pushq	%r14
.Ltmp99:
	.cfi_def_cfa_offset 24
	pushq	%rbx
.Ltmp100:
	.cfi_def_cfa_offset 32
.Ltmp101:
	.cfi_offset %rbx, -32
.Ltmp102:
	.cfi_offset %r14, -24
.Ltmp103:
	.cfi_offset %r15, -16
	movl	target_flags(%rip), %ebx
	movq	%rsi, %r15
	movq	%rdi, %r14
	movq	$22, %rcx
	shrq	%cl, %rbx
	andq	$8, %rbx
	addq	$8, %rbx
	movq	$32, %rdi
	callq	xmalloc
	movq	%rax, %rsi
	movq	$0, (%rsi)
	movabsq	$4294967288, %rax       # imm = 0xFFFFFFF8
	andq	%rbx, %rax
	movq	%rax, 16(%rsi)
	movl	target_flags(%rip), %eax
	movq	$23, %rcx
	shrq	%cl, %rax
	andq	$4, %rax
	movq	$-4, %rcx
	subq	%rax, %rcx
	movq	%r15, %rax
	cqto
	idivq	%rcx
	testq	%rax, %rax
	movq	$17, %rcx
	js	.LBB11_2
# BB#1:                                 # %entry
	movq	$128, %rcx
.LBB11_2:                               # %entry
	movl	%ecx, 8(%rsi)
	movq	%rax, 24(%rsi)
	movq	%r14, %rdi
	popq	%rbx
	popq	%r14
	popq	%r15
	jmp	add_fde_cfi  # TAILCALL
.Ltmp104:
	.size	dwarf2out_return_save, .Ltmp104-dwarf2out_return_save
	.cfi_endproc

	.globl	dwarf2out_return_reg
	.align	16, 0x90
	.type	dwarf2out_return_reg,@function
dwarf2out_return_reg:                   # @dwarf2out_return_reg
	.cfi_startproc
# BB#0:                                 # %entry
	pushq	%r15
.Ltmp111:
	.cfi_def_cfa_offset 16
	pushq	%r14
.Ltmp112:
	.cfi_def_cfa_offset 24
	pushq	%r13
.Ltmp113:
	.cfi_def_cfa_offset 32
	pushq	%r12
.Ltmp114:
	.cfi_def_cfa_offset 40
	pushq	%rbx
.Ltmp115:
	.cfi_def_cfa_offset 48
.Ltmp116:
	.cfi_offset %rbx, -48
.Ltmp117:
	.cfi_offset %r12, -40
.Ltmp118:
	.cfi_offset %r13, -32
.Ltmp119:
	.cfi_offset %r14, -24
.Ltmp120:
	.cfi_offset %r15, -16
	movq	%rsi, %r15
	movq	%rdi, %r14
	movl	target_flags(%rip), %ebx
	movabsq	$4294967295, %r12       # imm = 0xFFFFFFFF
	movq	%r15, %r13
	andq	%r12, %r13
	movq	$22, %rcx
	shrq	%cl, %rbx
	andq	$8, %rbx
	addq	$8, %rbx
	movq	$32, %rdi
	callq	xmalloc
	movabsq	$4294967288, %rcx       # imm = 0xFFFFFFF8
	andq	%rbx, %rcx
	cmpq	%r12, %r13
	movq	$0, (%rax)
	movq	$0, 24(%rax)
	movq	$0, 16(%rax)
	movq	%rcx, 16(%rax)
	je	.LBB12_1
# BB#2:                                 # %if.else12.i
	andq	%r12, %r15
	andq	%r12, %rbx
	cmpq	%r15, %rbx
	jne	.LBB12_3
# BB#5:                                 # %reg_save.exit
	popq	%rbx
	popq	%r12
	popq	%r13
	popq	%r14
	popq	%r15
	retq
.LBB12_1:                               # %if.then.i
	movq	$128, %rcx
	movl	%ecx, 8(%rax)
	movq	$0, 24(%rax)
	jmp	.LBB12_4
.LBB12_3:                               # %if.else16.i
	movq	$9, %rcx
	movl	%ecx, 8(%rax)
	movq	%r15, 24(%rax)
.LBB12_4:                               # %if.end22.i
	movq	%r14, %rdi
	movq	%rax, %rsi
	popq	%rbx
	popq	%r12
	popq	%r13
	popq	%r14
	popq	%r15
	jmp	add_fde_cfi  # TAILCALL
.Ltmp121:
	.size	dwarf2out_return_reg, .Ltmp121-dwarf2out_return_reg
	.cfi_endproc

	.globl	dwarf2out_frame_debug
	.align	16, 0x90
	.type	dwarf2out_frame_debug,@function
dwarf2out_frame_debug:                  # @dwarf2out_frame_debug
	.cfi_startproc
# BB#0:                                 # %entry
	pushq	%r15
.Ltmp126:
	.cfi_def_cfa_offset 16
	pushq	%r14
.Ltmp127:
	.cfi_def_cfa_offset 24
	pushq	%rbx
.Ltmp128:
	.cfi_def_cfa_offset 32
.Ltmp129:
	.cfi_offset %rbx, -32
.Ltmp130:
	.cfi_offset %r14, -24
.Ltmp131:
	.cfi_offset %r15, -16
	movq	%rdi, %r15
	testq	%r15, %r15
	je	.LBB13_1
# BB#200:                               # %if.end4
	movzbl	(%r15), %eax
	cmpq	$32, %rax
	jne	.LBB13_205
# BB#201:                               # %lor.lhs.false
	movq	queued_reg_saves(%rip), %rbx
	testq	%rbx, %rbx
	je	.LBB13_206
# BB#202:
	movabsq	$4294967295, %r14       # imm = 0xFFFFFFFF
	.align	16, 0x90
.LBB13_204:                             # %for.body.i36
                                        # =>This Inner Loop Header: Depth=1
	movq	8(%rbx), %rdi
	movq	%r15, %rsi
	callq	modified_in_p
	testq	%r14, %rax
	jne	.LBB13_205
# BB#203:                               # %for.cond.i
                                        #   in Loop: Header=BB13_204 Depth=1
	movq	(%rbx), %rbx
	testq	%rbx, %rbx
	jne	.LBB13_204
	jmp	.LBB13_206
.LBB13_205:                             # %if.then8
	callq	flush_queued_reg_saves
.LBB13_206:                             # %if.end9
	movslq	(%r15), %rax
	testq	%rax, %rax
	js	.LBB13_238
# BB#207:                               # %if.then12
	movzbl	target_flags+1(%rip), %ecx
	testq	$16, %rcx
	jne	.LBB13_243
# BB#208:                               # %if.then15
	movl	flag_asynchronous_unwind_tables(%rip), %ecx
	andq	$65535, %rax            # imm = 0xFFFF
	testq	%rcx, %rcx
	jne	.LBB13_220
# BB#209:                               # %land.lhs.true.i
	cmpq	$34, %rax
	jne	.LBB13_219
# BB#210:                               # %if.then.i38
	movq	32(%r15), %rax
	movl	(%rax), %ecx
	movq	%rcx, %rdx
	andq	$65535, %rdx            # imm = 0xFFFF
	cmpq	$39, %rdx
	jne	.LBB13_212
# BB#211:                               # %if.then4.i
	movq	8(%rax), %rax
	movq	8(%rax), %rax
	movl	(%rax), %ecx
.LBB13_212:                             # %if.end.i
	movq	%rcx, %rdx
	andq	$65535, %rdx            # imm = 0xFFFF
	cmpq	$47, %rdx
	jne	.LBB13_214
# BB#213:                               # %if.then11.i
	movq	16(%rax), %rax
	movl	(%rax), %ecx
.LBB13_214:                             # %if.end15.i
	andq	$65535, %rcx            # imm = 0xFFFF
	cmpq	$50, %rcx
	jne	.LBB13_215
# BB#216:                               # %if.end20.i
	movq	16(%rax), %rax
	movq	8(%rax), %rbx
	movq	old_args_size(%rip), %rax
	cmpq	%rbx, %rax
	je	.LBB13_243
# BB#217:                               # %if.end.i.i
	movq	%rbx, old_args_size(%rip)
	movq	$32, %rdi
	callq	xmalloc
	movq	$0, (%rax)
	movq	$0, 24(%rax)
	movq	$0, 16(%rax)
	movq	$46, %rcx
	movl	%ecx, 8(%rax)
	movabsq	$.L.str440, %rdi
	jmp	.LBB13_218
.LBB13_1:                               # %if.then
	callq	flush_queued_reg_saves
	movq	$-1, cfa(%rip)
	xorq	%r9, %r9
	movl	%r9d, cfa+24(%rip)
	movq	cie_cfi_head(%rip), %rdx
	movq	$0, cfa+16(%rip)
	movq	$0, cfa+8(%rip)
	testq	%rdx, %rdx
	movq	$-1, %r8
	je	.LBB13_98
# BB#2:
	movabsq	$4294967295, %rdi       # imm = 0xFFFFFFFF
	movabsq	$.L.str226, %rsi
	.align	16, 0x90
.LBB13_3:                               # %for.body.i
                                        # =>This Loop Header: Depth=1
                                        #     Child Loop BB13_9 Depth 2
	movl	8(%rdx), %eax
	addq	$-12, %rax
	andq	%rdi, %rax
	cmpq	$3, %rax
	ja	.LBB13_97
# BB#4:                                 # %for.body.i
                                        #   in Loop: Header=BB13_3 Depth=1
	jmpq	*.LJTI13_0(,%rax,8)
.LBB13_7:                               # %sw.bb3.i53
                                        #   in Loop: Header=BB13_3 Depth=1
	movq	16(%rdx), %r8
	movq	%r8, cfa(%rip)
	movq	24(%rdx), %rax
	movq	%rax, cfa+8(%rip)
	jmp	.LBB13_97
.LBB13_6:                               # %sw.bb1.i50
                                        #   in Loop: Header=BB13_3 Depth=1
	movq	16(%rdx), %r8
	movq	%r8, cfa(%rip)
	jmp	.LBB13_97
.LBB13_5:                               # %sw.bb.i48
                                        #   in Loop: Header=BB13_3 Depth=1
	movq	16(%rdx), %rax
	movq	%rax, cfa+8(%rip)
	jmp	.LBB13_97
.LBB13_8:                               # %sw.bb9.i57
                                        #   in Loop: Header=BB13_3 Depth=1
	movq	16(%rdx), %rbx
	testq	%rbx, %rbx
	movl	%r9d, cfa+24(%rip)
	movq	$0, cfa+16(%rip)
	movq	$0, cfa+8(%rip)
	movq	$-1, cfa(%rip)
	movq	$-1, %r8
	je	.LBB13_97
	jmp	.LBB13_9
.LBB13_14:                              # %sw.bb20.i.i73
                                        #   in Loop: Header=BB13_9 Depth=2
	movq	$1, %rax
	movl	%eax, cfa+24(%rip)
	jmp	.LBB13_96
.LBB13_15:                              # %sw.bb22.i.i75
                                        #   in Loop: Header=BB13_9 Depth=2
	movq	24(%rbx), %rax
	movq	%rax, cfa+8(%rip)
	jmp	.LBB13_96
.LBB13_11:                              # %sw.bb2.i.i65
                                        #   in Loop: Header=BB13_9 Depth=2
	movq	24(%rbx), %r8
	movq	%r8, cfa(%rip)
	jmp	.LBB13_96
.LBB13_13:                              # %sw.bb12.i.i72
                                        #   in Loop: Header=BB13_9 Depth=2
	movq	24(%rbx), %r8
	movq	%r8, cfa(%rip)
	movq	48(%rbx), %rax
	movq	%rax, cfa+16(%rip)
	jmp	.LBB13_96
	.align	16, 0x90
.LBB13_9:                               # %for.body.i.i60
                                        #   Parent Loop BB13_3 Depth=1
                                        # =>  This Inner Loop Header: Depth=2
	movl	8(%rbx), %eax
	leaq	-3(%rax), %rcx
	andq	%rdi, %rcx
	cmpq	$147, %rcx
	ja	.LBB13_87
# BB#10:                                # %for.body.i.i60
                                        #   in Loop: Header=BB13_9 Depth=2
	jmpq	*.LJTI13_1(,%rcx,8)
.LBB13_94:                              # %sw.bb.i.i63
                                        #   in Loop: Header=BB13_9 Depth=2
	addq	$-80, %rax
	andq	%rdi, %rax
	movq	%rax, cfa(%rip)
	jmp	.LBB13_95
	.align	16, 0x90
.LBB13_12:                              # %sw.bb4.i.i69
                                        #   in Loop: Header=BB13_9 Depth=2
	addq	$-112, %rax
	andq	%rdi, %rax
	movq	%rax, cfa(%rip)
	movq	24(%rbx), %rcx
	movq	%rcx, cfa+16(%rip)
.LBB13_95:                              # %for.inc.i.i157
                                        #   in Loop: Header=BB13_9 Depth=2
	movq	%rax, %r8
.LBB13_96:                              # %for.inc.i.i157
                                        #   in Loop: Header=BB13_9 Depth=2
	movq	(%rbx), %rbx
	testq	%rbx, %rbx
	jne	.LBB13_9
	.align	16, 0x90
.LBB13_97:                              # %lookup_cfa_1.exit158
                                        #   in Loop: Header=BB13_3 Depth=1
	movq	(%rdx), %rdx
	testq	%rdx, %rdx
	jne	.LBB13_3
.LBB13_98:                              # %for.end.i
	movl	fde_table_in_use(%rip), %eax
	testq	%rax, %rax
	je	.LBB13_194
# BB#99:                                # %if.then.i
	decq	%rax
	movq	fde_table(%rip), %rdx
	movabsq	$4294967295, %rcx       # imm = 0xFFFFFFFF
	andq	%rcx, %rax
	leaq	(%rax,%rax,4), %rax
	movq	24(%rdx,%rax,8), %rdx
	testq	%rdx, %rdx
	je	.LBB13_194
# BB#100:
	xorq	%r9, %r9
	movabsq	$.L.str226, %rsi
	.align	16, 0x90
.LBB13_101:                             # %for.body4.i
                                        # =>This Loop Header: Depth=1
                                        #     Child Loop BB13_107 Depth 2
	movl	8(%rdx), %eax
	addq	$-12, %rax
	andq	%rcx, %rax
	cmpq	$3, %rax
	ja	.LBB13_193
# BB#102:                               # %for.body4.i
                                        #   in Loop: Header=BB13_101 Depth=1
	jmpq	*.LJTI13_2(,%rax,8)
.LBB13_105:                             # %sw.bb3.i
                                        #   in Loop: Header=BB13_101 Depth=1
	movq	16(%rdx), %r8
	movq	%r8, cfa(%rip)
	movq	24(%rdx), %rax
	movq	%rax, cfa+8(%rip)
	jmp	.LBB13_193
.LBB13_104:                             # %sw.bb1.i
                                        #   in Loop: Header=BB13_101 Depth=1
	movq	16(%rdx), %r8
	movq	%r8, cfa(%rip)
	jmp	.LBB13_193
.LBB13_103:                             # %sw.bb.i
                                        #   in Loop: Header=BB13_101 Depth=1
	movq	16(%rdx), %rax
	movq	%rax, cfa+8(%rip)
	jmp	.LBB13_193
.LBB13_106:                             # %sw.bb9.i
                                        #   in Loop: Header=BB13_101 Depth=1
	movq	16(%rdx), %rbx
	testq	%rbx, %rbx
	movl	%r9d, cfa+24(%rip)
	movq	$0, cfa+16(%rip)
	movq	$0, cfa+8(%rip)
	movq	$-1, cfa(%rip)
	movq	$-1, %r8
	je	.LBB13_193
	jmp	.LBB13_107
.LBB13_112:                             # %sw.bb20.i.i
                                        #   in Loop: Header=BB13_107 Depth=2
	movq	$1, %rax
	movl	%eax, cfa+24(%rip)
	jmp	.LBB13_192
.LBB13_113:                             # %sw.bb22.i.i
                                        #   in Loop: Header=BB13_107 Depth=2
	movq	24(%rbx), %rax
	movq	%rax, cfa+8(%rip)
	jmp	.LBB13_192
.LBB13_109:                             # %sw.bb2.i.i
                                        #   in Loop: Header=BB13_107 Depth=2
	movq	24(%rbx), %r8
	movq	%r8, cfa(%rip)
	jmp	.LBB13_192
.LBB13_111:                             # %sw.bb12.i.i
                                        #   in Loop: Header=BB13_107 Depth=2
	movq	24(%rbx), %r8
	movq	%r8, cfa(%rip)
	movq	48(%rbx), %rax
	movq	%rax, cfa+16(%rip)
	jmp	.LBB13_192
	.align	16, 0x90
.LBB13_107:                             # %for.body.i.i
                                        #   Parent Loop BB13_101 Depth=1
                                        # =>  This Inner Loop Header: Depth=2
	movl	8(%rbx), %eax
	leaq	-3(%rax), %rdi
	andq	%rcx, %rdi
	cmpq	$147, %rdi
	ja	.LBB13_185
# BB#108:                               # %for.body.i.i
                                        #   in Loop: Header=BB13_107 Depth=2
	jmpq	*.LJTI13_3(,%rdi,8)
.LBB13_190:                             # %sw.bb.i.i
                                        #   in Loop: Header=BB13_107 Depth=2
	addq	$-80, %rax
	andq	%rcx, %rax
	movq	%rax, cfa(%rip)
	jmp	.LBB13_191
	.align	16, 0x90
.LBB13_110:                             # %sw.bb4.i.i
                                        #   in Loop: Header=BB13_107 Depth=2
	addq	$-112, %rax
	andq	%rcx, %rax
	movq	%rax, cfa(%rip)
	movq	24(%rbx), %rdi
	movq	%rdi, cfa+16(%rip)
.LBB13_191:                             # %for.inc.i.i
                                        #   in Loop: Header=BB13_107 Depth=2
	movq	%rax, %r8
.LBB13_192:                             # %for.inc.i.i
                                        #   in Loop: Header=BB13_107 Depth=2
	movq	(%rbx), %rbx
	testq	%rbx, %rbx
	jne	.LBB13_107
	.align	16, 0x90
.LBB13_193:                             # %lookup_cfa_1.exit
                                        #   in Loop: Header=BB13_101 Depth=1
	movq	(%rdx), %rdx
	testq	%rdx, %rdx
	jne	.LBB13_101
.LBB13_194:                             # %lookup_cfa.exit
	movzbl	target_flags+3(%rip), %eax
	andq	$2, %rax
	movq	$1, %rcx
	shrq	%cl, %rax
	testq	%rax, %rax
	jne	.LBB13_195
# BB#196:                               # %lookup_cfa.exit
	movabsq	$svr4_dbx_register_map+28, %rax
	jmp	.LBB13_197
.LBB13_238:                             # %if.end17
	movq	dwarf2out_cfi_label.label_num(%rip), %rcx
	leaq	1(%rcx), %rax
	movq	%rax, dwarf2out_cfi_label.label_num(%rip)
	movabsq	$dwarf2out_cfi_label.label, %r14
	movabsq	$.L.str1, %rsi
	movabsq	$.L.str2, %rdx
	xorq	%rax, %rax
	movq	%r14, %rdi
	callq	sprintf
	movq	asm_out_file(%rip), %rdi
	movq	%r14, %rsi
	callq	assemble_name
	movq	asm_out_file(%rip), %rcx
	movabsq	$.L.str3, %rdi
	movq	$2, %rsi
	movq	$1, %rdx
	callq	fwrite
	movq	$21, %rsi
	xorq	%rdx, %rdx
	movq	%r15, %rdi
	callq	find_reg_note
	testq	%rax, %rax
	je	.LBB13_239
# BB#240:                               # %if.end17
	addq	$8, %rax
	movq	%rax, %r15
	jmp	.LBB13_241
.LBB13_87:                              # %sw.default.i.i.i150
	movabsq	$.L.str365, %rsi
	jmp	.LBB13_93
.LBB13_239:
	addq	$32, %r15
.LBB13_241:                             # %if.end17
	movq	(%r15), %rdi
	popq	%rbx
	popq	%r14
	popq	%r15
	jmp	dwarf2out_frame_debug_expr  # TAILCALL
.LBB13_195:
	movabsq	$dbx64_register_map+28, %rax
.LBB13_197:                             # %lookup_cfa.exit
	movslq	(%rax), %rax
	cmpq	%rax, %r8
	jne	.LBB13_198
# BB#242:                               # %if.end
	movq	$7, cfa(%rip)
	movq	cfa+24(%rip), %rax
	movq	%rax, cfa_store+24(%rip)
	movq	cfa+16(%rip), %rax
	movq	%rax, cfa_store+16(%rip)
	movq	cfa+8(%rip), %rax
	movq	%rax, cfa_store+8(%rip)
	movq	$7, cfa_store(%rip)
	movq	$-1, cfa_temp.0(%rip)
	movq	$0, cfa_temp.1(%rip)
.LBB13_243:                             # %return
	popq	%rbx
	popq	%r14
	popq	%r15
	retq
.LBB13_185:                             # %sw.default.i.i.i
	movabsq	$.L.str365, %rsi
.LBB13_93:                              # %dwarf_stack_op_name.exit.i.i154
	movabsq	$.L.str497, %rdi
	xorq	%rax, %rax
	callq	internal_error
.LBB13_219:                             # %if.else.i
	movq	cfa(%rip), %rcx
	cmpq	$7, %rcx
	jne	.LBB13_243
.LBB13_220:                             # %if.end31.i
	cmpq	$35, %rax
	jne	.LBB13_222
# BB#221:                               # %if.then35.i
	movq	args_size(%rip), %r14
	negq	%r14
	jmp	.LBB13_226
.LBB13_222:                             # %if.else36.i
	movq	32(%r15), %rdi
	movzbl	(%rdi), %eax
	cmpq	$24, %rax
	je	.LBB13_233
# BB#223:                               # %if.else36.i
	cmpq	$39, %rax
	jne	.LBB13_224
.LBB13_233:                             # %if.then60.i
	movq	8(%rdi), %rax
	movl	(%rax), %ebx
	xorq	%r14, %r14
	jmp	.LBB13_234
.LBB13_237:                             # %if.then80.i
                                        #   in Loop: Header=BB13_234 Depth=1
	callq	stack_adjust_offset
	addq	%rax, %r14
.LBB13_234:                             # %for.cond.outer.i
                                        # =>This Loop Header: Depth=1
                                        #     Child Loop BB13_235 Depth 2
	movq	$32, %rcx
	shlq	%cl, %rbx
	movq	$32, %rcx
	sarq	%cl, %rbx
	.align	16, 0x90
.LBB13_235:                             # %for.cond.i42
                                        #   Parent Loop BB13_234 Depth=1
                                        # =>  This Inner Loop Header: Depth=2
	movq	$32, %rcx
	movq	%rbx, %rax
	shlq	%cl, %rax
	movq	$32, %rcx
	sarq	%cl, %rax
	testq	%rax, %rax
	jle	.LBB13_226
# BB#236:                               # %for.body.i43
                                        #   in Loop: Header=BB13_235 Depth=2
	movq	32(%r15), %rax
	movq	8(%rax), %rax
	movq	(%rax,%rbx,8), %rdi
	movzbl	(%rdi), %eax
	decq	%rbx
	cmpq	$47, %rax
	jne	.LBB13_235
	jmp	.LBB13_237
.LBB13_224:                             # %if.else36.i
	cmpq	$47, %rax
	jne	.LBB13_243
# BB#225:                               # %if.then43.i
	callq	stack_adjust_offset
	movq	%rax, %r14
.LBB13_226:                             # %if.end95.i
	testq	%r14, %r14
	je	.LBB13_243
# BB#227:                               # %if.end98.i
	movq	cfa(%rip), %rax
	cmpq	$7, %rax
	jne	.LBB13_229
# BB#228:                               # %if.then100.i
	addq	%r14, cfa+8(%rip)
.LBB13_229:                             # %if.end102.i
	movq	args_size(%rip), %rax
	addq	%r14, %rax
	movabsq	$0, %rdx
	js	.LBB13_231
# BB#230:                               # %if.end102.i
	movq	%rax, %rdx
.LBB13_231:                             # %if.end102.i
	movq	dwarf2out_cfi_label.label_num(%rip), %rcx
	movq	%rdx, args_size(%rip)
	leaq	1(%rcx), %rax
	movq	%rax, dwarf2out_cfi_label.label_num(%rip)
	movabsq	$dwarf2out_cfi_label.label, %rbx
	movabsq	$.L.str1, %rsi
	movabsq	$.L.str2, %rdx
	xorq	%rax, %rax
	movq	%rbx, %rdi
	callq	sprintf
	movq	asm_out_file(%rip), %rdi
	movq	%rbx, %rsi
	callq	assemble_name
	movq	asm_out_file(%rip), %rcx
	movabsq	$.L.str3, %rdi
	movq	$2, %rsi
	movq	$1, %rdx
	callq	fwrite
	movabsq	$cfa, %rsi
	movq	%rbx, %rdi
	callq	def_cfa_1
	movq	args_size(%rip), %rbx
	movq	old_args_size(%rip), %rax
	cmpq	%rbx, %rax
	je	.LBB13_243
# BB#232:                               # %if.end.i134.i
	movq	%rbx, old_args_size(%rip)
	movq	$32, %rdi
	callq	xmalloc
	movq	$0, (%rax)
	movq	$0, 24(%rax)
	movq	$0, 16(%rax)
	movq	$46, %rcx
	movl	%ecx, 8(%rax)
	movabsq	$dwarf2out_cfi_label.label, %rdi
.LBB13_218:                             # %if.end.i.i
	movq	%rbx, 16(%rax)
	movq	%rax, %rsi
	popq	%rbx
	popq	%r14
	popq	%r15
	jmp	add_fde_cfi  # TAILCALL
.LBB13_215:                             # %if.then19.i
	movabsq	$.L.str4, %rax
	movabsq	$.L__FUNCTION__.dwarf2out_stack_adjust, %rcx
	movq	$1009, %rsi             # imm = 0x3F1
	jmp	.LBB13_199
.LBB13_88:                              # %dwarf_stack_op_name.exit.loopexit.i.i151
	movabsq	$.L.str220, %rsi
	jmp	.LBB13_93
.LBB13_89:                              # %dwarf_stack_op_name.exit.i.loopexit.i152
	movabsq	$.L.str222, %rsi
	jmp	.LBB13_93
.LBB13_90:                              # %dwarf_stack_op_name.exit.i.i154.loopexit
	movabsq	$.L.str223, %rsi
	jmp	.LBB13_93
.LBB13_91:                              # %dwarf_stack_op_name.exit.i.i154.loopexit162
	movabsq	$.L.str224, %rsi
	jmp	.LBB13_93
.LBB13_16:                              # %sw.bb7.i.i.i79
	movabsq	$.L.str227, %rsi
	jmp	.LBB13_93
.LBB13_17:                              # %sw.bb8.i.i.i80
	movabsq	$.L.str228, %rsi
	jmp	.LBB13_93
.LBB13_18:                              # %sw.bb9.i.i.i81
	movabsq	$.L.str229, %rsi
	jmp	.LBB13_93
.LBB13_19:                              # %sw.bb10.i.i.i82
	movabsq	$.L.str230, %rsi
	jmp	.LBB13_93
.LBB13_20:                              # %sw.bb11.i.i.i83
	movabsq	$.L.str231, %rsi
	jmp	.LBB13_93
.LBB13_21:                              # %sw.bb12.i.i.i84
	movabsq	$.L.str232, %rsi
	jmp	.LBB13_93
.LBB13_22:                              # %sw.bb13.i.i.i85
	movabsq	$.L.str233, %rsi
	jmp	.LBB13_93
.LBB13_23:                              # %sw.bb14.i.i.i86
	movabsq	$.L.str234, %rsi
	jmp	.LBB13_93
.LBB13_24:                              # %sw.bb15.i.i.i87
	movabsq	$.L.str235, %rsi
	jmp	.LBB13_93
.LBB13_25:                              # %sw.bb16.i.i.i88
	movabsq	$.L.str236, %rsi
	jmp	.LBB13_93
.LBB13_26:                              # %sw.bb17.i.i.i89
	movabsq	$.L.str237, %rsi
	jmp	.LBB13_93
.LBB13_27:                              # %sw.bb18.i.i.i90
	movabsq	$.L.str238, %rsi
	jmp	.LBB13_93
.LBB13_28:                              # %sw.bb19.i.i.i91
	movabsq	$.L.str239, %rsi
	jmp	.LBB13_93
.LBB13_29:                              # %sw.bb20.i.i.i92
	movabsq	$.L.str240, %rsi
	jmp	.LBB13_93
.LBB13_30:                              # %sw.bb21.i.i.i93
	movabsq	$.L.str241, %rsi
	jmp	.LBB13_93
.LBB13_31:                              # %sw.bb22.i.i.i94
	movabsq	$.L.str242, %rsi
	jmp	.LBB13_93
.LBB13_32:                              # %sw.bb23.i.i.i95
	movabsq	$.L.str243, %rsi
	jmp	.LBB13_93
.LBB13_33:                              # %sw.bb24.i.i.i96
	movabsq	$.L.str244, %rsi
	jmp	.LBB13_93
.LBB13_34:                              # %sw.bb25.i.i.i97
	movabsq	$.L.str245, %rsi
	jmp	.LBB13_93
.LBB13_35:                              # %sw.bb26.i.i.i98
	movabsq	$.L.str246, %rsi
	jmp	.LBB13_93
.LBB13_36:                              # %sw.bb27.i.i.i99
	movabsq	$.L.str247, %rsi
	jmp	.LBB13_93
.LBB13_37:                              # %sw.bb28.i.i.i100
	movabsq	$.L.str248, %rsi
	jmp	.LBB13_93
.LBB13_38:                              # %sw.bb30.i.i.i101
	movabsq	$.L.str250, %rsi
	jmp	.LBB13_93
.LBB13_39:                              # %sw.bb31.i.i.i102
	movabsq	$.L.str251, %rsi
	jmp	.LBB13_93
.LBB13_40:                              # %sw.bb32.i.i.i103
	movabsq	$.L.str252, %rsi
	jmp	.LBB13_93
.LBB13_41:                              # %sw.bb33.i.i.i104
	movabsq	$.L.str253, %rsi
	jmp	.LBB13_93
.LBB13_42:                              # %sw.bb34.i.i.i105
	movabsq	$.L.str254, %rsi
	jmp	.LBB13_93
.LBB13_43:                              # %sw.bb35.i.i.i106
	movabsq	$.L.str255, %rsi
	jmp	.LBB13_93
.LBB13_44:                              # %sw.bb36.i.i.i107
	movabsq	$.L.str256, %rsi
	jmp	.LBB13_93
.LBB13_45:                              # %sw.bb37.i.i.i108
	movabsq	$.L.str257, %rsi
	jmp	.LBB13_93
.LBB13_46:                              # %sw.bb38.i.i.i109
	movabsq	$.L.str258, %rsi
	jmp	.LBB13_93
.LBB13_47:                              # %sw.bb39.i.i.i110
	movabsq	$.L.str259, %rsi
	jmp	.LBB13_93
.LBB13_48:                              # %sw.bb40.i.i.i111
	movabsq	$.L.str260, %rsi
	jmp	.LBB13_93
.LBB13_49:                              # %sw.bb41.i.i.i112
	movabsq	$.L.str261, %rsi
	jmp	.LBB13_93
.LBB13_50:                              # %sw.bb42.i.i.i113
	movabsq	$.L.str262, %rsi
	jmp	.LBB13_93
.LBB13_51:                              # %sw.bb43.i.i.i114
	movabsq	$.L.str263, %rsi
	jmp	.LBB13_93
.LBB13_52:                              # %sw.bb44.i.i.i115
	movabsq	$.L.str264, %rsi
	jmp	.LBB13_93
.LBB13_53:                              # %sw.bb45.i.i.i116
	movabsq	$.L.str265, %rsi
	jmp	.LBB13_93
.LBB13_54:                              # %sw.bb46.i.i.i117
	movabsq	$.L.str266, %rsi
	jmp	.LBB13_93
.LBB13_55:                              # %sw.bb47.i.i.i118
	movabsq	$.L.str267, %rsi
	jmp	.LBB13_93
.LBB13_56:                              # %sw.bb48.i.i.i119
	movabsq	$.L.str268, %rsi
	jmp	.LBB13_93
.LBB13_57:                              # %sw.bb49.i.i.i120
	movabsq	$.L.str269, %rsi
	jmp	.LBB13_93
.LBB13_58:                              # %sw.bb50.i.i.i121
	movabsq	$.L.str270, %rsi
	jmp	.LBB13_93
.LBB13_59:                              # %sw.bb51.i.i.i122
	movabsq	$.L.str271, %rsi
	jmp	.LBB13_93
.LBB13_60:                              # %sw.bb52.i.i.i123
	movabsq	$.L.str272, %rsi
	jmp	.LBB13_93
.LBB13_61:                              # %sw.bb53.i.i.i124
	movabsq	$.L.str273, %rsi
	jmp	.LBB13_93
.LBB13_62:                              # %sw.bb54.i.i.i125
	movabsq	$.L.str274, %rsi
	jmp	.LBB13_93
.LBB13_63:                              # %sw.bb55.i.i.i126
	movabsq	$.L.str275, %rsi
	jmp	.LBB13_93
.LBB13_64:                              # %sw.bb56.i.i.i127
	movabsq	$.L.str276, %rsi
	jmp	.LBB13_93
.LBB13_65:                              # %sw.bb57.i.i.i128
	movabsq	$.L.str277, %rsi
	jmp	.LBB13_93
.LBB13_66:                              # %sw.bb58.i.i.i129
	movabsq	$.L.str278, %rsi
	jmp	.LBB13_93
.LBB13_67:                              # %sw.bb59.i.i.i130
	movabsq	$.L.str279, %rsi
	jmp	.LBB13_93
.LBB13_68:                              # %sw.bb60.i.i.i131
	movabsq	$.L.str280, %rsi
	jmp	.LBB13_93
.LBB13_69:                              # %sw.bb61.i.i.i132
	movabsq	$.L.str281, %rsi
	jmp	.LBB13_93
.LBB13_70:                              # %sw.bb62.i.i.i133
	movabsq	$.L.str282, %rsi
	jmp	.LBB13_93
.LBB13_71:                              # %sw.bb63.i.i.i134
	movabsq	$.L.str283, %rsi
	jmp	.LBB13_93
.LBB13_72:                              # %sw.bb64.i.i.i135
	movabsq	$.L.str284, %rsi
	jmp	.LBB13_93
.LBB13_73:                              # %sw.bb65.i.i.i136
	movabsq	$.L.str285, %rsi
	jmp	.LBB13_93
.LBB13_74:                              # %sw.bb66.i.i.i137
	movabsq	$.L.str286, %rsi
	jmp	.LBB13_93
.LBB13_75:                              # %sw.bb67.i.i.i138
	movabsq	$.L.str287, %rsi
	jmp	.LBB13_93
.LBB13_76:                              # %sw.bb68.i.i.i139
	movabsq	$.L.str288, %rsi
	jmp	.LBB13_93
.LBB13_77:                              # %sw.bb69.i.i.i140
	movabsq	$.L.str289, %rsi
	jmp	.LBB13_93
.LBB13_78:                              # %sw.bb70.i.i.i141
	movabsq	$.L.str290, %rsi
	jmp	.LBB13_93
.LBB13_79:                              # %sw.bb71.i.i.i142
	movabsq	$.L.str291, %rsi
	jmp	.LBB13_93
.LBB13_80:                              # %sw.bb72.i.i.i143
	movabsq	$.L.str292, %rsi
	jmp	.LBB13_93
.LBB13_81:                              # %sw.bb73.i.i.i144
	movabsq	$.L.str293, %rsi
	jmp	.LBB13_93
.LBB13_82:                              # %sw.bb139.i.i.i145
	movabsq	$.L.str359, %rsi
	jmp	.LBB13_93
.LBB13_83:                              # %sw.bb141.i.i.i146
	movabsq	$.L.str361, %rsi
	jmp	.LBB13_93
.LBB13_84:                              # %sw.bb142.i.i.i147
	movabsq	$.L.str362, %rsi
	jmp	.LBB13_93
.LBB13_85:                              # %sw.bb143.i.i.i148
	movabsq	$.L.str363, %rsi
	jmp	.LBB13_93
.LBB13_86:                              # %sw.bb144.i.i.i149
	movabsq	$.L.str364, %rsi
	jmp	.LBB13_93
.LBB13_186:                             # %dwarf_stack_op_name.exit.loopexit.i.i
	movabsq	$.L.str220, %rsi
	jmp	.LBB13_93
.LBB13_187:                             # %dwarf_stack_op_name.exit.i.loopexit.i
	movabsq	$.L.str222, %rsi
	jmp	.LBB13_93
.LBB13_188:                             # %dwarf_stack_op_name.exit.i.i.loopexit
	movabsq	$.L.str223, %rsi
	jmp	.LBB13_93
.LBB13_189:                             # %dwarf_stack_op_name.exit.i.i.loopexit161
	movabsq	$.L.str224, %rsi
	jmp	.LBB13_93
.LBB13_92:                              # %dwarf_stack_op_name.exit.i.i154.loopexit2
	movabsq	$.L.str225, %rsi
	jmp	.LBB13_93
.LBB13_114:                             # %sw.bb7.i.i.i
	movabsq	$.L.str227, %rsi
	jmp	.LBB13_93
.LBB13_115:                             # %sw.bb8.i.i.i
	movabsq	$.L.str228, %rsi
	jmp	.LBB13_93
.LBB13_116:                             # %sw.bb9.i.i.i
	movabsq	$.L.str229, %rsi
	jmp	.LBB13_93
.LBB13_117:                             # %sw.bb10.i.i.i
	movabsq	$.L.str230, %rsi
	jmp	.LBB13_93
.LBB13_118:                             # %sw.bb11.i.i.i
	movabsq	$.L.str231, %rsi
	jmp	.LBB13_93
.LBB13_119:                             # %sw.bb12.i.i.i
	movabsq	$.L.str232, %rsi
	jmp	.LBB13_93
.LBB13_120:                             # %sw.bb13.i.i.i
	movabsq	$.L.str233, %rsi
	jmp	.LBB13_93
.LBB13_121:                             # %sw.bb14.i.i.i
	movabsq	$.L.str234, %rsi
	jmp	.LBB13_93
.LBB13_122:                             # %sw.bb15.i.i.i
	movabsq	$.L.str235, %rsi
	jmp	.LBB13_93
.LBB13_123:                             # %sw.bb16.i.i.i
	movabsq	$.L.str236, %rsi
	jmp	.LBB13_93
.LBB13_124:                             # %sw.bb17.i.i.i
	movabsq	$.L.str237, %rsi
	jmp	.LBB13_93
.LBB13_125:                             # %sw.bb18.i.i.i
	movabsq	$.L.str238, %rsi
	jmp	.LBB13_93
.LBB13_126:                             # %sw.bb19.i.i.i
	movabsq	$.L.str239, %rsi
	jmp	.LBB13_93
.LBB13_127:                             # %sw.bb20.i.i.i
	movabsq	$.L.str240, %rsi
	jmp	.LBB13_93
.LBB13_128:                             # %sw.bb21.i.i.i
	movabsq	$.L.str241, %rsi
	jmp	.LBB13_93
.LBB13_129:                             # %sw.bb22.i.i.i
	movabsq	$.L.str242, %rsi
	jmp	.LBB13_93
.LBB13_130:                             # %sw.bb23.i.i.i
	movabsq	$.L.str243, %rsi
	jmp	.LBB13_93
.LBB13_131:                             # %sw.bb24.i.i.i
	movabsq	$.L.str244, %rsi
	jmp	.LBB13_93
.LBB13_132:                             # %sw.bb25.i.i.i
	movabsq	$.L.str245, %rsi
	jmp	.LBB13_93
.LBB13_133:                             # %sw.bb26.i.i.i
	movabsq	$.L.str246, %rsi
	jmp	.LBB13_93
.LBB13_134:                             # %sw.bb27.i.i.i
	movabsq	$.L.str247, %rsi
	jmp	.LBB13_93
.LBB13_135:                             # %sw.bb28.i.i.i
	movabsq	$.L.str248, %rsi
	jmp	.LBB13_93
.LBB13_136:                             # %sw.bb30.i.i.i
	movabsq	$.L.str250, %rsi
	jmp	.LBB13_93
.LBB13_137:                             # %sw.bb31.i.i.i
	movabsq	$.L.str251, %rsi
	jmp	.LBB13_93
.LBB13_138:                             # %sw.bb32.i.i.i
	movabsq	$.L.str252, %rsi
	jmp	.LBB13_93
.LBB13_139:                             # %sw.bb33.i.i.i
	movabsq	$.L.str253, %rsi
	jmp	.LBB13_93
.LBB13_140:                             # %sw.bb34.i.i.i
	movabsq	$.L.str254, %rsi
	jmp	.LBB13_93
.LBB13_141:                             # %sw.bb35.i.i.i
	movabsq	$.L.str255, %rsi
	jmp	.LBB13_93
.LBB13_142:                             # %sw.bb36.i.i.i
	movabsq	$.L.str256, %rsi
	jmp	.LBB13_93
.LBB13_143:                             # %sw.bb37.i.i.i
	movabsq	$.L.str257, %rsi
	jmp	.LBB13_93
.LBB13_144:                             # %sw.bb38.i.i.i
	movabsq	$.L.str258, %rsi
	jmp	.LBB13_93
.LBB13_145:                             # %sw.bb39.i.i.i
	movabsq	$.L.str259, %rsi
	jmp	.LBB13_93
.LBB13_146:                             # %sw.bb40.i.i.i
	movabsq	$.L.str260, %rsi
	jmp	.LBB13_93
.LBB13_147:                             # %sw.bb41.i.i.i
	movabsq	$.L.str261, %rsi
	jmp	.LBB13_93
.LBB13_148:                             # %sw.bb42.i.i.i
	movabsq	$.L.str262, %rsi
	jmp	.LBB13_93
.LBB13_149:                             # %sw.bb43.i.i.i
	movabsq	$.L.str263, %rsi
	jmp	.LBB13_93
.LBB13_150:                             # %sw.bb44.i.i.i
	movabsq	$.L.str264, %rsi
	jmp	.LBB13_93
.LBB13_151:                             # %sw.bb45.i.i.i
	movabsq	$.L.str265, %rsi
	jmp	.LBB13_93
.LBB13_152:                             # %sw.bb46.i.i.i
	movabsq	$.L.str266, %rsi
	jmp	.LBB13_93
.LBB13_153:                             # %sw.bb47.i.i.i
	movabsq	$.L.str267, %rsi
	jmp	.LBB13_93
.LBB13_154:                             # %sw.bb48.i.i.i
	movabsq	$.L.str268, %rsi
	jmp	.LBB13_93
.LBB13_155:                             # %sw.bb49.i.i.i
	movabsq	$.L.str269, %rsi
	jmp	.LBB13_93
.LBB13_156:                             # %sw.bb50.i.i.i
	movabsq	$.L.str270, %rsi
	jmp	.LBB13_93
.LBB13_157:                             # %sw.bb51.i.i.i
	movabsq	$.L.str271, %rsi
	jmp	.LBB13_93
.LBB13_158:                             # %sw.bb52.i.i.i
	movabsq	$.L.str272, %rsi
	jmp	.LBB13_93
.LBB13_159:                             # %sw.bb53.i.i.i
	movabsq	$.L.str273, %rsi
	jmp	.LBB13_93
.LBB13_160:                             # %sw.bb54.i.i.i
	movabsq	$.L.str274, %rsi
	jmp	.LBB13_93
.LBB13_161:                             # %sw.bb55.i.i.i
	movabsq	$.L.str275, %rsi
	jmp	.LBB13_93
.LBB13_162:                             # %sw.bb56.i.i.i
	movabsq	$.L.str276, %rsi
	jmp	.LBB13_93
.LBB13_163:                             # %sw.bb57.i.i.i
	movabsq	$.L.str277, %rsi
	jmp	.LBB13_93
.LBB13_164:                             # %sw.bb58.i.i.i
	movabsq	$.L.str278, %rsi
	jmp	.LBB13_93
.LBB13_165:                             # %sw.bb59.i.i.i
	movabsq	$.L.str279, %rsi
	jmp	.LBB13_93
.LBB13_166:                             # %sw.bb60.i.i.i
	movabsq	$.L.str280, %rsi
	jmp	.LBB13_93
.LBB13_167:                             # %sw.bb61.i.i.i
	movabsq	$.L.str281, %rsi
	jmp	.LBB13_93
.LBB13_168:                             # %sw.bb62.i.i.i
	movabsq	$.L.str282, %rsi
	jmp	.LBB13_93
.LBB13_169:                             # %sw.bb63.i.i.i
	movabsq	$.L.str283, %rsi
	jmp	.LBB13_93
.LBB13_170:                             # %sw.bb64.i.i.i
	movabsq	$.L.str284, %rsi
	jmp	.LBB13_93
.LBB13_171:                             # %sw.bb65.i.i.i
	movabsq	$.L.str285, %rsi
	jmp	.LBB13_93
.LBB13_172:                             # %sw.bb66.i.i.i
	movabsq	$.L.str286, %rsi
	jmp	.LBB13_93
.LBB13_173:                             # %sw.bb67.i.i.i
	movabsq	$.L.str287, %rsi
	jmp	.LBB13_93
.LBB13_174:                             # %sw.bb68.i.i.i
	movabsq	$.L.str288, %rsi
	jmp	.LBB13_93
.LBB13_175:                             # %sw.bb69.i.i.i
	movabsq	$.L.str289, %rsi
	jmp	.LBB13_93
.LBB13_176:                             # %sw.bb70.i.i.i
	movabsq	$.L.str290, %rsi
	jmp	.LBB13_93
.LBB13_177:                             # %sw.bb71.i.i.i
	movabsq	$.L.str291, %rsi
	jmp	.LBB13_93
.LBB13_178:                             # %sw.bb72.i.i.i
	movabsq	$.L.str292, %rsi
	jmp	.LBB13_93
.LBB13_179:                             # %sw.bb73.i.i.i
	movabsq	$.L.str293, %rsi
	jmp	.LBB13_93
.LBB13_180:                             # %sw.bb139.i.i.i
	movabsq	$.L.str359, %rsi
	jmp	.LBB13_93
.LBB13_181:                             # %sw.bb141.i.i.i
	movabsq	$.L.str361, %rsi
	jmp	.LBB13_93
.LBB13_182:                             # %sw.bb142.i.i.i
	movabsq	$.L.str362, %rsi
	jmp	.LBB13_93
.LBB13_183:                             # %sw.bb143.i.i.i
	movabsq	$.L.str363, %rsi
	jmp	.LBB13_93
.LBB13_184:                             # %sw.bb144.i.i.i
	movabsq	$.L.str364, %rsi
	jmp	.LBB13_93
.LBB13_198:                             # %if.then3
	movabsq	$.L.str4, %rax
	movabsq	$.L__FUNCTION__.dwarf2out_frame_debug, %rcx
	movq	$1626, %rsi             # imm = 0x65A
.LBB13_199:                             # %if.then3
	movq	%rax, %rdi
	movq	%rcx, %rdx
	callq	fancy_abort
.Ltmp132:
	.size	dwarf2out_frame_debug, .Ltmp132-dwarf2out_frame_debug
	.cfi_endproc
	.section	.rodata,"a",@progbits
	.align	8
.LJTI13_0:
	.quad	.LBB13_7
	.quad	.LBB13_6
	.quad	.LBB13_5
	.quad	.LBB13_8
.LJTI13_1:
	.quad	.LBB13_88
	.quad	.LBB13_87
	.quad	.LBB13_87
	.quad	.LBB13_14
	.quad	.LBB13_87
	.quad	.LBB13_89
	.quad	.LBB13_90
	.quad	.LBB13_91
	.quad	.LBB13_92
	.quad	.LBB13_93
	.quad	.LBB13_16
	.quad	.LBB13_17
	.quad	.LBB13_18
	.quad	.LBB13_19
	.quad	.LBB13_20
	.quad	.LBB13_21
	.quad	.LBB13_22
	.quad	.LBB13_23
	.quad	.LBB13_24
	.quad	.LBB13_25
	.quad	.LBB13_26
	.quad	.LBB13_27
	.quad	.LBB13_28
	.quad	.LBB13_29
	.quad	.LBB13_30
	.quad	.LBB13_31
	.quad	.LBB13_32
	.quad	.LBB13_33
	.quad	.LBB13_34
	.quad	.LBB13_35
	.quad	.LBB13_36
	.quad	.LBB13_37
	.quad	.LBB13_15
	.quad	.LBB13_38
	.quad	.LBB13_39
	.quad	.LBB13_40
	.quad	.LBB13_41
	.quad	.LBB13_42
	.quad	.LBB13_43
	.quad	.LBB13_44
	.quad	.LBB13_45
	.quad	.LBB13_46
	.quad	.LBB13_47
	.quad	.LBB13_48
	.quad	.LBB13_49
	.quad	.LBB13_50
	.quad	.LBB13_51
	.quad	.LBB13_52
	.quad	.LBB13_53
	.quad	.LBB13_54
	.quad	.LBB13_55
	.quad	.LBB13_56
	.quad	.LBB13_57
	.quad	.LBB13_58
	.quad	.LBB13_59
	.quad	.LBB13_60
	.quad	.LBB13_61
	.quad	.LBB13_62
	.quad	.LBB13_63
	.quad	.LBB13_64
	.quad	.LBB13_65
	.quad	.LBB13_66
	.quad	.LBB13_67
	.quad	.LBB13_68
	.quad	.LBB13_69
	.quad	.LBB13_70
	.quad	.LBB13_71
	.quad	.LBB13_72
	.quad	.LBB13_73
	.quad	.LBB13_74
	.quad	.LBB13_75
	.quad	.LBB13_76
	.quad	.LBB13_77
	.quad	.LBB13_78
	.quad	.LBB13_79
	.quad	.LBB13_80
	.quad	.LBB13_81
	.quad	.LBB13_94
	.quad	.LBB13_94
	.quad	.LBB13_94
	.quad	.LBB13_94
	.quad	.LBB13_94
	.quad	.LBB13_94
	.quad	.LBB13_94
	.quad	.LBB13_94
	.quad	.LBB13_94
	.quad	.LBB13_94
	.quad	.LBB13_94
	.quad	.LBB13_94
	.quad	.LBB13_94
	.quad	.LBB13_94
	.quad	.LBB13_94
	.quad	.LBB13_94
	.quad	.LBB13_94
	.quad	.LBB13_94
	.quad	.LBB13_94
	.quad	.LBB13_94
	.quad	.LBB13_94
	.quad	.LBB13_94
	.quad	.LBB13_94
	.quad	.LBB13_94
	.quad	.LBB13_94
	.quad	.LBB13_94
	.quad	.LBB13_94
	.quad	.LBB13_94
	.quad	.LBB13_94
	.quad	.LBB13_94
	.quad	.LBB13_94
	.quad	.LBB13_94
	.quad	.LBB13_12
	.quad	.LBB13_12
	.quad	.LBB13_12
	.quad	.LBB13_12
	.quad	.LBB13_12
	.quad	.LBB13_12
	.quad	.LBB13_12
	.quad	.LBB13_12
	.quad	.LBB13_12
	.quad	.LBB13_12
	.quad	.LBB13_12
	.quad	.LBB13_12
	.quad	.LBB13_12
	.quad	.LBB13_12
	.quad	.LBB13_12
	.quad	.LBB13_12
	.quad	.LBB13_12
	.quad	.LBB13_12
	.quad	.LBB13_12
	.quad	.LBB13_12
	.quad	.LBB13_12
	.quad	.LBB13_12
	.quad	.LBB13_12
	.quad	.LBB13_12
	.quad	.LBB13_12
	.quad	.LBB13_12
	.quad	.LBB13_12
	.quad	.LBB13_12
	.quad	.LBB13_12
	.quad	.LBB13_12
	.quad	.LBB13_12
	.quad	.LBB13_12
	.quad	.LBB13_11
	.quad	.LBB13_82
	.quad	.LBB13_13
	.quad	.LBB13_83
	.quad	.LBB13_84
	.quad	.LBB13_85
	.quad	.LBB13_86
.LJTI13_2:
	.quad	.LBB13_105
	.quad	.LBB13_104
	.quad	.LBB13_103
	.quad	.LBB13_106
.LJTI13_3:
	.quad	.LBB13_186
	.quad	.LBB13_185
	.quad	.LBB13_185
	.quad	.LBB13_112
	.quad	.LBB13_185
	.quad	.LBB13_187
	.quad	.LBB13_188
	.quad	.LBB13_189
	.quad	.LBB13_92
	.quad	.LBB13_93
	.quad	.LBB13_114
	.quad	.LBB13_115
	.quad	.LBB13_116
	.quad	.LBB13_117
	.quad	.LBB13_118
	.quad	.LBB13_119
	.quad	.LBB13_120
	.quad	.LBB13_121
	.quad	.LBB13_122
	.quad	.LBB13_123
	.quad	.LBB13_124
	.quad	.LBB13_125
	.quad	.LBB13_126
	.quad	.LBB13_127
	.quad	.LBB13_128
	.quad	.LBB13_129
	.quad	.LBB13_130
	.quad	.LBB13_131
	.quad	.LBB13_132
	.quad	.LBB13_133
	.quad	.LBB13_134
	.quad	.LBB13_135
	.quad	.LBB13_113
	.quad	.LBB13_136
	.quad	.LBB13_137
	.quad	.LBB13_138
	.quad	.LBB13_139
	.quad	.LBB13_140
	.quad	.LBB13_141
	.quad	.LBB13_142
	.quad	.LBB13_143
	.quad	.LBB13_144
	.quad	.LBB13_145
	.quad	.LBB13_146
	.quad	.LBB13_147
	.quad	.LBB13_148
	.quad	.LBB13_149
	.quad	.LBB13_150
	.quad	.LBB13_151
	.quad	.LBB13_152
	.quad	.LBB13_153
	.quad	.LBB13_154
	.quad	.LBB13_155
	.quad	.LBB13_156
	.quad	.LBB13_157
	.quad	.LBB13_158
	.quad	.LBB13_159
	.quad	.LBB13_160
	.quad	.LBB13_161
	.quad	.LBB13_162
	.quad	.LBB13_163
	.quad	.LBB13_164
	.quad	.LBB13_165
	.quad	.LBB13_166
	.quad	.LBB13_167
	.quad	.LBB13_168
	.quad	.LBB13_169
	.quad	.LBB13_170
	.quad	.LBB13_171
	.quad	.LBB13_172
	.quad	.LBB13_173
	.quad	.LBB13_174
	.quad	.LBB13_175
	.quad	.LBB13_176
	.quad	.LBB13_177
	.quad	.LBB13_178
	.quad	.LBB13_179
	.quad	.LBB13_190
	.quad	.LBB13_190
	.quad	.LBB13_190
	.quad	.LBB13_190
	.quad	.LBB13_190
	.quad	.LBB13_190
	.quad	.LBB13_190
	.quad	.LBB13_190
	.quad	.LBB13_190
	.quad	.LBB13_190
	.quad	.LBB13_190
	.quad	.LBB13_190
	.quad	.LBB13_190
	.quad	.LBB13_190
	.quad	.LBB13_190
	.quad	.LBB13_190
	.quad	.LBB13_190
	.quad	.LBB13_190
	.quad	.LBB13_190
	.quad	.LBB13_190
	.quad	.LBB13_190
	.quad	.LBB13_190
	.quad	.LBB13_190
	.quad	.LBB13_190
	.quad	.LBB13_190
	.quad	.LBB13_190
	.quad	.LBB13_190
	.quad	.LBB13_190
	.quad	.LBB13_190
	.quad	.LBB13_190
	.quad	.LBB13_190
	.quad	.LBB13_190
	.quad	.LBB13_110
	.quad	.LBB13_110
	.quad	.LBB13_110
	.quad	.LBB13_110
	.quad	.LBB13_110
	.quad	.LBB13_110
	.quad	.LBB13_110
	.quad	.LBB13_110
	.quad	.LBB13_110
	.quad	.LBB13_110
	.quad	.LBB13_110
	.quad	.LBB13_110
	.quad	.LBB13_110
	.quad	.LBB13_110
	.quad	.LBB13_110
	.quad	.LBB13_110
	.quad	.LBB13_110
	.quad	.LBB13_110
	.quad	.LBB13_110
	.quad	.LBB13_110
	.quad	.LBB13_110
	.quad	.LBB13_110
	.quad	.LBB13_110
	.quad	.LBB13_110
	.quad	.LBB13_110
	.quad	.LBB13_110
	.quad	.LBB13_110
	.quad	.LBB13_110
	.quad	.LBB13_110
	.quad	.LBB13_110
	.quad	.LBB13_110
	.quad	.LBB13_110
	.quad	.LBB13_109
	.quad	.LBB13_180
	.quad	.LBB13_111
	.quad	.LBB13_181
	.quad	.LBB13_182
	.quad	.LBB13_183
	.quad	.LBB13_184

	.text
	.align	16, 0x90
	.type	flush_queued_reg_saves,@function
flush_queued_reg_saves:                 # @flush_queued_reg_saves
	.cfi_startproc
# BB#0:                                 # %entry
	pushq	%r15
.Ltmp139:
	.cfi_def_cfa_offset 16
	pushq	%r14
.Ltmp140:
	.cfi_def_cfa_offset 24
	pushq	%r13
.Ltmp141:
	.cfi_def_cfa_offset 32
	pushq	%r12
.Ltmp142:
	.cfi_def_cfa_offset 40
	pushq	%rbx
.Ltmp143:
	.cfi_def_cfa_offset 48
.Ltmp144:
	.cfi_offset %rbx, -48
.Ltmp145:
	.cfi_offset %r12, -40
.Ltmp146:
	.cfi_offset %r13, -32
.Ltmp147:
	.cfi_offset %r14, -24
.Ltmp148:
	.cfi_offset %r15, -16
	movq	queued_reg_saves(%rip), %r13
	testq	%r13, %r13
	je	.LBB14_8
	.align	16, 0x90
.LBB14_1:                               # %for.body
                                        # =>This Inner Loop Header: Depth=1
	movq	8(%r13), %rax
	movq	last_reg_save_label(%rip), %r14
	movq	16(%r13), %r15
	movl	target_flags(%rip), %ecx
	movl	8(%rax), %ebx
	testq	$33554432, %rcx         # imm = 0x2000000
	movabsq	$svr4_dbx_register_map, %r12
	je	.LBB14_3
# BB#2:                                 # %for.body
                                        #   in Loop: Header=BB14_1 Depth=1
	movabsq	$dbx64_register_map, %r12
.LBB14_3:                               # %for.body
                                        #   in Loop: Header=BB14_1 Depth=1
	movq	$32, %rdi
	callq	xmalloc
	movl	(%r12,%rbx,4), %ecx
	movq	%rax, %rsi
	movq	$0, (%rsi)
	cmpq	$63, %rcx
	movq	%rcx, 16(%rsi)
	movq	$5, %rdi
	ja	.LBB14_5
# BB#4:                                 # %for.body
                                        #   in Loop: Header=BB14_1 Depth=1
	movq	$128, %rdi
.LBB14_5:                               # %for.body
                                        #   in Loop: Header=BB14_1 Depth=1
	movl	target_flags(%rip), %eax
	movq	$23, %rcx
	shrq	%cl, %rax
	andq	$4, %rax
	movq	$-4, %rcx
	subq	%rax, %rcx
	movq	%r15, %rax
	cqto
	idivq	%rcx
	testq	%rax, %rax
	movq	$17, %rcx
	js	.LBB14_7
# BB#6:                                 # %for.body
                                        #   in Loop: Header=BB14_1 Depth=1
	movq	%rdi, %rcx
.LBB14_7:                               # %for.body
                                        #   in Loop: Header=BB14_1 Depth=1
	movl	%ecx, 8(%rsi)
	movq	%rax, 24(%rsi)
	movq	%r14, %rdi
	callq	add_fde_cfi
	movq	(%r13), %rbx
	movq	%r13, %rdi
	callq	free
	testq	%rbx, %rbx
	movq	%rbx, %r13
	jne	.LBB14_1
.LBB14_8:                               # %for.end
	movq	$0, queued_reg_saves(%rip)
	movq	$0, last_reg_save_label(%rip)
	popq	%rbx
	popq	%r12
	popq	%r13
	popq	%r14
	popq	%r15
	retq
.Ltmp149:
	.size	flush_queued_reg_saves, .Ltmp149-flush_queued_reg_saves
	.cfi_endproc

	.align	16, 0x90
	.type	dwarf2out_frame_debug_expr,@function
dwarf2out_frame_debug_expr:             # @dwarf2out_frame_debug_expr
	.cfi_startproc
# BB#0:                                 # %entry
	pushq	%r15
.Ltmp155:
	.cfi_def_cfa_offset 16
	pushq	%r14
.Ltmp156:
	.cfi_def_cfa_offset 24
	pushq	%r12
.Ltmp157:
	.cfi_def_cfa_offset 32
	pushq	%rbx
.Ltmp158:
	.cfi_def_cfa_offset 40
	pushq	%rax
.Ltmp159:
	.cfi_def_cfa_offset 48
.Ltmp160:
	.cfi_offset %rbx, -40
.Ltmp161:
	.cfi_offset %r12, -32
.Ltmp162:
	.cfi_offset %r14, -24
.Ltmp163:
	.cfi_offset %r15, -16
	movq	%rdi, %r14
	movzbl	(%r14), %eax
	cmpq	$24, %rax
	je	.LBB15_3
# BB#1:                                 # %entry
	cmpq	$47, %rax
	jne	.LBB15_2
# BB#13:                                # %if.end33
	movq	8(%r14), %rax
	movl	(%rax), %edx
	movq	16(%r14), %r14
	movq	%rdx, %rcx
	andq	$65535, %rcx            # imm = 0xFFFF
	cmpq	$66, %rcx
	jne	.LBB15_14
# BB#85:                                # %sw.bb336
	movzbl	(%r14), %ecx
	cmpq	$61, %rcx
	jne	.LBB15_86
# BB#87:                                # %if.end342
	movq	8(%rax), %rax
	movzbl	(%rax), %esi
	cmpq	$134, %rsi
	jg	.LBB15_112
# BB#88:                                # %if.end342
	cmpq	$95, %rsi
	jg	.LBB15_93
# BB#89:                                # %if.end342
	leaq	-75(%rsi), %rcx
	movabsq	$4294967295, %rdx       # imm = 0xFFFFFFFF
	andq	%rcx, %rdx
	cmpq	$2, %rdx
	jb	.LBB15_113
# BB#90:                                # %if.end342
	cmpq	$61, %rsi
	jne	.LBB15_127
# BB#91:                                # %sw.bb502
	movq	cfa_store(%rip), %rdx
	movl	8(%rax), %ecx
	cmpq	%rcx, %rdx
	jne	.LBB15_122
# BB#92:                                # %if.then512
	movq	cfa_store+8(%rip), %rbx
	negq	%rbx
	jmp	.LBB15_129
.LBB15_2:                               # %entry
	cmpq	$39, %rax
	jne	.LBB15_11
.LBB15_3:                               # %if.then
	movq	8(%r14), %rax
	movslq	(%rax), %r15
	testq	%r15, %r15
	jle	.LBB15_140
# BB#4:
	movq	$1, %rbx
	movabsq	$4294967295, %r12       # imm = 0xFFFFFFFF
	andq	%r12, %r15
	jmp	.LBB15_5
	.align	16, 0x90
.LBB15_10:                              # %for.inc.for.body_crit_edge
                                        #   in Loop: Header=BB15_5 Depth=1
	movq	8(%r14), %rax
	incq	%rbx
.LBB15_5:                               # %for.body
                                        # =>This Inner Loop Header: Depth=1
	movq	(%rax,%rbx,8), %rdi
	movl	(%rdi), %eax
	movq	%rax, %rcx
	andq	$65535, %rcx            # imm = 0xFFFF
	cmpq	$47, %rcx
	jne	.LBB15_9
# BB#6:                                 # %land.lhs.true
                                        #   in Loop: Header=BB15_5 Depth=1
	movq	$32, %rcx
	shlq	%cl, %rax
	movq	$32, %rcx
	sarq	%cl, %rax
	testq	%rax, %rax
	js	.LBB15_8
# BB#7:                                 # %land.lhs.true
                                        #   in Loop: Header=BB15_5 Depth=1
	leaq	-1(%rbx), %rax
	testq	%r12, %rax
	jne	.LBB15_9
.LBB15_8:                               # %if.then21
                                        #   in Loop: Header=BB15_5 Depth=1
	callq	dwarf2out_frame_debug_expr
.LBB15_9:                               # %for.inc
                                        #   in Loop: Header=BB15_5 Depth=1
	movq	%rbx, %rax
	andq	%r12, %rax
	cmpq	%r15, %rax
	jne	.LBB15_10
	jmp	.LBB15_140
.LBB15_14:                              # %if.end33
	cmpq	$61, %rcx
	jne	.LBB15_141
# BB#15:                                # %sw.bb
	movzbl	(%r14), %ecx
	cmpq	$133, %rcx
	jg	.LBB15_22
# BB#16:                                # %sw.bb
	cmpq	$83, %rcx
	jg	.LBB15_73
# BB#17:                                # %sw.bb
	leaq	-75(%rcx), %rdx
	movabsq	$4294967295, %rsi       # imm = 0xFFFFFFFF
	andq	%rdx, %rsi
	cmpq	$2, %rsi
	jb	.LBB15_24
# BB#18:                                # %sw.bb
	cmpq	$54, %rcx
	jne	.LBB15_19
# BB#72:                                # %sw.bb280
	movl	8(%rax), %eax
	movq	%rax, cfa_temp.0(%rip)
	movq	8(%r14), %rax
	movq	%rax, cfa_temp.1(%rip)
	jmp	.LBB15_83
.LBB15_112:                             # %if.end342
	cmpq	$135, %rsi
	jne	.LBB15_127
.LBB15_113:                             # %sw.bb438
	movq	16(%rax), %rcx
	movzbl	(%rcx), %edx
	cmpq	$54, %rdx
	jne	.LBB15_114
# BB#115:                               # %if.end450
	movq	8(%rcx), %rbx
	cmpq	$76, %rsi
	jne	.LBB15_117
# BB#116:
	negq	%rbx
.LBB15_117:                             # %if.end450
	movq	8(%rax), %rcx
	movq	cfa_store(%rip), %rdx
	movl	8(%rcx), %ecx
	cmpq	%rcx, %rdx
	jne	.LBB15_119
# BB#118:                               # %if.then482
	movq	cfa_store+8(%rip), %rcx
	subq	%rcx, %rbx
	jmp	.LBB15_129
.LBB15_22:                              # %sw.bb
	cmpq	$134, %rcx
	je	.LBB15_83
# BB#23:                                # %sw.bb
	cmpq	$135, %rcx
	jne	.LBB15_81
.LBB15_24:                              # %sw.bb54
	movq	global_rtl+16(%rip), %rdx
	cmpq	%rdx, %rax
	je	.LBB15_25
# BB#46:                                # %if.else122
	movq	global_rtl+32(%rip), %rsi
	cmpq	%rsi, %rax
	je	.LBB15_47
# BB#56:                                # %if.else171
	cmpq	$76, %rcx
	je	.LBB15_57
# BB#58:                                # %if.end177
	movq	8(%r14), %rsi
	movzbl	(%rsi), %edi
	cmpq	$61, %rdi
	jne	.LBB15_68
# BB#59:                                # %land.lhs.true185
	movl	8(%rsi), %r8d
	movq	cfa(%rip), %rbx
	cmpq	%rbx, %r8
	jne	.LBB15_63
# BB#60:                                # %land.lhs.true195
	movq	16(%r14), %r8
	movzbl	(%r8), %ebx
	cmpq	$54, %rbx
	jne	.LBB15_62
# BB#61:                                # %if.then203
	movq	8(%r8), %rcx
	movq	cfa+8(%rip), %rdx
	subq	%rcx, %rdx
	movq	%rdx, cfa+8(%rip)
	movl	8(%rax), %eax
	movq	%rax, cfa(%rip)
	movq	%rax, cfa_temp.0(%rip)
	movq	%rdx, cfa_temp.1(%rip)
	jmp	.LBB15_83
.LBB15_119:                             # %if.else484
	movq	cfa_temp.0(%rip), %rdx
	cmpq	%rcx, %rdx
	jne	.LBB15_121
# BB#120:                               # %if.then497
	movq	cfa_temp.1(%rip), %rcx
	subq	%rcx, %rbx
	jmp	.LBB15_129
.LBB15_93:                              # %if.end342
	leaq	-96(%rsi), %rcx
	movabsq	$4294967295, %rdi       # imm = 0xFFFFFFFF
	andq	%rcx, %rdi
	cmpq	$2, %rdi
	jae	.LBB15_94
# BB#104:                               # %sw.bb399
	movq	8(%rax), %rcx
	movl	8(%rcx), %edi
	movq	$16, %rcx
	shrq	%cl, %rdx
	cmpq	$7, %rdi
	jne	.LBB15_106
# BB#105:                               # %sw.bb399
	movq	cfa_store(%rip), %rcx
	cmpq	$7, %rcx
	jne	.LBB15_106
# BB#107:                               # %if.end431
	andq	$255, %rdx
	movzbl	mode_size(%rdx), %ecx
	cmpq	$97, %rsi
	jne	.LBB15_109
# BB#108:
	negq	%rcx
.LBB15_109:                             # %if.end431
	movq	cfa_store+8(%rip), %rbx
	movq	cfa(%rip), %rdx
	addq	%rcx, %rbx
	movq	%rbx, cfa_store+8(%rip)
	cmpq	$7, %rdx
	jne	.LBB15_111
# BB#110:                               # %if.then435
	movq	%rbx, cfa+8(%rip)
.LBB15_111:                             # %if.end436
	negq	%rbx
	jmp	.LBB15_129
.LBB15_73:                              # %sw.bb
	cmpq	$84, %rcx
	jne	.LBB15_81
# BB#74:                                # %sw.bb288
	movq	8(%r14), %rcx
	movzbl	(%rcx), %edx
	cmpq	$61, %rdx
	jne	.LBB15_77
# BB#75:                                # %lor.lhs.false296
	movl	8(%rcx), %ecx
	movq	cfa_temp.0(%rip), %rdx
	cmpq	%rdx, %rcx
	jne	.LBB15_77
# BB#76:                                # %lor.lhs.false306
	movq	16(%r14), %rdx
	movzbl	(%rdx), %esi
	cmpq	$54, %rsi
	jne	.LBB15_77
# BB#78:                                # %if.end315
	movl	8(%rax), %eax
	cmpq	%rcx, %rax
	je	.LBB15_80
# BB#79:                                # %if.then322
	movq	%rax, cfa_temp.0(%rip)
.LBB15_80:                              # %if.end327
	movq	8(%rdx), %rax
	orq	%rax, cfa_temp.1(%rip)
	jmp	.LBB15_83
.LBB15_25:                              # %if.then57
	movq	16(%r14), %rdx
	movzbl	(%rdx), %esi
	cmpq	$61, %rsi
	jne	.LBB15_26
# BB#31:                                # %sw.bb69
	movl	8(%rdx), %edx
	movq	cfa_temp.0(%rip), %rsi
	cmpq	%rsi, %rdx
	jne	.LBB15_33
# BB#32:
	movabsq	$cfa_temp.1, %rdx
	jmp	.LBB15_28
.LBB15_94:                              # %if.end342
	cmpq	$99, %rsi
	jne	.LBB15_95
# BB#125:                               # %sw.bb529
	movq	8(%rax), %rcx
	movq	cfa_temp.0(%rip), %rsi
	movl	8(%rcx), %ecx
	cmpq	%rcx, %rsi
	jne	.LBB15_126
# BB#128:                               # %if.end543
	movq	cfa_temp.1(%rip), %rsi
	movq	$16, %rcx
	shrq	%cl, %rdx
	andq	$255, %rdx
	movzbl	mode_size(%rdx), %ecx
	movq	%rsi, %rbx
	negq	%rbx
	subq	%rcx, %rsi
	movq	%rsi, cfa_temp.1(%rip)
	jmp	.LBB15_129
.LBB15_47:                              # %if.then125
	movl	frame_pointer_needed(%rip), %eax
	testq	%rax, %rax
	je	.LBB15_48
# BB#49:                                # %if.end128
	movq	8(%r14), %rax
	movzbl	(%rax), %edx
	cmpq	$61, %rdx
	jne	.LBB15_55
# BB#50:                                # %land.lhs.true136
	movl	8(%rax), %eax
	movq	cfa(%rip), %rdx
	cmpq	%rdx, %rax
	jne	.LBB15_55
# BB#51:                                # %land.lhs.true146
	movq	16(%r14), %rax
	movzbl	(%rax), %edx
	cmpq	$54, %rdx
	jne	.LBB15_55
# BB#52:                                # %if.then154
	movq	8(%rax), %rax
	cmpq	$76, %rcx
	je	.LBB15_54
# BB#53:                                # %if.then154
	negq	%rax
.LBB15_54:                              # %if.then154
	addq	%rax, cfa+8(%rip)
	movq	$6, cfa(%rip)
	jmp	.LBB15_83
.LBB15_26:                              # %if.then57
	cmpq	$54, %rsi
	jne	.LBB15_34
# BB#27:                                # %sw.bb63
	addq	$8, %rdx
.LBB15_28:                              # %sw.epilog
	movq	8(%r14), %rsi
	movq	global_rtl+32(%rip), %rdi
	movq	(%rdx), %rdx
	cmpq	%rdi, %rsi
	je	.LBB15_29
# BB#37:                                # %if.else91
	cmpq	$135, %rcx
	je	.LBB15_40
# BB#38:                                # %if.else91
	cmpq	%rax, %rsi
	jne	.LBB15_39
.LBB15_40:                              # %if.end106
	movq	cfa(%rip), %rax
	cmpq	$76, %rcx
	je	.LBB15_42
# BB#41:                                # %if.end106
	negq	%rdx
.LBB15_42:                              # %if.end106
	cmpq	$7, %rax
	jne	.LBB15_44
	jmp	.LBB15_43
.LBB15_19:                              # %sw.bb
	cmpq	$61, %rcx
	jne	.LBB15_81
# BB#20:                                # %sw.bb43
	movq	cfa(%rip), %rcx
	movl	8(%r14), %edx
	cmpq	%rdx, %rcx
	jne	.LBB15_21
# BB#82:                                # %if.end49
	movl	8(%rax), %eax
	movq	%rax, cfa(%rip)
	movq	cfa+8(%rip), %rcx
	movq	%rax, cfa_temp.0(%rip)
	movq	%rcx, cfa_temp.1(%rip)
	jmp	.LBB15_83
.LBB15_95:                              # %if.end342
	cmpq	$100, %rsi
	jne	.LBB15_127
# BB#96:                                # %sw.bb348
	movq	16(%rax), %rcx
	movq	16(%rcx), %rcx
	movzbl	(%rcx), %edx
	cmpq	$54, %rdx
	jne	.LBB15_97
# BB#98:                                # %if.end363
	movq	8(%rax), %rdx
	movl	8(%rdx), %edx
	cmpq	$7, %rdx
	jne	.LBB15_100
# BB#99:                                # %if.end363
	movq	cfa_store(%rip), %rdx
	cmpq	$7, %rdx
	jne	.LBB15_100
# BB#101:                               # %if.end392
	movq	8(%rcx), %rcx
	movq	cfa_store+8(%rip), %rbx
	movq	cfa(%rip), %rdx
	subq	%rcx, %rbx
	movq	%rbx, cfa_store+8(%rip)
	cmpq	$7, %rdx
	jne	.LBB15_103
# BB#102:                               # %if.then396
	movq	%rbx, cfa+8(%rip)
.LBB15_103:                             # %if.end397
	negq	%rbx
	jmp	.LBB15_129
.LBB15_29:                              # %if.then86
	movq	cfa(%rip), %rax
	cmpq	$6, %rax
	jne	.LBB15_30
# BB#35:                                # %if.end106.thread
	movq	$7, cfa(%rip)
	movzbl	(%r14), %eax
	cmpq	$76, %rax
	je	.LBB15_43
# BB#36:                                # %if.end106.thread
	negq	%rdx
.LBB15_43:                              # %if.then115
	addq	%rdx, cfa+8(%rip)
.LBB15_44:                              # %if.end116
	movq	cfa_store(%rip), %rax
	cmpq	$7, %rax
	jne	.LBB15_83
# BB#45:                                # %if.then119
	addq	%rdx, cfa_store+8(%rip)
	jmp	.LBB15_83
.LBB15_122:                             # %if.else514
	movq	cfa_temp.0(%rip), %rdx
	cmpq	%rcx, %rdx
	jne	.LBB15_124
# BB#123:                               # %if.then524
	movq	cfa_temp.1(%rip), %rbx
	negq	%rbx
.LBB15_129:                             # %sw.epilog553
	movl	8(%r14), %ecx
	movabsq	$4294967294, %rdx       # imm = 0xFFFFFFFE
	andq	%rcx, %rdx
	cmpq	$6, %rdx
	je	.LBB15_138
# BB#130:                               # %land.lhs.true565
	movq	cfa(%rip), %rdx
	cmpq	%rdx, %rcx
	jne	.LBB15_138
# BB#131:                               # %if.then572
	cmpq	$0, cfa+8(%rip)
	je	.LBB15_132
# BB#133:                               # %if.else576
	movl	(%rax), %ecx
	movq	%rcx, %rdx
	andq	$65535, %rdx            # imm = 0xFFFF
	cmpq	$61, %rdx
	je	.LBB15_135
# BB#134:                               # %if.then584
	movq	8(%rax), %rax
	movl	(%rax), %ecx
.LBB15_135:                             # %if.end588
	andq	$65535, %rcx            # imm = 0xFFFF
	cmpq	$61, %rcx
	jne	.LBB15_136
# BB#137:                               # %if.end594
	movl	8(%rax), %eax
	movq	%rax, cfa(%rip)
	movabsq	$cfa, %rsi
	movq	%rbx, cfa+16(%rip)
	movq	$1, %rax
	movabsq	$dwarf2out_cfi_label.label, %rdi
	movl	%eax, cfa+24(%rip)
	jmp	.LBB15_84
.LBB15_138:                             # %if.end599
	movabsq	$dwarf2out_cfi_label.label, %rdi
	movabsq	$cfa, %rsi
	callq	def_cfa_1
.LBB15_139:                             # %sw.epilog601
	movq	$24, %rdi
	callq	xmalloc
	movq	queued_reg_saves(%rip), %rcx
	movq	%rcx, (%rax)
	movq	%r14, 8(%rax)
	movq	%rbx, 16(%rax)
	movq	%rax, queued_reg_saves(%rip)
	movq	$dwarf2out_cfi_label.label, last_reg_save_label(%rip)
.LBB15_140:                             # %sw.epilog601
	addq	$8, %rsp
	popq	%rbx
	popq	%r12
	popq	%r14
	popq	%r15
	retq
.LBB15_132:                             # %if.then575
	movabsq	$dwarf2out_cfi_label.label, %rdi
	movabsq	$cfa, %rsi
	callq	def_cfa_1
	movq	global_rtl+16(%rip), %r14
	jmp	.LBB15_139
.LBB15_62:                              # %if.else216
	cmpq	$61, %rdi
	jne	.LBB15_68
.LBB15_63:                              # %land.lhs.true224
	movl	8(%rsi), %esi
	movq	cfa_temp.0(%rip), %rdi
	cmpq	%rdi, %rsi
	jne	.LBB15_68
# BB#64:                                # %land.lhs.true234
	movq	16(%r14), %rsi
	cmpq	%rdx, %rsi
	je	.LBB15_65
.LBB15_68:                              # %if.else250
	cmpq	$135, %rcx
	jne	.LBB15_71
# BB#69:                                # %land.lhs.true255
	movq	16(%r14), %rcx
	movzbl	(%rcx), %edx
	cmpq	$54, %rdx
	jne	.LBB15_71
# BB#70:                                # %if.then263
	movl	8(%rax), %eax
	movq	%rax, cfa_temp.0(%rip)
	movq	8(%rcx), %rax
	movq	%rax, cfa_temp.1(%rip)
.LBB15_83:                              # %sw.epilog335
	movabsq	$dwarf2out_cfi_label.label, %rdi
	movabsq	$cfa, %rsi
.LBB15_84:                              # %sw.epilog335
	addq	$8, %rsp
	popq	%rbx
	popq	%r12
	popq	%r14
	popq	%r15
	jmp	def_cfa_1  # TAILCALL
.LBB15_65:                              # %if.then240
	movq	cfa(%rip), %rcx
	cmpq	$7, %rcx
	jne	.LBB15_66
# BB#67:                                # %if.end244
	movq	cfa+8(%rip), %rcx
	movq	cfa_temp.1(%rip), %rdx
	movl	8(%rax), %eax
	movq	%rax, cfa_store(%rip)
	subq	%rdx, %rcx
	movq	%rcx, cfa_store+8(%rip)
	jmp	.LBB15_83
.LBB15_86:                              # %if.then341
	movabsq	$.L.str4, %rax
	movabsq	$.L__FUNCTION__.dwarf2out_frame_debug_expr, %rcx
	movq	$1479, %rsi             # imm = 0x5C7
	jmp	.LBB15_12
.LBB15_11:                              # %if.then32
	movabsq	$.L.str4, %rax
	movabsq	$.L__FUNCTION__.dwarf2out_frame_debug_expr, %rcx
	movq	$1309, %rsi             # imm = 0x51D
	jmp	.LBB15_12
.LBB15_141:                             # %sw.default600
	movabsq	$.L.str4, %rax
	movabsq	$.L__FUNCTION__.dwarf2out_frame_debug_expr, %rcx
	movq	$1603, %rsi             # imm = 0x643
	jmp	.LBB15_12
.LBB15_114:                             # %if.then449
	movabsq	$.L.str4, %rax
	movabsq	$.L__FUNCTION__.dwarf2out_frame_debug_expr, %rcx
	movq	$1528, %rsi             # imm = 0x5F8
	jmp	.LBB15_12
.LBB15_57:                              # %if.then176
	movabsq	$.L.str4, %rax
	movabsq	$.L__FUNCTION__.dwarf2out_frame_debug_expr, %rcx
	movq	$1404, %rsi             # imm = 0x57C
	jmp	.LBB15_12
.LBB15_121:                             # %if.else499
	movabsq	$.L.str4, %rax
	movabsq	$.L__FUNCTION__.dwarf2out_frame_debug_expr, %rcx
	movq	$1538, %rsi             # imm = 0x602
	jmp	.LBB15_12
.LBB15_106:                             # %if.then430
	movabsq	$.L.str4, %rax
	movabsq	$.L__FUNCTION__.dwarf2out_frame_debug_expr, %rcx
	movq	$1513, %rsi             # imm = 0x5E9
	jmp	.LBB15_12
.LBB15_77:                              # %if.then314
	movabsq	$.L.str4, %rax
	movabsq	$.L__FUNCTION__.dwarf2out_frame_debug_expr, %rcx
	movq	$1457, %rsi             # imm = 0x5B1
	jmp	.LBB15_12
.LBB15_33:                              # %if.then79
	movabsq	$.L.str4, %rax
	movabsq	$.L__FUNCTION__.dwarf2out_frame_debug_expr, %rcx
	movq	$1353, %rsi             # imm = 0x549
	jmp	.LBB15_12
.LBB15_126:                             # %if.then542
	movabsq	$.L.str4, %rax
	movabsq	$.L__FUNCTION__.dwarf2out_frame_debug_expr, %rcx
	movq	$1555, %rsi             # imm = 0x613
	jmp	.LBB15_12
.LBB15_48:                              # %if.then127
	movabsq	$.L.str4, %rax
	movabsq	$.L__FUNCTION__.dwarf2out_frame_debug_expr, %rcx
	movq	$1386, %rsi             # imm = 0x56A
	jmp	.LBB15_12
.LBB15_55:                              # %if.else169
	movabsq	$.L.str4, %rax
	movabsq	$.L__FUNCTION__.dwarf2out_frame_debug_expr, %rcx
	movq	$1399, %rsi             # imm = 0x577
	jmp	.LBB15_12
.LBB15_34:                              # %sw.default
	movabsq	$.L.str4, %rax
	movabsq	$.L__FUNCTION__.dwarf2out_frame_debug_expr, %rcx
	movq	$1357, %rsi             # imm = 0x54D
	jmp	.LBB15_12
.LBB15_39:                              # %if.then103
	movabsq	$.L.str4, %rax
	movabsq	$.L__FUNCTION__.dwarf2out_frame_debug_expr, %rcx
	movq	$1371, %rsi             # imm = 0x55B
	jmp	.LBB15_12
.LBB15_81:                              # %sw.default334
	movabsq	$.L.str4, %rax
	movabsq	$.L__FUNCTION__.dwarf2out_frame_debug_expr, %rcx
	movq	$1471, %rsi             # imm = 0x5BF
	jmp	.LBB15_12
.LBB15_21:                              # %if.else
	movabsq	$.L.str4, %rax
	movabsq	$.L__FUNCTION__.dwarf2out_frame_debug_expr, %rcx
	movq	$1328, %rsi             # imm = 0x530
	jmp	.LBB15_12
.LBB15_127:                             # %sw.default552
	movabsq	$.L.str4, %rax
	movabsq	$.L__FUNCTION__.dwarf2out_frame_debug_expr, %rcx
	movq	$1561, %rsi             # imm = 0x619
	jmp	.LBB15_12
.LBB15_97:                              # %if.then362
	movabsq	$.L.str4, %rax
	movabsq	$.L__FUNCTION__.dwarf2out_frame_debug_expr, %rcx
	movq	$1490, %rsi             # imm = 0x5D2
	jmp	.LBB15_12
.LBB15_100:                             # %if.then391
	movabsq	$.L.str4, %rax
	movabsq	$.L__FUNCTION__.dwarf2out_frame_debug_expr, %rcx
	movq	$1495, %rsi             # imm = 0x5D7
	jmp	.LBB15_12
.LBB15_30:                              # %if.then89
	movabsq	$.L.str4, %rax
	movabsq	$.L__FUNCTION__.dwarf2out_frame_debug_expr, %rcx
	movq	$1364, %rsi             # imm = 0x554
	jmp	.LBB15_12
.LBB15_124:                             # %if.else526
	movabsq	$.L.str4, %rax
	movabsq	$.L__FUNCTION__.dwarf2out_frame_debug_expr, %rcx
	movq	$1549, %rsi             # imm = 0x60D
	jmp	.LBB15_12
.LBB15_136:                             # %if.then593
	movabsq	$.L.str4, %rax
	movabsq	$.L__FUNCTION__.dwarf2out_frame_debug_expr, %rcx
	movq	$1588, %rsi             # imm = 0x634
	jmp	.LBB15_12
.LBB15_71:                              # %if.else274
	movabsq	$.L.str4, %rax
	movabsq	$.L__FUNCTION__.dwarf2out_frame_debug_expr, %rcx
	movq	$1442, %rsi             # imm = 0x5A2
	jmp	.LBB15_12
.LBB15_66:                              # %if.then243
	movabsq	$.L.str4, %rax
	movabsq	$.L__FUNCTION__.dwarf2out_frame_debug_expr, %rcx
	movq	$1429, %rsi             # imm = 0x595
.LBB15_12:                              # %if.then32
	movq	%rax, %rdi
	movq	%rcx, %rdx
	callq	fancy_abort
.Ltmp164:
	.size	dwarf2out_frame_debug_expr, .Ltmp164-dwarf2out_frame_debug_expr
	.cfi_endproc

	.globl	dwarf2out_begin_prologue
	.align	16, 0x90
	.type	dwarf2out_begin_prologue,@function
dwarf2out_begin_prologue:               # @dwarf2out_begin_prologue
	.cfi_startproc
# BB#0:                                 # %entry
	pushq	%r15
.Ltmp171:
	.cfi_def_cfa_offset 16
	pushq	%r14
.Ltmp172:
	.cfi_def_cfa_offset 24
	pushq	%r13
.Ltmp173:
	.cfi_def_cfa_offset 32
	pushq	%r12
.Ltmp174:
	.cfi_def_cfa_offset 40
	pushq	%rbx
.Ltmp175:
	.cfi_def_cfa_offset 48
	subq	$32, %rsp
.Ltmp176:
	.cfi_def_cfa_offset 80
.Ltmp177:
	.cfi_offset %rbx, -48
.Ltmp178:
	.cfi_offset %r12, -40
.Ltmp179:
	.cfi_offset %r13, -32
.Ltmp180:
	.cfi_offset %r14, -24
.Ltmp181:
	.cfi_offset %r15, -16
	movl	flag_unwind_tables(%rip), %eax
	movq	%rsi, %r15
	movq	%rdi, %r14
	movq	$0, current_function_func_begin_label(%rip)
	testq	%rax, %rax
	jne	.LBB16_4
# BB#1:                                 # %switch.early.test.i
	movl	write_symbols(%rip), %eax
	cmpq	$4, %rax
	je	.LBB16_4
# BB#2:                                 # %switch.early.test.i
	cmpq	$7, %rax
	je	.LBB16_4
# BB#3:                                 # %lor.rhs.i
	movl	flag_exceptions(%rip), %eax
	testq	%rax, %rax
	je	.LBB16_13
.LBB16_4:                               # %if.end
	movl	current_funcdef_number(%rip), %eax
	movq	current_function_decl(%rip), %rdi
	incq	%rax
	movl	%eax, current_funcdef_number(%rip)
	callq	function_section
	movl	current_funcdef_number(%rip), %ecx
	movabsq	$.L.str1, %rsi
	movabsq	$.L.str5, %rbx
	leaq	(%rsp), %r12
	xorq	%rax, %rax
	movq	%r12, %rdi
	movq	%rbx, %rdx
	callq	sprintf
	movq	asm_out_file(%rip), %rdi
	movl	current_funcdef_number(%rip), %ecx
	movabsq	$.L.str6, %rsi
	xorq	%rax, %rax
	movq	%rbx, %rdx
	callq	fprintf
	movq	%r12, %rdi
	callq	get_identifier
	movl	fde_table_in_use(%rip), %ebx
	movl	fde_table_allocated(%rip), %ecx
	movq	%rax, current_function_func_begin_label(%rip)
	cmpq	%rcx, %rbx
	jne	.LBB16_5
# BB#6:                                 # %if.then7
	addq	$256, %rbx              # imm = 0x100
	movl	%ebx, fde_table_allocated(%rip)
	movq	fde_table(%rip), %rdi
	movabsq	$4294967295, %rax       # imm = 0xFFFFFFFF
	andq	%rbx, %rax
	movq	$3, %rcx
	shlq	%cl, %rax
	leaq	(%rax,%rax,4), %rsi
	callq	xrealloc
	movl	fde_table_in_use(%rip), %ebx
	movq	%rax, %r13
	movq	%r13, fde_table(%rip)
	jmp	.LBB16_7
.LBB16_5:                               # %if.end.if.end9_crit_edge
	movq	fde_table(%rip), %r13
.LBB16_7:                               # %if.end9
	leaq	1(%rbx), %rax
	movl	%eax, fde_table_in_use(%rip)
	movabsq	$4294967295, %r12       # imm = 0xFFFFFFFF
	andq	%r12, %rbx
	leaq	(%rsp), %rdi
	callq	xstrdup
	leaq	(%rbx,%rbx,4), %rdx
	movq	%rax, (%r13,%rdx,8)
	movq	$0, 24(%r13,%rdx,8)
	movq	$0, 16(%r13,%rdx,8)
	movq	$0, 8(%r13,%rdx,8)
	movl	current_funcdef_number(%rip), %eax
	movl	%eax, 32(%r13,%rdx,8)
	movzbl	current_function_nothrow(%rip), %eax
	movzbl	36(%r13,%rdx,8), %esi
	andq	$1, %rax
	andq	$-2, %rsi
	orq	%rax, %rsi
	movb	%sil, 36(%r13,%rdx,8)
	movq	cfun(%rip), %rax
	movl	424(%rax), %eax
	movq	$21, %rcx
	shrq	%cl, %rax
	andq	$2, %rax
	andq	$253, %rsi
	orq	%rax, %rsi
	movb	%sil, 36(%r13,%rdx,8)
	movq	$0, old_args_size(%rip)
	movq	$0, args_size(%rip)
	testq	%r15, %r15
	je	.LBB16_13
# BB#8:                                 # %if.end9
	movl	debug_info_level(%rip), %eax
	andq	%r12, %rax
	cmpq	$2, %rax
	jb	.LBB16_13
# BB#9:                                 # %if.then.i
	movq	current_function_decl(%rip), %rdi
	callq	function_section
	movl	flag_debug_asm(%rip), %eax
	testq	%rax, %rax
	je	.LBB16_11
# BB#10:                                # %if.then1.i
	movq	asm_out_file(%rip), %rdi
	movabsq	$.L.str408, %rsi
	movabsq	$.L.str409, %rdx
	xorq	%rax, %rax
	movq	%r15, %rcx
	movq	%r14, %r8
	callq	fprintf
.LBB16_11:                              # %if.end.i
	movq	%r15, %rdi
	callq	lookup_filename
	movq	asm_out_file(%rip), %rdi
	movq	%rax, %rcx
	movabsq	$.L.str410, %rsi
	xorq	%rax, %rax
	movq	%rcx, %rdx
	movq	%r14, %rcx
	callq	fprintf
	movl	line_info_table_in_use(%rip), %eax
	movq	current_function_decl(%rip), %rcx
	incq	%rax
	movl	%eax, line_info_table_in_use(%rip)
	cmpq	$0, 128(%rcx)
	je	.LBB16_13
# BB#12:                                # %if.then5.i
	movl	separate_line_info_table_in_use(%rip), %eax
	incq	%rax
	movl	%eax, separate_line_info_table_in_use(%rip)
.LBB16_13:                              # %if.end23
	addq	$32, %rsp
	popq	%rbx
	popq	%r12
	popq	%r13
	popq	%r14
	popq	%r15
	retq
.Ltmp182:
	.size	dwarf2out_begin_prologue, .Ltmp182-dwarf2out_begin_prologue
	.cfi_endproc

	.align	16, 0x90
	.type	dwarf2out_source_line,@function
dwarf2out_source_line:                  # @dwarf2out_source_line
	.cfi_startproc
# BB#0:                                 # %entry
	pushq	%r14
.Ltmp186:
	.cfi_def_cfa_offset 16
	pushq	%rbx
.Ltmp187:
	.cfi_def_cfa_offset 24
	pushq	%rax
.Ltmp188:
	.cfi_def_cfa_offset 32
.Ltmp189:
	.cfi_offset %rbx, -24
.Ltmp190:
	.cfi_offset %r14, -16
	movl	debug_info_level(%rip), %eax
	movq	%rsi, %rbx
	movq	%rdi, %r14
	cmpq	$2, %rax
	jb	.LBB17_5
# BB#1:                                 # %if.then
	movq	current_function_decl(%rip), %rdi
	callq	function_section
	movl	flag_debug_asm(%rip), %eax
	testq	%rax, %rax
	je	.LBB17_3
# BB#2:                                 # %if.then1
	movq	asm_out_file(%rip), %rdi
	movabsq	$.L.str408, %rsi
	movabsq	$.L.str409, %rdx
	xorq	%rax, %rax
	movq	%rbx, %rcx
	movq	%r14, %r8
	callq	fprintf
.LBB17_3:                               # %if.end
	movq	%rbx, %rdi
	callq	lookup_filename
	movq	asm_out_file(%rip), %rdi
	movq	%rax, %rcx
	movabsq	$.L.str410, %rsi
	xorq	%rax, %rax
	movq	%rcx, %rdx
	movq	%r14, %rcx
	callq	fprintf
	movl	line_info_table_in_use(%rip), %eax
	movq	current_function_decl(%rip), %rcx
	incq	%rax
	movl	%eax, line_info_table_in_use(%rip)
	cmpq	$0, 128(%rcx)
	je	.LBB17_5
# BB#4:                                 # %if.then5
	movl	separate_line_info_table_in_use(%rip), %eax
	incq	%rax
	movl	%eax, separate_line_info_table_in_use(%rip)
.LBB17_5:                               # %if.end8
	addq	$8, %rsp
	popq	%rbx
	popq	%r14
	retq
.Ltmp191:
	.size	dwarf2out_source_line, .Ltmp191-dwarf2out_source_line
	.cfi_endproc

	.globl	dwarf2out_end_epilogue
	.align	16, 0x90
	.type	dwarf2out_end_epilogue,@function
dwarf2out_end_epilogue:                 # @dwarf2out_end_epilogue
	.cfi_startproc
# BB#0:                                 # %entry
	pushq	%r15
.Ltmp196:
	.cfi_def_cfa_offset 16
	pushq	%r14
.Ltmp197:
	.cfi_def_cfa_offset 24
	pushq	%rbx
.Ltmp198:
	.cfi_def_cfa_offset 32
	subq	$32, %rsp
.Ltmp199:
	.cfi_def_cfa_offset 64
.Ltmp200:
	.cfi_offset %rbx, -32
.Ltmp201:
	.cfi_offset %r14, -24
.Ltmp202:
	.cfi_offset %r15, -16
	movl	current_funcdef_number(%rip), %ecx
	movabsq	$.L.str1, %rsi
	movabsq	$.L.str7, %rdx
	leaq	(%rsp), %r14
	xorq	%rax, %rax
	movq	%r14, %rdi
	callq	sprintf
	movq	asm_out_file(%rip), %rdi
	movq	%r14, %rsi
	callq	assemble_name
	movq	asm_out_file(%rip), %rcx
	movabsq	$.L.str3, %rdi
	movq	$2, %rsi
	movq	$1, %rdx
	callq	fwrite
	movl	fde_table_in_use(%rip), %eax
	movq	fde_table(%rip), %r15
	decq	%rax
	movabsq	$4294967295, %rbx       # imm = 0xFFFFFFFF
	andq	%rax, %rbx
	movq	%r14, %rdi
	callq	xstrdup
	leaq	(%rbx,%rbx,4), %rcx
	movq	%rax, 16(%r15,%rcx,8)
	addq	$32, %rsp
	popq	%rbx
	popq	%r14
	popq	%r15
	retq
.Ltmp203:
	.size	dwarf2out_end_epilogue, .Ltmp203-dwarf2out_end_epilogue
	.cfi_endproc

	.globl	dwarf2out_frame_init
	.align	16, 0x90
	.type	dwarf2out_frame_init,@function
dwarf2out_frame_init:                   # @dwarf2out_frame_init
	.cfi_startproc
# BB#0:                                 # %entry
	pushq	%r15
.Ltmp209:
	.cfi_def_cfa_offset 16
	pushq	%r14
.Ltmp210:
	.cfi_def_cfa_offset 24
	pushq	%r12
.Ltmp211:
	.cfi_def_cfa_offset 32
	pushq	%rbx
.Ltmp212:
	.cfi_def_cfa_offset 40
	subq	$40, %rsp
.Ltmp213:
	.cfi_def_cfa_offset 80
.Ltmp214:
	.cfi_offset %rbx, -40
.Ltmp215:
	.cfi_offset %r12, -32
.Ltmp216:
	.cfi_offset %r14, -24
.Ltmp217:
	.cfi_offset %r15, -16
	movq	$256, %rdi              # imm = 0x100
	movq	$40, %rsi
	movq	$256, %rbx              # imm = 0x100
	callq	xcalloc
	movq	%rax, fde_table(%rip)
	movl	%ebx, fde_table_allocated(%rip)
	xorq	%rax, %rax
	movl	%eax, fde_table_in_use(%rip)
	movl	target_flags(%rip), %edx
	movq	$23, %rcx
	shrq	%cl, %rdx
	andq	$4, %rdx
	addq	$4, %rdx
	movabsq	$4294967292, %rcx       # imm = 0xFFFFFFFC
	andq	%rdx, %rcx
	movl	%eax, 32(%rsp)
	movq	$0, 24(%rsp)
	movq	$7, 8(%rsp)
	movq	%rcx, 16(%rsp)
	leaq	8(%rsp), %rsi
	xorq	%rdi, %rdi
	callq	def_cfa_1
	xorq	%rdi, %rdi
	movq	$7, %rsi
	callq	gen_rtx_REG
	xorq	%rdi, %rdi
	movq	%rax, %rsi
	callq	gen_rtx_MEM
	jmp	.LBB19_1
	.align	16, 0x90
.LBB19_23:                              # %if.end55.i
                                        #   in Loop: Header=BB19_1 Depth=1
	movq	8(%rax), %rax
.LBB19_1:                               # %tailrecurse.i
                                        # =>This Inner Loop Header: Depth=1
	movzbl	(%rax), %ecx
	cmpq	$75, %rcx
	jne	.LBB19_2
# BB#21:                                # %sw.bb47.i
                                        #   in Loop: Header=BB19_1 Depth=1
	movq	16(%rax), %rcx
	movzbl	(%rcx), %ecx
	cmpq	$54, %rcx
	je	.LBB19_23
# BB#22:                                # %if.then54.i
	movabsq	$.L.str4, %rax
	movabsq	$.L__FUNCTION__.initial_return_save, %rcx
	movq	$921, %rsi              # imm = 0x399
	jmp	.LBB19_14
.LBB19_2:                               # %tailrecurse.i
	cmpq	$66, %rcx
	jne	.LBB19_3
# BB#8:                                 # %sw.bb7.i
	movq	8(%rax), %rax
	movzbl	(%rax), %ecx
	cmpq	$76, %rcx
	je	.LBB19_17
# BB#9:                                 # %sw.bb7.i
	cmpq	$75, %rcx
	jne	.LBB19_10
# BB#15:                                # %sw.bb16.i
	movq	8(%rax), %rcx
	movl	8(%rcx), %ecx
	cmpq	$7, %rcx
	jne	.LBB19_16
# BB#25:                                # %if.end25.i
	movq	16(%rax), %rax
	movq	8(%rax), %r14
	jmp	.LBB19_26
.LBB19_3:                               # %tailrecurse.i
	cmpq	$61, %rcx
	jne	.LBB19_24
# BB#4:                                 # %sw.bb.i
	movzbl	target_flags+3(%rip), %ecx
	movl	8(%rax), %eax
	testq	$2, %rcx
	je	.LBB19_5
# BB#6:                                 # %sw.bb.i
	movabsq	$dbx64_register_map, %rcx
	jmp	.LBB19_7
.LBB19_5:
	movabsq	$svr4_dbx_register_map, %rcx
.LBB19_7:                               # %sw.bb.i
	movl	(%rcx,%rax,4), %r15d
	xorq	%r14, %r14
	jmp	.LBB19_27
.LBB19_17:                              # %sw.bb31.i
	movq	8(%rax), %rcx
	movl	8(%rcx), %ecx
	cmpq	$7, %rcx
	jne	.LBB19_18
# BB#19:                                # %if.end40.i
	movq	16(%rax), %rax
	movq	8(%rax), %r14
	negq	%r14
	jmp	.LBB19_26
.LBB19_10:                              # %sw.bb7.i
	cmpq	$61, %rcx
	jne	.LBB19_20
# BB#11:                                # %sw.bb12.i
	movl	8(%rax), %eax
	cmpq	$7, %rax
	jne	.LBB19_13
# BB#12:
	xorq	%r14, %r14
.LBB19_26:                              # %sw.epilog60.i
	movabsq	$4294967295, %r15       # imm = 0xFFFFFFFF
.LBB19_27:                              # %sw.epilog60.i
	movl	target_flags(%rip), %ebx
	movq	$22, %rcx
	movq	cfa+8(%rip), %r12
	shrq	%cl, %rbx
	andq	$8, %rbx
	addq	$8, %rbx
	movq	$32, %rdi
	callq	xmalloc
	movq	%rax, %rsi
	movq	$0, (%rsi)
	movq	$0, 24(%rsi)
	movq	$0, 16(%rsi)
	movabsq	$4294967288, %rax       # imm = 0xFFFFFFF8
	andq	%rbx, %rax
	movq	%rax, 16(%rsi)
	movabsq	$4294967295, %rax       # imm = 0xFFFFFFFF
	andq	%rax, %r15
	cmpq	%rax, %r15
	je	.LBB19_28
# BB#31:                                # %if.else12.i.i
	andq	%rax, %rbx
	cmpq	%rbx, %r15
	je	.LBB19_36
# BB#32:                                # %if.else16.i.i
	movq	$9, %rax
	movl	%eax, 8(%rsi)
	movq	%r15, 24(%rsi)
	jmp	.LBB19_33
.LBB19_28:                              # %if.then.i.i
	subq	%r12, %r14
	movl	target_flags(%rip), %eax
	movq	$23, %rcx
	shrq	%cl, %rax
	andq	$4, %rax
	movq	$-4, %rcx
	subq	%rax, %rcx
	movq	%r14, %rax
	cqto
	idivq	%rcx
	testq	%rax, %rax
	movq	$17, %rcx
	js	.LBB19_30
# BB#29:                                # %if.then.i.i
	movq	$128, %rcx
.LBB19_30:                              # %if.then.i.i
	movl	%ecx, 8(%rsi)
	movq	%rax, 24(%rsi)
.LBB19_33:                              # %for.cond.i37.i.i
	movabsq	$cie_cfi_head, %rax
	.align	16, 0x90
.LBB19_34:                              # %for.cond.i37.i.i
                                        # =>This Inner Loop Header: Depth=1
	movq	%rax, %rcx
	movq	(%rcx), %rax
	testq	%rax, %rax
	jne	.LBB19_34
# BB#35:                                # %add_fde_cfi.exit.i
	movq	%rsi, (%rcx)
.LBB19_36:                              # %initial_return_save.exit
	addq	$40, %rsp
	popq	%rbx
	popq	%r12
	popq	%r14
	popq	%r15
	retq
.LBB19_16:                              # %if.then24.i
	movabsq	$.L.str4, %rax
	movabsq	$.L__FUNCTION__.initial_return_save, %rcx
	movq	$900, %rsi              # imm = 0x384
	jmp	.LBB19_14
.LBB19_24:                              # %sw.default59.i
	movabsq	$.L.str4, %rax
	movabsq	$.L__FUNCTION__.initial_return_save, %rcx
	movq	$926, %rsi              # imm = 0x39E
	jmp	.LBB19_14
.LBB19_18:                              # %if.then39.i
	movabsq	$.L.str4, %rax
	movabsq	$.L__FUNCTION__.initial_return_save, %rcx
	movq	$906, %rsi              # imm = 0x38A
	jmp	.LBB19_14
.LBB19_20:                              # %sw.default.i
	movabsq	$.L.str4, %rax
	movabsq	$.L__FUNCTION__.initial_return_save, %rcx
	movq	$911, %rsi              # imm = 0x38F
	jmp	.LBB19_14
.LBB19_13:                              # %if.then.i
	movabsq	$.L.str4, %rax
	movabsq	$.L__FUNCTION__.initial_return_save, %rcx
	movq	$894, %rsi              # imm = 0x37E
.LBB19_14:                              # %if.then.i
	movq	%rax, %rdi
	movq	%rcx, %rdx
	callq	fancy_abort
.Ltmp218:
	.size	dwarf2out_frame_init, .Ltmp218-dwarf2out_frame_init
	.cfi_endproc

	.globl	dwarf2out_frame_finish
	.align	16, 0x90
	.type	dwarf2out_frame_finish,@function
dwarf2out_frame_finish:                 # @dwarf2out_frame_finish
	.cfi_startproc
# BB#0:                                 # %entry
	pushq	%rax
.Ltmp220:
	.cfi_def_cfa_offset 16
	movl	write_symbols(%rip), %eax
	cmpq	$4, %rax
	je	.LBB20_2
# BB#1:                                 # %entry
	cmpq	$7, %rax
	jne	.LBB20_3
.LBB20_2:                               # %if.then
	xorq	%rdi, %rdi
	callq	output_call_frame_info
.LBB20_3:                               # %if.end
	movl	flag_unwind_tables(%rip), %eax
	movl	flag_exceptions(%rip), %ecx
	orq	%rax, %rcx
	movabsq	$4294967295, %rax       # imm = 0xFFFFFFFF
	testq	%rax, %rcx
	je	.LBB20_4
# BB#5:                                 # %if.then4
	movq	$1, %rdi
	popq	%rax
	jmp	output_call_frame_info  # TAILCALL
.LBB20_4:                               # %if.end5
	popq	%rax
	retq
.Ltmp221:
	.size	dwarf2out_frame_finish, .Ltmp221-dwarf2out_frame_finish
	.cfi_endproc

	.align	16, 0x90
	.type	output_call_frame_info,@function
output_call_frame_info:                 # @output_call_frame_info
	.cfi_startproc
# BB#0:                                 # %entry
	pushq	%r15
.Ltmp228:
	.cfi_def_cfa_offset 16
	pushq	%r14
.Ltmp229:
	.cfi_def_cfa_offset 24
	pushq	%r13
.Ltmp230:
	.cfi_def_cfa_offset 32
	pushq	%r12
.Ltmp231:
	.cfi_def_cfa_offset 40
	pushq	%rbx
.Ltmp232:
	.cfi_def_cfa_offset 48
	subq	$160, %rsp
.Ltmp233:
	.cfi_def_cfa_offset 208
.Ltmp234:
	.cfi_offset %rbx, -48
.Ltmp235:
	.cfi_offset %r12, -40
.Ltmp236:
	.cfi_offset %r13, -32
.Ltmp237:
	.cfi_offset %r14, -24
.Ltmp238:
	.cfi_offset %r15, -16
	xorq	%r10, %r10
	movabsq	$4294967295, %rax       # imm = 0xFFFFFFFF
	testq	%rax, %rdi
	movq	%rdi, %r15
	je	.LBB21_10
# BB#1:                                 # %if.then
	movl	fde_table_in_use(%rip), %r8d
	movl	flag_asynchronous_unwind_tables(%rip), %edi
	xorq	%r10, %r10
	testq	%r8, %r8
	je	.LBB21_2
# BB#3:                                 # %for.body.lr.ph
	movq	fde_table(%rip), %rcx
	addq	$36, %rcx
	xorq	%rax, %rax
	movq	$1, %rdx
	movabsq	$4294967295, %r9        # imm = 0xFFFFFFFF
	.align	16, 0x90
.LBB21_4:                               # %for.body
                                        # =>This Inner Loop Header: Depth=1
	movzbl	(%rcx), %esi
	testq	$2, %rsi
	movq	$1, %rbx
	movq	$1, %r10
	jne	.LBB21_8
# BB#5:                                 # %if.else
                                        #   in Loop: Header=BB21_4 Depth=1
	testq	$1, %rsi
	movq	$1, %rbx
	je	.LBB21_7
# BB#6:                                 # %if.else
                                        #   in Loop: Header=BB21_4 Depth=1
	movq	%rdi, %rbx
.LBB21_7:                               # %if.else
                                        #   in Loop: Header=BB21_4 Depth=1
	movq	%rax, %r10
.LBB21_8:                               # %for.inc
                                        #   in Loop: Header=BB21_4 Depth=1
	movq	%rdx, %rax
	andq	%r9, %rax
	incq	%rdx
	addq	$40, %rcx
	cmpq	%r8, %rax
	movq	%r10, %rax
	movq	%rbx, %rdi
	jb	.LBB21_4
	jmp	.LBB21_9
.LBB21_2:
	movq	%rdi, %rbx
.LBB21_9:                               # %for.end
	movabsq	$4294967295, %rax       # imm = 0xFFFFFFFF
	testq	%rax, %rbx
	je	.LBB21_74
.LBB21_10:                              # %if.end14
	movq	%r10, 8(%rsp)           # 8-byte Spill
	movl	flag_debug_asm(%rip), %eax
	testq	%rax, %rax
	je	.LBB21_12
# BB#11:                                # %if.then16
	callq	app_enable
.LBB21_12:                              # %if.end17
	movabsq	$4294967295, %rax       # imm = 0xFFFFFFFF
	testq	%rax, %r15
	je	.LBB21_14
# BB#13:                                # %if.then19
	callq	*targetm+144(%rip)
	jmp	.LBB21_15
.LBB21_14:                              # %if.else20
	movabsq	$.L.str441, %rdi
	movq	$1024, %rsi             # imm = 0x400
	callq	named_section_flags
.LBB21_15:                              # %do.body
	movabsq	$.L.str1, %r12
	movabsq	$.L.str442, %rdx
	leaq	64(%rsp), %r14
	xorq	%rax, %rax
	movq	%r14, %rdi
	movq	%r12, %rsi
	movq	%r15, %rbx
	movq	%rbx, 48(%rsp)          # 8-byte Spill
	movq	%rbx, %rcx
	callq	sprintf
	movq	asm_out_file(%rip), %rdi
	movq	%r14, %rsi
	callq	assemble_name
	movq	asm_out_file(%rip), %rcx
	movabsq	$.L.str3, %r15
	movq	$2, %rsi
	movq	$1, %rdx
	movq	%r15, %rdi
	callq	fwrite
	movabsq	$.L.str443, %rdx
	leaq	128(%rsp), %r13
	xorq	%rax, %rax
	movq	%r13, %rdi
	movq	%r12, %rsi
	movq	%rbx, %rcx
	callq	sprintf
	movabsq	$.L.str444, %rdx
	leaq	96(%rsp), %r14
	xorq	%rax, %rax
	movq	%r14, %rdi
	movq	%r12, %rsi
	movq	%rbx, %rcx
	callq	sprintf
	movabsq	$.L.str445, %rcx
	movq	$4, %rdi
	xorq	%rax, %rax
	movq	%r14, %rsi
	movq	%r13, %rdx
	callq	dw2_asm_output_delta
	movq	asm_out_file(%rip), %rdi
	movq	%r13, %rsi
	callq	assemble_name
	movq	asm_out_file(%rip), %rcx
	movq	$2, %rsi
	movq	$1, %rdx
	movq	%r15, %rdi
	callq	fwrite
	movabsq	$4294967295, %rax       # imm = 0xFFFFFFFF
	andq	%rax, %rbx
	movabsq	$0, %rsi
	jne	.LBB21_17
# BB#16:                                # %do.body
	movq	%rax, %rsi
.LBB21_17:                              # %do.body
	movabsq	$.L.str446, %rdx
	movq	$4, %rdi
	xorq	%rax, %rax
	callq	dw2_asm_output_data
	movabsq	$.L.str447, %rdx
	movq	$1, %rdi
	movq	$1, %rsi
	xorq	%rax, %rax
	callq	dw2_asm_output_data
	testq	%rbx, %rbx
	movabsq	$0, %rbx
	movb	%bl, 58(%rsp)
	movabsq	$0, %r15
	movabsq	$0, %r12
	je	.LBB21_31
# BB#18:                                # %if.then43
	movl	flag_pic(%rip), %r14d
	testq	%r14, %r14
	movq	%r14, %rax
	je	.LBB21_20
# BB#19:                                # %if.then43
	movq	$27, %rax
.LBB21_20:                              # %if.then43
	movq	%rax, 16(%rsp)          # 8-byte Spill
	movq	%r14, %r15
	je	.LBB21_22
# BB#21:                                # %if.then43
	movq	$155, %r15
.LBB21_22:                              # %if.then43
	xorq	%r12, %r12
	cmpq	$0, libfunc_table+152(%rip)
	leaq	59(%rsp), %rax
	movq	%rax, %rbx
	movq	%rax, %r13
	je	.LBB21_24
# BB#23:                                # %if.then52
	leaq	60(%rsp), %rbx
	movq	$80, %rax
	movb	%al, 59(%rsp)
	movq	%r15, %rdi
	callq	size_of_encoded_value
	movq	%rax, %r12
	incq	%r12
.LBB21_24:                              # %if.end55
	movabsq	$4294967295, %rax       # imm = 0xFFFFFFFF
	movq	8(%rsp), %rcx           # 8-byte Reload
	testq	%rax, %rcx
	je	.LBB21_26
# BB#25:                                # %if.then57
	movq	$76, %rax
	movb	%al, (%rbx)
	incq	%rbx
	incq	%r12
.LBB21_26:                              # %if.end60
	testq	%r14, %r14
	je	.LBB21_28
# BB#27:                                # %if.then63
	movq	$82, %rax
	movb	%al, (%rbx)
	incq	%rbx
	incq	%r12
.LBB21_28:                              # %if.end66
	cmpq	%r13, %rbx
	jbe	.LBB21_30
# BB#29:                                # %if.then71
	movq	$122, %rax
	movb	%al, 58(%rsp)
	xorq	%rax, %rax
	movb	%al, (%rbx)
.LBB21_30:                              # %if.end109
	movq	16(%rsp), %rbx          # 8-byte Reload
.LBB21_31:                              # %if.end109
	movabsq	$.L.str448, %rdx
	leaq	58(%rsp), %rdi
	movq	$-1, %rsi
	xorq	%rax, %rax
	callq	dw2_asm_output_nstring
	movabsq	$.L.str449, %rsi
	movq	$1, %rdi
	xorq	%rax, %rax
	callq	dw2_asm_output_data_uleb128
	movl	target_flags(%rip), %eax
	movq	$23, %rcx
	shrq	%cl, %rax
	andq	$4, %rax
	movq	$-4, %rdi
	subq	%rax, %rdi
	movabsq	$.L.str450, %rsi
	xorq	%rax, %rax
	callq	dw2_asm_output_data_sleb128
	movl	target_flags(%rip), %eax
	movq	$22, %rcx
	shrq	%cl, %rax
	andq	$8, %rax
	addq	$8, %rax
	movabsq	$4294967288, %rsi       # imm = 0xFFFFFFF8
	andq	%rax, %rsi
	movabsq	$.L.str451, %rdx
	movq	$1, %rdi
	xorq	%rax, %rax
	callq	dw2_asm_output_data
	movzbl	58(%rsp), %eax
	testq	%rax, %rax
	je	.LBB21_38
# BB#32:                                # %if.then122
	movq	$32, %rcx
	shlq	%cl, %r12
	movq	$32, %rcx
	sarq	%cl, %r12
	movabsq	$.L.str452, %rsi
	xorq	%rax, %rax
	movq	%r12, %rdi
	callq	dw2_asm_output_data_uleb128
	cmpq	$0, libfunc_table+152(%rip)
	je	.LBB21_34
# BB#33:                                # %if.then125
	movq	%rbx, %r14
	movabsq	$4294967295, %rbx       # imm = 0xFFFFFFFF
	andq	%r15, %rbx
	movq	%r15, %rdi
	callq	eh_data_format_name
	movq	%rax, %rcx
	movabsq	$.L.str453, %rdx
	movq	$1, %rdi
	xorq	%rax, %rax
	movq	%rbx, %rsi
	movq	%r14, %rbx
	callq	dw2_asm_output_data
	movq	libfunc_table+152(%rip), %rsi
	xorq	%rdx, %rdx
	xorq	%rax, %rax
	movq	%r15, %rdi
	callq	dw2_asm_output_encoded_addr_rtx
.LBB21_34:                              # %if.end128
	movabsq	$4294967295, %r15       # imm = 0xFFFFFFFF
	movq	8(%rsp), %rax           # 8-byte Reload
	testq	%r15, %rax
	je	.LBB21_36
# BB#35:                                # %if.then130
	movq	%rbx, %r14
                                        # kill: RBX<def> R14<kill>
	andq	%r15, %rbx
	movq	%r14, %rdi
	callq	eh_data_format_name
	movq	%rax, %rcx
	movabsq	$.L.str454, %rdx
	movq	$1, %rdi
	xorq	%rax, %rax
	movq	%rbx, %rsi
	movq	%r14, %rbx
	callq	dw2_asm_output_data
.LBB21_36:                              # %if.end133
	testq	%r15, %rbx
	je	.LBB21_38
# BB#37:                                # %if.then136
	andq	%rbx, %r15
	movq	%rbx, %rdi
	callq	eh_data_format_name
	movq	%rax, %rcx
	movabsq	$.L.str455, %rdx
	movq	$1, %rdi
	xorq	%rax, %rax
	movq	%r15, %rsi
	callq	dw2_asm_output_data
.LBB21_38:                              # %for.cond141.preheader
	movq	%rbx, 16(%rsp)          # 8-byte Spill
	movq	cie_cfi_head(%rip), %rbx
	testq	%rbx, %rbx
	movq	48(%rsp), %r14          # 8-byte Reload
	je	.LBB21_40
	.align	16, 0x90
.LBB21_39:                              # %for.body144
                                        # =>This Inner Loop Header: Depth=1
	xorq	%rsi, %rsi
	movq	%rbx, %rdi
	movq	%r14, %rdx
	callq	output_cfi
	movq	(%rbx), %rbx
	testq	%rbx, %rbx
	jne	.LBB21_39
.LBB21_40:                              # %for.end146
	movl	target_flags(%rip), %edi
	movq	$20, %rcx
	shrq	%cl, %rdi
	andq	$32, %rdi
	addq	$32, %rdi
	movq	$3, %rcx
	sarq	%cl, %rdi
	callq	floor_log2_wide
	movabsq	$4294967295, %rbx       # imm = 0xFFFFFFFF
	testq	%rbx, %rax
	je	.LBB21_42
# BB#41:                                # %if.then161
	movl	target_flags(%rip), %edi
	movq	asm_out_file(%rip), %r15
	movq	$20, %rcx
	shrq	%cl, %rdi
	andq	$32, %rdi
	addq	$32, %rdi
	movq	$3, %rcx
	sarq	%cl, %rdi
	callq	floor_log2_wide
	movq	$1, %rdx
	movq	%rax, %rcx
	shlq	%cl, %rdx
	movabsq	$.L.str456, %rsi
	xorq	%rax, %rax
	movq	%r15, %rdi
	callq	fprintf
.LBB21_42:                              # %if.end178
	movq	asm_out_file(%rip), %rdi
	leaq	96(%rsp), %rsi
	callq	assemble_name
	movq	asm_out_file(%rip), %rcx
	movabsq	$.L.str3, %rdi
	movq	$2, %rsi
	movq	$1, %rdx
	callq	fwrite
	movl	fde_table_in_use(%rip), %eax
	testq	%rax, %rax
	je	.LBB21_72
# BB#43:                                # %for.body184.lr.ph
	xorq	%r15, %r15
	testq	%rbx, %r14
	je	.LBB21_59
# BB#44:
	leaq	128(%rsp), %r12
	.align	16, 0x90
.LBB21_45:                              # %for.body184.us
                                        # =>This Loop Header: Depth=1
                                        #     Child Loop BB21_54 Depth 2
	movq	%r15, %rcx
	movl	flag_asynchronous_unwind_tables(%rip), %edx
	movq	fde_table(%rip), %r14
	andq	%rbx, %rcx
	leaq	(%rcx,%rcx,4), %rsi
	testq	%rdx, %rdx
	jne	.LBB21_47
# BB#46:                                # %land.lhs.true190.us
                                        #   in Loop: Header=BB21_45 Depth=1
	movzbl	36(%r14,%rsi,8), %ecx
	andq	$3, %rcx
	cmpq	$1, %rcx
	je	.LBB21_58
.LBB21_47:                              # %if.end254.us
                                        #   in Loop: Header=BB21_45 Depth=1
	movq	asm_out_file(%rip), %rdi
	leaq	(%r14,%rsi,8), %r13
	movq	48(%rsp), %rax          # 8-byte Reload
	leaq	(%rax,%r15,2), %rbx
	movq	%r15, 32(%rsp)          # 8-byte Spill
	xorq	%rax, %rax
	movq	%rsi, 40(%rsp)          # 8-byte Spill
	movabsq	$.L.str6, %rsi
	movabsq	$.L.str217, %rdx
	movq	%rbx, %rcx
	callq	fprintf
	xorq	%rax, %rax
	movq	%r12, %rdi
	movabsq	$.L.str1, %r15
	movq	%r15, %rsi
	movabsq	$.L.str457, %rdx
	movq	%rbx, %rcx
	callq	sprintf
	xorq	%rax, %rax
	movq	%r14, 24(%rsp)          # 8-byte Spill
	leaq	96(%rsp), %r14
	movq	%r14, %rdi
	movq	%r15, %rsi
	movq	40(%rsp), %r15          # 8-byte Reload
	movabsq	$.L.str458, %rdx
	movq	%rbx, %rcx
	callq	sprintf
	movq	$4, %rdi
	xorq	%rax, %rax
	movq	%r14, %rsi
	movq	24(%rsp), %r14          # 8-byte Reload
	movq	%r12, %rdx
	movabsq	$.L.str459, %rcx
	callq	dw2_asm_output_delta
	movq	asm_out_file(%rip), %rdi
	movq	%r12, %rsi
	callq	assemble_name
	movq	asm_out_file(%rip), %rcx
	movq	$2, %rsi
	movq	$1, %rdx
	movabsq	$.L.str3, %rdi
	callq	fwrite
	movq	$4, %rdi
	xorq	%rax, %rax
	movq	%r12, %rsi
	leaq	64(%rsp), %rdx
	movabsq	$.L.str460, %rcx
	callq	dw2_asm_output_delta
	movl	target_flags(%rip), %esi
	movq	$25, %rcx
	movq	(%r13), %rdx
	shrq	%cl, %rsi
	andq	$1, %rsi
	orq	$4, %rsi
	movq	$68, %rdi
	callq	gen_rtx_fmt_s
	movq	%rax, %rcx
	xorq	%rax, %rax
	movq	16(%rsp), %rbx          # 8-byte Reload
	movq	%rbx, %rdi
	movq	%rcx, %rsi
	movabsq	$.L.str461, %rdx
	callq	dw2_asm_output_encoded_addr_rtx
	movq	%rbx, %rdi
	callq	size_of_encoded_value
	movq	16(%r14,%r15,8), %rsi
	movq	(%r13), %rdx
	movq	%rax, %rcx
	xorq	%rax, %rax
	movq	%rcx, %rdi
	movabsq	$.L.str462, %rcx
	callq	dw2_asm_output_delta
	movzbl	58(%rsp), %eax
	testq	%rax, %rax
	je	.LBB21_53
# BB#48:                                # %if.then257.us
                                        #   in Loop: Header=BB21_45 Depth=1
	movq	8(%rsp), %rax           # 8-byte Reload
	movabsq	$4294967295, %rcx       # imm = 0xFFFFFFFF
	testq	%rcx, %rax
	jne	.LBB21_49
# BB#52:                                # %if.else327.us
                                        #   in Loop: Header=BB21_45 Depth=1
	xorq	%rdi, %rdi
	xorq	%rax, %rax
	movabsq	$.L.str452, %rsi
	callq	dw2_asm_output_data_uleb128
	jmp	.LBB21_53
.LBB21_49:                              # %if.then259.us
                                        #   in Loop: Header=BB21_45 Depth=1
	movq	%rbx, %rdi
	callq	size_of_encoded_value
	movq	%rax, %rdx
	movq	$32, %rcx
	shlq	%cl, %rdx
	movq	$32, %rcx
	sarq	%cl, %rdx
	xorq	%rax, %rax
	movq	%rdx, %rdi
	movabsq	$.L.str452, %rsi
	callq	dw2_asm_output_data_uleb128
	movzbl	36(%r14,%r15,8), %eax
	testq	$2, %rax
	jne	.LBB21_50
# BB#51:                                # %if.end324.us
                                        #   in Loop: Header=BB21_45 Depth=1
	movq	%rbx, %rdi
	callq	size_of_encoded_value
	movq	%rax, %rcx
	xorq	%rsi, %rsi
	xorq	%rax, %rax
	movq	%rcx, %rdi
	movabsq	$.L.str465, %rdx
	callq	dw2_asm_output_data
	jmp	.LBB21_53
.LBB21_50:                              # %do.body293.us
                                        #   in Loop: Header=BB21_45 Depth=1
	movl	32(%r14,%r15,8), %ecx
	xorq	%rax, %rax
	movq	%r12, %r15
	movq	%r15, %rdi
	movabsq	$.L.str1, %rsi
	movabsq	$.L.str463, %rdx
	callq	sprintf
	movl	target_flags(%rip), %esi
	movq	$25, %rcx
	shrq	%cl, %rsi
	andq	$1, %rsi
	orq	$4, %rsi
	movq	$68, %rdi
	movq	%r15, %rdx
	movq	%r15, %r12
	movq	40(%rsp), %r15          # 8-byte Reload
	callq	gen_rtx_fmt_s
	movq	%rax, %rcx
	xorq	%rax, %rax
	movq	%rbx, %rdi
	movq	%rcx, %rsi
	movabsq	$.L.str464, %rdx
	callq	dw2_asm_output_encoded_addr_rtx
	.align	16, 0x90
.LBB21_53:                              # %if.end329.us
                                        #   in Loop: Header=BB21_45 Depth=1
	movq	(%r13), %rax
	movq	%rax, 8(%r14,%r15,8)
	movq	24(%r14,%r15,8), %rbx
	testq	%rbx, %rbx
	movq	48(%rsp), %r14          # 8-byte Reload
	je	.LBB21_55
	.align	16, 0x90
.LBB21_54:                              # %for.body334.us
                                        #   Parent Loop BB21_45 Depth=1
                                        # =>  This Inner Loop Header: Depth=2
	movq	%rbx, %rdi
	movq	%r13, %rsi
	movq	%r14, %rdx
	callq	output_cfi
	movq	(%rbx), %rbx
	testq	%rbx, %rbx
	jne	.LBB21_54
.LBB21_55:                              # %for.end337.us
                                        #   in Loop: Header=BB21_45 Depth=1
	movl	target_flags(%rip), %edi
	movq	$20, %rcx
	shrq	%cl, %rdi
	andq	$32, %rdi
	addq	$32, %rdi
	movq	$3, %rcx
	sarq	%cl, %rdi
	callq	floor_log2_wide
	movabsq	$4294967295, %rbx       # imm = 0xFFFFFFFF
	testq	%rbx, %rax
	movq	32(%rsp), %r15          # 8-byte Reload
	je	.LBB21_57
# BB#56:                                # %if.then355.us
                                        #   in Loop: Header=BB21_45 Depth=1
	movl	target_flags(%rip), %edi
	movq	asm_out_file(%rip), %r14
	movq	$20, %rcx
	shrq	%cl, %rdi
	andq	$32, %rdi
	addq	$32, %rdi
	movq	$3, %rcx
	sarq	%cl, %rdi
	callq	floor_log2_wide
	movq	$1, %rdx
	movq	%rax, %rcx
	shlq	%cl, %rdx
	xorq	%rax, %rax
	movq	%r14, %rdi
	movabsq	$.L.str456, %rsi
	callq	fprintf
.LBB21_57:                              # %if.end373.us
                                        #   in Loop: Header=BB21_45 Depth=1
	movq	asm_out_file(%rip), %rdi
	leaq	96(%rsp), %rsi
	callq	assemble_name
	movq	asm_out_file(%rip), %rcx
	movq	$2, %rsi
	movq	$1, %rdx
	movabsq	$.L.str3, %rdi
	callq	fwrite
	movl	fde_table_in_use(%rip), %eax
.LBB21_58:                              # %for.inc376.us
                                        #   in Loop: Header=BB21_45 Depth=1
	incq	%r15
	movq	%r15, %rcx
	andq	%rbx, %rcx
	movq	%rax, %rdx
	andq	%rbx, %rdx
	cmpq	%rdx, %rcx
	jb	.LBB21_45
	jmp	.LBB21_72
.LBB21_59:
	leaq	96(%rsp), %r14
	.align	16, 0x90
.LBB21_60:                              # %if.end254
                                        # =>This Loop Header: Depth=1
                                        #     Child Loop BB21_68 Depth 2
	movq	%r15, %rax
	movq	fde_table(%rip), %rcx
	movq	%rcx, 40(%rsp)          # 8-byte Spill
	movq	asm_out_file(%rip), %rdi
	andq	%rbx, %rax
	leaq	(%rax,%rax,4), %rax
	movq	%rax, 48(%rsp)          # 8-byte Spill
	leaq	(%r15,%r15), %r12
	xorq	%rax, %rax
	movabsq	$.L.str6, %rsi
	movabsq	$.L.str217, %rdx
	movq	%r12, %rcx
	callq	fprintf
	xorq	%rax, %rax
	leaq	128(%rsp), %r13
	movq	%r13, %rdi
	movabsq	$.L.str1, %rbx
	movq	%rbx, %rsi
	movabsq	$.L.str457, %rdx
	movq	%r12, %rcx
	callq	sprintf
	xorq	%rax, %rax
	movq	%r14, %rdi
	movq	%rbx, %rsi
	movabsq	$.L.str458, %rdx
	movq	%r12, %rcx
	movq	48(%rsp), %r12          # 8-byte Reload
	movq	40(%rsp), %rbx          # 8-byte Reload
	callq	sprintf
	movq	$4, %rdi
	xorq	%rax, %rax
	movq	%r14, %rsi
	movq	%r13, %rdx
	movabsq	$.L.str459, %rcx
	callq	dw2_asm_output_delta
	movq	asm_out_file(%rip), %rdi
	movq	%r13, %rsi
	callq	assemble_name
	movq	asm_out_file(%rip), %rcx
	movq	$2, %rsi
	movq	$1, %rdx
	movabsq	$.L.str3, %rdi
	movq	%rdi, %r13
	callq	fwrite
	movq	$4, %rdi
	xorq	%rax, %rax
	leaq	64(%rsp), %rsi
	movabsq	$.L.str460, %rdx
	callq	dw2_asm_output_offset
	movl	target_flags(%rip), %edi
	movq	$20, %rcx
	shrq	%cl, %rdi
	andq	$32, %rdi
	movq	(%rbx,%r12,8), %rsi
	addq	$32, %rdi
	movq	$3, %rcx
	sarq	%cl, %rdi
	xorq	%rax, %rax
	movabsq	$.L.str461, %rdx
	callq	dw2_asm_output_addr
	movl	target_flags(%rip), %edi
	movq	$20, %rcx
	shrq	%cl, %rdi
	andq	$32, %rdi
	movq	16(%rbx,%r12,8), %rsi
	movq	(%rbx,%r12,8), %rdx
	addq	$32, %rdi
	movq	$3, %rcx
	sarq	%cl, %rdi
	xorq	%rax, %rax
	movabsq	$.L.str462, %rcx
	callq	dw2_asm_output_delta
	movzbl	58(%rsp), %eax
	testq	%rax, %rax
	je	.LBB21_66
# BB#61:                                # %if.then257
                                        #   in Loop: Header=BB21_60 Depth=1
	movq	8(%rsp), %rax           # 8-byte Reload
	movabsq	$4294967295, %rcx       # imm = 0xFFFFFFFF
	testq	%rcx, %rax
	movq	16(%rsp), %r14          # 8-byte Reload
	jne	.LBB21_62
# BB#65:                                # %if.else327
                                        #   in Loop: Header=BB21_60 Depth=1
	xorq	%rdi, %rdi
	xorq	%rax, %rax
	movabsq	$.L.str452, %rsi
	callq	dw2_asm_output_data_uleb128
	jmp	.LBB21_66
	.align	16, 0x90
.LBB21_62:                              # %if.then259
                                        #   in Loop: Header=BB21_60 Depth=1
	movq	%r14, %rdi
	callq	size_of_encoded_value
	movq	%rax, %rdx
	movq	$32, %rcx
	shlq	%cl, %rdx
	movq	$32, %rcx
	sarq	%cl, %rdx
	xorq	%rax, %rax
	movq	%rdx, %rdi
	movabsq	$.L.str452, %rsi
	callq	dw2_asm_output_data_uleb128
	movzbl	36(%rbx,%r12,8), %eax
	testq	$2, %rax
	jne	.LBB21_63
# BB#64:                                # %if.end324
                                        #   in Loop: Header=BB21_60 Depth=1
	movq	%r14, %rdi
	callq	size_of_encoded_value
	movq	%rax, %rcx
	xorq	%rsi, %rsi
	xorq	%rax, %rax
	movq	%rcx, %rdi
	movabsq	$.L.str465, %rdx
	callq	dw2_asm_output_data
	jmp	.LBB21_66
.LBB21_63:                              # %do.body293
                                        #   in Loop: Header=BB21_60 Depth=1
	movl	32(%rbx,%r12,8), %ecx
	xorq	%rax, %rax
	movq	%rbx, %r12
	leaq	128(%rsp), %rbx
	movq	%rbx, %rdi
	movabsq	$.L.str1, %rsi
	movabsq	$.L.str463, %rdx
	callq	sprintf
	movl	target_flags(%rip), %esi
	movq	$25, %rcx
	shrq	%cl, %rsi
	andq	$1, %rsi
	orq	$4, %rsi
	movq	$68, %rdi
	movq	%rbx, %rdx
	movq	%r12, %rbx
	movq	48(%rsp), %r12          # 8-byte Reload
	callq	gen_rtx_fmt_s
	movq	%rax, %rcx
	xorq	%rax, %rax
	movq	%r14, %rdi
	movq	%rcx, %rsi
	movabsq	$.L.str464, %rdx
	callq	dw2_asm_output_encoded_addr_rtx
	.align	16, 0x90
.LBB21_66:                              # %if.end329
                                        #   in Loop: Header=BB21_60 Depth=1
	movq	%r12, %rcx
	leaq	(%rbx,%rcx,8), %r12
	movq	(%r12), %rax
	movq	%rax, 8(%rbx,%rcx,8)
	movq	24(%rbx,%rcx,8), %rbx
	jmp	.LBB21_68
	.align	16, 0x90
.LBB21_67:                              # %for.body334
                                        #   in Loop: Header=BB21_68 Depth=2
	xorq	%rdx, %rdx
	movq	%rbx, %rdi
	movq	%r12, %rsi
	callq	output_cfi
	movq	(%rbx), %rbx
.LBB21_68:                              # %for.body334
                                        #   Parent Loop BB21_60 Depth=1
                                        # =>  This Inner Loop Header: Depth=2
	testq	%rbx, %rbx
	jne	.LBB21_67
# BB#69:                                # %for.end337
                                        #   in Loop: Header=BB21_60 Depth=1
	movl	target_flags(%rip), %edi
	movq	$20, %rcx
	shrq	%cl, %rdi
	andq	$32, %rdi
	addq	$32, %rdi
	movq	$3, %rcx
	sarq	%cl, %rdi
	callq	floor_log2_wide
	movabsq	$4294967295, %rbx       # imm = 0xFFFFFFFF
	testq	%rbx, %rax
	movq	%r13, %r12
	je	.LBB21_71
# BB#70:                                # %if.then355
                                        #   in Loop: Header=BB21_60 Depth=1
	movl	target_flags(%rip), %edi
	movq	asm_out_file(%rip), %r14
	movq	$20, %rcx
	shrq	%cl, %rdi
	andq	$32, %rdi
	addq	$32, %rdi
	movq	$3, %rcx
	sarq	%cl, %rdi
	callq	floor_log2_wide
	movq	$1, %rdx
	movq	%rax, %rcx
	shlq	%cl, %rdx
	xorq	%rax, %rax
	movq	%r14, %rdi
	movabsq	$.L.str456, %rsi
	callq	fprintf
.LBB21_71:                              # %for.inc376
                                        #   in Loop: Header=BB21_60 Depth=1
	movq	asm_out_file(%rip), %rdi
	leaq	96(%rsp), %r14
	movq	%r14, %rsi
	callq	assemble_name
	movq	asm_out_file(%rip), %rcx
	movq	$2, %rsi
	movq	$1, %rdx
	movq	%r12, %rdi
	callq	fwrite
	movl	fde_table_in_use(%rip), %eax
	incq	%r15
	movq	%r15, %rcx
	andq	%rbx, %rcx
	cmpq	%rax, %rcx
	jb	.LBB21_60
.LBB21_72:                              # %for.end378
	movl	flag_debug_asm(%rip), %eax
	testq	%rax, %rax
	je	.LBB21_74
# BB#73:                                # %if.then380
	callq	app_disable
.LBB21_74:                              # %if.end381
	addq	$160, %rsp
	popq	%rbx
	popq	%r12
	popq	%r13
	popq	%r14
	popq	%r15
	retq
.Ltmp239:
	.size	output_call_frame_info, .Ltmp239-output_call_frame_info
	.cfi_endproc

	.align	16, 0x90
	.type	dwarf2out_init,@function
dwarf2out_init:                         # @dwarf2out_init
	.cfi_startproc
# BB#0:                                 # %entry
	pushq	%r15
.Ltmp245:
	.cfi_def_cfa_offset 16
	pushq	%r14
.Ltmp246:
	.cfi_def_cfa_offset 24
	pushq	%r12
.Ltmp247:
	.cfi_def_cfa_offset 32
	pushq	%rbx
.Ltmp248:
	.cfi_def_cfa_offset 40
	pushq	%rax
.Ltmp249:
	.cfi_def_cfa_offset 48
.Ltmp250:
	.cfi_offset %rbx, -40
.Ltmp251:
	.cfi_offset %r12, -32
.Ltmp252:
	.cfi_offset %r14, -24
.Ltmp253:
	.cfi_offset %r15, -16
	movq	%rdi, %rbx
	movq	$64, %rdi
	movq	$8, %rsi
	movq	$64, %r14
	callq	xcalloc
	movq	%rax, file_table.0(%rip)
	movl	%r14d, file_table.1(%rip)
	movq	$1, %r14
	movl	%r14d, file_table.2(%rip)
	xorq	%r15, %r15
	movl	%r15d, file_table.3(%rip)
	movq	%rbx, primary_filename(%rip)
	movq	%rbx, %rdi
	callq	lookup_filename
	movq	$256, %rdi              # imm = 0x100
	movq	$8, %rsi
	movq	$256, %r12              # imm = 0x100
	callq	xcalloc
	movq	%rax, decl_die_table(%rip)
	movl	%r12d, decl_die_table_allocated(%rip)
	movl	%r15d, decl_die_table_in_use(%rip)
	movabsq	$.L.str391, %rdx
	movq	$256, %rdi              # imm = 0x100
	movq	$8, %rsi
	callq	varray_init
	movq	%rax, decl_scope_table(%rip)
	movabsq	$decl_scope_table, %rdi
	movq	$1, %rsi
	callq	ggc_add_tree_varray_root
	movq	$256, %rdi              # imm = 0x100
	movq	$8, %rsi
	callq	xcalloc
	movq	%rax, abbrev_die_table(%rip)
	movl	%r12d, abbrev_die_table_allocated(%rip)
	movl	%r14d, abbrev_die_table_in_use(%rip)
	movq	$1024, %rdi             # imm = 0x400
	movq	$16, %rsi
	callq	xcalloc
	movq	%rax, line_info_table(%rip)
	movl	%r14d, line_info_table_in_use(%rip)
	movq	%rbx, %rdi
	callq	gen_compile_unit_die
	movq	%rax, comp_unit_die(%rip)
	movabsq	$.L.str392, %rdx
	movq	$64, %rdi
	movq	$8, %rsi
	callq	varray_init
	movq	%rax, incomplete_types(%rip)
	movabsq	$incomplete_types, %rdi
	movq	$1, %rsi
	callq	ggc_add_tree_varray_root
	movabsq	$.L.str393, %rdx
	movq	$32, %rdi
	movq	$8, %rsi
	callq	varray_init
	movq	%rax, used_rtx_varray(%rip)
	movabsq	$used_rtx_varray, %rdi
	movq	$1, %rsi
	callq	ggc_add_rtx_varray_root
	movabsq	$limbo_die_list, %rdi
	movabsq	$mark_limbo_die_list, %rcx
	movq	$1, %rsi
	movq	$1, %rdx
	callq	ggc_add_root
	movabsq	$text_end_label, %rdi
	movabsq	$.L.str1, %rbx
	movabsq	$.L.str8, %rdx
	xorq	%rcx, %rcx
	xorq	%rax, %rax
	movq	%rbx, %rsi
	callq	sprintf
	movabsq	$abbrev_section_label, %r12
	movabsq	$.L.str394, %rdx
	xorq	%rcx, %rcx
	xorq	%rax, %rax
	movq	%r12, %rdi
	movq	%rbx, %rsi
	callq	sprintf
	movabsq	$text_section_label, %rdi
	movabsq	$.L.str395, %rdx
	xorq	%rcx, %rcx
	xorq	%rax, %rax
	movq	%rbx, %rsi
	callq	sprintf
	movabsq	$debug_info_section_label, %r15
	movabsq	$.L.str396, %rdx
	xorq	%rcx, %rcx
	xorq	%rax, %rax
	movq	%r15, %rdi
	movq	%rbx, %rsi
	callq	sprintf
	movabsq	$debug_line_section_label, %r14
	movabsq	$.L.str397, %rdx
	xorq	%rcx, %rcx
	xorq	%rax, %rax
	movq	%r14, %rdi
	movq	%rbx, %rsi
	callq	sprintf
	movabsq	$ranges_section_label, %rdi
	movabsq	$.L.str398, %rdx
	xorq	%rcx, %rcx
	xorq	%rax, %rax
	movq	%rbx, %rsi
	callq	sprintf
	movabsq	$.L.str11, %rdi
	movq	$1024, %rsi             # imm = 0x400
	callq	named_section_flags
	movq	asm_out_file(%rip), %rdi
	movq	%r12, %rsi
	callq	assemble_name
	movq	asm_out_file(%rip), %rcx
	movabsq	$.L.str3, %rbx
	movq	$2, %rsi
	movq	$1, %rdx
	movq	%rbx, %rdi
	callq	fwrite
	movabsq	$.L.str211, %rdi
	movq	$1024, %rsi             # imm = 0x400
	callq	named_section_flags
	movq	asm_out_file(%rip), %rdi
	movq	%r15, %rsi
	callq	assemble_name
	movq	asm_out_file(%rip), %rcx
	movq	$2, %rsi
	movq	$1, %rdx
	movq	%rbx, %rdi
	callq	fwrite
	movabsq	$.L.str399, %rdi
	movq	$1024, %rsi             # imm = 0x400
	callq	named_section_flags
	movq	asm_out_file(%rip), %rdi
	movq	%r14, %rsi
	callq	assemble_name
	movq	asm_out_file(%rip), %rcx
	movq	$2, %rsi
	movq	$1, %rdx
	movq	%rbx, %rdi
	callq	fwrite
	movl	debug_info_level(%rip), %eax
	cmpq	$3, %rax
	jb	.LBB22_2
# BB#1:                                 # %if.then
	movabsq	$.L.str15, %rdi
	movq	$1024, %rsi             # imm = 0x400
	callq	named_section_flags
	movabsq	$macinfo_section_label, %rbx
	movabsq	$.L.str1, %rsi
	movabsq	$.L.str400, %rdx
	xorq	%rcx, %rcx
	xorq	%rax, %rax
	movq	%rbx, %rdi
	callq	sprintf
	movq	asm_out_file(%rip), %rdi
	movq	%rbx, %rsi
	callq	assemble_name
	movq	asm_out_file(%rip), %rcx
	movabsq	$.L.str3, %rdi
	movq	$2, %rsi
	movq	$1, %rdx
	callq	fwrite
.LBB22_2:                               # %if.end
	callq	text_section
	movq	asm_out_file(%rip), %rdi
	movabsq	$text_section_label, %rsi
	callq	assemble_name
	movq	asm_out_file(%rip), %rcx
	movabsq	$.L.str3, %rdi
	movq	$2, %rsi
	movq	$1, %rdx
	addq	$8, %rsp
	popq	%rbx
	popq	%r12
	popq	%r14
	popq	%r15
	jmp	fwrite  # TAILCALL
.Ltmp254:
	.size	dwarf2out_init, .Ltmp254-dwarf2out_init
	.cfi_endproc

	.align	16, 0x90
	.type	dwarf2out_finish,@function
dwarf2out_finish:                       # @dwarf2out_finish
	.cfi_startproc
# BB#0:                                 # %entry
	pushq	%r15
.Ltmp261:
	.cfi_def_cfa_offset 16
	pushq	%r14
.Ltmp262:
	.cfi_def_cfa_offset 24
	pushq	%r13
.Ltmp263:
	.cfi_def_cfa_offset 32
	pushq	%r12
.Ltmp264:
	.cfi_def_cfa_offset 40
	pushq	%rbx
.Ltmp265:
	.cfi_def_cfa_offset 48
	subq	$96, %rsp
.Ltmp266:
	.cfi_def_cfa_offset 144
.Ltmp267:
	.cfi_offset %rbx, -48
.Ltmp268:
	.cfi_offset %r12, -40
.Ltmp269:
	.cfi_offset %r13, -32
.Ltmp270:
	.cfi_offset %r14, -24
.Ltmp271:
	.cfi_offset %r15, -16
	movq	limbo_die_list(%rip), %rbx
	jmp	.LBB23_1
	.align	16, 0x90
.LBB23_32:                              # %if.end72
                                        #   in Loop: Header=BB23_1 Depth=1
	callq	free
.LBB23_1:                               # %entry
                                        # =>This Loop Header: Depth=1
                                        #     Child Loop BB23_3 Depth 2
                                        #       Child Loop BB23_5 Depth 3
	testq	%rbx, %rbx
	je	.LBB23_43
# BB#2:                                 # %for.body
                                        #   in Loop: Header=BB23_1 Depth=1
	movq	%rbx, %rdi
	movq	(%rdi), %rax
	movq	16(%rdi), %rbx
	cmpq	$0, 24(%rax)
	movq	%rax, %rcx
	jne	.LBB23_32
.LBB23_3:                               # %tailrecurse.i.i
                                        #   Parent Loop BB23_1 Depth=1
                                        # =>  This Loop Header: Depth=2
                                        #       Child Loop BB23_5 Depth 3
	testq	%rcx, %rcx
	je	.LBB23_11
# BB#4:                                 # %if.then.i.i
                                        #   in Loop: Header=BB23_3 Depth=2
	movq	16(%rcx), %rdx
	xorq	%rcx, %rcx
	testq	%rdx, %rdx
	je	.LBB23_11
	.align	16, 0x90
.LBB23_5:                               # %for.body.i.i
                                        #   Parent Loop BB23_1 Depth=1
                                        #     Parent Loop BB23_3 Depth=2
                                        # =>    This Inner Loop Header: Depth=3
	movl	(%rdx), %esi
	cmpq	$49, %rsi
	je	.LBB23_19
# BB#6:                                 # %for.body.i.i
                                        #   in Loop: Header=BB23_5 Depth=3
	cmpq	$71, %rsi
	jne	.LBB23_9
# BB#7:                                 # %land.lhs.true.i.i.i
                                        #   in Loop: Header=BB23_5 Depth=3
	movl	16(%rdx), %ecx
	cmpq	$10, %rcx
	jne	.LBB23_416
# BB#8:                                 # %AT_ref.exit.i.i
                                        #   in Loop: Header=BB23_5 Depth=3
	movq	24(%rdx), %rcx
.LBB23_9:                               # %for.inc.i.i
                                        #   in Loop: Header=BB23_5 Depth=3
	movq	8(%rdx), %rdx
	testq	%rdx, %rdx
	jne	.LBB23_5
# BB#10:                                # %for.end.i.i
                                        #   in Loop: Header=BB23_3 Depth=2
	testq	%rcx, %rcx
	jne	.LBB23_3
	jmp	.LBB23_11
	.align	16, 0x90
.LBB23_19:                              # %land.lhs.true.i.i
                                        #   in Loop: Header=BB23_1 Depth=1
	movl	16(%rdx), %ecx
	cmpq	$10, %rcx
	jne	.LBB23_20
# BB#22:                                # %get_AT_ref.exit
                                        #   in Loop: Header=BB23_1 Depth=1
	movq	24(%rdx), %rcx
	testq	%rcx, %rcx
	jne	.LBB23_23
.LBB23_11:                              # %if.else
                                        #   in Loop: Header=BB23_1 Depth=1
	movq	comp_unit_die(%rip), %rcx
	cmpq	%rcx, %rax
	je	.LBB23_32
# BB#12:                                # %if.else7
                                        #   in Loop: Header=BB23_1 Depth=1
	movq	8(%rdi), %r9
	testq	%r9, %r9
	je	.LBB23_27
# BB#13:                                # %land.lhs.true
                                        #   in Loop: Header=BB23_1 Depth=1
	movzbl	16(%r9), %esi
	cmpq	$118, %rsi
	jne	.LBB23_27
# BB#14:                                # %land.lhs.true11
                                        #   in Loop: Header=BB23_1 Depth=1
	movq	40(%r9), %rsi
	movl	36(%rsi), %r8d
	movl	decl_die_table_in_use(%rip), %esi
	cmpq	%r8, %rsi
	jbe	.LBB23_27
# BB#15:                                # %lookup_decl_die.exit
                                        #   in Loop: Header=BB23_1 Depth=1
	movq	decl_die_table(%rip), %rsi
	movq	(%rsi,%r8,8), %rsi
	testq	%rsi, %rsi
	jne	.LBB23_16
.LBB23_27:                              # %if.else16
                                        #   in Loop: Header=BB23_1 Depth=1
	movq	global_dc(%rip), %rsi
	movslq	60(%rsi), %rdx
	testq	%rdx, %rdx
	jg	.LBB23_29
# BB#28:                                # %lor.lhs.false
                                        #   in Loop: Header=BB23_1 Depth=1
	movslq	56(%rsi), %rdx
	testq	%rdx, %rdx
	jle	.LBB23_33
.LBB23_29:                              # %if.then23
                                        #   in Loop: Header=BB23_1 Depth=1
	testq	%rcx, %rcx
	je	.LBB23_32
# BB#30:                                # %if.then23
                                        #   in Loop: Header=BB23_1 Depth=1
	testq	%rax, %rax
	jne	.LBB23_31
	jmp	.LBB23_32
.LBB23_23:                              # %if.then3
                                        #   in Loop: Header=BB23_1 Depth=1
	movq	24(%rcx), %rcx
	testq	%rcx, %rcx
	jne	.LBB23_24
	jmp	.LBB23_32
.LBB23_33:                              # %if.else24
                                        #   in Loop: Header=BB23_1 Depth=1
	testq	%r9, %r9
	je	.LBB23_417
# BB#34:                                # %land.lhs.true27
                                        #   in Loop: Header=BB23_1 Depth=1
	movzbl	16(%r9), %ecx
	movzbl	tree_code_type(%rcx), %ecx
	cmpq	$116, %rcx
	jne	.LBB23_35
# BB#37:                                # %land.lhs.true51
                                        #   in Loop: Header=BB23_1 Depth=1
	movq	144(%r9), %rcx
	jmp	.LBB23_38
.LBB23_35:                              # %land.lhs.true27
                                        #   in Loop: Header=BB23_1 Depth=1
	cmpq	$100, %rcx
	jne	.LBB23_417
# BB#36:                                # %land.lhs.true36
                                        #   in Loop: Header=BB23_1 Depth=1
	movq	80(%r9), %rcx
.LBB23_38:                              # %land.lhs.true51
                                        #   in Loop: Header=BB23_1 Depth=1
	testq	%rcx, %rcx
	je	.LBB23_417
# BB#39:                                # %land.lhs.true55
                                        #   in Loop: Header=BB23_1 Depth=1
	movzbl	16(%rcx), %edx
	cmpq	$30, %rdx
	jne	.LBB23_417
# BB#40:                                # %if.then62
                                        #   in Loop: Header=BB23_1 Depth=1
	movl	36(%rcx), %ecx
	movl	decl_die_table_in_use(%rip), %edx
	cmpq	%rcx, %rdx
	jbe	.LBB23_42
# BB#41:                                # %lookup_decl_die.exit193
                                        #   in Loop: Header=BB23_1 Depth=1
	movq	decl_die_table(%rip), %rdx
	movq	(%rdx,%rcx,8), %rcx
	testq	%rcx, %rcx
	je	.LBB23_42
.LBB23_24:                              # %if.then3
                                        #   in Loop: Header=BB23_1 Depth=1
	testq	%rax, %rax
	je	.LBB23_32
# BB#25:                                # %if.then.i
                                        #   in Loop: Header=BB23_1 Depth=1
	cmpq	%rax, %rcx
	je	.LBB23_26
.LBB23_31:                              # %if.end.i
                                        #   in Loop: Header=BB23_1 Depth=1
	movq	%rcx, 24(%rax)
	movq	32(%rcx), %rdx
	movq	%rdx, 40(%rax)
	movq	%rax, 32(%rcx)
	jmp	.LBB23_32
.LBB23_16:                              # %if.then15
                                        #   in Loop: Header=BB23_1 Depth=1
	testq	%rax, %rax
	je	.LBB23_32
# BB#17:                                # %if.then.i170
                                        #   in Loop: Header=BB23_1 Depth=1
	cmpq	%rax, %rsi
	je	.LBB23_26
# BB#18:                                # %if.end.i175
                                        #   in Loop: Header=BB23_1 Depth=1
	movq	%rsi, 24(%rax)
	movq	32(%rsi), %rcx
	movq	%rcx, 40(%rax)
	movq	%rax, 32(%rsi)
	callq	free
	jmp	.LBB23_1
.LBB23_43:                              # %for.end
	movq	incomplete_types(%rip), %rax
	movq	$0, limbo_die_list(%rip)
	movq	8(%rax), %rbx
	movabsq	$4294967295, %r14       # imm = 0xFFFFFFFF
	addq	%r14, %rbx
	movq	$32, %rcx
	movq	%rbx, %rdx
	shlq	%cl, %rdx
	movq	$32, %rcx
	sarq	%cl, %rdx
	testq	%rdx, %rdx
	js	.LBB23_47
# BB#44:                                # %for.body.lr.ph.i207
	movq	$32, %rcx
	movq	%rbx, %r15
	shlq	%cl, %r15
	movq	$32, %rcx
	sarq	%cl, %r15
	movq	32(%rax,%r15,8), %rdi
	movq	comp_unit_die(%rip), %rsi
	callq	gen_type_die
	testq	%r15, %r15
	jle	.LBB23_47
# BB#45:                                # %for.body.for.body_crit_edge.i.preheader
	movq	$32, %rcx
	shlq	%cl, %rbx
	movq	$32, %rcx
	sarq	%cl, %rbx
	decq	%rbx
	.align	16, 0x90
.LBB23_46:                              # %for.body.for.body_crit_edge.i
                                        # =>This Inner Loop Header: Depth=1
	movq	incomplete_types(%rip), %rax
	movq	32(%rax,%rbx,8), %rdi
	movq	comp_unit_die(%rip), %rsi
	callq	gen_type_die
	movq	$32, %rcx
	movq	%rbx, %rax
	shlq	%cl, %rax
	movq	$32, %rcx
	sarq	%cl, %rax
	decq	%rbx
	testq	%rax, %rax
	jg	.LBB23_46
.LBB23_47:                              # %retry_incomplete_types.exit
	movq	comp_unit_die(%rip), %rdi
	callq	reverse_all_dies
	movl	flag_eliminate_dwarf2_dups(%rip), %eax
	testq	%rax, %rax
	je	.LBB23_69
# BB#48:                                # %if.then74
	movq	comp_unit_die(%rip), %rax
	movq	%rax, 24(%rsp)          # 8-byte Spill
	movq	32(%rax), %rax
	testq	%rax, %rax
	je	.LBB23_66
# BB#49:
	movq	24(%rsp), %rcx          # 8-byte Reload
	leaq	32(%rcx), %r13
	xorq	%r12, %r12
	movabsq	$4294967294, %r8        # imm = 0xFFFFFFFE
	movabsq	$37398439002134, %rdi   # imm = 0x220380AC0016
	movabsq	$9007474132746240, %r9  # imm = 0x20004000018000
	jmp	.LBB23_50
	.align	16, 0x90
.LBB23_99:                              # %if.then12.i
                                        #   in Loop: Header=BB23_50 Depth=1
	movq	40(%r12), %r15
	movq	$0, 40(%r12)
.LBB23_98:                              # %for.cond.outer.backedge.i
                                        #   in Loop: Header=BB23_50 Depth=1
	movq	%rbx, %rdi
	callq	remove_children
	movq	%rbx, %rdi
	callq	free
	movq	(%r13), %rax
	testq	%rax, %rax
	movq	%r15, %r12
	movabsq	$4294967294, %rdi       # imm = 0xFFFFFFFE
	movq	%rdi, %r8
	movabsq	$37398439002134, %rdi   # imm = 0x220380AC0016
	movabsq	$9007474132746240, %r9  # imm = 0x20004000018000
	jne	.LBB23_50
	jmp	.LBB23_66
.LBB23_84:                              #   in Loop: Header=BB23_50 Depth=1
	movq	%rbx, %rax
.LBB23_85:                              # %tailrecurse.i.i.i45.i
                                        #   Parent Loop BB23_50 Depth=1
                                        # =>  This Loop Header: Depth=2
                                        #       Child Loop BB23_87 Depth 3
	xorq	%rdi, %rdi
	testq	%rax, %rax
	je	.LBB23_97
# BB#86:                                # %if.then.i.i.i49.i
                                        #   in Loop: Header=BB23_85 Depth=2
	movq	16(%rax), %rcx
	xorq	%rax, %rax
	testq	%rcx, %rcx
	movabsq	$0, %rdi
	je	.LBB23_97
	.align	16, 0x90
.LBB23_87:                              # %for.body.i.i.i53.i
                                        #   Parent Loop BB23_50 Depth=1
                                        #     Parent Loop BB23_85 Depth=2
                                        # =>    This Inner Loop Header: Depth=3
	movl	(%rcx), %edx
	cmpq	$49, %rdx
	je	.LBB23_90
# BB#88:                                # %for.body.i.i.i53.i
                                        #   in Loop: Header=BB23_87 Depth=3
	cmpq	$3, %rdx
	je	.LBB23_94
# BB#89:                                # %for.body.i.i.i53.i
                                        #   in Loop: Header=BB23_87 Depth=3
	cmpq	$71, %rdx
	jne	.LBB23_92
.LBB23_90:                              # %land.lhs.true.i.i.i.i57.i
                                        #   in Loop: Header=BB23_87 Depth=3
	movl	16(%rcx), %eax
	cmpq	$10, %rax
	jne	.LBB23_20
# BB#91:                                # %AT_ref.exit.i.i.i61.i
                                        #   in Loop: Header=BB23_87 Depth=3
	movq	24(%rcx), %rax
.LBB23_92:                              # %for.inc.i.i.i66.i
                                        #   in Loop: Header=BB23_87 Depth=3
	movq	8(%rcx), %rcx
	testq	%rcx, %rcx
	jne	.LBB23_87
# BB#93:                                # %for.end.i.i.i68.i
                                        #   in Loop: Header=BB23_85 Depth=2
	xorq	%rdi, %rdi
	testq	%rax, %rax
	jne	.LBB23_85
	jmp	.LBB23_97
.LBB23_94:                              # %land.lhs.true.i.i.i71.i
                                        #   in Loop: Header=BB23_50 Depth=1
	movl	16(%rcx), %eax
	cmpq	$14, %rax
	jne	.LBB23_95
# BB#96:                                # %AT_string.exit.i.i.i
                                        #   in Loop: Header=BB23_50 Depth=1
	movq	24(%rcx), %rax
	movq	8(%rax), %rdi
.LBB23_97:                              # %push_new_compile_unit.exit.i
                                        #   in Loop: Header=BB23_50 Depth=1
	callq	gen_compile_unit_die
	movq	%rax, %r15
	movq	%r12, 40(%r15)
	jmp	.LBB23_98
	.align	16, 0x90
.LBB23_50:                              # %for.body.lr.ph.i213
                                        # =>This Loop Header: Depth=1
                                        #     Child Loop BB23_51 Depth 2
                                        #       Child Loop BB23_53 Depth 3
                                        #         Child Loop BB23_56 Depth 4
                                        #           Child Loop BB23_58 Depth 5
                                        #     Child Loop BB23_85 Depth 2
                                        #       Child Loop BB23_87 Depth 3
	movq	%rax, %rbx
.LBB23_51:                              # %for.body.i214
                                        #   Parent Loop BB23_50 Depth=1
                                        # =>  This Loop Header: Depth=2
                                        #       Child Loop BB23_53 Depth 3
                                        #         Child Loop BB23_56 Depth 4
                                        #           Child Loop BB23_58 Depth 5
	movl	(%rbx), %eax
	movq	%rax, %rcx
	andq	%r8, %rcx
	cmpq	$16644, %rcx            # imm = 0x4104
	je	.LBB23_82
# BB#52:                                # %lor.lhs.false3.i
                                        #   in Loop: Header=BB23_51 Depth=2
	testq	%r12, %r12
	movq	%rax, %rcx
	movq	%rbx, %rdx
	jne	.LBB23_53
	jmp	.LBB23_65
	.align	16, 0x90
.LBB23_81:                              # %get_AT_ref.exit.i.tailrecurse.i_crit_edge.i
                                        #   in Loop: Header=BB23_53 Depth=3
	movl	(%rdx), %ecx
.LBB23_53:                              # %tailrecurse.i.i215
                                        #   Parent Loop BB23_50 Depth=1
                                        #     Parent Loop BB23_51 Depth=2
                                        # =>    This Loop Header: Depth=3
                                        #         Child Loop BB23_56 Depth 4
                                        #           Child Loop BB23_58 Depth 5
	andq	%r14, %rcx
	cmpq	$53, %rcx
	ja	.LBB23_65
# BB#54:                                # %tailrecurse.i.i215
                                        #   in Loop: Header=BB23_53 Depth=3
	movq	$1, %rsi
	shlq	%cl, %rsi
	testq	%rdi, %rsi
	jne	.LBB23_82
# BB#55:                                # %tailrecurse.i.i215
                                        #   in Loop: Header=BB23_53 Depth=3
	movq	$1, %rsi
	shlq	%cl, %rsi
	testq	%r9, %rsi
	je	.LBB23_65
.LBB23_56:                              # %tailrecurse.i.i.i.i
                                        #   Parent Loop BB23_50 Depth=1
                                        #     Parent Loop BB23_51 Depth=2
                                        #       Parent Loop BB23_53 Depth=3
                                        # =>      This Loop Header: Depth=4
                                        #           Child Loop BB23_58 Depth 5
	testq	%rdx, %rdx
	je	.LBB23_65
# BB#57:                                # %if.then.i.i.i.i
                                        #   in Loop: Header=BB23_56 Depth=4
	movq	16(%rdx), %rcx
	xorq	%rdx, %rdx
	testq	%rcx, %rcx
	je	.LBB23_65
	.align	16, 0x90
.LBB23_58:                              # %for.body.i.i.i.i
                                        #   Parent Loop BB23_50 Depth=1
                                        #     Parent Loop BB23_51 Depth=2
                                        #       Parent Loop BB23_53 Depth=3
                                        #         Parent Loop BB23_56 Depth=4
                                        # =>        This Inner Loop Header: Depth=5
	movl	(%rcx), %esi
	cmpq	$49, %rsi
	je	.LBB23_61
# BB#59:                                # %for.body.i.i.i.i
                                        #   in Loop: Header=BB23_58 Depth=5
	cmpq	$73, %rsi
	je	.LBB23_79
# BB#60:                                # %for.body.i.i.i.i
                                        #   in Loop: Header=BB23_58 Depth=5
	cmpq	$71, %rsi
	jne	.LBB23_63
.LBB23_61:                              # %land.lhs.true.i.i.i.i.i
                                        #   in Loop: Header=BB23_58 Depth=5
	movl	16(%rcx), %edx
	cmpq	$10, %rdx
	jne	.LBB23_416
# BB#62:                                # %AT_ref.exit.i.i.i.i
                                        #   in Loop: Header=BB23_58 Depth=5
	movq	24(%rcx), %rdx
.LBB23_63:                              # %for.inc.i.i.i.i
                                        #   in Loop: Header=BB23_58 Depth=5
	movq	8(%rcx), %rcx
	testq	%rcx, %rcx
	jne	.LBB23_58
# BB#64:                                # %for.end.i.i.i.i
                                        #   in Loop: Header=BB23_56 Depth=4
	testq	%rdx, %rdx
	jne	.LBB23_56
	jmp	.LBB23_65
	.align	16, 0x90
.LBB23_79:                              # %land.lhs.true.i.i.i.i
                                        #   in Loop: Header=BB23_53 Depth=3
	movl	16(%rcx), %edx
	cmpq	$10, %rdx
	jne	.LBB23_20
# BB#80:                                # %get_AT_ref.exit.i.i
                                        #   in Loop: Header=BB23_53 Depth=3
	movq	24(%rcx), %rdx
	testq	%rdx, %rdx
	jne	.LBB23_81
	jmp	.LBB23_65
	.align	16, 0x90
.LBB23_82:                              # %if.then.i218
                                        #   in Loop: Header=BB23_51 Depth=2
	movq	40(%rbx), %rcx
	movq	%rcx, (%r13)
	cmpq	$16645, %rax            # imm = 0x4105
	je	.LBB23_99
# BB#83:                                # %if.then.i218
                                        #   in Loop: Header=BB23_51 Depth=2
	cmpq	$16644, %rax            # imm = 0x4104
	je	.LBB23_84
# BB#100:                               # %if.else14.i
                                        #   in Loop: Header=BB23_51 Depth=2
	testq	%r12, %r12
	je	.LBB23_102
# BB#101:                               # %if.else14.i
                                        #   in Loop: Header=BB23_51 Depth=2
	testq	%rbx, %rbx
	je	.LBB23_102
# BB#103:                               # %if.then.i.i222
                                        #   in Loop: Header=BB23_51 Depth=2
	cmpq	%rbx, %r12
	je	.LBB23_26
# BB#104:                               # %if.end.i.i224
                                        #   in Loop: Header=BB23_51 Depth=2
	movq	%r12, 24(%rbx)
	movq	32(%r12), %rax
	movq	%rax, 40(%rbx)
	movq	%rbx, 32(%r12)
	movq	(%r13), %rcx
.LBB23_102:                             # %for.cond.backedge.i
                                        #   in Loop: Header=BB23_51 Depth=2
	testq	%rcx, %rcx
	movq	%rcx, %rbx
	jne	.LBB23_51
	jmp	.LBB23_66
	.align	16, 0x90
.LBB23_65:                              # %if.else16.i
                                        #   in Loop: Header=BB23_50 Depth=1
	movq	40(%rbx), %rax
	addq	$40, %rbx
	testq	%rax, %rax
	movq	%rbx, %r13
	jne	.LBB23_50
.LBB23_66:                              # %for.end.i
	movq	24(%rsp), %rdi          # 8-byte Reload
	callq	assign_symbol_names
	movq	limbo_die_list(%rip), %rbx
	jmp	.LBB23_68
	.align	16, 0x90
.LBB23_67:                              # %for.body21.i
                                        #   in Loop: Header=BB23_68 Depth=1
	movq	(%rbx), %rdi
	callq	compute_section_prefix
	movq	(%rbx), %rdi
	callq	assign_symbol_names
	movq	16(%rbx), %rbx
.LBB23_68:                              # %for.body21.i
                                        # =>This Inner Loop Header: Depth=1
	testq	%rbx, %rbx
	jne	.LBB23_67
.LBB23_69:                              # %if.end75
	movq	comp_unit_die(%rip), %rdi
	callq	add_sibling_attributes
	movq	limbo_die_list(%rip), %rbx
	jmp	.LBB23_71
	.align	16, 0x90
.LBB23_70:                              # %for.body78
                                        #   in Loop: Header=BB23_71 Depth=1
	movq	(%rbx), %rdi
	callq	add_sibling_attributes
	movq	16(%rbx), %rbx
.LBB23_71:                              # %for.body78
                                        # =>This Inner Loop Header: Depth=1
	testq	%rbx, %rbx
	jne	.LBB23_70
# BB#72:                                # %for.end82
	callq	text_section
	movq	asm_out_file(%rip), %rdi
	movabsq	$.L.str6, %rsi
	movabsq	$.L.str8, %rdx
	xorq	%rcx, %rcx
	xorq	%rax, %rax
	callq	fprintf
	movl	separate_line_info_table_in_use(%rip), %eax
	testq	%rax, %rax
	je	.LBB23_73
# BB#105:                               # %if.else94
	movl	ranges_table_in_use(%rip), %eax
	testq	%rax, %rax
	je	.LBB23_109
# BB#106:                               # %if.then98
	movq	comp_unit_die(%rip), %rbx
	movq	const_int_rtx+512(%rip), %r15
	movq	$40, %rdi
	callq	xmalloc
	xorq	%rcx, %rcx
	testq	%rbx, %rbx
	movq	$0, 8(%rax)
	movq	$82, %rdx
	movl	%edx, (%rax)
	movl	%ecx, 16(%rax)
	movq	%r15, 24(%rax)
	je	.LBB23_109
# BB#107:                               # %if.then98
	testq	%rax, %rax
	je	.LBB23_109
# BB#108:                               # %if.then.i.i255
	movq	16(%rbx), %rcx
	movq	%rcx, 8(%rax)
	movq	%rax, 16(%rbx)
	jmp	.LBB23_109
.LBB23_73:                              # %if.then93
	movq	comp_unit_die(%rip), %r12
	movq	$40, %rdi
	callq	xmalloc
	movq	%rax, %rbx
	movq	$0, 8(%rbx)
	movq	$17, %rax
	movl	%eax, (%rbx)
	movq	$12, %r15
	movl	%r15d, 16(%rbx)
	movabsq	$text_section_label, %rdi
	callq	xstrdup
	testq	%r12, %r12
	movq	%rax, 24(%rbx)
	je	.LBB23_76
# BB#74:                                # %if.then93
	testq	%rbx, %rbx
	je	.LBB23_76
# BB#75:                                # %if.then.i.i230
	movq	16(%r12), %rax
	movq	%rax, 8(%rbx)
	movq	%rbx, 16(%r12)
.LBB23_76:                              # %add_AT_lbl_id.exit
	movq	comp_unit_die(%rip), %r12
	movq	$40, %rdi
	callq	xmalloc
	movq	%rax, %rbx
	movq	$0, 8(%rbx)
	movq	$18, %rax
	movl	%eax, (%rbx)
	movl	%r15d, 16(%rbx)
	movabsq	$text_end_label, %rdi
	callq	xstrdup
	testq	%r12, %r12
	movq	%rax, 24(%rbx)
	je	.LBB23_109
# BB#77:                                # %add_AT_lbl_id.exit
	testq	%rbx, %rbx
	je	.LBB23_109
# BB#78:                                # %if.then.i.i243
	movq	16(%r12), %rax
	movq	%rax, 8(%rbx)
	movq	%rbx, 16(%r12)
.LBB23_109:                             # %if.end100
	movl	debug_info_level(%rip), %eax
	cmpq	$2, %rax
	jb	.LBB23_117
# BB#110:                               # %if.then103
	movq	comp_unit_die(%rip), %r15
	movq	$40, %rdi
	callq	xmalloc
	movq	%rax, %rbx
	movq	$0, 8(%rbx)
	movq	$16, %rax
	movl	%eax, (%rbx)
	movq	$13, %rax
	movl	%eax, 16(%rbx)
	movabsq	$debug_line_section_label, %rdi
	callq	xstrdup
	testq	%r15, %r15
	movq	%rax, 24(%rbx)
	je	.LBB23_113
# BB#111:                               # %if.then103
	testq	%rbx, %rbx
	je	.LBB23_113
# BB#112:                               # %if.then.i.i268
	movq	16(%r15), %rax
	movq	%rax, 8(%rbx)
	movq	%rbx, 16(%r15)
.LBB23_113:                             # %if.end104
	movl	debug_info_level(%rip), %eax
	cmpq	$3, %rax
	jb	.LBB23_117
# BB#114:                               # %if.then107
	movq	comp_unit_die(%rip), %r15
	movq	$40, %rdi
	callq	xmalloc
	movq	%rax, %rbx
	movq	$0, 8(%rbx)
	movq	$67, %rax
	movl	%eax, (%rbx)
	movq	$13, %rax
	movl	%eax, 16(%rbx)
	movabsq	$macinfo_section_label, %rdi
	callq	xstrdup
	testq	%r15, %r15
	movq	%rax, 24(%rbx)
	je	.LBB23_117
# BB#115:                               # %if.then107
	testq	%rbx, %rbx
	je	.LBB23_117
# BB#116:                               # %if.then.i.i281
	movq	16(%r15), %rax
	movq	%rax, 8(%rbx)
	movq	%rbx, 16(%r15)
.LBB23_117:                             # %for.cond109.preheader
	movq	limbo_die_list(%rip), %rbx
	jmp	.LBB23_119
	.align	16, 0x90
.LBB23_118:                             # %for.body111
                                        #   in Loop: Header=BB23_119 Depth=1
	movq	(%rbx), %rdi
	callq	output_comp_unit
	movq	16(%rbx), %rbx
.LBB23_119:                             # %for.body111
                                        # =>This Inner Loop Header: Depth=1
	testq	%rbx, %rbx
	jne	.LBB23_118
# BB#120:                               # %for.end115
	movq	comp_unit_die(%rip), %rdi
	callq	output_comp_unit
	movabsq	$.L.str11, %rdi
	movq	$1024, %rsi             # imm = 0x400
	callq	named_section_flags
	movl	abbrev_die_table_in_use(%rip), %eax
	cmpq	$2, %rax
	jb	.LBB23_316
# BB#121:
	movq	$1, %r13
	movabsq	$.L.str37, %rbx
	movabsq	$.L.str59, %r15
	jmp	.LBB23_122
.LBB23_129:                             # %for.body.i285
                                        #   in Loop: Header=BB23_122 Depth=1
	jmpq	*.LJTI23_0(,%rax,8)
.LBB23_177:                             # %sw.bb49.i.i
                                        #   in Loop: Header=BB23_122 Depth=1
	movabsq	$.L.str204, %rdx
	jmp	.LBB23_183
.LBB23_178:                             # %sw.bb50.i.i
                                        #   in Loop: Header=BB23_122 Depth=1
	movabsq	$.L.str205, %rdx
	jmp	.LBB23_183
.LBB23_179:                             # %sw.bb51.i.i
                                        #   in Loop: Header=BB23_122 Depth=1
	movabsq	$.L.str206, %rdx
	jmp	.LBB23_183
.LBB23_180:                             # %sw.bb52.i.i
                                        #   in Loop: Header=BB23_122 Depth=1
	movabsq	$.L.str207, %rdx
	jmp	.LBB23_183
.LBB23_181:                             # %sw.bb53.i.i
                                        #   in Loop: Header=BB23_122 Depth=1
	movabsq	$.L.str208, %rdx
	jmp	.LBB23_183
.LBB23_131:                             # %sw.bb2.i.i
                                        #   in Loop: Header=BB23_122 Depth=1
	movabsq	$.L.str157, %rdx
	jmp	.LBB23_183
.LBB23_132:                             # %sw.bb3.i.i
                                        #   in Loop: Header=BB23_122 Depth=1
	movabsq	$.L.str158, %rdx
	jmp	.LBB23_183
.LBB23_133:                             # %sw.bb4.i.i
                                        #   in Loop: Header=BB23_122 Depth=1
	movabsq	$.L.str159, %rdx
	jmp	.LBB23_183
.LBB23_134:                             # %sw.bb5.i.i
                                        #   in Loop: Header=BB23_122 Depth=1
	movabsq	$.L.str160, %rdx
	jmp	.LBB23_183
.LBB23_135:                             # %sw.bb6.i.i
                                        #   in Loop: Header=BB23_122 Depth=1
	movabsq	$.L.str161, %rdx
	jmp	.LBB23_183
.LBB23_136:                             # %sw.bb7.i.i
                                        #   in Loop: Header=BB23_122 Depth=1
	movabsq	$.L.str162, %rdx
	jmp	.LBB23_183
.LBB23_137:                             # %sw.bb8.i.i
                                        #   in Loop: Header=BB23_122 Depth=1
	movabsq	$.L.str163, %rdx
	jmp	.LBB23_183
.LBB23_138:                             # %sw.bb9.i.i
                                        #   in Loop: Header=BB23_122 Depth=1
	movabsq	$.L.str164, %rdx
	jmp	.LBB23_183
.LBB23_139:                             # %sw.bb10.i.i
                                        #   in Loop: Header=BB23_122 Depth=1
	movabsq	$.L.str165, %rdx
	jmp	.LBB23_183
.LBB23_140:                             # %sw.bb11.i.i
                                        #   in Loop: Header=BB23_122 Depth=1
	movabsq	$.L.str166, %rdx
	jmp	.LBB23_183
.LBB23_141:                             # %sw.bb12.i.i
                                        #   in Loop: Header=BB23_122 Depth=1
	movabsq	$.L.str167, %rdx
	jmp	.LBB23_183
.LBB23_142:                             # %sw.bb13.i.i
                                        #   in Loop: Header=BB23_122 Depth=1
	movabsq	$.L.str168, %rdx
	jmp	.LBB23_183
.LBB23_143:                             # %sw.bb14.i.i
                                        #   in Loop: Header=BB23_122 Depth=1
	movabsq	$.L.str169, %rdx
	jmp	.LBB23_183
.LBB23_144:                             # %sw.bb15.i.i
                                        #   in Loop: Header=BB23_122 Depth=1
	movabsq	$.L.str170, %rdx
	jmp	.LBB23_183
.LBB23_145:                             # %sw.bb16.i.i
                                        #   in Loop: Header=BB23_122 Depth=1
	movabsq	$.L.str171, %rdx
	jmp	.LBB23_183
.LBB23_146:                             # %sw.bb17.i.i
                                        #   in Loop: Header=BB23_122 Depth=1
	movabsq	$.L.str172, %rdx
	jmp	.LBB23_183
.LBB23_147:                             # %sw.bb18.i.i
                                        #   in Loop: Header=BB23_122 Depth=1
	movabsq	$.L.str173, %rdx
	jmp	.LBB23_183
.LBB23_148:                             # %sw.bb19.i.i
                                        #   in Loop: Header=BB23_122 Depth=1
	movabsq	$.L.str174, %rdx
	jmp	.LBB23_183
.LBB23_149:                             # %sw.bb20.i.i
                                        #   in Loop: Header=BB23_122 Depth=1
	movabsq	$.L.str175, %rdx
	jmp	.LBB23_183
.LBB23_150:                             # %sw.bb21.i.i
                                        #   in Loop: Header=BB23_122 Depth=1
	movabsq	$.L.str176, %rdx
	jmp	.LBB23_183
.LBB23_151:                             # %sw.bb22.i.i
                                        #   in Loop: Header=BB23_122 Depth=1
	movabsq	$.L.str177, %rdx
	jmp	.LBB23_183
.LBB23_152:                             # %sw.bb23.i.i
                                        #   in Loop: Header=BB23_122 Depth=1
	movabsq	$.L.str178, %rdx
	jmp	.LBB23_183
.LBB23_153:                             # %sw.bb24.i.i
                                        #   in Loop: Header=BB23_122 Depth=1
	movabsq	$.L.str179, %rdx
	jmp	.LBB23_183
.LBB23_154:                             # %sw.bb25.i.i
                                        #   in Loop: Header=BB23_122 Depth=1
	movabsq	$.L.str180, %rdx
	jmp	.LBB23_183
.LBB23_155:                             # %sw.bb26.i.i
                                        #   in Loop: Header=BB23_122 Depth=1
	movabsq	$.L.str181, %rdx
	jmp	.LBB23_183
.LBB23_156:                             # %sw.bb27.i.i
                                        #   in Loop: Header=BB23_122 Depth=1
	movabsq	$.L.str182, %rdx
	jmp	.LBB23_183
.LBB23_157:                             # %sw.bb28.i.i
                                        #   in Loop: Header=BB23_122 Depth=1
	movabsq	$.L.str183, %rdx
	jmp	.LBB23_183
.LBB23_158:                             # %sw.bb29.i.i
                                        #   in Loop: Header=BB23_122 Depth=1
	movabsq	$.L.str184, %rdx
	jmp	.LBB23_183
.LBB23_159:                             # %sw.bb30.i.i
                                        #   in Loop: Header=BB23_122 Depth=1
	movabsq	$.L.str185, %rdx
	jmp	.LBB23_183
.LBB23_160:                             # %sw.bb31.i.i
                                        #   in Loop: Header=BB23_122 Depth=1
	movabsq	$.L.str186, %rdx
	jmp	.LBB23_183
.LBB23_161:                             # %sw.bb32.i.i
                                        #   in Loop: Header=BB23_122 Depth=1
	movabsq	$.L.str187, %rdx
	jmp	.LBB23_183
.LBB23_162:                             # %sw.bb33.i.i
                                        #   in Loop: Header=BB23_122 Depth=1
	movabsq	$.L.str188, %rdx
	jmp	.LBB23_183
.LBB23_163:                             # %sw.bb34.i.i
                                        #   in Loop: Header=BB23_122 Depth=1
	movabsq	$.L.str189, %rdx
	jmp	.LBB23_183
.LBB23_164:                             # %sw.bb35.i.i
                                        #   in Loop: Header=BB23_122 Depth=1
	movabsq	$.L.str190, %rdx
	jmp	.LBB23_183
.LBB23_165:                             # %sw.bb36.i.i
                                        #   in Loop: Header=BB23_122 Depth=1
	movabsq	$.L.str191, %rdx
	jmp	.LBB23_183
.LBB23_166:                             # %sw.bb37.i.i
                                        #   in Loop: Header=BB23_122 Depth=1
	movabsq	$.L.str192, %rdx
	jmp	.LBB23_183
.LBB23_167:                             # %sw.bb38.i.i
                                        #   in Loop: Header=BB23_122 Depth=1
	movabsq	$.L.str193, %rdx
	jmp	.LBB23_183
.LBB23_168:                             # %sw.bb39.i.i
                                        #   in Loop: Header=BB23_122 Depth=1
	movabsq	$.L.str194, %rdx
	jmp	.LBB23_183
.LBB23_169:                             # %sw.bb40.i.i
                                        #   in Loop: Header=BB23_122 Depth=1
	movabsq	$.L.str195, %rdx
	jmp	.LBB23_183
.LBB23_170:                             # %sw.bb41.i.i
                                        #   in Loop: Header=BB23_122 Depth=1
	movabsq	$.L.str196, %rdx
	jmp	.LBB23_183
.LBB23_171:                             # %sw.bb42.i.i
                                        #   in Loop: Header=BB23_122 Depth=1
	movabsq	$.L.str197, %rdx
	jmp	.LBB23_183
.LBB23_172:                             # %sw.bb43.i.i
                                        #   in Loop: Header=BB23_122 Depth=1
	movabsq	$.L.str198, %rdx
	jmp	.LBB23_183
.LBB23_173:                             # %sw.bb44.i.i
                                        #   in Loop: Header=BB23_122 Depth=1
	movabsq	$.L.str199, %rdx
	jmp	.LBB23_183
.LBB23_174:                             # %sw.bb45.i.i
                                        #   in Loop: Header=BB23_122 Depth=1
	movabsq	$.L.str200, %rdx
	jmp	.LBB23_183
.LBB23_175:                             # %sw.bb46.i.i
                                        #   in Loop: Header=BB23_122 Depth=1
	movabsq	$.L.str201, %rdx
	jmp	.LBB23_183
.LBB23_176:                             # %sw.bb47.i.i
                                        #   in Loop: Header=BB23_122 Depth=1
	movabsq	$.L.str202, %rdx
	jmp	.LBB23_183
	.align	16, 0x90
.LBB23_122:                             # %for.body.i285
                                        # =>This Loop Header: Depth=1
                                        #     Child Loop BB23_187 Depth 2
	movq	abbrev_die_table(%rip), %rax
	movq	(%rax,%r13,8), %r12
	xorq	%rax, %rax
	movq	%r13, %rdi
	movabsq	$.L.str33, %rsi
	callq	dw2_asm_output_data_uleb128
	movslq	(%r12), %rax
	movq	%rax, %rdi
	andq	%r14, %rdi
	cmpq	$16512, %rax            # imm = 0x4080
	jg	.LBB23_125
# BB#123:                               # %for.body.i285
                                        #   in Loop: Header=BB23_122 Depth=1
	cmpq	$53, %rdi
	ja	.LBB23_182
# BB#124:                               # %for.body.i285
                                        #   in Loop: Header=BB23_122 Depth=1
	movabsq	$.L.str155, %rdx
	jmpq	*.LJTI23_1(,%rdi,8)
.LBB23_130:                             # %sw.bb1.i.i
                                        #   in Loop: Header=BB23_122 Depth=1
	movabsq	$.L.str156, %rdx
	jmp	.LBB23_183
	.align	16, 0x90
.LBB23_125:                             # %for.body.i285
                                        #   in Loop: Header=BB23_122 Depth=1
	cmpq	$16640, %rax            # imm = 0x4100
	jg	.LBB23_128
# BB#126:                               # %for.body.i285
                                        #   in Loop: Header=BB23_122 Depth=1
	cmpq	$16513, %rdi            # imm = 0x4081
	jne	.LBB23_182
# BB#127:                               # %sw.bb48.i.i
                                        #   in Loop: Header=BB23_122 Depth=1
	movabsq	$.L.str203, %rdx
	jmp	.LBB23_183
	.align	16, 0x90
.LBB23_128:                             # %for.body.i285
                                        #   in Loop: Header=BB23_122 Depth=1
	addq	$-16641, %rax           # imm = 0xFFFFFFFFFFFFBEFF
	andq	%r14, %rax
	cmpq	$4, %rax
	jbe	.LBB23_129
.LBB23_182:                             # %sw.default.i.i
                                        #   in Loop: Header=BB23_122 Depth=1
	movabsq	$.L.str209, %rdx
.LBB23_183:                             # %dwarf_tag_name.exit.i
                                        #   in Loop: Header=BB23_122 Depth=1
	xorq	%rax, %rax
	movabsq	$.L.str34, %rsi
	callq	dw2_asm_output_data_uleb128
	cmpq	$0, 32(%r12)
	jne	.LBB23_184
# BB#185:                               # %if.else.i289
                                        #   in Loop: Header=BB23_122 Depth=1
	movq	$1, %rdi
	xorq	%rsi, %rsi
	xorq	%rax, %rax
	movabsq	$.L.str36, %rdx
	jmp	.LBB23_186
	.align	16, 0x90
.LBB23_184:                             # %if.then.i288
                                        #   in Loop: Header=BB23_122 Depth=1
	movq	$1, %rdi
	movq	$1, %rsi
	xorq	%rax, %rax
	movabsq	$.L.str35, %rdx
.LBB23_186:                             # %if.end.i290
                                        #   in Loop: Header=BB23_122 Depth=1
	callq	dw2_asm_output_data
	movq	16(%r12), %r12
	jmp	.LBB23_187
	.align	16, 0x90
.LBB23_314:                             # %output_value_format.exit.i
                                        #   in Loop: Header=BB23_187 Depth=2
	xorq	%rax, %rax
	movq	%rbx, %rsi
	callq	dw2_asm_output_data_uleb128
	movq	8(%r12), %r12
.LBB23_187:                             # %if.end.i290
                                        #   Parent Loop BB23_122 Depth=1
                                        # =>  This Inner Loop Header: Depth=2
	testq	%r12, %r12
	je	.LBB23_315
# BB#188:                               # %for.body9.i
                                        #   in Loop: Header=BB23_187 Depth=2
	movslq	(%r12), %rax
	movq	%rax, %rdi
	andq	%r14, %rdi
	cmpq	$8192, %rax             # imm = 0x2000
	jg	.LBB23_191
# BB#189:                               # %for.body9.i
                                        #   in Loop: Header=BB23_187 Depth=2
	decq	%rax
	andq	%r14, %rax
	cmpq	$88, %rax
	ja	.LBB23_290
# BB#190:                               # %for.body9.i
                                        #   in Loop: Header=BB23_187 Depth=2
	movabsq	$.L.str61, %rdx
	jmpq	*.LJTI23_4(,%rax,8)
.LBB23_197:                             # %sw.bb1.i25.i
                                        #   in Loop: Header=BB23_187 Depth=2
	movabsq	$.L.str62, %rdx
	jmp	.LBB23_291
	.align	16, 0x90
.LBB23_191:                             # %for.body9.i
                                        #   in Loop: Header=BB23_187 Depth=2
	cmpq	$8704, %rax             # imm = 0x2200
	jg	.LBB23_288
# BB#192:                               # %for.body9.i
                                        #   in Loop: Header=BB23_187 Depth=2
	cmpq	$8448, %rax             # imm = 0x2100
	jg	.LBB23_195
# BB#193:                               # %for.body9.i
                                        #   in Loop: Header=BB23_187 Depth=2
	addq	$-8193, %rax            # imm = 0xFFFFFFFFFFFFDFFF
	andq	%r14, %rax
	cmpq	$10, %rax
	ja	.LBB23_290
# BB#194:                               # %for.body9.i
                                        #   in Loop: Header=BB23_187 Depth=2
	jmpq	*.LJTI23_3(,%rax,8)
.LBB23_270:                             # %sw.bb74.i.i
                                        #   in Loop: Header=BB23_187 Depth=2
	movabsq	$.L.str135, %rdx
	jmp	.LBB23_291
.LBB23_288:                             # %for.body9.i
                                        #   in Loop: Header=BB23_187 Depth=2
	cmpq	$8705, %rdi             # imm = 0x2201
	jne	.LBB23_290
# BB#289:                               # %sw.bb92.i.i
                                        #   in Loop: Header=BB23_187 Depth=2
	movabsq	$.L.str153, %rdx
	jmp	.LBB23_291
.LBB23_195:                             # %for.body9.i
                                        #   in Loop: Header=BB23_187 Depth=2
	addq	$-8449, %rax            # imm = 0xFFFFFFFFFFFFDEFF
	andq	%r14, %rax
	cmpq	$6, %rax
	jbe	.LBB23_196
	.align	16, 0x90
.LBB23_290:                             # %sw.default.i78.i
                                        #   in Loop: Header=BB23_187 Depth=2
	movabsq	$.L.str154, %rdx
.LBB23_291:                             # %dwarf_attr_name.exit.i
                                        #   in Loop: Header=BB23_187 Depth=2
	xorq	%rax, %rax
	movq	%rbx, %rsi
	callq	dw2_asm_output_data_uleb128
	movq	%r12, %rdi
	callq	value_format
	movq	%rax, %rdi
	andq	%r14, %rdi
	decq	%rax
	andq	%r14, %rax
	cmpq	$21, %rax
	ja	.LBB23_313
# BB#292:                               # %dwarf_attr_name.exit.i
                                        #   in Loop: Header=BB23_187 Depth=2
	movabsq	$.L.str38, %rdx
	jmpq	*.LJTI23_5(,%rax,8)
	.align	16, 0x90
.LBB23_313:                             # %sw.default.i.i.i
                                        #   in Loop: Header=BB23_187 Depth=2
	movq	%r15, %rdx
	jmp	.LBB23_314
.LBB23_196:                             # %for.body9.i
                                        #   in Loop: Header=BB23_187 Depth=2
	jmpq	*.LJTI23_2(,%rax,8)
.LBB23_281:                             # %sw.bb85.i.i
                                        #   in Loop: Header=BB23_187 Depth=2
	movabsq	$.L.str146, %rdx
	jmp	.LBB23_291
.LBB23_293:                             # %sw.bb1.i.i.i
                                        #   in Loop: Header=BB23_187 Depth=2
	movabsq	$.L.str39, %rdx
	jmp	.LBB23_314
.LBB23_294:                             # %sw.bb2.i.i.i
                                        #   in Loop: Header=BB23_187 Depth=2
	movabsq	$.L.str40, %rdx
	jmp	.LBB23_314
.LBB23_295:                             # %sw.bb3.i.i.i
                                        #   in Loop: Header=BB23_187 Depth=2
	movabsq	$.L.str41, %rdx
	jmp	.LBB23_314
.LBB23_296:                             # %sw.bb4.i.i.i
                                        #   in Loop: Header=BB23_187 Depth=2
	movabsq	$.L.str42, %rdx
	jmp	.LBB23_314
.LBB23_297:                             # %sw.bb5.i.i.i
                                        #   in Loop: Header=BB23_187 Depth=2
	movabsq	$.L.str43, %rdx
	jmp	.LBB23_314
.LBB23_298:                             # %sw.bb6.i.i.i
                                        #   in Loop: Header=BB23_187 Depth=2
	movabsq	$.L.str44, %rdx
	jmp	.LBB23_314
.LBB23_299:                             # %sw.bb7.i.i.i
                                        #   in Loop: Header=BB23_187 Depth=2
	movabsq	$.L.str45, %rdx
	jmp	.LBB23_314
.LBB23_300:                             # %sw.bb8.i.i.i
                                        #   in Loop: Header=BB23_187 Depth=2
	movabsq	$.L.str46, %rdx
	jmp	.LBB23_314
.LBB23_301:                             # %sw.bb9.i.i.i
                                        #   in Loop: Header=BB23_187 Depth=2
	movabsq	$.L.str47, %rdx
	jmp	.LBB23_314
.LBB23_302:                             # %sw.bb10.i.i.i
                                        #   in Loop: Header=BB23_187 Depth=2
	movabsq	$.L.str48, %rdx
	jmp	.LBB23_314
.LBB23_303:                             # %sw.bb11.i.i.i
                                        #   in Loop: Header=BB23_187 Depth=2
	movabsq	$.L.str49, %rdx
	jmp	.LBB23_314
.LBB23_304:                             # %sw.bb12.i.i.i
                                        #   in Loop: Header=BB23_187 Depth=2
	movabsq	$.L.str50, %rdx
	jmp	.LBB23_314
.LBB23_305:                             # %sw.bb13.i.i.i
                                        #   in Loop: Header=BB23_187 Depth=2
	movabsq	$.L.str51, %rdx
	jmp	.LBB23_314
.LBB23_306:                             # %sw.bb14.i.i.i
                                        #   in Loop: Header=BB23_187 Depth=2
	movabsq	$.L.str52, %rdx
	jmp	.LBB23_314
.LBB23_307:                             # %sw.bb15.i.i.i
                                        #   in Loop: Header=BB23_187 Depth=2
	movabsq	$.L.str53, %rdx
	jmp	.LBB23_314
.LBB23_308:                             # %sw.bb16.i.i.i
                                        #   in Loop: Header=BB23_187 Depth=2
	movabsq	$.L.str54, %rdx
	jmp	.LBB23_314
.LBB23_309:                             # %sw.bb17.i.i.i
                                        #   in Loop: Header=BB23_187 Depth=2
	movabsq	$.L.str55, %rdx
	jmp	.LBB23_314
.LBB23_310:                             # %sw.bb18.i.i.i
                                        #   in Loop: Header=BB23_187 Depth=2
	movabsq	$.L.str56, %rdx
	jmp	.LBB23_314
.LBB23_311:                             # %sw.bb19.i.i.i
                                        #   in Loop: Header=BB23_187 Depth=2
	movabsq	$.L.str57, %rdx
	jmp	.LBB23_314
.LBB23_312:                             # %sw.bb20.i.i.i
                                        #   in Loop: Header=BB23_187 Depth=2
	movabsq	$.L.str58, %rdx
	jmp	.LBB23_314
.LBB23_282:                             # %sw.bb86.i.i
                                        #   in Loop: Header=BB23_187 Depth=2
	movabsq	$.L.str147, %rdx
	jmp	.LBB23_291
.LBB23_283:                             # %sw.bb87.i.i
                                        #   in Loop: Header=BB23_187 Depth=2
	movabsq	$.L.str148, %rdx
	jmp	.LBB23_291
.LBB23_284:                             # %sw.bb88.i.i
                                        #   in Loop: Header=BB23_187 Depth=2
	movabsq	$.L.str149, %rdx
	jmp	.LBB23_291
.LBB23_285:                             # %sw.bb89.i.i
                                        #   in Loop: Header=BB23_187 Depth=2
	movabsq	$.L.str150, %rdx
	jmp	.LBB23_291
.LBB23_286:                             # %sw.bb90.i.i
                                        #   in Loop: Header=BB23_187 Depth=2
	movabsq	$.L.str151, %rdx
	jmp	.LBB23_291
.LBB23_287:                             # %sw.bb91.i.i
                                        #   in Loop: Header=BB23_187 Depth=2
	movabsq	$.L.str152, %rdx
	jmp	.LBB23_291
.LBB23_271:                             # %sw.bb75.i.i
                                        #   in Loop: Header=BB23_187 Depth=2
	movabsq	$.L.str136, %rdx
	jmp	.LBB23_291
.LBB23_272:                             # %sw.bb76.i.i
                                        #   in Loop: Header=BB23_187 Depth=2
	movabsq	$.L.str137, %rdx
	jmp	.LBB23_291
.LBB23_273:                             # %sw.bb77.i.i
                                        #   in Loop: Header=BB23_187 Depth=2
	movabsq	$.L.str138, %rdx
	jmp	.LBB23_291
.LBB23_274:                             # %sw.bb78.i.i
                                        #   in Loop: Header=BB23_187 Depth=2
	movabsq	$.L.str139, %rdx
	jmp	.LBB23_291
.LBB23_275:                             # %sw.bb79.i.i
                                        #   in Loop: Header=BB23_187 Depth=2
	movabsq	$.L.str140, %rdx
	jmp	.LBB23_291
.LBB23_276:                             # %sw.bb80.i.i
                                        #   in Loop: Header=BB23_187 Depth=2
	movabsq	$.L.str141, %rdx
	jmp	.LBB23_291
.LBB23_277:                             # %sw.bb81.i.i
                                        #   in Loop: Header=BB23_187 Depth=2
	movabsq	$.L.str142, %rdx
	jmp	.LBB23_291
.LBB23_278:                             # %sw.bb82.i.i
                                        #   in Loop: Header=BB23_187 Depth=2
	movabsq	$.L.str143, %rdx
	jmp	.LBB23_291
.LBB23_279:                             # %sw.bb83.i.i
                                        #   in Loop: Header=BB23_187 Depth=2
	movabsq	$.L.str144, %rdx
	jmp	.LBB23_291
.LBB23_280:                             # %sw.bb84.i.i
                                        #   in Loop: Header=BB23_187 Depth=2
	movabsq	$.L.str145, %rdx
	jmp	.LBB23_291
.LBB23_198:                             # %sw.bb2.i26.i
                                        #   in Loop: Header=BB23_187 Depth=2
	movabsq	$.L.str63, %rdx
	jmp	.LBB23_291
.LBB23_199:                             # %sw.bb3.i27.i
                                        #   in Loop: Header=BB23_187 Depth=2
	movabsq	$.L.str64, %rdx
	jmp	.LBB23_291
.LBB23_200:                             # %sw.bb4.i28.i
                                        #   in Loop: Header=BB23_187 Depth=2
	movabsq	$.L.str65, %rdx
	jmp	.LBB23_291
.LBB23_201:                             # %sw.bb5.i29.i
                                        #   in Loop: Header=BB23_187 Depth=2
	movabsq	$.L.str66, %rdx
	jmp	.LBB23_291
.LBB23_202:                             # %sw.bb6.i30.i
                                        #   in Loop: Header=BB23_187 Depth=2
	movabsq	$.L.str67, %rdx
	jmp	.LBB23_291
.LBB23_203:                             # %sw.bb7.i31.i
                                        #   in Loop: Header=BB23_187 Depth=2
	movabsq	$.L.str68, %rdx
	jmp	.LBB23_291
.LBB23_204:                             # %sw.bb8.i32.i
                                        #   in Loop: Header=BB23_187 Depth=2
	movabsq	$.L.str69, %rdx
	jmp	.LBB23_291
.LBB23_205:                             # %sw.bb9.i33.i
                                        #   in Loop: Header=BB23_187 Depth=2
	movabsq	$.L.str70, %rdx
	jmp	.LBB23_291
.LBB23_206:                             # %sw.bb10.i34.i
                                        #   in Loop: Header=BB23_187 Depth=2
	movabsq	$.L.str71, %rdx
	jmp	.LBB23_291
.LBB23_207:                             # %sw.bb11.i35.i
                                        #   in Loop: Header=BB23_187 Depth=2
	movabsq	$.L.str72, %rdx
	jmp	.LBB23_291
.LBB23_208:                             # %sw.bb12.i36.i
                                        #   in Loop: Header=BB23_187 Depth=2
	movabsq	$.L.str73, %rdx
	jmp	.LBB23_291
.LBB23_209:                             # %sw.bb13.i37.i
                                        #   in Loop: Header=BB23_187 Depth=2
	movabsq	$.L.str74, %rdx
	jmp	.LBB23_291
.LBB23_210:                             # %sw.bb14.i38.i
                                        #   in Loop: Header=BB23_187 Depth=2
	movabsq	$.L.str75, %rdx
	jmp	.LBB23_291
.LBB23_211:                             # %sw.bb15.i39.i
                                        #   in Loop: Header=BB23_187 Depth=2
	movabsq	$.L.str76, %rdx
	jmp	.LBB23_291
.LBB23_212:                             # %sw.bb16.i40.i
                                        #   in Loop: Header=BB23_187 Depth=2
	movabsq	$.L.str77, %rdx
	jmp	.LBB23_291
.LBB23_213:                             # %sw.bb17.i41.i
                                        #   in Loop: Header=BB23_187 Depth=2
	movabsq	$.L.str78, %rdx
	jmp	.LBB23_291
.LBB23_214:                             # %sw.bb18.i42.i
                                        #   in Loop: Header=BB23_187 Depth=2
	movabsq	$.L.str79, %rdx
	jmp	.LBB23_291
.LBB23_215:                             # %sw.bb19.i43.i
                                        #   in Loop: Header=BB23_187 Depth=2
	movabsq	$.L.str80, %rdx
	jmp	.LBB23_291
.LBB23_216:                             # %sw.bb20.i44.i
                                        #   in Loop: Header=BB23_187 Depth=2
	movabsq	$.L.str81, %rdx
	jmp	.LBB23_291
.LBB23_217:                             # %sw.bb21.i45.i
                                        #   in Loop: Header=BB23_187 Depth=2
	movabsq	$.L.str82, %rdx
	jmp	.LBB23_291
.LBB23_218:                             # %sw.bb22.i46.i
                                        #   in Loop: Header=BB23_187 Depth=2
	movabsq	$.L.str83, %rdx
	jmp	.LBB23_291
.LBB23_219:                             # %sw.bb23.i47.i
                                        #   in Loop: Header=BB23_187 Depth=2
	movabsq	$.L.str84, %rdx
	jmp	.LBB23_291
.LBB23_220:                             # %sw.bb24.i48.i
                                        #   in Loop: Header=BB23_187 Depth=2
	movabsq	$.L.str85, %rdx
	jmp	.LBB23_291
.LBB23_221:                             # %sw.bb25.i49.i
                                        #   in Loop: Header=BB23_187 Depth=2
	movabsq	$.L.str86, %rdx
	jmp	.LBB23_291
.LBB23_222:                             # %sw.bb26.i50.i
                                        #   in Loop: Header=BB23_187 Depth=2
	movabsq	$.L.str87, %rdx
	jmp	.LBB23_291
.LBB23_223:                             # %sw.bb27.i51.i
                                        #   in Loop: Header=BB23_187 Depth=2
	movabsq	$.L.str88, %rdx
	jmp	.LBB23_291
.LBB23_224:                             # %sw.bb28.i52.i
                                        #   in Loop: Header=BB23_187 Depth=2
	movabsq	$.L.str89, %rdx
	jmp	.LBB23_291
.LBB23_225:                             # %sw.bb29.i53.i
                                        #   in Loop: Header=BB23_187 Depth=2
	movabsq	$.L.str90, %rdx
	jmp	.LBB23_291
.LBB23_226:                             # %sw.bb30.i54.i
                                        #   in Loop: Header=BB23_187 Depth=2
	movabsq	$.L.str91, %rdx
	jmp	.LBB23_291
.LBB23_227:                             # %sw.bb31.i55.i
                                        #   in Loop: Header=BB23_187 Depth=2
	movabsq	$.L.str92, %rdx
	jmp	.LBB23_291
.LBB23_228:                             # %sw.bb32.i56.i
                                        #   in Loop: Header=BB23_187 Depth=2
	movabsq	$.L.str93, %rdx
	jmp	.LBB23_291
.LBB23_229:                             # %sw.bb33.i57.i
                                        #   in Loop: Header=BB23_187 Depth=2
	movabsq	$.L.str94, %rdx
	jmp	.LBB23_291
.LBB23_230:                             # %sw.bb34.i58.i
                                        #   in Loop: Header=BB23_187 Depth=2
	movabsq	$.L.str95, %rdx
	jmp	.LBB23_291
.LBB23_231:                             # %sw.bb35.i59.i
                                        #   in Loop: Header=BB23_187 Depth=2
	movabsq	$.L.str96, %rdx
	jmp	.LBB23_291
.LBB23_232:                             # %sw.bb36.i60.i
                                        #   in Loop: Header=BB23_187 Depth=2
	movabsq	$.L.str97, %rdx
	jmp	.LBB23_291
.LBB23_233:                             # %sw.bb37.i61.i
                                        #   in Loop: Header=BB23_187 Depth=2
	movabsq	$.L.str98, %rdx
	jmp	.LBB23_291
.LBB23_234:                             # %sw.bb38.i62.i
                                        #   in Loop: Header=BB23_187 Depth=2
	movabsq	$.L.str99, %rdx
	jmp	.LBB23_291
.LBB23_235:                             # %sw.bb39.i63.i
                                        #   in Loop: Header=BB23_187 Depth=2
	movabsq	$.L.str100, %rdx
	jmp	.LBB23_291
.LBB23_236:                             # %sw.bb40.i64.i
                                        #   in Loop: Header=BB23_187 Depth=2
	movabsq	$.L.str101, %rdx
	jmp	.LBB23_291
.LBB23_237:                             # %sw.bb41.i65.i
                                        #   in Loop: Header=BB23_187 Depth=2
	movabsq	$.L.str102, %rdx
	jmp	.LBB23_291
.LBB23_238:                             # %sw.bb42.i66.i
                                        #   in Loop: Header=BB23_187 Depth=2
	movabsq	$.L.str103, %rdx
	jmp	.LBB23_291
.LBB23_239:                             # %sw.bb43.i67.i
                                        #   in Loop: Header=BB23_187 Depth=2
	movabsq	$.L.str104, %rdx
	jmp	.LBB23_291
.LBB23_240:                             # %sw.bb44.i68.i
                                        #   in Loop: Header=BB23_187 Depth=2
	movabsq	$.L.str105, %rdx
	jmp	.LBB23_291
.LBB23_241:                             # %sw.bb45.i69.i
                                        #   in Loop: Header=BB23_187 Depth=2
	movabsq	$.L.str106, %rdx
	jmp	.LBB23_291
.LBB23_242:                             # %sw.bb46.i70.i
                                        #   in Loop: Header=BB23_187 Depth=2
	movabsq	$.L.str107, %rdx
	jmp	.LBB23_291
.LBB23_243:                             # %sw.bb47.i71.i
                                        #   in Loop: Header=BB23_187 Depth=2
	movabsq	$.L.str108, %rdx
	jmp	.LBB23_291
.LBB23_244:                             # %sw.bb48.i72.i
                                        #   in Loop: Header=BB23_187 Depth=2
	movabsq	$.L.str109, %rdx
	jmp	.LBB23_291
.LBB23_245:                             # %sw.bb49.i73.i
                                        #   in Loop: Header=BB23_187 Depth=2
	movabsq	$.L.str110, %rdx
	jmp	.LBB23_291
.LBB23_246:                             # %sw.bb50.i74.i
                                        #   in Loop: Header=BB23_187 Depth=2
	movabsq	$.L.str111, %rdx
	jmp	.LBB23_291
.LBB23_247:                             # %sw.bb51.i75.i
                                        #   in Loop: Header=BB23_187 Depth=2
	movabsq	$.L.str112, %rdx
	jmp	.LBB23_291
.LBB23_248:                             # %sw.bb52.i76.i
                                        #   in Loop: Header=BB23_187 Depth=2
	movabsq	$.L.str113, %rdx
	jmp	.LBB23_291
.LBB23_249:                             # %sw.bb53.i77.i
                                        #   in Loop: Header=BB23_187 Depth=2
	movabsq	$.L.str114, %rdx
	jmp	.LBB23_291
.LBB23_250:                             # %sw.bb54.i.i
                                        #   in Loop: Header=BB23_187 Depth=2
	movabsq	$.L.str115, %rdx
	jmp	.LBB23_291
.LBB23_251:                             # %sw.bb55.i.i
                                        #   in Loop: Header=BB23_187 Depth=2
	movabsq	$.L.str116, %rdx
	jmp	.LBB23_291
.LBB23_252:                             # %sw.bb56.i.i
                                        #   in Loop: Header=BB23_187 Depth=2
	movabsq	$.L.str117, %rdx
	jmp	.LBB23_291
.LBB23_253:                             # %sw.bb57.i.i
                                        #   in Loop: Header=BB23_187 Depth=2
	movabsq	$.L.str118, %rdx
	jmp	.LBB23_291
.LBB23_254:                             # %sw.bb58.i.i
                                        #   in Loop: Header=BB23_187 Depth=2
	movabsq	$.L.str119, %rdx
	jmp	.LBB23_291
.LBB23_255:                             # %sw.bb59.i.i
                                        #   in Loop: Header=BB23_187 Depth=2
	movabsq	$.L.str120, %rdx
	jmp	.LBB23_291
.LBB23_256:                             # %sw.bb60.i.i
                                        #   in Loop: Header=BB23_187 Depth=2
	movabsq	$.L.str121, %rdx
	jmp	.LBB23_291
.LBB23_257:                             # %sw.bb61.i.i
                                        #   in Loop: Header=BB23_187 Depth=2
	movabsq	$.L.str122, %rdx
	jmp	.LBB23_291
.LBB23_258:                             # %sw.bb62.i.i
                                        #   in Loop: Header=BB23_187 Depth=2
	movabsq	$.L.str123, %rdx
	jmp	.LBB23_291
.LBB23_259:                             # %sw.bb63.i.i
                                        #   in Loop: Header=BB23_187 Depth=2
	movabsq	$.L.str124, %rdx
	jmp	.LBB23_291
.LBB23_260:                             # %sw.bb64.i.i
                                        #   in Loop: Header=BB23_187 Depth=2
	movabsq	$.L.str125, %rdx
	jmp	.LBB23_291
.LBB23_261:                             # %sw.bb65.i.i
                                        #   in Loop: Header=BB23_187 Depth=2
	movabsq	$.L.str126, %rdx
	jmp	.LBB23_291
.LBB23_262:                             # %sw.bb66.i.i
                                        #   in Loop: Header=BB23_187 Depth=2
	movabsq	$.L.str127, %rdx
	jmp	.LBB23_291
.LBB23_263:                             # %sw.bb67.i.i
                                        #   in Loop: Header=BB23_187 Depth=2
	movabsq	$.L.str128, %rdx
	jmp	.LBB23_291
.LBB23_264:                             # %sw.bb68.i.i
                                        #   in Loop: Header=BB23_187 Depth=2
	movabsq	$.L.str129, %rdx
	jmp	.LBB23_291
.LBB23_265:                             # %sw.bb69.i.i
                                        #   in Loop: Header=BB23_187 Depth=2
	movabsq	$.L.str130, %rdx
	jmp	.LBB23_291
.LBB23_266:                             # %sw.bb70.i.i
                                        #   in Loop: Header=BB23_187 Depth=2
	movabsq	$.L.str131, %rdx
	jmp	.LBB23_291
.LBB23_267:                             # %sw.bb71.i.i
                                        #   in Loop: Header=BB23_187 Depth=2
	movabsq	$.L.str132, %rdx
	jmp	.LBB23_291
.LBB23_268:                             # %sw.bb72.i.i
                                        #   in Loop: Header=BB23_187 Depth=2
	movabsq	$.L.str133, %rdx
	jmp	.LBB23_291
.LBB23_269:                             # %sw.bb73.i.i
                                        #   in Loop: Header=BB23_187 Depth=2
	movabsq	$.L.str134, %rdx
	jmp	.LBB23_291
	.align	16, 0x90
.LBB23_315:                             # %for.end.i296
                                        #   in Loop: Header=BB23_122 Depth=1
	movq	$1, %rdi
	xorq	%rsi, %rsi
	xorq	%rdx, %rdx
	xorq	%rax, %rax
	callq	dw2_asm_output_data
	movq	$1, %rdi
	xorq	%rsi, %rsi
	xorq	%rdx, %rdx
	xorq	%rax, %rax
	callq	dw2_asm_output_data
	movl	abbrev_die_table_in_use(%rip), %eax
	incq	%r13
	cmpq	%rax, %r13
	jb	.LBB23_122
.LBB23_316:                             # %output_abbrev_section.exit
	movq	$1, %rdi
	xorq	%rsi, %rsi
	xorq	%rdx, %rdx
	xorq	%rax, %rax
	callq	dw2_asm_output_data
	movl	pubname_table_in_use(%rip), %eax
	testq	%rax, %rax
	je	.LBB23_327
# BB#317:                               # %if.then117
	movabsq	$.L.str12, %rdi
	movq	$1024, %rsi             # imm = 0x400
	callq	named_section_flags
	movl	pubname_table_in_use(%rip), %r15d
	testq	%r15, %r15
	movq	$14, %r13
	je	.LBB23_321
# BB#318:                               # %for.body.lr.ph.i.i
	movq	pubname_table(%rip), %r12
	addq	$8, %r12
	movq	$10, %r13
	movq	$1, %rbx
	.align	16, 0x90
.LBB23_319:                             # %for.body.i.i298
                                        # =>This Inner Loop Header: Depth=1
	movq	(%r12), %rdi
	callq	strlen
	leaq	5(%r13,%rax), %r13
	movq	%rbx, %rax
	andq	%r14, %rax
	incq	%rbx
	addq	$16, %r12
	cmpq	%r15, %rax
	jne	.LBB23_319
# BB#320:                               # %for.cond.for.end_crit_edge.i.i
	addq	$4, %r13
.LBB23_321:                             # %size_of_pubnames.exit.i
	movabsq	$.L.str29, %rdx
	movq	$4, %rdi
	xorq	%rax, %rax
	xorq	%r12, %r12
	movq	%r13, %rsi
	callq	dw2_asm_output_data
	movabsq	$.L.str22, %rdx
	movq	$2, %rdi
	movq	$2, %rsi
	xorq	%rax, %rax
	callq	dw2_asm_output_data
	movabsq	$debug_info_section_label, %rsi
	movabsq	$.L.str23, %rdx
	movq	$4, %rdi
	xorq	%rax, %rax
	callq	dw2_asm_output_offset
	movq	next_die_offset(%rip), %rsi
	movabsq	$.L.str30, %rdx
	movq	$4, %rdi
	xorq	%rax, %rax
	callq	dw2_asm_output_data
	movl	pubname_table_in_use(%rip), %eax
	testq	%rax, %rax
	je	.LBB23_326
# BB#322:
	movabsq	$.L.str32, %r13
	.align	16, 0x90
.LBB23_323:                             # %for.body.i302
                                        # =>This Inner Loop Header: Depth=1
	movq	%r12, %rbx
	movq	pubname_table(%rip), %r15
	andq	%r14, %rbx
	movq	$4, %rcx
	movq	%rbx, %rax
	shlq	%cl, %rax
	movq	(%r15,%rax), %rax
	movl	64(%rax), %ecx
	testq	%rcx, %rcx
	je	.LBB23_324
# BB#325:                               # %if.end.i306
                                        #   in Loop: Header=BB23_323 Depth=1
	movq	48(%rax), %rsi
	movq	$4, %rdi
	xorq	%rax, %rax
	movabsq	$.L.str31, %rdx
	callq	dw2_asm_output_data
	movq	$4, %rcx
	shlq	%cl, %rbx
	movq	8(%r15,%rbx), %rdi
	movq	$-1, %rsi
	xorq	%rax, %rax
	movq	%r13, %rdx
	callq	dw2_asm_output_nstring
	movl	pubname_table_in_use(%rip), %eax
	incq	%r12
	movq	%r12, %rcx
	andq	%r14, %rcx
	cmpq	%rax, %rcx
	jb	.LBB23_323
.LBB23_326:                             # %output_pubnames.exit
	movq	$4, %rdi
	xorq	%rsi, %rsi
	xorq	%rdx, %rdx
	xorq	%rax, %rax
	callq	dw2_asm_output_data
.LBB23_327:                             # %if.end118
	movl	fde_table_in_use(%rip), %eax
	testq	%rax, %rax
	je	.LBB23_402
# BB#328:                               # %if.then120
	movabsq	$.L.str13, %rdi
	movq	$1024, %rsi             # imm = 0x400
	callq	named_section_flags
	movl	target_flags(%rip), %esi
	movq	$20, %rcx
	shrq	%cl, %rsi
	andq	$32, %rsi
	addq	$32, %rsi
	movq	$3, %rcx
	sarq	%cl, %rsi
	leaq	(%rsi,%rsi), %rdi
	leaq	11(%rsi,%rsi), %rax
	cqto
	idivq	%rdi
	movq	$-4, %rax
	subq	%rdx, %rax
	leaq	11(%rax,%rsi,2), %rax
	movq	$32, %rcx
	shlq	%cl, %rax
	movq	$32, %rcx
	movl	arange_table_in_use(%rip), %edx
	sarq	%cl, %rax
	imulq	%rdi, %rdx
	movabsq	$4294967288, %rcx       # imm = 0xFFFFFFF8
	andq	%rdx, %rcx
	leaq	(%rax,%rsi,4), %rsi
	addq	%rcx, %rsi
	movabsq	$.L.str21, %rdx
	movq	$4, %rdi
	xorq	%rax, %rax
	xorq	%r12, %r12
	callq	dw2_asm_output_data
	movabsq	$.L.str22, %rdx
	movq	$2, %rdi
	movq	$2, %rsi
	xorq	%rax, %rax
	movq	$2, %r15
	callq	dw2_asm_output_data
	movabsq	$debug_info_section_label, %rsi
	movabsq	$.L.str23, %rdx
	movq	$4, %rdi
	xorq	%rax, %rax
	callq	dw2_asm_output_offset
	movl	target_flags(%rip), %esi
	movq	$20, %rcx
	shrq	%cl, %rsi
	andq	$32, %rsi
	addq	$32, %rsi
	movq	$3, %rcx
	sarq	%cl, %rsi
	movabsq	$.L.str24, %rdx
	movq	$1, %rdi
	xorq	%rax, %rax
	callq	dw2_asm_output_data
	movabsq	$.L.str25, %rdx
	movq	$1, %rdi
	xorq	%rsi, %rsi
	xorq	%rax, %rax
	callq	dw2_asm_output_data
	movl	target_flags(%rip), %edi
	movq	$20, %rcx
	movq	%rdi, %rax
	shrq	%cl, %rax
	andq	$32, %rax
	addq	$32, %rax
	movq	$3, %rcx
	sarq	%cl, %rax
	leaq	11(%rax,%rax), %rsi
	leaq	(%rax,%rax), %rcx
	movq	%rsi, %rax
	cqto
	idivq	%rcx
	subq	%rdx, %rsi
	andq	%r14, %rsi
	cmpq	$12, %rsi
	je	.LBB23_331
# BB#329:                               # %if.then.i314
	movabsq	$.L.str26, %rdx
	movq	$2, %rdi
	xorq	%rsi, %rsi
	xorq	%rax, %rax
	callq	dw2_asm_output_data
	movl	target_flags(%rip), %edi
	movq	$20, %rcx
	movq	%rdi, %rsi
	shrq	%cl, %rsi
	andq	$32, %rsi
	addq	$32, %rsi
	movq	$3, %rcx
	sarq	%cl, %rsi
	leaq	(%rsi,%rsi), %rcx
	leaq	11(%rsi,%rsi), %rax
	cqto
	idivq	%rcx
	movq	$-12, %rax
	subq	%rdx, %rax
	leaq	11(%rax,%rsi,2), %rax
	andq	%r14, %rax
	cmpq	$3, %rax
	jb	.LBB23_331
	.align	16, 0x90
.LBB23_330:                             # %for.body.i316
                                        # =>This Inner Loop Header: Depth=1
	movq	$2, %rdi
	xorq	%rsi, %rsi
	xorq	%rdx, %rdx
	xorq	%rax, %rax
	callq	dw2_asm_output_data
	addq	$2, %r15
	movq	%r15, %rsi
	movl	target_flags(%rip), %edi
	andq	%r14, %rsi
	movq	$20, %rcx
	movq	%rdi, %rbx
	shrq	%cl, %rbx
	andq	$32, %rbx
	addq	$32, %rbx
	movq	$3, %rcx
	sarq	%cl, %rbx
	leaq	(%rbx,%rbx), %rcx
	leaq	11(%rbx,%rbx), %rax
	cqto
	idivq	%rcx
	movq	$-12, %rax
	subq	%rdx, %rax
	leaq	11(%rax,%rbx,2), %rax
	andq	%r14, %rax
	cmpq	%rax, %rsi
	jb	.LBB23_330
.LBB23_331:                             # %if.end.i317
	movq	$20, %rcx
	shrq	%cl, %rdi
	andq	$32, %rdi
	addq	$32, %rdi
	movq	$3, %rcx
	sarq	%cl, %rdi
	movabsq	$text_section_label, %r15
	movabsq	$.L.str27, %rdx
	xorq	%rax, %rax
	movq	%r15, %rsi
	callq	dw2_asm_output_addr
	movl	target_flags(%rip), %edi
	movq	$20, %rcx
	shrq	%cl, %rdi
	andq	$32, %rdi
	addq	$32, %rdi
	movq	$3, %rcx
	sarq	%cl, %rdi
	movabsq	$text_end_label, %rsi
	movabsq	$.L.str28, %rcx
	xorq	%rax, %rax
	movq	%r15, %rdx
	callq	dw2_asm_output_delta
	movl	arange_table_in_use(%rip), %eax
	testq	%rax, %rax
	je	.LBB23_401
# BB#332:
	movabsq	$.L.str27, %rbx
	movabsq	$4294967294, %r13       # imm = 0xFFFFFFFE
	.align	16, 0x90
.LBB23_333:                             # %for.body57.i
                                        # =>This Loop Header: Depth=1
                                        #     Child Loop BB23_373 Depth 2
                                        #       Child Loop BB23_375 Depth 3
                                        #     Child Loop BB23_387 Depth 2
                                        #       Child Loop BB23_389 Depth 3
                                        #     Child Loop BB23_337 Depth 2
                                        #       Child Loop BB23_339 Depth 3
                                        #     Child Loop BB23_350 Depth 2
                                        #       Child Loop BB23_352 Depth 3
                                        #     Child Loop BB23_361 Depth 2
                                        #       Child Loop BB23_363 Depth 3
	movq	arange_table(%rip), %rax
	movq	%r12, %rcx
	andq	%r14, %rcx
	movq	(%rax,%rcx,8), %r15
	movl	64(%r15), %eax
	testq	%rax, %rax
	je	.LBB23_334
# BB#335:                               # %if.end61.i
                                        #   in Loop: Header=BB23_333 Depth=1
	movl	(%r15), %eax
	cmpq	$46, %rax
	movq	%r15, %rax
	jne	.LBB23_373
# BB#336:                               # %if.then64.i
                                        #   in Loop: Header=BB23_333 Depth=1
	movl	target_flags(%rip), %edi
	movq	$20, %rcx
	shrq	%cl, %rdi
	andq	$32, %rdi
	addq	$32, %rdi
	movq	$3, %rcx
	sarq	%cl, %rdi
	movq	%r15, %rax
.LBB23_337:                             # %tailrecurse.i.i124.i
                                        #   Parent Loop BB23_333 Depth=1
                                        # =>  This Loop Header: Depth=2
                                        #       Child Loop BB23_339 Depth 3
	xorq	%rsi, %rsi
	testq	%rax, %rax
	je	.LBB23_349
# BB#338:                               # %if.then.i.i128.i
                                        #   in Loop: Header=BB23_337 Depth=2
	movq	16(%rax), %rcx
	xorq	%rax, %rax
	testq	%rcx, %rcx
	movabsq	$0, %rsi
	je	.LBB23_349
	.align	16, 0x90
.LBB23_339:                             # %for.body.i.i132.i
                                        #   Parent Loop BB23_333 Depth=1
                                        #     Parent Loop BB23_337 Depth=2
                                        # =>    This Inner Loop Header: Depth=3
	movl	(%rcx), %edx
	cmpq	$49, %rdx
	je	.LBB23_342
# BB#340:                               # %for.body.i.i132.i
                                        #   in Loop: Header=BB23_339 Depth=3
	cmpq	$17, %rdx
	je	.LBB23_346
# BB#341:                               # %for.body.i.i132.i
                                        #   in Loop: Header=BB23_339 Depth=3
	cmpq	$71, %rdx
	jne	.LBB23_344
.LBB23_342:                             # %land.lhs.true.i.i.i136.i
                                        #   in Loop: Header=BB23_339 Depth=3
	movl	16(%rcx), %eax
	cmpq	$10, %rax
	jne	.LBB23_20
# BB#343:                               # %AT_ref.exit.i.i140.i
                                        #   in Loop: Header=BB23_339 Depth=3
	movq	24(%rcx), %rax
.LBB23_344:                             # %for.inc.i.i145.i
                                        #   in Loop: Header=BB23_339 Depth=3
	movq	8(%rcx), %rcx
	testq	%rcx, %rcx
	jne	.LBB23_339
# BB#345:                               # %for.end.i.i147.i
                                        #   in Loop: Header=BB23_337 Depth=2
	xorq	%rsi, %rsi
	testq	%rax, %rax
	jne	.LBB23_337
	jmp	.LBB23_349
	.align	16, 0x90
.LBB23_373:                             # %tailrecurse.i.i325
                                        #   Parent Loop BB23_333 Depth=1
                                        # =>  This Loop Header: Depth=2
                                        #       Child Loop BB23_375 Depth 3
	testq	%rax, %rax
	je	.LBB23_383
# BB#374:                               # %if.then.i.i329
                                        #   in Loop: Header=BB23_373 Depth=2
	movq	16(%rax), %rcx
	xorq	%rax, %rax
	testq	%rcx, %rcx
	je	.LBB23_383
	.align	16, 0x90
.LBB23_375:                             # %for.body.i.i333
                                        #   Parent Loop BB23_333 Depth=1
                                        #     Parent Loop BB23_373 Depth=2
                                        # =>    This Inner Loop Header: Depth=3
	movl	(%rcx), %edx
	cmpq	$49, %rdx
	je	.LBB23_378
# BB#376:                               # %for.body.i.i333
                                        #   in Loop: Header=BB23_375 Depth=3
	cmpq	$2, %rdx
	je	.LBB23_382
# BB#377:                               # %for.body.i.i333
                                        #   in Loop: Header=BB23_375 Depth=3
	cmpq	$71, %rdx
	jne	.LBB23_380
.LBB23_378:                             # %land.lhs.true.i.i225.i
                                        #   in Loop: Header=BB23_375 Depth=3
	movl	16(%rcx), %eax
	cmpq	$10, %rax
	jne	.LBB23_20
# BB#379:                               # %AT_ref.exit.i.i335
                                        #   in Loop: Header=BB23_375 Depth=3
	movq	24(%rcx), %rax
.LBB23_380:                             # %for.inc.i.i340
                                        #   in Loop: Header=BB23_375 Depth=3
	movq	8(%rcx), %rcx
	testq	%rcx, %rcx
	jne	.LBB23_375
# BB#381:                               # %for.end.i.i342
                                        #   in Loop: Header=BB23_373 Depth=2
	testq	%rax, %rax
	jne	.LBB23_373
	jmp	.LBB23_383
	.align	16, 0x90
.LBB23_382:                             # %lor.lhs.false.i
                                        #   in Loop: Header=BB23_333 Depth=1
	movl	16(%rcx), %eax
	cmpq	$2, %rax
	jne	.LBB23_383
# BB#384:                               # %AT_loc.exit.i
                                        #   in Loop: Header=BB23_333 Depth=1
	movq	24(%rcx), %rax
	movl	8(%rax), %ecx
	cmpq	$3, %rcx
	jne	.LBB23_385
# BB#386:                               # %if.end87.i
                                        #   in Loop: Header=BB23_333 Depth=1
	movl	target_flags(%rip), %edi
	movq	$20, %rcx
	shrq	%cl, %rdi
	andq	$32, %rdi
	movq	24(%rax), %rsi
	addq	$32, %rdi
	movq	$3, %rcx
	sarq	%cl, %rdi
	xorq	%rax, %rax
	movq	%rbx, %rdx
	callq	dw2_asm_output_addr_rtx
	movl	target_flags(%rip), %edi
	movq	$20, %rcx
	shrq	%cl, %rdi
	andq	$32, %rdi
	addq	$32, %rdi
	movq	$3, %rcx
	sarq	%cl, %rdi
.LBB23_387:                             # %tailrecurse.i.i.i
                                        #   Parent Loop BB23_333 Depth=1
                                        # =>  This Loop Header: Depth=2
                                        #       Child Loop BB23_389 Depth 3
	xorq	%rsi, %rsi
	testq	%r15, %r15
	je	.LBB23_399
# BB#388:                               # %if.then.i.i.i
                                        #   in Loop: Header=BB23_387 Depth=2
	movq	16(%r15), %rax
	xorq	%r15, %r15
	testq	%rax, %rax
	movabsq	$0, %rsi
	je	.LBB23_399
	.align	16, 0x90
.LBB23_389:                             # %for.body.i.i.i
                                        #   Parent Loop BB23_333 Depth=1
                                        #     Parent Loop BB23_387 Depth=2
                                        # =>    This Inner Loop Header: Depth=3
	movl	(%rax), %ecx
	cmpq	$49, %rcx
	je	.LBB23_392
# BB#390:                               # %for.body.i.i.i
                                        #   in Loop: Header=BB23_389 Depth=3
	cmpq	$11, %rcx
	je	.LBB23_396
# BB#391:                               # %for.body.i.i.i
                                        #   in Loop: Header=BB23_389 Depth=3
	cmpq	$71, %rcx
	jne	.LBB23_394
.LBB23_392:                             # %land.lhs.true.i.i.i.i351
                                        #   in Loop: Header=BB23_389 Depth=3
	movl	16(%rax), %ecx
	cmpq	$10, %rcx
	jne	.LBB23_20
# BB#393:                               # %AT_ref.exit.i.i.i
                                        #   in Loop: Header=BB23_389 Depth=3
	movq	24(%rax), %r15
.LBB23_394:                             # %for.inc.i.i.i
                                        #   in Loop: Header=BB23_389 Depth=3
	movq	8(%rax), %rax
	testq	%rax, %rax
	jne	.LBB23_389
# BB#395:                               # %for.end.i.i.i
                                        #   in Loop: Header=BB23_387 Depth=2
	xorq	%rsi, %rsi
	testq	%r15, %r15
	jne	.LBB23_387
	jmp	.LBB23_399
	.align	16, 0x90
.LBB23_346:                             # %land.lhs.true.i.i148.i
                                        #   in Loop: Header=BB23_333 Depth=1
	movl	16(%rcx), %eax
	andq	%r13, %rax
	cmpq	$12, %rax
	jne	.LBB23_347
# BB#348:                               # %AT_lbl.exit.i.i
                                        #   in Loop: Header=BB23_333 Depth=1
	movq	24(%rcx), %rsi
.LBB23_349:                             # %get_AT_low_pc.exit.i
                                        #   in Loop: Header=BB23_333 Depth=1
	xorq	%rax, %rax
	movq	%rbx, %rdx
	callq	dw2_asm_output_addr
	movl	target_flags(%rip), %edi
	movq	$20, %rcx
	shrq	%cl, %rdi
	andq	$32, %rdi
	addq	$32, %rdi
	movq	$3, %rcx
	sarq	%cl, %rdi
	movq	%r15, %rax
.LBB23_350:                             # %tailrecurse.i.i153.i
                                        #   Parent Loop BB23_333 Depth=1
                                        # =>  This Loop Header: Depth=2
                                        #       Child Loop BB23_352 Depth 3
	xorq	%rsi, %rsi
	testq	%rax, %rax
	je	.LBB23_361
# BB#351:                               # %if.then.i.i157.i
                                        #   in Loop: Header=BB23_350 Depth=2
	movq	16(%rax), %rcx
	xorq	%rax, %rax
	testq	%rcx, %rcx
	movabsq	$0, %rsi
	je	.LBB23_361
	.align	16, 0x90
.LBB23_352:                             # %for.body.i.i161.i
                                        #   Parent Loop BB23_333 Depth=1
                                        #     Parent Loop BB23_350 Depth=2
                                        # =>    This Inner Loop Header: Depth=3
	movl	(%rcx), %edx
	cmpq	$49, %rdx
	je	.LBB23_355
# BB#353:                               # %for.body.i.i161.i
                                        #   in Loop: Header=BB23_352 Depth=3
	cmpq	$18, %rdx
	je	.LBB23_359
# BB#354:                               # %for.body.i.i161.i
                                        #   in Loop: Header=BB23_352 Depth=3
	cmpq	$71, %rdx
	jne	.LBB23_357
.LBB23_355:                             # %land.lhs.true.i.i.i165.i
                                        #   in Loop: Header=BB23_352 Depth=3
	movl	16(%rcx), %eax
	cmpq	$10, %rax
	jne	.LBB23_20
# BB#356:                               # %AT_ref.exit.i.i169.i
                                        #   in Loop: Header=BB23_352 Depth=3
	movq	24(%rcx), %rax
.LBB23_357:                             # %for.inc.i.i174.i
                                        #   in Loop: Header=BB23_352 Depth=3
	movq	8(%rcx), %rcx
	testq	%rcx, %rcx
	jne	.LBB23_352
# BB#358:                               # %for.end.i.i176.i
                                        #   in Loop: Header=BB23_350 Depth=2
	xorq	%rsi, %rsi
	testq	%rax, %rax
	jne	.LBB23_350
	jmp	.LBB23_361
	.align	16, 0x90
.LBB23_359:                             # %land.lhs.true.i.i180.i
                                        #   in Loop: Header=BB23_333 Depth=1
	movl	16(%rcx), %eax
	andq	%r13, %rax
	cmpq	$12, %rax
	jne	.LBB23_347
# BB#360:                               # %AT_lbl.exit.i184.i
                                        #   in Loop: Header=BB23_333 Depth=1
	movq	24(%rcx), %rsi
.LBB23_361:                             # %tailrecurse.i.i188.i
                                        #   Parent Loop BB23_333 Depth=1
                                        # =>  This Loop Header: Depth=2
                                        #       Child Loop BB23_363 Depth 3
	xorq	%rdx, %rdx
	testq	%r15, %r15
	je	.LBB23_372
# BB#362:                               # %if.then.i.i192.i
                                        #   in Loop: Header=BB23_361 Depth=2
	movq	16(%r15), %rax
	xorq	%r15, %r15
	testq	%rax, %rax
	movabsq	$0, %rdx
	je	.LBB23_372
	.align	16, 0x90
.LBB23_363:                             # %for.body.i.i196.i
                                        #   Parent Loop BB23_333 Depth=1
                                        #     Parent Loop BB23_361 Depth=2
                                        # =>    This Inner Loop Header: Depth=3
	movl	(%rax), %ecx
	cmpq	$49, %rcx
	je	.LBB23_366
# BB#364:                               # %for.body.i.i196.i
                                        #   in Loop: Header=BB23_363 Depth=3
	cmpq	$17, %rcx
	je	.LBB23_370
# BB#365:                               # %for.body.i.i196.i
                                        #   in Loop: Header=BB23_363 Depth=3
	cmpq	$71, %rcx
	jne	.LBB23_368
.LBB23_366:                             # %land.lhs.true.i.i.i200.i
                                        #   in Loop: Header=BB23_363 Depth=3
	movl	16(%rax), %ecx
	cmpq	$10, %rcx
	jne	.LBB23_20
# BB#367:                               # %AT_ref.exit.i.i204.i
                                        #   in Loop: Header=BB23_363 Depth=3
	movq	24(%rax), %r15
.LBB23_368:                             # %for.inc.i.i209.i
                                        #   in Loop: Header=BB23_363 Depth=3
	movq	8(%rax), %rax
	testq	%rax, %rax
	jne	.LBB23_363
# BB#369:                               # %for.end.i.i211.i
                                        #   in Loop: Header=BB23_361 Depth=2
	xorq	%rdx, %rdx
	testq	%r15, %r15
	jne	.LBB23_361
	jmp	.LBB23_372
	.align	16, 0x90
.LBB23_396:                             # %land.lhs.true.i.i.i357
                                        #   in Loop: Header=BB23_333 Depth=1
	movl	16(%rax), %ecx
	cmpq	$6, %rcx
	jne	.LBB23_397
# BB#398:                               # %AT_unsigned.exit.i.i
                                        #   in Loop: Header=BB23_333 Depth=1
	movl	24(%rax), %esi
.LBB23_399:                             # %get_AT_unsigned.exit.i
                                        #   in Loop: Header=BB23_333 Depth=1
	xorq	%rax, %rax
	movabsq	$.L.str28, %rdx
	callq	dw2_asm_output_data
	jmp	.LBB23_400
	.align	16, 0x90
.LBB23_370:                             # %land.lhs.true.i.i215.i
                                        #   in Loop: Header=BB23_333 Depth=1
	movl	16(%rax), %ecx
	andq	%r13, %rcx
	cmpq	$12, %rcx
	jne	.LBB23_347
# BB#371:                               # %AT_lbl.exit.i219.i
                                        #   in Loop: Header=BB23_333 Depth=1
	movq	24(%rax), %rdx
.LBB23_372:                             # %get_AT_low_pc.exit221.i
                                        #   in Loop: Header=BB23_333 Depth=1
	xorq	%rax, %rax
	movabsq	$.L.str28, %rcx
	callq	dw2_asm_output_delta
.LBB23_400:                             # %for.inc99.i
                                        #   in Loop: Header=BB23_333 Depth=1
	movl	arange_table_in_use(%rip), %eax
	incq	%r12
	movq	%r12, %rcx
	andq	%r14, %rcx
	cmpq	%rax, %rcx
	jb	.LBB23_333
.LBB23_401:                             # %output_aranges.exit
	movl	target_flags(%rip), %edi
	movq	$20, %rcx
	shrq	%cl, %rdi
	andq	$32, %rdi
	addq	$32, %rdi
	movq	$3, %rcx
	sarq	%cl, %rdi
	xorq	%rsi, %rsi
	xorq	%rdx, %rdx
	xorq	%rax, %rax
	callq	dw2_asm_output_data
	movl	target_flags(%rip), %edi
	movq	$20, %rcx
	shrq	%cl, %rdi
	andq	$32, %rdi
	addq	$32, %rdi
	movq	$3, %rcx
	sarq	%cl, %rdi
	xorq	%rsi, %rsi
	xorq	%rdx, %rdx
	xorq	%rax, %rax
	callq	dw2_asm_output_data
.LBB23_402:                             # %if.end121
	movl	ranges_table_in_use(%rip), %eax
	testq	%rax, %rax
	movq	%r14, %rbx
	je	.LBB23_411
# BB#403:                               # %if.then123
	movabsq	$.L.str14, %rdi
	movq	$1024, %rsi             # imm = 0x400
	callq	named_section_flags
	movq	asm_out_file(%rip), %rdi
	movabsq	$ranges_section_label, %rsi
	callq	assemble_name
	movq	asm_out_file(%rip), %rcx
	movabsq	$.L.str3, %rdi
	movq	$2, %rsi
	movq	$1, %rdx
	callq	fwrite
	movl	ranges_table_in_use(%rip), %eax
	testq	%rax, %rax
	je	.LBB23_411
# BB#404:
	xorq	%r13, %r13
	movabsq	$.L.str18, %r12
	leaq	64(%rsp), %r14
	.align	16, 0x90
.LBB23_405:                             # %for.body.i
                                        # =>This Inner Loop Header: Depth=1
	movq	ranges_table(%rip), %rax
	movq	%r13, %rcx
	andq	%rbx, %rcx
	movl	(%rax,%rcx,4), %r15d
	testq	%r15, %r15
	jne	.LBB23_406
# BB#409:                               # %if.else36.i
                                        #   in Loop: Header=BB23_405 Depth=1
	movl	target_flags(%rip), %edi
	movq	$20, %rcx
	shrq	%cl, %rdi
	andq	$32, %rdi
	addq	$32, %rdi
	movq	$3, %rcx
	sarq	%cl, %rdi
	xorq	%rsi, %rsi
	xorq	%rdx, %rdx
	xorq	%rax, %rax
	callq	dw2_asm_output_data
	movl	target_flags(%rip), %edi
	movq	$20, %rcx
	shrq	%cl, %rdi
	andq	$32, %rdi
	addq	$32, %rdi
	movq	$3, %rcx
	sarq	%cl, %rdi
	xorq	%rsi, %rsi
	xorq	%rdx, %rdx
	xorq	%rax, %rax
	callq	dw2_asm_output_data
	movabsq	$.L.str18, %r12
	jmp	.LBB23_410
	.align	16, 0x90
.LBB23_406:                             # %do.body.i
                                        #   in Loop: Header=BB23_405 Depth=1
	movq	%r12, 24(%rsp)          # 8-byte Spill
	xorq	%rax, %rax
	movq	%r14, %rdi
	movabsq	$.L.str1, %rbx
	movq	%rbx, %rsi
	movabsq	$.L.str19, %rdx
	movq	%r15, %rcx
	callq	sprintf
	xorq	%rax, %rax
	leaq	32(%rsp), %r12
	movq	%r12, %rdi
	movq	%rbx, %rsi
	movabsq	$.L.str20, %rdx
	movq	%r15, %rcx
	callq	sprintf
	movl	target_flags(%rip), %edi
	movl	separate_line_info_table_in_use(%rip), %eax
	movq	$20, %rcx
	shrq	%cl, %rdi
	andq	$32, %rdi
	addq	$32, %rdi
	movq	$3, %rcx
	sarq	%cl, %rdi
	movq	%r13, %rbx
	imulq	%rdi, %rbx
	addq	%rbx, %rbx
	testq	%rax, %rax
	jne	.LBB23_408
# BB#407:                               # %if.then7.i
                                        #   in Loop: Header=BB23_405 Depth=1
	xorq	%rax, %rax
	movq	%r14, %rsi
	movq	%r12, %r15
	movabsq	$text_section_label, %r12
	movq	%r12, %rdx
	movq	24(%rsp), %rcx          # 8-byte Reload
	movq	%rbx, %r8
	callq	dw2_asm_output_delta
	movl	target_flags(%rip), %edi
	movq	$20, %rcx
	shrq	%cl, %rdi
	andq	$32, %rdi
	addq	$32, %rdi
	movq	$3, %rcx
	sarq	%cl, %rdi
	xorq	%rcx, %rcx
	xorq	%rax, %rax
	movq	%r15, %rsi
	movq	%r12, %rdx
	callq	dw2_asm_output_delta
	xorq	%r12, %r12
	jmp	.LBB23_410
	.align	16, 0x90
.LBB23_408:                             # %if.else.i
                                        #   in Loop: Header=BB23_405 Depth=1
	xorq	%rax, %rax
	movq	%r14, %rsi
	movq	24(%rsp), %rdx          # 8-byte Reload
	movq	%rbx, %rcx
	callq	dw2_asm_output_addr
	movl	target_flags(%rip), %edi
	movq	$20, %rcx
	shrq	%cl, %rdi
	andq	$32, %rdi
	addq	$32, %rdi
	movq	$3, %rcx
	sarq	%cl, %rdi
	xorq	%rdx, %rdx
	xorq	%rax, %rax
	movq	%r12, %rsi
	callq	dw2_asm_output_addr
	xorq	%r12, %r12
.LBB23_410:                             # %for.inc.i
                                        #   in Loop: Header=BB23_405 Depth=1
	movl	ranges_table_in_use(%rip), %eax
	incq	%r13
	movq	%r13, %rcx
	movabsq	$4294967295, %rbx       # imm = 0xFFFFFFFF
	andq	%rbx, %rcx
	cmpq	%rax, %rcx
	jb	.LBB23_405
.LBB23_411:                             # %if.end125
	movl	debug_info_level(%rip), %eax
	cmpq	$3, %rax
	jb	.LBB23_413
# BB#412:                               # %if.then128
	movabsq	$.L.str15, %rdi
	movq	$1024, %rsi             # imm = 0x400
	callq	named_section_flags
	movabsq	$.L.str16, %rdx
	movq	$1, %rdi
	movq	$4, %rsi
	xorq	%rax, %rax
	callq	dw2_asm_output_data
.LBB23_413:                             # %if.end129
	movq	debug_str_hash(%rip), %rdi
	testq	%rdi, %rdi
	je	.LBB23_415
# BB#414:                               # %if.then131
	movabsq	$output_indirect_string, %rsi
	xorq	%rdx, %rdx
	callq	ht_forall
.LBB23_415:                             # %if.end132
	addq	$96, %rsp
	popq	%rbx
	popq	%r12
	popq	%r13
	popq	%r14
	popq	%r15
	retq
.LBB23_416:                             # %if.end.i.i.i
	movabsq	$.L.str4, %rdi
	movabsq	$.L__FUNCTION__.AT_ref, %rdx
	movq	$4588, %rsi             # imm = 0x11EC
	callq	fancy_abort
.LBB23_417:                             # %if.else66
	movabsq	$.L.str4, %rax
	movabsq	$.L__FUNCTION__.dwarf2out_finish, %rcx
	movq	$12184, %rsi            # imm = 0x2F98
	jmp	.LBB23_21
.LBB23_42:                              # %if.then65
	movabsq	$.L.str4, %rax
	movabsq	$.L__FUNCTION__.dwarf2out_finish, %rcx
	movq	$12180, %rsi            # imm = 0x2F94
	jmp	.LBB23_21
.LBB23_95:                              # %if.end.i.i.i72.i
	movabsq	$.L.str4, %rax
	movabsq	$.L__FUNCTION__.AT_string, %rcx
	movq	$4518, %rsi             # imm = 0x11A6
	jmp	.LBB23_21
.LBB23_26:                              # %if.then3.i
	movabsq	$.L.str4, %rax
	movabsq	$.L__FUNCTION__.add_child_die, %rcx
	movq	$5026, %rsi             # imm = 0x13A2
	jmp	.LBB23_21
.LBB23_324:                             # %if.then.i303
	movabsq	$.L.str4, %rax
	movabsq	$.L__FUNCTION__.output_pubnames, %rcx
	movq	$6543, %rsi             # imm = 0x198F
	jmp	.LBB23_21
.LBB23_334:                             # %if.then60.i
	movabsq	$.L.str4, %rax
	movabsq	$.L__FUNCTION__.output_aranges, %rcx
	movq	$6613, %rsi             # imm = 0x19D5
	jmp	.LBB23_21
.LBB23_383:                             # %if.then81.i
	movabsq	$.L.str4, %rax
	movabsq	$.L__FUNCTION__.output_aranges, %rcx
	movq	$6631, %rsi             # imm = 0x19E7
	jmp	.LBB23_21
.LBB23_385:                             # %if.then86.i
	movabsq	$.L.str4, %rax
	movabsq	$.L__FUNCTION__.output_aranges, %rcx
	movq	$6635, %rsi             # imm = 0x19EB
	jmp	.LBB23_21
.LBB23_20:                              # %if.end.i.i
	movabsq	$.L.str4, %rax
	movabsq	$.L__FUNCTION__.AT_ref, %rcx
	movq	$4588, %rsi             # imm = 0x11EC
	jmp	.LBB23_21
.LBB23_397:                             # %if.end.i.i.i358
	movabsq	$.L.str4, %rax
	movabsq	$.L__FUNCTION__.AT_unsigned, %rcx
	movq	$4441, %rsi             # imm = 0x1159
	jmp	.LBB23_21
.LBB23_347:                             # %if.end.i.i149.i
	movabsq	$.L.str4, %rax
	movabsq	$.L__FUNCTION__.AT_lbl, %rcx
	movq	$4785, %rsi             # imm = 0x12B1
.LBB23_21:                              # %if.end.i.i
	movq	%rax, %rdi
	movq	%rcx, %rdx
	callq	fancy_abort
.Ltmp272:
	.size	dwarf2out_finish, .Ltmp272-dwarf2out_finish
	.cfi_endproc
	.section	.rodata,"a",@progbits
	.align	8
.LJTI23_0:
	.quad	.LBB23_177
	.quad	.LBB23_178
	.quad	.LBB23_179
	.quad	.LBB23_180
	.quad	.LBB23_181
.LJTI23_1:
	.quad	.LBB23_183
	.quad	.LBB23_130
	.quad	.LBB23_131
	.quad	.LBB23_132
	.quad	.LBB23_133
	.quad	.LBB23_134
	.quad	.LBB23_182
	.quad	.LBB23_182
	.quad	.LBB23_135
	.quad	.LBB23_182
	.quad	.LBB23_136
	.quad	.LBB23_137
	.quad	.LBB23_182
	.quad	.LBB23_138
	.quad	.LBB23_182
	.quad	.LBB23_139
	.quad	.LBB23_140
	.quad	.LBB23_141
	.quad	.LBB23_142
	.quad	.LBB23_143
	.quad	.LBB23_182
	.quad	.LBB23_144
	.quad	.LBB23_145
	.quad	.LBB23_146
	.quad	.LBB23_147
	.quad	.LBB23_148
	.quad	.LBB23_149
	.quad	.LBB23_150
	.quad	.LBB23_151
	.quad	.LBB23_152
	.quad	.LBB23_153
	.quad	.LBB23_154
	.quad	.LBB23_155
	.quad	.LBB23_156
	.quad	.LBB23_157
	.quad	.LBB23_158
	.quad	.LBB23_159
	.quad	.LBB23_160
	.quad	.LBB23_161
	.quad	.LBB23_162
	.quad	.LBB23_163
	.quad	.LBB23_164
	.quad	.LBB23_165
	.quad	.LBB23_166
	.quad	.LBB23_167
	.quad	.LBB23_168
	.quad	.LBB23_169
	.quad	.LBB23_170
	.quad	.LBB23_171
	.quad	.LBB23_172
	.quad	.LBB23_173
	.quad	.LBB23_174
	.quad	.LBB23_175
	.quad	.LBB23_176
.LJTI23_2:
	.quad	.LBB23_281
	.quad	.LBB23_282
	.quad	.LBB23_283
	.quad	.LBB23_284
	.quad	.LBB23_285
	.quad	.LBB23_286
	.quad	.LBB23_287
.LJTI23_3:
	.quad	.LBB23_270
	.quad	.LBB23_271
	.quad	.LBB23_272
	.quad	.LBB23_273
	.quad	.LBB23_274
	.quad	.LBB23_275
	.quad	.LBB23_276
	.quad	.LBB23_277
	.quad	.LBB23_278
	.quad	.LBB23_279
	.quad	.LBB23_280
.LJTI23_4:
	.quad	.LBB23_291
	.quad	.LBB23_197
	.quad	.LBB23_198
	.quad	.LBB23_290
	.quad	.LBB23_290
	.quad	.LBB23_290
	.quad	.LBB23_290
	.quad	.LBB23_290
	.quad	.LBB23_199
	.quad	.LBB23_200
	.quad	.LBB23_201
	.quad	.LBB23_202
	.quad	.LBB23_203
	.quad	.LBB23_290
	.quad	.LBB23_204
	.quad	.LBB23_205
	.quad	.LBB23_206
	.quad	.LBB23_207
	.quad	.LBB23_208
	.quad	.LBB23_209
	.quad	.LBB23_210
	.quad	.LBB23_211
	.quad	.LBB23_212
	.quad	.LBB23_213
	.quad	.LBB23_214
	.quad	.LBB23_215
	.quad	.LBB23_216
	.quad	.LBB23_217
	.quad	.LBB23_218
	.quad	.LBB23_219
	.quad	.LBB23_290
	.quad	.LBB23_220
	.quad	.LBB23_221
	.quad	.LBB23_222
	.quad	.LBB23_290
	.quad	.LBB23_290
	.quad	.LBB23_223
	.quad	.LBB23_290
	.quad	.LBB23_224
	.quad	.LBB23_290
	.quad	.LBB23_290
	.quad	.LBB23_225
	.quad	.LBB23_290
	.quad	.LBB23_226
	.quad	.LBB23_290
	.quad	.LBB23_227
	.quad	.LBB23_228
	.quad	.LBB23_290
	.quad	.LBB23_229
	.quad	.LBB23_230
	.quad	.LBB23_231
	.quad	.LBB23_232
	.quad	.LBB23_233
	.quad	.LBB23_234
	.quad	.LBB23_235
	.quad	.LBB23_236
	.quad	.LBB23_237
	.quad	.LBB23_238
	.quad	.LBB23_239
	.quad	.LBB23_240
	.quad	.LBB23_241
	.quad	.LBB23_242
	.quad	.LBB23_243
	.quad	.LBB23_244
	.quad	.LBB23_245
	.quad	.LBB23_246
	.quad	.LBB23_247
	.quad	.LBB23_248
	.quad	.LBB23_249
	.quad	.LBB23_250
	.quad	.LBB23_251
	.quad	.LBB23_252
	.quad	.LBB23_253
	.quad	.LBB23_254
	.quad	.LBB23_255
	.quad	.LBB23_256
	.quad	.LBB23_257
	.quad	.LBB23_258
	.quad	.LBB23_259
	.quad	.LBB23_260
	.quad	.LBB23_261
	.quad	.LBB23_262
	.quad	.LBB23_263
	.quad	.LBB23_264
	.quad	.LBB23_265
	.quad	.LBB23_266
	.quad	.LBB23_267
	.quad	.LBB23_268
	.quad	.LBB23_269
.LJTI23_5:
	.quad	.LBB23_314
	.quad	.LBB23_313
	.quad	.LBB23_293
	.quad	.LBB23_294
	.quad	.LBB23_295
	.quad	.LBB23_296
	.quad	.LBB23_297
	.quad	.LBB23_298
	.quad	.LBB23_299
	.quad	.LBB23_300
	.quad	.LBB23_301
	.quad	.LBB23_302
	.quad	.LBB23_303
	.quad	.LBB23_304
	.quad	.LBB23_305
	.quad	.LBB23_306
	.quad	.LBB23_307
	.quad	.LBB23_308
	.quad	.LBB23_309
	.quad	.LBB23_310
	.quad	.LBB23_311
	.quad	.LBB23_312

	.text
	.align	16, 0x90
	.type	dwarf2out_define,@function
dwarf2out_define:                       # @dwarf2out_define
	.cfi_startproc
# BB#0:                                 # %entry
	pushq	%r14
.Ltmp276:
	.cfi_def_cfa_offset 16
	pushq	%rbx
.Ltmp277:
	.cfi_def_cfa_offset 24
	pushq	%rax
.Ltmp278:
	.cfi_def_cfa_offset 32
.Ltmp279:
	.cfi_offset %rbx, -24
.Ltmp280:
	.cfi_offset %r14, -16
	movl	debug_info_level(%rip), %eax
	movq	%rsi, %r14
	movq	%rdi, %rbx
	cmpq	$3, %rax
	jb	.LBB24_1
# BB#2:                                 # %if.then
	movabsq	$.L.str15, %rdi
	movq	$1024, %rsi             # imm = 0x400
	callq	named_section_flags
	movabsq	$.L.str404, %rdx
	movq	$1, %rdi
	movq	$1, %rsi
	xorq	%rax, %rax
	callq	dw2_asm_output_data
	movabsq	$4294967295, %rdi       # imm = 0xFFFFFFFF
	andq	%rbx, %rdi
	movabsq	$.L.str402, %rsi
	xorq	%rax, %rax
	movq	%rbx, %rdx
	callq	dw2_asm_output_data_uleb128
	movabsq	$.L.str403, %rdx
	movq	$-1, %rsi
	xorq	%rax, %rax
	movq	%r14, %rdi
	addq	$8, %rsp
	popq	%rbx
	popq	%r14
	jmp	dw2_asm_output_nstring  # TAILCALL
.LBB24_1:                               # %if.end
	addq	$8, %rsp
	popq	%rbx
	popq	%r14
	retq
.Ltmp281:
	.size	dwarf2out_define, .Ltmp281-dwarf2out_define
	.cfi_endproc

	.align	16, 0x90
	.type	dwarf2out_undef,@function
dwarf2out_undef:                        # @dwarf2out_undef
	.cfi_startproc
# BB#0:                                 # %entry
	pushq	%r14
.Ltmp285:
	.cfi_def_cfa_offset 16
	pushq	%rbx
.Ltmp286:
	.cfi_def_cfa_offset 24
	pushq	%rax
.Ltmp287:
	.cfi_def_cfa_offset 32
.Ltmp288:
	.cfi_offset %rbx, -24
.Ltmp289:
	.cfi_offset %r14, -16
	movl	debug_info_level(%rip), %eax
	movq	%rsi, %r14
	movq	%rdi, %rbx
	cmpq	$3, %rax
	jb	.LBB25_1
# BB#2:                                 # %if.then
	movabsq	$.L.str15, %rdi
	movq	$1024, %rsi             # imm = 0x400
	callq	named_section_flags
	movabsq	$.L.str401, %rdx
	movq	$1, %rdi
	movq	$2, %rsi
	xorq	%rax, %rax
	callq	dw2_asm_output_data
	movabsq	$4294967295, %rdi       # imm = 0xFFFFFFFF
	andq	%rbx, %rdi
	movabsq	$.L.str402, %rsi
	xorq	%rax, %rax
	movq	%rbx, %rdx
	callq	dw2_asm_output_data_uleb128
	movabsq	$.L.str403, %rdx
	movq	$-1, %rsi
	xorq	%rax, %rax
	movq	%r14, %rdi
	addq	$8, %rsp
	popq	%rbx
	popq	%r14
	jmp	dw2_asm_output_nstring  # TAILCALL
.LBB25_1:                               # %if.end
	addq	$8, %rsp
	popq	%rbx
	popq	%r14
	retq
.Ltmp290:
	.size	dwarf2out_undef, .Ltmp290-dwarf2out_undef
	.cfi_endproc

	.align	16, 0x90
	.type	dwarf2out_start_source_file,@function
dwarf2out_start_source_file:            # @dwarf2out_start_source_file
	.cfi_startproc
# BB#0:                                 # %entry
	pushq	%r15
.Ltmp297:
	.cfi_def_cfa_offset 16
	pushq	%r14
.Ltmp298:
	.cfi_def_cfa_offset 24
	pushq	%r13
.Ltmp299:
	.cfi_def_cfa_offset 32
	pushq	%r12
.Ltmp300:
	.cfi_def_cfa_offset 40
	pushq	%rbx
.Ltmp301:
	.cfi_def_cfa_offset 48
.Ltmp302:
	.cfi_offset %rbx, -48
.Ltmp303:
	.cfi_offset %r12, -40
.Ltmp304:
	.cfi_offset %r13, -32
.Ltmp305:
	.cfi_offset %r14, -24
.Ltmp306:
	.cfi_offset %r15, -16
	movl	flag_eliminate_dwarf2_dups(%rip), %eax
	movq	%rsi, %r15
	movq	%rdi, %r14
	testq	%rax, %rax
	je	.LBB26_11
# BB#1:                                 # %if.then
	movq	comp_unit_die(%rip), %rbx
	movq	$1, %rdi
	movq	$72, %rsi
	callq	xcalloc
	movq	%rax, %r12
	testq	%rbx, %rbx
	movq	$16644, %rax            # imm = 0x4104
	movl	%eax, (%r12)
	je	.LBB26_5
# BB#2:                                 # %if.then.i
	testq	%r12, %r12
	je	.LBB26_6
# BB#3:                                 # %if.then.i.i
	cmpq	%rbx, %r12
	je	.LBB26_13
# BB#4:                                 # %if.end.i.i
	movq	%rbx, 24(%r12)
	movq	32(%rbx), %rax
	movq	%rax, 40(%r12)
	movq	%r12, 32(%rbx)
	jmp	.LBB26_6
.LBB26_5:                               # %if.else.i
	movq	$24, %rdi
	callq	xmalloc
	movq	limbo_die_list(%rip), %rcx
	movq	%r12, (%rax)
	movq	$0, 8(%rax)
	movq	%rcx, 16(%rax)
	movq	%rax, limbo_die_list(%rip)
.LBB26_6:                               # %new_die.exit
	movq	$40, %rdi
	callq	xmalloc
	movq	debug_str_hash(%rip), %r13
	movq	%rax, %rbx
	testq	%r13, %r13
	jne	.LBB26_8
# BB#7:                                 # %if.then.i9
	movq	$10, %rdi
	callq	ht_create
	movq	%rax, debug_str_hash(%rip)
	movq	$indirect_string_alloc, 96(%rax)
	movq	debug_str_hash(%rip), %r13
.LBB26_8:                               # %if.end.i
	movq	%r15, %rdi
	callq	strlen
	movq	$1, %rcx
	movq	%r13, %rdi
	movq	%r15, %rsi
	movq	%rax, %rdx
	callq	ht_lookup
	movl	16(%rax), %ecx
	incq	%rcx
	movl	%ecx, 16(%rax)
	movq	$0, 8(%rbx)
	movq	$3, %rcx
	movl	%ecx, (%rbx)
	movq	$14, %rcx
	movl	%ecx, 16(%rbx)
	movq	%rax, 24(%rbx)
	testq	%r12, %r12
	je	.LBB26_11
# BB#9:                                 # %if.end.i
	testq	%rbx, %rbx
	je	.LBB26_11
# BB#10:                                # %if.then.i.i11
	movq	16(%r12), %rax
	movq	%rax, 8(%rbx)
	movq	%rbx, 16(%r12)
.LBB26_11:                              # %if.end
	movl	debug_info_level(%rip), %eax
	cmpq	$3, %rax
	jb	.LBB26_12
