	.file	"insn-output.c.bc"
	.text
	.align	16, 0x90
	.type	output_18,@function
output_18:                              # @output_18
	.cfi_startproc
# BB#0:                                 # %entry
	pushq	%rax
.Ltmp1:
	.cfi_def_cfa_offset 16
	movq	8(%rdi), %rax
	movl	8(%rax), %edx
	movq	%rsi, %rax
	movq	$1, %rsi
	movq	%rax, %rdi
	callq	find_regno_note
	testq	%rax, %rax
	je	.LBB0_1
# BB#2:                                 # %entry
	movabsq	$.L.str1842, %rax
	popq	%rdx
	retq
.LBB0_1:
	movabsq	$.L.str1843, %rax
	popq	%rdx
	retq
.Ltmp2:
	.size	output_18, .Ltmp2-output_18
	.cfi_endproc

	.align	16, 0x90
	.type	output_19,@function
output_19:                              # @output_19
	.cfi_startproc
# BB#0:                                 # %entry
	xorq	%rdx, %rdx
	xorq	%rcx, %rcx
	movq	%rdi, %rax
	movq	%rsi, %rdi
	movq	%rax, %rsi
	jmp	output_fp_compare  # TAILCALL
.Ltmp3:
	.size	output_19, .Ltmp3-output_19
	.cfi_endproc

	.align	16, 0x90
	.type	output_20,@function
output_20:                              # @output_20
	.cfi_startproc
# BB#0:                                 # %entry
	movq	$2, %rdx
	xorq	%rcx, %rcx
	movq	%rdi, %rax
	movq	%rsi, %rdi
	movq	%rax, %rsi
	jmp	output_fp_compare  # TAILCALL
.Ltmp4:
	.size	output_20, .Ltmp4-output_20
	.cfi_endproc

	.align	16, 0x90
	.type	output_21,@function
output_21:                              # @output_21
	.cfi_startproc
# BB#0:                                 # %entry
	xorq	%rdx, %rdx
	xorq	%rcx, %rcx
	movq	%rdi, %rax
	movq	%rsi, %rdi
	movq	%rax, %rsi
	jmp	output_fp_compare  # TAILCALL
.Ltmp5:
	.size	output_21, .Ltmp5-output_21
	.cfi_endproc

	.align	16, 0x90
	.type	output_22,@function
output_22:                              # @output_22
	.cfi_startproc
# BB#0:                                 # %entry
	movq	$2, %rdx
	xorq	%rcx, %rcx
	movq	%rdi, %rax
	movq	%rsi, %rdi
	movq	%rax, %rsi
	jmp	output_fp_compare  # TAILCALL
.Ltmp6:
	.size	output_22, .Ltmp6-output_22
	.cfi_endproc

	.align	16, 0x90
	.type	output_23,@function
output_23:                              # @output_23
	.cfi_startproc
# BB#0:                                 # %entry
	xorq	%rdx, %rdx
	xorq	%rcx, %rcx
	movq	%rdi, %rax
	movq	%rsi, %rdi
	movq	%rax, %rsi
	jmp	output_fp_compare  # TAILCALL
.Ltmp7:
	.size	output_23, .Ltmp7-output_23
	.cfi_endproc

	.align	16, 0x90
	.type	output_24,@function
output_24:                              # @output_24
	.cfi_startproc
# BB#0:                                 # %entry
	xorq	%rdx, %rdx
	xorq	%rcx, %rcx
	movq	%rdi, %rax
	movq	%rsi, %rdi
	movq	%rax, %rsi
	jmp	output_fp_compare  # TAILCALL
.Ltmp8:
	.size	output_24, .Ltmp8-output_24
	.cfi_endproc

	.align	16, 0x90
	.type	output_25,@function
output_25:                              # @output_25
	.cfi_startproc
# BB#0:                                 # %entry
	movq	$2, %rdx
	xorq	%rcx, %rcx
	movq	%rdi, %rax
	movq	%rsi, %rdi
	movq	%rax, %rsi
	jmp	output_fp_compare  # TAILCALL
.Ltmp9:
	.size	output_25, .Ltmp9-output_25
	.cfi_endproc

	.align	16, 0x90
	.type	output_26,@function
output_26:                              # @output_26
	.cfi_startproc
# BB#0:                                 # %entry
	movq	$2, %rdx
	xorq	%rcx, %rcx
	movq	%rdi, %rax
	movq	%rsi, %rdi
	movq	%rax, %rsi
	jmp	output_fp_compare  # TAILCALL
.Ltmp10:
	.size	output_26, .Ltmp10-output_26
	.cfi_endproc

	.align	16, 0x90
	.type	output_27,@function
output_27:                              # @output_27
	.cfi_startproc
# BB#0:                                 # %entry
	xorq	%rdx, %rdx
	movq	$1, %rcx
	movq	%rdi, %rax
	movq	%rsi, %rdi
	movq	%rax, %rsi
	jmp	output_fp_compare  # TAILCALL
.Ltmp11:
	.size	output_27, .Ltmp11-output_27
	.cfi_endproc

	.align	16, 0x90
	.type	output_28,@function
output_28:                              # @output_28
	.cfi_startproc
# BB#0:                                 # %entry
	movq	$2, %rdx
	movq	$1, %rcx
	movq	%rdi, %rax
	movq	%rsi, %rdi
	movq	%rax, %rsi
	jmp	output_fp_compare  # TAILCALL
.Ltmp12:
	.size	output_28, .Ltmp12-output_28
	.cfi_endproc

	.align	16, 0x90
	.type	output_32,@function
output_32:                              # @output_32
	.cfi_startproc
# BB#0:                                 # %entry
	movq	$1, %rdx
	xorq	%rcx, %rcx
	movq	%rdi, %rax
	movq	%rsi, %rdi
	movq	%rax, %rsi
	jmp	output_fp_compare  # TAILCALL
.Ltmp13:
	.size	output_32, .Ltmp13-output_32
	.cfi_endproc

	.align	16, 0x90
	.type	output_33,@function
output_33:                              # @output_33
	.cfi_startproc
# BB#0:                                 # %entry
	movq	$1, %rdx
	xorq	%rcx, %rcx
	movq	%rdi, %rax
	movq	%rsi, %rdi
	movq	%rax, %rsi
	jmp	output_fp_compare  # TAILCALL
.Ltmp14:
	.size	output_33, .Ltmp14-output_33
	.cfi_endproc

	.align	16, 0x90
	.type	output_34,@function
output_34:                              # @output_34
	.cfi_startproc
# BB#0:                                 # %entry
	movq	$1, %rdx
	xorq	%rcx, %rcx
	movq	%rdi, %rax
	movq	%rsi, %rdi
	movq	%rax, %rsi
	jmp	output_fp_compare  # TAILCALL
.Ltmp15:
	.size	output_34, .Ltmp15-output_34
	.cfi_endproc

	.align	16, 0x90
	.type	output_35,@function
output_35:                              # @output_35
	.cfi_startproc
# BB#0:                                 # %entry
	movq	$1, %rdx
	movq	$1, %rcx
	movq	%rdi, %rax
	movq	%rsi, %rdi
	movq	%rax, %rsi
	jmp	output_fp_compare  # TAILCALL
.Ltmp16:
	.size	output_35, .Ltmp16-output_35
	.cfi_endproc

	.align	16, 0x90
	.type	output_36,@function
output_36:                              # @output_36
	.cfi_startproc
# BB#0:                                 # %entry
	movq	$1, %rdx
	movq	$1, %rcx
	movq	%rdi, %rax
	movq	%rsi, %rdi
	movq	%rax, %rsi
	jmp	output_fp_compare  # TAILCALL
.Ltmp17:
	.size	output_36, .Ltmp17-output_36
	.cfi_endproc

	.align	16, 0x90
	.type	output_37,@function
output_37:                              # @output_37
	.cfi_startproc
# BB#0:                                 # %entry
	movq	$1, %rdx
	movq	$1, %rcx
	movq	%rdi, %rax
	movq	%rsi, %rdi
	movq	%rax, %rsi
	jmp	output_fp_compare  # TAILCALL
.Ltmp18:
	.size	output_37, .Ltmp18-output_37
	.cfi_endproc

	.align	16, 0x90
	.type	output_44,@function
output_44:                              # @output_44
	.cfi_startproc
# BB#0:                                 # %entry
	movq	const_int_rtx+504(%rip), %rcx
	movabsq	$.L.str1841, %rax
	movq	%rcx, 8(%rdi)
	retq
.Ltmp19:
	.size	output_44, .Ltmp19-output_44
	.cfi_endproc

	.align	16, 0x90
	.type	output_45,@function
output_45:                              # @output_45
	.cfi_startproc
# BB#0:                                 # %entry
	pushq	%r15
.Ltmp24:
	.cfi_def_cfa_offset 16
	pushq	%r14
.Ltmp25:
	.cfi_def_cfa_offset 24
	pushq	%rbx
.Ltmp26:
	.cfi_def_cfa_offset 32
.Ltmp27:
	.cfi_offset %rbx, -32
.Ltmp28:
	.cfi_offset %r14, -24
.Ltmp29:
	.cfi_offset %r15, -16
	movq	%rsi, %rbx
	movq	%rdi, %r14
	movq	%rbx, %rdi
	callq	get_attr_type
	movabsq	$4294967295, %r15       # imm = 0xFFFFFFFF
	movq	%rax, %rcx
	andq	%r15, %rcx
	cmpq	$9, %rcx
	je	.LBB18_1
# BB#2:                                 # %entry
	andq	%r15, %rax
	cmpq	$34, %rax
	jne	.LBB18_3
# BB#7:                                 # %sw.bb2
	movq	%rbx, %rdi
	callq	get_attr_mode
	andq	%r15, %rax
	cmpq	$5, %rax
	je	.LBB18_8
# BB#9:                                 # %sw.bb2
	movabsq	$.L.str1808, %rbx
	jmp	.LBB18_14
.LBB18_1:
	movabsq	$.L.str1840, %rbx
	jmp	.LBB18_14
.LBB18_3:                               # %entry
	cmpq	$33, %rax
	jne	.LBB18_10
# BB#4:                                 # %sw.bb
	movq	%rbx, %rdi
	callq	get_attr_mode
	andq	%r15, %rax
	cmpq	$6, %rax
	je	.LBB18_5
# BB#6:                                 # %sw.bb
	movabsq	$.L.str1808, %rbx
	jmp	.LBB18_14
.LBB18_8:
	movabsq	$.L.str852, %rbx
	jmp	.LBB18_14
.LBB18_10:                              # %sw.default
	movl	flag_pic(%rip), %eax
	testq	%rax, %rax
	movabsq	$.L.str1664, %rbx
	je	.LBB18_14
# BB#11:                                # %land.lhs.true
	movq	8(%r14), %rdi
	movzbl	(%rdi), %eax
	leaq	-67(%rax), %rcx
	andq	%r15, %rcx
	cmpq	$2, %rcx
	jb	.LBB18_15
# BB#12:                                # %land.lhs.true
	cmpq	$58, %rax
	jne	.LBB18_14
# BB#13:                                # %land.lhs.true18
	callq	symbolic_reference_mentioned_p
	testq	%r15, %rax
	je	.LBB18_14
.LBB18_15:                              # %if.then22
	movabsq	$.L.str1644, %rax
	movabsq	$.L__FUNCTION__.output_45, %rcx
	movq	$259, %rsi              # imm = 0x103
	movq	%rax, %rdi
	movq	%rcx, %rdx
	callq	fancy_abort
.LBB18_5:
	movabsq	$.L.str1813, %rbx
.LBB18_14:                              # %return
	movq	%rbx, %rax
	popq	%rbx
	popq	%r14
	popq	%r15
	retq
.Ltmp30:
	.size	output_45, .Ltmp30-output_45
	.cfi_endproc

	.align	16, 0x90
	.type	output_51,@function
output_51:                              # @output_51
	.cfi_startproc
# BB#0:                                 # %entry
	pushq	%r14
.Ltmp34:
	.cfi_def_cfa_offset 16
	pushq	%rbx
.Ltmp35:
	.cfi_def_cfa_offset 24
	pushq	%rax
.Ltmp36:
	.cfi_def_cfa_offset 32
.Ltmp37:
	.cfi_offset %rbx, -24
.Ltmp38:
	.cfi_offset %r14, -16
	movq	%rsi, %rbx
	movq	%rbx, %rdi
	callq	get_attr_type
	movabsq	$4294967295, %r14       # imm = 0xFFFFFFFF
	andq	%r14, %rax
	cmpq	$8, %rax
	jne	.LBB19_2
# BB#1:
	movabsq	$.L.str1832, %rax
	jmp	.LBB19_5
.LBB19_2:                               # %sw.default
	movq	%rbx, %rdi
	callq	get_attr_mode
	andq	%r14, %rax
	cmpq	$4, %rax
	je	.LBB19_3
# BB#4:                                 # %sw.default
	movabsq	$.L.str75, %rax
	jmp	.LBB19_5
.LBB19_3:
	movabsq	$.L.str1814, %rax
.LBB19_5:                               # %return
	addq	$8, %rsp
	popq	%rbx
	popq	%r14
	retq
.Ltmp39:
	.size	output_51, .Ltmp39-output_51
	.cfi_endproc

	.align	16, 0x90
	.type	output_60,@function
output_60:                              # @output_60
	.cfi_startproc
# BB#0:                                 # %entry
	pushq	%r15
.Ltmp44:
	.cfi_def_cfa_offset 16
	pushq	%r14
.Ltmp45:
	.cfi_def_cfa_offset 24
	pushq	%rbx
.Ltmp46:
	.cfi_def_cfa_offset 32
.Ltmp47:
	.cfi_offset %rbx, -32
.Ltmp48:
	.cfi_offset %r14, -24
.Ltmp49:
	.cfi_offset %r15, -16
	movq	%rsi, %rbx
	movq	%rdi, %r14
	movq	%rbx, %rdi
	callq	get_attr_type
	movabsq	$4294967295, %r15       # imm = 0xFFFFFFFF
	andq	%r15, %rax
	cmpq	$8, %rax
	jne	.LBB20_12
# BB#1:                                 # %sw.bb
	movq	8(%r14), %rax
	movzbl	target_flags+3(%rip), %edx
	movzbl	(%rax), %ecx
	testq	$2, %rdx
	je	.LBB20_6
# BB#2:                                 # %cond.true
	cmpq	$61, %rcx
	jne	.LBB20_9
# BB#3:                                 # %land.lhs.true
	movl	8(%rax), %ecx
	cmpq	$44, %rcx
	ja	.LBB20_11
# BB#4:                                 # %land.lhs.true
	movq	$1, %rax
	shlq	%cl, %rax
	movabsq	$35046933135615, %rcx   # imm = 0x1FE0000000FF
	testq	%rcx, %rax
	je	.LBB20_11
# BB#5:
	movabsq	$.L.str1824, %rax
	jmp	.LBB20_15
.LBB20_12:                              # %sw.default
	movq	%rbx, %rdi
	callq	get_attr_mode
	andq	%r15, %rax
	cmpq	$4, %rax
	je	.LBB20_13
# BB#14:                                # %sw.default
	movabsq	$.L.str84, %rax
	jmp	.LBB20_15
.LBB20_13:
	movabsq	$.L.str1814, %rax
	jmp	.LBB20_15
.LBB20_6:                               # %cond.false
	cmpq	$61, %rcx
	jne	.LBB20_9
# BB#7:                                 # %land.lhs.true19
	movl	8(%rax), %eax
	cmpq	$4, %rax
	jae	.LBB20_11
# BB#8:
	movabsq	$.L.str1824, %rax
	jmp	.LBB20_15
.LBB20_9:                               # %land.lhs.true25
	cmpq	$66, %rcx
	jne	.LBB20_11
# BB#10:
	movabsq	$.L.str1824, %rax
.LBB20_15:                              # %return
	popq	%rbx
	popq	%r14
	popq	%r15
	retq
.LBB20_11:                              # %if.then
	movabsq	$.L.str1644, %rdi
	movabsq	$.L__FUNCTION__.output_60, %rdx
	movq	$332, %rsi              # imm = 0x14C
	callq	fancy_abort
.Ltmp50:
	.size	output_60, .Ltmp50-output_60
	.cfi_endproc

	.align	16, 0x90
	.type	output_66,@function
output_66:                              # @output_66
	.cfi_startproc
# BB#0:                                 # %entry
	pushq	%rax
.Ltmp52:
	.cfi_def_cfa_offset 16
	movq	%rsi, %rdi
	callq	get_attr_type
	movabsq	$4294967295, %rcx       # imm = 0xFFFFFFFF
	andq	%rax, %rcx
	cmpq	$8, %rcx
	je	.LBB21_1
# BB#2:                                 # %entry
	movabsq	$.L.str1818, %rax
	popq	%rdx
	retq
.LBB21_1:
	movabsq	$.L.str90, %rax
	popq	%rdx
	retq
.Ltmp53:
	.size	output_66, .Ltmp53-output_66
	.cfi_endproc

	.align	16, 0x90
	.type	output_67,@function
output_67:                              # @output_67
	.cfi_startproc
# BB#0:                                 # %entry
	pushq	%rax
.Ltmp55:
	.cfi_def_cfa_offset 16
	movq	%rsi, %rdi
	callq	get_attr_type
	movabsq	$4294967295, %rcx       # imm = 0xFFFFFFFF
	andq	%rax, %rcx
	cmpq	$8, %rcx
	je	.LBB22_1
# BB#2:                                 # %entry
	movabsq	$.L.str1818, %rax
	popq	%rdx
	retq
.LBB22_1:
	movabsq	$.L.str90, %rax
	popq	%rdx
	retq
.Ltmp56:
	.size	output_67, .Ltmp56-output_67
	.cfi_endproc

	.align	16, 0x90
	.type	output_71,@function
output_71:                              # @output_71
	.cfi_startproc
# BB#0:                                 # %entry
	pushq	%rax
.Ltmp58:
	.cfi_def_cfa_offset 16
	movq	%rsi, %rdi
	callq	get_attr_type
	movabsq	$4294967295, %rcx       # imm = 0xFFFFFFFF
	andq	%rax, %rcx
	cmpq	$8, %rcx
	je	.LBB23_1
# BB#2:                                 # %entry
	movabsq	$.L.str1818, %rax
	popq	%rdx
	retq
.LBB23_1:
	movabsq	$.L.str1817, %rax
	popq	%rdx
	retq
.Ltmp59:
	.size	output_71, .Ltmp59-output_71
	.cfi_endproc

	.align	16, 0x90
	.type	output_72,@function
output_72:                              # @output_72
	.cfi_startproc
# BB#0:                                 # %entry
	pushq	%rax
.Ltmp61:
	.cfi_def_cfa_offset 16
	movq	%rsi, %rdi
	callq	get_attr_type
	movabsq	$4294967295, %rcx       # imm = 0xFFFFFFFF
	andq	%rax, %rcx
	cmpq	$8, %rcx
	je	.LBB24_1
# BB#2:                                 # %entry
	movabsq	$.L.str1818, %rax
	popq	%rdx
	retq
.LBB24_1:
	movabsq	$.L.str1817, %rax
	popq	%rdx
	retq
.Ltmp62:
	.size	output_72, .Ltmp62-output_72
	.cfi_endproc

	.align	16, 0x90
	.type	output_82,@function
output_82:                              # @output_82
	.cfi_startproc
# BB#0:                                 # %entry
	movq	const_int_rtx+504(%rip), %rcx
	movabsq	$.L.str1816, %rax
	movq	%rcx, 8(%rdi)
	retq
.Ltmp63:
	.size	output_82, .Ltmp63-output_82
	.cfi_endproc

	.align	16, 0x90
	.type	output_84,@function
output_84:                              # @output_84
	.cfi_startproc
# BB#0:                                 # %entry
	pushq	%r15
.Ltmp68:
	.cfi_def_cfa_offset 16
	pushq	%r14
.Ltmp69:
	.cfi_def_cfa_offset 24
	pushq	%rbx
.Ltmp70:
	.cfi_def_cfa_offset 32
.Ltmp71:
	.cfi_offset %rbx, -32
.Ltmp72:
	.cfi_offset %r14, -24
.Ltmp73:
	.cfi_offset %r15, -16
	movq	%rsi, %rbx
	movq	%rdi, %r14
	movq	%rbx, %rdi
	callq	get_attr_type
	movq	$32, %rcx
	movq	%rax, %rdx
	shlq	%cl, %rdx
	movq	$32, %rcx
	sarq	%cl, %rdx
	cmpq	$32, %rdx
	jg	.LBB26_3
# BB#1:                                 # %entry
	movabsq	$4294967295, %rcx       # imm = 0xFFFFFFFF
	andq	%rcx, %rax
	cmpq	$1, %rax
	jne	.LBB26_9
# BB#2:
	movabsq	$.L.str38, %rax
	jmp	.LBB26_20
.LBB26_3:                               # %entry
	movabsq	$4294967295, %r15       # imm = 0xFFFFFFFF
	andq	%r15, %rax
	cmpq	$34, %rax
	je	.LBB26_8
# BB#4:                                 # %entry
	cmpq	$33, %rax
	jne	.LBB26_11
# BB#5:                                 # %sw.bb
	movq	(%r14), %rdi
	movq	$5, %rsi
	callq	register_operand
	testq	%r15, %rax
	je	.LBB26_8
# BB#6:                                 # %land.lhs.true
	movq	8(%r14), %rdi
	movq	$5, %rsi
	callq	register_operand
	testq	%r15, %rax
	je	.LBB26_8
# BB#7:
	movabsq	$.L.str1813, %rax
	jmp	.LBB26_20
.LBB26_8:                               # %sw.bb5
	movabsq	$.L.str852, %rax
	jmp	.LBB26_20
.LBB26_9:                               # %entry
	cmpq	$9, %rax
	jne	.LBB26_11
# BB#10:                                # %sw.bb7
	movabsq	$.L.str255, %rax
	jmp	.LBB26_20
.LBB26_11:                              # %sw.default
	movl	flag_pic(%rip), %eax
	testq	%rax, %rax
	je	.LBB26_15
# BB#12:                                # %land.lhs.true9
	movq	8(%r14), %rdi
	movzbl	(%rdi), %eax
	leaq	-67(%rax), %rcx
	movabsq	$4294967295, %r14       # imm = 0xFFFFFFFF
	andq	%r14, %rcx
	cmpq	$2, %rcx
	jb	.LBB26_21
# BB#13:                                # %land.lhs.true9
	cmpq	$58, %rax
	jne	.LBB26_15
# BB#14:                                # %land.lhs.true20
	callq	symbolic_reference_mentioned_p
	testq	%r14, %rax
	jne	.LBB26_21
.LBB26_15:                              # %if.end25
	movq	%rbx, %rdi
	callq	get_attr_mode
	movabsq	$4294967295, %rcx       # imm = 0xFFFFFFFF
	andq	%rax, %rcx
	cmpq	$4, %rcx
	jne	.LBB26_17
# BB#16:
	movabsq	$.L.str1814, %rax
	jmp	.LBB26_20
.LBB26_17:                              # %if.else
	movl	which_alternative(%rip), %eax
	cmpq	$2, %rax
	jne	.LBB26_19
# BB#18:
	movabsq	$.L.str1815, %rax
	jmp	.LBB26_20
.LBB26_19:                              # %select.mid
	movabsq	$.L.str1662, %rax
.LBB26_20:                              # %return
	popq	%rbx
	popq	%r14
	popq	%r15
	retq
.LBB26_21:                              # %if.then24
	movabsq	$.L.str1644, %rax
	movabsq	$.L__FUNCTION__.output_84, %rcx
	movq	$477, %rsi              # imm = 0x1DD
	movq	%rax, %rdi
	movq	%rcx, %rdx
	callq	fancy_abort
.Ltmp74:
	.size	output_84, .Ltmp74-output_84
	.cfi_endproc

	.align	16, 0x90
	.type	output_88,@function
output_88:                              # @output_88
	.cfi_startproc
# BB#0:                                 # %entry
	pushq	%r14
.Ltmp78:
	.cfi_def_cfa_offset 16
	pushq	%rbx
.Ltmp79:
	.cfi_def_cfa_offset 24
	pushq	%rax
.Ltmp80:
	.cfi_def_cfa_offset 32
.Ltmp81:
	.cfi_offset %rbx, -24
.Ltmp82:
	.cfi_offset %r14, -16
	movl	which_alternative(%rip), %eax
	movq	%rsi, %r14
	movq	%rdi, %rbx
	cmpq	$2, %rax
	je	.LBB27_8
# BB#1:                                 # %entry
	cmpq	$1, %rax
	jne	.LBB27_3
# BB#2:
	movabsq	$.L.str50, %rax
	jmp	.LBB27_9
.LBB27_8:                               # %sw.bb8
	movabsq	$.L.str38, %rax
	jmp	.LBB27_9
.LBB27_3:                               # %entry
	testq	%rax, %rax
	jne	.LBB27_7
# BB#4:                                 # %sw.bb
	movq	global_rtl+16(%rip), %rsi
	movq	$15, %rdi
	callq	gen_rtx_MEM
	movq	%rax, (%rbx)
	movq	global_rtl+16(%rip), %rax
	movq	%rax, 16(%rbx)
	xorq	%rdi, %rdi
	movq	$4, %rsi
	callq	gen_rtx_CONST_INT
	movq	%rax, 24(%rbx)
	movq	8(%rbx), %rax
	movl	8(%rax), %edx
	movq	$1, %rsi
	movq	%r14, %rdi
	callq	find_regno_note
	testq	%rax, %rax
	je	.LBB27_5
# BB#6:                                 # %sw.bb
	movabsq	$.L.str1803, %rax
	jmp	.LBB27_9
.LBB27_5:
	movabsq	$.L.str1804, %rax
.LBB27_9:                               # %return
	addq	$8, %rsp
	popq	%rbx
	popq	%r14
	retq
.LBB27_7:                               # %sw.default
	movabsq	$.L.str1644, %rax
	movabsq	$.L__FUNCTION__.output_88, %rcx
	movq	$524, %rsi              # imm = 0x20C
	movq	%rax, %rdi
	movq	%rcx, %rdx
	callq	fancy_abort
.Ltmp83:
	.size	output_88, .Ltmp83-output_88
	.cfi_endproc

	.align	16, 0x90
	.type	output_89,@function
output_89:                              # @output_89
	.cfi_startproc
# BB#0:                                 # %entry
	pushq	%r14
.Ltmp87:
	.cfi_def_cfa_offset 16
	pushq	%rbx
.Ltmp88:
	.cfi_def_cfa_offset 24
	pushq	%rax
.Ltmp89:
	.cfi_def_cfa_offset 32
.Ltmp90:
	.cfi_offset %rbx, -24
.Ltmp91:
	.cfi_offset %r14, -16
	movl	which_alternative(%rip), %eax
	movq	%rsi, %r14
	movq	%rdi, %rbx
	cmpq	$2, %rax
	je	.LBB28_8
# BB#1:                                 # %entry
	cmpq	$1, %rax
	jne	.LBB28_3
# BB#2:
	movabsq	$.L.str52, %rax
	jmp	.LBB28_9
.LBB28_8:                               # %sw.bb8
	movabsq	$.L.str38, %rax
	jmp	.LBB28_9
.LBB28_3:                               # %entry
	testq	%rax, %rax
	jne	.LBB28_7
# BB#4:                                 # %sw.bb
	movq	global_rtl+16(%rip), %rsi
	movq	$15, %rdi
	callq	gen_rtx_MEM
	movq	%rax, (%rbx)
	movq	global_rtl+16(%rip), %rax
	movq	%rax, 16(%rbx)
	xorq	%rdi, %rdi
	movq	$8, %rsi
	callq	gen_rtx_CONST_INT
	movq	%rax, 24(%rbx)
	movq	8(%rbx), %rax
	movl	8(%rax), %edx
	movq	$1, %rsi
	movq	%r14, %rdi
	callq	find_regno_note
	testq	%rax, %rax
	je	.LBB28_5
# BB#6:                                 # %sw.bb
	movabsq	$.L.str1801, %rax
	jmp	.LBB28_9
.LBB28_5:
	movabsq	$.L.str1802, %rax
.LBB28_9:                               # %return
	addq	$8, %rsp
	popq	%rbx
	popq	%r14
	retq
.LBB28_7:                               # %sw.default
	movabsq	$.L.str1644, %rax
	movabsq	$.L__FUNCTION__.output_89, %rcx
	movq	$556, %rsi              # imm = 0x22C
	movq	%rax, %rdi
	movq	%rcx, %rdx
	callq	fancy_abort
.Ltmp92:
	.size	output_89, .Ltmp92-output_89
	.cfi_endproc

	.align	16, 0x90
	.type	output_90,@function
output_90:                              # @output_90
	.cfi_startproc
# BB#0:                                 # %entry
	pushq	%rbx
.Ltmp95:
	.cfi_def_cfa_offset 16
.Ltmp96:
	.cfi_offset %rbx, -16
	movl	which_alternative(%rip), %edx
	movq	%rsi, %rcx
	movq	%rdi, %rbx
	cmpq	$11, %rdx
	ja	.LBB29_25
# BB#1:                                 # %entry
	movabsq	$.L.str1664, %rax
	jmpq	*.LJTI29_0(,%rdx,8)
.LBB29_22:                              # %sw.bb39
	movabsq	$.L.str887, %rax
	popq	%rbx
	retq
.LBB29_23:                              # %sw.bb40
	movabsq	$.L.str1808, %rax
	popq	%rbx
	retq
.LBB29_2:                               # %sw.bb
	movq	8(%rbx), %rax
	movzbl	(%rax), %edx
	cmpq	$61, %rdx
	jne	.LBB29_5
# BB#3:                                 # %land.lhs.true
	movl	8(%rax), %edx
	movq	$1, %rsi
	movq	%rcx, %rdi
	callq	find_regno_note
	testq	%rax, %rax
	je	.LBB29_5
# BB#4:
	movabsq	$.L.str1781, %rax
	popq	%rbx
	retq
.LBB29_8:                               # %sw.bb15
	movq	8(%rbx), %rax
	movl	8(%rax), %edx
	movq	$1, %rsi
	movq	%rcx, %rdi
	callq	find_regno_note
	testq	%rax, %rax
	je	.LBB29_9
# BB#10:                                # %sw.bb15
	movabsq	$.L.str1779, %rax
	popq	%rbx
	retq
.LBB29_11:                              # %sw.bb24
	movq	8(%rbx), %rdi
	callq	standard_80387_constant_p
	movabsq	$4294967295, %rcx       # imm = 0xFFFFFFFF
	andq	%rax, %rcx
	cmpq	$1, %rcx
	jne	.LBB29_13
# BB#12:
	movabsq	$.L.str1799, %rax
	popq	%rbx
	retq
.LBB29_16:                              # %sw.bb30
	movzbl	target_flags+2(%rip), %eax
	testq	$4, %rax
	je	.LBB29_17
# BB#18:                                # %sw.bb30
	movabsq	$.L.str1805, %rax
	popq	%rbx
	retq
.LBB29_19:                              # %sw.bb34
	movl	ix86_cpu(%rip), %ecx
	movl	x86_partial_reg_dependency(%rip), %eax
	movq	$1, %rdx
	shlq	%cl, %rdx
	andq	%rax, %rdx
	movabsq	$4294967295, %rax       # imm = 0xFFFFFFFF
	testq	%rax, %rdx
	je	.LBB29_20
# BB#21:                                # %sw.bb34
	movabsq	$.L.str849, %rax
	popq	%rbx
	retq
.LBB29_24:                              # %sw.bb41
	movabsq	$.L.str852, %rax
	popq	%rbx
	retq
.LBB29_25:                              # %sw.default
	movabsq	$.L.str1644, %rdi
	movabsq	$.L__FUNCTION__.output_90, %rdx
	movq	$621, %rsi              # imm = 0x26D
	callq	fancy_abort
.LBB29_5:                               # %if.else
	movq	(%rbx), %rax
	movzbl	(%rax), %ecx
	cmpq	$61, %rcx
	jne	.LBB29_26
# BB#6:                                 # %land.lhs.true7
	movl	8(%rax), %eax
	cmpq	$8, %rax
	jne	.LBB29_26
# BB#7:
	movabsq	$.L.str1782, %rax
	popq	%rbx
	retq
.LBB29_26:                              # %if.else14
	movabsq	$.L.str1783, %rax
.LBB29_27:                              # %return
	popq	%rbx
	retq
.LBB29_9:
	movabsq	$.L.str1780, %rax
	popq	%rbx
	retq
.LBB29_13:                              # %sw.bb24
	cmpq	$2, %rcx
	jne	.LBB29_15
# BB#14:                                # %sw.bb28
	movabsq	$.L.str1800, %rax
	popq	%rbx
	retq
.LBB29_17:
	movabsq	$.L.str1655, %rax
	popq	%rbx
	retq
.LBB29_20:
	movabsq	$.L.str887, %rax
	popq	%rbx
	retq
.LBB29_15:                              # %sw.epilog
	movabsq	$.L.str1644, %rax
	movabsq	$.L__FUNCTION__.output_90, %rcx
	movq	$594, %rsi              # imm = 0x252
	movq	%rax, %rdi
	movq	%rcx, %rdx
	callq	fancy_abort
.Ltmp97:
	.size	output_90, .Ltmp97-output_90
	.cfi_endproc
	.section	.rodata,"a",@progbits
	.align	8
.LJTI29_0:
	.quad	.LBB29_2
	.quad	.LBB29_8
	.quad	.LBB29_11
	.quad	.LBB29_27
	.quad	.LBB29_27
	.quad	.LBB29_16
	.quad	.LBB29_19
	.quad	.LBB29_22
	.quad	.LBB29_22
	.quad	.LBB29_23
	.quad	.LBB29_23
	.quad	.LBB29_24

	.text
	.align	16, 0x90
	.type	output_91,@function
output_91:                              # @output_91
	.cfi_startproc
# BB#0:                                 # %entry
	movq	(%rdi), %rax
	movzbl	(%rax), %ecx
	cmpq	$61, %rcx
	jne	.LBB30_3
# BB#1:                                 # %land.lhs.true
	movl	8(%rax), %eax
	cmpq	$8, %rax
	jne	.LBB30_3
# BB#2:
	movabsq	$.L.str1797, %rax
	retq
.LBB30_3:                               # %if.else
	movabsq	$.L.str1798, %rax
	retq
.Ltmp98:
	.size	output_91, .Ltmp98-output_91
	.cfi_endproc

	.align	16, 0x90
	.type	output_92,@function
output_92:                              # @output_92
	.cfi_startproc
# BB#0:                                 # %entry
	pushq	%r14
.Ltmp102:
	.cfi_def_cfa_offset 16
	pushq	%rbx
.Ltmp103:
	.cfi_def_cfa_offset 24
	pushq	%rax
.Ltmp104:
	.cfi_def_cfa_offset 32
.Ltmp105:
	.cfi_offset %rbx, -24
.Ltmp106:
	.cfi_offset %r14, -16
	movl	which_alternative(%rip), %eax
	movq	%rsi, %r14
	movq	%rdi, %rbx
	leaq	-1(%rax), %rdx
	movabsq	$4294967295, %rcx       # imm = 0xFFFFFFFF
	andq	%rcx, %rdx
	cmpq	$3, %rdx
	jae	.LBB31_2
# BB#1:
	movabsq	$.L.str38, %rax
.LBB31_6:                               # %return
	addq	$8, %rsp
	popq	%rbx
	popq	%r14
	retq
.LBB31_2:                               # %entry
	testq	%rcx, %rax
	jne	.LBB31_7
# BB#3:                                 # %sw.bb
	movq	global_rtl+16(%rip), %rsi
	movq	$16, %rdi
	callq	gen_rtx_MEM
	movq	%rax, (%rbx)
	movq	global_rtl+16(%rip), %rax
	movq	%rax, 16(%rbx)
	xorq	%rdi, %rdi
	movq	$8, %rsi
	callq	gen_rtx_CONST_INT
	movq	%rax, 24(%rbx)
	movq	8(%rbx), %rax
	movl	8(%rax), %edx
	movq	$1, %rsi
	movq	%r14, %rdi
	callq	find_regno_note
	testq	%rax, %rax
	je	.LBB31_4
# BB#5:                                 # %sw.bb
	movabsq	$.L.str1803, %rax
	jmp	.LBB31_6
.LBB31_4:
	movabsq	$.L.str1804, %rax
	jmp	.LBB31_6
.LBB31_7:                               # %sw.default
	movabsq	$.L.str1644, %rax
	movabsq	$.L__FUNCTION__.output_92, %rcx
	movq	$667, %rsi              # imm = 0x29B
	movq	%rax, %rdi
	movq	%rcx, %rdx
	callq	fancy_abort
.Ltmp107:
	.size	output_92, .Ltmp107-output_92
	.cfi_endproc

	.align	16, 0x90
	.type	output_93,@function
output_93:                              # @output_93
	.cfi_startproc
# BB#0:                                 # %entry
	pushq	%r14
.Ltmp111:
	.cfi_def_cfa_offset 16
	pushq	%rbx
.Ltmp112:
	.cfi_def_cfa_offset 24
	pushq	%rax
.Ltmp113:
	.cfi_def_cfa_offset 32
.Ltmp114:
	.cfi_offset %rbx, -24
.Ltmp115:
	.cfi_offset %r14, -16
	movl	which_alternative(%rip), %eax
	movq	%rsi, %r14
	movq	%rdi, %rbx
	leaq	-1(%rax), %rdx
	movabsq	$4294967295, %rcx       # imm = 0xFFFFFFFF
	andq	%rcx, %rdx
	cmpq	$2, %rdx
	jae	.LBB32_2
# BB#1:
	movabsq	$.L.str38, %rax
.LBB32_10:                              # %return
	addq	$8, %rsp
	popq	%rbx
	popq	%r14
	retq
.LBB32_2:                               # %entry
	testq	%rcx, %rax
	jne	.LBB32_11
# BB#3:                                 # %sw.bb
	movq	global_rtl+16(%rip), %rsi
	movq	$16, %rdi
	callq	gen_rtx_MEM
	movq	%rax, (%rbx)
	movq	global_rtl+16(%rip), %rax
	movq	%rax, 16(%rbx)
	xorq	%rdi, %rdi
	movq	$8, %rsi
	callq	gen_rtx_CONST_INT
	movq	%rax, 24(%rbx)
	movq	8(%rbx), %rax
	movl	target_flags(%rip), %ebx
	movl	8(%rax), %edx
	movq	$1, %rsi
	movq	%r14, %rdi
	callq	find_regno_note
	testq	$33554432, %rbx         # imm = 0x2000000
	je	.LBB32_7
# BB#4:                                 # %if.then
	testq	%rax, %rax
	jne	.LBB32_5
# BB#6:                                 # %if.then
	movabsq	$.L.str1802, %rax
	jmp	.LBB32_10
.LBB32_7:                               # %if.else9
	testq	%rax, %rax
	jne	.LBB32_8
# BB#9:                                 # %if.else9
	movabsq	$.L.str1804, %rax
	jmp	.LBB32_10
.LBB32_5:
	movabsq	$.L.str1801, %rax
	jmp	.LBB32_10
.LBB32_8:
	movabsq	$.L.str1803, %rax
	jmp	.LBB32_10
.LBB32_11:                              # %sw.default
	movabsq	$.L.str1644, %rax
	movabsq	$.L__FUNCTION__.output_93, %rcx
	movq	$704, %rsi              # imm = 0x2C0
	movq	%rax, %rdi
	movq	%rcx, %rdx
	callq	fancy_abort
.Ltmp116:
	.size	output_93, .Ltmp116-output_93
	.cfi_endproc

	.align	16, 0x90
	.type	output_94,@function
output_94:                              # @output_94
	.cfi_startproc
# BB#0:                                 # %entry
	pushq	%rbx
.Ltmp119:
	.cfi_def_cfa_offset 16
.Ltmp120:
	.cfi_offset %rbx, -16
	movl	which_alternative(%rip), %edx
	movq	%rsi, %rcx
	movq	%rdi, %rbx
	cmpq	$8, %rdx
	ja	.LBB33_21
# BB#1:                                 # %entry
	movabsq	$.L.str38, %rax
	jmpq	*.LJTI33_0(,%rdx,8)
.LBB33_20:                              # %sw.bb35
	movabsq	$.L.str1807, %rax
	popq	%rbx
	retq
.LBB33_2:                               # %sw.bb
	movq	8(%rbx), %rax
	movzbl	(%rax), %edx
	cmpq	$61, %rdx
	jne	.LBB33_5
# BB#3:                                 # %land.lhs.true
	movl	8(%rax), %edx
	movq	$1, %rsi
	movq	%rcx, %rdi
	callq	find_regno_note
	testq	%rax, %rax
	je	.LBB33_5
# BB#4:
	movabsq	$.L.str1781, %rax
	popq	%rbx
	retq
.LBB33_8:                               # %sw.bb15
	movq	8(%rbx), %rax
	movl	8(%rax), %edx
	movq	$1, %rsi
	movq	%rcx, %rdi
	callq	find_regno_note
	testq	%rax, %rax
	je	.LBB33_9
# BB#10:                                # %sw.bb15
	movabsq	$.L.str1779, %rax
	popq	%rbx
	retq
.LBB33_11:                              # %sw.bb24
	movq	8(%rbx), %rdi
	callq	standard_80387_constant_p
	movabsq	$4294967295, %rcx       # imm = 0xFFFFFFFF
	andq	%rax, %rcx
	cmpq	$1, %rcx
	jne	.LBB33_13
# BB#12:
	movabsq	$.L.str1799, %rax
	popq	%rbx
	retq
.LBB33_16:                              # %sw.bb30
	movabsq	$.L.str1805, %rax
	popq	%rbx
	retq
.LBB33_17:                              # %sw.bb31
	movl	ix86_cpu(%rip), %ecx
	movl	x86_partial_reg_dependency(%rip), %eax
	movq	$1, %rdx
	shlq	%cl, %rdx
	andq	%rax, %rdx
	movabsq	$4294967295, %rax       # imm = 0xFFFFFFFF
	testq	%rax, %rdx
	je	.LBB33_18
# BB#19:                                # %sw.bb31
	movabsq	$.L.str1806, %rax
	popq	%rbx
	retq
.LBB33_5:                               # %if.else
	movq	(%rbx), %rax
	movzbl	(%rax), %ecx
	cmpq	$61, %rcx
	jne	.LBB33_22
# BB#6:                                 # %land.lhs.true7
	movl	8(%rax), %eax
	cmpq	$8, %rax
	jne	.LBB33_22
# BB#7:
	movabsq	$.L.str1782, %rax
	popq	%rbx
	retq
.LBB33_21:                              # %sw.default
	movabsq	$.L.str1644, %rdi
	movabsq	$.L__FUNCTION__.output_94, %rdx
	movq	$759, %rsi              # imm = 0x2F7
	callq	fancy_abort
.LBB33_22:                              # %if.else14
	movabsq	$.L.str1783, %rax
.LBB33_23:                              # %return
	popq	%rbx
	retq
.LBB33_9:
	movabsq	$.L.str1780, %rax
	popq	%rbx
	retq
.LBB33_13:                              # %sw.bb24
	cmpq	$2, %rcx
	jne	.LBB33_15
# BB#14:                                # %sw.bb28
	movabsq	$.L.str1800, %rax
	popq	%rbx
	retq
.LBB33_18:
	movabsq	$.L.str1807, %rax
	popq	%rbx
	retq
.LBB33_15:                              # %sw.epilog
	movabsq	$.L.str1644, %rax
	movabsq	$.L__FUNCTION__.output_94, %rcx
	movq	$742, %rsi              # imm = 0x2E6
	movq	%rax, %rdi
	movq	%rcx, %rdx
	callq	fancy_abort
.Ltmp121:
	.size	output_94, .Ltmp121-output_94
	.cfi_endproc
	.section	.rodata,"a",@progbits
	.align	8
.LJTI33_0:
	.quad	.LBB33_2
	.quad	.LBB33_8
	.quad	.LBB33_11
	.quad	.LBB33_23
	.quad	.LBB33_23
	.quad	.LBB33_16
	.quad	.LBB33_17
	.quad	.LBB33_20
	.quad	.LBB33_20

	.text
	.align	16, 0x90
	.type	output_95,@function
output_95:                              # @output_95
	.cfi_startproc
# BB#0:                                 # %entry
	pushq	%rbx
.Ltmp124:
	.cfi_def_cfa_offset 16
.Ltmp125:
	.cfi_offset %rbx, -16
	movl	which_alternative(%rip), %edx
	movq	%rsi, %rcx
	movq	%rdi, %rbx
	cmpq	$8, %rdx
	ja	.LBB34_21
# BB#1:                                 # %entry
	movabsq	$.L.str38, %rax
	jmpq	*.LJTI34_0(,%rdx,8)
.LBB34_20:                              # %sw.bb35
	movabsq	$.L.str1807, %rax
	popq	%rbx
	retq
.LBB34_2:                               # %sw.bb
	movq	8(%rbx), %rax
	movzbl	(%rax), %edx
	cmpq	$61, %rdx
	jne	.LBB34_5
# BB#3:                                 # %land.lhs.true
	movl	8(%rax), %edx
	movq	$1, %rsi
	movq	%rcx, %rdi
	callq	find_regno_note
	testq	%rax, %rax
	je	.LBB34_5
# BB#4:
	movabsq	$.L.str1781, %rax
	popq	%rbx
	retq
.LBB34_8:                               # %sw.bb15
	movq	8(%rbx), %rax
	movl	8(%rax), %edx
	movq	$1, %rsi
	movq	%rcx, %rdi
	callq	find_regno_note
	testq	%rax, %rax
	je	.LBB34_9
# BB#10:                                # %sw.bb15
	movabsq	$.L.str1779, %rax
	popq	%rbx
	retq
.LBB34_11:                              # %sw.bb24
	movq	8(%rbx), %rdi
	callq	standard_80387_constant_p
	movabsq	$4294967295, %rcx       # imm = 0xFFFFFFFF
	andq	%rax, %rcx
	cmpq	$1, %rcx
	jne	.LBB34_13
# BB#12:
	movabsq	$.L.str1799, %rax
	popq	%rbx
	retq
.LBB34_16:                              # %sw.bb30
	movabsq	$.L.str1805, %rax
	popq	%rbx
	retq
.LBB34_17:                              # %sw.bb31
	movl	ix86_cpu(%rip), %ecx
	movl	x86_partial_reg_dependency(%rip), %eax
	movq	$1, %rdx
	shlq	%cl, %rdx
	andq	%rax, %rdx
	movabsq	$4294967295, %rax       # imm = 0xFFFFFFFF
	testq	%rax, %rdx
	je	.LBB34_18
# BB#19:                                # %sw.bb31
	movabsq	$.L.str1806, %rax
	popq	%rbx
	retq
.LBB34_5:                               # %if.else
	movq	(%rbx), %rax
	movzbl	(%rax), %ecx
	cmpq	$61, %rcx
	jne	.LBB34_22
# BB#6:                                 # %land.lhs.true7
	movl	8(%rax), %eax
	cmpq	$8, %rax
	jne	.LBB34_22
# BB#7:
	movabsq	$.L.str1782, %rax
	popq	%rbx
	retq
.LBB34_21:                              # %sw.default
	movabsq	$.L.str1644, %rdi
	movabsq	$.L__FUNCTION__.output_95, %rdx
	movq	$815, %rsi              # imm = 0x32F
	callq	fancy_abort
.LBB34_22:                              # %if.else14
	movabsq	$.L.str1783, %rax
.LBB34_23:                              # %return
	popq	%rbx
	retq
.LBB34_9:
	movabsq	$.L.str1780, %rax
	popq	%rbx
	retq
.LBB34_13:                              # %sw.bb24
	cmpq	$2, %rcx
	jne	.LBB34_15
# BB#14:                                # %sw.bb28
	movabsq	$.L.str1800, %rax
	popq	%rbx
	retq
.LBB34_18:
	movabsq	$.L.str1807, %rax
	popq	%rbx
	retq
.LBB34_15:                              # %sw.epilog
	movabsq	$.L.str1644, %rax
	movabsq	$.L__FUNCTION__.output_95, %rcx
	movq	$797, %rsi              # imm = 0x31D
	movq	%rax, %rdi
	movq	%rcx, %rdx
	callq	fancy_abort
.Ltmp126:
	.size	output_95, .Ltmp126-output_95
	.cfi_endproc
	.section	.rodata,"a",@progbits
	.align	8
.LJTI34_0:
	.quad	.LBB34_2
	.quad	.LBB34_8
	.quad	.LBB34_11
	.quad	.LBB34_23
	.quad	.LBB34_23
	.quad	.LBB34_16
	.quad	.LBB34_17
	.quad	.LBB34_20
	.quad	.LBB34_20

	.text
	.align	16, 0x90
	.type	output_96,@function
output_96:                              # @output_96
	.cfi_startproc
# BB#0:                                 # %entry
	movq	(%rdi), %rax
	movzbl	(%rax), %ecx
	cmpq	$61, %rcx
	jne	.LBB35_3
# BB#1:                                 # %land.lhs.true
	movl	8(%rax), %eax
	cmpq	$8, %rax
	jne	.LBB35_3
# BB#2:
	movabsq	$.L.str1797, %rax
	retq
.LBB35_3:                               # %if.else
	movabsq	$.L.str1798, %rax
	retq
.Ltmp127:
	.size	output_96, .Ltmp127-output_96
	.cfi_endproc

	.align	16, 0x90
	.type	output_97,@function
output_97:                              # @output_97
	.cfi_startproc
# BB#0:                                 # %entry
	pushq	%r14
.Ltmp131:
	.cfi_def_cfa_offset 16
	pushq	%rbx
.Ltmp132:
	.cfi_def_cfa_offset 24
	pushq	%rax
.Ltmp133:
	.cfi_def_cfa_offset 32
.Ltmp134:
	.cfi_offset %rbx, -24
.Ltmp135:
	.cfi_offset %r14, -16
	movl	which_alternative(%rip), %eax
	movq	%rsi, %r14
	movq	%rdi, %rbx
	leaq	-1(%rax), %rdx
	movabsq	$4294967295, %rcx       # imm = 0xFFFFFFFF
	andq	%rcx, %rdx
	cmpq	$2, %rdx
	jae	.LBB36_2
# BB#1:
	movabsq	$.L.str38, %rax
	jmp	.LBB36_6
.LBB36_2:                               # %entry
	testq	%rcx, %rax
	jne	.LBB36_7
# BB#3:                                 # %sw.bb
	movq	global_rtl+16(%rip), %rsi
	movq	$17, %rdi
	callq	gen_rtx_MEM
	movq	%rax, (%rbx)
	movq	global_rtl+16(%rip), %rax
	movq	%rax, 16(%rbx)
	xorq	%rdi, %rdi
	movq	$12, %rsi
	callq	gen_rtx_CONST_INT
	movq	%rax, 24(%rbx)
	movq	8(%rbx), %rax
	movl	8(%rax), %edx
	movq	$1, %rsi
	movq	%r14, %rdi
	callq	find_regno_note
	testq	%rax, %rax
	je	.LBB36_4
# BB#5:                                 # %sw.bb
	movabsq	$.L.str1803, %rax
	jmp	.LBB36_6
.LBB36_4:
	movabsq	$.L.str1804, %rax
.LBB36_6:                               # %return
	addq	$8, %rsp
	popq	%rbx
	popq	%r14
	retq
.LBB36_7:                               # %sw.default
	movabsq	$.L.str1644, %rax
	movabsq	$.L__FUNCTION__.output_97, %rcx
	movq	$860, %rsi              # imm = 0x35C
	movq	%rax, %rdi
	movq	%rcx, %rdx
	callq	fancy_abort
.Ltmp136:
	.size	output_97, .Ltmp136-output_97
	.cfi_endproc

	.align	16, 0x90
	.type	output_98,@function
output_98:                              # @output_98
	.cfi_startproc
# BB#0:                                 # %entry
	pushq	%r14
.Ltmp140:
	.cfi_def_cfa_offset 16
	pushq	%rbx
.Ltmp141:
	.cfi_def_cfa_offset 24
	pushq	%rax
.Ltmp142:
	.cfi_def_cfa_offset 32
.Ltmp143:
	.cfi_offset %rbx, -24
.Ltmp144:
	.cfi_offset %r14, -16
	movl	which_alternative(%rip), %eax
	movq	%rsi, %r14
	movq	%rdi, %rbx
	leaq	-1(%rax), %rdx
	movabsq	$4294967295, %rcx       # imm = 0xFFFFFFFF
	andq	%rcx, %rdx
	cmpq	$2, %rdx
	jae	.LBB37_2
# BB#1:
	movabsq	$.L.str38, %rax
	jmp	.LBB37_6
.LBB37_2:                               # %entry
	testq	%rcx, %rax
	jne	.LBB37_7
# BB#3:                                 # %sw.bb
	movq	global_rtl+16(%rip), %rsi
	movq	$17, %rdi
	callq	gen_rtx_MEM
	movq	%rax, (%rbx)
	movq	global_rtl+16(%rip), %rax
	movq	%rax, 16(%rbx)
	xorq	%rdi, %rdi
	movq	$16, %rsi
	callq	gen_rtx_CONST_INT
	movq	%rax, 24(%rbx)
	movq	8(%rbx), %rax
	movl	8(%rax), %edx
	movq	$1, %rsi
	movq	%r14, %rdi
	callq	find_regno_note
	testq	%rax, %rax
	je	.LBB37_4
# BB#5:                                 # %sw.bb
	movabsq	$.L.str1803, %rax
	jmp	.LBB37_6
.LBB37_4:
	movabsq	$.L.str1804, %rax
.LBB37_6:                               # %return
	addq	$8, %rsp
	popq	%rbx
	popq	%r14
	retq
.LBB37_7:                               # %sw.default
	movabsq	$.L.str1644, %rax
	movabsq	$.L__FUNCTION__.output_98, %rcx
	movq	$890, %rsi              # imm = 0x37A
	movq	%rax, %rdi
	movq	%rcx, %rdx
	callq	fancy_abort
.Ltmp145:
	.size	output_98, .Ltmp145-output_98
	.cfi_endproc

	.align	16, 0x90
	.type	output_99,@function
output_99:                              # @output_99
	.cfi_startproc
# BB#0:                                 # %entry
	pushq	%r14
.Ltmp149:
	.cfi_def_cfa_offset 16
	pushq	%rbx
.Ltmp150:
	.cfi_def_cfa_offset 24
	pushq	%rax
.Ltmp151:
	.cfi_def_cfa_offset 32
.Ltmp152:
	.cfi_offset %rbx, -24
.Ltmp153:
	.cfi_offset %r14, -16
	movl	which_alternative(%rip), %eax
	movq	%rsi, %r14
	movq	%rdi, %rbx
	cmpq	$1, %rax
	jne	.LBB38_2
# BB#1:
	movabsq	$.L.str38, %rax
	jmp	.LBB38_6
.LBB38_2:                               # %entry
	testq	%rax, %rax
	jne	.LBB38_7
# BB#3:                                 # %sw.bb
	movq	global_rtl+16(%rip), %rsi
	movq	$17, %rdi
	callq	gen_rtx_MEM
	movq	%rax, (%rbx)
	movq	global_rtl+16(%rip), %rax
	movq	%rax, 16(%rbx)
	xorq	%rdi, %rdi
	movq	$12, %rsi
	callq	gen_rtx_CONST_INT
	movq	%rax, 24(%rbx)
	movq	8(%rbx), %rax
	movl	8(%rax), %edx
	movq	$1, %rsi
	movq	%r14, %rdi
	callq	find_regno_note
	testq	%rax, %rax
	je	.LBB38_4
# BB#5:                                 # %sw.bb
	movabsq	$.L.str1803, %rax
	jmp	.LBB38_6
.LBB38_4:
	movabsq	$.L.str1804, %rax
.LBB38_6:                               # %return
	addq	$8, %rsp
	popq	%rbx
	popq	%r14
	retq
.LBB38_7:                               # %sw.default
	movabsq	$.L.str1644, %rax
	movabsq	$.L__FUNCTION__.output_99, %rcx
	movq	$919, %rsi              # imm = 0x397
	movq	%rax, %rdi
	movq	%rcx, %rdx
	callq	fancy_abort
.Ltmp154:
	.size	output_99, .Ltmp154-output_99
	.cfi_endproc

	.align	16, 0x90
	.type	output_100,@function
output_100:                             # @output_100
	.cfi_startproc
# BB#0:                                 # %entry
	pushq	%r14
.Ltmp158:
	.cfi_def_cfa_offset 16
	pushq	%rbx
.Ltmp159:
	.cfi_def_cfa_offset 24
	pushq	%rax
.Ltmp160:
	.cfi_def_cfa_offset 32
.Ltmp161:
	.cfi_offset %rbx, -24
.Ltmp162:
	.cfi_offset %r14, -16
	movl	which_alternative(%rip), %eax
	movq	%rsi, %r14
	movq	%rdi, %rbx
	cmpq	$1, %rax
	jne	.LBB39_2
# BB#1:
	movabsq	$.L.str38, %rax
	jmp	.LBB39_10
.LBB39_2:                               # %entry
	testq	%rax, %rax
	jne	.LBB39_11
# BB#3:                                 # %sw.bb
	movq	global_rtl+16(%rip), %rsi
	movq	$17, %rdi
	callq	gen_rtx_MEM
	movq	%rax, (%rbx)
	movq	global_rtl+16(%rip), %rax
	movq	%rax, 16(%rbx)
	xorq	%rdi, %rdi
	movq	$16, %rsi
	callq	gen_rtx_CONST_INT
	movq	%rax, 24(%rbx)
	movq	8(%rbx), %rax
	movl	target_flags(%rip), %ebx
	movl	8(%rax), %edx
	movq	$1, %rsi
	movq	%r14, %rdi
	callq	find_regno_note
	testq	$33554432, %rbx         # imm = 0x2000000
	je	.LBB39_7
# BB#4:                                 # %if.then
	testq	%rax, %rax
	jne	.LBB39_5
# BB#6:                                 # %if.then
	movabsq	$.L.str1802, %rax
	jmp	.LBB39_10
.LBB39_7:                               # %if.else9
	testq	%rax, %rax
	jne	.LBB39_8
# BB#9:                                 # %if.else9
	movabsq	$.L.str1804, %rax
	jmp	.LBB39_10
.LBB39_5:
	movabsq	$.L.str1801, %rax
	jmp	.LBB39_10
.LBB39_8:
	movabsq	$.L.str1803, %rax
.LBB39_10:                              # %return
	addq	$8, %rsp
	popq	%rbx
	popq	%r14
	retq
.LBB39_11:                              # %sw.default
	movabsq	$.L.str1644, %rax
	movabsq	$.L__FUNCTION__.output_100, %rcx
	movq	$954, %rsi              # imm = 0x3BA
	movq	%rax, %rdi
	movq	%rcx, %rdx
	callq	fancy_abort
.Ltmp163:
	.size	output_100, .Ltmp163-output_100
	.cfi_endproc

	.align	16, 0x90
	.type	output_101,@function
output_101:                             # @output_101
	.cfi_startproc
# BB#0:                                 # %entry
	pushq	%rbx
.Ltmp166:
	.cfi_def_cfa_offset 16
.Ltmp167:
	.cfi_offset %rbx, -16
	movl	which_alternative(%rip), %edx
	movq	%rsi, %rcx
	movq	%rdi, %rbx
	cmpq	$4, %rdx
	ja	.LBB40_15
# BB#1:                                 # %entry
	movabsq	$.L.str38, %rax
	jmpq	*.LJTI40_0(,%rdx,8)
.LBB40_2:                               # %sw.bb
	movq	8(%rbx), %rax
	movzbl	(%rax), %edx
	cmpq	$61, %rdx
	jne	.LBB40_5
# BB#3:                                 # %land.lhs.true
	movl	8(%rax), %edx
	movq	$1, %rsi
	movq	%rcx, %rdi
	callq	find_regno_note
	testq	%rax, %rax
	je	.LBB40_5
# BB#4:
	movabsq	$.L.str1781, %rax
	popq	%rbx
	retq
.LBB40_8:                               # %sw.bb15
	movq	8(%rbx), %rax
	movl	8(%rax), %edx
	movq	$1, %rsi
	movq	%rcx, %rdi
	callq	find_regno_note
	testq	%rax, %rax
	je	.LBB40_9
# BB#10:                                # %sw.bb15
	movabsq	$.L.str1779, %rax
	popq	%rbx
	retq
.LBB40_11:                              # %sw.bb24
	movq	8(%rbx), %rdi
	callq	standard_80387_constant_p
	movabsq	$4294967295, %rcx       # imm = 0xFFFFFFFF
	andq	%rax, %rcx
	cmpq	$1, %rcx
	jne	.LBB40_13
# BB#12:
	movabsq	$.L.str1799, %rax
	popq	%rbx
	retq
.LBB40_5:                               # %if.else
	movq	(%rbx), %rax
	movzbl	(%rax), %ecx
	cmpq	$61, %rcx
	jne	.LBB40_16
# BB#6:                                 # %land.lhs.true7
	movl	8(%rax), %eax
	cmpq	$8, %rax
	jne	.LBB40_16
# BB#7:
	movabsq	$.L.str1782, %rax
	popq	%rbx
	retq
.LBB40_16:                              # %if.else14
	movabsq	$.L.str1783, %rax
.LBB40_17:                              # %return
	popq	%rbx
	retq
.LBB40_9:
	movabsq	$.L.str1784, %rax
	popq	%rbx
	retq
.LBB40_13:                              # %sw.bb24
	cmpq	$2, %rcx
	jne	.LBB40_15
# BB#14:                                # %sw.bb28
	movabsq	$.L.str1800, %rax
	popq	%rbx
	retq
.LBB40_15:                              # %sw.epilog30
	movabsq	$.L.str1644, %rdi
	movabsq	$.L__FUNCTION__.output_101, %rdx
	movq	$999, %rsi              # imm = 0x3E7
	callq	fancy_abort
.Ltmp168:
	.size	output_101, .Ltmp168-output_101
	.cfi_endproc
	.section	.rodata,"a",@progbits
	.align	8
.LJTI40_0:
	.quad	.LBB40_2
	.quad	.LBB40_8
	.quad	.LBB40_11
	.quad	.LBB40_17
	.quad	.LBB40_17

	.text
	.align	16, 0x90
	.type	output_102,@function
output_102:                             # @output_102
	.cfi_startproc
# BB#0:                                 # %entry
	pushq	%rbx
.Ltmp171:
	.cfi_def_cfa_offset 16
.Ltmp172:
	.cfi_offset %rbx, -16
	movl	which_alternative(%rip), %edx
	movq	%rsi, %rcx
	movq	%rdi, %rbx
	cmpq	$4, %rdx
	ja	.LBB41_15
# BB#1:                                 # %entry
	movabsq	$.L.str38, %rax
	jmpq	*.LJTI41_0(,%rdx,8)
.LBB41_2:                               # %sw.bb
	movq	8(%rbx), %rax
	movzbl	(%rax), %edx
	cmpq	$61, %rdx
	jne	.LBB41_5
# BB#3:                                 # %land.lhs.true
	movl	8(%rax), %edx
	movq	$1, %rsi
	movq	%rcx, %rdi
	callq	find_regno_note
	testq	%rax, %rax
	je	.LBB41_5
# BB#4:
	movabsq	$.L.str1781, %rax
	popq	%rbx
	retq
.LBB41_8:                               # %sw.bb15
	movq	8(%rbx), %rax
	movl	8(%rax), %edx
	movq	$1, %rsi
	movq	%rcx, %rdi
	callq	find_regno_note
	testq	%rax, %rax
	je	.LBB41_9
# BB#10:                                # %sw.bb15
	movabsq	$.L.str1779, %rax
	popq	%rbx
	retq
.LBB41_11:                              # %sw.bb24
	movq	8(%rbx), %rdi
	callq	standard_80387_constant_p
	movabsq	$4294967295, %rcx       # imm = 0xFFFFFFFF
	andq	%rax, %rcx
	cmpq	$1, %rcx
	jne	.LBB41_13
# BB#12:
	movabsq	$.L.str1799, %rax
	popq	%rbx
	retq
.LBB41_5:                               # %if.else
	movq	(%rbx), %rax
	movzbl	(%rax), %ecx
	cmpq	$61, %rcx
	jne	.LBB41_16
# BB#6:                                 # %land.lhs.true7
	movl	8(%rax), %eax
	cmpq	$8, %rax
	jne	.LBB41_16
# BB#7:
	movabsq	$.L.str1782, %rax
	popq	%rbx
	retq
.LBB41_16:                              # %if.else14
	movabsq	$.L.str1783, %rax
.LBB41_17:                              # %return
	popq	%rbx
	retq
.LBB41_9:
	movabsq	$.L.str1784, %rax
	popq	%rbx
	retq
.LBB41_13:                              # %sw.bb24
	cmpq	$2, %rcx
	jne	.LBB41_15
# BB#14:                                # %sw.bb28
	movabsq	$.L.str1800, %rax
	popq	%rbx
	retq
.LBB41_15:                              # %sw.epilog30
	movabsq	$.L.str1644, %rdi
	movabsq	$.L__FUNCTION__.output_102, %rdx
	movq	$1043, %rsi             # imm = 0x413
	callq	fancy_abort
.Ltmp173:
	.size	output_102, .Ltmp173-output_102
	.cfi_endproc
	.section	.rodata,"a",@progbits
	.align	8
.LJTI41_0:
	.quad	.LBB41_2
	.quad	.LBB41_8
	.quad	.LBB41_11
	.quad	.LBB41_17
	.quad	.LBB41_17

	.text
	.align	16, 0x90
	.type	output_103,@function
output_103:                             # @output_103
	.cfi_startproc
# BB#0:                                 # %entry
	pushq	%rbx
.Ltmp176:
	.cfi_def_cfa_offset 16
.Ltmp177:
	.cfi_offset %rbx, -16
	movl	which_alternative(%rip), %edx
	movq	%rsi, %rcx
	movq	%rdi, %rbx
	cmpq	$4, %rdx
	ja	.LBB42_15
# BB#1:                                 # %entry
	movabsq	$.L.str38, %rax
	jmpq	*.LJTI42_0(,%rdx,8)
.LBB42_2:                               # %sw.bb
	movq	8(%rbx), %rax
	movzbl	(%rax), %edx
	cmpq	$61, %rdx
	jne	.LBB42_5
# BB#3:                                 # %land.lhs.true
	movl	8(%rax), %edx
	movq	$1, %rsi
	movq	%rcx, %rdi
	callq	find_regno_note
	testq	%rax, %rax
	je	.LBB42_5
# BB#4:
	movabsq	$.L.str1781, %rax
	popq	%rbx
	retq
.LBB42_8:                               # %sw.bb15
	movq	8(%rbx), %rax
	movl	8(%rax), %edx
	movq	$1, %rsi
	movq	%rcx, %rdi
	callq	find_regno_note
	testq	%rax, %rax
	je	.LBB42_9
# BB#10:                                # %sw.bb15
	movabsq	$.L.str1779, %rax
	popq	%rbx
	retq
.LBB42_11:                              # %sw.bb24
	movq	8(%rbx), %rdi
	callq	standard_80387_constant_p
	movabsq	$4294967295, %rcx       # imm = 0xFFFFFFFF
	andq	%rax, %rcx
	cmpq	$1, %rcx
	jne	.LBB42_13
# BB#12:
	movabsq	$.L.str1799, %rax
	popq	%rbx
	retq
.LBB42_5:                               # %if.else
	movq	(%rbx), %rax
	movzbl	(%rax), %ecx
	cmpq	$61, %rcx
	jne	.LBB42_16
# BB#6:                                 # %land.lhs.true7
	movl	8(%rax), %eax
	cmpq	$8, %rax
	jne	.LBB42_16
# BB#7:
	movabsq	$.L.str1782, %rax
	popq	%rbx
	retq
.LBB42_16:                              # %if.else14
	movabsq	$.L.str1783, %rax
.LBB42_17:                              # %return
	popq	%rbx
	retq
.LBB42_9:
	movabsq	$.L.str1784, %rax
	popq	%rbx
	retq
.LBB42_13:                              # %sw.bb24
	cmpq	$2, %rcx
	jne	.LBB42_15
# BB#14:                                # %sw.bb28
	movabsq	$.L.str1800, %rax
	popq	%rbx
	retq
.LBB42_15:                              # %sw.epilog30
	movabsq	$.L.str1644, %rdi
	movabsq	$.L__FUNCTION__.output_103, %rdx
	movq	$1087, %rsi             # imm = 0x43F
	callq	fancy_abort
.Ltmp178:
	.size	output_103, .Ltmp178-output_103
	.cfi_endproc
	.section	.rodata,"a",@progbits
	.align	8
.LJTI42_0:
	.quad	.LBB42_2
	.quad	.LBB42_8
	.quad	.LBB42_11
	.quad	.LBB42_17
	.quad	.LBB42_17

	.text
	.align	16, 0x90
	.type	output_104,@function
output_104:                             # @output_104
	.cfi_startproc
# BB#0:                                 # %entry
	pushq	%rbx
.Ltmp181:
	.cfi_def_cfa_offset 16
.Ltmp182:
	.cfi_offset %rbx, -16
	movl	which_alternative(%rip), %edx
	movq	%rsi, %rcx
	movq	%rdi, %rbx
	cmpq	$4, %rdx
	ja	.LBB43_15
# BB#1:                                 # %entry
	movabsq	$.L.str38, %rax
	jmpq	*.LJTI43_0(,%rdx,8)
.LBB43_2:                               # %sw.bb
	movq	8(%rbx), %rax
	movzbl	(%rax), %edx
	cmpq	$61, %rdx
	jne	.LBB43_5
# BB#3:                                 # %land.lhs.true
	movl	8(%rax), %edx
	movq	$1, %rsi
	movq	%rcx, %rdi
	callq	find_regno_note
	testq	%rax, %rax
	je	.LBB43_5
# BB#4:
	movabsq	$.L.str1781, %rax
	popq	%rbx
	retq
.LBB43_8:                               # %sw.bb15
	movq	8(%rbx), %rax
	movl	8(%rax), %edx
	movq	$1, %rsi
	movq	%rcx, %rdi
	callq	find_regno_note
	testq	%rax, %rax
	je	.LBB43_9
# BB#10:                                # %sw.bb15
	movabsq	$.L.str1779, %rax
	popq	%rbx
	retq
.LBB43_11:                              # %sw.bb24
	movq	8(%rbx), %rdi
	callq	standard_80387_constant_p
	movabsq	$4294967295, %rcx       # imm = 0xFFFFFFFF
	andq	%rax, %rcx
	cmpq	$1, %rcx
	jne	.LBB43_13
# BB#12:
	movabsq	$.L.str1799, %rax
	popq	%rbx
	retq
.LBB43_5:                               # %if.else
	movq	(%rbx), %rax
	movzbl	(%rax), %ecx
	cmpq	$61, %rcx
	jne	.LBB43_16
# BB#6:                                 # %land.lhs.true7
	movl	8(%rax), %eax
	cmpq	$8, %rax
	jne	.LBB43_16
# BB#7:
	movabsq	$.L.str1782, %rax
	popq	%rbx
	retq
.LBB43_16:                              # %if.else14
	movabsq	$.L.str1783, %rax
.LBB43_17:                              # %return
	popq	%rbx
	retq
.LBB43_9:
	movabsq	$.L.str1784, %rax
	popq	%rbx
	retq
.LBB43_13:                              # %sw.bb24
	cmpq	$2, %rcx
	jne	.LBB43_15
# BB#14:                                # %sw.bb28
	movabsq	$.L.str1800, %rax
	popq	%rbx
	retq
.LBB43_15:                              # %sw.epilog30
	movabsq	$.L.str1644, %rdi
	movabsq	$.L__FUNCTION__.output_104, %rdx
	movq	$1131, %rsi             # imm = 0x46B
	callq	fancy_abort
.Ltmp183:
	.size	output_104, .Ltmp183-output_104
	.cfi_endproc
	.section	.rodata,"a",@progbits
	.align	8
.LJTI43_0:
	.quad	.LBB43_2
	.quad	.LBB43_8
	.quad	.LBB43_11
	.quad	.LBB43_17
	.quad	.LBB43_17

	.text
	.align	16, 0x90
	.type	output_105,@function
output_105:                             # @output_105
	.cfi_startproc
# BB#0:                                 # %entry
	movq	(%rdi), %rax
	movzbl	(%rax), %ecx
	cmpq	$61, %rcx
	jne	.LBB44_3
# BB#1:                                 # %land.lhs.true
	movl	8(%rax), %eax
	cmpq	$8, %rax
	jne	.LBB44_3
# BB#2:
	movabsq	$.L.str1797, %rax
	retq
.LBB44_3:                               # %if.else
	movabsq	$.L.str1798, %rax
	retq
.Ltmp184:
	.size	output_105, .Ltmp184-output_105
	.cfi_endproc

	.align	16, 0x90
	.type	output_106,@function
output_106:                             # @output_106
	.cfi_startproc
# BB#0:                                 # %entry
	movq	(%rdi), %rax
	movzbl	(%rax), %ecx
	cmpq	$61, %rcx
	jne	.LBB45_3
# BB#1:                                 # %land.lhs.true
	movl	8(%rax), %eax
	cmpq	$8, %rax
	jne	.LBB45_3
# BB#2:
	movabsq	$.L.str1797, %rax
	retq
.LBB45_3:                               # %if.else
	movabsq	$.L.str1798, %rax
	retq
.Ltmp185:
	.size	output_106, .Ltmp185-output_106
	.cfi_endproc

	.align	16, 0x90
	.type	output_123,@function
output_123:                             # @output_123
	.cfi_startproc
# BB#0:                                 # %entry
	pushq	%rax
.Ltmp187:
	.cfi_def_cfa_offset 16
	movq	%rsi, %rdi
	callq	get_attr_prefix_0f
	movabsq	$4294967295, %rcx       # imm = 0xFFFFFFFF
	testq	%rcx, %rax
	je	.LBB46_1
# BB#2:                                 # %entry
	movabsq	$.L.str1789, %rax
	popq	%rdx
	retq
.LBB46_1:
	movabsq	$.L.str1787, %rax
	popq	%rdx
	retq
.Ltmp188:
	.size	output_123, .Ltmp188-output_123
	.cfi_endproc

	.align	16, 0x90
	.type	output_124,@function
output_124:                             # @output_124
	.cfi_startproc
# BB#0:                                 # %entry
	pushq	%rax
.Ltmp190:
	.cfi_def_cfa_offset 16
	movq	%rsi, %rdi
	callq	get_attr_prefix_0f
	movabsq	$4294967295, %rcx       # imm = 0xFFFFFFFF
	testq	%rcx, %rax
	je	.LBB47_1
# BB#2:                                 # %entry
	movabsq	$.L.str1788, %rax
	popq	%rdx
	retq
.LBB47_1:
	movabsq	$.L.str1787, %rax
	popq	%rdx
	retq
.Ltmp191:
	.size	output_124, .Ltmp191-output_124
	.cfi_endproc

	.align	16, 0x90
	.type	output_125,@function
output_125:                             # @output_125
	.cfi_startproc
# BB#0:                                 # %entry
	pushq	%rax
.Ltmp193:
	.cfi_def_cfa_offset 16
	movq	%rsi, %rdi
	callq	get_attr_prefix_0f
	movabsq	$4294967295, %rcx       # imm = 0xFFFFFFFF
	testq	%rcx, %rax
	je	.LBB48_1
# BB#2:                                 # %entry
	movabsq	$.L.str1786, %rax
	popq	%rdx
	retq
.LBB48_1:
	movabsq	$.L.str1785, %rax
	popq	%rdx
	retq
.Ltmp194:
	.size	output_125, .Ltmp194-output_125
	.cfi_endproc

	.align	16, 0x90
	.type	output_133,@function
output_133:                             # @output_133
	.cfi_startproc
# BB#0:                                 # %entry
	pushq	%rbx
.Ltmp197:
	.cfi_def_cfa_offset 16
.Ltmp198:
	.cfi_offset %rbx, -16
	movl	which_alternative(%rip), %ecx
	movq	%rsi, %rax
	movq	%rdi, %rbx
	cmpq	$2, %rcx
	je	.LBB49_1
# BB#2:                                 # %entry
	cmpq	$1, %rcx
	jne	.LBB49_3
# BB#10:                                # %sw.bb15
	movq	8(%rbx), %rcx
	movl	8(%rcx), %edx
	movq	$1, %rsi
	movq	%rax, %rdi
	callq	find_regno_note
	testq	%rax, %rax
	je	.LBB49_11
# BB#12:                                # %sw.bb15
	movabsq	$.L.str1779, %rax
	popq	%rbx
	retq
.LBB49_1:
	movabsq	$.L.str174, %rax
	popq	%rbx
	retq
.LBB49_3:                               # %entry
	testq	%rcx, %rcx
	jne	.LBB49_13
# BB#4:                                 # %sw.bb
	movq	8(%rbx), %rcx
	movzbl	(%rcx), %edx
	cmpq	$61, %rdx
	jne	.LBB49_7
# BB#5:                                 # %land.lhs.true
	movl	8(%rcx), %edx
	movq	$1, %rsi
	movq	%rax, %rdi
	callq	find_regno_note
	testq	%rax, %rax
	je	.LBB49_7
# BB#6:
	movabsq	$.L.str1781, %rax
	popq	%rbx
	retq
.LBB49_7:                               # %if.else
	movq	(%rbx), %rax
	movzbl	(%rax), %ecx
	cmpq	$61, %rcx
	jne	.LBB49_14
# BB#8:                                 # %land.lhs.true7
	movl	8(%rax), %eax
	cmpq	$8, %rax
	jne	.LBB49_14
# BB#9:
	movabsq	$.L.str1782, %rax
	popq	%rbx
	retq
.LBB49_14:                              # %if.else14
	movabsq	$.L.str1783, %rax
	popq	%rbx
	retq
.LBB49_11:
	movabsq	$.L.str1780, %rax
	popq	%rbx
	retq
.LBB49_13:                              # %sw.default
	movabsq	$.L.str1644, %rax
	movabsq	$.L__FUNCTION__.output_133, %rcx
	movq	$1268, %rsi             # imm = 0x4F4
	movq	%rax, %rdi
	movq	%rcx, %rdx
	callq	fancy_abort
.Ltmp199:
	.size	output_133, .Ltmp199-output_133
	.cfi_endproc

	.align	16, 0x90
	.type	output_135,@function
output_135:                             # @output_135
	.cfi_startproc
# BB#0:                                 # %entry
	pushq	%rbx
.Ltmp202:
	.cfi_def_cfa_offset 16
.Ltmp203:
	.cfi_offset %rbx, -16
	movl	which_alternative(%rip), %ecx
	movq	%rsi, %rax
	movq	%rdi, %rbx
	cmpq	$1, %rcx
	jne	.LBB50_1
# BB#8:                                 # %sw.bb15
	movq	8(%rbx), %rcx
	movl	8(%rcx), %edx
	movq	$1, %rsi
	movq	%rax, %rdi
	callq	find_regno_note
	testq	%rax, %rax
	je	.LBB50_9
# BB#10:                                # %sw.bb15
	movabsq	$.L.str1779, %rax
	popq	%rbx
	retq
.LBB50_1:                               # %entry
	testq	%rcx, %rcx
	jne	.LBB50_11
# BB#2:                                 # %sw.bb
	movq	8(%rbx), %rcx
	movzbl	(%rcx), %edx
	cmpq	$61, %rdx
	jne	.LBB50_5
# BB#3:                                 # %land.lhs.true
	movl	8(%rcx), %edx
	movq	$1, %rsi
	movq	%rax, %rdi
	callq	find_regno_note
	testq	%rax, %rax
	je	.LBB50_5
# BB#4:
	movabsq	$.L.str1781, %rax
	popq	%rbx
	retq
.LBB50_5:                               # %if.else
	movq	(%rbx), %rax
	movzbl	(%rax), %ecx
	cmpq	$61, %rcx
	jne	.LBB50_12
# BB#6:                                 # %land.lhs.true7
	movl	8(%rax), %eax
	cmpq	$8, %rax
	jne	.LBB50_12
# BB#7:
	movabsq	$.L.str1782, %rax
	popq	%rbx
	retq
.LBB50_12:                              # %if.else14
	movabsq	$.L.str1783, %rax
	popq	%rbx
	retq
.LBB50_9:
	movabsq	$.L.str1784, %rax
	popq	%rbx
	retq
.LBB50_11:                              # %sw.default
	movabsq	$.L.str1644, %rax
	movabsq	$.L__FUNCTION__.output_135, %rcx
	movq	$1301, %rsi             # imm = 0x515
	movq	%rax, %rdi
	movq	%rcx, %rdx
	callq	fancy_abort
.Ltmp204:
	.size	output_135, .Ltmp204-output_135
	.cfi_endproc

	.align	16, 0x90
	.type	output_136,@function
output_136:                             # @output_136
	.cfi_startproc
# BB#0:                                 # %entry
	pushq	%rbx
.Ltmp207:
	.cfi_def_cfa_offset 16
.Ltmp208:
	.cfi_offset %rbx, -16
	movl	which_alternative(%rip), %ecx
	movq	%rsi, %rax
	movq	%rdi, %rbx
	cmpq	$1, %rcx
	jne	.LBB51_1
# BB#8:                                 # %sw.bb15
	movq	8(%rbx), %rcx
	movl	8(%rcx), %edx
	movq	$1, %rsi
	movq	%rax, %rdi
	callq	find_regno_note
	testq	%rax, %rax
	je	.LBB51_9
# BB#10:                                # %sw.bb15
	movabsq	$.L.str1779, %rax
	popq	%rbx
	retq
.LBB51_1:                               # %entry
	testq	%rcx, %rcx
	jne	.LBB51_11
# BB#2:                                 # %sw.bb
	movq	8(%rbx), %rcx
	movzbl	(%rcx), %edx
	cmpq	$61, %rdx
	jne	.LBB51_5
# BB#3:                                 # %land.lhs.true
	movl	8(%rcx), %edx
	movq	$1, %rsi
	movq	%rax, %rdi
	callq	find_regno_note
	testq	%rax, %rax
	je	.LBB51_5
# BB#4:
	movabsq	$.L.str1781, %rax
	popq	%rbx
	retq
.LBB51_5:                               # %if.else
	movq	(%rbx), %rax
	movzbl	(%rax), %ecx
	cmpq	$61, %rcx
	jne	.LBB51_12
# BB#6:                                 # %land.lhs.true7
	movl	8(%rax), %eax
	cmpq	$8, %rax
	jne	.LBB51_12
# BB#7:
	movabsq	$.L.str1782, %rax
	popq	%rbx
	retq
.LBB51_12:                              # %if.else14
	movabsq	$.L.str1783, %rax
	popq	%rbx
	retq
.LBB51_9:
	movabsq	$.L.str1784, %rax
	popq	%rbx
	retq
.LBB51_11:                              # %sw.default
	movabsq	$.L.str1644, %rax
	movabsq	$.L__FUNCTION__.output_136, %rcx
	movq	$1334, %rsi             # imm = 0x536
	movq	%rax, %rdi
	movq	%rcx, %rdx
	callq	fancy_abort
.Ltmp209:
	.size	output_136, .Ltmp209-output_136
	.cfi_endproc

	.align	16, 0x90
	.type	output_137,@function
output_137:                             # @output_137
	.cfi_startproc
# BB#0:                                 # %entry
	pushq	%rbx
.Ltmp212:
	.cfi_def_cfa_offset 16
.Ltmp213:
	.cfi_offset %rbx, -16
	movl	which_alternative(%rip), %ecx
	movq	%rsi, %rax
	movq	%rdi, %rbx
	cmpq	$1, %rcx
	jne	.LBB52_1
# BB#8:                                 # %sw.bb15
	movq	8(%rbx), %rcx
	movl	8(%rcx), %edx
	movq	$1, %rsi
	movq	%rax, %rdi
	callq	find_regno_note
	testq	%rax, %rax
	je	.LBB52_9
# BB#10:                                # %sw.bb15
	movabsq	$.L.str1779, %rax
	popq	%rbx
	retq
.LBB52_1:                               # %entry
	testq	%rcx, %rcx
	jne	.LBB52_11
# BB#2:                                 # %sw.bb
	movq	8(%rbx), %rcx
	movzbl	(%rcx), %edx
	cmpq	$61, %rdx
	jne	.LBB52_5
# BB#3:                                 # %land.lhs.true
	movl	8(%rcx), %edx
	movq	$1, %rsi
	movq	%rax, %rdi
	callq	find_regno_note
	testq	%rax, %rax
	je	.LBB52_5
# BB#4:
	movabsq	$.L.str1781, %rax
	popq	%rbx
	retq
.LBB52_5:                               # %if.else
	movq	(%rbx), %rax
	movzbl	(%rax), %ecx
	cmpq	$61, %rcx
	jne	.LBB52_12
# BB#6:                                 # %land.lhs.true7
	movl	8(%rax), %eax
	cmpq	$8, %rax
	jne	.LBB52_12
# BB#7:
	movabsq	$.L.str1782, %rax
	popq	%rbx
	retq
.LBB52_12:                              # %if.else14
	movabsq	$.L.str1783, %rax
	popq	%rbx
	retq
.LBB52_9:
	movabsq	$.L.str1784, %rax
	popq	%rbx
	retq
.LBB52_11:                              # %sw.default
	movabsq	$.L.str1644, %rax
	movabsq	$.L__FUNCTION__.output_137, %rcx
	movq	$1367, %rsi             # imm = 0x557
	movq	%rax, %rdi
	movq	%rcx, %rdx
	callq	fancy_abort
.Ltmp214:
	.size	output_137, .Ltmp214-output_137
	.cfi_endproc

	.align	16, 0x90
	.type	output_138,@function
output_138:                             # @output_138
	.cfi_startproc
# BB#0:                                 # %entry
	pushq	%rbx
.Ltmp217:
	.cfi_def_cfa_offset 16
.Ltmp218:
	.cfi_offset %rbx, -16
	movl	which_alternative(%rip), %ecx
	movq	%rsi, %rax
	movq	%rdi, %rbx
	cmpq	$1, %rcx
	jne	.LBB53_1
# BB#8:                                 # %sw.bb15
	movq	8(%rbx), %rcx
	movl	8(%rcx), %edx
	movq	$1, %rsi
	movq	%rax, %rdi
	callq	find_regno_note
	testq	%rax, %rax
	je	.LBB53_9
# BB#10:                                # %sw.bb15
	movabsq	$.L.str1779, %rax
	popq	%rbx
	retq
.LBB53_1:                               # %entry
	testq	%rcx, %rcx
	jne	.LBB53_11
# BB#2:                                 # %sw.bb
	movq	8(%rbx), %rcx
	movzbl	(%rcx), %edx
	cmpq	$61, %rdx
	jne	.LBB53_5
# BB#3:                                 # %land.lhs.true
	movl	8(%rcx), %edx
	movq	$1, %rsi
	movq	%rax, %rdi
	callq	find_regno_note
	testq	%rax, %rax
	je	.LBB53_5
# BB#4:
	movabsq	$.L.str1781, %rax
	popq	%rbx
	retq
.LBB53_5:                               # %if.else
	movq	(%rbx), %rax
	movzbl	(%rax), %ecx
	cmpq	$61, %rcx
	jne	.LBB53_12
# BB#6:                                 # %land.lhs.true7
	movl	8(%rax), %eax
	cmpq	$8, %rax
	jne	.LBB53_12
# BB#7:
	movabsq	$.L.str1782, %rax
	popq	%rbx
	retq
.LBB53_12:                              # %if.else14
	movabsq	$.L.str1783, %rax
	popq	%rbx
	retq
.LBB53_9:
	movabsq	$.L.str1784, %rax
	popq	%rbx
	retq
.LBB53_11:                              # %sw.default
	movabsq	$.L.str1644, %rax
	movabsq	$.L__FUNCTION__.output_138, %rcx
	movq	$1400, %rsi             # imm = 0x578
	movq	%rax, %rdi
	movq	%rcx, %rdx
	callq	fancy_abort
.Ltmp219:
	.size	output_138, .Ltmp219-output_138
	.cfi_endproc

	.align	16, 0x90
	.type	output_139,@function
output_139:                             # @output_139
	.cfi_startproc
# BB#0:                                 # %entry
	pushq	%rax
.Ltmp221:
	.cfi_def_cfa_offset 16
	movl	which_alternative(%rip), %ecx
	movq	%rsi, %rax
	testq	%rcx, %rcx
	jne	.LBB54_5
# BB#1:                                 # %sw.bb
	movq	8(%rdi), %rcx
	movl	8(%rcx), %edx
	movq	$1, %rsi
	movq	%rax, %rdi
	callq	find_regno_note
	testq	%rax, %rax
	je	.LBB54_2
# BB#3:                                 # %sw.bb
	movabsq	$.L.str1779, %rax
	popq	%rdx
	retq
.LBB54_2:
	movabsq	$.L.str1780, %rax
	popq	%rdx
	retq
.LBB54_5:                               # %sw.default
	movabsq	$.L.str1644, %rax
	movabsq	$.L__FUNCTION__.output_139, %rcx
	movq	$1421, %rsi             # imm = 0x58D
	movq	%rax, %rdi
	movq	%rcx, %rdx
	callq	fancy_abort
.Ltmp222:
	.size	output_139, .Ltmp222-output_139
	.cfi_endproc

	.align	16, 0x90
	.type	output_140,@function
output_140:                             # @output_140
	.cfi_startproc
# BB#0:                                 # %entry
	pushq	%rax
.Ltmp224:
	.cfi_def_cfa_offset 16
	movl	which_alternative(%rip), %ecx
	movq	%rsi, %rax
	cmpq	$4, %rcx
	jne	.LBB55_2
# BB#1:
	movabsq	$.L.str184, %rax
	popq	%rdx
	retq
.LBB55_2:                               # %entry
	testq	%rcx, %rcx
	jne	.LBB55_7
# BB#3:                                 # %sw.bb
	movq	8(%rdi), %rcx
	movl	8(%rcx), %edx
	movq	$1, %rsi
	movq	%rax, %rdi
	callq	find_regno_note
	testq	%rax, %rax
	je	.LBB55_4
# BB#5:                                 # %sw.bb
	movabsq	$.L.str1779, %rax
	popq	%rdx
	retq
.LBB55_4:
	movabsq	$.L.str1780, %rax
	popq	%rdx
	retq
.LBB55_7:                               # %sw.default
	movabsq	$.L.str1644, %rax
	movabsq	$.L__FUNCTION__.output_140, %rcx
	movq	$1444, %rsi             # imm = 0x5A4
	movq	%rax, %rdi
	movq	%rcx, %rdx
	callq	fancy_abort
.Ltmp225:
	.size	output_140, .Ltmp225-output_140
	.cfi_endproc

	.align	16, 0x90
	.type	output_141,@function
output_141:                             # @output_141
	.cfi_startproc
# BB#0:                                 # %entry
	pushq	%rax
.Ltmp227:
	.cfi_def_cfa_offset 16
	movl	which_alternative(%rip), %ecx
	movq	%rsi, %rax
	testq	%rcx, %rcx
	jne	.LBB56_2
# BB#1:
	movabsq	$.L.str184, %rax
	popq	%rdx
	retq
.LBB56_2:                               # %entry
	cmpq	$1, %rcx
	jne	.LBB56_7
# BB#3:                                 # %sw.bb1
	movq	8(%rdi), %rcx
	movl	8(%rcx), %edx
	movq	$1, %rsi
	movq	%rax, %rdi
	callq	find_regno_note
	testq	%rax, %rax
	je	.LBB56_4
# BB#5:                                 # %sw.bb1
	movabsq	$.L.str1779, %rax
	popq	%rdx
	retq
.LBB56_4:
	movabsq	$.L.str1780, %rax
	popq	%rdx
	retq
.LBB56_7:                               # %sw.default
	movabsq	$.L.str1644, %rax
	movabsq	$.L__FUNCTION__.output_141, %rcx
	movq	$1467, %rsi             # imm = 0x5BB
	movq	%rax, %rdi
	movq	%rcx, %rdx
	callq	fancy_abort
.Ltmp228:
	.size	output_141, .Ltmp228-output_141
	.cfi_endproc

	.align	16, 0x90
	.type	output_142,@function
output_142:                             # @output_142
	.cfi_startproc
# BB#0:                                 # %entry
	pushq	%rax
.Ltmp230:
	.cfi_def_cfa_offset 16
	movq	8(%rdi), %rax
	movl	8(%rax), %edx
	movq	%rsi, %rax
	movq	$1, %rsi
	movq	%rax, %rdi
	callq	find_regno_note
	testq	%rax, %rax
	je	.LBB57_1
# BB#2:                                 # %entry
	movabsq	$.L.str1779, %rax
	popq	%rdx
	retq
.LBB57_1:
	movabsq	$.L.str1780, %rax
	popq	%rdx
	retq
.Ltmp231:
	.size	output_142, .Ltmp231-output_142
	.cfi_endproc

	.align	16, 0x90
	.type	output_144,@function
output_144:                             # @output_144
	.cfi_startproc
# BB#0:                                 # %entry
	pushq	%rax
.Ltmp233:
	.cfi_def_cfa_offset 16
	movl	which_alternative(%rip), %ecx
	movq	%rsi, %rax
	testq	%rcx, %rcx
	jne	.LBB58_5
# BB#1:                                 # %sw.bb
	movq	8(%rdi), %rcx
	movl	8(%rcx), %edx
	movq	$1, %rsi
	movq	%rax, %rdi
	callq	find_regno_note
	testq	%rax, %rax
	je	.LBB58_2
# BB#3:                                 # %sw.bb
	movabsq	$.L.str1779, %rax
	popq	%rdx
	retq
.LBB58_2:
	movabsq	$.L.str1780, %rax
	popq	%rdx
	retq
.LBB58_5:                               # %sw.default
	movabsq	$.L.str1644, %rax
	movabsq	$.L__FUNCTION__.output_144, %rcx
	movq	$1503, %rsi             # imm = 0x5DF
	movq	%rax, %rdi
	movq	%rcx, %rdx
	callq	fancy_abort
.Ltmp234:
	.size	output_144, .Ltmp234-output_144
	.cfi_endproc

	.align	16, 0x90
	.type	output_145,@function
output_145:                             # @output_145
	.cfi_startproc
# BB#0:                                 # %entry
	pushq	%rax
.Ltmp236:
	.cfi_def_cfa_offset 16
	movq	8(%rdi), %rax
	movl	8(%rax), %edx
	movq	%rsi, %rax
	movq	$1, %rsi
	movq	%rax, %rdi
	callq	find_regno_note
	testq	%rax, %rax
	je	.LBB59_1
# BB#2:                                 # %entry
	movabsq	$.L.str1779, %rax
	popq	%rdx
	retq
.LBB59_1:
	movabsq	$.L.str1780, %rax
	popq	%rdx
	retq
.Ltmp237:
	.size	output_145, .Ltmp237-output_145
	.cfi_endproc

	.align	16, 0x90
	.type	output_146,@function
output_146:                             # @output_146
	.cfi_startproc
# BB#0:                                 # %entry
	pushq	%rax
.Ltmp239:
	.cfi_def_cfa_offset 16
	movl	which_alternative(%rip), %ecx
	movq	%rsi, %rax
	testq	%rcx, %rcx
	jne	.LBB60_5
# BB#1:                                 # %sw.bb
	movq	8(%rdi), %rcx
	movl	8(%rcx), %edx
	movq	$1, %rsi
	movq	%rax, %rdi
	callq	find_regno_note
	testq	%rax, %rax
	je	.LBB60_2
# BB#3:                                 # %sw.bb
	movabsq	$.L.str1779, %rax
	popq	%rdx
	retq
.LBB60_2:
	movabsq	$.L.str1780, %rax
	popq	%rdx
	retq
.LBB60_5:                               # %sw.default
	movabsq	$.L.str1644, %rax
	movabsq	$.L__FUNCTION__.output_146, %rcx
	movq	$1539, %rsi             # imm = 0x603
	movq	%rax, %rdi
	movq	%rcx, %rdx
	callq	fancy_abort
.Ltmp240:
	.size	output_146, .Ltmp240-output_146
	.cfi_endproc

	.align	16, 0x90
	.type	output_147,@function
output_147:                             # @output_147
	.cfi_startproc
# BB#0:                                 # %entry
	pushq	%rax
.Ltmp242:
	.cfi_def_cfa_offset 16
	movq	8(%rdi), %rax
	movl	8(%rax), %edx
	movq	%rsi, %rax
	movq	$1, %rsi
	movq	%rax, %rdi
	callq	find_regno_note
	testq	%rax, %rax
	je	.LBB61_1
# BB#2:                                 # %entry
	movabsq	$.L.str1779, %rax
	popq	%rdx
	retq
.LBB61_1:
	movabsq	$.L.str1780, %rax
	popq	%rdx
	retq
.Ltmp243:
	.size	output_147, .Ltmp243-output_147
	.cfi_endproc

	.align	16, 0x90
	.type	output_148,@function
output_148:                             # @output_148
	.cfi_startproc
# BB#0:                                 # %entry
	pushq	%rax
.Ltmp245:
	.cfi_def_cfa_offset 16
	movl	which_alternative(%rip), %ecx
	movq	%rsi, %rax
	testq	%rcx, %rcx
	jne	.LBB62_5
# BB#1:                                 # %sw.bb
	movq	8(%rdi), %rcx
	movl	8(%rcx), %edx
	movq	$1, %rsi
	movq	%rax, %rdi
	callq	find_regno_note
	testq	%rax, %rax
	je	.LBB62_2
# BB#3:                                 # %sw.bb
	movabsq	$.L.str1779, %rax
	popq	%rdx
	retq
.LBB62_2:
	movabsq	$.L.str1780, %rax
	popq	%rdx
	retq
.LBB62_5:                               # %sw.default
	movabsq	$.L.str1644, %rax
	movabsq	$.L__FUNCTION__.output_148, %rcx
	movq	$1575, %rsi             # imm = 0x627
	movq	%rax, %rdi
	movq	%rcx, %rdx
	callq	fancy_abort
.Ltmp246:
	.size	output_148, .Ltmp246-output_148
	.cfi_endproc

	.align	16, 0x90
	.type	output_149,@function
output_149:                             # @output_149
	.cfi_startproc
# BB#0:                                 # %entry
	pushq	%rax
.Ltmp248:
	.cfi_def_cfa_offset 16
	movq	8(%rdi), %rax
	movl	8(%rax), %edx
	movq	%rsi, %rax
	movq	$1, %rsi
	movq	%rax, %rdi
	callq	find_regno_note
	testq	%rax, %rax
	je	.LBB63_1
# BB#2:                                 # %entry
	movabsq	$.L.str1779, %rax
	popq	%rdx
	retq
.LBB63_1:
	movabsq	$.L.str1780, %rax
	popq	%rdx
	retq
.Ltmp249:
	.size	output_149, .Ltmp249-output_149
	.cfi_endproc

	.align	16, 0x90
	.type	output_150,@function
output_150:                             # @output_150
	.cfi_startproc
# BB#0:                                 # %entry
	pushq	%rax
.Ltmp251:
	.cfi_def_cfa_offset 16
	movl	which_alternative(%rip), %ecx
	movq	%rsi, %rax
	testq	%rcx, %rcx
	jne	.LBB64_5
# BB#1:                                 # %sw.bb
	movq	8(%rdi), %rcx
	movl	8(%rcx), %edx
	movq	$1, %rsi
	movq	%rax, %rdi
	callq	find_regno_note
	testq	%rax, %rax
	je	.LBB64_2
# BB#3:                                 # %sw.bb
	movabsq	$.L.str1779, %rax
	popq	%rdx
	retq
.LBB64_2:
	movabsq	$.L.str1780, %rax
	popq	%rdx
	retq
.LBB64_5:                               # %sw.default
	movabsq	$.L.str1644, %rax
	movabsq	$.L__FUNCTION__.output_150, %rcx
	movq	$1612, %rsi             # imm = 0x64C
	movq	%rax, %rdi
	movq	%rcx, %rdx
	callq	fancy_abort
.Ltmp252:
	.size	output_150, .Ltmp252-output_150
	.cfi_endproc

	.align	16, 0x90
	.type	output_151,@function
output_151:                             # @output_151
	.cfi_startproc
# BB#0:                                 # %entry
	pushq	%rax
.Ltmp254:
	.cfi_def_cfa_offset 16
	movq	8(%rdi), %rax
	movl	8(%rax), %edx
	movq	%rsi, %rax
	movq	$1, %rsi
	movq	%rax, %rdi
	callq	find_regno_note
	testq	%rax, %rax
	je	.LBB65_1
# BB#2:                                 # %entry
	movabsq	$.L.str1779, %rax
	popq	%rdx
	retq
.LBB65_1:
	movabsq	$.L.str1780, %rax
	popq	%rdx
	retq
.Ltmp255:
	.size	output_151, .Ltmp255-output_151
	.cfi_endproc

	.align	16, 0x90
	.type	output_154,@function
output_154:                             # @output_154
	.cfi_startproc
# BB#0:                                 # %entry
	movq	%rdi, %rax
	movq	32(%rax), %rcx
	movq	%rcx, 40(%rax)
	movq	%rsi, %rdi
	movq	%rax, %rsi
	jmp	output_fix_trunc  # TAILCALL
.Ltmp256:
	.size	output_154, .Ltmp256-output_154
	.cfi_endproc

	.align	16, 0x90
	.type	output_159,@function
output_159:                             # @output_159
	.cfi_startproc
# BB#0:                                 # %entry
	movq	%rdi, %rax
	movq	%rsi, %rdi
	movq	%rax, %rsi
	jmp	output_fix_trunc  # TAILCALL
.Ltmp257:
	.size	output_159, .Ltmp257-output_159
	.cfi_endproc

	.align	16, 0x90
	.type	output_164,@function
output_164:                             # @output_164
	.cfi_startproc
# BB#0:                                 # %entry
	movq	%rdi, %rax
	movq	%rsi, %rdi
	movq	%rax, %rsi
	jmp	output_fix_trunc  # TAILCALL
.Ltmp258:
	.size	output_164, .Ltmp258-output_164
	.cfi_endproc

	.align	16, 0x90
	.type	output_202,@function
output_202:                             # @output_202
	.cfi_startproc
# BB#0:                                 # %entry
	pushq	%r15
.Ltmp263:
	.cfi_def_cfa_offset 16
	pushq	%r14
.Ltmp264:
	.cfi_def_cfa_offset 24
	pushq	%rbx
.Ltmp265:
	.cfi_def_cfa_offset 32
.Ltmp266:
	.cfi_offset %rbx, -32
.Ltmp267:
	.cfi_offset %r14, -24
.Ltmp268:
	.cfi_offset %r15, -16
	movq	%rsi, %rbx
	movq	%rdi, %r14
	movq	%rbx, %rdi
	callq	get_attr_type
	movabsq	$4294967295, %r15       # imm = 0xFFFFFFFF
	andq	%r15, %rax
	cmpq	$10, %rax
	jne	.LBB69_1
# BB#3:                                 # %sw.bb8
	movq	(%r14), %rdi
	movq	8(%r14), %rsi
	callq	rtx_equal_p
	testq	%r15, %rax
	je	.LBB69_4
# BB#6:                                 # %if.end
	movq	16(%r14), %rax
	movq	const_int_rtx+520(%rip), %rcx
	cmpq	%rcx, %rax
	je	.LBB69_7
# BB#8:                                 # %if.else
	movq	const_int_rtx+504(%rip), %rcx
	cmpq	%rcx, %rax
	jne	.LBB69_10
# BB#9:
	movabsq	$.L.str1777, %rax
	jmp	.LBB69_19
.LBB69_1:                               # %entry
	cmpq	$9, %rax
	jne	.LBB69_11
# BB#2:                                 # %sw.bb
	movq	32(%rbx), %rax
	movq	8(%rax), %rax
	movq	8(%rax), %rax
	movq	16(%rax), %rax
	movq	%rax, 16(%r14)
	movabsq	$.L.str1663, %rax
	jmp	.LBB69_19
.LBB69_11:                              # %sw.default
	movq	(%r14), %rdi
	movq	8(%r14), %rsi
	callq	rtx_equal_p
	testq	%r15, %rax
	je	.LBB69_12
# BB#13:                                # %if.end23
	movq	16(%r14), %rcx
	movzbl	(%rcx), %eax
	cmpq	$54, %rax
	movabsq	$.L.str240, %rax
	jne	.LBB69_19
# BB#14:                                # %land.lhs.true
	movq	8(%rcx), %rsi
	testq	$2147483647, %rsi       # imm = 0x7FFFFFFF
	je	.LBB69_19
# BB#15:                                # %land.lhs.true30
	cmpq	$128, %rsi
	je	.LBB69_18
# BB#16:                                # %lor.lhs.false
	testq	%rsi, %rsi
	jns	.LBB69_19
# BB#17:                                # %lor.lhs.false
	cmpq	$-128, %rsi
	je	.LBB69_19
.LBB69_18:                              # %if.then47
	negq	%rsi
	xorq	%rdi, %rdi
	callq	gen_rtx_CONST_INT
	movq	%rax, 16(%r14)
	movabsq	$.L.str295, %rax
	jmp	.LBB69_19
.LBB69_7:
	movabsq	$.L.str1776, %rax
.LBB69_19:                              # %return
	popq	%rbx
	popq	%r14
	popq	%r15
	retq
.LBB69_4:                               # %if.then
	movabsq	$.L.str1644, %rax
	movabsq	$.L__FUNCTION__.output_202, %rcx
	movq	$1753, %rsi             # imm = 0x6D9
	jmp	.LBB69_5
.LBB69_10:                              # %if.else17
	movabsq	$.L.str1644, %rax
	movabsq	$.L__FUNCTION__.output_202, %rcx
	movq	$1759, %rsi             # imm = 0x6DF
	jmp	.LBB69_5
.LBB69_12:                              # %if.then22
	movabsq	$.L.str1644, %rax
	movabsq	$.L__FUNCTION__.output_202, %rcx
	movq	$1763, %rsi             # imm = 0x6E3
.LBB69_5:                               # %if.then
	movq	%rax, %rdi
	movq	%rcx, %rdx
	callq	fancy_abort
.Ltmp269:
	.size	output_202, .Ltmp269-output_202
	.cfi_endproc

	.align	16, 0x90
	.type	output_203,@function
output_203:                             # @output_203
	.cfi_startproc
# BB#0:                                 # %entry
	pushq	%r15
.Ltmp274:
	.cfi_def_cfa_offset 16
	pushq	%r14
.Ltmp275:
	.cfi_def_cfa_offset 24
	pushq	%rbx
.Ltmp276:
	.cfi_def_cfa_offset 32
.Ltmp277:
	.cfi_offset %rbx, -32
.Ltmp278:
	.cfi_offset %r14, -24
.Ltmp279:
	.cfi_offset %r15, -16
	movq	%rdi, %r14
	movq	%rsi, %rdi
	callq	get_attr_type
	movq	(%r14), %rdi
	movq	8(%r14), %rsi
	movq	%rax, %rbx
	movabsq	$4294967295, %r15       # imm = 0xFFFFFFFF
	andq	%r15, %rbx
	callq	rtx_equal_p
	cmpq	$10, %rbx
	jne	.LBB70_9
# BB#1:                                 # %sw.bb
	testq	%r15, %rax
	je	.LBB70_2
# BB#4:                                 # %if.end
	movq	16(%r14), %rax
	movq	const_int_rtx+520(%rip), %rcx
	cmpq	%rcx, %rax
	je	.LBB70_5
# BB#6:                                 # %if.else
	movq	const_int_rtx+504(%rip), %rcx
	cmpq	%rcx, %rax
	jne	.LBB70_8
# BB#7:
	movabsq	$.L.str1777, %rax
	jmp	.LBB70_17
.LBB70_9:                               # %sw.default
	testq	%r15, %rax
	je	.LBB70_10
# BB#11:                                # %if.end14
	movq	16(%r14), %rcx
	movzbl	(%rcx), %eax
	cmpq	$54, %rax
	movabsq	$.L.str240, %rax
	jne	.LBB70_17
# BB#12:                                # %land.lhs.true
	movq	8(%rcx), %rsi
	testq	$2147483647, %rsi       # imm = 0x7FFFFFFF
	je	.LBB70_17
# BB#13:                                # %land.lhs.true20
	cmpq	$128, %rsi
	je	.LBB70_16
# BB#14:                                # %lor.lhs.false
	testq	%rsi, %rsi
	jns	.LBB70_17
# BB#15:                                # %lor.lhs.false
	cmpq	$-128, %rsi
	je	.LBB70_17
.LBB70_16:                              # %if.then37
	negq	%rsi
	xorq	%rdi, %rdi
	callq	gen_rtx_CONST_INT
	movq	%rax, 16(%r14)
	movabsq	$.L.str295, %rax
	jmp	.LBB70_17
.LBB70_5:
	movabsq	$.L.str1776, %rax
.LBB70_17:                              # %return
	popq	%rbx
	popq	%r14
	popq	%r15
	retq
.LBB70_2:                               # %if.then
	movabsq	$.L.str1644, %rax
	movabsq	$.L__FUNCTION__.output_203, %rcx
	movq	$1794, %rsi             # imm = 0x702
	jmp	.LBB70_3
.LBB70_8:                               # %if.else8
	movabsq	$.L.str1644, %rax
	movabsq	$.L__FUNCTION__.output_203, %rcx
	movq	$1800, %rsi             # imm = 0x708
	jmp	.LBB70_3
.LBB70_10:                              # %if.then13
	movabsq	$.L.str1644, %rax
	movabsq	$.L__FUNCTION__.output_203, %rcx
	movq	$1804, %rsi             # imm = 0x70C
.LBB70_3:                               # %if.then
	movq	%rax, %rdi
	movq	%rcx, %rdx
	callq	fancy_abort
.Ltmp280:
	.size	output_203, .Ltmp280-output_203
	.cfi_endproc

	.align	16, 0x90
	.type	output_204,@function
output_204:                             # @output_204
	.cfi_startproc
# BB#0:                                 # %entry
	pushq	%r15
.Ltmp285:
	.cfi_def_cfa_offset 16
	pushq	%r14
.Ltmp286:
	.cfi_def_cfa_offset 24
	pushq	%rbx
.Ltmp287:
	.cfi_def_cfa_offset 32
.Ltmp288:
	.cfi_offset %rbx, -32
.Ltmp289:
	.cfi_offset %r14, -24
.Ltmp290:
	.cfi_offset %r15, -16
	movq	%rdi, %r14
	movq	%rsi, %rdi
	callq	get_attr_type
	movq	(%r14), %rdi
	movq	8(%r14), %rsi
	movq	%rax, %rbx
	movabsq	$4294967295, %r15       # imm = 0xFFFFFFFF
	andq	%r15, %rbx
	callq	rtx_equal_p
	cmpq	$10, %rbx
	jne	.LBB71_9
# BB#1:                                 # %sw.bb
	testq	%r15, %rax
	je	.LBB71_2
# BB#4:                                 # %if.end
	movq	16(%r14), %rax
	movq	const_int_rtx+520(%rip), %rcx
	cmpq	%rcx, %rax
	je	.LBB71_5
# BB#6:                                 # %if.else
	movq	const_int_rtx+504(%rip), %rcx
	cmpq	%rcx, %rax
	jne	.LBB71_8
# BB#7:
	movabsq	$.L.str1777, %rax
	jmp	.LBB71_17
.LBB71_9:                               # %sw.default
	testq	%r15, %rax
	je	.LBB71_10
# BB#11:                                # %if.end14
	movq	16(%r14), %rcx
	movzbl	(%rcx), %eax
	cmpq	$54, %rax
	movabsq	$.L.str240, %rax
	jne	.LBB71_17
# BB#12:                                # %land.lhs.true
	movq	8(%rcx), %rsi
	testq	$2147483647, %rsi       # imm = 0x7FFFFFFF
	je	.LBB71_17
# BB#13:                                # %land.lhs.true20
	cmpq	$128, %rsi
	je	.LBB71_16
# BB#14:                                # %lor.lhs.false
	testq	%rsi, %rsi
	jns	.LBB71_17
# BB#15:                                # %lor.lhs.false
	cmpq	$-128, %rsi
	je	.LBB71_17
.LBB71_16:                              # %if.then37
	negq	%rsi
	xorq	%rdi, %rdi
	callq	gen_rtx_CONST_INT
	movq	%rax, 16(%r14)
	movabsq	$.L.str295, %rax
	jmp	.LBB71_17
.LBB71_5:
	movabsq	$.L.str1776, %rax
.LBB71_17:                              # %return
	popq	%rbx
	popq	%r14
	popq	%r15
	retq
.LBB71_2:                               # %if.then
	movabsq	$.L.str1644, %rax
	movabsq	$.L__FUNCTION__.output_204, %rcx
	movq	$1836, %rsi             # imm = 0x72C
	jmp	.LBB71_3
.LBB71_8:                               # %if.else8
	movabsq	$.L.str1644, %rax
	movabsq	$.L__FUNCTION__.output_204, %rcx
	movq	$1842, %rsi             # imm = 0x732
	jmp	.LBB71_3
.LBB71_10:                              # %if.then13
	movabsq	$.L.str1644, %rax
	movabsq	$.L__FUNCTION__.output_204, %rcx
	movq	$1846, %rsi             # imm = 0x736
.LBB71_3:                               # %if.then
	movq	%rax, %rdi
	movq	%rcx, %rdx
	callq	fancy_abort
.Ltmp291:
	.size	output_204, .Ltmp291-output_204
	.cfi_endproc

	.align	16, 0x90
	.type	output_205,@function
output_205:                             # @output_205
	.cfi_startproc
# BB#0:                                 # %entry
	pushq	%r14
.Ltmp295:
	.cfi_def_cfa_offset 16
	pushq	%rbx
.Ltmp296:
	.cfi_def_cfa_offset 24
	pushq	%rax
.Ltmp297:
	.cfi_def_cfa_offset 32
.Ltmp298:
	.cfi_offset %rbx, -24
.Ltmp299:
	.cfi_offset %r14, -16
	movq	%rdi, %rbx
	movq	%rsi, %rdi
	callq	get_attr_type
	movabsq	$4294967295, %r14       # imm = 0xFFFFFFFF
	andq	%r14, %rax
	cmpq	$10, %rax
	jne	.LBB72_7
# BB#1:                                 # %sw.bb
	movq	16(%rbx), %rax
	movq	const_int_rtx+504(%rip), %rcx
	cmpq	%rcx, %rax
	je	.LBB72_2
# BB#3:                                 # %if.else
	movq	const_int_rtx+520(%rip), %rcx
	cmpq	%rcx, %rax
	jne	.LBB72_5
# BB#4:
	movabsq	$.L.str1777, %rax
	jmp	.LBB72_14
.LBB72_7:                               # %sw.default
	movq	(%rbx), %rdi
	movq	8(%rbx), %rsi
	callq	rtx_equal_p
	testq	%r14, %rax
	je	.LBB72_8
# BB#9:                                 # %if.end
	movq	16(%rbx), %rax
	movq	8(%rax), %rsi
	cmpq	$-128, %rsi
	movabsq	$.L.str295, %rax
	je	.LBB72_14
# BB#10:                                # %lor.lhs.false
	testq	%rsi, %rsi
	jle	.LBB72_13
# BB#11:                                # %lor.lhs.false
	cmpq	$128, %rsi
	je	.LBB72_13
# BB#12:                                # %lor.lhs.false
	movq	%rsi, %rcx
	andq	$2147483647, %rcx       # imm = 0x7FFFFFFF
	jne	.LBB72_14
.LBB72_13:                              # %if.end29
	negq	%rsi
	xorq	%rdi, %rdi
	callq	gen_rtx_CONST_INT
	movq	%rax, 16(%rbx)
	movabsq	$.L.str240, %rax
	jmp	.LBB72_14
.LBB72_2:
	movabsq	$.L.str1776, %rax
.LBB72_14:                              # %return
	addq	$8, %rsp
	popq	%rbx
	popq	%r14
	retq
.LBB72_5:                               # %if.else4
	movabsq	$.L.str1644, %rax
	movabsq	$.L__FUNCTION__.output_205, %rcx
	movq	$1882, %rsi             # imm = 0x75A
	jmp	.LBB72_6
.LBB72_8:                               # %if.then8
	movabsq	$.L.str1644, %rax
	movabsq	$.L__FUNCTION__.output_205, %rcx
	movq	$1886, %rsi             # imm = 0x75E
.LBB72_6:                               # %if.else4
	movq	%rax, %rdi
	movq	%rcx, %rdx
	callq	fancy_abort
.Ltmp300:
	.size	output_205, .Ltmp300-output_205
	.cfi_endproc

	.align	16, 0x90
	.type	output_206,@function
output_206:                             # @output_206
	.cfi_startproc
# BB#0:                                 # %entry
	pushq	%r15
.Ltmp305:
	.cfi_def_cfa_offset 16
	pushq	%r14
.Ltmp306:
	.cfi_def_cfa_offset 24
	pushq	%rbx
.Ltmp307:
	.cfi_def_cfa_offset 32
.Ltmp308:
	.cfi_offset %rbx, -32
.Ltmp309:
	.cfi_offset %r14, -24
.Ltmp310:
	.cfi_offset %r15, -16
	movq	%rdi, %r14
	movq	%rsi, %rdi
	callq	get_attr_type
	movq	(%r14), %rdi
	movq	8(%r14), %rsi
	movq	%rax, %rbx
	movabsq	$4294967295, %r15       # imm = 0xFFFFFFFF
	andq	%r15, %rbx
	callq	rtx_equal_p
	cmpq	$10, %rbx
	jne	.LBB73_9
# BB#1:                                 # %sw.bb
	testq	%r15, %rax
	je	.LBB73_2
# BB#4:                                 # %if.end
	movq	16(%r14), %rax
	movq	const_int_rtx+520(%rip), %rcx
	cmpq	%rcx, %rax
	je	.LBB73_5
# BB#6:                                 # %if.else
	movq	const_int_rtx+504(%rip), %rcx
	cmpq	%rcx, %rax
	jne	.LBB73_8
# BB#7:
	movabsq	$.L.str1777, %rax
	jmp	.LBB73_17
.LBB73_9:                               # %sw.default
	testq	%r15, %rax
	je	.LBB73_10
# BB#11:                                # %if.end14
	movq	16(%r14), %rcx
	movzbl	(%rcx), %eax
	cmpq	$54, %rax
	movabsq	$.L.str240, %rax
	jne	.LBB73_17
# BB#12:                                # %land.lhs.true
	movq	8(%rcx), %rsi
	testq	$2147483647, %rsi       # imm = 0x7FFFFFFF
	je	.LBB73_17
# BB#13:                                # %land.lhs.true20
	cmpq	$128, %rsi
	je	.LBB73_16
# BB#14:                                # %lor.lhs.false
	testq	%rsi, %rsi
	jns	.LBB73_17
# BB#15:                                # %lor.lhs.false
	cmpq	$-128, %rsi
	je	.LBB73_17
.LBB73_16:                              # %if.then37
	negq	%rsi
	xorq	%rdi, %rdi
	callq	gen_rtx_CONST_INT
	movq	%rax, 16(%r14)
	movabsq	$.L.str295, %rax
	jmp	.LBB73_17
.LBB73_5:
	movabsq	$.L.str1776, %rax
.LBB73_17:                              # %return
	popq	%rbx
	popq	%r14
	popq	%r15
	retq
.LBB73_2:                               # %if.then
	movabsq	$.L.str1644, %rax
	movabsq	$.L__FUNCTION__.output_206, %rcx
	movq	$1913, %rsi             # imm = 0x779
	jmp	.LBB73_3
.LBB73_8:                               # %if.else8
	movabsq	$.L.str1644, %rax
	movabsq	$.L__FUNCTION__.output_206, %rcx
	movq	$1919, %rsi             # imm = 0x77F
	jmp	.LBB73_3
.LBB73_10:                              # %if.then13
	movabsq	$.L.str1644, %rax
	movabsq	$.L__FUNCTION__.output_206, %rcx
	movq	$1923, %rsi             # imm = 0x783
.LBB73_3:                               # %if.then
	movq	%rax, %rdi
	movq	%rcx, %rdx
	callq	fancy_abort
.Ltmp311:
	.size	output_206, .Ltmp311-output_206
	.cfi_endproc

	.align	16, 0x90
	.type	output_207,@function
output_207:                             # @output_207
	.cfi_startproc
# BB#0:                                 # %entry
	pushq	%r15
.Ltmp316:
	.cfi_def_cfa_offset 16
	pushq	%r14
.Ltmp317:
	.cfi_def_cfa_offset 24
	pushq	%rbx
.Ltmp318:
	.cfi_def_cfa_offset 32
.Ltmp319:
	.cfi_offset %rbx, -32
.Ltmp320:
	.cfi_offset %r14, -24
.Ltmp321:
	.cfi_offset %r15, -16
	movq	%rsi, %rbx
	movq	%rdi, %r14
	movq	%rbx, %rdi
	callq	get_attr_type
	movabsq	$4294967295, %r15       # imm = 0xFFFFFFFF
	andq	%r15, %rax
	cmpq	$10, %rax
	jne	.LBB74_1
# BB#3:                                 # %sw.bb8
	movq	(%r14), %rdi
	movq	8(%r14), %rsi
	callq	rtx_equal_p
	testq	%r15, %rax
	je	.LBB74_4
# BB#6:                                 # %if.end
	movq	16(%r14), %rax
	movq	const_int_rtx+520(%rip), %rcx
	cmpq	%rcx, %rax
	je	.LBB74_7
# BB#8:                                 # %if.else
	movq	const_int_rtx+504(%rip), %rcx
	cmpq	%rcx, %rax
	jne	.LBB74_10
# BB#9:
	movabsq	$.L.str1773, %rax
	jmp	.LBB74_18
.LBB74_1:                               # %entry
	cmpq	$9, %rax
	jne	.LBB74_11
# BB#2:                                 # %sw.bb
	movq	32(%rbx), %rax
	movq	8(%rax), %rax
	movq	8(%rax), %rax
	movq	16(%rax), %rax
	movq	%rax, 16(%r14)
	movabsq	$.L.str1665, %rax
	jmp	.LBB74_18
.LBB74_11:                              # %sw.default
	movq	(%r14), %rdi
	movq	8(%r14), %rsi
	callq	rtx_equal_p
	testq	%r15, %rax
	je	.LBB74_12
# BB#13:                                # %if.end23
	movq	16(%r14), %rcx
	movzbl	(%rcx), %eax
	cmpq	$54, %rax
	movabsq	$.L.str246, %rax
	jne	.LBB74_18
# BB#14:                                # %land.lhs.true
	movq	8(%rcx), %rsi
	cmpq	$128, %rsi
	je	.LBB74_17
# BB#15:                                # %lor.lhs.false
	testq	%rsi, %rsi
	jns	.LBB74_18
# BB#16:                                # %lor.lhs.false
	cmpq	$-128, %rsi
	je	.LBB74_18
.LBB74_17:                              # %if.then41
	negq	%rsi
	xorq	%rdi, %rdi
	callq	gen_rtx_CONST_INT
	movq	%rax, 16(%r14)
	movabsq	$.L.str303, %rax
	jmp	.LBB74_18
.LBB74_7:
	movabsq	$.L.str1772, %rax
.LBB74_18:                              # %return
	popq	%rbx
	popq	%r14
	popq	%r15
	retq
.LBB74_4:                               # %if.then
	movabsq	$.L.str1644, %rax
	movabsq	$.L__FUNCTION__.output_207, %rcx
	movq	$1957, %rsi             # imm = 0x7A5
	jmp	.LBB74_5
.LBB74_10:                              # %if.else17
	movabsq	$.L.str1644, %rax
	movabsq	$.L__FUNCTION__.output_207, %rcx
	movq	$1963, %rsi             # imm = 0x7AB
	jmp	.LBB74_5
.LBB74_12:                              # %if.then22
	movabsq	$.L.str1644, %rax
	movabsq	$.L__FUNCTION__.output_207, %rcx
	movq	$1967, %rsi             # imm = 0x7AF
.LBB74_5:                               # %if.then
	movq	%rax, %rdi
	movq	%rcx, %rdx
	callq	fancy_abort
.Ltmp322:
	.size	output_207, .Ltmp322-output_207
	.cfi_endproc

	.align	16, 0x90
	.type	output_208,@function
output_208:                             # @output_208
	.cfi_startproc
# BB#0:                                 # %entry
	pushq	%r14
.Ltmp326:
	.cfi_def_cfa_offset 16
	pushq	%rbx
.Ltmp327:
	.cfi_def_cfa_offset 24
	pushq	%rax
.Ltmp328:
	.cfi_def_cfa_offset 32
.Ltmp329:
	.cfi_offset %rbx, -24
.Ltmp330:
	.cfi_offset %r14, -16
	movq	%rsi, %rbx
	movq	%rdi, %r14
	movq	%rbx, %rdi
	callq	get_attr_type
	movabsq	$4294967295, %rcx       # imm = 0xFFFFFFFF
	andq	%rax, %rcx
	cmpq	$10, %rcx
	jne	.LBB75_1
# BB#3:                                 # %sw.bb8
	movq	16(%r14), %rax
	movq	const_int_rtx+520(%rip), %rcx
	cmpq	%rcx, %rax
	je	.LBB75_4
# BB#5:                                 # %if.else
	movq	const_int_rtx+504(%rip), %rcx
	cmpq	%rcx, %rax
	jne	.LBB75_7
# BB#6:
	movabsq	$.L.str1767, %rax
	jmp	.LBB75_13
.LBB75_1:                               # %entry
	cmpq	$9, %rcx
	jne	.LBB75_8
# BB#2:                                 # %sw.bb
	movq	32(%rbx), %rax
	movq	8(%rax), %rax
	movq	8(%rax), %rax
	movq	16(%rax), %rax
	movq	%rax, 16(%r14)
	movabsq	$.L.str1775, %rax
	jmp	.LBB75_13
.LBB75_8:                               # %sw.default
	movq	16(%r14), %rcx
	movzbl	(%rcx), %eax
	cmpq	$54, %rax
	movabsq	$.L.str1774, %rax
	jne	.LBB75_13
# BB#9:                                 # %land.lhs.true
	movq	8(%rcx), %rsi
	cmpq	$128, %rsi
	je	.LBB75_12
# BB#10:                                # %lor.lhs.false
	testq	%rsi, %rsi
	jns	.LBB75_13
# BB#11:                                # %lor.lhs.false
	cmpq	$-128, %rsi
	je	.LBB75_13
.LBB75_12:                              # %if.then31
	negq	%rsi
	xorq	%rdi, %rdi
	callq	gen_rtx_CONST_INT
	movq	%rax, 16(%r14)
	movabsq	$.L.str305, %rax
	jmp	.LBB75_13
.LBB75_4:
	movabsq	$.L.str1766, %rax
.LBB75_13:                              # %return
	addq	$8, %rsp
	popq	%rbx
	popq	%r14
	retq
.LBB75_7:                               # %if.else13
	movabsq	$.L.str1644, %rax
	movabsq	$.L__FUNCTION__.output_208, %rcx
	movq	$2004, %rsi             # imm = 0x7D4
	movq	%rax, %rdi
	movq	%rcx, %rdx
	callq	fancy_abort
.Ltmp331:
	.size	output_208, .Ltmp331-output_208
	.cfi_endproc

	.align	16, 0x90
	.type	output_209,@function
output_209:                             # @output_209
	.cfi_startproc
# BB#0:                                 # %entry
	pushq	%r15
.Ltmp336:
	.cfi_def_cfa_offset 16
	pushq	%r14
.Ltmp337:
	.cfi_def_cfa_offset 24
	pushq	%rbx
.Ltmp338:
	.cfi_def_cfa_offset 32
.Ltmp339:
	.cfi_offset %rbx, -32
.Ltmp340:
	.cfi_offset %r14, -24
.Ltmp341:
	.cfi_offset %r15, -16
	movq	%rdi, %r14
	movq	%rsi, %rdi
	callq	get_attr_type
	movq	(%r14), %rdi
	movq	8(%r14), %rsi
	movq	%rax, %rbx
	movabsq	$4294967295, %r15       # imm = 0xFFFFFFFF
	andq	%r15, %rbx
	callq	rtx_equal_p
	cmpq	$10, %rbx
	jne	.LBB76_9
# BB#1:                                 # %sw.bb
	testq	%r15, %rax
	je	.LBB76_2
# BB#4:                                 # %if.end
	movq	16(%r14), %rax
	movq	const_int_rtx+520(%rip), %rcx
	cmpq	%rcx, %rax
	je	.LBB76_5
# BB#6:                                 # %if.else
	movq	const_int_rtx+504(%rip), %rcx
	cmpq	%rcx, %rax
	jne	.LBB76_8
# BB#7:
	movabsq	$.L.str1773, %rax
	jmp	.LBB76_16
.LBB76_9:                               # %sw.default
	testq	%r15, %rax
	je	.LBB76_10
# BB#11:                                # %if.end14
	movq	16(%r14), %rcx
	movzbl	(%rcx), %eax
	cmpq	$54, %rax
	movabsq	$.L.str246, %rax
	jne	.LBB76_16
# BB#12:                                # %land.lhs.true
	movq	8(%rcx), %rsi
	cmpq	$128, %rsi
	je	.LBB76_15
# BB#13:                                # %lor.lhs.false
	testq	%rsi, %rsi
	jns	.LBB76_16
# BB#14:                                # %lor.lhs.false
	cmpq	$-128, %rsi
	je	.LBB76_16
.LBB76_15:                              # %if.then31
	negq	%rsi
	xorq	%rdi, %rdi
	callq	gen_rtx_CONST_INT
	movq	%rax, 16(%r14)
	movabsq	$.L.str303, %rax
	jmp	.LBB76_16
.LBB76_5:
	movabsq	$.L.str1772, %rax
.LBB76_16:                              # %return
	popq	%rbx
	popq	%r14
	popq	%r15
	retq
.LBB76_2:                               # %if.then
	movabsq	$.L.str1644, %rax
	movabsq	$.L__FUNCTION__.output_209, %rcx
	movq	$2034, %rsi             # imm = 0x7F2
	jmp	.LBB76_3
.LBB76_8:                               # %if.else8
	movabsq	$.L.str1644, %rax
	movabsq	$.L__FUNCTION__.output_209, %rcx
	movq	$2040, %rsi             # imm = 0x7F8
	jmp	.LBB76_3
.LBB76_10:                              # %if.then13
	movabsq	$.L.str1644, %rax
	movabsq	$.L__FUNCTION__.output_209, %rcx
	movq	$2044, %rsi             # imm = 0x7FC
.LBB76_3:                               # %if.then
	movq	%rax, %rdi
	movq	%rcx, %rdx
	callq	fancy_abort
.Ltmp342:
	.size	output_209, .Ltmp342-output_209
	.cfi_endproc

	.align	16, 0x90
	.type	output_210,@function
output_210:                             # @output_210
	.cfi_startproc
# BB#0:                                 # %entry
	pushq	%rbx
.Ltmp345:
	.cfi_def_cfa_offset 16
.Ltmp346:
	.cfi_offset %rbx, -16
	movq	%rdi, %rbx
	movq	%rsi, %rdi
	callq	get_attr_type
	movq	16(%rbx), %rcx
	movabsq	$4294967295, %rdx       # imm = 0xFFFFFFFF
	andq	%rax, %rdx
	cmpq	$10, %rdx
	jne	.LBB77_6
# BB#1:                                 # %sw.bb
	movq	const_int_rtx+520(%rip), %rax
	cmpq	%rax, %rcx
	je	.LBB77_2
# BB#3:                                 # %if.else
	movq	const_int_rtx+504(%rip), %rax
	cmpq	%rax, %rcx
	jne	.LBB77_5
# BB#4:
	movabsq	$.L.str1767, %rax
	popq	%rbx
	retq
.LBB77_6:                               # %sw.default
	movzbl	(%rcx), %eax
	cmpq	$54, %rax
	movabsq	$.L.str1774, %rax
	jne	.LBB77_11
# BB#7:                                 # %land.lhs.true
	movq	8(%rcx), %rsi
	cmpq	$128, %rsi
	je	.LBB77_10
# BB#8:                                 # %lor.lhs.false
	testq	%rsi, %rsi
	jns	.LBB77_11
# BB#9:                                 # %lor.lhs.false
	cmpq	$-128, %rsi
	je	.LBB77_11
.LBB77_10:                              # %if.then21
	negq	%rsi
	xorq	%rdi, %rdi
	callq	gen_rtx_CONST_INT
	movq	%rax, 16(%rbx)
	movabsq	$.L.str305, %rax
.LBB77_11:                              # %return
	popq	%rbx
	retq
.LBB77_2:
	movabsq	$.L.str1766, %rax
	popq	%rbx
	retq
.LBB77_5:                               # %if.else4
	movabsq	$.L.str1644, %rax
	movabsq	$.L__FUNCTION__.output_210, %rcx
	movq	$2076, %rsi             # imm = 0x81C
	movq	%rax, %rdi
	movq	%rcx, %rdx
	callq	fancy_abort
.Ltmp347:
	.size	output_210, .Ltmp347-output_210
	.cfi_endproc

	.align	16, 0x90
	.type	output_211,@function
output_211:                             # @output_211
	.cfi_startproc
# BB#0:                                 # %entry
	pushq	%r15
.Ltmp352:
	.cfi_def_cfa_offset 16
	pushq	%r14
.Ltmp353:
	.cfi_def_cfa_offset 24
	pushq	%rbx
.Ltmp354:
	.cfi_def_cfa_offset 32
.Ltmp355:
	.cfi_offset %rbx, -32
.Ltmp356:
	.cfi_offset %r14, -24
.Ltmp357:
	.cfi_offset %r15, -16
	movq	%rdi, %r14
	movq	%rsi, %rdi
	callq	get_attr_type
	movq	(%r14), %rdi
	movq	8(%r14), %rsi
	movq	%rax, %rbx
	movabsq	$4294967295, %r15       # imm = 0xFFFFFFFF
	andq	%r15, %rbx
	callq	rtx_equal_p
	cmpq	$10, %rbx
	jne	.LBB78_9
# BB#1:                                 # %sw.bb
	testq	%r15, %rax
	je	.LBB78_2
# BB#4:                                 # %if.end
	movq	16(%r14), %rax
	movq	const_int_rtx+520(%rip), %rcx
	cmpq	%rcx, %rax
	je	.LBB78_5
# BB#6:                                 # %if.else
	movq	const_int_rtx+504(%rip), %rcx
	cmpq	%rcx, %rax
	jne	.LBB78_8
# BB#7:
	movabsq	$.L.str1773, %rax
	jmp	.LBB78_16
.LBB78_9:                               # %sw.default
	testq	%r15, %rax
	je	.LBB78_10
# BB#11:                                # %if.end14
	movq	16(%r14), %rcx
	movzbl	(%rcx), %eax
	cmpq	$54, %rax
	movabsq	$.L.str246, %rax
	jne	.LBB78_16
# BB#12:                                # %land.lhs.true
	movq	8(%rcx), %rsi
	cmpq	$128, %rsi
	je	.LBB78_15
# BB#13:                                # %lor.lhs.false
	testq	%rsi, %rsi
	jns	.LBB78_16
# BB#14:                                # %lor.lhs.false
	cmpq	$-128, %rsi
	je	.LBB78_16
.LBB78_15:                              # %if.then31
	negq	%rsi
	xorq	%rdi, %rdi
	callq	gen_rtx_CONST_INT
	movq	%rax, 16(%r14)
	movabsq	$.L.str303, %rax
	jmp	.LBB78_16
.LBB78_5:
	movabsq	$.L.str1772, %rax
.LBB78_16:                              # %return
	popq	%rbx
	popq	%r14
	popq	%r15
	retq
.LBB78_2:                               # %if.then
	movabsq	$.L.str1644, %rax
	movabsq	$.L__FUNCTION__.output_211, %rcx
	movq	$2106, %rsi             # imm = 0x83A
	jmp	.LBB78_3
.LBB78_8:                               # %if.else8
	movabsq	$.L.str1644, %rax
	movabsq	$.L__FUNCTION__.output_211, %rcx
	movq	$2112, %rsi             # imm = 0x840
	jmp	.LBB78_3
.LBB78_10:                              # %if.then13
	movabsq	$.L.str1644, %rax
	movabsq	$.L__FUNCTION__.output_211, %rcx
	movq	$2116, %rsi             # imm = 0x844
.LBB78_3:                               # %if.then
	movq	%rax, %rdi
	movq	%rcx, %rdx
	callq	fancy_abort
.Ltmp358:
	.size	output_211, .Ltmp358-output_211
	.cfi_endproc

	.align	16, 0x90
	.type	output_212,@function
output_212:                             # @output_212
	.cfi_startproc
# BB#0:                                 # %entry
	pushq	%rbx
.Ltmp361:
	.cfi_def_cfa_offset 16
.Ltmp362:
	.cfi_offset %rbx, -16
	movq	%rdi, %rbx
	movq	%rsi, %rdi
	callq	get_attr_type
	movq	16(%rbx), %rcx
	movabsq	$4294967295, %rdx       # imm = 0xFFFFFFFF
	andq	%rax, %rdx
	cmpq	$10, %rdx
	jne	.LBB79_6
# BB#1:                                 # %sw.bb
	movq	const_int_rtx+520(%rip), %rax
	cmpq	%rax, %rcx
	je	.LBB79_2
# BB#3:                                 # %if.else
	movq	const_int_rtx+504(%rip), %rax
	cmpq	%rax, %rcx
	jne	.LBB79_5
# BB#4:
	movabsq	$.L.str1767, %rax
	popq	%rbx
	retq
.LBB79_6:                               # %sw.default
	movzbl	(%rcx), %eax
	cmpq	$54, %rax
	movabsq	$.L.str1774, %rax
	jne	.LBB79_11
# BB#7:                                 # %land.lhs.true
	movq	8(%rcx), %rsi
	cmpq	$128, %rsi
	je	.LBB79_10
# BB#8:                                 # %lor.lhs.false
	testq	%rsi, %rsi
	jns	.LBB79_11
# BB#9:                                 # %lor.lhs.false
	cmpq	$-128, %rsi
	je	.LBB79_11
.LBB79_10:                              # %if.then21
	negq	%rsi
	xorq	%rdi, %rdi
	callq	gen_rtx_CONST_INT
	movq	%rax, 16(%rbx)
	movabsq	$.L.str305, %rax
.LBB79_11:                              # %return
	popq	%rbx
	retq
.LBB79_2:
	movabsq	$.L.str1766, %rax
	popq	%rbx
	retq
.LBB79_5:                               # %if.else4
	movabsq	$.L.str1644, %rax
	movabsq	$.L__FUNCTION__.output_212, %rcx
	movq	$2148, %rsi             # imm = 0x864
	movq	%rax, %rdi
	movq	%rcx, %rdx
	callq	fancy_abort
.Ltmp363:
	.size	output_212, .Ltmp363-output_212
	.cfi_endproc

	.align	16, 0x90
	.type	output_213,@function
output_213:                             # @output_213
	.cfi_startproc
# BB#0:                                 # %entry
	pushq	%r14
.Ltmp367:
	.cfi_def_cfa_offset 16
	pushq	%rbx
.Ltmp368:
	.cfi_def_cfa_offset 24
	pushq	%rax
.Ltmp369:
	.cfi_def_cfa_offset 32
.Ltmp370:
	.cfi_offset %rbx, -24
.Ltmp371:
	.cfi_offset %r14, -16
	movq	%rdi, %rbx
	movq	%rsi, %rdi
	callq	get_attr_type
	movabsq	$4294967295, %r14       # imm = 0xFFFFFFFF
	andq	%r14, %rax
	cmpq	$10, %rax
	jne	.LBB80_7
# BB#1:                                 # %sw.bb
	movq	16(%rbx), %rax
	movq	const_int_rtx+504(%rip), %rcx
	cmpq	%rcx, %rax
	je	.LBB80_2
# BB#3:                                 # %if.else
	movq	const_int_rtx+520(%rip), %rcx
	cmpq	%rcx, %rax
	jne	.LBB80_5
# BB#4:
	movabsq	$.L.str1773, %rax
	jmp	.LBB80_13
.LBB80_7:                               # %sw.default
	movq	(%rbx), %rdi
	movq	8(%rbx), %rsi
	callq	rtx_equal_p
	testq	%r14, %rax
	je	.LBB80_8
# BB#9:                                 # %if.end
	movq	16(%rbx), %rax
	movq	8(%rax), %rsi
	cmpq	$-128, %rsi
	movabsq	$.L.str303, %rax
	je	.LBB80_13
# BB#10:                                # %lor.lhs.false
	testq	%rsi, %rsi
	jle	.LBB80_12
# BB#11:                                # %lor.lhs.false
	cmpq	$128, %rsi
	jne	.LBB80_13
.LBB80_12:                              # %if.end23
	negq	%rsi
	xorq	%rdi, %rdi
	callq	gen_rtx_CONST_INT
	movq	%rax, 16(%rbx)
	movabsq	$.L.str246, %rax
	jmp	.LBB80_13
.LBB80_2:
	movabsq	$.L.str1772, %rax
.LBB80_13:                              # %return
	addq	$8, %rsp
	popq	%rbx
	popq	%r14
	retq
.LBB80_5:                               # %if.else4
	movabsq	$.L.str1644, %rax
	movabsq	$.L__FUNCTION__.output_213, %rcx
	movq	$2182, %rsi             # imm = 0x886
	jmp	.LBB80_6
.LBB80_8:                               # %if.then8
	movabsq	$.L.str1644, %rax
	movabsq	$.L__FUNCTION__.output_213, %rcx
	movq	$2186, %rsi             # imm = 0x88A
.LBB80_6:                               # %if.else4
	movq	%rax, %rdi
	movq	%rcx, %rdx
	callq	fancy_abort
.Ltmp372:
	.size	output_213, .Ltmp372-output_213
	.cfi_endproc

	.align	16, 0x90
	.type	output_214,@function
output_214:                             # @output_214
	.cfi_startproc
# BB#0:                                 # %entry
	pushq	%r15
.Ltmp377:
	.cfi_def_cfa_offset 16
	pushq	%r14
.Ltmp378:
	.cfi_def_cfa_offset 24
	pushq	%rbx
.Ltmp379:
	.cfi_def_cfa_offset 32
.Ltmp380:
	.cfi_offset %rbx, -32
.Ltmp381:
	.cfi_offset %r14, -24
.Ltmp382:
	.cfi_offset %r15, -16
	movq	%rdi, %r14
	movq	%rsi, %rdi
	callq	get_attr_type
	movq	(%r14), %rdi
	movq	8(%r14), %rsi
	movq	%rax, %rbx
	movabsq	$4294967295, %r15       # imm = 0xFFFFFFFF
	andq	%r15, %rbx
	callq	rtx_equal_p
	cmpq	$10, %rbx
	jne	.LBB81_9
# BB#1:                                 # %sw.bb
	testq	%r15, %rax
	je	.LBB81_2
# BB#4:                                 # %if.end
	movq	16(%r14), %rax
	movq	const_int_rtx+520(%rip), %rcx
	cmpq	%rcx, %rax
	je	.LBB81_5
# BB#6:                                 # %if.else
	movq	const_int_rtx+504(%rip), %rcx
	cmpq	%rcx, %rax
	jne	.LBB81_8
# BB#7:
	movabsq	$.L.str1773, %rax
	jmp	.LBB81_16
.LBB81_9:                               # %sw.default
	testq	%r15, %rax
	je	.LBB81_10
# BB#11:                                # %if.end14
	movq	16(%r14), %rcx
	movzbl	(%rcx), %eax
	cmpq	$54, %rax
	movabsq	$.L.str246, %rax
	jne	.LBB81_16
# BB#12:                                # %land.lhs.true
	movq	8(%rcx), %rsi
	cmpq	$128, %rsi
	je	.LBB81_15
# BB#13:                                # %lor.lhs.false
	testq	%rsi, %rsi
	jns	.LBB81_16
# BB#14:                                # %lor.lhs.false
	cmpq	$-128, %rsi
	je	.LBB81_16
.LBB81_15:                              # %if.then31
	negq	%rsi
	xorq	%rdi, %rdi
	callq	gen_rtx_CONST_INT
	movq	%rax, 16(%r14)
	movabsq	$.L.str303, %rax
	jmp	.LBB81_16
.LBB81_5:
	movabsq	$.L.str1772, %rax
.LBB81_16:                              # %return
	popq	%rbx
	popq	%r14
	popq	%r15
	retq
.LBB81_2:                               # %if.then
	movabsq	$.L.str1644, %rax
	movabsq	$.L__FUNCTION__.output_214, %rcx
	movq	$2211, %rsi             # imm = 0x8A3
	jmp	.LBB81_3
.LBB81_8:                               # %if.else8
	movabsq	$.L.str1644, %rax
	movabsq	$.L__FUNCTION__.output_214, %rcx
	movq	$2217, %rsi             # imm = 0x8A9
	jmp	.LBB81_3
.LBB81_10:                              # %if.then13
	movabsq	$.L.str1644, %rax
	movabsq	$.L__FUNCTION__.output_214, %rcx
	movq	$2221, %rsi             # imm = 0x8AD
.LBB81_3:                               # %if.then
	movq	%rax, %rdi
	movq	%rcx, %rdx
	callq	fancy_abort
.Ltmp383:
	.size	output_214, .Ltmp383-output_214
	.cfi_endproc

	.align	16, 0x90
	.type	output_215,@function
output_215:                             # @output_215
	.cfi_startproc
# BB#0:                                 # %entry
	pushq	%rbx
.Ltmp386:
	.cfi_def_cfa_offset 16
.Ltmp387:
	.cfi_offset %rbx, -16
	movq	%rdi, %rbx
	movq	%rsi, %rdi
	callq	get_attr_type
	movabsq	$4294967295, %rcx       # imm = 0xFFFFFFFF
	andq	%rax, %rcx
	cmpq	$9, %rcx
	jne	.LBB82_2
# BB#1:
	movabsq	$.L.str38, %rax
	popq	%rbx
	retq
.LBB82_2:                               # %entry
	cmpq	$10, %rcx
	jne	.LBB82_9
# BB#3:                                 # %sw.bb1
	movq	16(%rbx), %rcx
	movq	const_int_rtx+520(%rip), %rax
	cmpq	%rax, %rcx
	je	.LBB82_4
# BB#5:                                 # %if.else
	movq	const_int_rtx+504(%rip), %rdx
	movabsq	$.L.str1770, %rax
	cmpq	%rdx, %rcx
	je	.LBB82_14
# BB#6:                                 # %lor.lhs.false
	movzbl	(%rcx), %edx
	cmpq	$54, %rdx
	jne	.LBB82_8
# BB#7:                                 # %land.lhs.true
	movq	8(%rcx), %rcx
	cmpq	$65535, %rcx            # imm = 0xFFFF
	je	.LBB82_14
.LBB82_8:                               # %if.end10
	movabsq	$.L.str1644, %rax
	movabsq	$.L__FUNCTION__.output_215, %rcx
	movq	$2256, %rsi             # imm = 0x8D0
	movq	%rax, %rdi
	movq	%rcx, %rdx
	callq	fancy_abort
.LBB82_9:                               # %sw.default
	movq	16(%rbx), %rcx
	movzbl	(%rcx), %eax
	cmpq	$54, %rax
	movabsq	$.L.str1771, %rax
	jne	.LBB82_14
# BB#10:                                # %land.lhs.true15
	movq	8(%rcx), %rsi
	cmpq	$128, %rsi
	je	.LBB82_13
# BB#11:                                # %lor.lhs.false21
	testq	%rsi, %rsi
	jns	.LBB82_14
# BB#12:                                # %lor.lhs.false21
	cmpq	$-128, %rsi
	je	.LBB82_14
.LBB82_13:                              # %if.then33
	negq	%rsi
	xorq	%rdi, %rdi
	callq	gen_rtx_CONST_INT
	movq	%rax, 16(%rbx)
	movabsq	$.L.str311, %rax
.LBB82_14:                              # %return
	popq	%rbx
	retq
.LBB82_4:
	movabsq	$.L.str1769, %rax
	popq	%rbx
	retq
.Ltmp388:
	.size	output_215, .Ltmp388-output_215
	.cfi_endproc

	.align	16, 0x90
	.type	output_216,@function
output_216:                             # @output_216
	.cfi_startproc
# BB#0:                                 # %entry
	pushq	%rbx
.Ltmp391:
	.cfi_def_cfa_offset 16
.Ltmp392:
	.cfi_offset %rbx, -16
	movq	%rdi, %rbx
	movq	%rsi, %rdi
	callq	get_attr_type
	movq	16(%rbx), %rcx
	movabsq	$4294967295, %rdx       # imm = 0xFFFFFFFF
	andq	%rax, %rdx
	cmpq	$10, %rdx
	jne	.LBB83_7
# BB#1:                                 # %sw.bb
	movq	const_int_rtx+520(%rip), %rax
	cmpq	%rax, %rcx
	je	.LBB83_2
# BB#3:                                 # %if.else
	movq	const_int_rtx+504(%rip), %rdx
	movabsq	$.L.str1770, %rax
	cmpq	%rdx, %rcx
	je	.LBB83_12
# BB#4:                                 # %lor.lhs.false
	movzbl	(%rcx), %edx
	cmpq	$54, %rdx
	jne	.LBB83_6
# BB#5:                                 # %land.lhs.true
	movq	8(%rcx), %rcx
	cmpq	$65535, %rcx            # imm = 0xFFFF
	je	.LBB83_12
.LBB83_6:                               # %if.end9
	movabsq	$.L.str1644, %rax
	movabsq	$.L__FUNCTION__.output_216, %rcx
	movq	$2291, %rsi             # imm = 0x8F3
	movq	%rax, %rdi
	movq	%rcx, %rdx
	callq	fancy_abort
.LBB83_7:                               # %sw.default
	movzbl	(%rcx), %eax
	cmpq	$54, %rax
	movabsq	$.L.str1771, %rax
	jne	.LBB83_12
# BB#8:                                 # %land.lhs.true14
	movq	8(%rcx), %rsi
	cmpq	$128, %rsi
	je	.LBB83_11
# BB#9:                                 # %lor.lhs.false20
	testq	%rsi, %rsi
	jns	.LBB83_12
# BB#10:                                # %lor.lhs.false20
	cmpq	$-128, %rsi
	je	.LBB83_12
.LBB83_11:                              # %if.then32
	negq	%rsi
	xorq	%rdi, %rdi
	callq	gen_rtx_CONST_INT
	movq	%rax, 16(%rbx)
	movabsq	$.L.str311, %rax
.LBB83_12:                              # %return
	popq	%rbx
	retq
.LBB83_2:
	movabsq	$.L.str1769, %rax
	popq	%rbx
	retq
.Ltmp393:
	.size	output_216, .Ltmp393-output_216
	.cfi_endproc

	.align	16, 0x90
	.type	output_217,@function
output_217:                             # @output_217
	.cfi_startproc
# BB#0:                                 # %entry
	pushq	%rbx
.Ltmp396:
	.cfi_def_cfa_offset 16
.Ltmp397:
	.cfi_offset %rbx, -16
	movq	%rdi, %rbx
	movq	%rsi, %rdi
	callq	get_attr_type
	movq	16(%rbx), %rcx
	movabsq	$4294967295, %rdx       # imm = 0xFFFFFFFF
	andq	%rax, %rdx
	cmpq	$10, %rdx
	jne	.LBB84_7
# BB#1:                                 # %sw.bb
	movq	const_int_rtx+520(%rip), %rax
	cmpq	%rax, %rcx
	je	.LBB84_2
# BB#3:                                 # %if.else
	movq	const_int_rtx+504(%rip), %rdx
	movabsq	$.L.str1770, %rax
	cmpq	%rdx, %rcx
	je	.LBB84_12
# BB#4:                                 # %lor.lhs.false
	movzbl	(%rcx), %edx
	cmpq	$54, %rdx
	jne	.LBB84_6
# BB#5:                                 # %land.lhs.true
	movq	8(%rcx), %rcx
	cmpq	$65535, %rcx            # imm = 0xFFFF
	je	.LBB84_12
.LBB84_6:                               # %if.end9
	movabsq	$.L.str1644, %rax
	movabsq	$.L__FUNCTION__.output_217, %rcx
	movq	$2326, %rsi             # imm = 0x916
	movq	%rax, %rdi
	movq	%rcx, %rdx
	callq	fancy_abort
.LBB84_7:                               # %sw.default
	movzbl	(%rcx), %eax
	cmpq	$54, %rax
	movabsq	$.L.str1771, %rax
	jne	.LBB84_12
# BB#8:                                 # %land.lhs.true14
	movq	8(%rcx), %rsi
	cmpq	$128, %rsi
	je	.LBB84_11
# BB#9:                                 # %lor.lhs.false20
	testq	%rsi, %rsi
	jns	.LBB84_12
# BB#10:                                # %lor.lhs.false20
	cmpq	$-128, %rsi
	je	.LBB84_12
.LBB84_11:                              # %if.then32
	negq	%rsi
	xorq	%rdi, %rdi
	callq	gen_rtx_CONST_INT
	movq	%rax, 16(%rbx)
	movabsq	$.L.str311, %rax
.LBB84_12:                              # %return
	popq	%rbx
	retq
.LBB84_2:
	movabsq	$.L.str1769, %rax
	popq	%rbx
	retq
.Ltmp398:
	.size	output_217, .Ltmp398-output_217
	.cfi_endproc

	.align	16, 0x90
	.type	output_218,@function
output_218:                             # @output_218
	.cfi_startproc
# BB#0:                                 # %entry
	pushq	%rbx
.Ltmp401:
	.cfi_def_cfa_offset 16
.Ltmp402:
	.cfi_offset %rbx, -16
	movq	%rdi, %rbx
	movq	%rsi, %rdi
	callq	get_attr_type
	movq	16(%rbx), %rcx
	movabsq	$4294967295, %rdx       # imm = 0xFFFFFFFF
	andq	%rax, %rdx
	cmpq	$10, %rdx
	jne	.LBB85_7
# BB#1:                                 # %sw.bb
	movq	const_int_rtx+520(%rip), %rax
	cmpq	%rax, %rcx
	je	.LBB85_2
# BB#3:                                 # %if.else
	movq	const_int_rtx+504(%rip), %rdx
	movabsq	$.L.str1770, %rax
	cmpq	%rdx, %rcx
	je	.LBB85_12
# BB#4:                                 # %lor.lhs.false
	movzbl	(%rcx), %edx
	cmpq	$54, %rdx
	jne	.LBB85_6
# BB#5:                                 # %land.lhs.true
	movq	8(%rcx), %rcx
	cmpq	$65535, %rcx            # imm = 0xFFFF
	je	.LBB85_12
.LBB85_6:                               # %if.end9
	movabsq	$.L.str1644, %rax
	movabsq	$.L__FUNCTION__.output_218, %rcx
	movq	$2361, %rsi             # imm = 0x939
	movq	%rax, %rdi
	movq	%rcx, %rdx
	callq	fancy_abort
.LBB85_7:                               # %sw.default
	movzbl	(%rcx), %eax
	cmpq	$54, %rax
	movabsq	$.L.str1771, %rax
	jne	.LBB85_12
# BB#8:                                 # %land.lhs.true14
	movq	8(%rcx), %rsi
	cmpq	$128, %rsi
	je	.LBB85_11
# BB#9:                                 # %lor.lhs.false20
	testq	%rsi, %rsi
	jns	.LBB85_12
# BB#10:                                # %lor.lhs.false20
	cmpq	$-128, %rsi
	je	.LBB85_12
.LBB85_11:                              # %if.then32
	negq	%rsi
	xorq	%rdi, %rdi
	callq	gen_rtx_CONST_INT
	movq	%rax, 16(%rbx)
	movabsq	$.L.str311, %rax
.LBB85_12:                              # %return
	popq	%rbx
	retq
.LBB85_2:
	movabsq	$.L.str1769, %rax
	popq	%rbx
	retq
.Ltmp403:
	.size	output_218, .Ltmp403-output_218
	.cfi_endproc

	.align	16, 0x90
	.type	output_219,@function
output_219:                             # @output_219
	.cfi_startproc
# BB#0:                                 # %entry
	pushq	%r14
.Ltmp407:
	.cfi_def_cfa_offset 16
	pushq	%rbx
.Ltmp408:
	.cfi_def_cfa_offset 24
	pushq	%rax
.Ltmp409:
	.cfi_def_cfa_offset 32
.Ltmp410:
	.cfi_offset %rbx, -24
.Ltmp411:
	.cfi_offset %r14, -16
	movq	%rdi, %rbx
	movq	%rsi, %rdi
	callq	get_attr_type
	movabsq	$4294967295, %r14       # imm = 0xFFFFFFFF
	andq	%r14, %rax
	cmpq	$10, %rax
	jne	.LBB86_8
# BB#1:                                 # %sw.bb
	movq	16(%rbx), %rcx
	movq	const_int_rtx+504(%rip), %rax
	cmpq	%rax, %rcx
	movabsq	$.L.str1769, %rax
	je	.LBB86_14
# BB#2:                                 # %lor.lhs.false
	movzbl	(%rcx), %edx
	cmpq	$54, %rdx
	jne	.LBB86_4
# BB#3:                                 # %land.lhs.true
	movq	8(%rcx), %rdx
	cmpq	$65535, %rdx            # imm = 0xFFFF
	je	.LBB86_14
.LBB86_4:                               # %if.else
	movq	const_int_rtx+520(%rip), %rax
	cmpq	%rax, %rcx
	jne	.LBB86_6
# BB#5:
	movabsq	$.L.str1770, %rax
	jmp	.LBB86_14
.LBB86_8:                               # %sw.default
	movq	(%rbx), %rdi
	movq	8(%rbx), %rsi
	callq	rtx_equal_p
	testq	%r14, %rax
	je	.LBB86_9
# BB#10:                                # %if.end
	movq	16(%rbx), %rax
	movq	8(%rax), %rsi
	cmpq	$-128, %rsi
	movabsq	$.L.str311, %rax
	je	.LBB86_14
# BB#11:                                # %lor.lhs.false19
	testq	%rsi, %rsi
	jle	.LBB86_13
# BB#12:                                # %lor.lhs.false19
	cmpq	$128, %rsi
	jne	.LBB86_14
.LBB86_13:                              # %if.end32
	negq	%rsi
	xorq	%rdi, %rdi
	callq	gen_rtx_CONST_INT
	movq	%rax, 16(%rbx)
	movabsq	$.L.str1771, %rax
.LBB86_14:                              # %return
	addq	$8, %rsp
	popq	%rbx
	popq	%r14
	retq
.LBB86_6:                               # %if.else9
	movabsq	$.L.str1644, %rax
	movabsq	$.L__FUNCTION__.output_219, %rcx
	movq	$2397, %rsi             # imm = 0x95D
	jmp	.LBB86_7
.LBB86_9:                               # %if.then13
	movabsq	$.L.str1644, %rax
	movabsq	$.L__FUNCTION__.output_219, %rcx
	movq	$2401, %rsi             # imm = 0x961
.LBB86_7:                               # %if.else9
	movq	%rax, %rdi
	movq	%rcx, %rdx
	callq	fancy_abort
.Ltmp412:
	.size	output_219, .Ltmp412-output_219
	.cfi_endproc

	.align	16, 0x90
	.type	output_220,@function
output_220:                             # @output_220
	.cfi_startproc
# BB#0:                                 # %entry
	pushq	%rbx
.Ltmp415:
	.cfi_def_cfa_offset 16
.Ltmp416:
	.cfi_offset %rbx, -16
	movq	%rdi, %rbx
	movq	%rsi, %rdi
	callq	get_attr_type
	movq	16(%rbx), %rcx
	movabsq	$4294967295, %rdx       # imm = 0xFFFFFFFF
	andq	%rax, %rdx
	cmpq	$10, %rdx
	jne	.LBB87_7
# BB#1:                                 # %sw.bb
	movq	const_int_rtx+520(%rip), %rax
	cmpq	%rax, %rcx
	je	.LBB87_2
# BB#3:                                 # %if.else
	movq	const_int_rtx+504(%rip), %rdx
	movabsq	$.L.str1770, %rax
	cmpq	%rdx, %rcx
	je	.LBB87_12
# BB#4:                                 # %lor.lhs.false
	movzbl	(%rcx), %edx
	cmpq	$54, %rdx
	jne	.LBB87_6
# BB#5:                                 # %land.lhs.true
	movq	8(%rcx), %rcx
	cmpq	$65535, %rcx            # imm = 0xFFFF
	je	.LBB87_12
.LBB87_6:                               # %if.end9
	movabsq	$.L.str1644, %rax
	movabsq	$.L__FUNCTION__.output_220, %rcx
	movq	$2431, %rsi             # imm = 0x97F
	movq	%rax, %rdi
	movq	%rcx, %rdx
	callq	fancy_abort
.LBB87_7:                               # %sw.default
	movzbl	(%rcx), %eax
	cmpq	$54, %rax
	movabsq	$.L.str1771, %rax
	jne	.LBB87_12
# BB#8:                                 # %land.lhs.true14
	movq	8(%rcx), %rsi
	cmpq	$128, %rsi
	je	.LBB87_11
# BB#9:                                 # %lor.lhs.false20
	testq	%rsi, %rsi
	jns	.LBB87_12
# BB#10:                                # %lor.lhs.false20
	cmpq	$-128, %rsi
	je	.LBB87_12
.LBB87_11:                              # %if.then32
	negq	%rsi
	xorq	%rdi, %rdi
	callq	gen_rtx_CONST_INT
	movq	%rax, 16(%rbx)
	movabsq	$.L.str311, %rax
.LBB87_12:                              # %return
	popq	%rbx
	retq
.LBB87_2:
	movabsq	$.L.str1769, %rax
	popq	%rbx
	retq
.Ltmp417:
	.size	output_220, .Ltmp417-output_220
	.cfi_endproc

	.align	16, 0x90
	.type	output_221,@function
output_221:                             # @output_221
	.cfi_startproc
# BB#0:                                 # %entry
	pushq	%r14
.Ltmp421:
	.cfi_def_cfa_offset 16
	pushq	%rbx
.Ltmp422:
	.cfi_def_cfa_offset 24
	pushq	%rax
.Ltmp423:
	.cfi_def_cfa_offset 32
.Ltmp424:
	.cfi_offset %rbx, -24
.Ltmp425:
	.cfi_offset %r14, -16
	movl	which_alternative(%rip), %ebx
	movq	%rdi, %r14
	movq	%rsi, %rdi
	callq	get_attr_type
	movabsq	$4294967295, %rcx       # imm = 0xFFFFFFFF
	andq	%rcx, %rax
	cmpq	$9, %rax
	jne	.LBB88_2
# BB#1:
	movabsq	$.L.str38, %rax
.LBB88_24:                              # %return
	addq	$8, %rsp
	popq	%rbx
	popq	%r14
	retq
.LBB88_2:                               # %entry
	cmpq	$10, %rax
	jne	.LBB88_14
# BB#3:                                 # %sw.bb1
	movq	16(%r14), %rax
	movq	const_int_rtx+520(%rip), %rdx
	cmpq	%rdx, %rax
	je	.LBB88_4
# BB#7:                                 # %if.else
	movq	const_int_rtx+504(%rip), %rdx
	cmpq	%rdx, %rax
	je	.LBB88_10
# BB#8:                                 # %lor.lhs.false
	movzbl	(%rax), %edx
	cmpq	$54, %rdx
	jne	.LBB88_13
# BB#9:                                 # %land.lhs.true
	movq	8(%rax), %rax
	cmpq	$255, %rax
	jne	.LBB88_13
.LBB88_10:                              # %if.then14
	andq	%rcx, %rbx
	cmpq	$2, %rbx
	je	.LBB88_11
# BB#12:                                # %if.then14
	movabsq	$.L.str1765, %rax
	jmp	.LBB88_24
.LBB88_14:                              # %sw.default
	movq	16(%r14), %rax
	movzbl	(%rax), %edx
	cmpq	$54, %rdx
	jne	.LBB88_21
# BB#15:                                # %land.lhs.true23
	movq	8(%rax), %rsi
	cmpq	$128, %rsi
	je	.LBB88_18
# BB#16:                                # %lor.lhs.false30
	testq	%rsi, %rsi
	jns	.LBB88_21
# BB#17:                                # %lor.lhs.false30
	cmpq	$-128, %rsi
	je	.LBB88_21
.LBB88_18:                              # %if.then44
	andq	%rcx, %rbx
	negq	%rsi
	xorq	%rdi, %rdi
	callq	gen_rtx_CONST_INT
	cmpq	$2, %rbx
	movq	%rax, 16(%r14)
	je	.LBB88_19
# BB#20:                                # %if.then44
	movabsq	$.L.str315, %rax
	jmp	.LBB88_24
.LBB88_21:                              # %if.end54
	andq	%rcx, %rbx
	cmpq	$2, %rbx
	je	.LBB88_22
# BB#23:                                # %if.end54
	movabsq	$.L.str248, %rax
	jmp	.LBB88_24
.LBB88_4:                               # %if.then
	andq	%rcx, %rbx
	cmpq	$2, %rbx
	je	.LBB88_5
# BB#6:                                 # %if.then
	movabsq	$.L.str1764, %rax
	jmp	.LBB88_24
.LBB88_22:
	movabsq	$.L.str1768, %rax
	jmp	.LBB88_24
.LBB88_11:
	movabsq	$.L.str1767, %rax
	jmp	.LBB88_24
.LBB88_19:
	movabsq	$.L.str305, %rax
	jmp	.LBB88_24
.LBB88_5:
	movabsq	$.L.str1766, %rax
	jmp	.LBB88_24
.LBB88_13:                              # %if.end17
	movabsq	$.L.str1644, %rax
	movabsq	$.L__FUNCTION__.output_221, %rcx
	movq	$2469, %rsi             # imm = 0x9A5
	movq	%rax, %rdi
	movq	%rcx, %rdx
	callq	fancy_abort
.Ltmp426:
	.size	output_221, .Ltmp426-output_221
	.cfi_endproc

	.align	16, 0x90
	.type	output_222,@function
output_222:                             # @output_222
	.cfi_startproc
# BB#0:                                 # %entry
	pushq	%r14
.Ltmp430:
	.cfi_def_cfa_offset 16
	pushq	%rbx
.Ltmp431:
	.cfi_def_cfa_offset 24
	pushq	%rax
.Ltmp432:
	.cfi_def_cfa_offset 32
.Ltmp433:
	.cfi_offset %rbx, -24
.Ltmp434:
	.cfi_offset %r14, -16
	movl	which_alternative(%rip), %ebx
	movq	%rdi, %r14
	movq	%rsi, %rdi
	callq	get_attr_type
	movq	16(%r14), %rdx
	movabsq	$4294967295, %rcx       # imm = 0xFFFFFFFF
	andq	%rcx, %rax
	cmpq	$10, %rax
	jne	.LBB89_12
# BB#1:                                 # %sw.bb
	movq	const_int_rtx+520(%rip), %rax
	cmpq	%rax, %rdx
	je	.LBB89_2
# BB#5:                                 # %if.else
	movq	const_int_rtx+504(%rip), %rax
	cmpq	%rax, %rdx
	je	.LBB89_8
# BB#6:                                 # %lor.lhs.false
	movzbl	(%rdx), %eax
	cmpq	$54, %rax
	jne	.LBB89_11
# BB#7:                                 # %land.lhs.true
	movq	8(%rdx), %rax
	cmpq	$255, %rax
	jne	.LBB89_11
.LBB89_8:                               # %if.then13
	andq	%rcx, %rbx
	cmpq	$2, %rbx
	je	.LBB89_9
# BB#10:                                # %if.then13
	movabsq	$.L.str1765, %rax
	jmp	.LBB89_22
.LBB89_12:                              # %sw.default
	movzbl	(%rdx), %eax
	cmpq	$54, %rax
	jne	.LBB89_19
# BB#13:                                # %land.lhs.true22
	movq	8(%rdx), %rsi
	cmpq	$128, %rsi
	je	.LBB89_16
# BB#14:                                # %lor.lhs.false29
	testq	%rsi, %rsi
	jns	.LBB89_19
# BB#15:                                # %lor.lhs.false29
	cmpq	$-128, %rsi
	je	.LBB89_19
.LBB89_16:                              # %if.then43
	andq	%rcx, %rbx
	negq	%rsi
	xorq	%rdi, %rdi
	callq	gen_rtx_CONST_INT
	cmpq	$2, %rbx
	movq	%rax, 16(%r14)
	je	.LBB89_17
# BB#18:                                # %if.then43
	movabsq	$.L.str315, %rax
	jmp	.LBB89_22
.LBB89_19:                              # %if.end53
	andq	%rcx, %rbx
	cmpq	$2, %rbx
	je	.LBB89_20
# BB#21:                                # %if.end53
	movabsq	$.L.str248, %rax
	jmp	.LBB89_22
.LBB89_2:                               # %if.then
	andq	%rcx, %rbx
	cmpq	$2, %rbx
	je	.LBB89_3
# BB#4:                                 # %if.then
	movabsq	$.L.str1764, %rax
	jmp	.LBB89_22
.LBB89_20:
	movabsq	$.L.str1768, %rax
	jmp	.LBB89_22
.LBB89_9:
	movabsq	$.L.str1767, %rax
	jmp	.LBB89_22
.LBB89_17:
	movabsq	$.L.str305, %rax
	jmp	.LBB89_22
.LBB89_3:
	movabsq	$.L.str1766, %rax
.LBB89_22:                              # %return
	addq	$8, %rsp
	popq	%rbx
	popq	%r14
	retq
.LBB89_11:                              # %if.end16
	movabsq	$.L.str1644, %rax
	movabsq	$.L__FUNCTION__.output_222, %rcx
	movq	$2511, %rsi             # imm = 0x9CF
	movq	%rax, %rdi
	movq	%rcx, %rdx
	callq	fancy_abort
.Ltmp435:
	.size	output_222, .Ltmp435-output_222
	.cfi_endproc

	.align	16, 0x90
	.type	output_223,@function
output_223:                             # @output_223
	.cfi_startproc
# BB#0:                                 # %entry
	pushq	%rbx
.Ltmp438:
	.cfi_def_cfa_offset 16
.Ltmp439:
	.cfi_offset %rbx, -16
	movq	%rdi, %rbx
	movq	%rsi, %rdi
	callq	get_attr_type
	movq	16(%rbx), %rcx
	movabsq	$4294967295, %rdx       # imm = 0xFFFFFFFF
	andq	%rax, %rdx
	cmpq	$10, %rdx
	jne	.LBB90_7
# BB#1:                                 # %sw.bb
	movq	const_int_rtx+520(%rip), %rax
	cmpq	%rax, %rcx
	je	.LBB90_2
# BB#3:                                 # %if.else
	movq	const_int_rtx+504(%rip), %rdx
	movabsq	$.L.str1765, %rax
	cmpq	%rdx, %rcx
	je	.LBB90_10
# BB#4:                                 # %lor.lhs.false
	movzbl	(%rcx), %edx
	cmpq	$54, %rdx
	jne	.LBB90_6
# BB#5:                                 # %land.lhs.true
	movq	8(%rcx), %rcx
	cmpq	$255, %rcx
	je	.LBB90_10
.LBB90_6:                               # %if.end9
	movabsq	$.L.str1644, %rax
	movabsq	$.L__FUNCTION__.output_223, %rcx
	movq	$2552, %rsi             # imm = 0x9F8
	movq	%rax, %rdi
	movq	%rcx, %rdx
	callq	fancy_abort
.LBB90_7:                               # %sw.default
	movzbl	(%rcx), %eax
	cmpq	$54, %rax
	movabsq	$.L.str248, %rax
	jne	.LBB90_10
# BB#8:                                 # %land.lhs.true14
	movq	8(%rcx), %rsi
	testq	%rsi, %rsi
	jns	.LBB90_10
# BB#9:                                 # %if.then20
	negq	%rsi
	xorq	%rdi, %rdi
	callq	gen_rtx_CONST_INT
	movq	%rax, 16(%rbx)
	movabsq	$.L.str315, %rax
.LBB90_10:                              # %return
	popq	%rbx
	retq
.LBB90_2:
	movabsq	$.L.str1764, %rax
	popq	%rbx
	retq
.Ltmp440:
	.size	output_223, .Ltmp440-output_223
	.cfi_endproc

	.align	16, 0x90
	.type	output_224,@function
output_224:                             # @output_224
	.cfi_startproc
# BB#0:                                 # %entry
	pushq	%rbx
.Ltmp443:
	.cfi_def_cfa_offset 16
.Ltmp444:
	.cfi_offset %rbx, -16
	movq	%rdi, %rbx
	movq	%rsi, %rdi
	callq	get_attr_type
	movq	16(%rbx), %rcx
	movabsq	$4294967295, %rdx       # imm = 0xFFFFFFFF
	andq	%rax, %rdx
	cmpq	$10, %rdx
	jne	.LBB91_7
# BB#1:                                 # %sw.bb
	movq	const_int_rtx+520(%rip), %rax
	cmpq	%rax, %rcx
	je	.LBB91_2
# BB#3:                                 # %if.else
	movq	const_int_rtx+504(%rip), %rdx
	movabsq	$.L.str1765, %rax
	cmpq	%rdx, %rcx
	je	.LBB91_10
# BB#4:                                 # %lor.lhs.false
	movzbl	(%rcx), %edx
	cmpq	$54, %rdx
	jne	.LBB91_6
# BB#5:                                 # %land.lhs.true
	movq	8(%rcx), %rcx
	cmpq	$255, %rcx
	je	.LBB91_10
.LBB91_6:                               # %if.end9
	movabsq	$.L.str1644, %rax
	movabsq	$.L__FUNCTION__.output_224, %rcx
	movq	$2584, %rsi             # imm = 0xA18
	movq	%rax, %rdi
	movq	%rcx, %rdx
	callq	fancy_abort
.LBB91_7:                               # %sw.default
	movzbl	(%rcx), %eax
	cmpq	$54, %rax
	movabsq	$.L.str248, %rax
	jne	.LBB91_10
# BB#8:                                 # %land.lhs.true14
	movq	8(%rcx), %rsi
	testq	%rsi, %rsi
	jns	.LBB91_10
# BB#9:                                 # %if.then20
	negq	%rsi
	xorq	%rdi, %rdi
	callq	gen_rtx_CONST_INT
	movq	%rax, 16(%rbx)
	movabsq	$.L.str315, %rax
.LBB91_10:                              # %return
	popq	%rbx
	retq
.LBB91_2:
	movabsq	$.L.str1764, %rax
	popq	%rbx
	retq
.Ltmp445:
	.size	output_224, .Ltmp445-output_224
	.cfi_endproc

	.align	16, 0x90
	.type	output_225,@function
output_225:                             # @output_225
	.cfi_startproc
# BB#0:                                 # %entry
	pushq	%r14
.Ltmp449:
	.cfi_def_cfa_offset 16
	pushq	%rbx
.Ltmp450:
	.cfi_def_cfa_offset 24
	pushq	%rax
.Ltmp451:
	.cfi_def_cfa_offset 32
.Ltmp452:
	.cfi_offset %rbx, -24
.Ltmp453:
	.cfi_offset %r14, -16
	movq	%rdi, %rbx
	movq	%rsi, %rdi
	callq	get_attr_type
	movabsq	$4294967295, %r14       # imm = 0xFFFFFFFF
	andq	%r14, %rax
	cmpq	$10, %rax
	jne	.LBB92_8
# BB#1:                                 # %sw.bb
	movq	16(%rbx), %rcx
	movq	const_int_rtx+504(%rip), %rax
	cmpq	%rax, %rcx
	movabsq	$.L.str1764, %rax
	je	.LBB92_13
# BB#2:                                 # %lor.lhs.false
	movzbl	(%rcx), %edx
	cmpq	$54, %rdx
	jne	.LBB92_4
# BB#3:                                 # %land.lhs.true
	movq	8(%rcx), %rdx
	cmpq	$255, %rdx
	je	.LBB92_13
.LBB92_4:                               # %if.else
	movq	const_int_rtx+520(%rip), %rax
	cmpq	%rax, %rcx
	jne	.LBB92_6
# BB#5:
	movabsq	$.L.str1765, %rax
	jmp	.LBB92_13
.LBB92_8:                               # %sw.default
	movq	(%rbx), %rdi
	movq	8(%rbx), %rsi
	callq	rtx_equal_p
	testq	%r14, %rax
	je	.LBB92_9
# BB#10:                                # %if.end
	movq	16(%rbx), %rax
	movq	8(%rax), %rsi
	testq	%rsi, %rsi
	js	.LBB92_12
# BB#11:
	movabsq	$.L.str315, %rax
	jmp	.LBB92_13
.LBB92_12:                              # %if.then19
	negq	%rsi
	xorq	%rdi, %rdi
	callq	gen_rtx_CONST_INT
	movq	%rax, 16(%rbx)
	movabsq	$.L.str248, %rax
.LBB92_13:                              # %return
	addq	$8, %rsp
	popq	%rbx
	popq	%r14
	retq
.LBB92_6:                               # %if.else9
	movabsq	$.L.str1644, %rax
	movabsq	$.L__FUNCTION__.output_225, %rcx
	movq	$2617, %rsi             # imm = 0xA39
	jmp	.LBB92_7
.LBB92_9:                               # %if.then13
	movabsq	$.L.str1644, %rax
	movabsq	$.L__FUNCTION__.output_225, %rcx
	movq	$2621, %rsi             # imm = 0xA3D
.LBB92_7:                               # %if.else9
	movq	%rax, %rdi
	movq	%rcx, %rdx
	callq	fancy_abort
.Ltmp454:
	.size	output_225, .Ltmp454-output_225
	.cfi_endproc

	.align	16, 0x90
	.type	output_226,@function
output_226:                             # @output_226
	.cfi_startproc
# BB#0:                                 # %entry
	pushq	%rbx
.Ltmp457:
	.cfi_def_cfa_offset 16
.Ltmp458:
	.cfi_offset %rbx, -16
	movq	%rdi, %rbx
	movq	%rsi, %rdi
	callq	get_attr_type
	movq	16(%rbx), %rcx
	movabsq	$4294967295, %rdx       # imm = 0xFFFFFFFF
	andq	%rax, %rdx
	cmpq	$10, %rdx
	jne	.LBB93_7
# BB#1:                                 # %sw.bb
	movq	const_int_rtx+520(%rip), %rax
	cmpq	%rax, %rcx
	je	.LBB93_2
# BB#3:                                 # %if.else
	movq	const_int_rtx+504(%rip), %rdx
	movabsq	$.L.str1765, %rax
	cmpq	%rdx, %rcx
	je	.LBB93_10
# BB#4:                                 # %lor.lhs.false
	movzbl	(%rcx), %edx
	cmpq	$54, %rdx
	jne	.LBB93_6
# BB#5:                                 # %land.lhs.true
	movq	8(%rcx), %rcx
	cmpq	$255, %rcx
	je	.LBB93_10
.LBB93_6:                               # %if.end9
	movabsq	$.L.str1644, %rax
	movabsq	$.L__FUNCTION__.output_226, %rcx
	movq	$2649, %rsi             # imm = 0xA59
	movq	%rax, %rdi
	movq	%rcx, %rdx
	callq	fancy_abort
.LBB93_7:                               # %sw.default
	movzbl	(%rcx), %eax
	cmpq	$54, %rax
	movabsq	$.L.str248, %rax
	jne	.LBB93_10
# BB#8:                                 # %land.lhs.true14
	movq	8(%rcx), %rsi
	testq	%rsi, %rsi
	jns	.LBB93_10
# BB#9:                                 # %if.then20
	negq	%rsi
	xorq	%rdi, %rdi
	callq	gen_rtx_CONST_INT
	movq	%rax, 16(%rbx)
	movabsq	$.L.str315, %rax
.LBB93_10:                              # %return
	popq	%rbx
	retq
.LBB93_2:
	movabsq	$.L.str1764, %rax
	popq	%rbx
	retq
.Ltmp459:
	.size	output_226, .Ltmp459-output_226
	.cfi_endproc

	.align	16, 0x90
	.type	output_227,@function
output_227:                             # @output_227
	.cfi_startproc
# BB#0:                                 # %entry
	pushq	%rbx
.Ltmp462:
	.cfi_def_cfa_offset 16
.Ltmp463:
	.cfi_offset %rbx, -16
	movq	%rdi, %rbx
	movq	%rsi, %rdi
	callq	get_attr_type
	movabsq	$4294967295, %rcx       # imm = 0xFFFFFFFF
	andq	%rax, %rcx
	cmpq	$10, %rcx
	jne	.LBB94_1
# BB#2:                                 # %sw.bb
	movq	16(%rbx), %rcx
	movq	const_int_rtx+520(%rip), %rax
	cmpq	%rax, %rcx
	je	.LBB94_3
# BB#4:                                 # %if.else
	movq	const_int_rtx+504(%rip), %rdx
	movabsq	$.L.str1762, %rax
	cmpq	%rdx, %rcx
	je	.LBB94_7
# BB#5:                                 # %lor.lhs.false
	movzbl	(%rcx), %edx
	cmpq	$54, %rdx
	jne	.LBB94_8
# BB#6:                                 # %land.lhs.true
	movq	8(%rcx), %rcx
	cmpq	$255, %rcx
	jne	.LBB94_8
.LBB94_7:                               # %return
	popq	%rbx
	retq
.LBB94_1:
	movabsq	$.L.str1763, %rax
	popq	%rbx
	retq
.LBB94_3:
	movabsq	$.L.str1761, %rax
	popq	%rbx
	retq
.LBB94_8:                               # %if.end9
	movabsq	$.L.str1644, %rax
	movabsq	$.L__FUNCTION__.output_227, %rcx
	movq	$2681, %rsi             # imm = 0xA79
	movq	%rax, %rdi
	movq	%rcx, %rdx
	callq	fancy_abort
.Ltmp464:
	.size	output_227, .Ltmp464-output_227
	.cfi_endproc

	.align	16, 0x90
	.type	output_228,@function
output_228:                             # @output_228
	.cfi_startproc
# BB#0:                                 # %entry
	pushq	%rbx
.Ltmp467:
	.cfi_def_cfa_offset 16
.Ltmp468:
	.cfi_offset %rbx, -16
	movq	%rdi, %rbx
	movq	%rsi, %rdi
	callq	get_attr_type
	movabsq	$4294967295, %rcx       # imm = 0xFFFFFFFF
	andq	%rax, %rcx
	cmpq	$10, %rcx
	jne	.LBB95_1
# BB#2:                                 # %sw.bb
	movq	16(%rbx), %rcx
	movq	const_int_rtx+520(%rip), %rax
	cmpq	%rax, %rcx
	je	.LBB95_3
# BB#4:                                 # %if.else
	movq	const_int_rtx+504(%rip), %rdx
	movabsq	$.L.str1762, %rax
	cmpq	%rdx, %rcx
	je	.LBB95_7
# BB#5:                                 # %lor.lhs.false
	movzbl	(%rcx), %edx
	cmpq	$54, %rdx
	jne	.LBB95_8
# BB#6:                                 # %land.lhs.true
	movq	8(%rcx), %rcx
	cmpq	$255, %rcx
	jne	.LBB95_8
.LBB95_7:                               # %return
	popq	%rbx
	retq
.LBB95_1:
	movabsq	$.L.str1763, %rax
	popq	%rbx
	retq
.LBB95_3:
	movabsq	$.L.str1761, %rax
	popq	%rbx
	retq
.LBB95_8:                               # %if.end9
	movabsq	$.L.str1644, %rax
	movabsq	$.L__FUNCTION__.output_228, %rcx
	movq	$2706, %rsi             # imm = 0xA92
	movq	%rax, %rdi
	movq	%rcx, %rdx
	callq	fancy_abort
.Ltmp469:
	.size	output_228, .Ltmp469-output_228
	.cfi_endproc

	.align	16, 0x90
	.type	output_283,@function
output_283:                             # @output_283
	.cfi_startproc
# BB#0:                                 # %entry
	pushq	%r14
.Ltmp473:
	.cfi_def_cfa_offset 16
	pushq	%rbx
.Ltmp474:
	.cfi_def_cfa_offset 24
	pushq	%rax
.Ltmp475:
	.cfi_def_cfa_offset 32
.Ltmp476:
	.cfi_offset %rbx, -24
.Ltmp477:
	.cfi_offset %r14, -16
	movl	which_alternative(%rip), %eax
	movq	%rdi, %r14
	cmpq	$3, %rax
	jne	.LBB96_1
# BB#2:                                 # %if.then
	movq	8(%r14), %rax
	movzbl	(%rax), %ecx
	cmpq	$54, %rcx
	movabsq	$.L.str1748, %rbx
	jne	.LBB96_5
# BB#3:                                 # %land.lhs.true
	movq	8(%rax), %rsi
	movabsq	$4294967040, %rax       # imm = 0xFFFFFF00
	testq	%rax, %rsi
	je	.LBB96_5
# BB#4:                                 # %if.then4
	andq	$255, %rsi
	xorq	%rdi, %rdi
	callq	gen_rtx_CONST_INT
	movq	%rax, 8(%r14)
	jmp	.LBB96_5
.LBB96_1:
	movabsq	$.L.str1749, %rbx
.LBB96_5:                               # %return
	movq	%rbx, %rax
	addq	$8, %rsp
	popq	%rbx
	popq	%r14
	retq
.Ltmp478:
	.size	output_283, .Ltmp478-output_283
	.cfi_endproc

	.align	16, 0x90
	.type	output_290,@function
output_290:                             # @output_290
	.cfi_startproc
# BB#0:                                 # %entry
	pushq	%r15
.Ltmp483:
	.cfi_def_cfa_offset 16
	pushq	%r14
.Ltmp484:
	.cfi_def_cfa_offset 24
	pushq	%rbx
.Ltmp485:
	.cfi_def_cfa_offset 32
.Ltmp486:
	.cfi_offset %rbx, -32
.Ltmp487:
	.cfi_offset %r14, -24
.Ltmp488:
	.cfi_offset %r15, -16
	movq	%rsi, %r14
	movq	%rdi, %r15
	movq	%r14, %rdi
	callq	get_attr_type
	movabsq	$4294967295, %rbx       # imm = 0xFFFFFFFF
	andq	%rbx, %rax
	cmpq	$8, %rax
	jne	.LBB97_10
# BB#1:                                 # %sw.bb
	movq	16(%r15), %rax
	movzbl	(%rax), %ecx
	cmpq	$54, %rcx
	jne	.LBB97_2
# BB#4:                                 # %if.end
	movq	8(%rax), %rax
	movq	$2, %r14
	cmpq	$255, %rax
	je	.LBB97_7
# BB#5:                                 # %if.end
	cmpq	$65535, %rax            # imm = 0xFFFF
	jne	.LBB97_16
# BB#6:                                 # %if.then10
	movq	$3, %r14
.LBB97_7:                               # %if.end13
	movq	8(%r15), %rsi
	movq	%r14, %rdi
	callq	gen_lowpart
	andq	%r14, %rbx
	cmpq	$2, %rbx
	movq	%rax, 8(%r15)
	je	.LBB97_8
# BB#9:                                 # %if.end13
	movabsq	$.L.str1747, %rax
	jmp	.LBB97_15
.LBB97_10:                              # %sw.default
	movq	(%r15), %rdi
	movq	8(%r15), %rsi
	callq	rtx_equal_p
	testq	%rbx, %rax
	je	.LBB97_11
# BB#12:                                # %if.end24
	movq	%r14, %rdi
	callq	get_attr_mode
	andq	%rbx, %rax
	cmpq	$4, %rax
	je	.LBB97_13
# BB#14:                                # %if.end24
	movabsq	$.L.str1745, %rax
	jmp	.LBB97_15
.LBB97_13:
	movabsq	$.L.str1739, %rax
	jmp	.LBB97_15
.LBB97_8:
	movabsq	$.L.str1746, %rax
.LBB97_15:                              # %return
	popq	%rbx
	popq	%r14
	popq	%r15
	retq
.LBB97_2:                               # %if.then
	movabsq	$.L.str1644, %rax
	movabsq	$.L__FUNCTION__.output_290, %rcx
	movq	$2780, %rsi             # imm = 0xADC
	jmp	.LBB97_3
.LBB97_16:                              # %if.else11
	movabsq	$.L.str1644, %rax
	movabsq	$.L__FUNCTION__.output_290, %rcx
	movq	$2786, %rsi             # imm = 0xAE2
	jmp	.LBB97_3
.LBB97_11:                              # %if.then23
	movabsq	$.L.str1644, %rax
	movabsq	$.L__FUNCTION__.output_290, %rcx
	movq	$2797, %rsi             # imm = 0xAED
.LBB97_3:                               # %if.then
	movq	%rax, %rdi
	movq	%rcx, %rdx
	callq	fancy_abort
.Ltmp489:
	.size	output_290, .Ltmp489-output_290
	.cfi_endproc

	.align	16, 0x90
	.type	output_292,@function
output_292:                             # @output_292
	.cfi_startproc
# BB#0:                                 # %entry
	pushq	%r15
.Ltmp494:
	.cfi_def_cfa_offset 16
	pushq	%r14
.Ltmp495:
	.cfi_def_cfa_offset 24
	pushq	%rbx
.Ltmp496:
	.cfi_def_cfa_offset 32
.Ltmp497:
	.cfi_offset %rbx, -32
.Ltmp498:
	.cfi_offset %r14, -24
.Ltmp499:
	.cfi_offset %r15, -16
	movq	%rdi, %r15
	movq	%rsi, %rdi
	callq	get_attr_type
	movabsq	$4294967295, %rbx       # imm = 0xFFFFFFFF
	andq	%rbx, %rax
	cmpq	$8, %rax
	jne	.LBB98_10
# BB#1:                                 # %sw.bb
	movq	16(%r15), %rax
	movzbl	(%rax), %ecx
	cmpq	$54, %rcx
	jne	.LBB98_2
# BB#4:                                 # %if.end
	movq	8(%rax), %rax
	movq	$2, %r14
	cmpq	$255, %rax
	je	.LBB98_7
# BB#5:                                 # %if.end
	cmpq	$65535, %rax            # imm = 0xFFFF
	jne	.LBB98_13
# BB#6:                                 # %if.then10
	movq	$3, %r14
.LBB98_7:                               # %if.end13
	movq	8(%r15), %rsi
	movq	%r14, %rdi
	callq	gen_lowpart
	andq	%r14, %rbx
	cmpq	$2, %rbx
	movq	%rax, 8(%r15)
	je	.LBB98_8
# BB#9:                                 # %if.end13
	movabsq	$.L.str1742, %rax
	jmp	.LBB98_12
.LBB98_10:                              # %sw.default
	movq	(%r15), %rdi
	movq	8(%r15), %rsi
	callq	rtx_equal_p
	testq	%rbx, %rax
	je	.LBB98_14
# BB#11:
	movabsq	$.L.str385, %rax
	jmp	.LBB98_12
.LBB98_8:
	movabsq	$.L.str1741, %rax
.LBB98_12:                              # %return
	popq	%rbx
	popq	%r14
	popq	%r15
	retq
.LBB98_2:                               # %if.then
	movabsq	$.L.str1644, %rax
	movabsq	$.L__FUNCTION__.output_292, %rcx
	movq	$2827, %rsi             # imm = 0xB0B
	jmp	.LBB98_3
.LBB98_13:                              # %if.else11
	movabsq	$.L.str1644, %rax
	movabsq	$.L__FUNCTION__.output_292, %rcx
	movq	$2833, %rsi             # imm = 0xB11
	jmp	.LBB98_3
.LBB98_14:                              # %if.then23
	movabsq	$.L.str1644, %rax
	movabsq	$.L__FUNCTION__.output_292, %rcx
	movq	$2844, %rsi             # imm = 0xB1C
.LBB98_3:                               # %if.then
	movq	%rax, %rdi
	movq	%rcx, %rdx
	callq	fancy_abort
.Ltmp500:
	.size	output_292, .Ltmp500-output_292
	.cfi_endproc

	.align	16, 0x90
	.type	output_296,@function
output_296:                             # @output_296
	.cfi_startproc
# BB#0:                                 # %entry
	pushq	%r14
.Ltmp504:
	.cfi_def_cfa_offset 16
	pushq	%rbx
.Ltmp505:
	.cfi_def_cfa_offset 24
	pushq	%rax
.Ltmp506:
	.cfi_def_cfa_offset 32
.Ltmp507:
	.cfi_offset %rbx, -24
.Ltmp508:
	.cfi_offset %r14, -16
	movq	%rdi, %rbx
	movq	%rsi, %rdi
	callq	get_attr_type
	movabsq	$4294967295, %r14       # imm = 0xFFFFFFFF
	andq	%r14, %rax
	cmpq	$8, %rax
	jne	.LBB99_7
# BB#1:                                 # %sw.bb
	movq	16(%rbx), %rax
	movzbl	(%rax), %ecx
	cmpq	$54, %rcx
	jne	.LBB99_2
# BB#4:                                 # %if.end
	movq	8(%rax), %rax
	cmpq	$255, %rax
	jne	.LBB99_6
# BB#5:
	movabsq	$.L.str1740, %rax
	jmp	.LBB99_9
.LBB99_7:                               # %sw.default
	movq	(%rbx), %rdi
	movq	8(%rbx), %rsi
	callq	rtx_equal_p
	testq	%r14, %rax
	je	.LBB99_10
# BB#8:
	movabsq	$.L.str389, %rax
.LBB99_9:                               # %return
	addq	$8, %rsp
	popq	%rbx
	popq	%r14
	retq
.LBB99_2:                               # %if.then
	movabsq	$.L.str1644, %rax
	movabsq	$.L__FUNCTION__.output_296, %rcx
	movq	$2862, %rsi             # imm = 0xB2E
	jmp	.LBB99_3
.LBB99_6:                               # %if.end5
	movabsq	$.L.str1644, %rax
	movabsq	$.L__FUNCTION__.output_296, %rcx
	movq	$2865, %rsi             # imm = 0xB31
	jmp	.LBB99_3
.LBB99_10:                              # %if.then9
	movabsq	$.L.str1644, %rax
	movabsq	$.L__FUNCTION__.output_296, %rcx
	movq	$2869, %rsi             # imm = 0xB35
.LBB99_3:                               # %if.then
	movq	%rax, %rdi
	movq	%rcx, %rdx
	callq	fancy_abort
.Ltmp509:
	.size	output_296, .Ltmp509-output_296
	.cfi_endproc

	.align	16, 0x90
	.type	output_300,@function
output_300:                             # @output_300
	.cfi_startproc
# BB#0:                                 # %entry
	pushq	%r14
.Ltmp513:
	.cfi_def_cfa_offset 16
	pushq	%rbx
.Ltmp514:
	.cfi_def_cfa_offset 24
	pushq	%rax
.Ltmp515:
	.cfi_def_cfa_offset 32
.Ltmp516:
	.cfi_offset %rbx, -24
.Ltmp517:
	.cfi_offset %r14, -16
	movl	which_alternative(%rip), %eax
	movq	%rdi, %r14
	cmpq	$2, %rax
	jne	.LBB100_1
# BB#2:                                 # %if.then
	movq	16(%r14), %rax
	movzbl	(%rax), %ecx
	cmpq	$54, %rcx
	movabsq	$.L.str383, %rbx
	jne	.LBB100_5
# BB#3:                                 # %land.lhs.true
	movq	8(%rax), %rsi
	movabsq	$4294967040, %rax       # imm = 0xFFFFFF00
	testq	%rax, %rsi
	je	.LBB100_5
# BB#4:                                 # %if.then4
	andq	$255, %rsi
	xorq	%rdi, %rdi
	callq	gen_rtx_CONST_INT
	movq	%rax, 16(%r14)
	jmp	.LBB100_5
.LBB100_1:
	movabsq	$.L.str1738, %rbx
.LBB100_5:                              # %return
	movq	%rbx, %rax
	addq	$8, %rsp
	popq	%rbx
	popq	%r14
	retq
.Ltmp518:
	.size	output_300, .Ltmp518-output_300
	.cfi_endproc

	.align	16, 0x90
	.type	output_403,@function
output_403:                             # @output_403
	.cfi_startproc
# BB#0:                                 # %entry
	pushq	%r14
.Ltmp522:
	.cfi_def_cfa_offset 16
	pushq	%rbx
.Ltmp523:
	.cfi_def_cfa_offset 24
	pushq	%rax
.Ltmp524:
	.cfi_def_cfa_offset 32
.Ltmp525:
	.cfi_offset %rbx, -24
.Ltmp526:
	.cfi_offset %r14, -16
	movq	%rdi, %rbx
	movq	%rsi, %rdi
	callq	get_attr_type
	movabsq	$4294967295, %r14       # imm = 0xFFFFFFFF
	andq	%r14, %rax
	cmpq	$9, %rax
	jne	.LBB101_1
# BB#8:                                 # %sw.bb6
	movq	16(%rbx), %rax
	movzbl	(%rax), %ecx
	cmpq	$54, %rcx
	jne	.LBB101_10
# BB#9:                                 # %lor.lhs.false
	movq	8(%rax), %rcx
	cmpq	$4, %rcx
	jae	.LBB101_10
# BB#11:                                # %if.end13
	movq	8(%rbx), %r14
	movq	$1, %rsi
	shlq	%cl, %rsi
	movq	$32, %rcx
	shlq	%cl, %rsi
	movq	$32, %rcx
	sarq	%cl, %rsi
	xorq	%rdi, %rdi
	callq	gen_rtx_CONST_INT
	movq	$78, %rdi
	movq	$5, %rsi
	movq	%r14, %rdx
	movq	%rax, %rcx
	callq	gen_rtx_fmt_ee
	movq	%rax, 8(%rbx)
	movabsq	$.L.str255, %rax
	jmp	.LBB101_19
.LBB101_1:                              # %entry
	cmpq	$4, %rax
	jne	.LBB101_12
# BB#2:                                 # %sw.bb
	movq	16(%rbx), %rax
	movq	const_int_rtx+520(%rip), %rcx
	cmpq	%rcx, %rax
	jne	.LBB101_3
# BB#5:                                 # %if.end
	movq	(%rbx), %rdi
	movq	8(%rbx), %rsi
	callq	rtx_equal_p
	testq	%r14, %rax
	je	.LBB101_7
# BB#6:
	movabsq	$.L.str1730, %rax
	jmp	.LBB101_19
.LBB101_12:                             # %sw.default
	movq	16(%rbx), %rax
	movzbl	(%rax), %ecx
	cmpq	$61, %rcx
	jne	.LBB101_14
# BB#13:
	movabsq	$.L.str1731, %rax
	jmp	.LBB101_19
.LBB101_14:                             # %sw.default
	cmpq	$54, %rcx
	jne	.LBB101_18
# BB#15:                                # %land.lhs.true
	movq	8(%rax), %rax
	cmpq	$1, %rax
	jne	.LBB101_18
# BB#16:                                # %land.lhs.true39
	movl	ix86_cpu(%rip), %eax
	movabsq	$4294967294, %rcx       # imm = 0xFFFFFFFE
	andq	%rax, %rcx
	cmpq	$2, %rcx
	jne	.LBB101_18
# BB#17:
	movabsq	$.L.str1732, %rax
	jmp	.LBB101_19
.LBB101_18:                             # %if.else46
	movabsq	$.L.str1733, %rax
.LBB101_19:                             # %return
	addq	$8, %rsp
	popq	%rbx
	popq	%r14
	retq
.LBB101_10:                             # %if.then12
	movabsq	$.L.str1644, %rax
	movabsq	$.L__FUNCTION__.output_403, %rcx
	movq	$2948, %rsi             # imm = 0xB84
	jmp	.LBB101_4
.LBB101_3:                              # %if.then
	movabsq	$.L.str1644, %rax
	movabsq	$.L__FUNCTION__.output_403, %rcx
	movq	$2940, %rsi             # imm = 0xB7C
	jmp	.LBB101_4
.LBB101_7:                              # %if.then4
	movabsq	$.L.str1644, %rax
	movabsq	$.L__FUNCTION__.output_403, %rcx
	movq	$2942, %rsi             # imm = 0xB7E
.LBB101_4:                              # %if.then
	movq	%rax, %rdi
	movq	%rcx, %rdx
	callq	fancy_abort
.Ltmp527:
	.size	output_403, .Ltmp527-output_403
	.cfi_endproc

	.align	16, 0x90
	.type	output_404,@function
output_404:                             # @output_404
	.cfi_startproc
# BB#0:                                 # %entry
	pushq	%rbx
.Ltmp530:
	.cfi_def_cfa_offset 16
.Ltmp531:
	.cfi_offset %rbx, -16
	movq	%rdi, %rbx
	movq	%rsi, %rdi
	callq	get_attr_type
	movq	16(%rbx), %rcx
	movabsq	$4294967295, %rdx       # imm = 0xFFFFFFFF
	andq	%rax, %rdx
	cmpq	$4, %rdx
	jne	.LBB102_4
# BB#1:                                 # %sw.bb
	movq	const_int_rtx+520(%rip), %rax
	cmpq	%rax, %rcx
	jne	.LBB102_3
# BB#2:
	movabsq	$.L.str1730, %rax
	popq	%rbx
	retq
.LBB102_4:                              # %sw.default
	movzbl	(%rcx), %eax
	cmpq	$61, %rax
	jne	.LBB102_6
# BB#5:
	movabsq	$.L.str1731, %rax
	popq	%rbx
	retq
.LBB102_6:                              # %sw.default
	cmpq	$54, %rax
	jne	.LBB102_10
# BB#7:                                 # %land.lhs.true
	movq	8(%rcx), %rax
	cmpq	$1, %rax
	jne	.LBB102_10
# BB#8:                                 # %land.lhs.true11
	movl	ix86_cpu(%rip), %eax
	movabsq	$4294967294, %rcx       # imm = 0xFFFFFFFE
	andq	%rax, %rcx
	cmpq	$2, %rcx
	jne	.LBB102_10
# BB#9:
	movabsq	$.L.str1732, %rax
	popq	%rbx
	retq
.LBB102_10:                             # %if.else15
	movabsq	$.L.str1733, %rax
	popq	%rbx
	retq
.LBB102_3:                              # %if.then
	movabsq	$.L.str1644, %rax
	movabsq	$.L__FUNCTION__.output_404, %rcx
	movq	$2978, %rsi             # imm = 0xBA2
	movq	%rax, %rdi
	movq	%rcx, %rdx
	callq	fancy_abort
.Ltmp532:
	.size	output_404, .Ltmp532-output_404
	.cfi_endproc

	.align	16, 0x90
	.type	output_408,@function
output_408:                             # @output_408
	.cfi_startproc
# BB#0:                                 # %entry
	pushq	%r14
.Ltmp536:
	.cfi_def_cfa_offset 16
	pushq	%rbx
.Ltmp537:
	.cfi_def_cfa_offset 24
	pushq	%rax
.Ltmp538:
	.cfi_def_cfa_offset 32
.Ltmp539:
	.cfi_offset %rbx, -24
.Ltmp540:
	.cfi_offset %r14, -16
	movq	%rdi, %rbx
	movq	%rsi, %rdi
	callq	get_attr_type
	movabsq	$4294967295, %r14       # imm = 0xFFFFFFFF
	andq	%r14, %rax
	cmpq	$9, %rax
	jne	.LBB103_2
# BB#1:
	movabsq	$.L.str38, %rax
	jmp	.LBB103_16
.LBB103_2:                              # %entry
	cmpq	$4, %rax
	jne	.LBB103_9
# BB#3:                                 # %sw.bb
	movq	16(%rbx), %rax
	movq	const_int_rtx+520(%rip), %rcx
	cmpq	%rcx, %rax
	jne	.LBB103_4
# BB#6:                                 # %if.end
	movq	(%rbx), %rdi
	movq	8(%rbx), %rsi
	callq	rtx_equal_p
	testq	%r14, %rax
	je	.LBB103_8
# BB#7:
	movabsq	$.L.str1725, %rax
	jmp	.LBB103_16
.LBB103_9:                              # %sw.default
	movq	16(%rbx), %rax
	movzbl	(%rax), %ecx
	cmpq	$61, %rcx
	jne	.LBB103_11
# BB#10:
	movabsq	$.L.str1726, %rax
	jmp	.LBB103_16
.LBB103_11:                             # %sw.default
	cmpq	$54, %rcx
	jne	.LBB103_15
# BB#12:                                # %land.lhs.true
	movq	8(%rax), %rax
	cmpq	$1, %rax
	jne	.LBB103_15
# BB#13:                                # %land.lhs.true17
	movl	ix86_cpu(%rip), %eax
	movabsq	$4294967294, %rcx       # imm = 0xFFFFFFFE
	andq	%rax, %rcx
	cmpq	$2, %rcx
	jne	.LBB103_15
# BB#14:
	movabsq	$.L.str1718, %rax
	jmp	.LBB103_16
.LBB103_15:                             # %if.else21
	movabsq	$.L.str1727, %rax
.LBB103_16:                             # %return
	addq	$8, %rsp
	popq	%rbx
	popq	%r14
	retq
.LBB103_4:                              # %if.then
	movabsq	$.L.str1644, %rax
	movabsq	$.L__FUNCTION__.output_408, %rcx
	movq	$3011, %rsi             # imm = 0xBC3
	jmp	.LBB103_5
.LBB103_8:                              # %if.then4
	movabsq	$.L.str1644, %rax
	movabsq	$.L__FUNCTION__.output_408, %rcx
	movq	$3013, %rsi             # imm = 0xBC5
.LBB103_5:                              # %if.then
	movq	%rax, %rdi
	movq	%rcx, %rdx
	callq	fancy_abort
.Ltmp541:
	.size	output_408, .Ltmp541-output_408
	.cfi_endproc

	.align	16, 0x90
	.type	output_409,@function
output_409:                             # @output_409
	.cfi_startproc
# BB#0:                                 # %entry
	pushq	%rbx
.Ltmp544:
	.cfi_def_cfa_offset 16
.Ltmp545:
	.cfi_offset %rbx, -16
	movq	%rdi, %rbx
	movq	%rsi, %rdi
	callq	get_attr_type
	movabsq	$4294967295, %rcx       # imm = 0xFFFFFFFF
	andq	%rax, %rcx
	cmpq	$9, %rcx
	jne	.LBB104_2
# BB#1:
	movabsq	$.L.str38, %rax
	popq	%rbx
	retq
.LBB104_2:                              # %entry
	cmpq	$4, %rcx
	jne	.LBB104_6
# BB#3:                                 # %sw.bb
	movq	16(%rbx), %rax
	movq	const_int_rtx+520(%rip), %rcx
	cmpq	%rcx, %rax
	jne	.LBB104_5
# BB#4:
	movabsq	$.L.str1716, %rax
	popq	%rbx
	retq
.LBB104_6:                              # %sw.default
	movq	16(%rbx), %rax
	movzbl	(%rax), %ecx
	cmpq	$61, %rcx
	jne	.LBB104_8
# BB#7:
	movabsq	$.L.str1717, %rax
	popq	%rbx
	retq
.LBB104_8:                              # %sw.default
	cmpq	$54, %rcx
	jne	.LBB104_12
# BB#9:                                 # %land.lhs.true
	movq	8(%rax), %rax
	cmpq	$1, %rax
	jne	.LBB104_12
# BB#10:                                # %land.lhs.true12
	movl	ix86_cpu(%rip), %eax
	movabsq	$4294967294, %rcx       # imm = 0xFFFFFFFE
	andq	%rax, %rcx
	cmpq	$2, %rcx
	jne	.LBB104_12
# BB#11:
	movabsq	$.L.str1724, %rax
	popq	%rbx
	retq
.LBB104_12:                             # %if.else16
	movabsq	$.L.str1719, %rax
	popq	%rbx
	retq
.LBB104_5:                              # %if.then
	movabsq	$.L.str1644, %rax
	movabsq	$.L__FUNCTION__.output_409, %rcx
	movq	$3044, %rsi             # imm = 0xBE4
	movq	%rax, %rdi
	movq	%rcx, %rdx
	callq	fancy_abort
.Ltmp546:
	.size	output_409, .Ltmp546-output_409
	.cfi_endproc

	.align	16, 0x90
	.type	output_410,@function
output_410:                             # @output_410
	.cfi_startproc
# BB#0:                                 # %entry
	pushq	%rbx
.Ltmp549:
	.cfi_def_cfa_offset 16
.Ltmp550:
	.cfi_offset %rbx, -16
	movq	%rdi, %rbx
	movq	%rsi, %rdi
	callq	get_attr_type
	movq	16(%rbx), %rcx
	movabsq	$4294967295, %rdx       # imm = 0xFFFFFFFF
	andq	%rax, %rdx
	cmpq	$4, %rdx
	jne	.LBB105_4
# BB#1:                                 # %sw.bb
	movq	const_int_rtx+520(%rip), %rax
	cmpq	%rax, %rcx
	jne	.LBB105_3
# BB#2:
	movabsq	$.L.str1725, %rax
	popq	%rbx
	retq
.LBB105_4:                              # %sw.default
	movzbl	(%rcx), %eax
	cmpq	$61, %rax
	jne	.LBB105_6
# BB#5:
	movabsq	$.L.str1726, %rax
	popq	%rbx
	retq
.LBB105_6:                              # %sw.default
	cmpq	$54, %rax
	jne	.LBB105_10
# BB#7:                                 # %land.lhs.true
	movq	8(%rcx), %rax
	cmpq	$1, %rax
	jne	.LBB105_10
# BB#8:                                 # %land.lhs.true11
	movl	ix86_cpu(%rip), %eax
	movabsq	$4294967294, %rcx       # imm = 0xFFFFFFFE
	andq	%rax, %rcx
	cmpq	$2, %rcx
	jne	.LBB105_10
# BB#9:
	movabsq	$.L.str1718, %rax
	popq	%rbx
	retq
.LBB105_10:                             # %if.else15
	movabsq	$.L.str1727, %rax
	popq	%rbx
	retq
.LBB105_3:                              # %if.then
	movabsq	$.L.str1644, %rax
	movabsq	$.L__FUNCTION__.output_410, %rcx
	movq	$3075, %rsi             # imm = 0xC03
	movq	%rax, %rdi
	movq	%rcx, %rdx
	callq	fancy_abort
.Ltmp551:
	.size	output_410, .Ltmp551-output_410
	.cfi_endproc

	.align	16, 0x90
	.type	output_411,@function
output_411:                             # @output_411
	.cfi_startproc
# BB#0:                                 # %entry
	pushq	%rbx
.Ltmp554:
	.cfi_def_cfa_offset 16
.Ltmp555:
	.cfi_offset %rbx, -16
	movq	%rdi, %rbx
	movq	%rsi, %rdi
	callq	get_attr_type
	movq	16(%rbx), %rcx
	movabsq	$4294967295, %rdx       # imm = 0xFFFFFFFF
	andq	%rax, %rdx
	cmpq	$4, %rdx
	jne	.LBB106_4
# BB#1:                                 # %sw.bb
	movq	const_int_rtx+520(%rip), %rax
	cmpq	%rax, %rcx
	jne	.LBB106_3
# BB#2:
	movabsq	$.L.str1716, %rax
	popq	%rbx
	retq
.LBB106_4:                              # %sw.default
	movzbl	(%rcx), %eax
	cmpq	$61, %rax
	jne	.LBB106_6
# BB#5:
	movabsq	$.L.str1717, %rax
	popq	%rbx
	retq
.LBB106_6:                              # %sw.default
	cmpq	$54, %rax
	jne	.LBB106_10
# BB#7:                                 # %land.lhs.true
	movq	8(%rcx), %rax
	cmpq	$1, %rax
	jne	.LBB106_10
# BB#8:                                 # %land.lhs.true11
	movl	ix86_cpu(%rip), %eax
	movabsq	$4294967294, %rcx       # imm = 0xFFFFFFFE
	andq	%rax, %rcx
	cmpq	$2, %rcx
	jne	.LBB106_10
# BB#9:
	movabsq	$.L.str1724, %rax
	popq	%rbx
	retq
.LBB106_10:                             # %if.else15
	movabsq	$.L.str1719, %rax
	popq	%rbx
	retq
.LBB106_3:                              # %if.then
	movabsq	$.L.str1644, %rax
	movabsq	$.L__FUNCTION__.output_411, %rcx
	movq	$3103, %rsi             # imm = 0xC1F
	movq	%rax, %rdi
	movq	%rcx, %rdx
	callq	fancy_abort
.Ltmp556:
	.size	output_411, .Ltmp556-output_411
	.cfi_endproc

	.align	16, 0x90
	.type	output_412,@function
output_412:                             # @output_412
	.cfi_startproc
# BB#0:                                 # %entry
	pushq	%rbx
.Ltmp559:
	.cfi_def_cfa_offset 16
.Ltmp560:
	.cfi_offset %rbx, -16
	movq	%rdi, %rbx
	movq	%rsi, %rdi
	callq	get_attr_type
	movabsq	$4294967295, %rcx       # imm = 0xFFFFFFFF
	andq	%rax, %rcx
	cmpq	$9, %rcx
	jne	.LBB107_2
# BB#1:
	movabsq	$.L.str38, %rax
	popq	%rbx
	retq
.LBB107_2:                              # %entry
	cmpq	$4, %rcx
	jne	.LBB107_6
# BB#3:                                 # %sw.bb1
	movq	16(%rbx), %rax
	movq	const_int_rtx+520(%rip), %rcx
	cmpq	%rcx, %rax
	jne	.LBB107_5
# BB#4:
	movabsq	$.L.str1720, %rax
	popq	%rbx
	retq
.LBB107_6:                              # %sw.default
	movq	16(%rbx), %rax
	movzbl	(%rax), %ecx
	cmpq	$61, %rcx
	jne	.LBB107_8
# BB#7:
	movabsq	$.L.str1721, %rax
	popq	%rbx
	retq
.LBB107_8:                              # %sw.default
	cmpq	$54, %rcx
	jne	.LBB107_12
# BB#9:                                 # %land.lhs.true
	movq	8(%rax), %rax
	cmpq	$1, %rax
	jne	.LBB107_12
# BB#10:                                # %land.lhs.true12
	movl	ix86_cpu(%rip), %eax
	movabsq	$4294967294, %rcx       # imm = 0xFFFFFFFE
	andq	%rax, %rcx
	cmpq	$2, %rcx
	jne	.LBB107_12
# BB#11:
	movabsq	$.L.str1722, %rax
	popq	%rbx
	retq
.LBB107_12:                             # %if.else16
	movabsq	$.L.str1723, %rax
	popq	%rbx
	retq
.LBB107_5:                              # %if.then
	movabsq	$.L.str1644, %rax
	movabsq	$.L__FUNCTION__.output_412, %rcx
	movq	$3133, %rsi             # imm = 0xC3D
	movq	%rax, %rdi
	movq	%rcx, %rdx
	callq	fancy_abort
.Ltmp561:
	.size	output_412, .Ltmp561-output_412
	.cfi_endproc

	.align	16, 0x90
	.type	output_413,@function
output_413:                             # @output_413
	.cfi_startproc
# BB#0:                                 # %entry
	pushq	%rbx
.Ltmp564:
	.cfi_def_cfa_offset 16
.Ltmp565:
	.cfi_offset %rbx, -16
	movq	%rdi, %rbx
	movq	%rsi, %rdi
	callq	get_attr_type
	movq	16(%rbx), %rcx
	movabsq	$4294967295, %rdx       # imm = 0xFFFFFFFF
	andq	%rax, %rdx
	cmpq	$4, %rdx
	jne	.LBB108_4
# BB#1:                                 # %sw.bb
	movq	const_int_rtx+520(%rip), %rax
	cmpq	%rax, %rcx
	jne	.LBB108_3
# BB#2:
	movabsq	$.L.str1720, %rax
	popq	%rbx
	retq
.LBB108_4:                              # %sw.default
	movzbl	(%rcx), %eax
	cmpq	$61, %rax
	jne	.LBB108_6
# BB#5:
	movabsq	$.L.str1721, %rax
	popq	%rbx
	retq
.LBB108_6:                              # %sw.default
	cmpq	$54, %rax
	jne	.LBB108_10
# BB#7:                                 # %land.lhs.true
	movq	8(%rcx), %rax
	cmpq	$1, %rax
	jne	.LBB108_10
# BB#8:                                 # %land.lhs.true11
	movl	ix86_cpu(%rip), %eax
	movabsq	$4294967294, %rcx       # imm = 0xFFFFFFFE
	andq	%rax, %rcx
	cmpq	$2, %rcx
	jne	.LBB108_10
# BB#9:
	movabsq	$.L.str1722, %rax
	popq	%rbx
	retq
.LBB108_10:                             # %if.else15
	movabsq	$.L.str1723, %rax
	popq	%rbx
	retq
.LBB108_3:                              # %if.then
	movabsq	$.L.str1644, %rax
	movabsq	$.L__FUNCTION__.output_413, %rcx
	movq	$3161, %rsi             # imm = 0xC59
	movq	%rax, %rdi
	movq	%rcx, %rdx
	callq	fancy_abort
.Ltmp566:
	.size	output_413, .Ltmp566-output_413
	.cfi_endproc

	.align	16, 0x90
	.type	output_414,@function
output_414:                             # @output_414
	.cfi_startproc
# BB#0:                                 # %entry
	pushq	%rbx
.Ltmp569:
	.cfi_def_cfa_offset 16
.Ltmp570:
	.cfi_offset %rbx, -16
	movq	%rdi, %rbx
	movq	%rsi, %rdi
	callq	get_attr_type
	movq	16(%rbx), %rcx
	movabsq	$4294967295, %rdx       # imm = 0xFFFFFFFF
	andq	%rax, %rdx
	cmpq	$4, %rdx
	jne	.LBB109_4
# BB#1:                                 # %sw.bb
	movq	const_int_rtx+520(%rip), %rax
	cmpq	%rax, %rcx
	jne	.LBB109_3
# BB#2:
	movabsq	$.L.str1720, %rax
	popq	%rbx
	retq
.LBB109_4:                              # %sw.default
	movzbl	(%rcx), %eax
	cmpq	$61, %rax
	jne	.LBB109_6
# BB#5:
	movabsq	$.L.str1721, %rax
	popq	%rbx
	retq
.LBB109_6:                              # %sw.default
	cmpq	$54, %rax
	jne	.LBB109_10
# BB#7:                                 # %land.lhs.true
	movq	8(%rcx), %rax
	cmpq	$1, %rax
	jne	.LBB109_10
# BB#8:                                 # %land.lhs.true11
	movl	ix86_cpu(%rip), %eax
	movabsq	$4294967294, %rcx       # imm = 0xFFFFFFFE
	andq	%rax, %rcx
	cmpq	$2, %rcx
	jne	.LBB109_10
# BB#9:
	movabsq	$.L.str1722, %rax
	popq	%rbx
	retq
.LBB109_10:                             # %if.else15
	movabsq	$.L.str1723, %rax
	popq	%rbx
	retq
.LBB109_3:                              # %if.then
	movabsq	$.L.str1644, %rax
	movabsq	$.L__FUNCTION__.output_414, %rcx
	movq	$3189, %rsi             # imm = 0xC75
	movq	%rax, %rdi
	movq	%rcx, %rdx
	callq	fancy_abort
.Ltmp571:
	.size	output_414, .Ltmp571-output_414
	.cfi_endproc

	.align	16, 0x90
	.type	output_415,@function
output_415:                             # @output_415
	.cfi_startproc
# BB#0:                                 # %entry
	pushq	%r15
.Ltmp576:
	.cfi_def_cfa_offset 16
	pushq	%r14
.Ltmp577:
	.cfi_def_cfa_offset 24
	pushq	%rbx
.Ltmp578:
	.cfi_def_cfa_offset 32
.Ltmp579:
	.cfi_offset %rbx, -32
.Ltmp580:
	.cfi_offset %r14, -24
.Ltmp581:
	.cfi_offset %r15, -16
	movq	%rsi, %r14
	movq	%rdi, %rbx
	movq	%r14, %rdi
	callq	get_attr_type
	movabsq	$4294967295, %r15       # imm = 0xFFFFFFFF
	andq	%r15, %rax
	cmpq	$9, %rax
	jne	.LBB110_2
# BB#1:
	movabsq	$.L.str38, %rax
	jmp	.LBB110_24
.LBB110_2:                              # %entry
	cmpq	$4, %rax
	jne	.LBB110_11
# BB#3:                                 # %sw.bb1
	movq	16(%rbx), %rax
	movq	const_int_rtx+520(%rip), %rcx
	cmpq	%rcx, %rax
	jne	.LBB110_25
# BB#4:                                 # %if.end
	movq	8(%rbx), %rax
	movzbl	(%rax), %ecx
	cmpq	$61, %rcx
	jne	.LBB110_8
# BB#5:                                 # %land.lhs.true
	movzbl	target_flags+3(%rip), %edx
	movl	8(%rax), %ecx
	testq	$2, %rdx
	je	.LBB110_9
# BB#6:                                 # %land.lhs.true8
	movabsq	$.L.str1716, %rax
	andq	%r15, %rcx
	cmpq	$44, %rcx
	ja	.LBB110_24
# BB#7:                                 # %land.lhs.true8
	movq	$1, %rdx
	shlq	%cl, %rdx
	movabsq	$35046933135615, %rcx   # imm = 0x1FE0000000FF
	testq	%rcx, %rdx
	jne	.LBB110_8
	jmp	.LBB110_24
.LBB110_11:                             # %sw.default
	movq	16(%rbx), %rax
	movzbl	(%rax), %ecx
	cmpq	$54, %rcx
	jne	.LBB110_12
# BB#16:                                # %land.lhs.true48
	movq	8(%rax), %rax
	cmpq	$1, %rax
	jne	.LBB110_21
# BB#17:                                # %land.lhs.true53
	movl	ix86_cpu(%rip), %eax
	movabsq	$4294967294, %rcx       # imm = 0xFFFFFFFE
	andq	%rax, %rcx
	cmpq	$2, %rcx
	jne	.LBB110_21
# BB#18:                                # %if.then57
	movq	%r14, %rdi
	callq	get_attr_mode
	andq	%r15, %rax
	cmpq	$4, %rax
	je	.LBB110_19
# BB#20:                                # %if.then57
	movabsq	$.L.str1714, %rax
	jmp	.LBB110_24
.LBB110_12:                             # %sw.default
	cmpq	$61, %rcx
	jne	.LBB110_21
# BB#13:                                # %if.then38
	movq	%r14, %rdi
	callq	get_attr_mode
	andq	%r15, %rax
	cmpq	$4, %rax
	je	.LBB110_14
# BB#15:                                # %if.then38
	movabsq	$.L.str1713, %rax
	jmp	.LBB110_24
.LBB110_21:                             # %if.else62
	movq	%r14, %rdi
	callq	get_attr_mode
	andq	%r15, %rax
	cmpq	$4, %rax
	je	.LBB110_22
# BB#23:                                # %if.else62
	movabsq	$.L.str1715, %rax
	jmp	.LBB110_24
.LBB110_22:
	movabsq	$.L.str1719, %rax
	jmp	.LBB110_24
.LBB110_9:                              # %land.lhs.true27
	andq	%r15, %rcx
	cmpq	$3, %rcx
	ja	.LBB110_10
.LBB110_8:                              # %if.else
	movabsq	$.L.str1712, %rax
.LBB110_24:                             # %return
	popq	%rbx
	popq	%r14
	popq	%r15
	retq
.LBB110_14:
	movabsq	$.L.str1717, %rax
	jmp	.LBB110_24
.LBB110_10:
	movabsq	$.L.str1716, %rax
	jmp	.LBB110_24
.LBB110_19:
	movabsq	$.L.str1718, %rax
	jmp	.LBB110_24
.LBB110_25:                             # %if.then
	movabsq	$.L.str1644, %rax
	movabsq	$.L__FUNCTION__.output_415, %rcx
	movq	$3219, %rsi             # imm = 0xC93
	movq	%rax, %rdi
	movq	%rcx, %rdx
	callq	fancy_abort
.Ltmp582:
	.size	output_415, .Ltmp582-output_415
	.cfi_endproc

	.align	16, 0x90
	.type	output_416,@function
output_416:                             # @output_416
	.cfi_startproc
# BB#0:                                 # %entry
	pushq	%r15
.Ltmp587:
	.cfi_def_cfa_offset 16
	pushq	%r14
.Ltmp588:
	.cfi_def_cfa_offset 24
	pushq	%rbx
.Ltmp589:
	.cfi_def_cfa_offset 32
.Ltmp590:
	.cfi_offset %rbx, -32
.Ltmp591:
	.cfi_offset %r14, -24
.Ltmp592:
	.cfi_offset %r15, -16
	movq	%rsi, %r14
	movq	%rdi, %rbx
	movq	%r14, %rdi
	callq	get_attr_type
	movq	16(%rbx), %rcx
	movabsq	$4294967295, %r15       # imm = 0xFFFFFFFF
	andq	%r15, %rax
	cmpq	$4, %rax
	jne	.LBB111_9
# BB#1:                                 # %sw.bb
	movq	const_int_rtx+520(%rip), %rax
	cmpq	%rax, %rcx
	jne	.LBB111_23
# BB#2:                                 # %if.end
	movq	8(%rbx), %rax
	movzbl	(%rax), %ecx
	cmpq	$61, %rcx
	jne	.LBB111_6
# BB#3:                                 # %land.lhs.true
	movzbl	target_flags+3(%rip), %edx
	movl	8(%rax), %ecx
	testq	$2, %rdx
	je	.LBB111_7
# BB#4:                                 # %land.lhs.true7
	movabsq	$.L.str1716, %rax
	andq	%r15, %rcx
	cmpq	$44, %rcx
	ja	.LBB111_22
# BB#5:                                 # %land.lhs.true7
	movq	$1, %rdx
	shlq	%cl, %rdx
	movabsq	$35046933135615, %rcx   # imm = 0x1FE0000000FF
	testq	%rcx, %rdx
	jne	.LBB111_6
	jmp	.LBB111_22
.LBB111_9:                              # %sw.default
	movzbl	(%rcx), %eax
	cmpq	$54, %rax
	jne	.LBB111_10
# BB#14:                                # %land.lhs.true47
	movq	8(%rcx), %rax
	cmpq	$1, %rax
	jne	.LBB111_19
# BB#15:                                # %land.lhs.true52
	movl	ix86_cpu(%rip), %eax
	movabsq	$4294967294, %rcx       # imm = 0xFFFFFFFE
	andq	%rax, %rcx
	cmpq	$2, %rcx
	jne	.LBB111_19
# BB#16:                                # %if.then56
	movq	%r14, %rdi
	callq	get_attr_mode
	andq	%r15, %rax
	cmpq	$4, %rax
	je	.LBB111_17
# BB#18:                                # %if.then56
	movabsq	$.L.str1714, %rax
	jmp	.LBB111_22
.LBB111_10:                             # %sw.default
	cmpq	$61, %rax
	jne	.LBB111_19
# BB#11:                                # %if.then37
	movq	%r14, %rdi
	callq	get_attr_mode
	andq	%r15, %rax
	cmpq	$4, %rax
	je	.LBB111_12
# BB#13:                                # %if.then37
	movabsq	$.L.str1713, %rax
	jmp	.LBB111_22
.LBB111_19:                             # %if.else61
	movq	%r14, %rdi
	callq	get_attr_mode
	andq	%r15, %rax
	cmpq	$4, %rax
	je	.LBB111_20
# BB#21:                                # %if.else61
	movabsq	$.L.str1715, %rax
	jmp	.LBB111_22
.LBB111_20:
	movabsq	$.L.str1719, %rax
	jmp	.LBB111_22
.LBB111_7:                              # %land.lhs.true26
	andq	%r15, %rcx
	cmpq	$3, %rcx
	ja	.LBB111_8
.LBB111_6:                              # %if.else
	movabsq	$.L.str1712, %rax
.LBB111_22:                             # %return
	popq	%rbx
	popq	%r14
	popq	%r15
	retq
.LBB111_12:
	movabsq	$.L.str1717, %rax
	jmp	.LBB111_22
.LBB111_8:
	movabsq	$.L.str1716, %rax
	jmp	.LBB111_22
.LBB111_17:
	movabsq	$.L.str1718, %rax
	jmp	.LBB111_22
.LBB111_23:                             # %if.then
	movabsq	$.L.str1644, %rax
	movabsq	$.L__FUNCTION__.output_416, %rcx
	movq	$3265, %rsi             # imm = 0xCC1
	movq	%rax, %rdi
	movq	%rcx, %rdx
	callq	fancy_abort
.Ltmp593:
	.size	output_416, .Ltmp593-output_416
	.cfi_endproc

	.align	16, 0x90
	.type	output_417,@function
output_417:                             # @output_417
	.cfi_startproc
# BB#0:                                 # %entry
	pushq	%rbx
.Ltmp596:
	.cfi_def_cfa_offset 16
.Ltmp597:
	.cfi_offset %rbx, -16
	movq	%rdi, %rbx
	movq	%rsi, %rdi
	callq	get_attr_type
	movq	16(%rbx), %rcx
	movabsq	$4294967295, %rdx       # imm = 0xFFFFFFFF
	andq	%rax, %rdx
	cmpq	$4, %rdx
	jne	.LBB112_4
# BB#1:                                 # %sw.bb
	movq	const_int_rtx+520(%rip), %rax
	cmpq	%rax, %rcx
	jne	.LBB112_3
# BB#2:
	movabsq	$.L.str1712, %rax
	popq	%rbx
	retq
.LBB112_4:                              # %sw.default
	movzbl	(%rcx), %eax
	cmpq	$61, %rax
	jne	.LBB112_6
# BB#5:
	movabsq	$.L.str1713, %rax
	popq	%rbx
	retq
.LBB112_6:                              # %sw.default
	cmpq	$54, %rax
	jne	.LBB112_10
# BB#7:                                 # %land.lhs.true
	movq	8(%rcx), %rax
	cmpq	$1, %rax
	jne	.LBB112_10
# BB#8:                                 # %land.lhs.true11
	movl	ix86_cpu(%rip), %eax
	movabsq	$4294967294, %rcx       # imm = 0xFFFFFFFE
	andq	%rax, %rcx
	cmpq	$2, %rcx
	jne	.LBB112_10
# BB#9:
	movabsq	$.L.str1714, %rax
	popq	%rbx
	retq
.LBB112_10:                             # %if.else15
	movabsq	$.L.str1715, %rax
	popq	%rbx
	retq
.LBB112_3:                              # %if.then
	movabsq	$.L.str1644, %rax
	movabsq	$.L__FUNCTION__.output_417, %rcx
	movq	$3311, %rsi             # imm = 0xCEF
	movq	%rax, %rdi
	movq	%rcx, %rdx
	callq	fancy_abort
.Ltmp598:
	.size	output_417, .Ltmp598-output_417
	.cfi_endproc

	.align	16, 0x90
	.type	output_507,@function
output_507:                             # @output_507
	.cfi_startproc
# BB#0:                                 # %entry
	pushq	%rax
.Ltmp600:
	.cfi_def_cfa_offset 16
	movl	which_alternative(%rip), %eax
	testq	%rax, %rax
	je	.LBB113_2
# BB#1:
	movabsq	$.L.str38, %rax
	popq	%rdx
	retq
.LBB113_2:                              # %if.end
	movq	%rsi, %rdi
	callq	get_attr_length
	movabsq	$4294967295, %rcx       # imm = 0xFFFFFFFF
	andq	%rax, %rcx
	cmpq	$2, %rcx
	je	.LBB113_3
# BB#4:                                 # %if.end
	movabsq	$.L.str1677, %rax
	popq	%rdx
	retq
.LBB113_3:
	movabsq	$.L.str1676, %rax
	popq	%rdx
	retq
.Ltmp601:
	.size	output_507, .Ltmp601-output_507
	.cfi_endproc

	.align	16, 0x90
	.type	output_508,@function
output_508:                             # @output_508
	.cfi_startproc
# BB#0:                                 # %entry
	movzbl	3(%rsi), %eax
	testq	$1, %rax
	je	.LBB114_1
# BB#2:                                 # %entry
	movabsq	$.L.str1673, %rax
	retq
.LBB114_1:
	movabsq	$.L.str1674, %rax
	retq
.Ltmp602:
	.size	output_508, .Ltmp602-output_508
	.cfi_endproc

	.align	16, 0x90
	.type	output_509,@function
output_509:                             # @output_509
	.cfi_startproc
# BB#0:                                 # %entry
	pushq	%rbx
.Ltmp605:
	.cfi_def_cfa_offset 16
.Ltmp606:
	.cfi_offset %rbx, -16
	movl	target_flags(%rip), %eax
	movq	%rsi, %rbx
	movq	(%rdi), %rdi
	movq	$25, %rcx
	shrq	%cl, %rax
	andq	$1, %rax
	orq	$4, %rax
	movq	%rax, %rsi
	callq	constant_call_address_operand
	movl	(%rbx), %ecx
	andq	$16777216, %rcx         # imm = 0x1000000
	movabsq	$4294967295, %rdx       # imm = 0xFFFFFFFF
	testq	%rdx, %rax
	je	.LBB115_4
# BB#1:                                 # %if.then
	testq	%rdx, %rcx
	jne	.LBB115_2
# BB#3:                                 # %if.then
	movabsq	$.L.str1674, %rax
	popq	%rbx
	retq
.LBB115_4:                              # %if.end
	testq	%rdx, %rcx
	jne	.LBB115_5
# BB#6:                                 # %if.end
	movabsq	$.L.str1675, %rax
	popq	%rbx
	retq
.LBB115_2:
	movabsq	$.L.str1673, %rax
	popq	%rbx
	retq
.LBB115_5:
	movabsq	$.L.str659, %rax
	popq	%rbx
	retq
.Ltmp607:
	.size	output_509, .Ltmp607-output_509
	.cfi_endproc

	.align	16, 0x90
	.type	output_510,@function
output_510:                             # @output_510
	.cfi_startproc
# BB#0:                                 # %entry
	movzbl	3(%rsi), %eax
	testq	$1, %rax
	je	.LBB116_1
# BB#2:                                 # %entry
	movabsq	$.L.str1673, %rax
	retq
.LBB116_1:
	movabsq	$.L.str1674, %rax
	retq
.Ltmp608:
	.size	output_510, .Ltmp608-output_510
	.cfi_endproc

	.align	16, 0x90
	.type	output_511,@function
output_511:                             # @output_511
	.cfi_startproc
# BB#0:                                 # %entry
	pushq	%rbx
.Ltmp611:
	.cfi_def_cfa_offset 16
.Ltmp612:
	.cfi_offset %rbx, -16
	movq	(%rdi), %rdi
	movq	%rsi, %rbx
	movq	$2, %rsi
	callq	constant_call_address_operand
	movl	(%rbx), %ecx
	andq	$16777216, %rcx         # imm = 0x1000000
	movabsq	$4294967295, %rdx       # imm = 0xFFFFFFFF
	testq	%rdx, %rax
	je	.LBB117_4
# BB#1:                                 # %if.then
	testq	%rdx, %rcx
	jne	.LBB117_2
# BB#3:                                 # %if.then
	movabsq	$.L.str1674, %rax
	popq	%rbx
	retq
.LBB117_4:                              # %if.end
	testq	%rdx, %rcx
	jne	.LBB117_5
# BB#6:                                 # %if.end
	movabsq	$.L.str1675, %rax
	popq	%rbx
	retq
.LBB117_2:
	movabsq	$.L.str1673, %rax
	popq	%rbx
	retq
.LBB117_5:
	movabsq	$.L.str659, %rax
	popq	%rbx
	retq
.Ltmp613:
	.size	output_511, .Ltmp613-output_511
	.cfi_endproc

	.align	16, 0x90
	.type	output_512,@function
output_512:                             # @output_512
	.cfi_startproc
# BB#0:                                 # %entry
	pushq	%rbx
.Ltmp616:
	.cfi_def_cfa_offset 16
.Ltmp617:
	.cfi_offset %rbx, -16
	movq	(%rdi), %rdi
	movq	%rsi, %rbx
	movq	$2, %rsi
	callq	constant_call_address_operand
	movl	(%rbx), %ecx
	andq	$16777216, %rcx         # imm = 0x1000000
	movabsq	$4294967295, %rdx       # imm = 0xFFFFFFFF
	testq	%rdx, %rax
	je	.LBB118_4
# BB#1:                                 # %if.then
	testq	%rdx, %rcx
	jne	.LBB118_2
# BB#3:                                 # %if.then
	movabsq	$.L.str1674, %rax
	popq	%rbx
	retq
.LBB118_4:                              # %if.end
	testq	%rdx, %rcx
	jne	.LBB118_5
# BB#6:                                 # %if.end
	movabsq	$.L.str1675, %rax
	popq	%rbx
	retq
.LBB118_2:
	movabsq	$.L.str1673, %rax
	popq	%rbx
	retq
.LBB118_5:
	movabsq	$.L.str659, %rax
	popq	%rbx
	retq
.Ltmp618:
	.size	output_512, .Ltmp618-output_512
	.cfi_endproc

	.align	16, 0x90
	.type	output_518,@function
output_518:                             # @output_518
	.cfi_startproc
# BB#0:                                 # %entry
	movq	16(%rdi), %rax
	movzbl	(%rax), %ecx
	cmpq	$67, %rcx
	jne	.LBB119_2
# BB#1:                                 # %if.then
	movq	8(%rax), %rax
	movq	%rax, 16(%rdi)
.LBB119_2:                              # %if.end
	movl	ix86_cpu(%rip), %ecx
	movl	x86_deep_branch(%rip), %eax
	movq	$1, %rdx
	shlq	%cl, %rdx
	andq	%rax, %rdx
	movabsq	$4294967295, %rax       # imm = 0xFFFFFFFF
	testq	%rax, %rdx
	je	.LBB119_3
# BB#4:                                 # %if.end
	movabsq	$.L.str1671, %rax
	retq
.LBB119_3:
	movabsq	$.L.str1672, %rax
	retq
.Ltmp619:
	.size	output_518, .Ltmp619-output_518
	.cfi_endproc

	.align	16, 0x90
	.type	output_519,@function
output_519:                             # @output_519
	.cfi_startproc
# BB#0:                                 # %entry
	pushq	%rbx
.Ltmp622:
	.cfi_def_cfa_offset 16
.Ltmp623:
	.cfi_offset %rbx, -16
	movq	%rdi, %rbx
	movq	8(%rbx), %rax
	movzbl	(%rax), %ecx
	cmpq	$67, %rcx
	jne	.LBB120_2
# BB#1:                                 # %if.then
	movq	8(%rax), %rax
	movq	%rax, 8(%rbx)
.LBB120_2:                              # %if.end
	movabsq	$.L.str1670, %rdi
	movq	%rbx, %rsi
	callq	output_asm_insn
	movl	ix86_cpu(%rip), %ecx
	movl	x86_deep_branch(%rip), %eax
	movq	$1, %rdx
	shlq	%cl, %rdx
	andq	%rax, %rdx
	movabsq	$4294967295, %rax       # imm = 0xFFFFFFFF
	testq	%rax, %rdx
	je	.LBB120_4
# BB#3:
	movabsq	$.L.str670, %rax
	popq	%rbx
	retq
.LBB120_4:                              # %do.body
	movq	8(%rbx), %rax
	movq	asm_out_file(%rip), %rdi
	movl	48(%rax), %ecx
	movabsq	$.L.str1648, %rsi
	movabsq	$.L.str1649, %rdx
	xorq	%rax, %rax
	callq	fprintf
	movabsq	$.L.str55, %rax
	popq	%rbx
	retq
.Ltmp624:
	.size	output_519, .Ltmp624-output_519
	.cfi_endproc

	.align	16, 0x90
	.type	output_525,@function
output_525:                             # @output_525
	.cfi_startproc
# BB#0:                                 # %entry
	movq	%rdi, %rax
	movq	%rsi, %rdi
	movq	%rax, %rsi
	jmp	output_387_binary_op  # TAILCALL
.Ltmp625:
	.size	output_525, .Ltmp625-output_525
	.cfi_endproc

	.align	16, 0x90
	.type	output_526,@function
output_526:                             # @output_526
	.cfi_startproc
# BB#0:                                 # %entry
	movq	%rdi, %rax
	movq	%rsi, %rdi
	movq	%rax, %rsi
	jmp	output_387_binary_op  # TAILCALL
.Ltmp626:
	.size	output_526, .Ltmp626-output_526
	.cfi_endproc

	.align	16, 0x90
	.type	output_527,@function
output_527:                             # @output_527
	.cfi_startproc
# BB#0:                                 # %entry
	movq	%rdi, %rax
	movq	%rsi, %rdi
	movq	%rax, %rsi
	jmp	output_387_binary_op  # TAILCALL
.Ltmp627:
	.size	output_527, .Ltmp627-output_527
	.cfi_endproc

	.align	16, 0x90
	.type	output_528,@function
output_528:                             # @output_528
	.cfi_startproc
# BB#0:                                 # %entry
	movq	%rdi, %rax
	movq	%rsi, %rdi
	movq	%rax, %rsi
	jmp	output_387_binary_op  # TAILCALL
.Ltmp628:
	.size	output_528, .Ltmp628-output_528
	.cfi_endproc

	.align	16, 0x90
	.type	output_529,@function
output_529:                             # @output_529
	.cfi_startproc
# BB#0:                                 # %entry
	movq	%rdi, %rax
	movq	%rsi, %rdi
	movq	%rax, %rsi
	jmp	output_387_binary_op  # TAILCALL
.Ltmp629:
	.size	output_529, .Ltmp629-output_529
	.cfi_endproc

	.align	16, 0x90
	.type	output_530,@function
output_530:                             # @output_530
	.cfi_startproc
# BB#0:                                 # %entry
	movq	%rdi, %rax
	movq	%rsi, %rdi
	movq	%rax, %rsi
	jmp	output_387_binary_op  # TAILCALL
.Ltmp630:
	.size	output_530, .Ltmp630-output_530
	.cfi_endproc

	.align	16, 0x90
	.type	output_531,@function
output_531:                             # @output_531
	.cfi_startproc
# BB#0:                                 # %entry
	movq	%rdi, %rax
	movq	%rsi, %rdi
	movq	%rax, %rsi
	jmp	output_387_binary_op  # TAILCALL
.Ltmp631:
	.size	output_531, .Ltmp631-output_531
	.cfi_endproc

	.align	16, 0x90
	.type	output_532,@function
output_532:                             # @output_532
	.cfi_startproc
# BB#0:                                 # %entry
	movq	%rdi, %rax
	movq	%rsi, %rdi
	movq	%rax, %rsi
	jmp	output_387_binary_op  # TAILCALL
.Ltmp632:
	.size	output_532, .Ltmp632-output_532
	.cfi_endproc

	.align	16, 0x90
	.type	output_533,@function
output_533:                             # @output_533
	.cfi_startproc
# BB#0:                                 # %entry
	movq	%rdi, %rax
	movq	%rsi, %rdi
	movq	%rax, %rsi
	jmp	output_387_binary_op  # TAILCALL
.Ltmp633:
	.size	output_533, .Ltmp633-output_533
	.cfi_endproc

	.align	16, 0x90
	.type	output_534,@function
output_534:                             # @output_534
	.cfi_startproc
# BB#0:                                 # %entry
	movq	%rdi, %rax
	movq	%rsi, %rdi
	movq	%rax, %rsi
	jmp	output_387_binary_op  # TAILCALL
.Ltmp634:
	.size	output_534, .Ltmp634-output_534
	.cfi_endproc

	.align	16, 0x90
	.type	output_535,@function
output_535:                             # @output_535
	.cfi_startproc
# BB#0:                                 # %entry
	movq	%rdi, %rax
	movq	%rsi, %rdi
	movq	%rax, %rsi
	jmp	output_387_binary_op  # TAILCALL
.Ltmp635:
	.size	output_535, .Ltmp635-output_535
	.cfi_endproc

	.align	16, 0x90
	.type	output_536,@function
output_536:                             # @output_536
	.cfi_startproc
# BB#0:                                 # %entry
	movl	which_alternative(%rip), %ecx
	movq	%rdi, %rax
	testq	%rcx, %rcx
	je	.LBB132_2
# BB#1:                                 # %cond.end
	movabsq	$.L.str38, %rax
	retq
.LBB132_2:                              # %cond.false
	movq	%rsi, %rdi
	movq	%rax, %rsi
	jmp	output_387_binary_op  # TAILCALL
.Ltmp636:
	.size	output_536, .Ltmp636-output_536
	.cfi_endproc

	.align	16, 0x90
	.type	output_537,@function
output_537:                             # @output_537
	.cfi_startproc
# BB#0:                                 # %entry
	movl	which_alternative(%rip), %ecx
	movq	%rdi, %rax
	testq	%rcx, %rcx
	je	.LBB133_2
# BB#1:                                 # %cond.end
	movabsq	$.L.str38, %rax
	retq
.LBB133_2:                              # %cond.false
	movq	%rsi, %rdi
	movq	%rax, %rsi
	jmp	output_387_binary_op  # TAILCALL
.Ltmp637:
	.size	output_537, .Ltmp637-output_537
	.cfi_endproc

	.align	16, 0x90
	.type	output_538,@function
output_538:                             # @output_538
	.cfi_startproc
# BB#0:                                 # %entry
	movq	%rdi, %rax
	movq	%rsi, %rdi
	movq	%rax, %rsi
	jmp	output_387_binary_op  # TAILCALL
.Ltmp638:
	.size	output_538, .Ltmp638-output_538
	.cfi_endproc

	.align	16, 0x90
	.type	output_539,@function
output_539:                             # @output_539
	.cfi_startproc
# BB#0:                                 # %entry
	movq	%rdi, %rax
	movq	%rsi, %rdi
	movq	%rax, %rsi
	jmp	output_387_binary_op  # TAILCALL
.Ltmp639:
	.size	output_539, .Ltmp639-output_539
	.cfi_endproc

	.align	16, 0x90
	.type	output_540,@function
output_540:                             # @output_540
	.cfi_startproc
# BB#0:                                 # %entry
	movq	%rdi, %rax
	movq	%rsi, %rdi
	movq	%rax, %rsi
	jmp	output_387_binary_op  # TAILCALL
.Ltmp640:
	.size	output_540, .Ltmp640-output_540
	.cfi_endproc

	.align	16, 0x90
	.type	output_541,@function
output_541:                             # @output_541
	.cfi_startproc
# BB#0:                                 # %entry
	movl	which_alternative(%rip), %ecx
	movq	%rdi, %rax
	testq	%rcx, %rcx
	je	.LBB137_2
# BB#1:                                 # %cond.end
	movabsq	$.L.str38, %rax
	retq
.LBB137_2:                              # %cond.false
	movq	%rsi, %rdi
	movq	%rax, %rsi
	jmp	output_387_binary_op  # TAILCALL
.Ltmp641:
	.size	output_541, .Ltmp641-output_541
	.cfi_endproc

	.align	16, 0x90
	.type	output_542,@function
output_542:                             # @output_542
	.cfi_startproc
# BB#0:                                 # %entry
	movl	which_alternative(%rip), %ecx
	movq	%rdi, %rax
	testq	%rcx, %rcx
	je	.LBB138_2
# BB#1:                                 # %cond.end
	movabsq	$.L.str38, %rax
	retq
.LBB138_2:                              # %cond.false
	movq	%rsi, %rdi
	movq	%rax, %rsi
	jmp	output_387_binary_op  # TAILCALL
.Ltmp642:
	.size	output_542, .Ltmp642-output_542
	.cfi_endproc

	.align	16, 0x90
	.type	output_543,@function
output_543:                             # @output_543
	.cfi_startproc
# BB#0:                                 # %entry
	movq	%rdi, %rax
	movq	%rsi, %rdi
	movq	%rax, %rsi
	jmp	output_387_binary_op  # TAILCALL
.Ltmp643:
	.size	output_543, .Ltmp643-output_543
	.cfi_endproc

	.align	16, 0x90
	.type	output_544,@function
output_544:                             # @output_544
	.cfi_startproc
# BB#0:                                 # %entry
	movq	%rdi, %rax
	movq	%rsi, %rdi
	movq	%rax, %rsi
	jmp	output_387_binary_op  # TAILCALL
.Ltmp644:
	.size	output_544, .Ltmp644-output_544
	.cfi_endproc

	.align	16, 0x90
	.type	output_545,@function
output_545:                             # @output_545
	.cfi_startproc
# BB#0:                                 # %entry
	movq	%rdi, %rax
	movq	%rsi, %rdi
	movq	%rax, %rsi
	jmp	output_387_binary_op  # TAILCALL
.Ltmp645:
	.size	output_545, .Ltmp645-output_545
	.cfi_endproc

	.align	16, 0x90
	.type	output_546,@function
output_546:                             # @output_546
	.cfi_startproc
# BB#0:                                 # %entry
	movq	%rdi, %rax
	movq	%rsi, %rdi
	movq	%rax, %rsi
	jmp	output_387_binary_op  # TAILCALL
.Ltmp646:
	.size	output_546, .Ltmp646-output_546
	.cfi_endproc

	.align	16, 0x90
	.type	output_547,@function
output_547:                             # @output_547
	.cfi_startproc
# BB#0:                                 # %entry
	movl	which_alternative(%rip), %ecx
	movq	%rdi, %rax
	testq	%rcx, %rcx
	je	.LBB143_2
# BB#1:                                 # %cond.end
	movabsq	$.L.str38, %rax
	retq
.LBB143_2:                              # %cond.false
	movq	%rsi, %rdi
	movq	%rax, %rsi
	jmp	output_387_binary_op  # TAILCALL
.Ltmp647:
	.size	output_547, .Ltmp647-output_547
	.cfi_endproc

	.align	16, 0x90
	.type	output_548,@function
output_548:                             # @output_548
	.cfi_startproc
# BB#0:                                 # %entry
	movl	which_alternative(%rip), %ecx
	movq	%rdi, %rax
	testq	%rcx, %rcx
	je	.LBB144_2
# BB#1:                                 # %cond.end
	movabsq	$.L.str38, %rax
	retq
.LBB144_2:                              # %cond.false
	movq	%rsi, %rdi
	movq	%rax, %rsi
	jmp	output_387_binary_op  # TAILCALL
.Ltmp648:
	.size	output_548, .Ltmp648-output_548
	.cfi_endproc

	.align	16, 0x90
	.type	output_549,@function
output_549:                             # @output_549
	.cfi_startproc
# BB#0:                                 # %entry
	movl	which_alternative(%rip), %ecx
	movq	%rdi, %rax
	testq	%rcx, %rcx
	je	.LBB145_2
# BB#1:                                 # %cond.end
	movabsq	$.L.str38, %rax
	retq
.LBB145_2:                              # %cond.false
	movq	%rsi, %rdi
	movq	%rax, %rsi
	jmp	output_387_binary_op  # TAILCALL
.Ltmp649:
	.size	output_549, .Ltmp649-output_549
	.cfi_endproc

	.align	16, 0x90
	.type	output_550,@function
output_550:                             # @output_550
	.cfi_startproc
# BB#0:                                 # %entry
	movl	which_alternative(%rip), %ecx
	movq	%rdi, %rax
	testq	%rcx, %rcx
	je	.LBB146_2
# BB#1:                                 # %cond.end
	movabsq	$.L.str38, %rax
	retq
.LBB146_2:                              # %cond.false
	movq	%rsi, %rdi
	movq	%rax, %rsi
	jmp	output_387_binary_op  # TAILCALL
.Ltmp650:
	.size	output_550, .Ltmp650-output_550
	.cfi_endproc

	.align	16, 0x90
	.type	output_551,@function
output_551:                             # @output_551
	.cfi_startproc
# BB#0:                                 # %entry
	movq	%rdi, %rax
	movq	%rsi, %rdi
	movq	%rax, %rsi
	jmp	output_387_binary_op  # TAILCALL
.Ltmp651:
	.size	output_551, .Ltmp651-output_551
	.cfi_endproc

	.align	16, 0x90
	.type	output_552,@function
output_552:                             # @output_552
	.cfi_startproc
# BB#0:                                 # %entry
	movq	%rdi, %rax
	movq	%rsi, %rdi
	movq	%rax, %rsi
	jmp	output_387_binary_op  # TAILCALL
.Ltmp652:
	.size	output_552, .Ltmp652-output_552
	.cfi_endproc

	.align	16, 0x90
	.type	output_553,@function
output_553:                             # @output_553
	.cfi_startproc
# BB#0:                                 # %entry
	movq	%rdi, %rax
	movq	%rsi, %rdi
	movq	%rax, %rsi
	jmp	output_387_binary_op  # TAILCALL
.Ltmp653:
	.size	output_553, .Ltmp653-output_553
	.cfi_endproc

	.align	16, 0x90
	.type	output_554,@function
output_554:                             # @output_554
	.cfi_startproc
# BB#0:                                 # %entry
	movq	%rdi, %rax
	movq	%rsi, %rdi
	movq	%rax, %rsi
	jmp	output_387_binary_op  # TAILCALL
.Ltmp654:
	.size	output_554, .Ltmp654-output_554
	.cfi_endproc

	.align	16, 0x90
	.type	output_555,@function
output_555:                             # @output_555
	.cfi_startproc
# BB#0:                                 # %entry
	movq	%rdi, %rax
	movq	%rsi, %rdi
	movq	%rax, %rsi
	jmp	output_387_binary_op  # TAILCALL
.Ltmp655:
	.size	output_555, .Ltmp655-output_555
	.cfi_endproc

	.align	16, 0x90
	.type	output_556,@function
output_556:                             # @output_556
	.cfi_startproc
# BB#0:                                 # %entry
	movq	%rdi, %rax
	movq	%rsi, %rdi
	movq	%rax, %rsi
	jmp	output_387_binary_op  # TAILCALL
.Ltmp656:
	.size	output_556, .Ltmp656-output_556
	.cfi_endproc

	.align	16, 0x90
	.type	output_557,@function
output_557:                             # @output_557
	.cfi_startproc
# BB#0:                                 # %entry
	movq	%rdi, %rax
	movq	%rsi, %rdi
	movq	%rax, %rsi
	jmp	output_387_binary_op  # TAILCALL
.Ltmp657:
	.size	output_557, .Ltmp657-output_557
	.cfi_endproc

	.align	16, 0x90
	.type	output_558,@function
output_558:                             # @output_558
	.cfi_startproc
# BB#0:                                 # %entry
	movq	%rdi, %rax
	movq	%rsi, %rdi
	movq	%rax, %rsi
	jmp	output_387_binary_op  # TAILCALL
.Ltmp658:
	.size	output_558, .Ltmp658-output_558
	.cfi_endproc

	.align	16, 0x90
	.type	output_635,@function
output_635:                             # @output_635
	.cfi_startproc
# BB#0:                                 # %entry
	pushq	%r14
.Ltmp662:
	.cfi_def_cfa_offset 16
	pushq	%rbx
.Ltmp663:
	.cfi_def_cfa_offset 24
	pushq	%rax
.Ltmp664:
	.cfi_def_cfa_offset 32
.Ltmp665:
	.cfi_offset %rbx, -24
.Ltmp666:
	.cfi_offset %r14, -16
	movq	%rsi, %rbx
	movq	%rdi, %r14
	movq	%rbx, %rdi
	callq	get_attr_type
	movabsq	$4294967295, %rcx       # imm = 0xFFFFFFFF
	movq	%rax, %rdx
	andq	%rcx, %rdx
	cmpq	$9, %rdx
	je	.LBB155_10
# BB#1:                                 # %entry
	andq	%rcx, %rax
	cmpq	$7, %rax
	jne	.LBB155_3
# BB#2:
	movabsq	$.L.str1664, %rax
	jmp	.LBB155_11
.LBB155_10:                             # %sw.bb22
	movq	32(%rbx), %rax
	movq	8(%rax), %rax
	movq	8(%rax), %rax
	movq	16(%rax), %rax
	movq	%rax, 16(%r14)
	movabsq	$.L.str1665, %rax
	jmp	.LBB155_11
.LBB155_3:                              # %entry
	cmpq	$4, %rax
	jne	.LBB155_9
# BB#4:                                 # %sw.bb1
	movq	16(%r14), %rcx
	movzbl	(%rcx), %eax
	cmpq	$54, %rax
	movabsq	$.L.str246, %rax
	jne	.LBB155_11
# BB#5:                                 # %land.lhs.true
	movq	8(%rcx), %rsi
	cmpq	$128, %rsi
	je	.LBB155_8
# BB#6:                                 # %lor.lhs.false
	testq	%rsi, %rsi
	jns	.LBB155_11
# BB#7:                                 # %lor.lhs.false
	cmpq	$-128, %rsi
	je	.LBB155_11
.LBB155_8:                              # %if.then
	negq	%rsi
	xorq	%rdi, %rdi
	callq	gen_rtx_CONST_INT
	movq	%rax, 16(%r14)
	movabsq	$.L.str303, %rax
.LBB155_11:                             # %return
	addq	$8, %rsp
	popq	%rbx
	popq	%r14
	retq
.LBB155_9:                              # %sw.default
	movabsq	$.L.str1644, %rax
	movabsq	$.L__FUNCTION__.output_635, %rcx
	movq	$4023, %rsi             # imm = 0xFB7
	movq	%rax, %rdi
	movq	%rcx, %rdx
	callq	fancy_abort
.Ltmp667:
	.size	output_635, .Ltmp667-output_635
	.cfi_endproc

	.align	16, 0x90
	.type	output_636,@function
output_636:                             # @output_636
	.cfi_startproc
# BB#0:                                 # %entry
	pushq	%r14
.Ltmp671:
	.cfi_def_cfa_offset 16
	pushq	%rbx
.Ltmp672:
	.cfi_def_cfa_offset 24
	pushq	%rax
.Ltmp673:
	.cfi_def_cfa_offset 32
.Ltmp674:
	.cfi_offset %rbx, -24
.Ltmp675:
	.cfi_offset %r14, -16
	movq	%rsi, %rbx
	movq	%rdi, %r14
	movq	%rbx, %rdi
	callq	get_attr_type
	movabsq	$4294967295, %rcx       # imm = 0xFFFFFFFF
	movq	%rax, %rdx
	andq	%rcx, %rdx
	cmpq	$9, %rdx
	je	.LBB156_10
# BB#1:                                 # %entry
	andq	%rcx, %rax
	cmpq	$7, %rax
	jne	.LBB156_3
# BB#2:
	movabsq	$.L.str1662, %rax
	jmp	.LBB156_11
.LBB156_10:                             # %sw.bb22
	movq	32(%rbx), %rax
	movq	8(%rax), %rax
	movq	8(%rax), %rax
	movq	16(%rax), %rax
	movq	%rax, 16(%r14)
	movabsq	$.L.str1663, %rax
	jmp	.LBB156_11
.LBB156_3:                              # %entry
	cmpq	$4, %rax
	jne	.LBB156_9
# BB#4:                                 # %sw.bb1
	movq	16(%r14), %rcx
	movzbl	(%rcx), %eax
	cmpq	$54, %rax
	movabsq	$.L.str240, %rax
	jne	.LBB156_11
# BB#5:                                 # %land.lhs.true
	movq	8(%rcx), %rsi
	cmpq	$128, %rsi
	je	.LBB156_8
# BB#6:                                 # %lor.lhs.false
	testq	%rsi, %rsi
	jns	.LBB156_11
# BB#7:                                 # %lor.lhs.false
	cmpq	$-128, %rsi
	je	.LBB156_11
.LBB156_8:                              # %if.then
	negq	%rsi
	xorq	%rdi, %rdi
	callq	gen_rtx_CONST_INT
	movq	%rax, 16(%r14)
	movabsq	$.L.str295, %rax
.LBB156_11:                             # %return
	addq	$8, %rsp
	popq	%rbx
	popq	%r14
	retq
.LBB156_9:                              # %sw.default
	movabsq	$.L.str1644, %rax
	movabsq	$.L__FUNCTION__.output_636, %rcx
	movq	$4057, %rsi             # imm = 0xFD9
	movq	%rax, %rdi
	movq	%rcx, %rdx
	callq	fancy_abort
.Ltmp676:
	.size	output_636, .Ltmp676-output_636
	.cfi_endproc

	.align	16, 0x90
	.type	output_651,@function
output_651:                             # @output_651
	.cfi_startproc
# BB#0:                                 # %entry
	movzbl	3(%rsi), %eax
	testq	$1, %rax
	je	.LBB157_1
# BB#2:                                 # %entry
	movabsq	$.L.str1657, %rax
	retq
.LBB157_1:
	movabsq	$.L.str1658, %rax
	retq
.Ltmp677:
	.size	output_651, .Ltmp677-output_651
	.cfi_endproc

	.align	16, 0x90
	.type	output_652,@function
output_652:                             # @output_652
	.cfi_startproc
# BB#0:                                 # %entry
	pushq	%rbx
.Ltmp680:
	.cfi_def_cfa_offset 16
.Ltmp681:
	.cfi_offset %rbx, -16
	movq	8(%rdi), %rdi
	movq	%rsi, %rbx
	movq	$2, %rsi
	callq	constant_call_address_operand
	movl	(%rbx), %ecx
	andq	$16777216, %rcx         # imm = 0x1000000
	movabsq	$4294967295, %rdx       # imm = 0xFFFFFFFF
	testq	%rdx, %rax
	je	.LBB158_4
# BB#1:                                 # %if.then
	testq	%rdx, %rcx
	jne	.LBB158_2
# BB#3:                                 # %if.then
	movabsq	$.L.str1658, %rax
	popq	%rbx
	retq
.LBB158_4:                              # %if.end
	testq	%rdx, %rcx
	jne	.LBB158_5
# BB#6:                                 # %if.end
	movabsq	$.L.str1659, %rax
	popq	%rbx
	retq
.LBB158_2:
	movabsq	$.L.str1657, %rax
	popq	%rbx
	retq
.LBB158_5:
	movabsq	$.L.str1645, %rax
	popq	%rbx
	retq
.Ltmp682:
	.size	output_652, .Ltmp682-output_652
	.cfi_endproc

	.align	16, 0x90
	.type	output_653,@function
output_653:                             # @output_653
	.cfi_startproc
# BB#0:                                 # %entry
	movzbl	3(%rsi), %eax
	testq	$1, %rax
	je	.LBB159_1
# BB#2:                                 # %entry
	movabsq	$.L.str1657, %rax
	retq
.LBB159_1:
	movabsq	$.L.str1658, %rax
	retq
.Ltmp683:
	.size	output_653, .Ltmp683-output_653
	.cfi_endproc

	.align	16, 0x90
	.type	output_654,@function
output_654:                             # @output_654
	.cfi_startproc
# BB#0:                                 # %entry
	movzbl	3(%rsi), %eax
	testq	$1, %rax
	je	.LBB160_1
# BB#2:                                 # %entry
	movabsq	$.L.str1657, %rax
	retq
.LBB160_1:
	movabsq	$.L.str1658, %rax
	retq
.Ltmp684:
	.size	output_654, .Ltmp684-output_654
	.cfi_endproc

	.align	16, 0x90
	.type	output_655,@function
output_655:                             # @output_655
	.cfi_startproc
# BB#0:                                 # %entry
	pushq	%rbx
.Ltmp687:
	.cfi_def_cfa_offset 16
.Ltmp688:
	.cfi_offset %rbx, -16
	movq	8(%rdi), %rdi
	movq	%rsi, %rbx
	movq	$2, %rsi
	callq	constant_call_address_operand
	movl	(%rbx), %ecx
	andq	$16777216, %rcx         # imm = 0x1000000
	movabsq	$4294967295, %rdx       # imm = 0xFFFFFFFF
	testq	%rdx, %rax
	je	.LBB161_4
# BB#1:                                 # %if.then
	testq	%rdx, %rcx
	jne	.LBB161_2
# BB#3:                                 # %if.then
	movabsq	$.L.str1658, %rax
	popq	%rbx
	retq
.LBB161_4:                              # %if.end
	testq	%rdx, %rcx
	jne	.LBB161_5
# BB#6:                                 # %if.end
	movabsq	$.L.str1661, %rax
	popq	%rbx
	retq
.LBB161_2:
	movabsq	$.L.str1657, %rax
	popq	%rbx
	retq
.LBB161_5:
	movabsq	$.L.str1660, %rax
	popq	%rbx
	retq
.Ltmp689:
	.size	output_655, .Ltmp689-output_655
	.cfi_endproc

	.align	16, 0x90
	.type	output_656,@function
output_656:                             # @output_656
	.cfi_startproc
# BB#0:                                 # %entry
	pushq	%rbx
.Ltmp692:
	.cfi_def_cfa_offset 16
.Ltmp693:
	.cfi_offset %rbx, -16
	movq	8(%rdi), %rdi
	movq	%rsi, %rbx
	movq	$2, %rsi
	callq	constant_call_address_operand
	movl	(%rbx), %ecx
	andq	$16777216, %rcx         # imm = 0x1000000
	movabsq	$4294967295, %rdx       # imm = 0xFFFFFFFF
	testq	%rdx, %rax
	je	.LBB162_4
# BB#1:                                 # %if.then
	testq	%rdx, %rcx
	jne	.LBB162_2
# BB#3:                                 # %if.then
	movabsq	$.L.str1658, %rax
	popq	%rbx
	retq
.LBB162_4:                              # %if.end
	testq	%rdx, %rcx
	jne	.LBB162_5
# BB#6:                                 # %if.end
	movabsq	$.L.str1659, %rax
	popq	%rbx
	retq
.LBB162_2:
	movabsq	$.L.str1657, %rax
	popq	%rbx
	retq
.LBB162_5:
	movabsq	$.L.str1645, %rax
	popq	%rbx
	retq
.Ltmp694:
	.size	output_656, .Ltmp694-output_656
	.cfi_endproc

	.align	16, 0x90
	.type	output_658,@function
output_658:                             # @output_658
	.cfi_startproc
# BB#0:                                 # %entry
	pushq	%rbx
.Ltmp697:
	.cfi_def_cfa_offset 16
.Ltmp698:
	.cfi_offset %rbx, -16
	movq	%rdi, %rbx
	callq	gen_label_rtx
	movq	%rax, 16(%rbx)
	movabsq	$.L.str1656, %rdi
	movq	%rbx, %rsi
	callq	output_asm_insn
	movq	16(%rbx), %rax
	movq	asm_out_file(%rip), %rdi
	movl	48(%rax), %ecx
	movabsq	$.L.str1648, %rsi
	movabsq	$.L.str1649, %rdx
	xorq	%rax, %rax
	callq	fprintf
	movabsq	$.L.str670, %rax
	popq	%rbx
	retq
.Ltmp699:
	.size	output_658, .Ltmp699-output_658
	.cfi_endproc

	.align	16, 0x90
	.type	output_728,@function
output_728:                             # @output_728
	.cfi_startproc
# BB#0:                                 # %entry
	movq	24(%rdi), %rax
	movzbl	(%rax), %eax
	cmpq	$112, %rax
	je	.LBB164_1
# BB#2:                                 # %entry
	movabsq	$.L.str1653, %rax
	retq
.LBB164_1:
	movabsq	$.L.str1652, %rax
	retq
.Ltmp700:
	.size	output_728, .Ltmp700-output_728
	.cfi_endproc

	.align	16, 0x90
	.type	output_730,@function
output_730:                             # @output_730
	.cfi_startproc
# BB#0:                                 # %entry
	movq	24(%rdi), %rax
	movzbl	(%rax), %eax
	cmpq	$112, %rax
	je	.LBB165_1
# BB#2:                                 # %entry
	movabsq	$.L.str1651, %rax
	retq
.LBB165_1:
	movabsq	$.L.str1650, %rax
	retq
.Ltmp701:
	.size	output_730, .Ltmp701-output_730
	.cfi_endproc

	.align	16, 0x90
	.type	output_805,@function
output_805:                             # @output_805
	.cfi_startproc
# BB#0:                                 # %entry
	pushq	%r15
.Ltmp708:
	.cfi_def_cfa_offset 16
	pushq	%r14
.Ltmp709:
	.cfi_def_cfa_offset 24
	pushq	%r13
.Ltmp710:
	.cfi_def_cfa_offset 32
	pushq	%r12
.Ltmp711:
	.cfi_def_cfa_offset 40
	pushq	%rbx
.Ltmp712:
	.cfi_def_cfa_offset 48
.Ltmp713:
	.cfi_offset %rbx, -48
.Ltmp714:
	.cfi_offset %r12, -40
.Ltmp715:
	.cfi_offset %r13, -32
.Ltmp716:
	.cfi_offset %r14, -24
.Ltmp717:
	.cfi_offset %r15, -16
	movq	%rdi, %r12
	movl	target_flags(%rip), %r14d
	movq	$25, %rcx
	movq	(%r12), %rdx
	movq	32(%r12), %rax
	shrq	%cl, %r14
	andq	$1, %r14
	orq	$4, %r14
	movq	$75, %rdi
	movq	%r14, %rsi
	movq	%rax, %rcx
	callq	gen_rtx_fmt_ee
	movq	%r14, %rdi
	movq	%rax, %rsi
	callq	gen_rtx_MEM
	movq	%rax, (%r12)
	movabsq	$.L.str1645, %rdi
	movq	%r12, %rsi
	callq	output_asm_insn
	movl	target_flags(%rip), %ebx
	movq	16(%r12), %rax
	movq	$22, %rcx
	movq	%rbx, %r15
	movq	8(%rax), %rax
	shrq	%cl, %r15
	andq	$8, %r15
	leaq	-1(%r15), %r13
	cmpq	%rax, %r13
	jl	.LBB166_7
# BB#1:                                 # %for.body.lr.ph
	movq	$22, %rcx
	shrq	%cl, %rbx
	andq	$8, %rbx
	decq	%rbx
	movabsq	$.L.str1647, %r14
	.align	16, 0x90
.LBB166_2:                              # %for.body
                                        # =>This Inner Loop Header: Depth=1
	movq	(%r12), %rdi
	movq	$36, %rcx
	movq	%rbx, %rdx
	shlq	%cl, %rdx
	movq	$32, %rcx
	sarq	%cl, %rdx
	movq	$5, %rsi
	movq	$1, %rcx
	movq	$1, %r8
	callq	adjust_address_1
	movq	%rax, 32(%r12)
	movq	$32, %rcx
	movq	%r15, %rax
	shlq	%cl, %rax
	movq	$32, %rcx
	sarq	%cl, %rax
	cmpq	$9, %rax
	movq	$20, %rsi
	jl	.LBB166_4
# BB#3:                                 # %for.body
                                        #   in Loop: Header=BB166_2 Depth=1
	movq	$36, %rsi
.LBB166_4:                              # %for.body
                                        #   in Loop: Header=BB166_2 Depth=1
	addq	%r15, %rsi
	movq	$6, %rdi
	callq	gen_rtx_REG
	movq	%rax, 40(%r12)
	movq	32(%r12), %rax
	movq	$6, %rcx
	movb	%cl, 2(%rax)
	movq	(%r12), %rax
	movq	8(%rax), %rax
	movzbl	(%rax), %eax
	cmpq	$75, %rax
	je	.LBB166_6
# BB#5:                                 # %if.then
                                        #   in Loop: Header=BB166_2 Depth=1
	movabsq	$.L.str1646, %rdi
	movq	%r12, %rsi
	callq	output_asm_insn
.LBB166_6:                              # %if.end
                                        #   in Loop: Header=BB166_2 Depth=1
	movq	%rbx, %r15
	movq	%r14, %rdi
	movq	%r12, %rsi
	callq	output_asm_insn
	movq	16(%r12), %rax
	decq	%r13
	movq	$32, %rcx
	movq	%r13, %rdx
	shlq	%cl, %rdx
	movq	8(%rax), %rax
	movq	$32, %rcx
	sarq	%cl, %rdx
	decq	%rbx
	cmpq	%rax, %rdx
	jge	.LBB166_2
.LBB166_7:                              # %do.body
	movq	24(%r12), %rax
	movq	asm_out_file(%rip), %rdi
	movl	48(%rax), %ecx
	movabsq	$.L.str1648, %rsi
	movabsq	$.L.str1649, %rdx
	xorq	%rax, %rax
	callq	fprintf
	movabsq	$.L.str670, %rax
	popq	%rbx
	popq	%r12
	popq	%r13
	popq	%r14
	popq	%r15
	retq
.Ltmp718:
	.size	output_805, .Ltmp718-output_805
	.cfi_endproc

	.align	16, 0x90
	.type	output_832,@function
output_832:                             # @output_832
	.cfi_startproc
# BB#0:                                 # %entry
	pushq	%rax
.Ltmp720:
	.cfi_def_cfa_offset 16
	movq	8(%rdi), %rax
	movq	8(%rax), %rax
	movabsq	$4294967295, %rcx       # imm = 0xFFFFFFFF
	andq	%rax, %rcx
	cmpq	$4, %rcx
	jae	.LBB167_2
# BB#1:                                 # %if.end
	movq	$32, %rcx
	shlq	%cl, %rax
	movq	$32, %rcx
	sarq	%cl, %rax
	movq	output_832.patterns(,%rax,8), %rax
	popq	%rdx
	retq
.LBB167_2:                              # %if.then
	movabsq	$.L.str1644, %rax
	movabsq	$.L__FUNCTION__.output_832, %rcx
	movq	$4286, %rsi             # imm = 0x10BE
	movq	%rax, %rdi
	movq	%rcx, %rdx
	callq	fancy_abort
.Ltmp721:
	.size	output_832, .Ltmp721-output_832
	.cfi_endproc

	.align	16, 0x90
	.type	output_833,@function
output_833:                             # @output_833
	.cfi_startproc
# BB#0:                                 # %entry
	movq	8(%rdi), %rax
	cmpq	$0, 8(%rax)
	je	.LBB168_1
# BB#2:                                 # %select.mid
	movabsq	$.L.str1639, %rax
	retq
.LBB168_1:
	movabsq	$.L.str1638, %rax
	retq
.Ltmp722:
	.size	output_833, .Ltmp722-output_833
	.cfi_endproc

	.globl	get_insn_name
	.align	16, 0x90
	.type	get_insn_name,@function
get_insn_name:                          # @get_insn_name
	.cfi_startproc
# BB#0:                                 # %entry
	movq	$32, %rcx
	shlq	%cl, %rdi
	movq	$32, %rcx
	sarq	%cl, %rdi
	leaq	(%rdi,%rdi,4), %rax
	movq	insn_data(,%rax,8), %rax
	retq
.Ltmp723:
	.size	get_insn_name, .Ltmp723-get_insn_name
	.cfi_endproc

	.type	.L.str,@object          # @.str
	.section	.rodata.str1.1,"aMS",@progbits,1
.L.str:
	.asciz	"cmpdi_ccno_1_rex64"
	.size	.L.str, 19

	.type	output_0,@object        # @output_0
	.section	.rodata,"a",@progbits
	.align	16
output_0:
	.quad	.L.str2204
	.quad	.L.str2
	.size	output_0, 16

	.type	.L.str1,@object         # @.str1
	.section	.rodata.str1.1,"aMS",@progbits,1
.L.str1:
	.asciz	"*cmpdi_minus_1_rex64"
	.size	.L.str1, 21

	.type	.L.str2,@object         # @.str2
.L.str2:
	.asciz	"cmp{q}\t{%1, %0|%0, %1}"
	.size	.L.str2, 23

	.type	.L.str3,@object         # @.str3
.L.str3:
	.asciz	"cmpdi_1_insn_rex64"
	.size	.L.str3, 19

	.type	.L.str4,@object         # @.str4
.L.str4:
	.asciz	"*cmpsi_ccno_1"
	.size	.L.str4, 14

	.type	output_3,@object        # @output_3
	.section	.rodata,"a",@progbits
	.align	16
output_3:
	.quad	.L.str1847
	.quad	.L.str6
	.size	output_3, 16

	.type	.L.str5,@object         # @.str5
	.section	.rodata.str1.1,"aMS",@progbits,1
.L.str5:
	.asciz	"*cmpsi_minus_1"
	.size	.L.str5, 15

	.type	.L.str6,@object         # @.str6
.L.str6:
	.asciz	"cmp{l}\t{%1, %0|%0, %1}"
	.size	.L.str6, 23

	.type	.L.str7,@object         # @.str7
.L.str7:
	.asciz	"*cmpsi_1_insn"
	.size	.L.str7, 14

	.type	.L.str8,@object         # @.str8
.L.str8:
	.asciz	"*cmphi_ccno_1"
	.size	.L.str8, 14

	.type	output_6,@object        # @output_6
	.section	.rodata,"a",@progbits
	.align	16
output_6:
	.quad	.L.str1846
	.quad	.L.str10
	.size	output_6, 16

	.type	.L.str9,@object         # @.str9
	.section	.rodata.str1.1,"aMS",@progbits,1
.L.str9:
	.asciz	"*cmphi_minus_1"
	.size	.L.str9, 15

	.type	.L.str10,@object        # @.str10
.L.str10:
	.asciz	"cmp{w}\t{%1, %0|%0, %1}"
	.size	.L.str10, 23

	.type	.L.str11,@object        # @.str11
.L.str11:
	.asciz	"*cmphi_1"
	.size	.L.str11, 9

	.type	.L.str12,@object        # @.str12
.L.str12:
	.asciz	"*cmpqi_ccno_1"
	.size	.L.str12, 14

	.type	output_9,@object        # @output_9
	.section	.rodata,"a",@progbits
	.align	16
output_9:
	.quad	.L.str1844
	.quad	.L.str1845
	.size	output_9, 16

	.type	.L.str13,@object        # @.str13
	.section	.rodata.str1.1,"aMS",@progbits,1
.L.str13:
	.asciz	"*cmpqi_1"
	.size	.L.str13, 9

	.type	.L.str14,@object        # @.str14
.L.str14:
	.asciz	"cmp{b}\t{%1, %0|%0, %1}"
	.size	.L.str14, 23

	.type	.L.str15,@object        # @.str15
.L.str15:
	.asciz	"*cmpqi_minus_1"
	.size	.L.str15, 15

	.type	.L.str16,@object        # @.str16
.L.str16:
	.asciz	"*cmpqi_ext_1"
	.size	.L.str16, 13

	.type	.L.str17,@object        # @.str17
.L.str17:
	.asciz	"cmp{b}\t{%h1, %0|%0, %h1}"
	.size	.L.str17, 25

	.type	.L.str18,@object        # @.str18
.L.str18:
	.asciz	"*cmpqi_ext_1_rex64"
	.size	.L.str18, 19

	.type	.L.str19,@object        # @.str19
.L.str19:
	.asciz	"*cmpqi_ext_2"
	.size	.L.str19, 13

	.type	.L.str20,@object        # @.str20
.L.str20:
	.asciz	"test{b}\t%h0, %h0"
	.size	.L.str20, 17

	.type	.L.str21,@object        # @.str21
.L.str21:
	.asciz	"cmpqi_ext_3_insn"
	.size	.L.str21, 17

	.type	.L.str22,@object        # @.str22
.L.str22:
	.asciz	"cmp{b}\t{%1, %h0|%h0, %1}"
	.size	.L.str22, 25

	.type	.L.str23,@object        # @.str23
.L.str23:
	.asciz	"cmpqi_ext_3_insn_rex64"
	.size	.L.str23, 23

	.type	.L.str24,@object        # @.str24
.L.str24:
	.asciz	"*cmpqi_ext_4"
	.size	.L.str24, 13

	.type	.L.str25,@object        # @.str25
.L.str25:
	.asciz	"cmp{b}\t{%h1, %h0|%h0, %h1}"
	.size	.L.str25, 27

	.type	.L.str26,@object        # @.str26
.L.str26:
	.asciz	"*cmpfp_0"
	.size	.L.str26, 9

	.type	.L.str27,@object        # @.str27
.L.str27:
	.asciz	"*cmpfp_2_sf"
	.size	.L.str27, 12

	.type	.L.str28,@object        # @.str28
.L.str28:
	.asciz	"*cmpfp_2_sf_1"
	.size	.L.str28, 14

	.type	.L.str29,@object        # @.str29
.L.str29:
	.asciz	"*cmpfp_2_df"
	.size	.L.str29, 12

	.type	.L.str30,@object        # @.str30
.L.str30:
	.asciz	"*cmpfp_2_df_1"
	.size	.L.str30, 14

	.type	.L.str31,@object        # @.str31
.L.str31:
	.asciz	"*cmpfp_2_xf"
	.size	.L.str31, 12

	.type	.L.str32,@object        # @.str32
.L.str32:
	.asciz	"*cmpfp_2_tf"
	.size	.L.str32, 12

	.type	.L.str33,@object        # @.str33
.L.str33:
	.asciz	"*cmpfp_2_xf_1"
	.size	.L.str33, 14

	.type	.L.str34,@object        # @.str34
.L.str34:
	.asciz	"*cmpfp_2_tf_1"
	.size	.L.str34, 14

	.type	.L.str35,@object        # @.str35
.L.str35:
	.asciz	"*cmpfp_2u"
	.size	.L.str35, 10

	.type	.L.str36,@object        # @.str36
.L.str36:
	.asciz	"*cmpfp_2u_1"
	.size	.L.str36, 12

	.type	.L.str37,@object        # @.str37
.L.str37:
	.asciz	"*ficom_1"
	.size	.L.str37, 9

	.type	.L.str38,@object        # @.str38
.L.str38:
	.asciz	"#"
	.size	.L.str38, 2

	.type	.L.str39,@object        # @.str39
.L.str39:
	.asciz	"x86_fnstsw_1"
	.size	.L.str39, 13

	.type	.L.str40,@object        # @.str40
.L.str40:
	.asciz	"fnstsw\t%0"
	.size	.L.str40, 10

	.type	.L.str41,@object        # @.str41
.L.str41:
	.asciz	"x86_sahf_1"
	.size	.L.str41, 11

	.type	.L.str42,@object        # @.str42
.L.str42:
	.asciz	"sahf"
	.size	.L.str42, 5

	.type	.L.str43,@object        # @.str43
.L.str43:
	.asciz	"*cmpfp_i"
	.size	.L.str43, 9

	.type	.L.str44,@object        # @.str44
.L.str44:
	.asciz	"*cmpfp_i_sse"
	.size	.L.str44, 13

	.type	.L.str45,@object        # @.str45
.L.str45:
	.asciz	"*cmpfp_i_sse_only"
	.size	.L.str45, 18

	.type	.L.str46,@object        # @.str46
.L.str46:
	.asciz	"*cmpfp_iu"
	.size	.L.str46, 10

	.type	.L.str47,@object        # @.str47
.L.str47:
	.asciz	"*cmpfp_iu_sse"
	.size	.L.str47, 14

	.type	.L.str48,@object        # @.str48
.L.str48:
	.asciz	"*cmpfp_iu_sse_only"
	.size	.L.str48, 19

	.type	.L.str49,@object        # @.str49
.L.str49:
	.asciz	"*pushsi2"
	.size	.L.str49, 9

	.type	.L.str50,@object        # @.str50
.L.str50:
	.asciz	"push{l}\t%1"
	.size	.L.str50, 11

	.type	.L.str51,@object        # @.str51
.L.str51:
	.asciz	"*pushsi2_rex64"
	.size	.L.str51, 15

	.type	.L.str52,@object        # @.str52
.L.str52:
	.asciz	"push{q}\t%q1"
	.size	.L.str52, 12

	.type	.L.str53,@object        # @.str53
.L.str53:
	.asciz	"*pushsi2_prologue"
	.size	.L.str53, 18

	.type	.L.str54,@object        # @.str54
.L.str54:
	.asciz	"*popsi1_epilogue"
	.size	.L.str54, 17

	.type	.L.str55,@object        # @.str55
.L.str55:
	.asciz	"pop{l}\t%0"
	.size	.L.str55, 10

	.type	.L.str56,@object        # @.str56
.L.str56:
	.asciz	"popsi1"
	.size	.L.str56, 7

	.type	.L.str57,@object        # @.str57
.L.str57:
	.asciz	"*movsi_xor"
	.size	.L.str57, 11

	.type	.L.str58,@object        # @.str58
.L.str58:
	.asciz	"xor{l}\t{%0, %0|%0, %0}"
	.size	.L.str58, 23

	.type	.L.str59,@object        # @.str59
.L.str59:
	.asciz	"*movsi_or"
	.size	.L.str59, 10

	.type	.L.str60,@object        # @.str60
.L.str60:
	.asciz	"*movsi_1"
	.size	.L.str60, 9

	.type	.L.str61,@object        # @.str61
.L.str61:
	.asciz	"*movabssi_1_rex64"
	.size	.L.str61, 18

	.type	output_46,@object       # @output_46
	.section	.rodata,"a",@progbits
	.align	16
output_46:
	.quad	.L.str1837
	.quad	.L.str1838
	.quad	.L.str1839
	.size	output_46, 24

	.type	.L.str62,@object        # @.str62
	.section	.rodata.str1.1,"aMS",@progbits,1
.L.str62:
	.asciz	"*movabssi_2_rex64"
	.size	.L.str62, 18

	.type	output_47,@object       # @output_47
	.section	.rodata,"a",@progbits
	.align	16
output_47:
	.quad	.L.str1835
	.quad	.L.str1836
	.size	output_47, 16

	.type	.L.str63,@object        # @.str63
	.section	.rodata.str1.1,"aMS",@progbits,1
.L.str63:
	.asciz	"*swapsi"
	.size	.L.str63, 8

	.type	.L.str64,@object        # @.str64
.L.str64:
	.asciz	"xchg{l}\t%1, %0"
	.size	.L.str64, 15

	.type	.L.str65,@object        # @.str65
.L.str65:
	.asciz	"*pushhi2"
	.size	.L.str65, 9

	.type	output_49,@object       # @output_49
	.section	.rodata,"a",@progbits
	.align	16
output_49:
	.quad	.L.str1833
	.quad	.L.str1834
	.size	output_49, 16

	.type	.L.str66,@object        # @.str66
	.section	.rodata.str1.1,"aMS",@progbits,1
.L.str66:
	.asciz	"*pushhi2_rex64"
	.size	.L.str66, 15

	.type	.L.str67,@object        # @.str67
.L.str67:
	.asciz	"*movhi_1"
	.size	.L.str67, 9

	.type	.L.str68,@object        # @.str68
.L.str68:
	.asciz	"*movabshi_1_rex64"
	.size	.L.str68, 18

	.type	output_52,@object       # @output_52
	.section	.rodata,"a",@progbits
	.align	16
output_52:
	.quad	.L.str1829
	.quad	.L.str1830
	.quad	.L.str1831
	.size	output_52, 24

	.type	.L.str69,@object        # @.str69
	.section	.rodata.str1.1,"aMS",@progbits,1
.L.str69:
	.asciz	"*movabshi_2_rex64"
	.size	.L.str69, 18

	.type	output_53,@object       # @output_53
	.section	.rodata,"a",@progbits
	.align	16
output_53:
	.quad	.L.str1827
	.quad	.L.str1828
	.size	output_53, 16

	.type	.L.str70,@object        # @.str70
	.section	.rodata.str1.1,"aMS",@progbits,1
.L.str70:
	.asciz	"*swaphi_1"
	.size	.L.str70, 10

	.type	.L.str71,@object        # @.str71
.L.str71:
	.asciz	"xchg{w}\t%1, %0"
	.size	.L.str71, 15

	.type	.L.str72,@object        # @.str72
.L.str72:
	.asciz	"*swaphi_2"
	.size	.L.str72, 10

	.type	.L.str73,@object        # @.str73
.L.str73:
	.asciz	"xchg{l}\t%k1, %k0"
	.size	.L.str73, 17

	.type	.L.str74,@object        # @.str74
.L.str74:
	.asciz	"*movstricthi_1"
	.size	.L.str74, 15

	.type	.L.str75,@object        # @.str75
.L.str75:
	.asciz	"mov{w}\t{%1, %0|%0, %1}"
	.size	.L.str75, 23

	.type	.L.str76,@object        # @.str76
.L.str76:
	.asciz	"*movstricthi_xor"
	.size	.L.str76, 17

	.type	.L.str77,@object        # @.str77
.L.str77:
	.asciz	"xor{w}\t{%0, %0|%0, %0}"
	.size	.L.str77, 23

	.type	.L.str78,@object        # @.str78
.L.str78:
	.asciz	"*pushqi2"
	.size	.L.str78, 9

	.type	output_58,@object       # @output_58
	.section	.rodata,"a",@progbits
	.align	16
output_58:
	.quad	.L.str1825
	.quad	.L.str1826
	.size	output_58, 16

	.type	.L.str79,@object        # @.str79
	.section	.rodata.str1.1,"aMS",@progbits,1
.L.str79:
	.asciz	"*pushqi2_rex64"
	.size	.L.str79, 15

	.type	.L.str80,@object        # @.str80
.L.str80:
	.asciz	"*movqi_1"
	.size	.L.str80, 9

	.type	.L.str81,@object        # @.str81
.L.str81:
	.asciz	"*swapqi"
	.size	.L.str81, 8

	.type	.L.str82,@object        # @.str82
.L.str82:
	.asciz	"xchg{b}\t%1, %0"
	.size	.L.str82, 15

	.type	.L.str83,@object        # @.str83
.L.str83:
	.asciz	"*movstrictqi_1"
	.size	.L.str83, 15

	.type	.L.str84,@object        # @.str84
.L.str84:
	.asciz	"mov{b}\t{%1, %0|%0, %1}"
	.size	.L.str84, 23

	.type	.L.str85,@object        # @.str85
.L.str85:
	.asciz	"*movstrictqi_xor"
	.size	.L.str85, 17

	.type	.L.str86,@object        # @.str86
.L.str86:
	.asciz	"xor{b}\t{%0, %0|%0, %0}"
	.size	.L.str86, 23

	.type	.L.str87,@object        # @.str87
.L.str87:
	.asciz	"*movsi_extv_1"
	.size	.L.str87, 14

	.type	.L.str88,@object        # @.str88
.L.str88:
	.asciz	"movs{bl|x}\t{%h1, %0|%0, %h1}"
	.size	.L.str88, 29

	.type	.L.str89,@object        # @.str89
.L.str89:
	.asciz	"*movhi_extv_1"
	.size	.L.str89, 14

	.type	.L.str90,@object        # @.str90
.L.str90:
	.asciz	"movs{bl|x}\t{%h1, %k0|%k0, %h1}"
	.size	.L.str90, 31

	.type	.L.str91,@object        # @.str91
.L.str91:
	.asciz	"*movqi_extv_1"
	.size	.L.str91, 14

	.type	.L.str92,@object        # @.str92
.L.str92:
	.asciz	"*movqi_extv_1_rex64"
	.size	.L.str92, 20

	.type	.L.str93,@object        # @.str93
.L.str93:
	.asciz	"*movabsqi_1_rex64"
	.size	.L.str93, 18

	.type	output_68,@object       # @output_68
	.section	.rodata,"a",@progbits
	.align	16
output_68:
	.quad	.L.str1821
	.quad	.L.str1822
	.quad	.L.str1823
	.size	output_68, 24

	.type	.L.str94,@object        # @.str94
	.section	.rodata.str1.1,"aMS",@progbits,1
.L.str94:
	.asciz	"*movabsqi_2_rex64"
	.size	.L.str94, 18

	.type	output_69,@object       # @output_69
	.section	.rodata,"a",@progbits
	.align	16
output_69:
	.quad	.L.str1819
	.quad	.L.str1820
	.size	output_69, 16

	.type	.L.str95,@object        # @.str95
	.section	.rodata.str1.1,"aMS",@progbits,1
.L.str95:
	.asciz	"*movsi_extzv_1"
	.size	.L.str95, 15

	.type	.L.str96,@object        # @.str96
.L.str96:
	.asciz	"movz{bl|x}\t{%h1, %0|%0, %h1}"
	.size	.L.str96, 29

	.type	.L.str97,@object        # @.str97
.L.str97:
	.asciz	"*movqi_extzv_2"
	.size	.L.str97, 15

	.type	.L.str98,@object        # @.str98
.L.str98:
	.asciz	"*movqi_extzv_2_rex64"
	.size	.L.str98, 21

	.type	.L.str99,@object        # @.str99
.L.str99:
	.asciz	"movsi_insv_1"
	.size	.L.str99, 13

	.type	.L.str100,@object       # @.str100
.L.str100:
	.asciz	"mov{b}\t{%b1, %h0|%h0, %b1}"
	.size	.L.str100, 27

	.type	.L.str101,@object       # @.str101
.L.str101:
	.asciz	"*movsi_insv_1_rex64"
	.size	.L.str101, 20

	.type	.L.str102,@object       # @.str102
.L.str102:
	.asciz	"*movqi_insv_2"
	.size	.L.str102, 14

	.type	.L.str103,@object       # @.str103
.L.str103:
	.asciz	"mov{b}\t{%h1, %h0|%h0, %h1}"
	.size	.L.str103, 27

	.type	.L.str104,@object       # @.str104
.L.str104:
	.asciz	"*pushdi"
	.size	.L.str104, 8

	.type	.L.str105,@object       # @.str105
.L.str105:
	.asciz	"pushdi2_rex64"
	.size	.L.str105, 14

	.type	output_77,@object       # @output_77
	.section	.rodata,"a",@progbits
	.align	16
output_77:
	.quad	.L.str107
	.quad	.L.str38
	.size	output_77, 16

	.type	.L.str106,@object       # @.str106
	.section	.rodata.str1.1,"aMS",@progbits,1
.L.str106:
	.asciz	"*pushdi2_prologue_rex64"
	.size	.L.str106, 24

	.type	.L.str107,@object       # @.str107
.L.str107:
	.asciz	"push{q}\t%1"
	.size	.L.str107, 11

	.type	.L.str108,@object       # @.str108
.L.str108:
	.asciz	"*popdi1_epilogue_rex64"
	.size	.L.str108, 23

	.type	.L.str109,@object       # @.str109
.L.str109:
	.asciz	"pop{q}\t%0"
	.size	.L.str109, 10

	.type	.L.str110,@object       # @.str110
.L.str110:
	.asciz	"popdi1"
	.size	.L.str110, 7

	.type	.L.str111,@object       # @.str111
.L.str111:
	.asciz	"*movdi_xor_rex64"
	.size	.L.str111, 17

	.type	.L.str112,@object       # @.str112
.L.str112:
	.asciz	"xor{l}\t{%k0, %k0|%k0, %k0}"
	.size	.L.str112, 27

	.type	.L.str113,@object       # @.str113
.L.str113:
	.asciz	"*movdi_or_rex64"
	.size	.L.str113, 16

	.type	.L.str114,@object       # @.str114
.L.str114:
	.asciz	"*movdi_2"
	.size	.L.str114, 9

	.type	output_83,@object       # @output_83
	.section	.rodata,"a",@progbits
	.align	16
output_83:
	.quad	.L.str38
	.quad	.L.str38
	.quad	.L.str852
	.quad	.L.str852
	.quad	.L.str852
	.quad	.L.str1813
	.quad	.L.str852
	.size	output_83, 56

	.type	.L.str115,@object       # @.str115
	.section	.rodata.str1.1,"aMS",@progbits,1
.L.str115:
	.asciz	"*movdi_1_rex64"
	.size	.L.str115, 15

	.type	.L.str116,@object       # @.str116
.L.str116:
	.asciz	"*movabsdi_1_rex64"
	.size	.L.str116, 18

	.type	output_85,@object       # @output_85
	.section	.rodata,"a",@progbits
	.align	16
output_85:
	.quad	.L.str1811
	.quad	.L.str1812
	.size	output_85, 16

	.type	.L.str117,@object       # @.str117
	.section	.rodata.str1.1,"aMS",@progbits,1
.L.str117:
	.asciz	"*movabsdi_2_rex64"
	.size	.L.str117, 18

	.type	output_86,@object       # @output_86
	.section	.rodata,"a",@progbits
	.align	16
output_86:
	.quad	.L.str1809
	.quad	.L.str1810
	.size	output_86, 16

	.type	.L.str118,@object       # @.str118
	.section	.rodata.str1.1,"aMS",@progbits,1
.L.str118:
	.asciz	"*swapdi_rex64"
	.size	.L.str118, 14

	.type	.L.str119,@object       # @.str119
.L.str119:
	.asciz	"xchg{q}\t%1, %0"
	.size	.L.str119, 15

	.type	.L.str120,@object       # @.str120
.L.str120:
	.asciz	"*pushsf"
	.size	.L.str120, 8

	.type	.L.str121,@object       # @.str121
.L.str121:
	.asciz	"*pushsf_rex64"
	.size	.L.str121, 14

	.type	.L.str122,@object       # @.str122
.L.str122:
	.asciz	"*movsf_1"
	.size	.L.str122, 9

	.type	.L.str123,@object       # @.str123
.L.str123:
	.asciz	"*swapsf"
	.size	.L.str123, 8

	.type	.L.str124,@object       # @.str124
.L.str124:
	.asciz	"*pushdf_nointeger"
	.size	.L.str124, 18

	.type	.L.str125,@object       # @.str125
.L.str125:
	.asciz	"*pushdf_integer"
	.size	.L.str125, 16

	.type	.L.str126,@object       # @.str126
.L.str126:
	.asciz	"*movdf_nointeger"
	.size	.L.str126, 17

	.type	.L.str127,@object       # @.str127
.L.str127:
	.asciz	"*movdf_integer"
	.size	.L.str127, 15

	.type	.L.str128,@object       # @.str128
.L.str128:
	.asciz	"*swapdf"
	.size	.L.str128, 8

	.type	.L.str129,@object       # @.str129
.L.str129:
	.asciz	"*pushxf_nointeger"
	.size	.L.str129, 18

	.type	.L.str130,@object       # @.str130
.L.str130:
	.asciz	"*pushtf_nointeger"
	.size	.L.str130, 18

	.type	.L.str131,@object       # @.str131
.L.str131:
	.asciz	"*pushxf_integer"
	.size	.L.str131, 16

	.type	.L.str132,@object       # @.str132
.L.str132:
	.asciz	"*pushtf_integer"
	.size	.L.str132, 16

	.type	.L.str133,@object       # @.str133
.L.str133:
	.asciz	"*movxf_nointeger"
	.size	.L.str133, 17

	.type	.L.str134,@object       # @.str134
.L.str134:
	.asciz	"*movtf_nointeger"
	.size	.L.str134, 17

	.type	.L.str135,@object       # @.str135
.L.str135:
	.asciz	"*movxf_integer"
	.size	.L.str135, 15

	.type	.L.str136,@object       # @.str136
.L.str136:
	.asciz	"*movtf_integer"
	.size	.L.str136, 15

	.type	.L.str137,@object       # @.str137
.L.str137:
	.asciz	"swapxf"
	.size	.L.str137, 7

	.type	.L.str138,@object       # @.str138
.L.str138:
	.asciz	"swaptf"
	.size	.L.str138, 7

	.type	.L.str139,@object       # @.str139
.L.str139:
	.asciz	"zero_extendhisi2_and"
	.size	.L.str139, 21

	.type	.L.str140,@object       # @.str140
.L.str140:
	.asciz	"*zero_extendhisi2_movzwl"
	.size	.L.str140, 25

	.type	.L.str141,@object       # @.str141
.L.str141:
	.asciz	"movz{wl|x}\t{%1, %0|%0, %1}"
	.size	.L.str141, 27

	.type	.L.str142,@object       # @.str142
.L.str142:
	.asciz	"*zero_extendqihi2_and"
	.size	.L.str142, 22

	.type	.L.str143,@object       # @.str143
.L.str143:
	.asciz	"*zero_extendqihi2_movzbw_and"
	.size	.L.str143, 29

	.type	.L.str144,@object       # @.str144
.L.str144:
	.asciz	"*zero_extendqihi2_movzbw"
	.size	.L.str144, 25

	.type	.L.str145,@object       # @.str145
.L.str145:
	.asciz	"movz{bw|x}\t{%1, %0|%0, %1}"
	.size	.L.str145, 27

	.type	.L.str146,@object       # @.str146
.L.str146:
	.asciz	"*zero_extendqisi2_and"
	.size	.L.str146, 22

	.type	.L.str147,@object       # @.str147
.L.str147:
	.asciz	"*zero_extendqisi2_movzbw_and"
	.size	.L.str147, 29

	.type	.L.str148,@object       # @.str148
.L.str148:
	.asciz	"*zero_extendqisi2_movzbw"
	.size	.L.str148, 25

	.type	.L.str149,@object       # @.str149
.L.str149:
	.asciz	"movz{bl|x}\t{%1, %0|%0, %1}"
	.size	.L.str149, 27

	.type	.L.str150,@object       # @.str150
.L.str150:
	.asciz	"zero_extendsidi2_32"
	.size	.L.str150, 20

	.type	.L.str151,@object       # @.str151
.L.str151:
	.asciz	"zero_extendsidi2_rex64"
	.size	.L.str151, 23

	.type	output_116,@object      # @output_116
	.section	.rodata,"a",@progbits
	.align	16
output_116:
	.quad	.L.str1796
	.quad	.L.str38
	.size	output_116, 16

	.type	.L.str152,@object       # @.str152
	.section	.rodata.str1.1,"aMS",@progbits,1
.L.str152:
	.asciz	"zero_extendhidi2"
	.size	.L.str152, 17

	.type	output_117,@object      # @output_117
	.section	.rodata,"a",@progbits
	.align	16
output_117:
	.quad	.L.str1794
	.quad	.L.str1795
	.size	output_117, 16

	.type	.L.str153,@object       # @.str153
	.section	.rodata.str1.1,"aMS",@progbits,1
.L.str153:
	.asciz	"zero_extendqidi2"
	.size	.L.str153, 17

	.type	output_118,@object      # @output_118
	.section	.rodata,"a",@progbits
	.align	16
output_118:
	.quad	.L.str1792
	.quad	.L.str1793
	.size	output_118, 16

	.type	.L.str154,@object       # @.str154
	.section	.rodata.str1.1,"aMS",@progbits,1
.L.str154:
	.asciz	"*extendsidi2_1"
	.size	.L.str154, 15

	.type	.L.str155,@object       # @.str155
.L.str155:
	.asciz	"extendsidi2_rex64"
	.size	.L.str155, 18

	.type	output_120,@object      # @output_120
	.section	.rodata,"a",@progbits
	.align	16
output_120:
	.quad	.L.str1790
	.quad	.L.str1791
	.size	output_120, 16

	.type	.L.str156,@object       # @.str156
	.section	.rodata.str1.1,"aMS",@progbits,1
.L.str156:
	.asciz	"extendhidi2"
	.size	.L.str156, 12

	.type	.L.str157,@object       # @.str157
.L.str157:
	.asciz	"movs{wq|x}\t{%1,%0|%0, %1}"
	.size	.L.str157, 26

	.type	.L.str158,@object       # @.str158
.L.str158:
	.asciz	"extendqidi2"
	.size	.L.str158, 12

	.type	.L.str159,@object       # @.str159
.L.str159:
	.asciz	"movs{bq|x}\t{%1,%0|%0, %1}"
	.size	.L.str159, 26

	.type	.L.str160,@object       # @.str160
.L.str160:
	.asciz	"extendhisi2"
	.size	.L.str160, 12

	.type	.L.str161,@object       # @.str161
.L.str161:
	.asciz	"*extendhisi2_zext"
	.size	.L.str161, 18

	.type	.L.str162,@object       # @.str162
.L.str162:
	.asciz	"extendqihi2"
	.size	.L.str162, 12

	.type	.L.str163,@object       # @.str163
.L.str163:
	.asciz	"extendqisi2"
	.size	.L.str163, 12

	.type	.L.str164,@object       # @.str164
.L.str164:
	.asciz	"movs{bl|x}\t{%1,%0|%0, %1}"
	.size	.L.str164, 26

	.type	.L.str165,@object       # @.str165
.L.str165:
	.asciz	"*extendqisi2_zext"
	.size	.L.str165, 18

	.type	.L.str166,@object       # @.str166
.L.str166:
	.asciz	"movs{bl|x}\t{%1,%k0|%k0, %1}"
	.size	.L.str166, 28

	.type	.L.str167,@object       # @.str167
.L.str167:
	.asciz	"*dummy_extendsfdf2"
	.size	.L.str167, 19

	.type	.L.str168,@object       # @.str168
.L.str168:
	.asciz	"*dummy_extendsfxf2"
	.size	.L.str168, 19

	.type	.L.str169,@object       # @.str169
.L.str169:
	.asciz	"*dummy_extendsftf2"
	.size	.L.str169, 19

	.type	.L.str170,@object       # @.str170
.L.str170:
	.asciz	"*dummy_extenddfxf2"
	.size	.L.str170, 19

	.type	.L.str171,@object       # @.str171
.L.str171:
	.asciz	"*dummy_extenddftf2"
	.size	.L.str171, 19

	.type	.L.str172,@object       # @.str172
.L.str172:
	.asciz	"*extendsfdf2_1"
	.size	.L.str172, 15

	.type	.L.str173,@object       # @.str173
.L.str173:
	.asciz	"*extendsfdf2_1_sse_only"
	.size	.L.str173, 24

	.type	.L.str174,@object       # @.str174
.L.str174:
	.asciz	"cvtss2sd\t{%1, %0|%0, %1}"
	.size	.L.str174, 25

	.type	.L.str175,@object       # @.str175
.L.str175:
	.asciz	"*extendsfxf2_1"
	.size	.L.str175, 15

	.type	.L.str176,@object       # @.str176
.L.str176:
	.asciz	"*extendsftf2_1"
	.size	.L.str176, 15

	.type	.L.str177,@object       # @.str177
.L.str177:
	.asciz	"*extenddfxf2_1"
	.size	.L.str177, 15

	.type	.L.str178,@object       # @.str178
.L.str178:
	.asciz	"*extenddftf2_1"
	.size	.L.str178, 15

	.type	.L.str179,@object       # @.str179
.L.str179:
	.asciz	"*truncdfsf2_1"
	.size	.L.str179, 14

	.type	.L.str180,@object       # @.str180
.L.str180:
	.asciz	"*truncdfsf2_1_sse"
	.size	.L.str180, 18

	.type	.L.str181,@object       # @.str181
.L.str181:
	.asciz	"*truncdfsf2_2"
	.size	.L.str181, 14

	.type	.L.str182,@object       # @.str182
.L.str182:
	.asciz	"truncdfsf2_3"
	.size	.L.str182, 13

	.type	.L.str183,@object       # @.str183
.L.str183:
	.asciz	"truncdfsf2_sse_only"
	.size	.L.str183, 20

	.type	.L.str184,@object       # @.str184
.L.str184:
	.asciz	"cvtsd2ss\t{%1, %0|%0, %1}"
	.size	.L.str184, 25

	.type	.L.str185,@object       # @.str185
.L.str185:
	.asciz	"*truncxfsf2_1"
	.size	.L.str185, 14

	.type	.L.str186,@object       # @.str186
.L.str186:
	.asciz	"*truncxfsf2_2"
	.size	.L.str186, 14

	.type	.L.str187,@object       # @.str187
.L.str187:
	.asciz	"*trunctfsf2_1"
	.size	.L.str187, 14

	.type	.L.str188,@object       # @.str188
.L.str188:
	.asciz	"*trunctfsf2_2"
	.size	.L.str188, 14

	.type	.L.str189,@object       # @.str189
.L.str189:
	.asciz	"*truncxfdf2_1"
	.size	.L.str189, 14

	.type	.L.str190,@object       # @.str190
.L.str190:
	.asciz	"*truncxfdf2_2"
	.size	.L.str190, 14

	.type	.L.str191,@object       # @.str191
.L.str191:
	.asciz	"*trunctfdf2_1"
	.size	.L.str191, 14

	.type	.L.str192,@object       # @.str192
.L.str192:
	.asciz	"*trunctfdf2_2"
	.size	.L.str192, 14

	.type	.L.str193,@object       # @.str193
.L.str193:
	.asciz	"*fix_truncdi_1"
	.size	.L.str193, 15

	.type	.L.str194,@object       # @.str194
.L.str194:
	.asciz	"fix_truncdi_nomemory"
	.size	.L.str194, 21

	.type	.L.str195,@object       # @.str195
.L.str195:
	.asciz	"fix_truncdi_memory"
	.size	.L.str195, 19

	.type	.L.str196,@object       # @.str196
.L.str196:
	.asciz	"fix_truncsfdi_sse"
	.size	.L.str196, 18

	.type	.L.str197,@object       # @.str197
.L.str197:
	.asciz	"cvttss2si{q}\t{%1, %0|%0, %1}"
	.size	.L.str197, 29

	.type	.L.str198,@object       # @.str198
.L.str198:
	.asciz	"fix_truncdfdi_sse"
	.size	.L.str198, 18

	.type	.L.str199,@object       # @.str199
.L.str199:
	.asciz	"cvttsd2si{q}\t{%1, %0|%0, %1}"
	.size	.L.str199, 29

	.type	.L.str200,@object       # @.str200
.L.str200:
	.asciz	"*fix_truncsi_1"
	.size	.L.str200, 15

	.type	.L.str201,@object       # @.str201
.L.str201:
	.asciz	"fix_truncsi_nomemory"
	.size	.L.str201, 21

	.type	.L.str202,@object       # @.str202
.L.str202:
	.asciz	"fix_truncsi_memory"
	.size	.L.str202, 19

	.type	.L.str203,@object       # @.str203
.L.str203:
	.asciz	"fix_truncsfsi_sse"
	.size	.L.str203, 18

	.type	.L.str204,@object       # @.str204
.L.str204:
	.asciz	"cvttss2si\t{%1, %0|%0, %1}"
	.size	.L.str204, 26

	.type	.L.str205,@object       # @.str205
.L.str205:
	.asciz	"fix_truncdfsi_sse"
	.size	.L.str205, 18

	.type	.L.str206,@object       # @.str206
.L.str206:
	.asciz	"cvttsd2si\t{%1, %0|%0, %1}"
	.size	.L.str206, 26

	.type	.L.str207,@object       # @.str207
.L.str207:
	.asciz	"*fix_trunchi_1"
	.size	.L.str207, 15

	.type	.L.str208,@object       # @.str208
.L.str208:
	.asciz	"fix_trunchi_nomemory"
	.size	.L.str208, 21

	.type	.L.str209,@object       # @.str209
.L.str209:
	.asciz	"fix_trunchi_memory"
	.size	.L.str209, 19

	.type	.L.str210,@object       # @.str210
.L.str210:
	.asciz	"x86_fnstcw_1"
	.size	.L.str210, 13

	.type	.L.str211,@object       # @.str211
.L.str211:
	.asciz	"fnstcw\t%0"
	.size	.L.str211, 10

	.type	.L.str212,@object       # @.str212
.L.str212:
	.asciz	"x86_fldcw_1"
	.size	.L.str212, 12

	.type	.L.str213,@object       # @.str213
.L.str213:
	.asciz	"fldcw\t%0"
	.size	.L.str213, 9

	.type	.L.str214,@object       # @.str214
.L.str214:
	.asciz	"floathisf2"
	.size	.L.str214, 11

	.type	output_167,@object      # @output_167
	.section	.rodata,"a",@progbits
	.align	16
output_167:
	.quad	.L.str1778
	.quad	.L.str38
	.size	output_167, 16

	.type	.L.str215,@object       # @.str215
	.section	.rodata.str1.1,"aMS",@progbits,1
.L.str215:
	.asciz	"*floatsisf2_i387"
	.size	.L.str215, 17

	.type	output_168,@object      # @output_168
	.section	.rodata,"a",@progbits
	.align	16
output_168:
	.quad	.L.str1778
	.quad	.L.str38
	.quad	.L.str217
	.size	output_168, 24

	.type	.L.str216,@object       # @.str216
	.section	.rodata.str1.1,"aMS",@progbits,1
.L.str216:
	.asciz	"*floatsisf2_sse"
	.size	.L.str216, 16

	.type	.L.str217,@object       # @.str217
.L.str217:
	.asciz	"cvtsi2ss\t{%1, %0|%0, %1}"
	.size	.L.str217, 25

	.type	.L.str218,@object       # @.str218
.L.str218:
	.asciz	"*floatdisf2_i387_only"
	.size	.L.str218, 22

	.type	output_170,@object      # @output_170
	.section	.rodata,"a",@progbits
	.align	16
output_170:
	.quad	.L.str1778
	.quad	.L.str38
	.size	output_170, 16

	.type	.L.str219,@object       # @.str219
	.section	.rodata.str1.1,"aMS",@progbits,1
.L.str219:
	.asciz	"*floatdisf2_i387"
	.size	.L.str219, 17

	.type	output_171,@object      # @output_171
	.section	.rodata,"a",@progbits
	.align	16
output_171:
	.quad	.L.str1778
	.quad	.L.str38
	.quad	.L.str221
	.size	output_171, 24

	.type	.L.str220,@object       # @.str220
	.section	.rodata.str1.1,"aMS",@progbits,1
.L.str220:
	.asciz	"*floatdisf2_sse"
	.size	.L.str220, 16

	.type	.L.str221,@object       # @.str221
.L.str221:
	.asciz	"cvtsi2ss{q}\t{%1, %0|%0, %1}"
	.size	.L.str221, 28

	.type	.L.str222,@object       # @.str222
.L.str222:
	.asciz	"floathidf2"
	.size	.L.str222, 11

	.type	output_173,@object      # @output_173
	.section	.rodata,"a",@progbits
	.align	16
output_173:
	.quad	.L.str1778
	.quad	.L.str38
	.size	output_173, 16

	.type	.L.str223,@object       # @.str223
	.section	.rodata.str1.1,"aMS",@progbits,1
.L.str223:
	.asciz	"*floatsidf2_i387"
	.size	.L.str223, 17

	.type	output_174,@object      # @output_174
	.section	.rodata,"a",@progbits
	.align	16
output_174:
	.quad	.L.str1778
	.quad	.L.str38
	.quad	.L.str225
	.size	output_174, 24

	.type	.L.str224,@object       # @.str224
	.section	.rodata.str1.1,"aMS",@progbits,1
.L.str224:
	.asciz	"*floatsidf2_sse"
	.size	.L.str224, 16

	.type	.L.str225,@object       # @.str225
.L.str225:
	.asciz	"cvtsi2sd\t{%1, %0|%0, %1}"
	.size	.L.str225, 25

	.type	.L.str226,@object       # @.str226
.L.str226:
	.asciz	"*floatdidf2_i387_only"
	.size	.L.str226, 22

	.type	output_176,@object      # @output_176
	.section	.rodata,"a",@progbits
	.align	16
output_176:
	.quad	.L.str1778
	.quad	.L.str38
	.size	output_176, 16

	.type	.L.str227,@object       # @.str227
	.section	.rodata.str1.1,"aMS",@progbits,1
.L.str227:
	.asciz	"*floatdidf2_i387"
	.size	.L.str227, 17

	.type	output_177,@object      # @output_177
	.section	.rodata,"a",@progbits
	.align	16
output_177:
	.quad	.L.str1778
	.quad	.L.str38
	.quad	.L.str229
	.size	output_177, 24

	.type	.L.str228,@object       # @.str228
	.section	.rodata.str1.1,"aMS",@progbits,1
.L.str228:
	.asciz	"*floatdidf2_sse"
	.size	.L.str228, 16

	.type	.L.str229,@object       # @.str229
.L.str229:
	.asciz	"cvtsi2sd{q}\t{%1, %0|%0, %1}"
	.size	.L.str229, 28

	.type	.L.str230,@object       # @.str230
.L.str230:
	.asciz	"floathixf2"
	.size	.L.str230, 11

	.type	output_179,@object      # @output_179
	.section	.rodata,"a",@progbits
	.align	16
output_179:
	.quad	.L.str1778
	.quad	.L.str38
	.size	output_179, 16

	.type	.L.str231,@object       # @.str231
	.section	.rodata.str1.1,"aMS",@progbits,1
.L.str231:
	.asciz	"floathitf2"
	.size	.L.str231, 11

	.type	output_180,@object      # @output_180
	.section	.rodata,"a",@progbits
	.align	16
output_180:
	.quad	.L.str1778
	.quad	.L.str38
	.size	output_180, 16

	.type	.L.str232,@object       # @.str232
	.section	.rodata.str1.1,"aMS",@progbits,1
.L.str232:
	.asciz	"floatsixf2"
	.size	.L.str232, 11

	.type	output_181,@object      # @output_181
	.section	.rodata,"a",@progbits
	.align	16
output_181:
	.quad	.L.str1778
	.quad	.L.str38
	.size	output_181, 16

	.type	.L.str233,@object       # @.str233
	.section	.rodata.str1.1,"aMS",@progbits,1
.L.str233:
	.asciz	"floatsitf2"
	.size	.L.str233, 11

	.type	output_182,@object      # @output_182
	.section	.rodata,"a",@progbits
	.align	16
output_182:
	.quad	.L.str1778
	.quad	.L.str38
	.size	output_182, 16

	.type	.L.str234,@object       # @.str234
	.section	.rodata.str1.1,"aMS",@progbits,1
.L.str234:
	.asciz	"floatdixf2"
	.size	.L.str234, 11

	.type	output_183,@object      # @output_183
	.section	.rodata,"a",@progbits
	.align	16
output_183:
	.quad	.L.str1778
	.quad	.L.str38
	.size	output_183, 16

	.type	.L.str235,@object       # @.str235
	.section	.rodata.str1.1,"aMS",@progbits,1
.L.str235:
	.asciz	"floatditf2"
	.size	.L.str235, 11

	.type	output_184,@object      # @output_184
	.section	.rodata,"a",@progbits
	.align	16
output_184:
	.quad	.L.str1778
	.quad	.L.str38
	.size	output_184, 16

	.type	.L.str236,@object       # @.str236
	.section	.rodata.str1.1,"aMS",@progbits,1
.L.str236:
	.asciz	"*adddi3_1"
	.size	.L.str236, 10

	.type	.L.str237,@object       # @.str237
.L.str237:
	.asciz	"*adddi3_carry_rex64"
	.size	.L.str237, 20

	.type	.L.str238,@object       # @.str238
.L.str238:
	.asciz	"adc{q}\t{%2, %0|%0, %2}"
	.size	.L.str238, 23

	.type	.L.str239,@object       # @.str239
.L.str239:
	.asciz	"*adddi3_cc_rex64"
	.size	.L.str239, 17

	.type	.L.str240,@object       # @.str240
.L.str240:
	.asciz	"add{q}\t{%2, %0|%0, %2}"
	.size	.L.str240, 23

	.type	.L.str241,@object       # @.str241
.L.str241:
	.asciz	"*addsi3_carry"
	.size	.L.str241, 14

	.type	.L.str242,@object       # @.str242
.L.str242:
	.asciz	"adc{l}\t{%2, %0|%0, %2}"
	.size	.L.str242, 23

	.type	.L.str243,@object       # @.str243
.L.str243:
	.asciz	"*addsi3_carry_zext"
	.size	.L.str243, 19

	.type	.L.str244,@object       # @.str244
.L.str244:
	.asciz	"adc{l}\t{%2, %k0|%k0, %2}"
	.size	.L.str244, 25

	.type	.L.str245,@object       # @.str245
.L.str245:
	.asciz	"*addsi3_cc"
	.size	.L.str245, 11

	.type	.L.str246,@object       # @.str246
.L.str246:
	.asciz	"add{l}\t{%2, %0|%0, %2}"
	.size	.L.str246, 23

	.type	.L.str247,@object       # @.str247
.L.str247:
	.asciz	"addqi3_cc"
	.size	.L.str247, 10

	.type	.L.str248,@object       # @.str248
.L.str248:
	.asciz	"add{b}\t{%2, %0|%0, %2}"
	.size	.L.str248, 23

	.type	.L.str249,@object       # @.str249
.L.str249:
	.asciz	"*lea_1"
	.size	.L.str249, 7

	.type	.L.str250,@object       # @.str250
.L.str250:
	.asciz	"lea{l}\t{%a1, %0|%0, %a1}"
	.size	.L.str250, 25

	.type	.L.str251,@object       # @.str251
.L.str251:
	.asciz	"*lea_1_rex64"
	.size	.L.str251, 13

	.type	.L.str252,@object       # @.str252
.L.str252:
	.asciz	"*lea_1_zext"
	.size	.L.str252, 12

	.type	.L.str253,@object       # @.str253
.L.str253:
	.asciz	"lea{l}\t{%a1, %k0|%k0, %a1}"
	.size	.L.str253, 27

	.type	.L.str254,@object       # @.str254
.L.str254:
	.asciz	"*lea_2_rex64"
	.size	.L.str254, 13

	.type	.L.str255,@object       # @.str255
.L.str255:
	.asciz	"lea{q}\t{%a1, %0|%0, %a1}"
	.size	.L.str255, 25

	.type	.L.str256,@object       # @.str256
.L.str256:
	.asciz	"*lea_general_1"
	.size	.L.str256, 15

	.type	.L.str257,@object       # @.str257
.L.str257:
	.asciz	"*lea_general_1_zext"
	.size	.L.str257, 20

	.type	.L.str258,@object       # @.str258
.L.str258:
	.asciz	"*lea_general_2"
	.size	.L.str258, 15

	.type	.L.str259,@object       # @.str259
.L.str259:
	.asciz	"*lea_general_2_zext"
	.size	.L.str259, 20

	.type	.L.str260,@object       # @.str260
.L.str260:
	.asciz	"*lea_general_3"
	.size	.L.str260, 15

	.type	.L.str261,@object       # @.str261
.L.str261:
	.asciz	"*lea_general_3_zext"
	.size	.L.str261, 20

	.type	.L.str262,@object       # @.str262
.L.str262:
	.asciz	"*adddi_1_rex64"
	.size	.L.str262, 15

	.type	.L.str263,@object       # @.str263
.L.str263:
	.asciz	"*adddi_2_rex64"
	.size	.L.str263, 15

	.type	.L.str264,@object       # @.str264
.L.str264:
	.asciz	"*adddi_3_rex64"
	.size	.L.str264, 15

	.type	.L.str265,@object       # @.str265
.L.str265:
	.asciz	"*adddi_4_rex64"
	.size	.L.str265, 15

	.type	.L.str266,@object       # @.str266
.L.str266:
	.asciz	"*adddi_5_rex64"
	.size	.L.str266, 15

	.type	.L.str267,@object       # @.str267
.L.str267:
	.asciz	"*addsi_1"
	.size	.L.str267, 9

	.type	.L.str268,@object       # @.str268
.L.str268:
	.asciz	"addsi_1_zext"
	.size	.L.str268, 13

	.type	.L.str269,@object       # @.str269
.L.str269:
	.asciz	"*addsi_2"
	.size	.L.str269, 9

	.type	.L.str270,@object       # @.str270
.L.str270:
	.asciz	"*addsi_2_zext"
	.size	.L.str270, 14

	.type	.L.str271,@object       # @.str271
.L.str271:
	.asciz	"*addsi_3"
	.size	.L.str271, 9

	.type	.L.str272,@object       # @.str272
.L.str272:
	.asciz	"*addsi_3_zext"
	.size	.L.str272, 14

	.type	.L.str273,@object       # @.str273
.L.str273:
	.asciz	"*addsi_4"
	.size	.L.str273, 9

	.type	.L.str274,@object       # @.str274
.L.str274:
	.asciz	"*addsi_5"
	.size	.L.str274, 9

	.type	.L.str275,@object       # @.str275
.L.str275:
	.asciz	"*addhi_1_lea"
	.size	.L.str275, 13

	.type	.L.str276,@object       # @.str276
.L.str276:
	.asciz	"*addhi_1"
	.size	.L.str276, 9

	.type	.L.str277,@object       # @.str277
.L.str277:
	.asciz	"*addhi_2"
	.size	.L.str277, 9

	.type	.L.str278,@object       # @.str278
.L.str278:
	.asciz	"*addhi_3"
	.size	.L.str278, 9

	.type	.L.str279,@object       # @.str279
.L.str279:
	.asciz	"*addhi_4"
	.size	.L.str279, 9

	.type	.L.str280,@object       # @.str280
.L.str280:
	.asciz	"*addhi_5"
	.size	.L.str280, 9

	.type	.L.str281,@object       # @.str281
.L.str281:
	.asciz	"*addqi_1_lea"
	.size	.L.str281, 13

	.type	.L.str282,@object       # @.str282
.L.str282:
	.asciz	"*addqi_1"
	.size	.L.str282, 9

	.type	.L.str283,@object       # @.str283
.L.str283:
	.asciz	"*addqi_2"
	.size	.L.str283, 9

	.type	.L.str284,@object       # @.str284
.L.str284:
	.asciz	"*addqi_3"
	.size	.L.str284, 9

	.type	.L.str285,@object       # @.str285
.L.str285:
	.asciz	"*addqi_4"
	.size	.L.str285, 9

	.type	.L.str286,@object       # @.str286
.L.str286:
	.asciz	"*addqi_5"
	.size	.L.str286, 9

	.type	.L.str287,@object       # @.str287
.L.str287:
	.asciz	"addqi_ext_1"
	.size	.L.str287, 12

	.type	.L.str288,@object       # @.str288
.L.str288:
	.asciz	"*addqi_ext_1_rex64"
	.size	.L.str288, 19

	.type	.L.str289,@object       # @.str289
.L.str289:
	.asciz	"*addqi_ext_2"
	.size	.L.str289, 13

	.type	.L.str290,@object       # @.str290
.L.str290:
	.asciz	"add{b}\t{%h2, %h0|%h0, %h2}"
	.size	.L.str290, 27

	.type	.L.str291,@object       # @.str291
.L.str291:
	.asciz	"*subdi3_1"
	.size	.L.str291, 10

	.type	.L.str292,@object       # @.str292
.L.str292:
	.asciz	"subdi3_carry_rex64"
	.size	.L.str292, 19

	.type	.L.str293,@object       # @.str293
.L.str293:
	.asciz	"sbb{q}\t{%2, %0|%0, %2}"
	.size	.L.str293, 23

	.type	.L.str294,@object       # @.str294
.L.str294:
	.asciz	"*subdi_1_rex64"
	.size	.L.str294, 15

	.type	.L.str295,@object       # @.str295
.L.str295:
	.asciz	"sub{q}\t{%2, %0|%0, %2}"
	.size	.L.str295, 23

	.type	.L.str296,@object       # @.str296
.L.str296:
	.asciz	"*subdi_2_rex64"
	.size	.L.str296, 15

	.type	.L.str297,@object       # @.str297
.L.str297:
	.asciz	"*subdi_3_rex63"
	.size	.L.str297, 15

	.type	.L.str298,@object       # @.str298
.L.str298:
	.asciz	"subsi3_carry"
	.size	.L.str298, 13

	.type	.L.str299,@object       # @.str299
.L.str299:
	.asciz	"sbb{l}\t{%2, %0|%0, %2}"
	.size	.L.str299, 23

	.type	.L.str300,@object       # @.str300
.L.str300:
	.asciz	"subsi3_carry_zext"
	.size	.L.str300, 18

	.type	.L.str301,@object       # @.str301
.L.str301:
	.asciz	"sbb{l}\t{%2, %k0|%k0, %2}"
	.size	.L.str301, 25

	.type	.L.str302,@object       # @.str302
.L.str302:
	.asciz	"*subsi_1"
	.size	.L.str302, 9

	.type	.L.str303,@object       # @.str303
.L.str303:
	.asciz	"sub{l}\t{%2, %0|%0, %2}"
	.size	.L.str303, 23

	.type	.L.str304,@object       # @.str304
.L.str304:
	.asciz	"*subsi_1_zext"
	.size	.L.str304, 14

	.type	.L.str305,@object       # @.str305
.L.str305:
	.asciz	"sub{l}\t{%2, %k0|%k0, %2}"
	.size	.L.str305, 25

	.type	.L.str306,@object       # @.str306
.L.str306:
	.asciz	"*subsi_2"
	.size	.L.str306, 9

	.type	.L.str307,@object       # @.str307
.L.str307:
	.asciz	"*subsi_2_zext"
	.size	.L.str307, 14

	.type	.L.str308,@object       # @.str308
.L.str308:
	.asciz	"*subsi_3"
	.size	.L.str308, 9

	.type	.L.str309,@object       # @.str309
.L.str309:
	.asciz	"*subsi_3_zext"
	.size	.L.str309, 14

	.type	.L.str310,@object       # @.str310
.L.str310:
	.asciz	"*subhi_1"
	.size	.L.str310, 9

	.type	.L.str311,@object       # @.str311
.L.str311:
	.asciz	"sub{w}\t{%2, %0|%0, %2}"
	.size	.L.str311, 23

	.type	.L.str312,@object       # @.str312
.L.str312:
	.asciz	"*subhi_2"
	.size	.L.str312, 9

	.type	.L.str313,@object       # @.str313
.L.str313:
	.asciz	"*subhi_3"
	.size	.L.str313, 9

	.type	.L.str314,@object       # @.str314
.L.str314:
	.asciz	"*subqi_1"
	.size	.L.str314, 9

	.type	.L.str315,@object       # @.str315
.L.str315:
	.asciz	"sub{b}\t{%2, %0|%0, %2}"
	.size	.L.str315, 23

	.type	.L.str316,@object       # @.str316
.L.str316:
	.asciz	"*subqi_2"
	.size	.L.str316, 9

	.type	.L.str317,@object       # @.str317
.L.str317:
	.asciz	"*subqi_3"
	.size	.L.str317, 9

	.type	.L.str318,@object       # @.str318
.L.str318:
	.asciz	"*muldi3_1_rex64"
	.size	.L.str318, 16

	.type	output_249,@object      # @output_249
	.section	.rodata,"a",@progbits
	.align	16
output_249:
	.quad	.L.str1759
	.quad	.L.str1759
	.quad	.L.str1760
	.size	output_249, 24

	.type	.L.str319,@object       # @.str319
	.section	.rodata.str1.1,"aMS",@progbits,1
.L.str319:
	.asciz	"*mulsi3_1"
	.size	.L.str319, 10

	.type	output_250,@object      # @output_250
	.section	.rodata,"a",@progbits
	.align	16
output_250:
	.quad	.L.str1757
	.quad	.L.str1757
	.quad	.L.str1758
	.size	output_250, 24

	.type	.L.str320,@object       # @.str320
	.section	.rodata.str1.1,"aMS",@progbits,1
.L.str320:
	.asciz	"*mulsi3_1_zext"
	.size	.L.str320, 15

	.type	output_251,@object      # @output_251
	.section	.rodata,"a",@progbits
	.align	16
output_251:
	.quad	.L.str1755
	.quad	.L.str1755
	.quad	.L.str1756
	.size	output_251, 24

	.type	.L.str321,@object       # @.str321
	.section	.rodata.str1.1,"aMS",@progbits,1
.L.str321:
	.asciz	"*mulhi3_1"
	.size	.L.str321, 10

	.type	output_252,@object      # @output_252
	.section	.rodata,"a",@progbits
	.align	16
output_252:
	.quad	.L.str1753
	.quad	.L.str1753
	.quad	.L.str1754
	.size	output_252, 24

	.type	.L.str322,@object       # @.str322
	.section	.rodata.str1.1,"aMS",@progbits,1
.L.str322:
	.asciz	"*mulqi3_1"
	.size	.L.str322, 10

	.type	.L.str323,@object       # @.str323
.L.str323:
	.asciz	"mul{b}\t%2"
	.size	.L.str323, 10

	.type	.L.str324,@object       # @.str324
.L.str324:
	.asciz	"*umulqihi3_1"
	.size	.L.str324, 13

	.type	.L.str325,@object       # @.str325
.L.str325:
	.asciz	"*mulqihi3_insn"
	.size	.L.str325, 15

	.type	.L.str326,@object       # @.str326
.L.str326:
	.asciz	"imul{b}\t%2"
	.size	.L.str326, 11

	.type	.L.str327,@object       # @.str327
.L.str327:
	.asciz	"*umulditi3_insn"
	.size	.L.str327, 16

	.type	.L.str328,@object       # @.str328
.L.str328:
	.asciz	"mul{q}\t%2"
	.size	.L.str328, 10

	.type	.L.str329,@object       # @.str329
.L.str329:
	.asciz	"*umulsidi3_insn"
	.size	.L.str329, 16

	.type	.L.str330,@object       # @.str330
.L.str330:
	.asciz	"mul{l}\t%2"
	.size	.L.str330, 10

	.type	.L.str331,@object       # @.str331
.L.str331:
	.asciz	"*mulditi3_insn"
	.size	.L.str331, 15

	.type	.L.str332,@object       # @.str332
.L.str332:
	.asciz	"imul{q}\t%2"
	.size	.L.str332, 11

	.type	.L.str333,@object       # @.str333
.L.str333:
	.asciz	"*mulsidi3_insn"
	.size	.L.str333, 15

	.type	.L.str334,@object       # @.str334
.L.str334:
	.asciz	"imul{l}\t%2"
	.size	.L.str334, 11

	.type	.L.str335,@object       # @.str335
.L.str335:
	.asciz	"*umuldi3_highpart_rex64"
	.size	.L.str335, 24

	.type	.L.str336,@object       # @.str336
.L.str336:
	.asciz	"*umulsi3_highpart_insn"
	.size	.L.str336, 23

	.type	.L.str337,@object       # @.str337
.L.str337:
	.asciz	"*umulsi3_highpart_zext"
	.size	.L.str337, 23

	.type	.L.str338,@object       # @.str338
.L.str338:
	.asciz	"*smuldi3_highpart_rex64"
	.size	.L.str338, 24

	.type	.L.str339,@object       # @.str339
.L.str339:
	.asciz	"*smulsi3_highpart_insn"
	.size	.L.str339, 23

	.type	.L.str340,@object       # @.str340
.L.str340:
	.asciz	"*smulsi3_highpart_zext"
	.size	.L.str340, 23

	.type	.L.str341,@object       # @.str341
.L.str341:
	.asciz	"divqi3"
	.size	.L.str341, 7

	.type	.L.str342,@object       # @.str342
.L.str342:
	.asciz	"idiv{b}\t%2"
	.size	.L.str342, 11

	.type	.L.str343,@object       # @.str343
.L.str343:
	.asciz	"udivqi3"
	.size	.L.str343, 8

	.type	.L.str344,@object       # @.str344
.L.str344:
	.asciz	"div{b}\t%2"
	.size	.L.str344, 10

	.type	.L.str345,@object       # @.str345
.L.str345:
	.asciz	"*divmoddi4_nocltd_rex64"
	.size	.L.str345, 24

	.type	.L.str346,@object       # @.str346
.L.str346:
	.asciz	"*divmoddi4_cltd_rex64"
	.size	.L.str346, 22

	.type	.L.str347,@object       # @.str347
.L.str347:
	.asciz	"*divmoddi_noext_rex64"
	.size	.L.str347, 22

	.type	.L.str348,@object       # @.str348
.L.str348:
	.asciz	"idiv{q}\t%2"
	.size	.L.str348, 11

	.type	.L.str349,@object       # @.str349
.L.str349:
	.asciz	"*divmodsi4_nocltd"
	.size	.L.str349, 18

	.type	.L.str350,@object       # @.str350
.L.str350:
	.asciz	"*divmodsi4_cltd"
	.size	.L.str350, 16

	.type	.L.str351,@object       # @.str351
.L.str351:
	.asciz	"*divmodsi_noext"
	.size	.L.str351, 16

	.type	.L.str352,@object       # @.str352
.L.str352:
	.asciz	"idiv{l}\t%2"
	.size	.L.str352, 11

	.type	.L.str353,@object       # @.str353
.L.str353:
	.asciz	"divmodhi4"
	.size	.L.str353, 10

	.type	.L.str354,@object       # @.str354
.L.str354:
	.asciz	"cwtd\n\tidiv{w}\t%2"
	.size	.L.str354, 17

	.type	.L.str355,@object       # @.str355
.L.str355:
	.asciz	"udivmoddi4"
	.size	.L.str355, 11

	.type	.L.str356,@object       # @.str356
.L.str356:
	.asciz	"xor{q}\t%3, %3\n\tdiv{q}\t%2"
	.size	.L.str356, 25

	.type	.L.str357,@object       # @.str357
.L.str357:
	.asciz	"*udivmoddi4_noext"
	.size	.L.str357, 18

	.type	.L.str358,@object       # @.str358
.L.str358:
	.asciz	"div{q}\t%2"
	.size	.L.str358, 10

	.type	.L.str359,@object       # @.str359
.L.str359:
	.asciz	"udivmodsi4"
	.size	.L.str359, 11

	.type	.L.str360,@object       # @.str360
.L.str360:
	.asciz	"xor{l}\t%3, %3\n\tdiv{l}\t%2"
	.size	.L.str360, 25

	.type	.L.str361,@object       # @.str361
.L.str361:
	.asciz	"*udivmodsi4_noext"
	.size	.L.str361, 18

	.type	.L.str362,@object       # @.str362
.L.str362:
	.asciz	"div{l}\t%2"
	.size	.L.str362, 10

	.type	.L.str363,@object       # @.str363
.L.str363:
	.asciz	"*udivmodhi_noext"
	.size	.L.str363, 17

	.type	.L.str364,@object       # @.str364
.L.str364:
	.asciz	"div{w}\t%2"
	.size	.L.str364, 10

	.type	.L.str365,@object       # @.str365
.L.str365:
	.asciz	"*testdi_1_rex64"
	.size	.L.str365, 16

	.type	output_280,@object      # @output_280
	.section	.rodata,"a",@progbits
	.align	16
output_280:
	.quad	.L.str1750
	.quad	.L.str1750
	.quad	.L.str1751
	.quad	.L.str1751
	.quad	.L.str1752
	.size	output_280, 40

	.type	.L.str366,@object       # @.str366
	.section	.rodata.str1.1,"aMS",@progbits,1
.L.str366:
	.asciz	"testsi_1"
	.size	.L.str366, 9

	.type	.L.str367,@object       # @.str367
.L.str367:
	.asciz	"test{l}\t{%1, %0|%0, %1}"
	.size	.L.str367, 24

	.type	.L.str368,@object       # @.str368
.L.str368:
	.asciz	"*testhi_1"
	.size	.L.str368, 10

	.type	.L.str369,@object       # @.str369
.L.str369:
	.asciz	"test{w}\t{%1, %0|%0, %1}"
	.size	.L.str369, 24

	.type	.L.str370,@object       # @.str370
.L.str370:
	.asciz	"*testqi_1"
	.size	.L.str370, 10

	.type	.L.str371,@object       # @.str371
.L.str371:
	.asciz	"*testqi_ext_0"
	.size	.L.str371, 14

	.type	.L.str372,@object       # @.str372
.L.str372:
	.asciz	"test{b}\t{%1, %h0|%h0, %1}"
	.size	.L.str372, 26

	.type	.L.str373,@object       # @.str373
.L.str373:
	.asciz	"*testqi_ext_1"
	.size	.L.str373, 14

	.type	.L.str374,@object       # @.str374
.L.str374:
	.asciz	"*testqi_ext_1_rex64"
	.size	.L.str374, 20

	.type	.L.str375,@object       # @.str375
.L.str375:
	.asciz	"*testqi_ext_2"
	.size	.L.str375, 14

	.type	.L.str376,@object       # @.str376
.L.str376:
	.asciz	"test{b}\t{%h1, %h0|%h0, %h1}"
	.size	.L.str376, 28

	.type	.L.str377,@object       # @.str377
.L.str377:
	.asciz	"*testqi_ext_3"
	.size	.L.str377, 14

	.type	.L.str378,@object       # @.str378
.L.str378:
	.asciz	"*testqi_ext_3_rex64"
	.size	.L.str378, 20

	.type	.L.str379,@object       # @.str379
.L.str379:
	.asciz	"*anddi_1_rex64"
	.size	.L.str379, 15

	.type	.L.str380,@object       # @.str380
.L.str380:
	.asciz	"*anddi_2"
	.size	.L.str380, 9

	.type	output_291,@object      # @output_291
	.section	.rodata,"a",@progbits
	.align	16
output_291:
	.quad	.L.str1743
	.quad	.L.str1744
	.quad	.L.str1745
	.size	output_291, 24

	.type	.L.str381,@object       # @.str381
	.section	.rodata.str1.1,"aMS",@progbits,1
.L.str381:
	.asciz	"*andsi_1"
	.size	.L.str381, 9

	.type	.L.str382,@object       # @.str382
.L.str382:
	.asciz	"*andsi_1_zext"
	.size	.L.str382, 14

	.type	.L.str383,@object       # @.str383
.L.str383:
	.asciz	"and{l}\t{%2, %k0|%k0, %2}"
	.size	.L.str383, 25

	.type	.L.str384,@object       # @.str384
.L.str384:
	.asciz	"*andsi_2"
	.size	.L.str384, 9

	.type	.L.str385,@object       # @.str385
.L.str385:
	.asciz	"and{l}\t{%2, %0|%0, %2}"
	.size	.L.str385, 23

	.type	.L.str386,@object       # @.str386
.L.str386:
	.asciz	"*andsi_2_zext"
	.size	.L.str386, 14

	.type	.L.str387,@object       # @.str387
.L.str387:
	.asciz	"*andhi_1"
	.size	.L.str387, 9

	.type	.L.str388,@object       # @.str388
.L.str388:
	.asciz	"*andhi_2"
	.size	.L.str388, 9

	.type	.L.str389,@object       # @.str389
.L.str389:
	.asciz	"and{w}\t{%2, %0|%0, %2}"
	.size	.L.str389, 23

	.type	.L.str390,@object       # @.str390
.L.str390:
	.asciz	"*andqi_1"
	.size	.L.str390, 9

	.type	output_298,@object      # @output_298
	.section	.rodata,"a",@progbits
	.align	16
output_298:
	.quad	.L.str1738
	.quad	.L.str1738
	.quad	.L.str1739
	.size	output_298, 24

	.type	.L.str391,@object       # @.str391
	.section	.rodata.str1.1,"aMS",@progbits,1
.L.str391:
	.asciz	"*andqi_1_slp"
	.size	.L.str391, 13

	.type	.L.str392,@object       # @.str392
.L.str392:
	.asciz	"and{b}\t{%1, %0|%0, %1}"
	.size	.L.str392, 23

	.type	.L.str393,@object       # @.str393
.L.str393:
	.asciz	"*andqi_2"
	.size	.L.str393, 9

	.type	.L.str394,@object       # @.str394
.L.str394:
	.asciz	"*andqi_2_slp"
	.size	.L.str394, 13

	.type	.L.str395,@object       # @.str395
.L.str395:
	.asciz	"andqi_ext_0"
	.size	.L.str395, 12

	.type	.L.str396,@object       # @.str396
.L.str396:
	.asciz	"and{b}\t{%2, %h0|%h0, %2}"
	.size	.L.str396, 25

	.type	.L.str397,@object       # @.str397
.L.str397:
	.asciz	"*andqi_ext_0_cc"
	.size	.L.str397, 16

	.type	.L.str398,@object       # @.str398
.L.str398:
	.asciz	"*andqi_ext_1"
	.size	.L.str398, 13

	.type	.L.str399,@object       # @.str399
.L.str399:
	.asciz	"*andqi_ext_1_rex64"
	.size	.L.str399, 19

	.type	.L.str400,@object       # @.str400
.L.str400:
	.asciz	"*andqi_ext_2"
	.size	.L.str400, 13

	.type	.L.str401,@object       # @.str401
.L.str401:
	.asciz	"and{b}\t{%h2, %h0|%h0, %h2}"
	.size	.L.str401, 27

	.type	.L.str402,@object       # @.str402
.L.str402:
	.asciz	"*iordi_1_rex64"
	.size	.L.str402, 15

	.type	.L.str403,@object       # @.str403
.L.str403:
	.asciz	"or{q}\t{%2, %0|%0, %2}"
	.size	.L.str403, 22

	.type	.L.str404,@object       # @.str404
.L.str404:
	.asciz	"*iordi_2_rex64"
	.size	.L.str404, 15

	.type	.L.str405,@object       # @.str405
.L.str405:
	.asciz	"*iordi_3_rex64"
	.size	.L.str405, 15

	.type	.L.str406,@object       # @.str406
.L.str406:
	.asciz	"*iorsi_1"
	.size	.L.str406, 9

	.type	.L.str407,@object       # @.str407
.L.str407:
	.asciz	"or{l}\t{%2, %0|%0, %2}"
	.size	.L.str407, 22

	.type	.L.str408,@object       # @.str408
.L.str408:
	.asciz	"*iorsi_1_zext"
	.size	.L.str408, 14

	.type	.L.str409,@object       # @.str409
.L.str409:
	.asciz	"or{l}\t{%2, %k0|%k0, %2}"
	.size	.L.str409, 24

	.type	.L.str410,@object       # @.str410
.L.str410:
	.asciz	"*iorsi_1_zext_imm"
	.size	.L.str410, 18

	.type	.L.str411,@object       # @.str411
.L.str411:
	.asciz	"*iorsi_2"
	.size	.L.str411, 9

	.type	.L.str412,@object       # @.str412
.L.str412:
	.asciz	"*iorsi_2_zext"
	.size	.L.str412, 14

	.type	.L.str413,@object       # @.str413
.L.str413:
	.asciz	"*iorsi_2_zext_imm"
	.size	.L.str413, 18

	.type	.L.str414,@object       # @.str414
.L.str414:
	.asciz	"*iorsi_3"
	.size	.L.str414, 9

	.type	.L.str415,@object       # @.str415
.L.str415:
	.asciz	"*iorhi_1"
	.size	.L.str415, 9

	.type	.L.str416,@object       # @.str416
.L.str416:
	.asciz	"or{w}\t{%2, %0|%0, %2}"
	.size	.L.str416, 22

	.type	.L.str417,@object       # @.str417
.L.str417:
	.asciz	"*iorhi_2"
	.size	.L.str417, 9

	.type	.L.str418,@object       # @.str418
.L.str418:
	.asciz	"*iorhi_3"
	.size	.L.str418, 9

	.type	.L.str419,@object       # @.str419
.L.str419:
	.asciz	"*iorqi_1"
	.size	.L.str419, 9

	.type	output_320,@object      # @output_320
	.section	.rodata,"a",@progbits
	.align	16
output_320:
	.quad	.L.str423
	.quad	.L.str423
	.quad	.L.str1737
	.size	output_320, 24

	.type	.L.str420,@object       # @.str420
	.section	.rodata.str1.1,"aMS",@progbits,1
.L.str420:
	.asciz	"*iorqi_1_slp"
	.size	.L.str420, 13

	.type	.L.str421,@object       # @.str421
.L.str421:
	.asciz	"or{b}\t{%1, %0|%0, %1}"
	.size	.L.str421, 22

	.type	.L.str422,@object       # @.str422
.L.str422:
	.asciz	"*iorqi_2"
	.size	.L.str422, 9

	.type	.L.str423,@object       # @.str423
