	.file	"insn-emit.c.bc"
	.text
	.globl	gen_cmpdi_ccno_1_rex64
	.align	16, 0x90
	.type	gen_cmpdi_ccno_1_rex64,@function
gen_cmpdi_ccno_1_rex64:                 # @gen_cmpdi_ccno_1_rex64
	.cfi_startproc
# BB#0:                                 # %entry
	pushq	%r15
.Ltmp4:
	.cfi_def_cfa_offset 16
	pushq	%r14
.Ltmp5:
	.cfi_def_cfa_offset 24
	pushq	%rbx
.Ltmp6:
	.cfi_def_cfa_offset 32
.Ltmp7:
	.cfi_offset %rbx, -32
.Ltmp8:
	.cfi_offset %r14, -24
.Ltmp9:
	.cfi_offset %r15, -16
	movq	%rsi, %r14
	movq	%rdi, %rbx
	xorq	%rdi, %rdi
	movq	$17, %rsi
	callq	gen_rtx_REG
	movq	%rax, %r15
	movq	$74, %rdi
	xorq	%rsi, %rsi
	movq	%rbx, %rdx
	movq	%r14, %rcx
	callq	gen_rtx_fmt_ee
	movq	$47, %rdi
	xorq	%rsi, %rsi
	movq	%r15, %rdx
	movq	%rax, %rcx
	popq	%rbx
	popq	%r14
	popq	%r15
	jmp	gen_rtx_fmt_ee  # TAILCALL
.Ltmp10:
	.size	gen_cmpdi_ccno_1_rex64, .Ltmp10-gen_cmpdi_ccno_1_rex64
	.cfi_endproc

	.globl	gen_cmpdi_1_insn_rex64
	.align	16, 0x90
	.type	gen_cmpdi_1_insn_rex64,@function
gen_cmpdi_1_insn_rex64:                 # @gen_cmpdi_1_insn_rex64
	.cfi_startproc
# BB#0:                                 # %entry
	pushq	%r15
.Ltmp15:
	.cfi_def_cfa_offset 16
	pushq	%r14
.Ltmp16:
	.cfi_def_cfa_offset 24
	pushq	%rbx
.Ltmp17:
	.cfi_def_cfa_offset 32
.Ltmp18:
	.cfi_offset %rbx, -32
.Ltmp19:
	.cfi_offset %r14, -24
.Ltmp20:
	.cfi_offset %r15, -16
	movq	%rsi, %r14
	movq	%rdi, %rbx
	xorq	%rdi, %rdi
	movq	$17, %rsi
	callq	gen_rtx_REG
	movq	%rax, %r15
	movq	$74, %rdi
	xorq	%rsi, %rsi
	movq	%rbx, %rdx
	movq	%r14, %rcx
	callq	gen_rtx_fmt_ee
	movq	$47, %rdi
	xorq	%rsi, %rsi
	movq	%r15, %rdx
	movq	%rax, %rcx
	popq	%rbx
	popq	%r14
	popq	%r15
	jmp	gen_rtx_fmt_ee  # TAILCALL
.Ltmp21:
	.size	gen_cmpdi_1_insn_rex64, .Ltmp21-gen_cmpdi_1_insn_rex64
	.cfi_endproc

	.globl	gen_cmpqi_ext_3_insn
	.align	16, 0x90
	.type	gen_cmpqi_ext_3_insn,@function
gen_cmpqi_ext_3_insn:                   # @gen_cmpqi_ext_3_insn
	.cfi_startproc
# BB#0:                                 # %entry
	pushq	%r15
.Ltmp27:
	.cfi_def_cfa_offset 16
	pushq	%r14
.Ltmp28:
	.cfi_def_cfa_offset 24
	pushq	%r12
.Ltmp29:
	.cfi_def_cfa_offset 32
	pushq	%rbx
.Ltmp30:
	.cfi_def_cfa_offset 40
	pushq	%rax
.Ltmp31:
	.cfi_def_cfa_offset 48
.Ltmp32:
	.cfi_offset %rbx, -40
.Ltmp33:
	.cfi_offset %r12, -32
.Ltmp34:
	.cfi_offset %r14, -24
.Ltmp35:
	.cfi_offset %r15, -16
	movq	%rsi, %r14
	movq	%rdi, %r12
	xorq	%rdi, %rdi
	movq	$17, %rsi
	callq	gen_rtx_REG
	movq	%rax, %r15
	xorq	%rdi, %rdi
	movq	$8, %rsi
	callq	gen_rtx_CONST_INT
	movq	%rax, %rbx
	xorq	%rdi, %rdi
	movq	$8, %rsi
	callq	gen_rtx_CONST_INT
	movq	$133, %rdi
	movq	$4, %rsi
	movq	%r12, %rdx
	movq	%rbx, %rcx
	movq	%rax, %r8
	callq	gen_rtx_fmt_eee
	movq	$2, %rdi
	xorq	%rdx, %rdx
	movq	%rax, %rsi
	callq	gen_rtx_SUBREG
	movq	$74, %rdi
	xorq	%rsi, %rsi
	movq	%rax, %rdx
	movq	%r14, %rcx
	callq	gen_rtx_fmt_ee
	movq	$47, %rdi
	xorq	%rsi, %rsi
	movq	%r15, %rdx
	movq	%rax, %rcx
	addq	$8, %rsp
	popq	%rbx
	popq	%r12
	popq	%r14
	popq	%r15
	jmp	gen_rtx_fmt_ee  # TAILCALL
.Ltmp36:
	.size	gen_cmpqi_ext_3_insn, .Ltmp36-gen_cmpqi_ext_3_insn
	.cfi_endproc

	.globl	gen_cmpqi_ext_3_insn_rex64
	.align	16, 0x90
	.type	gen_cmpqi_ext_3_insn_rex64,@function
gen_cmpqi_ext_3_insn_rex64:             # @gen_cmpqi_ext_3_insn_rex64
	.cfi_startproc
# BB#0:                                 # %entry
	pushq	%r15
.Ltmp42:
	.cfi_def_cfa_offset 16
	pushq	%r14
.Ltmp43:
	.cfi_def_cfa_offset 24
	pushq	%r12
.Ltmp44:
	.cfi_def_cfa_offset 32
	pushq	%rbx
.Ltmp45:
	.cfi_def_cfa_offset 40
	pushq	%rax
.Ltmp46:
	.cfi_def_cfa_offset 48
.Ltmp47:
	.cfi_offset %rbx, -40
.Ltmp48:
	.cfi_offset %r12, -32
.Ltmp49:
	.cfi_offset %r14, -24
.Ltmp50:
	.cfi_offset %r15, -16
	movq	%rsi, %r14
	movq	%rdi, %r12
	xorq	%rdi, %rdi
	movq	$17, %rsi
	callq	gen_rtx_REG
	movq	%rax, %r15
	xorq	%rdi, %rdi
	movq	$8, %rsi
	callq	gen_rtx_CONST_INT
	movq	%rax, %rbx
	xorq	%rdi, %rdi
	movq	$8, %rsi
	callq	gen_rtx_CONST_INT
	movq	$133, %rdi
	movq	$4, %rsi
	movq	%r12, %rdx
	movq	%rbx, %rcx
	movq	%rax, %r8
	callq	gen_rtx_fmt_eee
	movq	$2, %rdi
	xorq	%rdx, %rdx
	movq	%rax, %rsi
	callq	gen_rtx_SUBREG
	movq	$74, %rdi
	xorq	%rsi, %rsi
	movq	%rax, %rdx
	movq	%r14, %rcx
	callq	gen_rtx_fmt_ee
	movq	$47, %rdi
	xorq	%rsi, %rsi
	movq	%r15, %rdx
	movq	%rax, %rcx
	addq	$8, %rsp
	popq	%rbx
	popq	%r12
	popq	%r14
	popq	%r15
	jmp	gen_rtx_fmt_ee  # TAILCALL
.Ltmp51:
	.size	gen_cmpqi_ext_3_insn_rex64, .Ltmp51-gen_cmpqi_ext_3_insn_rex64
	.cfi_endproc

	.globl	gen_x86_fnstsw_1
	.align	16, 0x90
	.type	gen_x86_fnstsw_1,@function
gen_x86_fnstsw_1:                       # @gen_x86_fnstsw_1
	.cfi_startproc
# BB#0:                                 # %entry
	pushq	%rbx
.Ltmp54:
	.cfi_def_cfa_offset 16
.Ltmp55:
	.cfi_offset %rbx, -16
	movq	%rdi, %rbx
	xorq	%rdi, %rdi
	movq	$18, %rsi
	callq	gen_rtx_REG
	movq	%rax, %rcx
	movq	$1, %rdi
	xorq	%rax, %rax
	movq	%rcx, %rsi
	callq	gen_rtvec
	movq	$42, %rdi
	movq	$3, %rsi
	movq	$9, %rcx
	movq	%rax, %rdx
	callq	gen_rtx_fmt_Ei
	movq	$47, %rdi
	xorq	%rsi, %rsi
	movq	%rbx, %rdx
	movq	%rax, %rcx
	popq	%rbx
	jmp	gen_rtx_fmt_ee  # TAILCALL
.Ltmp56:
	.size	gen_x86_fnstsw_1, .Ltmp56-gen_x86_fnstsw_1
	.cfi_endproc

	.globl	gen_x86_sahf_1
	.align	16, 0x90
	.type	gen_x86_sahf_1,@function
gen_x86_sahf_1:                         # @gen_x86_sahf_1
	.cfi_startproc
# BB#0:                                 # %entry
	pushq	%r14
.Ltmp60:
	.cfi_def_cfa_offset 16
	pushq	%rbx
.Ltmp61:
	.cfi_def_cfa_offset 24
	pushq	%rax
.Ltmp62:
	.cfi_def_cfa_offset 32
.Ltmp63:
	.cfi_offset %rbx, -24
.Ltmp64:
	.cfi_offset %r14, -16
	movq	%rdi, %rbx
	movq	$52, %rdi
	movq	$17, %rsi
	callq	gen_rtx_REG
	movq	%rax, %r14
	movq	$1, %rdi
	xorq	%rax, %rax
	movq	%rbx, %rsi
	callq	gen_rtvec
	movq	$42, %rdi
	movq	$52, %rsi
	movq	$10, %rcx
	movq	%rax, %rdx
	callq	gen_rtx_fmt_Ei
	movq	$47, %rdi
	xorq	%rsi, %rsi
	movq	%r14, %rdx
	movq	%rax, %rcx
	addq	$8, %rsp
	popq	%rbx
	popq	%r14
	jmp	gen_rtx_fmt_ee  # TAILCALL
.Ltmp65:
	.size	gen_x86_sahf_1, .Ltmp65-gen_x86_sahf_1
	.cfi_endproc

	.globl	gen_popsi1
	.align	16, 0x90
	.type	gen_popsi1,@function
gen_popsi1:                             # @gen_popsi1
	.cfi_startproc
# BB#0:                                 # %entry
	pushq	%r15
.Ltmp70:
	.cfi_def_cfa_offset 16
	pushq	%r14
.Ltmp71:
	.cfi_def_cfa_offset 24
	pushq	%rbx
.Ltmp72:
	.cfi_def_cfa_offset 32
.Ltmp73:
	.cfi_offset %rbx, -32
.Ltmp74:
	.cfi_offset %r14, -24
.Ltmp75:
	.cfi_offset %r15, -16
	movq	%rdi, %rbx
	movq	$4, %rdi
	movq	$7, %rsi
	callq	gen_rtx_REG
	movq	$4, %rdi
	movq	%rax, %rsi
	callq	gen_rtx_MEM
	movq	$47, %rdi
	xorq	%rsi, %rsi
	movq	%rbx, %rdx
	movq	%rax, %rcx
	callq	gen_rtx_fmt_ee
	movq	%rax, %r14
	movq	$4, %rdi
	movq	$7, %rsi
	callq	gen_rtx_REG
	movq	%rax, %r15
	movq	$4, %rdi
	movq	$7, %rsi
	callq	gen_rtx_REG
	movq	%rax, %rbx
	xorq	%rdi, %rdi
	movq	$4, %rsi
	callq	gen_rtx_CONST_INT
	movq	$75, %rdi
	movq	$4, %rsi
	movq	%rbx, %rdx
	movq	%rax, %rcx
	callq	gen_rtx_fmt_ee
	movq	$47, %rdi
	xorq	%rsi, %rsi
	movq	%r15, %rdx
	movq	%rax, %rcx
	callq	gen_rtx_fmt_ee
	movq	%rax, %rcx
	movq	$2, %rdi
	xorq	%rax, %rax
	movq	%r14, %rsi
	movq	%rcx, %rdx
	callq	gen_rtvec
	movq	$39, %rdi
	xorq	%rsi, %rsi
	movq	%rax, %rdx
	popq	%rbx
	popq	%r14
	popq	%r15
	jmp	gen_rtx_fmt_E  # TAILCALL
.Ltmp76:
	.size	gen_popsi1, .Ltmp76-gen_popsi1
	.cfi_endproc

	.globl	gen_movsi_insv_1
	.align	16, 0x90
	.type	gen_movsi_insv_1,@function
gen_movsi_insv_1:                       # @gen_movsi_insv_1
	.cfi_startproc
# BB#0:                                 # %entry
	pushq	%r15
.Ltmp81:
	.cfi_def_cfa_offset 16
	pushq	%r14
.Ltmp82:
	.cfi_def_cfa_offset 24
	pushq	%rbx
.Ltmp83:
	.cfi_def_cfa_offset 32
.Ltmp84:
	.cfi_offset %rbx, -32
.Ltmp85:
	.cfi_offset %r14, -24
.Ltmp86:
	.cfi_offset %r15, -16
	movq	%rsi, %r14
	movq	%rdi, %r15
	xorq	%rdi, %rdi
	movq	$8, %rsi
	callq	gen_rtx_CONST_INT
	movq	%rax, %rbx
	xorq	%rdi, %rdi
	movq	$8, %rsi
	callq	gen_rtx_CONST_INT
	movq	$133, %rdi
	movq	$4, %rsi
	movq	%r15, %rdx
	movq	%rbx, %rcx
	movq	%rax, %r8
	callq	gen_rtx_fmt_eee
	movq	$47, %rdi
	xorq	%rsi, %rsi
	movq	%rax, %rdx
	movq	%r14, %rcx
	popq	%rbx
	popq	%r14
	popq	%r15
	jmp	gen_rtx_fmt_ee  # TAILCALL
.Ltmp87:
	.size	gen_movsi_insv_1, .Ltmp87-gen_movsi_insv_1
	.cfi_endproc

	.globl	gen_pushdi2_rex64
	.align	16, 0x90
	.type	gen_pushdi2_rex64,@function
gen_pushdi2_rex64:                      # @gen_pushdi2_rex64
	.cfi_startproc
# BB#0:                                 # %entry
	movq	%rsi, %rax
	movq	%rdi, %rcx
	movq	$47, %rdi
	xorq	%rsi, %rsi
	movq	%rcx, %rdx
	movq	%rax, %rcx
	jmp	gen_rtx_fmt_ee  # TAILCALL
.Ltmp88:
	.size	gen_pushdi2_rex64, .Ltmp88-gen_pushdi2_rex64
	.cfi_endproc

	.globl	gen_popdi1
	.align	16, 0x90
	.type	gen_popdi1,@function
gen_popdi1:                             # @gen_popdi1
	.cfi_startproc
# BB#0:                                 # %entry
	pushq	%r15
.Ltmp93:
	.cfi_def_cfa_offset 16
	pushq	%r14
.Ltmp94:
	.cfi_def_cfa_offset 24
	pushq	%rbx
.Ltmp95:
	.cfi_def_cfa_offset 32
.Ltmp96:
	.cfi_offset %rbx, -32
.Ltmp97:
	.cfi_offset %r14, -24
.Ltmp98:
	.cfi_offset %r15, -16
	movq	%rdi, %rbx
	movq	$5, %rdi
	movq	$7, %rsi
	callq	gen_rtx_REG
	movq	$5, %rdi
	movq	%rax, %rsi
	callq	gen_rtx_MEM
	movq	$47, %rdi
	xorq	%rsi, %rsi
	movq	%rbx, %rdx
	movq	%rax, %rcx
	callq	gen_rtx_fmt_ee
	movq	%rax, %r14
	movq	$5, %rdi
	movq	$7, %rsi
	callq	gen_rtx_REG
	movq	%rax, %r15
	movq	$5, %rdi
	movq	$7, %rsi
	callq	gen_rtx_REG
	movq	%rax, %rbx
	xorq	%rdi, %rdi
	movq	$8, %rsi
	callq	gen_rtx_CONST_INT
	movq	$75, %rdi
	movq	$5, %rsi
	movq	%rbx, %rdx
	movq	%rax, %rcx
	callq	gen_rtx_fmt_ee
	movq	$47, %rdi
	xorq	%rsi, %rsi
	movq	%r15, %rdx
	movq	%rax, %rcx
	callq	gen_rtx_fmt_ee
	movq	%rax, %rcx
	movq	$2, %rdi
	xorq	%rax, %rax
	movq	%r14, %rsi
	movq	%rcx, %rdx
	callq	gen_rtvec
	movq	$39, %rdi
	xorq	%rsi, %rsi
	movq	%rax, %rdx
	popq	%rbx
	popq	%r14
	popq	%r15
	jmp	gen_rtx_fmt_E  # TAILCALL
.Ltmp99:
	.size	gen_popdi1, .Ltmp99-gen_popdi1
	.cfi_endproc

	.globl	gen_swapxf
	.align	16, 0x90
	.type	gen_swapxf,@function
gen_swapxf:                             # @gen_swapxf
	.cfi_startproc
# BB#0:                                 # %entry
	pushq	%r15
.Ltmp104:
	.cfi_def_cfa_offset 16
	pushq	%r14
.Ltmp105:
	.cfi_def_cfa_offset 24
	pushq	%rbx
.Ltmp106:
	.cfi_def_cfa_offset 32
.Ltmp107:
	.cfi_offset %rbx, -32
.Ltmp108:
	.cfi_offset %r14, -24
.Ltmp109:
	.cfi_offset %r15, -16
	movq	%rsi, %rbx
	movq	%rdi, %r14
	movq	$47, %rdi
	xorq	%rsi, %rsi
	movq	%r14, %rdx
	movq	%rbx, %rcx
	callq	gen_rtx_fmt_ee
	movq	%rax, %r15
	movq	$47, %rdi
	xorq	%rsi, %rsi
	movq	%rbx, %rdx
	movq	%r14, %rcx
	callq	gen_rtx_fmt_ee
	movq	%rax, %rcx
	movq	$2, %rdi
	xorq	%rax, %rax
	movq	%r15, %rsi
	movq	%rcx, %rdx
	callq	gen_rtvec
	movq	$39, %rdi
	xorq	%rsi, %rsi
	movq	%rax, %rdx
	popq	%rbx
	popq	%r14
	popq	%r15
	jmp	gen_rtx_fmt_E  # TAILCALL
.Ltmp110:
	.size	gen_swapxf, .Ltmp110-gen_swapxf
	.cfi_endproc

	.globl	gen_swaptf
	.align	16, 0x90
	.type	gen_swaptf,@function
gen_swaptf:                             # @gen_swaptf
	.cfi_startproc
# BB#0:                                 # %entry
	pushq	%r15
.Ltmp115:
	.cfi_def_cfa_offset 16
	pushq	%r14
.Ltmp116:
	.cfi_def_cfa_offset 24
	pushq	%rbx
.Ltmp117:
	.cfi_def_cfa_offset 32
.Ltmp118:
	.cfi_offset %rbx, -32
.Ltmp119:
	.cfi_offset %r14, -24
.Ltmp120:
	.cfi_offset %r15, -16
	movq	%rsi, %rbx
	movq	%rdi, %r14
	movq	$47, %rdi
	xorq	%rsi, %rsi
	movq	%r14, %rdx
	movq	%rbx, %rcx
	callq	gen_rtx_fmt_ee
	movq	%rax, %r15
	movq	$47, %rdi
	xorq	%rsi, %rsi
	movq	%rbx, %rdx
	movq	%r14, %rcx
	callq	gen_rtx_fmt_ee
	movq	%rax, %rcx
	movq	$2, %rdi
	xorq	%rax, %rax
	movq	%r15, %rsi
	movq	%rcx, %rdx
	callq	gen_rtvec
	movq	$39, %rdi
	xorq	%rsi, %rsi
	movq	%rax, %rdx
	popq	%rbx
	popq	%r14
	popq	%r15
	jmp	gen_rtx_fmt_E  # TAILCALL
.Ltmp121:
	.size	gen_swaptf, .Ltmp121-gen_swaptf
	.cfi_endproc

	.globl	gen_zero_extendhisi2_and
	.align	16, 0x90
	.type	gen_zero_extendhisi2_and,@function
gen_zero_extendhisi2_and:               # @gen_zero_extendhisi2_and
	.cfi_startproc
# BB#0:                                 # %entry
	pushq	%rbx
.Ltmp124:
	.cfi_def_cfa_offset 16
.Ltmp125:
	.cfi_offset %rbx, -16
	movq	%rsi, %rax
	movq	%rdi, %rbx
	movq	$121, %rdi
	movq	$4, %rsi
	movq	%rax, %rdx
	callq	gen_rtx_fmt_e
	movq	$47, %rdi
	xorq	%rsi, %rsi
	movq	%rbx, %rdx
	movq	%rax, %rcx
	callq	gen_rtx_fmt_ee
	movq	%rax, %rbx
	movq	$52, %rdi
	movq	$17, %rsi
	callq	gen_rtx_REG
	movq	$49, %rdi
	xorq	%rsi, %rsi
	movq	%rax, %rdx
	callq	gen_rtx_fmt_e
	movq	%rax, %rcx
	movq	$2, %rdi
	xorq	%rax, %rax
	movq	%rbx, %rsi
	movq	%rcx, %rdx
	callq	gen_rtvec
	movq	$39, %rdi
	xorq	%rsi, %rsi
	movq	%rax, %rdx
	popq	%rbx
	jmp	gen_rtx_fmt_E  # TAILCALL
.Ltmp126:
	.size	gen_zero_extendhisi2_and, .Ltmp126-gen_zero_extendhisi2_and
	.cfi_endproc

	.globl	gen_zero_extendsidi2_32
	.align	16, 0x90
	.type	gen_zero_extendsidi2_32,@function
gen_zero_extendsidi2_32:                # @gen_zero_extendsidi2_32
	.cfi_startproc
# BB#0:                                 # %entry
	pushq	%rbx
.Ltmp129:
	.cfi_def_cfa_offset 16
.Ltmp130:
	.cfi_offset %rbx, -16
	movq	%rsi, %rax
	movq	%rdi, %rbx
	movq	$121, %rdi
	movq	$5, %rsi
	movq	%rax, %rdx
	callq	gen_rtx_fmt_e
	movq	$47, %rdi
	xorq	%rsi, %rsi
	movq	%rbx, %rdx
	movq	%rax, %rcx
	callq	gen_rtx_fmt_ee
	movq	%rax, %rbx
	movq	$52, %rdi
	movq	$17, %rsi
	callq	gen_rtx_REG
	movq	$49, %rdi
	xorq	%rsi, %rsi
	movq	%rax, %rdx
	callq	gen_rtx_fmt_e
	movq	%rax, %rcx
	movq	$2, %rdi
	xorq	%rax, %rax
	movq	%rbx, %rsi
	movq	%rcx, %rdx
	callq	gen_rtvec
	movq	$39, %rdi
	xorq	%rsi, %rsi
	movq	%rax, %rdx
	popq	%rbx
	jmp	gen_rtx_fmt_E  # TAILCALL
.Ltmp131:
	.size	gen_zero_extendsidi2_32, .Ltmp131-gen_zero_extendsidi2_32
	.cfi_endproc

	.globl	gen_zero_extendsidi2_rex64
	.align	16, 0x90
	.type	gen_zero_extendsidi2_rex64,@function
gen_zero_extendsidi2_rex64:             # @gen_zero_extendsidi2_rex64
	.cfi_startproc
# BB#0:                                 # %entry
	pushq	%rbx
.Ltmp134:
	.cfi_def_cfa_offset 16
.Ltmp135:
	.cfi_offset %rbx, -16
	movq	%rsi, %rax
	movq	%rdi, %rbx
	movq	$121, %rdi
	movq	$5, %rsi
	movq	%rax, %rdx
	callq	gen_rtx_fmt_e
	movq	$47, %rdi
	xorq	%rsi, %rsi
	movq	%rbx, %rdx
	movq	%rax, %rcx
	popq	%rbx
	jmp	gen_rtx_fmt_ee  # TAILCALL
.Ltmp136:
	.size	gen_zero_extendsidi2_rex64, .Ltmp136-gen_zero_extendsidi2_rex64
	.cfi_endproc

	.globl	gen_zero_extendhidi2
	.align	16, 0x90
	.type	gen_zero_extendhidi2,@function
gen_zero_extendhidi2:                   # @gen_zero_extendhidi2
	.cfi_startproc
# BB#0:                                 # %entry
	pushq	%rbx
.Ltmp139:
	.cfi_def_cfa_offset 16
.Ltmp140:
	.cfi_offset %rbx, -16
	movq	%rsi, %rax
	movq	%rdi, %rbx
	movq	$121, %rdi
	movq	$5, %rsi
	movq	%rax, %rdx
	callq	gen_rtx_fmt_e
	movq	$47, %rdi
	xorq	%rsi, %rsi
	movq	%rbx, %rdx
	movq	%rax, %rcx
	popq	%rbx
	jmp	gen_rtx_fmt_ee  # TAILCALL
.Ltmp141:
	.size	gen_zero_extendhidi2, .Ltmp141-gen_zero_extendhidi2
	.cfi_endproc

	.globl	gen_zero_extendqidi2
	.align	16, 0x90
	.type	gen_zero_extendqidi2,@function
gen_zero_extendqidi2:                   # @gen_zero_extendqidi2
	.cfi_startproc
# BB#0:                                 # %entry
	pushq	%rbx
.Ltmp144:
	.cfi_def_cfa_offset 16
.Ltmp145:
	.cfi_offset %rbx, -16
	movq	%rsi, %rax
	movq	%rdi, %rbx
	movq	$121, %rdi
	movq	$5, %rsi
	movq	%rax, %rdx
	callq	gen_rtx_fmt_e
	movq	$47, %rdi
	xorq	%rsi, %rsi
	movq	%rbx, %rdx
	movq	%rax, %rcx
	popq	%rbx
	jmp	gen_rtx_fmt_ee  # TAILCALL
.Ltmp146:
	.size	gen_zero_extendqidi2, .Ltmp146-gen_zero_extendqidi2
	.cfi_endproc

	.globl	gen_extendsidi2_rex64
	.align	16, 0x90
	.type	gen_extendsidi2_rex64,@function
gen_extendsidi2_rex64:                  # @gen_extendsidi2_rex64
	.cfi_startproc
# BB#0:                                 # %entry
	pushq	%rbx
.Ltmp149:
	.cfi_def_cfa_offset 16
.Ltmp150:
	.cfi_offset %rbx, -16
	movq	%rsi, %rax
	movq	%rdi, %rbx
	movq	$120, %rdi
	movq	$5, %rsi
	movq	%rax, %rdx
	callq	gen_rtx_fmt_e
	movq	$47, %rdi
	xorq	%rsi, %rsi
	movq	%rbx, %rdx
	movq	%rax, %rcx
	popq	%rbx
	jmp	gen_rtx_fmt_ee  # TAILCALL
.Ltmp151:
	.size	gen_extendsidi2_rex64, .Ltmp151-gen_extendsidi2_rex64
	.cfi_endproc

	.globl	gen_extendhidi2
	.align	16, 0x90
	.type	gen_extendhidi2,@function
gen_extendhidi2:                        # @gen_extendhidi2
	.cfi_startproc
# BB#0:                                 # %entry
	pushq	%rbx
.Ltmp154:
	.cfi_def_cfa_offset 16
.Ltmp155:
	.cfi_offset %rbx, -16
	movq	%rsi, %rax
	movq	%rdi, %rbx
	movq	$120, %rdi
	movq	$5, %rsi
	movq	%rax, %rdx
	callq	gen_rtx_fmt_e
	movq	$47, %rdi
	xorq	%rsi, %rsi
	movq	%rbx, %rdx
	movq	%rax, %rcx
	popq	%rbx
	jmp	gen_rtx_fmt_ee  # TAILCALL
.Ltmp156:
	.size	gen_extendhidi2, .Ltmp156-gen_extendhidi2
	.cfi_endproc

	.globl	gen_extendqidi2
	.align	16, 0x90
	.type	gen_extendqidi2,@function
gen_extendqidi2:                        # @gen_extendqidi2
	.cfi_startproc
# BB#0:                                 # %entry
	pushq	%rbx
.Ltmp159:
	.cfi_def_cfa_offset 16
.Ltmp160:
	.cfi_offset %rbx, -16
	movq	%rsi, %rax
	movq	%rdi, %rbx
	movq	$120, %rdi
	movq	$5, %rsi
	movq	%rax, %rdx
	callq	gen_rtx_fmt_e
	movq	$47, %rdi
	xorq	%rsi, %rsi
	movq	%rbx, %rdx
	movq	%rax, %rcx
	popq	%rbx
	jmp	gen_rtx_fmt_ee  # TAILCALL
.Ltmp161:
	.size	gen_extendqidi2, .Ltmp161-gen_extendqidi2
	.cfi_endproc

	.globl	gen_extendhisi2
	.align	16, 0x90
	.type	gen_extendhisi2,@function
gen_extendhisi2:                        # @gen_extendhisi2
	.cfi_startproc
# BB#0:                                 # %entry
	pushq	%rbx
.Ltmp164:
	.cfi_def_cfa_offset 16
.Ltmp165:
	.cfi_offset %rbx, -16
	movq	%rsi, %rax
	movq	%rdi, %rbx
	movq	$120, %rdi
	movq	$4, %rsi
	movq	%rax, %rdx
	callq	gen_rtx_fmt_e
	movq	$47, %rdi
	xorq	%rsi, %rsi
	movq	%rbx, %rdx
	movq	%rax, %rcx
	popq	%rbx
	jmp	gen_rtx_fmt_ee  # TAILCALL
.Ltmp166:
	.size	gen_extendhisi2, .Ltmp166-gen_extendhisi2
	.cfi_endproc

	.globl	gen_extendqihi2
	.align	16, 0x90
	.type	gen_extendqihi2,@function
gen_extendqihi2:                        # @gen_extendqihi2
	.cfi_startproc
# BB#0:                                 # %entry
	pushq	%rbx
.Ltmp169:
	.cfi_def_cfa_offset 16
.Ltmp170:
	.cfi_offset %rbx, -16
	movq	%rsi, %rax
	movq	%rdi, %rbx
	movq	$120, %rdi
	movq	$3, %rsi
	movq	%rax, %rdx
	callq	gen_rtx_fmt_e
	movq	$47, %rdi
	xorq	%rsi, %rsi
	movq	%rbx, %rdx
	movq	%rax, %rcx
	popq	%rbx
	jmp	gen_rtx_fmt_ee  # TAILCALL
.Ltmp171:
	.size	gen_extendqihi2, .Ltmp171-gen_extendqihi2
	.cfi_endproc

	.globl	gen_extendqisi2
	.align	16, 0x90
	.type	gen_extendqisi2,@function
gen_extendqisi2:                        # @gen_extendqisi2
	.cfi_startproc
# BB#0:                                 # %entry
	pushq	%rbx
.Ltmp174:
	.cfi_def_cfa_offset 16
.Ltmp175:
	.cfi_offset %rbx, -16
	movq	%rsi, %rax
	movq	%rdi, %rbx
	movq	$120, %rdi
	movq	$4, %rsi
	movq	%rax, %rdx
	callq	gen_rtx_fmt_e
	movq	$47, %rdi
	xorq	%rsi, %rsi
	movq	%rbx, %rdx
	movq	%rax, %rcx
	popq	%rbx
	jmp	gen_rtx_fmt_ee  # TAILCALL
.Ltmp176:
	.size	gen_extendqisi2, .Ltmp176-gen_extendqisi2
	.cfi_endproc

	.globl	gen_truncdfsf2_3
	.align	16, 0x90
	.type	gen_truncdfsf2_3,@function
gen_truncdfsf2_3:                       # @gen_truncdfsf2_3
	.cfi_startproc
# BB#0:                                 # %entry
	pushq	%rbx
.Ltmp179:
	.cfi_def_cfa_offset 16
.Ltmp180:
	.cfi_offset %rbx, -16
	movq	%rsi, %rax
	movq	%rdi, %rbx
	movq	$124, %rdi
	movq	$15, %rsi
	movq	%rax, %rdx
	callq	gen_rtx_fmt_e
	movq	$47, %rdi
	xorq	%rsi, %rsi
	movq	%rbx, %rdx
	movq	%rax, %rcx
	popq	%rbx
	jmp	gen_rtx_fmt_ee  # TAILCALL
.Ltmp181:
	.size	gen_truncdfsf2_3, .Ltmp181-gen_truncdfsf2_3
	.cfi_endproc

	.globl	gen_truncdfsf2_sse_only
	.align	16, 0x90
	.type	gen_truncdfsf2_sse_only,@function
gen_truncdfsf2_sse_only:                # @gen_truncdfsf2_sse_only
	.cfi_startproc
# BB#0:                                 # %entry
	pushq	%rbx
.Ltmp184:
	.cfi_def_cfa_offset 16
.Ltmp185:
	.cfi_offset %rbx, -16
	movq	%rsi, %rax
	movq	%rdi, %rbx
	movq	$124, %rdi
	movq	$15, %rsi
	movq	%rax, %rdx
	callq	gen_rtx_fmt_e
	movq	$47, %rdi
	xorq	%rsi, %rsi
	movq	%rbx, %rdx
	movq	%rax, %rcx
	popq	%rbx
	jmp	gen_rtx_fmt_ee  # TAILCALL
.Ltmp186:
	.size	gen_truncdfsf2_sse_only, .Ltmp186-gen_truncdfsf2_sse_only
	.cfi_endproc

	.globl	gen_fix_truncdi_nomemory
	.align	16, 0x90
	.type	gen_fix_truncdi_nomemory,@function
gen_fix_truncdi_nomemory:               # @gen_fix_truncdi_nomemory
	.cfi_startproc
# BB#0:                                 # %entry
	pushq	%r15
.Ltmp193:
	.cfi_def_cfa_offset 16
	pushq	%r14
.Ltmp194:
	.cfi_def_cfa_offset 24
	pushq	%r13
.Ltmp195:
	.cfi_def_cfa_offset 32
	pushq	%r12
.Ltmp196:
	.cfi_def_cfa_offset 40
	pushq	%rbx
.Ltmp197:
	.cfi_def_cfa_offset 48
.Ltmp198:
	.cfi_offset %rbx, -48
.Ltmp199:
	.cfi_offset %r12, -40
.Ltmp200:
	.cfi_offset %r13, -32
.Ltmp201:
	.cfi_offset %r14, -24
.Ltmp202:
	.cfi_offset %r15, -16
	movq	%r8, %r15
	movq	%rcx, %r13
	movq	%rdx, %r12
	movq	%rsi, %rax
	movq	%rdi, %rbx
	movq	$126, %rdi
	movq	$5, %rsi
	movq	%rax, %rdx
	callq	gen_rtx_fmt_e
	movq	$47, %rdi
	xorq	%rsi, %rsi
	movq	%rbx, %rdx
	movq	%rax, %rcx
	callq	gen_rtx_fmt_ee
	movq	%rax, %r14
	movq	$48, %rdi
	xorq	%rsi, %rsi
	movq	%r12, %rdx
	callq	gen_rtx_fmt_e
	movq	%rax, %r12
	movq	$48, %rdi
	xorq	%rsi, %rsi
	movq	%r13, %rdx
	callq	gen_rtx_fmt_e
	movq	%rax, %r13
	movq	$49, %rdi
	xorq	%rsi, %rsi
	movq	%r15, %rdx
	callq	gen_rtx_fmt_e
	movq	%rax, %r15
	movq	$62, %rdi
	movq	$16, %rsi
	callq	gen_rtx_fmt_0
	movq	$49, %rdi
	xorq	%rsi, %rsi
	movq	%rax, %rdx
	callq	gen_rtx_fmt_e
	movq	%rax, %rbx
	movq	$5, %rdi
	xorq	%rax, %rax
	movq	%r14, %rsi
	movq	%r12, %rdx
	movq	%r13, %rcx
	movq	%r15, %r8
	movq	%rbx, %r9
	callq	gen_rtvec
	movq	$39, %rdi
	xorq	%rsi, %rsi
	movq	%rax, %rdx
	popq	%rbx
	popq	%r12
	popq	%r13
	popq	%r14
	popq	%r15
	jmp	gen_rtx_fmt_E  # TAILCALL
.Ltmp203:
	.size	gen_fix_truncdi_nomemory, .Ltmp203-gen_fix_truncdi_nomemory
	.cfi_endproc

	.globl	gen_fix_truncdi_memory
	.align	16, 0x90
	.type	gen_fix_truncdi_memory,@function
gen_fix_truncdi_memory:                 # @gen_fix_truncdi_memory
	.cfi_startproc
# BB#0:                                 # %entry
	pushq	%r15
.Ltmp209:
	.cfi_def_cfa_offset 16
	pushq	%r14
.Ltmp210:
	.cfi_def_cfa_offset 24
	pushq	%r12
.Ltmp211:
	.cfi_def_cfa_offset 32
	pushq	%rbx
.Ltmp212:
	.cfi_def_cfa_offset 40
	pushq	%rax
.Ltmp213:
	.cfi_def_cfa_offset 48
.Ltmp214:
	.cfi_offset %rbx, -40
.Ltmp215:
	.cfi_offset %r12, -32
.Ltmp216:
	.cfi_offset %r14, -24
.Ltmp217:
	.cfi_offset %r15, -16
	movq	%rcx, %r15
	movq	%rdx, %r12
	movq	%rsi, %rax
	movq	%rdi, %rbx
	movq	$126, %rdi
	movq	$5, %rsi
	movq	%rax, %rdx
	callq	gen_rtx_fmt_e
	movq	$47, %rdi
	xorq	%rsi, %rsi
	movq	%rbx, %rdx
	movq	%rax, %rcx
	callq	gen_rtx_fmt_ee
	movq	%rax, %r14
	movq	$48, %rdi
	xorq	%rsi, %rsi
	movq	%r12, %rdx
	callq	gen_rtx_fmt_e
	movq	%rax, %r12
	movq	$48, %rdi
	xorq	%rsi, %rsi
	movq	%r15, %rdx
	callq	gen_rtx_fmt_e
	movq	%rax, %r15
	movq	$62, %rdi
	movq	$16, %rsi
	callq	gen_rtx_fmt_0
	movq	$49, %rdi
	xorq	%rsi, %rsi
	movq	%rax, %rdx
	callq	gen_rtx_fmt_e
	movq	%rax, %rbx
	movq	$4, %rdi
	xorq	%rax, %rax
	movq	%r14, %rsi
	movq	%r12, %rdx
	movq	%r15, %rcx
	movq	%rbx, %r8
	callq	gen_rtvec
	movq	$39, %rdi
	xorq	%rsi, %rsi
	movq	%rax, %rdx
	addq	$8, %rsp
	popq	%rbx
	popq	%r12
	popq	%r14
	popq	%r15
	jmp	gen_rtx_fmt_E  # TAILCALL
.Ltmp218:
	.size	gen_fix_truncdi_memory, .Ltmp218-gen_fix_truncdi_memory
	.cfi_endproc

	.globl	gen_fix_truncsfdi_sse
	.align	16, 0x90
	.type	gen_fix_truncsfdi_sse,@function
gen_fix_truncsfdi_sse:                  # @gen_fix_truncsfdi_sse
	.cfi_startproc
# BB#0:                                 # %entry
	pushq	%rbx
.Ltmp221:
	.cfi_def_cfa_offset 16
.Ltmp222:
	.cfi_offset %rbx, -16
	movq	%rsi, %rax
	movq	%rdi, %rbx
	movq	$126, %rdi
	movq	$5, %rsi
	movq	%rax, %rdx
	callq	gen_rtx_fmt_e
	movq	$47, %rdi
	xorq	%rsi, %rsi
	movq	%rbx, %rdx
	movq	%rax, %rcx
	popq	%rbx
	jmp	gen_rtx_fmt_ee  # TAILCALL
.Ltmp223:
	.size	gen_fix_truncsfdi_sse, .Ltmp223-gen_fix_truncsfdi_sse
	.cfi_endproc

	.globl	gen_fix_truncdfdi_sse
	.align	16, 0x90
	.type	gen_fix_truncdfdi_sse,@function
gen_fix_truncdfdi_sse:                  # @gen_fix_truncdfdi_sse
	.cfi_startproc
# BB#0:                                 # %entry
	pushq	%rbx
.Ltmp226:
	.cfi_def_cfa_offset 16
.Ltmp227:
	.cfi_offset %rbx, -16
	movq	%rsi, %rax
	movq	%rdi, %rbx
	movq	$126, %rdi
	movq	$5, %rsi
	movq	%rax, %rdx
	callq	gen_rtx_fmt_e
	movq	$47, %rdi
	xorq	%rsi, %rsi
	movq	%rbx, %rdx
	movq	%rax, %rcx
	popq	%rbx
	jmp	gen_rtx_fmt_ee  # TAILCALL
.Ltmp228:
	.size	gen_fix_truncdfdi_sse, .Ltmp228-gen_fix_truncdfdi_sse
	.cfi_endproc

	.globl	gen_fix_truncsi_nomemory
	.align	16, 0x90
	.type	gen_fix_truncsi_nomemory,@function
gen_fix_truncsi_nomemory:               # @gen_fix_truncsi_nomemory
	.cfi_startproc
# BB#0:                                 # %entry
	pushq	%r15
.Ltmp235:
	.cfi_def_cfa_offset 16
	pushq	%r14
.Ltmp236:
	.cfi_def_cfa_offset 24
	pushq	%r13
.Ltmp237:
	.cfi_def_cfa_offset 32
	pushq	%r12
.Ltmp238:
	.cfi_def_cfa_offset 40
	pushq	%rbx
.Ltmp239:
	.cfi_def_cfa_offset 48
.Ltmp240:
	.cfi_offset %rbx, -48
.Ltmp241:
	.cfi_offset %r12, -40
.Ltmp242:
	.cfi_offset %r13, -32
.Ltmp243:
	.cfi_offset %r14, -24
.Ltmp244:
	.cfi_offset %r15, -16
	movq	%r8, %r14
	movq	%rcx, %r15
	movq	%rdx, %r12
	movq	%rsi, %rax
	movq	%rdi, %rbx
	movq	$126, %rdi
	movq	$4, %rsi
	movq	%rax, %rdx
	callq	gen_rtx_fmt_e
	movq	$47, %rdi
	xorq	%rsi, %rsi
	movq	%rbx, %rdx
	movq	%rax, %rcx
	callq	gen_rtx_fmt_ee
	movq	%rax, %r13
	movq	$48, %rdi
	xorq	%rsi, %rsi
	movq	%r12, %rdx
	callq	gen_rtx_fmt_e
	movq	%rax, %r12
	movq	$48, %rdi
	xorq	%rsi, %rsi
	movq	%r15, %rdx
	callq	gen_rtx_fmt_e
	movq	%rax, %r15
	movq	$49, %rdi
	xorq	%rsi, %rsi
	movq	%r14, %rdx
	callq	gen_rtx_fmt_e
	movq	%rax, %rbx
	movq	$4, %rdi
	xorq	%rax, %rax
	movq	%r13, %rsi
	movq	%r12, %rdx
	movq	%r15, %rcx
	movq	%rbx, %r8
	callq	gen_rtvec
	movq	$39, %rdi
	xorq	%rsi, %rsi
	movq	%rax, %rdx
	popq	%rbx
	popq	%r12
	popq	%r13
	popq	%r14
	popq	%r15
	jmp	gen_rtx_fmt_E  # TAILCALL
.Ltmp245:
	.size	gen_fix_truncsi_nomemory, .Ltmp245-gen_fix_truncsi_nomemory
	.cfi_endproc

	.globl	gen_fix_truncsi_memory
	.align	16, 0x90
	.type	gen_fix_truncsi_memory,@function
gen_fix_truncsi_memory:                 # @gen_fix_truncsi_memory
	.cfi_startproc
# BB#0:                                 # %entry
	pushq	%r15
.Ltmp251:
	.cfi_def_cfa_offset 16
	pushq	%r14
.Ltmp252:
	.cfi_def_cfa_offset 24
	pushq	%r12
.Ltmp253:
	.cfi_def_cfa_offset 32
	pushq	%rbx
.Ltmp254:
	.cfi_def_cfa_offset 40
	pushq	%rax
.Ltmp255:
	.cfi_def_cfa_offset 48
.Ltmp256:
	.cfi_offset %rbx, -40
.Ltmp257:
	.cfi_offset %r12, -32
.Ltmp258:
	.cfi_offset %r14, -24
.Ltmp259:
	.cfi_offset %r15, -16
	movq	%rcx, %r14
	movq	%rdx, %r15
	movq	%rsi, %rax
	movq	%rdi, %rbx
	movq	$126, %rdi
	movq	$4, %rsi
	movq	%rax, %rdx
	callq	gen_rtx_fmt_e
	movq	$47, %rdi
	xorq	%rsi, %rsi
	movq	%rbx, %rdx
	movq	%rax, %rcx
	callq	gen_rtx_fmt_ee
	movq	%rax, %r12
	movq	$48, %rdi
	xorq	%rsi, %rsi
	movq	%r15, %rdx
	callq	gen_rtx_fmt_e
	movq	%rax, %rbx
	movq	$48, %rdi
	xorq	%rsi, %rsi
	movq	%r14, %rdx
	callq	gen_rtx_fmt_e
	movq	%rax, %rcx
	movq	$3, %rdi
	xorq	%rax, %rax
	movq	%r12, %rsi
	movq	%rbx, %rdx
	callq	gen_rtvec
	movq	$39, %rdi
	xorq	%rsi, %rsi
	movq	%rax, %rdx
	addq	$8, %rsp
	popq	%rbx
	popq	%r12
	popq	%r14
	popq	%r15
	jmp	gen_rtx_fmt_E  # TAILCALL
.Ltmp260:
	.size	gen_fix_truncsi_memory, .Ltmp260-gen_fix_truncsi_memory
	.cfi_endproc

	.globl	gen_fix_truncsfsi_sse
	.align	16, 0x90
	.type	gen_fix_truncsfsi_sse,@function
gen_fix_truncsfsi_sse:                  # @gen_fix_truncsfsi_sse
	.cfi_startproc
# BB#0:                                 # %entry
	pushq	%rbx
.Ltmp263:
	.cfi_def_cfa_offset 16
.Ltmp264:
	.cfi_offset %rbx, -16
	movq	%rsi, %rax
	movq	%rdi, %rbx
	movq	$126, %rdi
	movq	$4, %rsi
	movq	%rax, %rdx
	callq	gen_rtx_fmt_e
	movq	$47, %rdi
	xorq	%rsi, %rsi
	movq	%rbx, %rdx
	movq	%rax, %rcx
	popq	%rbx
	jmp	gen_rtx_fmt_ee  # TAILCALL
.Ltmp265:
	.size	gen_fix_truncsfsi_sse, .Ltmp265-gen_fix_truncsfsi_sse
	.cfi_endproc

	.globl	gen_fix_truncdfsi_sse
	.align	16, 0x90
	.type	gen_fix_truncdfsi_sse,@function
gen_fix_truncdfsi_sse:                  # @gen_fix_truncdfsi_sse
	.cfi_startproc
# BB#0:                                 # %entry
	pushq	%rbx
.Ltmp268:
	.cfi_def_cfa_offset 16
.Ltmp269:
	.cfi_offset %rbx, -16
	movq	%rsi, %rax
	movq	%rdi, %rbx
	movq	$126, %rdi
	movq	$4, %rsi
	movq	%rax, %rdx
	callq	gen_rtx_fmt_e
	movq	$47, %rdi
	xorq	%rsi, %rsi
	movq	%rbx, %rdx
	movq	%rax, %rcx
	popq	%rbx
	jmp	gen_rtx_fmt_ee  # TAILCALL
.Ltmp270:
	.size	gen_fix_truncdfsi_sse, .Ltmp270-gen_fix_truncdfsi_sse
	.cfi_endproc

	.globl	gen_fix_trunchi_nomemory
	.align	16, 0x90
	.type	gen_fix_trunchi_nomemory,@function
gen_fix_trunchi_nomemory:               # @gen_fix_trunchi_nomemory
	.cfi_startproc
# BB#0:                                 # %entry
	pushq	%r15
.Ltmp277:
	.cfi_def_cfa_offset 16
	pushq	%r14
.Ltmp278:
	.cfi_def_cfa_offset 24
	pushq	%r13
.Ltmp279:
	.cfi_def_cfa_offset 32
	pushq	%r12
.Ltmp280:
	.cfi_def_cfa_offset 40
	pushq	%rbx
.Ltmp281:
	.cfi_def_cfa_offset 48
.Ltmp282:
	.cfi_offset %rbx, -48
.Ltmp283:
	.cfi_offset %r12, -40
.Ltmp284:
	.cfi_offset %r13, -32
.Ltmp285:
	.cfi_offset %r14, -24
.Ltmp286:
	.cfi_offset %r15, -16
	movq	%r8, %r14
	movq	%rcx, %r15
	movq	%rdx, %r12
	movq	%rsi, %rax
	movq	%rdi, %rbx
	movq	$126, %rdi
	movq	$3, %rsi
	movq	%rax, %rdx
	callq	gen_rtx_fmt_e
	movq	$47, %rdi
	xorq	%rsi, %rsi
	movq	%rbx, %rdx
	movq	%rax, %rcx
	callq	gen_rtx_fmt_ee
	movq	%rax, %r13
	movq	$48, %rdi
	xorq	%rsi, %rsi
	movq	%r12, %rdx
	callq	gen_rtx_fmt_e
	movq	%rax, %r12
	movq	$48, %rdi
	xorq	%rsi, %rsi
	movq	%r15, %rdx
	callq	gen_rtx_fmt_e
	movq	%rax, %r15
	movq	$49, %rdi
	xorq	%rsi, %rsi
	movq	%r14, %rdx
	callq	gen_rtx_fmt_e
	movq	%rax, %rbx
	movq	$4, %rdi
	xorq	%rax, %rax
	movq	%r13, %rsi
	movq	%r12, %rdx
	movq	%r15, %rcx
	movq	%rbx, %r8
	callq	gen_rtvec
	movq	$39, %rdi
	xorq	%rsi, %rsi
	movq	%rax, %rdx
	popq	%rbx
	popq	%r12
	popq	%r13
	popq	%r14
	popq	%r15
	jmp	gen_rtx_fmt_E  # TAILCALL
.Ltmp287:
	.size	gen_fix_trunchi_nomemory, .Ltmp287-gen_fix_trunchi_nomemory
	.cfi_endproc

	.globl	gen_fix_trunchi_memory
	.align	16, 0x90
	.type	gen_fix_trunchi_memory,@function
gen_fix_trunchi_memory:                 # @gen_fix_trunchi_memory
	.cfi_startproc
# BB#0:                                 # %entry
	pushq	%r15
.Ltmp293:
	.cfi_def_cfa_offset 16
	pushq	%r14
.Ltmp294:
	.cfi_def_cfa_offset 24
	pushq	%r12
.Ltmp295:
	.cfi_def_cfa_offset 32
	pushq	%rbx
.Ltmp296:
	.cfi_def_cfa_offset 40
	pushq	%rax
.Ltmp297:
	.cfi_def_cfa_offset 48
.Ltmp298:
	.cfi_offset %rbx, -40
.Ltmp299:
	.cfi_offset %r12, -32
.Ltmp300:
	.cfi_offset %r14, -24
.Ltmp301:
	.cfi_offset %r15, -16
	movq	%rcx, %r14
	movq	%rdx, %r15
	movq	%rsi, %rax
	movq	%rdi, %rbx
	movq	$126, %rdi
	movq	$3, %rsi
	movq	%rax, %rdx
	callq	gen_rtx_fmt_e
	movq	$47, %rdi
	xorq	%rsi, %rsi
	movq	%rbx, %rdx
	movq	%rax, %rcx
	callq	gen_rtx_fmt_ee
	movq	%rax, %r12
	movq	$48, %rdi
	xorq	%rsi, %rsi
	movq	%r15, %rdx
	callq	gen_rtx_fmt_e
	movq	%rax, %rbx
	movq	$48, %rdi
	xorq	%rsi, %rsi
	movq	%r14, %rdx
	callq	gen_rtx_fmt_e
	movq	%rax, %rcx
	movq	$3, %rdi
	xorq	%rax, %rax
	movq	%r12, %rsi
	movq	%rbx, %rdx
	callq	gen_rtvec
	movq	$39, %rdi
	xorq	%rsi, %rsi
	movq	%rax, %rdx
	addq	$8, %rsp
	popq	%rbx
	popq	%r12
	popq	%r14
	popq	%r15
	jmp	gen_rtx_fmt_E  # TAILCALL
.Ltmp302:
	.size	gen_fix_trunchi_memory, .Ltmp302-gen_fix_trunchi_memory
	.cfi_endproc

	.globl	gen_x86_fnstcw_1
	.align	16, 0x90
	.type	gen_x86_fnstcw_1,@function
gen_x86_fnstcw_1:                       # @gen_x86_fnstcw_1
	.cfi_startproc
# BB#0:                                 # %entry
	pushq	%rbx
.Ltmp305:
	.cfi_def_cfa_offset 16
.Ltmp306:
	.cfi_offset %rbx, -16
	movq	%rdi, %rbx
	movq	$3, %rdi
	movq	$18, %rsi
	callq	gen_rtx_REG
	movq	%rax, %rcx
	movq	$1, %rdi
	xorq	%rax, %rax
	movq	%rcx, %rsi
	callq	gen_rtvec
	movq	$42, %rdi
	movq	$3, %rsi
	movq	$11, %rcx
	movq	%rax, %rdx
	callq	gen_rtx_fmt_Ei
	movq	$47, %rdi
	xorq	%rsi, %rsi
	movq	%rbx, %rdx
	movq	%rax, %rcx
	popq	%rbx
	jmp	gen_rtx_fmt_ee  # TAILCALL
.Ltmp307:
	.size	gen_x86_fnstcw_1, .Ltmp307-gen_x86_fnstcw_1
	.cfi_endproc

	.globl	gen_x86_fldcw_1
	.align	16, 0x90
	.type	gen_x86_fldcw_1,@function
gen_x86_fldcw_1:                        # @gen_x86_fldcw_1
	.cfi_startproc
# BB#0:                                 # %entry
	pushq	%r14
.Ltmp311:
	.cfi_def_cfa_offset 16
	pushq	%rbx
.Ltmp312:
	.cfi_def_cfa_offset 24
	pushq	%rax
.Ltmp313:
	.cfi_def_cfa_offset 32
.Ltmp314:
	.cfi_offset %rbx, -24
.Ltmp315:
	.cfi_offset %r14, -16
	movq	%rdi, %rbx
	movq	$3, %rdi
	movq	$18, %rsi
	callq	gen_rtx_REG
	movq	%rax, %r14
	movq	$1, %rdi
	xorq	%rax, %rax
	movq	%rbx, %rsi
	callq	gen_rtvec
	movq	$42, %rdi
	movq	$3, %rsi
	movq	$12, %rcx
	movq	%rax, %rdx
	callq	gen_rtx_fmt_Ei
	movq	$47, %rdi
	xorq	%rsi, %rsi
	movq	%r14, %rdx
	movq	%rax, %rcx
	addq	$8, %rsp
	popq	%rbx
	popq	%r14
	jmp	gen_rtx_fmt_ee  # TAILCALL
.Ltmp316:
	.size	gen_x86_fldcw_1, .Ltmp316-gen_x86_fldcw_1
	.cfi_endproc

	.globl	gen_floathisf2
	.align	16, 0x90
	.type	gen_floathisf2,@function
gen_floathisf2:                         # @gen_floathisf2
	.cfi_startproc
# BB#0:                                 # %entry
	pushq	%rbx
.Ltmp319:
	.cfi_def_cfa_offset 16
.Ltmp320:
	.cfi_offset %rbx, -16
	movq	%rsi, %rax
	movq	%rdi, %rbx
	movq	$125, %rdi
	movq	$15, %rsi
	movq	%rax, %rdx
	callq	gen_rtx_fmt_e
	movq	$47, %rdi
	xorq	%rsi, %rsi
	movq	%rbx, %rdx
	movq	%rax, %rcx
	popq	%rbx
	jmp	gen_rtx_fmt_ee  # TAILCALL
.Ltmp321:
	.size	gen_floathisf2, .Ltmp321-gen_floathisf2
	.cfi_endproc

	.globl	gen_floathidf2
	.align	16, 0x90
	.type	gen_floathidf2,@function
gen_floathidf2:                         # @gen_floathidf2
	.cfi_startproc
# BB#0:                                 # %entry
	pushq	%rbx
.Ltmp324:
	.cfi_def_cfa_offset 16
.Ltmp325:
	.cfi_offset %rbx, -16
	movq	%rsi, %rax
	movq	%rdi, %rbx
	movq	$125, %rdi
	movq	$16, %rsi
	movq	%rax, %rdx
	callq	gen_rtx_fmt_e
	movq	$47, %rdi
	xorq	%rsi, %rsi
	movq	%rbx, %rdx
	movq	%rax, %rcx
	popq	%rbx
	jmp	gen_rtx_fmt_ee  # TAILCALL
.Ltmp326:
	.size	gen_floathidf2, .Ltmp326-gen_floathidf2
	.cfi_endproc

	.globl	gen_floathixf2
	.align	16, 0x90
	.type	gen_floathixf2,@function
gen_floathixf2:                         # @gen_floathixf2
	.cfi_startproc
# BB#0:                                 # %entry
	pushq	%rbx
.Ltmp329:
	.cfi_def_cfa_offset 16
.Ltmp330:
	.cfi_offset %rbx, -16
	movq	%rsi, %rax
	movq	%rdi, %rbx
	movq	$125, %rdi
	movq	$17, %rsi
	movq	%rax, %rdx
	callq	gen_rtx_fmt_e
	movq	$47, %rdi
	xorq	%rsi, %rsi
	movq	%rbx, %rdx
	movq	%rax, %rcx
	popq	%rbx
	jmp	gen_rtx_fmt_ee  # TAILCALL
.Ltmp331:
	.size	gen_floathixf2, .Ltmp331-gen_floathixf2
	.cfi_endproc

	.globl	gen_floathitf2
	.align	16, 0x90
	.type	gen_floathitf2,@function
gen_floathitf2:                         # @gen_floathitf2
	.cfi_startproc
# BB#0:                                 # %entry
	pushq	%rbx
.Ltmp334:
	.cfi_def_cfa_offset 16
.Ltmp335:
	.cfi_offset %rbx, -16
	movq	%rsi, %rax
	movq	%rdi, %rbx
	movq	$125, %rdi
	movq	$18, %rsi
	movq	%rax, %rdx
	callq	gen_rtx_fmt_e
	movq	$47, %rdi
	xorq	%rsi, %rsi
	movq	%rbx, %rdx
	movq	%rax, %rcx
	popq	%rbx
	jmp	gen_rtx_fmt_ee  # TAILCALL
.Ltmp336:
	.size	gen_floathitf2, .Ltmp336-gen_floathitf2
	.cfi_endproc

	.globl	gen_floatsixf2
	.align	16, 0x90
	.type	gen_floatsixf2,@function
gen_floatsixf2:                         # @gen_floatsixf2
	.cfi_startproc
# BB#0:                                 # %entry
	pushq	%rbx
.Ltmp339:
	.cfi_def_cfa_offset 16
.Ltmp340:
	.cfi_offset %rbx, -16
	movq	%rsi, %rax
	movq	%rdi, %rbx
	movq	$125, %rdi
	movq	$17, %rsi
	movq	%rax, %rdx
	callq	gen_rtx_fmt_e
	movq	$47, %rdi
	xorq	%rsi, %rsi
	movq	%rbx, %rdx
	movq	%rax, %rcx
	popq	%rbx
	jmp	gen_rtx_fmt_ee  # TAILCALL
.Ltmp341:
	.size	gen_floatsixf2, .Ltmp341-gen_floatsixf2
	.cfi_endproc

	.globl	gen_floatsitf2
	.align	16, 0x90
	.type	gen_floatsitf2,@function
gen_floatsitf2:                         # @gen_floatsitf2
	.cfi_startproc
# BB#0:                                 # %entry
	pushq	%rbx
.Ltmp344:
	.cfi_def_cfa_offset 16
.Ltmp345:
	.cfi_offset %rbx, -16
	movq	%rsi, %rax
	movq	%rdi, %rbx
	movq	$125, %rdi
	movq	$18, %rsi
	movq	%rax, %rdx
	callq	gen_rtx_fmt_e
	movq	$47, %rdi
	xorq	%rsi, %rsi
	movq	%rbx, %rdx
	movq	%rax, %rcx
	popq	%rbx
	jmp	gen_rtx_fmt_ee  # TAILCALL
.Ltmp346:
	.size	gen_floatsitf2, .Ltmp346-gen_floatsitf2
	.cfi_endproc

	.globl	gen_floatdixf2
	.align	16, 0x90
	.type	gen_floatdixf2,@function
gen_floatdixf2:                         # @gen_floatdixf2
	.cfi_startproc
# BB#0:                                 # %entry
	pushq	%rbx
.Ltmp349:
	.cfi_def_cfa_offset 16
.Ltmp350:
	.cfi_offset %rbx, -16
	movq	%rsi, %rax
	movq	%rdi, %rbx
	movq	$125, %rdi
	movq	$17, %rsi
	movq	%rax, %rdx
	callq	gen_rtx_fmt_e
	movq	$47, %rdi
	xorq	%rsi, %rsi
	movq	%rbx, %rdx
	movq	%rax, %rcx
	popq	%rbx
	jmp	gen_rtx_fmt_ee  # TAILCALL
.Ltmp351:
	.size	gen_floatdixf2, .Ltmp351-gen_floatdixf2
	.cfi_endproc

	.globl	gen_floatditf2
	.align	16, 0x90
	.type	gen_floatditf2,@function
gen_floatditf2:                         # @gen_floatditf2
	.cfi_startproc
# BB#0:                                 # %entry
	pushq	%rbx
.Ltmp354:
	.cfi_def_cfa_offset 16
.Ltmp355:
	.cfi_offset %rbx, -16
	movq	%rsi, %rax
	movq	%rdi, %rbx
	movq	$125, %rdi
	movq	$18, %rsi
	movq	%rax, %rdx
	callq	gen_rtx_fmt_e
	movq	$47, %rdi
	xorq	%rsi, %rsi
	movq	%rbx, %rdx
	movq	%rax, %rcx
	popq	%rbx
	jmp	gen_rtx_fmt_ee  # TAILCALL
.Ltmp356:
	.size	gen_floatditf2, .Ltmp356-gen_floatditf2
	.cfi_endproc

	.globl	gen_addqi3_cc
	.align	16, 0x90
	.type	gen_addqi3_cc,@function
gen_addqi3_cc:                          # @gen_addqi3_cc
	.cfi_startproc
# BB#0:                                 # %entry
	pushq	%r15
.Ltmp362:
	.cfi_def_cfa_offset 16
	pushq	%r14
.Ltmp363:
	.cfi_def_cfa_offset 24
	pushq	%r12
.Ltmp364:
	.cfi_def_cfa_offset 32
	pushq	%rbx
.Ltmp365:
	.cfi_def_cfa_offset 40
	pushq	%rax
.Ltmp366:
	.cfi_def_cfa_offset 48
.Ltmp367:
	.cfi_offset %rbx, -40
.Ltmp368:
	.cfi_offset %r12, -32
.Ltmp369:
	.cfi_offset %r14, -24
.Ltmp370:
	.cfi_offset %r15, -16
	movq	%rdx, %r15
	movq	%rsi, %rbx
	movq	%rdi, %r14
	movq	$52, %rdi
	movq	$17, %rsi
	callq	gen_rtx_REG
	movq	%rax, %r12
	movq	$2, %rdi
	xorq	%rax, %rax
	movq	%rbx, %rsi
	movq	%r15, %rdx
	callq	gen_rtvec
	movq	$42, %rdi
	movq	$52, %rsi
	movq	$12, %rcx
	movq	%rax, %rdx
	callq	gen_rtx_fmt_Ei
	movq	$47, %rdi
	xorq	%rsi, %rsi
	movq	%r12, %rdx
	movq	%rax, %rcx
	callq	gen_rtx_fmt_ee
	movq	%rax, %r12
	movq	$75, %rdi
	movq	$2, %rsi
	movq	%rbx, %rdx
	movq	%r15, %rcx
	callq	gen_rtx_fmt_ee
	movq	$47, %rdi
	xorq	%rsi, %rsi
	movq	%r14, %rdx
	movq	%rax, %rcx
	callq	gen_rtx_fmt_ee
	movq	%rax, %rcx
	movq	$2, %rdi
	xorq	%rax, %rax
	movq	%r12, %rsi
	movq	%rcx, %rdx
	callq	gen_rtvec
	movq	$39, %rdi
	xorq	%rsi, %rsi
	movq	%rax, %rdx
	addq	$8, %rsp
	popq	%rbx
	popq	%r12
	popq	%r14
	popq	%r15
	jmp	gen_rtx_fmt_E  # TAILCALL
.Ltmp371:
	.size	gen_addqi3_cc, .Ltmp371-gen_addqi3_cc
	.cfi_endproc

	.globl	gen_addsi_1_zext
	.align	16, 0x90
	.type	gen_addsi_1_zext,@function
gen_addsi_1_zext:                       # @gen_addsi_1_zext
	.cfi_startproc
# BB#0:                                 # %entry
	pushq	%rbx
.Ltmp374:
	.cfi_def_cfa_offset 16
.Ltmp375:
	.cfi_offset %rbx, -16
	movq	%rdx, %rax
	movq	%rsi, %rcx
	movq	%rdi, %rbx
	movq	$75, %rdi
	movq	$4, %rsi
	movq	%rcx, %rdx
	movq	%rax, %rcx
	callq	gen_rtx_fmt_ee
	movq	$121, %rdi
	movq	$5, %rsi
	movq	%rax, %rdx
	callq	gen_rtx_fmt_e
	movq	$47, %rdi
	xorq	%rsi, %rsi
	movq	%rbx, %rdx
	movq	%rax, %rcx
	callq	gen_rtx_fmt_ee
	movq	%rax, %rbx
	movq	$52, %rdi
	movq	$17, %rsi
	callq	gen_rtx_REG
	movq	$49, %rdi
	xorq	%rsi, %rsi
	movq	%rax, %rdx
	callq	gen_rtx_fmt_e
	movq	%rax, %rcx
	movq	$2, %rdi
	xorq	%rax, %rax
	movq	%rbx, %rsi
	movq	%rcx, %rdx
	callq	gen_rtvec
	movq	$39, %rdi
	xorq	%rsi, %rsi
	movq	%rax, %rdx
	popq	%rbx
	jmp	gen_rtx_fmt_E  # TAILCALL
.Ltmp376:
	.size	gen_addsi_1_zext, .Ltmp376-gen_addsi_1_zext
	.cfi_endproc

	.globl	gen_addqi_ext_1
	.align	16, 0x90
	.type	gen_addqi_ext_1,@function
gen_addqi_ext_1:                        # @gen_addqi_ext_1
	.cfi_startproc
# BB#0:                                 # %entry
	pushq	%r15
.Ltmp382:
	.cfi_def_cfa_offset 16
	pushq	%r14
.Ltmp383:
	.cfi_def_cfa_offset 24
	pushq	%r12
.Ltmp384:
	.cfi_def_cfa_offset 32
	pushq	%rbx
.Ltmp385:
	.cfi_def_cfa_offset 40
	pushq	%rax
.Ltmp386:
	.cfi_def_cfa_offset 48
.Ltmp387:
	.cfi_offset %rbx, -40
.Ltmp388:
	.cfi_offset %r12, -32
.Ltmp389:
	.cfi_offset %r14, -24
.Ltmp390:
	.cfi_offset %r15, -16
	movq	%rdx, %r14
	movq	%rsi, %r15
	movq	%rdi, %r12
	xorq	%rdi, %rdi
	movq	$8, %rsi
	callq	gen_rtx_CONST_INT
	movq	%rax, %rbx
	xorq	%rdi, %rdi
	movq	$8, %rsi
	callq	gen_rtx_CONST_INT
	movq	$133, %rdi
	movq	$4, %rsi
	movq	%r12, %rdx
	movq	%rbx, %rcx
	movq	%rax, %r8
	callq	gen_rtx_fmt_eee
	movq	%rax, %r12
	xorq	%rdi, %rdi
	movq	$8, %rsi
	callq	gen_rtx_CONST_INT
	movq	%rax, %rbx
	xorq	%rdi, %rdi
	movq	$8, %rsi
	callq	gen_rtx_CONST_INT
	movq	$133, %rdi
	movq	$4, %rsi
	movq	%r15, %rdx
	movq	%rbx, %rcx
	movq	%rax, %r8
	callq	gen_rtx_fmt_eee
	movq	$75, %rdi
	movq	$4, %rsi
	movq	%rax, %rdx
	movq	%r14, %rcx
	callq	gen_rtx_fmt_ee
	movq	$47, %rdi
	xorq	%rsi, %rsi
	movq	%r12, %rdx
	movq	%rax, %rcx
	callq	gen_rtx_fmt_ee
	movq	%rax, %rbx
	movq	$52, %rdi
	movq	$17, %rsi
	callq	gen_rtx_REG
	movq	$49, %rdi
	xorq	%rsi, %rsi
	movq	%rax, %rdx
	callq	gen_rtx_fmt_e
	movq	%rax, %rcx
	movq	$2, %rdi
	xorq	%rax, %rax
	movq	%rbx, %rsi
	movq	%rcx, %rdx
	callq	gen_rtvec
	movq	$39, %rdi
	xorq	%rsi, %rsi
	movq	%rax, %rdx
	addq	$8, %rsp
	popq	%rbx
	popq	%r12
	popq	%r14
	popq	%r15
	jmp	gen_rtx_fmt_E  # TAILCALL
.Ltmp391:
	.size	gen_addqi_ext_1, .Ltmp391-gen_addqi_ext_1
	.cfi_endproc

	.globl	gen_subdi3_carry_rex64
	.align	16, 0x90
	.type	gen_subdi3_carry_rex64,@function
gen_subdi3_carry_rex64:                 # @gen_subdi3_carry_rex64
	.cfi_startproc
# BB#0:                                 # %entry
	pushq	%r15
.Ltmp396:
	.cfi_def_cfa_offset 16
	pushq	%r14
.Ltmp397:
	.cfi_def_cfa_offset 24
	pushq	%rbx
.Ltmp398:
	.cfi_def_cfa_offset 32
.Ltmp399:
	.cfi_offset %rbx, -32
.Ltmp400:
	.cfi_offset %r14, -24
.Ltmp401:
	.cfi_offset %r15, -16
	movq	%rdx, %rbx
	movq	%rsi, %r15
	movq	%rdi, %r14
	movq	$52, %rdi
	movq	$17, %rsi
	callq	gen_rtx_REG
	movq	const_int_rtx+512(%rip), %rcx
	movq	$111, %rdi
	movq	$5, %rsi
	movq	%rax, %rdx
	callq	gen_rtx_fmt_ee
	movq	$75, %rdi
	movq	$5, %rsi
	movq	%rax, %rdx
	movq	%rbx, %rcx
	callq	gen_rtx_fmt_ee
	movq	$76, %rdi
	movq	$5, %rsi
	movq	%r15, %rdx
	movq	%rax, %rcx
	callq	gen_rtx_fmt_ee
	movq	$47, %rdi
	xorq	%rsi, %rsi
	movq	%r14, %rdx
	movq	%rax, %rcx
	callq	gen_rtx_fmt_ee
	movq	%rax, %rbx
	movq	$52, %rdi
	movq	$17, %rsi
	callq	gen_rtx_REG
	movq	$49, %rdi
	xorq	%rsi, %rsi
	movq	%rax, %rdx
	callq	gen_rtx_fmt_e
	movq	%rax, %rcx
	movq	$2, %rdi
	xorq	%rax, %rax
	movq	%rbx, %rsi
	movq	%rcx, %rdx
	callq	gen_rtvec
	movq	$39, %rdi
	xorq	%rsi, %rsi
	movq	%rax, %rdx
	popq	%rbx
	popq	%r14
	popq	%r15
	jmp	gen_rtx_fmt_E  # TAILCALL
.Ltmp402:
	.size	gen_subdi3_carry_rex64, .Ltmp402-gen_subdi3_carry_rex64
	.cfi_endproc

	.globl	gen_subsi3_carry
	.align	16, 0x90
	.type	gen_subsi3_carry,@function
gen_subsi3_carry:                       # @gen_subsi3_carry
	.cfi_startproc
# BB#0:                                 # %entry
	pushq	%r15
.Ltmp407:
	.cfi_def_cfa_offset 16
	pushq	%r14
.Ltmp408:
	.cfi_def_cfa_offset 24
	pushq	%rbx
.Ltmp409:
	.cfi_def_cfa_offset 32
.Ltmp410:
	.cfi_offset %rbx, -32
.Ltmp411:
	.cfi_offset %r14, -24
.Ltmp412:
	.cfi_offset %r15, -16
	movq	%rdx, %rbx
	movq	%rsi, %r15
	movq	%rdi, %r14
	movq	$52, %rdi
	movq	$17, %rsi
	callq	gen_rtx_REG
	movq	const_int_rtx+512(%rip), %rcx
	movq	$111, %rdi
	movq	$4, %rsi
	movq	%rax, %rdx
	callq	gen_rtx_fmt_ee
	movq	$75, %rdi
	movq	$4, %rsi
	movq	%rax, %rdx
	movq	%rbx, %rcx
	callq	gen_rtx_fmt_ee
	movq	$76, %rdi
	movq	$4, %rsi
	movq	%r15, %rdx
	movq	%rax, %rcx
	callq	gen_rtx_fmt_ee
	movq	$47, %rdi
	xorq	%rsi, %rsi
	movq	%r14, %rdx
	movq	%rax, %rcx
	callq	gen_rtx_fmt_ee
	movq	%rax, %rbx
	movq	$52, %rdi
	movq	$17, %rsi
	callq	gen_rtx_REG
	movq	$49, %rdi
	xorq	%rsi, %rsi
	movq	%rax, %rdx
	callq	gen_rtx_fmt_e
	movq	%rax, %rcx
	movq	$2, %rdi
	xorq	%rax, %rax
	movq	%rbx, %rsi
	movq	%rcx, %rdx
	callq	gen_rtvec
	movq	$39, %rdi
	xorq	%rsi, %rsi
	movq	%rax, %rdx
	popq	%rbx
	popq	%r14
	popq	%r15
	jmp	gen_rtx_fmt_E  # TAILCALL
.Ltmp413:
	.size	gen_subsi3_carry, .Ltmp413-gen_subsi3_carry
	.cfi_endproc

	.globl	gen_subsi3_carry_zext
	.align	16, 0x90
	.type	gen_subsi3_carry_zext,@function
gen_subsi3_carry_zext:                  # @gen_subsi3_carry_zext
	.cfi_startproc
# BB#0:                                 # %entry
	pushq	%r15
.Ltmp418:
	.cfi_def_cfa_offset 16
	pushq	%r14
.Ltmp419:
	.cfi_def_cfa_offset 24
	pushq	%rbx
.Ltmp420:
	.cfi_def_cfa_offset 32
.Ltmp421:
	.cfi_offset %rbx, -32
.Ltmp422:
	.cfi_offset %r14, -24
.Ltmp423:
	.cfi_offset %r15, -16
	movq	%rdx, %rbx
	movq	%rsi, %r15
	movq	%rdi, %r14
	movq	$52, %rdi
	movq	$17, %rsi
	callq	gen_rtx_REG
	movq	const_int_rtx+512(%rip), %rcx
	movq	$111, %rdi
	movq	$4, %rsi
	movq	%rax, %rdx
	callq	gen_rtx_fmt_ee
	movq	$75, %rdi
	movq	$4, %rsi
	movq	%rax, %rdx
	movq	%rbx, %rcx
	callq	gen_rtx_fmt_ee
	movq	$76, %rdi
	movq	$4, %rsi
	movq	%r15, %rdx
	movq	%rax, %rcx
	callq	gen_rtx_fmt_ee
	movq	$121, %rdi
	movq	$5, %rsi
	movq	%rax, %rdx
	callq	gen_rtx_fmt_e
	movq	$47, %rdi
	xorq	%rsi, %rsi
	movq	%r14, %rdx
	movq	%rax, %rcx
	callq	gen_rtx_fmt_ee
	movq	%rax, %rbx
	movq	$52, %rdi
	movq	$17, %rsi
	callq	gen_rtx_REG
	movq	$49, %rdi
	xorq	%rsi, %rsi
	movq	%rax, %rdx
	callq	gen_rtx_fmt_e
	movq	%rax, %rcx
	movq	$2, %rdi
	xorq	%rax, %rax
	movq	%rbx, %rsi
	movq	%rcx, %rdx
	callq	gen_rtvec
	movq	$39, %rdi
	xorq	%rsi, %rsi
	movq	%rax, %rdx
	popq	%rbx
	popq	%r14
	popq	%r15
	jmp	gen_rtx_fmt_E  # TAILCALL
.Ltmp424:
	.size	gen_subsi3_carry_zext, .Ltmp424-gen_subsi3_carry_zext
	.cfi_endproc

	.globl	gen_divqi3
	.align	16, 0x90
	.type	gen_divqi3,@function
gen_divqi3:                             # @gen_divqi3
	.cfi_startproc
# BB#0:                                 # %entry
	pushq	%rbx
.Ltmp427:
	.cfi_def_cfa_offset 16
.Ltmp428:
	.cfi_offset %rbx, -16
	movq	%rdx, %rax
	movq	%rsi, %rcx
	movq	%rdi, %rbx
	movq	$79, %rdi
	movq	$2, %rsi
	movq	%rcx, %rdx
	movq	%rax, %rcx
	callq	gen_rtx_fmt_ee
	movq	$47, %rdi
	xorq	%rsi, %rsi
	movq	%rbx, %rdx
	movq	%rax, %rcx
	callq	gen_rtx_fmt_ee
	movq	%rax, %rbx
	movq	$52, %rdi
	movq	$17, %rsi
	callq	gen_rtx_REG
	movq	$49, %rdi
	xorq	%rsi, %rsi
	movq	%rax, %rdx
	callq	gen_rtx_fmt_e
	movq	%rax, %rcx
	movq	$2, %rdi
	xorq	%rax, %rax
	movq	%rbx, %rsi
	movq	%rcx, %rdx
	callq	gen_rtvec
	movq	$39, %rdi
	xorq	%rsi, %rsi
	movq	%rax, %rdx
	popq	%rbx
	jmp	gen_rtx_fmt_E  # TAILCALL
.Ltmp429:
	.size	gen_divqi3, .Ltmp429-gen_divqi3
	.cfi_endproc

	.globl	gen_udivqi3
	.align	16, 0x90
	.type	gen_udivqi3,@function
gen_udivqi3:                            # @gen_udivqi3
	.cfi_startproc
# BB#0:                                 # %entry
	pushq	%rbx
.Ltmp432:
	.cfi_def_cfa_offset 16
.Ltmp433:
	.cfi_offset %rbx, -16
	movq	%rdx, %rax
	movq	%rsi, %rcx
	movq	%rdi, %rbx
	movq	$81, %rdi
	movq	$2, %rsi
	movq	%rcx, %rdx
	movq	%rax, %rcx
	callq	gen_rtx_fmt_ee
	movq	$47, %rdi
	xorq	%rsi, %rsi
	movq	%rbx, %rdx
	movq	%rax, %rcx
	callq	gen_rtx_fmt_ee
	movq	%rax, %rbx
	movq	$52, %rdi
	movq	$17, %rsi
	callq	gen_rtx_REG
	movq	$49, %rdi
	xorq	%rsi, %rsi
	movq	%rax, %rdx
	callq	gen_rtx_fmt_e
	movq	%rax, %rcx
	movq	$2, %rdi
	xorq	%rax, %rax
	movq	%rbx, %rsi
	movq	%rcx, %rdx
	callq	gen_rtvec
	movq	$39, %rdi
	xorq	%rsi, %rsi
	movq	%rax, %rdx
	popq	%rbx
	jmp	gen_rtx_fmt_E  # TAILCALL
.Ltmp434:
	.size	gen_udivqi3, .Ltmp434-gen_udivqi3
	.cfi_endproc

	.globl	gen_divmodhi4
	.align	16, 0x90
	.type	gen_divmodhi4,@function
gen_divmodhi4:                          # @gen_divmodhi4
	.cfi_startproc
# BB#0:                                 # %entry
	pushq	%r15
.Ltmp440:
	.cfi_def_cfa_offset 16
	pushq	%r14
.Ltmp441:
	.cfi_def_cfa_offset 24
	pushq	%r12
.Ltmp442:
	.cfi_def_cfa_offset 32
	pushq	%rbx
.Ltmp443:
	.cfi_def_cfa_offset 40
	pushq	%rax
.Ltmp444:
	.cfi_def_cfa_offset 48
.Ltmp445:
	.cfi_offset %rbx, -40
.Ltmp446:
	.cfi_offset %r12, -32
.Ltmp447:
	.cfi_offset %r14, -24
.Ltmp448:
	.cfi_offset %r15, -16
	movq	%rcx, %r15
	movq	%rdx, %r12
	movq	%rsi, %rbx
	movq	%rdi, %r14
	movq	$79, %rdi
	movq	$3, %rsi
	movq	%rbx, %rdx
	movq	%r12, %rcx
	callq	gen_rtx_fmt_ee
	movq	$47, %rdi
	xorq	%rsi, %rsi
	movq	%r14, %rdx
	movq	%rax, %rcx
	callq	gen_rtx_fmt_ee
	movq	%rax, %r14
	movq	$80, %rdi
	movq	$3, %rsi
	movq	%rbx, %rdx
	movq	%r12, %rcx
	callq	gen_rtx_fmt_ee
	movq	$47, %rdi
	xorq	%rsi, %rsi
	movq	%r15, %rdx
	movq	%rax, %rcx
	callq	gen_rtx_fmt_ee
	movq	%rax, %rbx
	movq	$52, %rdi
	movq	$17, %rsi
	callq	gen_rtx_REG
	movq	$49, %rdi
	xorq	%rsi, %rsi
	movq	%rax, %rdx
	callq	gen_rtx_fmt_e
	movq	%rax, %rcx
	movq	$3, %rdi
	xorq	%rax, %rax
	movq	%r14, %rsi
	movq	%rbx, %rdx
	callq	gen_rtvec
	movq	$39, %rdi
	xorq	%rsi, %rsi
	movq	%rax, %rdx
	addq	$8, %rsp
	popq	%rbx
	popq	%r12
	popq	%r14
	popq	%r15
	jmp	gen_rtx_fmt_E  # TAILCALL
.Ltmp449:
	.size	gen_divmodhi4, .Ltmp449-gen_divmodhi4
	.cfi_endproc

	.globl	gen_udivmoddi4
	.align	16, 0x90
	.type	gen_udivmoddi4,@function
gen_udivmoddi4:                         # @gen_udivmoddi4
	.cfi_startproc
# BB#0:                                 # %entry
	pushq	%r15
.Ltmp455:
	.cfi_def_cfa_offset 16
	pushq	%r14
.Ltmp456:
	.cfi_def_cfa_offset 24
	pushq	%r12
.Ltmp457:
	.cfi_def_cfa_offset 32
	pushq	%rbx
.Ltmp458:
	.cfi_def_cfa_offset 40
	pushq	%rax
.Ltmp459:
	.cfi_def_cfa_offset 48
.Ltmp460:
	.cfi_offset %rbx, -40
.Ltmp461:
	.cfi_offset %r12, -32
.Ltmp462:
	.cfi_offset %r14, -24
.Ltmp463:
	.cfi_offset %r15, -16
	movq	%rcx, %r15
	movq	%rdx, %r12
	movq	%rsi, %rbx
	movq	%rdi, %r14
	movq	$81, %rdi
	movq	$5, %rsi
	movq	%rbx, %rdx
	movq	%r12, %rcx
	callq	gen_rtx_fmt_ee
	movq	$47, %rdi
	xorq	%rsi, %rsi
	movq	%r14, %rdx
	movq	%rax, %rcx
	callq	gen_rtx_fmt_ee
	movq	%rax, %r14
	movq	$82, %rdi
	movq	$5, %rsi
	movq	%rbx, %rdx
	movq	%r12, %rcx
	callq	gen_rtx_fmt_ee
	movq	$47, %rdi
	xorq	%rsi, %rsi
	movq	%r15, %rdx
	movq	%rax, %rcx
	callq	gen_rtx_fmt_ee
	movq	%rax, %rbx
	movq	$52, %rdi
	movq	$17, %rsi
	callq	gen_rtx_REG
	movq	$49, %rdi
	xorq	%rsi, %rsi
	movq	%rax, %rdx
	callq	gen_rtx_fmt_e
	movq	%rax, %rcx
	movq	$3, %rdi
	xorq	%rax, %rax
	movq	%r14, %rsi
	movq	%rbx, %rdx
	callq	gen_rtvec
	movq	$39, %rdi
	xorq	%rsi, %rsi
	movq	%rax, %rdx
	addq	$8, %rsp
	popq	%rbx
	popq	%r12
	popq	%r14
	popq	%r15
	jmp	gen_rtx_fmt_E  # TAILCALL
.Ltmp464:
	.size	gen_udivmoddi4, .Ltmp464-gen_udivmoddi4
	.cfi_endproc

	.globl	gen_udivmodsi4
	.align	16, 0x90
	.type	gen_udivmodsi4,@function
gen_udivmodsi4:                         # @gen_udivmodsi4
	.cfi_startproc
# BB#0:                                 # %entry
	pushq	%r15
.Ltmp470:
	.cfi_def_cfa_offset 16
	pushq	%r14
.Ltmp471:
	.cfi_def_cfa_offset 24
	pushq	%r12
.Ltmp472:
	.cfi_def_cfa_offset 32
	pushq	%rbx
.Ltmp473:
	.cfi_def_cfa_offset 40
	pushq	%rax
.Ltmp474:
	.cfi_def_cfa_offset 48
.Ltmp475:
	.cfi_offset %rbx, -40
.Ltmp476:
	.cfi_offset %r12, -32
.Ltmp477:
	.cfi_offset %r14, -24
.Ltmp478:
	.cfi_offset %r15, -16
	movq	%rcx, %r15
	movq	%rdx, %r12
	movq	%rsi, %rbx
	movq	%rdi, %r14
	movq	$81, %rdi
	movq	$4, %rsi
	movq	%rbx, %rdx
	movq	%r12, %rcx
	callq	gen_rtx_fmt_ee
	movq	$47, %rdi
	xorq	%rsi, %rsi
	movq	%r14, %rdx
	movq	%rax, %rcx
	callq	gen_rtx_fmt_ee
	movq	%rax, %r14
	movq	$82, %rdi
	movq	$4, %rsi
	movq	%rbx, %rdx
	movq	%r12, %rcx
	callq	gen_rtx_fmt_ee
	movq	$47, %rdi
	xorq	%rsi, %rsi
	movq	%r15, %rdx
	movq	%rax, %rcx
	callq	gen_rtx_fmt_ee
	movq	%rax, %rbx
	movq	$52, %rdi
	movq	$17, %rsi
	callq	gen_rtx_REG
	movq	$49, %rdi
	xorq	%rsi, %rsi
	movq	%rax, %rdx
	callq	gen_rtx_fmt_e
	movq	%rax, %rcx
	movq	$3, %rdi
	xorq	%rax, %rax
	movq	%r14, %rsi
	movq	%rbx, %rdx
	callq	gen_rtvec
	movq	$39, %rdi
	xorq	%rsi, %rsi
	movq	%rax, %rdx
	addq	$8, %rsp
	popq	%rbx
	popq	%r12
	popq	%r14
	popq	%r15
	jmp	gen_rtx_fmt_E  # TAILCALL
.Ltmp479:
	.size	gen_udivmodsi4, .Ltmp479-gen_udivmodsi4
	.cfi_endproc

	.globl	gen_testsi_1
	.align	16, 0x90
	.type	gen_testsi_1,@function
gen_testsi_1:                           # @gen_testsi_1
	.cfi_startproc
# BB#0:                                 # %entry
	pushq	%r15
.Ltmp484:
	.cfi_def_cfa_offset 16
	pushq	%r14
.Ltmp485:
	.cfi_def_cfa_offset 24
	pushq	%rbx
.Ltmp486:
	.cfi_def_cfa_offset 32
.Ltmp487:
	.cfi_offset %rbx, -32
.Ltmp488:
	.cfi_offset %r14, -24
.Ltmp489:
	.cfi_offset %r15, -16
	movq	%rsi, %r14
	movq	%rdi, %rbx
	xorq	%rdi, %rdi
	movq	$17, %rsi
	callq	gen_rtx_REG
	movq	%rax, %r15
	movq	$83, %rdi
	movq	$4, %rsi
	movq	%rbx, %rdx
	movq	%r14, %rcx
	callq	gen_rtx_fmt_ee
	movq	const_int_rtx+512(%rip), %rcx
	movq	$74, %rdi
	xorq	%rsi, %rsi
	movq	%rax, %rdx
	callq	gen_rtx_fmt_ee
	movq	$47, %rdi
	xorq	%rsi, %rsi
	movq	%r15, %rdx
	movq	%rax, %rcx
	popq	%rbx
	popq	%r14
	popq	%r15
	jmp	gen_rtx_fmt_ee  # TAILCALL
.Ltmp490:
	.size	gen_testsi_1, .Ltmp490-gen_testsi_1
	.cfi_endproc

	.globl	gen_andqi_ext_0
	.align	16, 0x90
	.type	gen_andqi_ext_0,@function
gen_andqi_ext_0:                        # @gen_andqi_ext_0
	.cfi_startproc
# BB#0:                                 # %entry
	pushq	%r15
.Ltmp496:
	.cfi_def_cfa_offset 16
	pushq	%r14
.Ltmp497:
	.cfi_def_cfa_offset 24
	pushq	%r12
.Ltmp498:
	.cfi_def_cfa_offset 32
	pushq	%rbx
.Ltmp499:
	.cfi_def_cfa_offset 40
	pushq	%rax
.Ltmp500:
	.cfi_def_cfa_offset 48
.Ltmp501:
	.cfi_offset %rbx, -40
.Ltmp502:
	.cfi_offset %r12, -32
.Ltmp503:
	.cfi_offset %r14, -24
.Ltmp504:
	.cfi_offset %r15, -16
	movq	%rdx, %r14
	movq	%rsi, %r15
	movq	%rdi, %r12
	xorq	%rdi, %rdi
	movq	$8, %rsi
	callq	gen_rtx_CONST_INT
	movq	%rax, %rbx
	xorq	%rdi, %rdi
	movq	$8, %rsi
	callq	gen_rtx_CONST_INT
	movq	$133, %rdi
	movq	$4, %rsi
	movq	%r12, %rdx
	movq	%rbx, %rcx
	movq	%rax, %r8
	callq	gen_rtx_fmt_eee
	movq	%rax, %r12
	xorq	%rdi, %rdi
	movq	$8, %rsi
	callq	gen_rtx_CONST_INT
	movq	%rax, %rbx
	xorq	%rdi, %rdi
	movq	$8, %rsi
	callq	gen_rtx_CONST_INT
	movq	$133, %rdi
	movq	$4, %rsi
	movq	%r15, %rdx
	movq	%rbx, %rcx
	movq	%rax, %r8
	callq	gen_rtx_fmt_eee
	movq	$83, %rdi
	movq	$4, %rsi
	movq	%rax, %rdx
	movq	%r14, %rcx
	callq	gen_rtx_fmt_ee
	movq	$47, %rdi
	xorq	%rsi, %rsi
	movq	%r12, %rdx
	movq	%rax, %rcx
	callq	gen_rtx_fmt_ee
	movq	%rax, %rbx
	movq	$52, %rdi
	movq	$17, %rsi
	callq	gen_rtx_REG
	movq	$49, %rdi
	xorq	%rsi, %rsi
	movq	%rax, %rdx
	callq	gen_rtx_fmt_e
	movq	%rax, %rcx
	movq	$2, %rdi
	xorq	%rax, %rax
	movq	%rbx, %rsi
	movq	%rcx, %rdx
	callq	gen_rtvec
	movq	$39, %rdi
	xorq	%rsi, %rsi
	movq	%rax, %rdx
	addq	$8, %rsp
	popq	%rbx
	popq	%r12
	popq	%r14
	popq	%r15
	jmp	gen_rtx_fmt_E  # TAILCALL
.Ltmp505:
	.size	gen_andqi_ext_0, .Ltmp505-gen_andqi_ext_0
	.cfi_endproc

	.globl	gen_negsf2_memory
	.align	16, 0x90
	.type	gen_negsf2_memory,@function
gen_negsf2_memory:                      # @gen_negsf2_memory
	.cfi_startproc
# BB#0:                                 # %entry
	pushq	%rbx
.Ltmp508:
	.cfi_def_cfa_offset 16
.Ltmp509:
	.cfi_offset %rbx, -16
	movq	%rsi, %rax
	movq	%rdi, %rbx
	movq	$77, %rdi
	movq	$15, %rsi
	movq	%rax, %rdx
	callq	gen_rtx_fmt_e
	movq	$47, %rdi
	xorq	%rsi, %rsi
	movq	%rbx, %rdx
	movq	%rax, %rcx
	callq	gen_rtx_fmt_ee
	movq	%rax, %rbx
	movq	$52, %rdi
	movq	$17, %rsi
	callq	gen_rtx_REG
	movq	$49, %rdi
	xorq	%rsi, %rsi
	movq	%rax, %rdx
	callq	gen_rtx_fmt_e
	movq	%rax, %rcx
	movq	$2, %rdi
	xorq	%rax, %rax
	movq	%rbx, %rsi
	movq	%rcx, %rdx
	callq	gen_rtvec
	movq	$39, %rdi
	xorq	%rsi, %rsi
	movq	%rax, %rdx
	popq	%rbx
	jmp	gen_rtx_fmt_E  # TAILCALL
.Ltmp510:
	.size	gen_negsf2_memory, .Ltmp510-gen_negsf2_memory
	.cfi_endproc

	.globl	gen_negsf2_ifs
	.align	16, 0x90
	.type	gen_negsf2_ifs,@function
gen_negsf2_ifs:                         # @gen_negsf2_ifs
	.cfi_startproc
# BB#0:                                 # %entry
	pushq	%r15
.Ltmp515:
	.cfi_def_cfa_offset 16
	pushq	%r14
.Ltmp516:
	.cfi_def_cfa_offset 24
	pushq	%rbx
.Ltmp517:
	.cfi_def_cfa_offset 32
.Ltmp518:
	.cfi_offset %rbx, -32
.Ltmp519:
	.cfi_offset %r14, -24
.Ltmp520:
	.cfi_offset %r15, -16
	movq	%rdx, %r14
	movq	%rsi, %rax
	movq	%rdi, %rbx
	movq	$77, %rdi
	movq	$15, %rsi
	movq	%rax, %rdx
	callq	gen_rtx_fmt_e
	movq	$47, %rdi
	xorq	%rsi, %rsi
	movq	%rbx, %rdx
	movq	%rax, %rcx
	callq	gen_rtx_fmt_ee
	movq	%rax, %r15
	movq	$48, %rdi
	xorq	%rsi, %rsi
	movq	%r14, %rdx
	callq	gen_rtx_fmt_e
	movq	%rax, %rbx
	movq	$52, %rdi
	movq	$17, %rsi
	callq	gen_rtx_REG
	movq	$49, %rdi
	xorq	%rsi, %rsi
	movq	%rax, %rdx
	callq	gen_rtx_fmt_e
	movq	%rax, %rcx
	movq	$3, %rdi
	xorq	%rax, %rax
	movq	%r15, %rsi
	movq	%rbx, %rdx
	callq	gen_rtvec
	movq	$39, %rdi
	xorq	%rsi, %rsi
	movq	%rax, %rdx
	popq	%rbx
	popq	%r14
	popq	%r15
	jmp	gen_rtx_fmt_E  # TAILCALL
.Ltmp521:
	.size	gen_negsf2_ifs, .Ltmp521-gen_negsf2_ifs
	.cfi_endproc

	.globl	gen_negdf2_memory
	.align	16, 0x90
	.type	gen_negdf2_memory,@function
gen_negdf2_memory:                      # @gen_negdf2_memory
	.cfi_startproc
# BB#0:                                 # %entry
	pushq	%rbx
.Ltmp524:
	.cfi_def_cfa_offset 16
.Ltmp525:
	.cfi_offset %rbx, -16
	movq	%rsi, %rax
	movq	%rdi, %rbx
	movq	$77, %rdi
	movq	$16, %rsi
	movq	%rax, %rdx
	callq	gen_rtx_fmt_e
	movq	$47, %rdi
	xorq	%rsi, %rsi
	movq	%rbx, %rdx
	movq	%rax, %rcx
	callq	gen_rtx_fmt_ee
	movq	%rax, %rbx
	movq	$52, %rdi
	movq	$17, %rsi
	callq	gen_rtx_REG
	movq	$49, %rdi
	xorq	%rsi, %rsi
	movq	%rax, %rdx
	callq	gen_rtx_fmt_e
	movq	%rax, %rcx
	movq	$2, %rdi
	xorq	%rax, %rax
	movq	%rbx, %rsi
	movq	%rcx, %rdx
	callq	gen_rtvec
	movq	$39, %rdi
	xorq	%rsi, %rsi
	movq	%rax, %rdx
	popq	%rbx
	jmp	gen_rtx_fmt_E  # TAILCALL
.Ltmp526:
	.size	gen_negdf2_memory, .Ltmp526-gen_negdf2_memory
	.cfi_endproc

	.globl	gen_negdf2_ifs
	.align	16, 0x90
	.type	gen_negdf2_ifs,@function
gen_negdf2_ifs:                         # @gen_negdf2_ifs
	.cfi_startproc
# BB#0:                                 # %entry
	pushq	%r15
.Ltmp531:
	.cfi_def_cfa_offset 16
	pushq	%r14
.Ltmp532:
	.cfi_def_cfa_offset 24
	pushq	%rbx
.Ltmp533:
	.cfi_def_cfa_offset 32
.Ltmp534:
	.cfi_offset %rbx, -32
.Ltmp535:
	.cfi_offset %r14, -24
.Ltmp536:
	.cfi_offset %r15, -16
	movq	%rdx, %r14
	movq	%rsi, %rax
	movq	%rdi, %rbx
	movq	$77, %rdi
	movq	$16, %rsi
	movq	%rax, %rdx
	callq	gen_rtx_fmt_e
	movq	$47, %rdi
	xorq	%rsi, %rsi
	movq	%rbx, %rdx
	movq	%rax, %rcx
	callq	gen_rtx_fmt_ee
	movq	%rax, %r15
	movq	$48, %rdi
	xorq	%rsi, %rsi
	movq	%r14, %rdx
	callq	gen_rtx_fmt_e
	movq	%rax, %rbx
	movq	$52, %rdi
	movq	$17, %rsi
	callq	gen_rtx_REG
	movq	$49, %rdi
	xorq	%rsi, %rsi
	movq	%rax, %rdx
	callq	gen_rtx_fmt_e
	movq	%rax, %rcx
	movq	$3, %rdi
	xorq	%rax, %rax
	movq	%r15, %rsi
	movq	%rbx, %rdx
	callq	gen_rtvec
	movq	$39, %rdi
	xorq	%rsi, %rsi
	movq	%rax, %rdx
	popq	%rbx
	popq	%r14
	popq	%r15
	jmp	gen_rtx_fmt_E  # TAILCALL
.Ltmp537:
	.size	gen_negdf2_ifs, .Ltmp537-gen_negdf2_ifs
	.cfi_endproc

	.globl	gen_abssf2_memory
	.align	16, 0x90
	.type	gen_abssf2_memory,@function
gen_abssf2_memory:                      # @gen_abssf2_memory
	.cfi_startproc
# BB#0:                                 # %entry
	pushq	%rbx
.Ltmp540:
	.cfi_def_cfa_offset 16
.Ltmp541:
	.cfi_offset %rbx, -16
	movq	%rsi, %rax
	movq	%rdi, %rbx
	movq	$129, %rdi
	movq	$15, %rsi
	movq	%rax, %rdx
	callq	gen_rtx_fmt_e
	movq	$47, %rdi
	xorq	%rsi, %rsi
	movq	%rbx, %rdx
	movq	%rax, %rcx
	callq	gen_rtx_fmt_ee
	movq	%rax, %rbx
	movq	$52, %rdi
	movq	$17, %rsi
	callq	gen_rtx_REG
	movq	$49, %rdi
	xorq	%rsi, %rsi
	movq	%rax, %rdx
	callq	gen_rtx_fmt_e
	movq	%rax, %rcx
	movq	$2, %rdi
	xorq	%rax, %rax
	movq	%rbx, %rsi
	movq	%rcx, %rdx
	callq	gen_rtvec
	movq	$39, %rdi
	xorq	%rsi, %rsi
	movq	%rax, %rdx
	popq	%rbx
	jmp	gen_rtx_fmt_E  # TAILCALL
.Ltmp542:
	.size	gen_abssf2_memory, .Ltmp542-gen_abssf2_memory
	.cfi_endproc

	.globl	gen_abssf2_ifs
	.align	16, 0x90
	.type	gen_abssf2_ifs,@function
gen_abssf2_ifs:                         # @gen_abssf2_ifs
	.cfi_startproc
# BB#0:                                 # %entry
	pushq	%r15
.Ltmp547:
	.cfi_def_cfa_offset 16
	pushq	%r14
.Ltmp548:
	.cfi_def_cfa_offset 24
	pushq	%rbx
.Ltmp549:
	.cfi_def_cfa_offset 32
.Ltmp550:
	.cfi_offset %rbx, -32
.Ltmp551:
	.cfi_offset %r14, -24
.Ltmp552:
	.cfi_offset %r15, -16
	movq	%rdx, %r14
	movq	%rsi, %rax
	movq	%rdi, %rbx
	movq	$129, %rdi
	movq	$15, %rsi
	movq	%rax, %rdx
	callq	gen_rtx_fmt_e
	movq	$47, %rdi
	xorq	%rsi, %rsi
	movq	%rbx, %rdx
	movq	%rax, %rcx
	callq	gen_rtx_fmt_ee
	movq	%rax, %r15
	movq	$48, %rdi
	xorq	%rsi, %rsi
	movq	%r14, %rdx
	callq	gen_rtx_fmt_e
	movq	%rax, %rbx
	movq	$52, %rdi
	movq	$17, %rsi
	callq	gen_rtx_REG
	movq	$49, %rdi
	xorq	%rsi, %rsi
	movq	%rax, %rdx
	callq	gen_rtx_fmt_e
	movq	%rax, %rcx
	movq	$3, %rdi
	xorq	%rax, %rax
	movq	%r15, %rsi
	movq	%rbx, %rdx
	callq	gen_rtvec
	movq	$39, %rdi
	xorq	%rsi, %rsi
	movq	%rax, %rdx
	popq	%rbx
	popq	%r14
	popq	%r15
	jmp	gen_rtx_fmt_E  # TAILCALL
.Ltmp553:
	.size	gen_abssf2_ifs, .Ltmp553-gen_abssf2_ifs
	.cfi_endproc

	.globl	gen_absdf2_memory
	.align	16, 0x90
	.type	gen_absdf2_memory,@function
gen_absdf2_memory:                      # @gen_absdf2_memory
	.cfi_startproc
# BB#0:                                 # %entry
	pushq	%rbx
.Ltmp556:
	.cfi_def_cfa_offset 16
.Ltmp557:
	.cfi_offset %rbx, -16
	movq	%rsi, %rax
	movq	%rdi, %rbx
	movq	$129, %rdi
	movq	$16, %rsi
	movq	%rax, %rdx
	callq	gen_rtx_fmt_e
	movq	$47, %rdi
	xorq	%rsi, %rsi
	movq	%rbx, %rdx
	movq	%rax, %rcx
	callq	gen_rtx_fmt_ee
	movq	%rax, %rbx
	movq	$52, %rdi
	movq	$17, %rsi
	callq	gen_rtx_REG
	movq	$49, %rdi
	xorq	%rsi, %rsi
	movq	%rax, %rdx
	callq	gen_rtx_fmt_e
	movq	%rax, %rcx
	movq	$2, %rdi
	xorq	%rax, %rax
	movq	%rbx, %rsi
	movq	%rcx, %rdx
	callq	gen_rtvec
	movq	$39, %rdi
	xorq	%rsi, %rsi
	movq	%rax, %rdx
	popq	%rbx
	jmp	gen_rtx_fmt_E  # TAILCALL
.Ltmp558:
	.size	gen_absdf2_memory, .Ltmp558-gen_absdf2_memory
	.cfi_endproc

	.globl	gen_absdf2_ifs
	.align	16, 0x90
	.type	gen_absdf2_ifs,@function
gen_absdf2_ifs:                         # @gen_absdf2_ifs
	.cfi_startproc
# BB#0:                                 # %entry
	pushq	%r15
.Ltmp563:
	.cfi_def_cfa_offset 16
	pushq	%r14
.Ltmp564:
	.cfi_def_cfa_offset 24
	pushq	%rbx
.Ltmp565:
	.cfi_def_cfa_offset 32
.Ltmp566:
	.cfi_offset %rbx, -32
.Ltmp567:
	.cfi_offset %r14, -24
.Ltmp568:
	.cfi_offset %r15, -16
	movq	%rdx, %r14
	movq	%rsi, %rax
	movq	%rdi, %rbx
	movq	$129, %rdi
	movq	$16, %rsi
	movq	%rax, %rdx
	callq	gen_rtx_fmt_e
	movq	$47, %rdi
	xorq	%rsi, %rsi
	movq	%rbx, %rdx
	movq	%rax, %rcx
	callq	gen_rtx_fmt_ee
	movq	%rax, %r15
	movq	$48, %rdi
	xorq	%rsi, %rsi
	movq	%r14, %rdx
	callq	gen_rtx_fmt_e
	movq	%rax, %rbx
	movq	$52, %rdi
	movq	$17, %rsi
	callq	gen_rtx_REG
	movq	$49, %rdi
	xorq	%rsi, %rsi
	movq	%rax, %rdx
	callq	gen_rtx_fmt_e
	movq	%rax, %rcx
	movq	$3, %rdi
	xorq	%rax, %rax
	movq	%r15, %rsi
	movq	%rbx, %rdx
	callq	gen_rtvec
	movq	$39, %rdi
	xorq	%rsi, %rsi
	movq	%rax, %rdx
	popq	%rbx
	popq	%r14
	popq	%r15
	jmp	gen_rtx_fmt_E  # TAILCALL
.Ltmp569:
	.size	gen_absdf2_ifs, .Ltmp569-gen_absdf2_ifs
	.cfi_endproc

	.globl	gen_ashldi3_1
	.align	16, 0x90
	.type	gen_ashldi3_1,@function
gen_ashldi3_1:                          # @gen_ashldi3_1
	.cfi_startproc
# BB#0:                                 # %entry
	pushq	%r14
.Ltmp573:
	.cfi_def_cfa_offset 16
	pushq	%rbx
.Ltmp574:
	.cfi_def_cfa_offset 24
	pushq	%rax
.Ltmp575:
	.cfi_def_cfa_offset 32
.Ltmp576:
	.cfi_offset %rbx, -24
.Ltmp577:
	.cfi_offset %r14, -16
	movq	%rdx, %rax
	movq	%rsi, %rcx
	movq	%rdi, %rbx
	movq	$87, %rdi
	movq	$5, %rsi
	movq	%rcx, %rdx
	movq	%rax, %rcx
	callq	gen_rtx_fmt_ee
	movq	$47, %rdi
	xorq	%rsi, %rsi
	movq	%rbx, %rdx
	movq	%rax, %rcx
	callq	gen_rtx_fmt_ee
	movq	%rax, %r14
	movq	$62, %rdi
	movq	$4, %rsi
	callq	gen_rtx_fmt_0
	movq	$49, %rdi
	xorq	%rsi, %rsi
	movq	%rax, %rdx
	callq	gen_rtx_fmt_e
	movq	%rax, %rbx
	movq	$52, %rdi
	movq	$17, %rsi
	callq	gen_rtx_REG
	movq	$49, %rdi
	xorq	%rsi, %rsi
	movq	%rax, %rdx
	callq	gen_rtx_fmt_e
	movq	%rax, %rcx
	movq	$3, %rdi
	xorq	%rax, %rax
	movq	%r14, %rsi
	movq	%rbx, %rdx
	callq	gen_rtvec
	movq	$39, %rdi
	xorq	%rsi, %rsi
	movq	%rax, %rdx
	addq	$8, %rsp
	popq	%rbx
	popq	%r14
	jmp	gen_rtx_fmt_E  # TAILCALL
.Ltmp578:
	.size	gen_ashldi3_1, .Ltmp578-gen_ashldi3_1
	.cfi_endproc

	.globl	gen_x86_shld_1
	.align	16, 0x90
	.type	gen_x86_shld_1,@function
gen_x86_shld_1:                         # @gen_x86_shld_1
	.cfi_startproc
# BB#0:                                 # %entry
	pushq	%r15
.Ltmp584:
	.cfi_def_cfa_offset 16
	pushq	%r14
.Ltmp585:
	.cfi_def_cfa_offset 24
	pushq	%r12
.Ltmp586:
	.cfi_def_cfa_offset 32
	pushq	%rbx
.Ltmp587:
	.cfi_def_cfa_offset 40
	pushq	%rax
.Ltmp588:
	.cfi_def_cfa_offset 48
.Ltmp589:
	.cfi_offset %rbx, -40
.Ltmp590:
	.cfi_offset %r12, -32
.Ltmp591:
	.cfi_offset %r14, -24
.Ltmp592:
	.cfi_offset %r15, -16
	movq	%rdx, %rbx
	movq	%rsi, %r15
	movq	%rdi, %r14
	movq	$87, %rdi
	movq	$4, %rsi
	movq	%r14, %rdx
	movq	%rbx, %rcx
	callq	gen_rtx_fmt_ee
	movq	%rax, %r12
	xorq	%rdi, %rdi
	movq	$32, %rsi
	callq	gen_rtx_CONST_INT
	movq	$76, %rdi
	movq	$2, %rsi
	movq	%rax, %rdx
	movq	%rbx, %rcx
	callq	gen_rtx_fmt_ee
	movq	$90, %rdi
	movq	$4, %rsi
	movq	%r15, %rdx
	movq	%rax, %rcx
	callq	gen_rtx_fmt_ee
	movq	$84, %rdi
	movq	$4, %rsi
	movq	%r12, %rdx
	movq	%rax, %rcx
	callq	gen_rtx_fmt_ee
	movq	$47, %rdi
	xorq	%rsi, %rsi
	movq	%r14, %rdx
	movq	%rax, %rcx
	callq	gen_rtx_fmt_ee
	movq	%rax, %rbx
	movq	$52, %rdi
	movq	$17, %rsi
	callq	gen_rtx_REG
	movq	$49, %rdi
	xorq	%rsi, %rsi
	movq	%rax, %rdx
	callq	gen_rtx_fmt_e
	movq	%rax, %rcx
	movq	$2, %rdi
	xorq	%rax, %rax
	movq	%rbx, %rsi
	movq	%rcx, %rdx
	callq	gen_rtvec
	movq	$39, %rdi
	xorq	%rsi, %rsi
	movq	%rax, %rdx
	addq	$8, %rsp
	popq	%rbx
	popq	%r12
	popq	%r14
	popq	%r15
	jmp	gen_rtx_fmt_E  # TAILCALL
.Ltmp593:
	.size	gen_x86_shld_1, .Ltmp593-gen_x86_shld_1
	.cfi_endproc

	.globl	gen_ashrdi3_63_rex64
	.align	16, 0x90
	.type	gen_ashrdi3_63_rex64,@function
gen_ashrdi3_63_rex64:                   # @gen_ashrdi3_63_rex64
	.cfi_startproc
# BB#0:                                 # %entry
	pushq	%rbx
.Ltmp596:
	.cfi_def_cfa_offset 16
.Ltmp597:
	.cfi_offset %rbx, -16
	movq	%rdx, %rax
	movq	%rsi, %rcx
	movq	%rdi, %rbx
	movq	$89, %rdi
	movq	$5, %rsi
	movq	%rcx, %rdx
	movq	%rax, %rcx
	callq	gen_rtx_fmt_ee
	movq	$47, %rdi
	xorq	%rsi, %rsi
	movq	%rbx, %rdx
	movq	%rax, %rcx
	callq	gen_rtx_fmt_ee
	movq	%rax, %rbx
	movq	$52, %rdi
	movq	$17, %rsi
	callq	gen_rtx_REG
	movq	$49, %rdi
	xorq	%rsi, %rsi
	movq	%rax, %rdx
	callq	gen_rtx_fmt_e
	movq	%rax, %rcx
	movq	$2, %rdi
	xorq	%rax, %rax
	movq	%rbx, %rsi
	movq	%rcx, %rdx
	callq	gen_rtvec
	movq	$39, %rdi
	xorq	%rsi, %rsi
	movq	%rax, %rdx
	popq	%rbx
	jmp	gen_rtx_fmt_E  # TAILCALL
.Ltmp598:
	.size	gen_ashrdi3_63_rex64, .Ltmp598-gen_ashrdi3_63_rex64
	.cfi_endproc

	.globl	gen_ashrdi3_1
	.align	16, 0x90
	.type	gen_ashrdi3_1,@function
gen_ashrdi3_1:                          # @gen_ashrdi3_1
	.cfi_startproc
# BB#0:                                 # %entry
	pushq	%r14
.Ltmp602:
	.cfi_def_cfa_offset 16
	pushq	%rbx
.Ltmp603:
	.cfi_def_cfa_offset 24
	pushq	%rax
.Ltmp604:
	.cfi_def_cfa_offset 32
.Ltmp605:
	.cfi_offset %rbx, -24
.Ltmp606:
	.cfi_offset %r14, -16
	movq	%rdx, %rax
	movq	%rsi, %rcx
	movq	%rdi, %rbx
	movq	$89, %rdi
	movq	$5, %rsi
	movq	%rcx, %rdx
	movq	%rax, %rcx
	callq	gen_rtx_fmt_ee
	movq	$47, %rdi
	xorq	%rsi, %rsi
	movq	%rbx, %rdx
	movq	%rax, %rcx
	callq	gen_rtx_fmt_ee
	movq	%rax, %r14
	movq	$62, %rdi
	movq	$4, %rsi
	callq	gen_rtx_fmt_0
	movq	$49, %rdi
	xorq	%rsi, %rsi
	movq	%rax, %rdx
	callq	gen_rtx_fmt_e
	movq	%rax, %rbx
	movq	$52, %rdi
	movq	$17, %rsi
	callq	gen_rtx_REG
	movq	$49, %rdi
	xorq	%rsi, %rsi
	movq	%rax, %rdx
	callq	gen_rtx_fmt_e
	movq	%rax, %rcx
	movq	$3, %rdi
	xorq	%rax, %rax
	movq	%r14, %rsi
	movq	%rbx, %rdx
	callq	gen_rtvec
	movq	$39, %rdi
	xorq	%rsi, %rsi
	movq	%rax, %rdx
	addq	$8, %rsp
	popq	%rbx
	popq	%r14
	jmp	gen_rtx_fmt_E  # TAILCALL
.Ltmp607:
	.size	gen_ashrdi3_1, .Ltmp607-gen_ashrdi3_1
	.cfi_endproc

	.globl	gen_x86_shrd_1
	.align	16, 0x90
	.type	gen_x86_shrd_1,@function
gen_x86_shrd_1:                         # @gen_x86_shrd_1
	.cfi_startproc
# BB#0:                                 # %entry
	pushq	%r15
.Ltmp613:
	.cfi_def_cfa_offset 16
	pushq	%r14
.Ltmp614:
	.cfi_def_cfa_offset 24
	pushq	%r12
.Ltmp615:
	.cfi_def_cfa_offset 32
	pushq	%rbx
.Ltmp616:
	.cfi_def_cfa_offset 40
	pushq	%rax
.Ltmp617:
	.cfi_def_cfa_offset 48
.Ltmp618:
	.cfi_offset %rbx, -40
.Ltmp619:
	.cfi_offset %r12, -32
.Ltmp620:
	.cfi_offset %r14, -24
.Ltmp621:
	.cfi_offset %r15, -16
	movq	%rdx, %rbx
	movq	%rsi, %r15
	movq	%rdi, %r14
	movq	$89, %rdi
	movq	$4, %rsi
	movq	%r14, %rdx
	movq	%rbx, %rcx
	callq	gen_rtx_fmt_ee
	movq	%rax, %r12
	xorq	%rdi, %rdi
	movq	$32, %rsi
	callq	gen_rtx_CONST_INT
	movq	$76, %rdi
	movq	$2, %rsi
	movq	%rax, %rdx
	movq	%rbx, %rcx
	callq	gen_rtx_fmt_ee
	movq	$87, %rdi
	movq	$4, %rsi
	movq	%r15, %rdx
	movq	%rax, %rcx
	callq	gen_rtx_fmt_ee
	movq	$84, %rdi
	movq	$4, %rsi
	movq	%r12, %rdx
	movq	%rax, %rcx
	callq	gen_rtx_fmt_ee
	movq	$47, %rdi
	xorq	%rsi, %rsi
	movq	%r14, %rdx
	movq	%rax, %rcx
	callq	gen_rtx_fmt_ee
	movq	%rax, %rbx
	movq	$52, %rdi
	movq	$17, %rsi
	callq	gen_rtx_REG
	movq	$49, %rdi
	xorq	%rsi, %rsi
	movq	%rax, %rdx
	callq	gen_rtx_fmt_e
	movq	%rax, %rcx
	movq	$2, %rdi
	xorq	%rax, %rax
	movq	%rbx, %rsi
	movq	%rcx, %rdx
	callq	gen_rtvec
	movq	$39, %rdi
	xorq	%rsi, %rsi
	movq	%rax, %rdx
	addq	$8, %rsp
	popq	%rbx
	popq	%r12
	popq	%r14
	popq	%r15
	jmp	gen_rtx_fmt_E  # TAILCALL
.Ltmp622:
	.size	gen_x86_shrd_1, .Ltmp622-gen_x86_shrd_1
	.cfi_endproc

	.globl	gen_ashrsi3_31
	.align	16, 0x90
	.type	gen_ashrsi3_31,@function
gen_ashrsi3_31:                         # @gen_ashrsi3_31
	.cfi_startproc
# BB#0:                                 # %entry
	pushq	%rbx
.Ltmp625:
	.cfi_def_cfa_offset 16
.Ltmp626:
	.cfi_offset %rbx, -16
	movq	%rdx, %rax
	movq	%rsi, %rcx
	movq	%rdi, %rbx
	movq	$89, %rdi
	movq	$4, %rsi
	movq	%rcx, %rdx
	movq	%rax, %rcx
	callq	gen_rtx_fmt_ee
	movq	$47, %rdi
	xorq	%rsi, %rsi
	movq	%rbx, %rdx
	movq	%rax, %rcx
	callq	gen_rtx_fmt_ee
	movq	%rax, %rbx
	movq	$52, %rdi
	movq	$17, %rsi
	callq	gen_rtx_REG
	movq	$49, %rdi
	xorq	%rsi, %rsi
	movq	%rax, %rdx
	callq	gen_rtx_fmt_e
	movq	%rax, %rcx
	movq	$2, %rdi
	xorq	%rax, %rax
	movq	%rbx, %rsi
	movq	%rcx, %rdx
	callq	gen_rtvec
	movq	$39, %rdi
	xorq	%rsi, %rsi
	movq	%rax, %rdx
	popq	%rbx
	jmp	gen_rtx_fmt_E  # TAILCALL
.Ltmp627:
	.size	gen_ashrsi3_31, .Ltmp627-gen_ashrsi3_31
	.cfi_endproc

	.globl	gen_lshrdi3_1
	.align	16, 0x90
	.type	gen_lshrdi3_1,@function
gen_lshrdi3_1:                          # @gen_lshrdi3_1
	.cfi_startproc
# BB#0:                                 # %entry
	pushq	%r14
.Ltmp631:
	.cfi_def_cfa_offset 16
	pushq	%rbx
.Ltmp632:
	.cfi_def_cfa_offset 24
	pushq	%rax
.Ltmp633:
	.cfi_def_cfa_offset 32
.Ltmp634:
	.cfi_offset %rbx, -24
.Ltmp635:
	.cfi_offset %r14, -16
	movq	%rdx, %rax
	movq	%rsi, %rcx
	movq	%rdi, %rbx
	movq	$90, %rdi
	movq	$5, %rsi
	movq	%rcx, %rdx
	movq	%rax, %rcx
	callq	gen_rtx_fmt_ee
	movq	$47, %rdi
	xorq	%rsi, %rsi
	movq	%rbx, %rdx
	movq	%rax, %rcx
	callq	gen_rtx_fmt_ee
	movq	%rax, %r14
	movq	$62, %rdi
	movq	$4, %rsi
	callq	gen_rtx_fmt_0
	movq	$49, %rdi
	xorq	%rsi, %rsi
	movq	%rax, %rdx
	callq	gen_rtx_fmt_e
	movq	%rax, %rbx
	movq	$52, %rdi
	movq	$17, %rsi
	callq	gen_rtx_REG
	movq	$49, %rdi
	xorq	%rsi, %rsi
	movq	%rax, %rdx
	callq	gen_rtx_fmt_e
	movq	%rax, %rcx
	movq	$3, %rdi
	xorq	%rax, %rax
	movq	%r14, %rsi
	movq	%rbx, %rdx
	callq	gen_rtvec
	movq	$39, %rdi
	xorq	%rsi, %rsi
	movq	%rax, %rdx
	addq	$8, %rsp
	popq	%rbx
	popq	%r14
	jmp	gen_rtx_fmt_E  # TAILCALL
.Ltmp636:
	.size	gen_lshrdi3_1, .Ltmp636-gen_lshrdi3_1
	.cfi_endproc

	.globl	gen_setcc_2
	.align	16, 0x90
	.type	gen_setcc_2,@function
gen_setcc_2:                            # @gen_setcc_2
	.cfi_startproc
# BB#0:                                 # %entry
	pushq	%r14
.Ltmp640:
	.cfi_def_cfa_offset 16
	pushq	%rbx
.Ltmp641:
	.cfi_def_cfa_offset 24
	pushq	%rax
.Ltmp642:
	.cfi_def_cfa_offset 32
.Ltmp643:
	.cfi_offset %rbx, -24
.Ltmp644:
	.cfi_offset %r14, -16
	movq	%rsi, %rbx
	movq	%rdi, %rax
	movq	$64, %rdi
	xorq	%rsi, %rsi
	movq	%rax, %rdx
	callq	gen_rtx_fmt_e
	movzbl	(%rbx), %ebx
	movq	%rax, %r14
	xorq	%rdi, %rdi
	movq	$17, %rsi
	callq	gen_rtx_REG
	movq	const_int_rtx+512(%rip), %rcx
	movq	%rax, %rdx
	movq	$2, %rsi
	xorq	%rax, %rax
	movq	%rbx, %rdi
	callq	gen_rtx
	movq	$47, %rdi
	xorq	%rsi, %rsi
	movq	%r14, %rdx
	movq	%rax, %rcx
	addq	$8, %rsp
	popq	%rbx
	popq	%r14
	jmp	gen_rtx_fmt_ee  # TAILCALL
.Ltmp645:
	.size	gen_setcc_2, .Ltmp645-gen_setcc_2
	.cfi_endproc

	.globl	gen_jump
	.align	16, 0x90
	.type	gen_jump,@function
gen_jump:                               # @gen_jump
	.cfi_startproc
# BB#0:                                 # %entry
	pushq	%rbx
.Ltmp648:
	.cfi_def_cfa_offset 16
.Ltmp649:
	.cfi_offset %rbx, -16
	movq	global_rtl(%rip), %rbx
	movq	%rdi, %rax
	movq	$67, %rdi
	xorq	%rsi, %rsi
	movq	%rax, %rdx
	callq	gen_rtx_fmt_u00
	movq	$47, %rdi
	xorq	%rsi, %rsi
	movq	%rbx, %rdx
	movq	%rax, %rcx
	popq	%rbx
	jmp	gen_rtx_fmt_ee  # TAILCALL
.Ltmp650:
	.size	gen_jump, .Ltmp650-gen_jump
	.cfi_endproc

	.globl	gen_doloop_end_internal
	.align	16, 0x90
	.type	gen_doloop_end_internal,@function
gen_doloop_end_internal:                # @gen_doloop_end_internal
	.cfi_startproc
# BB#0:                                 # %entry
	pushq	%r15
.Ltmp657:
	.cfi_def_cfa_offset 16
	pushq	%r14
.Ltmp658:
	.cfi_def_cfa_offset 24
	pushq	%r13
.Ltmp659:
	.cfi_def_cfa_offset 32
	pushq	%r12
.Ltmp660:
	.cfi_def_cfa_offset 40
	pushq	%rbx
.Ltmp661:
	.cfi_def_cfa_offset 48
.Ltmp662:
	.cfi_offset %rbx, -48
.Ltmp663:
	.cfi_offset %r12, -40
.Ltmp664:
	.cfi_offset %r13, -32
.Ltmp665:
	.cfi_offset %r14, -24
.Ltmp666:
	.cfi_offset %r15, -16
	movq	global_rtl(%rip), %r14
	movq	const_int_rtx+520(%rip), %rcx
	movq	%rdx, %r15
	movq	%rsi, %r12
	movq	%rdi, %rbx
	movq	$102, %rdi
	xorq	%rsi, %rsi
	movq	%r12, %rdx
	callq	gen_rtx_fmt_ee
	movq	%rax, %r13
	movq	$67, %rdi
	xorq	%rsi, %rsi
	movq	%rbx, %rdx
	callq	gen_rtx_fmt_u00
	movq	global_rtl(%rip), %r8
	movq	$72, %rdi
	xorq	%rsi, %rsi
	movq	%r13, %rdx
	movq	%rax, %rcx
	callq	gen_rtx_fmt_eee
	movq	$47, %rdi
	xorq	%rsi, %rsi
	movq	%r14, %rdx
	movq	%rax, %rcx
	callq	gen_rtx_fmt_ee
	movq	const_int_rtx+504(%rip), %rcx
	movq	%rax, %r14
	movq	$75, %rdi
	movq	$4, %rsi
	movq	%r12, %rdx
	callq	gen_rtx_fmt_ee
	movq	$47, %rdi
	xorq	%rsi, %rsi
	movq	%r15, %rdx
	movq	%rax, %rcx
	callq	gen_rtx_fmt_ee
	movq	%rax, %r15
	movq	$62, %rdi
	movq	$4, %rsi
	callq	gen_rtx_fmt_0
	movq	$49, %rdi
	xorq	%rsi, %rsi
	movq	%rax, %rdx
	callq	gen_rtx_fmt_e
	movq	%rax, %r12
	movq	$52, %rdi
	movq	$17, %rsi
	callq	gen_rtx_REG
	movq	$49, %rdi
	xorq	%rsi, %rsi
	movq	%rax, %rdx
	callq	gen_rtx_fmt_e
	movq	%rax, %rbx
	movq	$4, %rdi
	xorq	%rax, %rax
	movq	%r14, %rsi
	movq	%r15, %rdx
	movq	%r12, %rcx
	movq	%rbx, %r8
	callq	gen_rtvec
	movq	$39, %rdi
	xorq	%rsi, %rsi
	movq	%rax, %rdx
	popq	%rbx
	popq	%r12
	popq	%r13
	popq	%r14
	popq	%r15
	jmp	gen_rtx_fmt_E  # TAILCALL
.Ltmp667:
	.size	gen_doloop_end_internal, .Ltmp667-gen_doloop_end_internal
	.cfi_endproc

	.globl	gen_blockage
	.align	16, 0x90
	.type	gen_blockage,@function
gen_blockage:                           # @gen_blockage
	.cfi_startproc
# BB#0:                                 # %entry
	pushq	%rax
.Ltmp669:
	.cfi_def_cfa_offset 16
	movq	const_int_rtx+512(%rip), %rsi
	movq	$1, %rdi
	xorq	%rax, %rax
	callq	gen_rtvec
	movq	$43, %rdi
	xorq	%rsi, %rsi
	xorq	%rcx, %rcx
	movq	%rax, %rdx
	popq	%rax
	jmp	gen_rtx_fmt_Ei  # TAILCALL
.Ltmp670:
	.size	gen_blockage, .Ltmp670-gen_blockage
	.cfi_endproc

	.globl	gen_return_internal
	.align	16, 0x90
	.type	gen_return_internal,@function
gen_return_internal:                    # @gen_return_internal
	.cfi_startproc
# BB#0:                                 # %entry
	movq	$51, %rdi
	xorq	%rsi, %rsi
	jmp	gen_rtx_fmt_  # TAILCALL
.Ltmp671:
	.size	gen_return_internal, .Ltmp671-gen_return_internal
	.cfi_endproc

	.globl	gen_return_pop_internal
	.align	16, 0x90
	.type	gen_return_pop_internal,@function
gen_return_pop_internal:                # @gen_return_pop_internal
	.cfi_startproc
# BB#0:                                 # %entry
	pushq	%r14
.Ltmp675:
	.cfi_def_cfa_offset 16
	pushq	%rbx
.Ltmp676:
	.cfi_def_cfa_offset 24
	pushq	%rax
.Ltmp677:
	.cfi_def_cfa_offset 32
.Ltmp678:
	.cfi_offset %rbx, -24
.Ltmp679:
	.cfi_offset %r14, -16
	movq	%rdi, %rbx
	movq	$51, %rdi
	xorq	%rsi, %rsi
	callq	gen_rtx_fmt_
	movq	%rax, %r14
	movq	$48, %rdi
	xorq	%rsi, %rsi
	movq	%rbx, %rdx
	callq	gen_rtx_fmt_e
	movq	%rax, %rcx
	movq	$2, %rdi
	xorq	%rax, %rax
	movq	%r14, %rsi
	movq	%rcx, %rdx
	callq	gen_rtvec
	movq	$39, %rdi
	xorq	%rsi, %rsi
	movq	%rax, %rdx
	addq	$8, %rsp
	popq	%rbx
	popq	%r14
	jmp	gen_rtx_fmt_E  # TAILCALL
.Ltmp680:
	.size	gen_return_pop_internal, .Ltmp680-gen_return_pop_internal
	.cfi_endproc

	.globl	gen_return_indirect_internal
	.align	16, 0x90
	.type	gen_return_indirect_internal,@function
gen_return_indirect_internal:           # @gen_return_indirect_internal
	.cfi_startproc
# BB#0:                                 # %entry
	pushq	%r14
.Ltmp684:
	.cfi_def_cfa_offset 16
	pushq	%rbx
.Ltmp685:
	.cfi_def_cfa_offset 24
	pushq	%rax
.Ltmp686:
	.cfi_def_cfa_offset 32
.Ltmp687:
	.cfi_offset %rbx, -24
.Ltmp688:
	.cfi_offset %r14, -16
	movq	%rdi, %rbx
	movq	$51, %rdi
	xorq	%rsi, %rsi
	callq	gen_rtx_fmt_
	movq	%rax, %r14
	movq	$48, %rdi
	xorq	%rsi, %rsi
	movq	%rbx, %rdx
	callq	gen_rtx_fmt_e
	movq	%rax, %rcx
	movq	$2, %rdi
	xorq	%rax, %rax
	movq	%r14, %rsi
	movq	%rcx, %rdx
	callq	gen_rtvec
	movq	$39, %rdi
	xorq	%rsi, %rsi
	movq	%rax, %rdx
	addq	$8, %rsp
	popq	%rbx
	popq	%r14
	jmp	gen_rtx_fmt_E  # TAILCALL
.Ltmp689:
	.size	gen_return_indirect_internal, .Ltmp689-gen_return_indirect_internal
	.cfi_endproc

	.globl	gen_nop
	.align	16, 0x90
	.type	gen_nop,@function
gen_nop:                                # @gen_nop
	.cfi_startproc
# BB#0:                                 # %entry
	movq	const_int_rtx+512(%rip), %rax
	retq
.Ltmp690:
	.size	gen_nop, .Ltmp690-gen_nop
	.cfi_endproc

	.globl	gen_prologue_set_got
	.align	16, 0x90
	.type	gen_prologue_set_got,@function
gen_prologue_set_got:                   # @gen_prologue_set_got
	.cfi_startproc
# BB#0:                                 # %entry
	pushq	%r14
.Ltmp694:
	.cfi_def_cfa_offset 16
	pushq	%rbx
.Ltmp695:
	.cfi_def_cfa_offset 24
	pushq	%rax
.Ltmp696:
	.cfi_def_cfa_offset 32
.Ltmp697:
	.cfi_offset %rbx, -24
.Ltmp698:
	.cfi_offset %r14, -16
	movq	global_rtl(%rip), %rax
	movq	%rdx, %rcx
	movq	%rsi, %rbx
	movq	%rdi, %r14
	movq	$76, %rdi
	movq	$4, %rsi
	movq	%rax, %rdx
	callq	gen_rtx_fmt_ee
	movq	$75, %rdi
	movq	$4, %rsi
	movq	%rbx, %rdx
	movq	%rax, %rcx
	callq	gen_rtx_fmt_ee
	movq	$75, %rdi
	movq	$4, %rsi
	movq	%r14, %rdx
	movq	%rax, %rcx
	callq	gen_rtx_fmt_ee
	movq	%rax, %rcx
	movq	$1, %rdi
	xorq	%rax, %rax
	movq	%rcx, %rsi
	callq	gen_rtvec
	movq	$43, %rdi
	movq	$4, %rsi
	movq	$1, %rcx
	movq	%rax, %rdx
	callq	gen_rtx_fmt_Ei
	movq	$47, %rdi
	xorq	%rsi, %rsi
	movq	%r14, %rdx
	movq	%rax, %rcx
	callq	gen_rtx_fmt_ee
	movq	%rax, %rbx
	movq	$52, %rdi
	movq	$17, %rsi
	callq	gen_rtx_REG
	movq	$49, %rdi
	xorq	%rsi, %rsi
	movq	%rax, %rdx
	callq	gen_rtx_fmt_e
	movq	%rax, %rcx
	movq	$2, %rdi
	xorq	%rax, %rax
	movq	%rbx, %rsi
	movq	%rcx, %rdx
	callq	gen_rtvec
	movq	$39, %rdi
	xorq	%rsi, %rsi
	movq	%rax, %rdx
	addq	$8, %rsp
	popq	%rbx
	popq	%r14
	jmp	gen_rtx_fmt_E  # TAILCALL
.Ltmp699:
	.size	gen_prologue_set_got, .Ltmp699-gen_prologue_set_got
	.cfi_endproc

	.globl	gen_prologue_get_pc
	.align	16, 0x90
	.type	gen_prologue_get_pc,@function
gen_prologue_get_pc:                    # @gen_prologue_get_pc
	.cfi_startproc
# BB#0:                                 # %entry
	pushq	%rbx
.Ltmp702:
	.cfi_def_cfa_offset 16
.Ltmp703:
	.cfi_offset %rbx, -16
	movq	global_rtl(%rip), %rdx
	movq	%rsi, %rax
	movq	%rdi, %rbx
	movq	$75, %rdi
	movq	$4, %rsi
	movq	%rax, %rcx
	callq	gen_rtx_fmt_ee
	movq	%rax, %rcx
	movq	$1, %rdi
	xorq	%rax, %rax
	movq	%rcx, %rsi
	callq	gen_rtvec
	movq	$43, %rdi
	movq	$4, %rsi
	movq	$2, %rcx
	movq	%rax, %rdx
	callq	gen_rtx_fmt_Ei
	movq	$47, %rdi
	xorq	%rsi, %rsi
	movq	%rbx, %rdx
	movq	%rax, %rcx
	popq	%rbx
	jmp	gen_rtx_fmt_ee  # TAILCALL
.Ltmp704:
	.size	gen_prologue_get_pc, .Ltmp704-gen_prologue_get_pc
	.cfi_endproc

	.globl	gen_eh_return_si
	.align	16, 0x90
	.type	gen_eh_return_si,@function
gen_eh_return_si:                       # @gen_eh_return_si
	.cfi_startproc
# BB#0:                                 # %entry
	pushq	%rax
.Ltmp706:
	.cfi_def_cfa_offset 16
	movq	%rdi, %rcx
	movq	$1, %rdi
	xorq	%rax, %rax
	movq	%rcx, %rsi
	callq	gen_rtvec
	movq	$43, %rdi
	xorq	%rsi, %rsi
	movq	$13, %rcx
	movq	%rax, %rdx
	popq	%rax
	jmp	gen_rtx_fmt_Ei  # TAILCALL
.Ltmp707:
	.size	gen_eh_return_si, .Ltmp707-gen_eh_return_si
	.cfi_endproc

	.globl	gen_eh_return_di
	.align	16, 0x90
	.type	gen_eh_return_di,@function
gen_eh_return_di:                       # @gen_eh_return_di
	.cfi_startproc
# BB#0:                                 # %entry
	pushq	%rax
.Ltmp709:
	.cfi_def_cfa_offset 16
	movq	%rdi, %rcx
	movq	$1, %rdi
	xorq	%rax, %rax
	movq	%rcx, %rsi
	callq	gen_rtvec
	movq	$43, %rdi
	xorq	%rsi, %rsi
	movq	$13, %rcx
	movq	%rax, %rdx
	popq	%rax
	jmp	gen_rtx_fmt_Ei  # TAILCALL
.Ltmp710:
	.size	gen_eh_return_di, .Ltmp710-gen_eh_return_di
	.cfi_endproc

	.globl	gen_leave
	.align	16, 0x90
	.type	gen_leave,@function
gen_leave:                              # @gen_leave
	.cfi_startproc
# BB#0:                                 # %entry
	pushq	%r14
.Ltmp714:
	.cfi_def_cfa_offset 16
	pushq	%rbx
.Ltmp715:
	.cfi_def_cfa_offset 24
	pushq	%rax
.Ltmp716:
	.cfi_def_cfa_offset 32
.Ltmp717:
	.cfi_offset %rbx, -24
.Ltmp718:
	.cfi_offset %r14, -16
	movq	$4, %rdi
	movq	$7, %rsi
	callq	gen_rtx_REG
	movq	%rax, %r14
	movq	$4, %rdi
	movq	$6, %rsi
	callq	gen_rtx_REG
	movq	%rax, %rbx
	xorq	%rdi, %rdi
	movq	$4, %rsi
	callq	gen_rtx_CONST_INT
	movq	$75, %rdi
	movq	$4, %rsi
	movq	%rbx, %rdx
	movq	%rax, %rcx
	callq	gen_rtx_fmt_ee
	movq	$47, %rdi
	xorq	%rsi, %rsi
	movq	%r14, %rdx
	movq	%rax, %rcx
	callq	gen_rtx_fmt_ee
	movq	%rax, %r14
	movq	$4, %rdi
	movq	$6, %rsi
	callq	gen_rtx_REG
	movq	%rax, %rbx
	movq	$4, %rdi
	movq	$6, %rsi
	callq	gen_rtx_REG
	movq	$4, %rdi
	movq	%rax, %rsi
	callq	gen_rtx_MEM
	movq	$47, %rdi
	xorq	%rsi, %rsi
	movq	%rbx, %rdx
	movq	%rax, %rcx
	callq	gen_rtx_fmt_ee
	movq	%rax, %rbx
	movq	$62, %rdi
	xorq	%rsi, %rsi
	callq	gen_rtx_fmt_0
	movq	$51, %rdi
	movq	%rax, %rsi
	callq	gen_rtx_MEM
	movq	$49, %rdi
	xorq	%rsi, %rsi
	movq	%rax, %rdx
	callq	gen_rtx_fmt_e
	movq	%rax, %rcx
	movq	$3, %rdi
	xorq	%rax, %rax
	movq	%r14, %rsi
	movq	%rbx, %rdx
	callq	gen_rtvec
	movq	$39, %rdi
	xorq	%rsi, %rsi
	movq	%rax, %rdx
	addq	$8, %rsp
	popq	%rbx
	popq	%r14
	jmp	gen_rtx_fmt_E  # TAILCALL
.Ltmp719:
	.size	gen_leave, .Ltmp719-gen_leave
	.cfi_endproc

	.globl	gen_leave_rex64
	.align	16, 0x90
	.type	gen_leave_rex64,@function
gen_leave_rex64:                        # @gen_leave_rex64
	.cfi_startproc
# BB#0:                                 # %entry
	pushq	%r14
.Ltmp723:
	.cfi_def_cfa_offset 16
	pushq	%rbx
.Ltmp724:
	.cfi_def_cfa_offset 24
	pushq	%rax
.Ltmp725:
	.cfi_def_cfa_offset 32
.Ltmp726:
	.cfi_offset %rbx, -24
.Ltmp727:
	.cfi_offset %r14, -16
	movq	$5, %rdi
	movq	$7, %rsi
	callq	gen_rtx_REG
	movq	%rax, %r14
	movq	$5, %rdi
	movq	$6, %rsi
	callq	gen_rtx_REG
	movq	%rax, %rbx
	xorq	%rdi, %rdi
	movq	$8, %rsi
	callq	gen_rtx_CONST_INT
	movq	$75, %rdi
	movq	$5, %rsi
	movq	%rbx, %rdx
	movq	%rax, %rcx
	callq	gen_rtx_fmt_ee
	movq	$47, %rdi
	xorq	%rsi, %rsi
	movq	%r14, %rdx
	movq	%rax, %rcx
	callq	gen_rtx_fmt_ee
	movq	%rax, %r14
	movq	$5, %rdi
	movq	$6, %rsi
	callq	gen_rtx_REG
	movq	%rax, %rbx
	movq	$5, %rdi
	movq	$6, %rsi
	callq	gen_rtx_REG
	movq	$5, %rdi
	movq	%rax, %rsi
	callq	gen_rtx_MEM
	movq	$47, %rdi
	xorq	%rsi, %rsi
	movq	%rbx, %rdx
	movq	%rax, %rcx
	callq	gen_rtx_fmt_ee
	movq	%rax, %rbx
	movq	$62, %rdi
	xorq	%rsi, %rsi
	callq	gen_rtx_fmt_0
	movq	$51, %rdi
	movq	%rax, %rsi
	callq	gen_rtx_MEM
	movq	$49, %rdi
	xorq	%rsi, %rsi
	movq	%rax, %rdx
	callq	gen_rtx_fmt_e
	movq	%rax, %rcx
	movq	$3, %rdi
	xorq	%rax, %rax
	movq	%r14, %rsi
	movq	%rbx, %rdx
	callq	gen_rtvec
	movq	$39, %rdi
	xorq	%rsi, %rsi
	movq	%rax, %rdx
	addq	$8, %rsp
	popq	%rbx
	popq	%r14
	jmp	gen_rtx_fmt_E  # TAILCALL
.Ltmp728:
	.size	gen_leave_rex64, .Ltmp728-gen_leave_rex64
	.cfi_endproc

	.globl	gen_ffssi_1
	.align	16, 0x90
	.type	gen_ffssi_1,@function
gen_ffssi_1:                            # @gen_ffssi_1
	.cfi_startproc
# BB#0:                                 # %entry
	pushq	%r15
.Ltmp733:
	.cfi_def_cfa_offset 16
	pushq	%r14
.Ltmp734:
	.cfi_def_cfa_offset 24
	pushq	%rbx
.Ltmp735:
	.cfi_def_cfa_offset 32
.Ltmp736:
	.cfi_offset %rbx, -32
.Ltmp737:
	.cfi_offset %r14, -24
.Ltmp738:
	.cfi_offset %r15, -16
	movq	%rsi, %r15
	movq	%rdi, %r14
	movq	$56, %rdi
	movq	$17, %rsi
	callq	gen_rtx_REG
	movq	const_int_rtx+512(%rip), %rcx
	movq	%rax, %rbx
	movq	$74, %rdi
	movq	$56, %rsi
	movq	%r15, %rdx
	callq	gen_rtx_fmt_ee
	movq	$47, %rdi
	xorq	%rsi, %rsi
	movq	%rbx, %rdx
	movq	%rax, %rcx
	callq	gen_rtx_fmt_ee
	movq	%rax, %rbx
	movq	$1, %rdi
	xorq	%rax, %rax
	movq	%r15, %rsi
	callq	gen_rtvec
	movq	$42, %rdi
	movq	$4, %rsi
	movq	$5, %rcx
	movq	%rax, %rdx
	callq	gen_rtx_fmt_Ei
	movq	$47, %rdi
	xorq	%rsi, %rsi
	movq	%r14, %rdx
	movq	%rax, %rcx
	callq	gen_rtx_fmt_ee
	movq	%rax, %rcx
	movq	$2, %rdi
	xorq	%rax, %rax
	movq	%rbx, %rsi
	movq	%rcx, %rdx
	callq	gen_rtvec
	movq	$39, %rdi
	xorq	%rsi, %rsi
	movq	%rax, %rdx
	popq	%rbx
	popq	%r14
	popq	%r15
	jmp	gen_rtx_fmt_E  # TAILCALL
.Ltmp739:
	.size	gen_ffssi_1, .Ltmp739-gen_ffssi_1
	.cfi_endproc

	.globl	gen_sqrtsf2_1
	.align	16, 0x90
	.type	gen_sqrtsf2_1,@function
gen_sqrtsf2_1:                          # @gen_sqrtsf2_1
	.cfi_startproc
# BB#0:                                 # %entry
	pushq	%rbx
.Ltmp742:
	.cfi_def_cfa_offset 16
.Ltmp743:
	.cfi_offset %rbx, -16
	movq	%rsi, %rax
	movq	%rdi, %rbx
	movq	$130, %rdi
	movq	$15, %rsi
	movq	%rax, %rdx
	callq	gen_rtx_fmt_e
	movq	$47, %rdi
	xorq	%rsi, %rsi
	movq	%rbx, %rdx
	movq	%rax, %rcx
	popq	%rbx
	jmp	gen_rtx_fmt_ee  # TAILCALL
.Ltmp744:
	.size	gen_sqrtsf2_1, .Ltmp744-gen_sqrtsf2_1
	.cfi_endproc

	.globl	gen_sqrtsf2_1_sse_only
	.align	16, 0x90
	.type	gen_sqrtsf2_1_sse_only,@function
gen_sqrtsf2_1_sse_only:                 # @gen_sqrtsf2_1_sse_only
	.cfi_startproc
# BB#0:                                 # %entry
	pushq	%rbx
.Ltmp747:
	.cfi_def_cfa_offset 16
.Ltmp748:
	.cfi_offset %rbx, -16
	movq	%rsi, %rax
	movq	%rdi, %rbx
	movq	$130, %rdi
	movq	$15, %rsi
	movq	%rax, %rdx
	callq	gen_rtx_fmt_e
	movq	$47, %rdi
	xorq	%rsi, %rsi
	movq	%rbx, %rdx
	movq	%rax, %rcx
	popq	%rbx
	jmp	gen_rtx_fmt_ee  # TAILCALL
.Ltmp749:
	.size	gen_sqrtsf2_1_sse_only, .Ltmp749-gen_sqrtsf2_1_sse_only
	.cfi_endproc

	.globl	gen_sqrtsf2_i387
	.align	16, 0x90
	.type	gen_sqrtsf2_i387,@function
gen_sqrtsf2_i387:                       # @gen_sqrtsf2_i387
	.cfi_startproc
# BB#0:                                 # %entry
	pushq	%rbx
.Ltmp752:
	.cfi_def_cfa_offset 16
.Ltmp753:
	.cfi_offset %rbx, -16
	movq	%rsi, %rax
	movq	%rdi, %rbx
	movq	$130, %rdi
	movq	$15, %rsi
	movq	%rax, %rdx
	callq	gen_rtx_fmt_e
	movq	$47, %rdi
	xorq	%rsi, %rsi
	movq	%rbx, %rdx
	movq	%rax, %rcx
	popq	%rbx
	jmp	gen_rtx_fmt_ee  # TAILCALL
.Ltmp754:
	.size	gen_sqrtsf2_i387, .Ltmp754-gen_sqrtsf2_i387
	.cfi_endproc

	.globl	gen_sqrtdf2_1
	.align	16, 0x90
	.type	gen_sqrtdf2_1,@function
gen_sqrtdf2_1:                          # @gen_sqrtdf2_1
	.cfi_startproc
# BB#0:                                 # %entry
	pushq	%rbx
.Ltmp757:
	.cfi_def_cfa_offset 16
.Ltmp758:
	.cfi_offset %rbx, -16
	movq	%rsi, %rax
	movq	%rdi, %rbx
	movq	$130, %rdi
	movq	$16, %rsi
	movq	%rax, %rdx
	callq	gen_rtx_fmt_e
	movq	$47, %rdi
	xorq	%rsi, %rsi
	movq	%rbx, %rdx
	movq	%rax, %rcx
	popq	%rbx
	jmp	gen_rtx_fmt_ee  # TAILCALL
.Ltmp759:
	.size	gen_sqrtdf2_1, .Ltmp759-gen_sqrtdf2_1
	.cfi_endproc

	.globl	gen_sqrtdf2_1_sse_only
	.align	16, 0x90
	.type	gen_sqrtdf2_1_sse_only,@function
gen_sqrtdf2_1_sse_only:                 # @gen_sqrtdf2_1_sse_only
	.cfi_startproc
# BB#0:                                 # %entry
	pushq	%rbx
.Ltmp762:
	.cfi_def_cfa_offset 16
.Ltmp763:
	.cfi_offset %rbx, -16
	movq	%rsi, %rax
	movq	%rdi, %rbx
	movq	$130, %rdi
	movq	$16, %rsi
	movq	%rax, %rdx
	callq	gen_rtx_fmt_e
	movq	$47, %rdi
	xorq	%rsi, %rsi
	movq	%rbx, %rdx
	movq	%rax, %rcx
	popq	%rbx
	jmp	gen_rtx_fmt_ee  # TAILCALL
.Ltmp764:
	.size	gen_sqrtdf2_1_sse_only, .Ltmp764-gen_sqrtdf2_1_sse_only
	.cfi_endproc

	.globl	gen_sqrtdf2_i387
	.align	16, 0x90
	.type	gen_sqrtdf2_i387,@function
gen_sqrtdf2_i387:                       # @gen_sqrtdf2_i387
	.cfi_startproc
# BB#0:                                 # %entry
	pushq	%rbx
.Ltmp767:
	.cfi_def_cfa_offset 16
.Ltmp768:
	.cfi_offset %rbx, -16
	movq	%rsi, %rax
	movq	%rdi, %rbx
	movq	$130, %rdi
	movq	$16, %rsi
	movq	%rax, %rdx
	callq	gen_rtx_fmt_e
	movq	$47, %rdi
	xorq	%rsi, %rsi
	movq	%rbx, %rdx
	movq	%rax, %rcx
	popq	%rbx
	jmp	gen_rtx_fmt_ee  # TAILCALL
.Ltmp769:
	.size	gen_sqrtdf2_i387, .Ltmp769-gen_sqrtdf2_i387
	.cfi_endproc

	.globl	gen_sqrtxf2
	.align	16, 0x90
	.type	gen_sqrtxf2,@function
gen_sqrtxf2:                            # @gen_sqrtxf2
	.cfi_startproc
# BB#0:                                 # %entry
	pushq	%rbx
.Ltmp772:
	.cfi_def_cfa_offset 16
.Ltmp773:
	.cfi_offset %rbx, -16
	movq	%rsi, %rax
	movq	%rdi, %rbx
	movq	$130, %rdi
	movq	$17, %rsi
	movq	%rax, %rdx
	callq	gen_rtx_fmt_e
	movq	$47, %rdi
	xorq	%rsi, %rsi
	movq	%rbx, %rdx
	movq	%rax, %rcx
	popq	%rbx
	jmp	gen_rtx_fmt_ee  # TAILCALL
.Ltmp774:
	.size	gen_sqrtxf2, .Ltmp774-gen_sqrtxf2
	.cfi_endproc

	.globl	gen_sqrttf2
	.align	16, 0x90
	.type	gen_sqrttf2,@function
gen_sqrttf2:                            # @gen_sqrttf2
	.cfi_startproc
# BB#0:                                 # %entry
	pushq	%rbx
.Ltmp777:
	.cfi_def_cfa_offset 16
.Ltmp778:
	.cfi_offset %rbx, -16
	movq	%rsi, %rax
	movq	%rdi, %rbx
	movq	$130, %rdi
	movq	$18, %rsi
	movq	%rax, %rdx
	callq	gen_rtx_fmt_e
	movq	$47, %rdi
	xorq	%rsi, %rsi
	movq	%rbx, %rdx
	movq	%rax, %rcx
	popq	%rbx
	jmp	gen_rtx_fmt_ee  # TAILCALL
.Ltmp779:
	.size	gen_sqrttf2, .Ltmp779-gen_sqrttf2
	.cfi_endproc

	.globl	gen_sindf2
	.align	16, 0x90
	.type	gen_sindf2,@function
gen_sindf2:                             # @gen_sindf2
	.cfi_startproc
# BB#0:                                 # %entry
	pushq	%rbx
.Ltmp782:
	.cfi_def_cfa_offset 16
.Ltmp783:
	.cfi_offset %rbx, -16
	movq	%rdi, %rbx
	movq	$1, %rdi
	xorq	%rax, %rax
	callq	gen_rtvec
	movq	$42, %rdi
	movq	$16, %rsi
	movq	$1, %rcx
	movq	%rax, %rdx
	callq	gen_rtx_fmt_Ei
	movq	$47, %rdi
	xorq	%rsi, %rsi
	movq	%rbx, %rdx
	movq	%rax, %rcx
	popq	%rbx
	jmp	gen_rtx_fmt_ee  # TAILCALL
.Ltmp784:
	.size	gen_sindf2, .Ltmp784-gen_sindf2
	.cfi_endproc

	.globl	gen_sinsf2
	.align	16, 0x90
	.type	gen_sinsf2,@function
gen_sinsf2:                             # @gen_sinsf2
	.cfi_startproc
# BB#0:                                 # %entry
	pushq	%rbx
.Ltmp787:
	.cfi_def_cfa_offset 16
.Ltmp788:
	.cfi_offset %rbx, -16
	movq	%rdi, %rbx
	movq	$1, %rdi
	xorq	%rax, %rax
	callq	gen_rtvec
	movq	$42, %rdi
	movq	$15, %rsi
	movq	$1, %rcx
	movq	%rax, %rdx
	callq	gen_rtx_fmt_Ei
	movq	$47, %rdi
	xorq	%rsi, %rsi
	movq	%rbx, %rdx
	movq	%rax, %rcx
	popq	%rbx
	jmp	gen_rtx_fmt_ee  # TAILCALL
.Ltmp789:
	.size	gen_sinsf2, .Ltmp789-gen_sinsf2
	.cfi_endproc

	.globl	gen_sinxf2
	.align	16, 0x90
	.type	gen_sinxf2,@function
gen_sinxf2:                             # @gen_sinxf2
	.cfi_startproc
# BB#0:                                 # %entry
	pushq	%rbx
.Ltmp792:
	.cfi_def_cfa_offset 16
.Ltmp793:
	.cfi_offset %rbx, -16
	movq	%rdi, %rbx
	movq	$1, %rdi
	xorq	%rax, %rax
	callq	gen_rtvec
	movq	$42, %rdi
	movq	$17, %rsi
	movq	$1, %rcx
	movq	%rax, %rdx
	callq	gen_rtx_fmt_Ei
	movq	$47, %rdi
	xorq	%rsi, %rsi
	movq	%rbx, %rdx
	movq	%rax, %rcx
	popq	%rbx
	jmp	gen_rtx_fmt_ee  # TAILCALL
.Ltmp794:
	.size	gen_sinxf2, .Ltmp794-gen_sinxf2
	.cfi_endproc

	.globl	gen_sintf2
	.align	16, 0x90
	.type	gen_sintf2,@function
gen_sintf2:                             # @gen_sintf2
	.cfi_startproc
# BB#0:                                 # %entry
	pushq	%rbx
.Ltmp797:
	.cfi_def_cfa_offset 16
.Ltmp798:
	.cfi_offset %rbx, -16
	movq	%rdi, %rbx
	movq	$1, %rdi
	xorq	%rax, %rax
	callq	gen_rtvec
	movq	$42, %rdi
	movq	$18, %rsi
	movq	$1, %rcx
	movq	%rax, %rdx
	callq	gen_rtx_fmt_Ei
	movq	$47, %rdi
	xorq	%rsi, %rsi
	movq	%rbx, %rdx
	movq	%rax, %rcx
	popq	%rbx
	jmp	gen_rtx_fmt_ee  # TAILCALL
.Ltmp799:
	.size	gen_sintf2, .Ltmp799-gen_sintf2
	.cfi_endproc

	.globl	gen_cosdf2
	.align	16, 0x90
	.type	gen_cosdf2,@function
gen_cosdf2:                             # @gen_cosdf2
	.cfi_startproc
# BB#0:                                 # %entry
	pushq	%rbx
.Ltmp802:
	.cfi_def_cfa_offset 16
.Ltmp803:
	.cfi_offset %rbx, -16
	movq	%rdi, %rbx
	movq	$1, %rdi
	xorq	%rax, %rax
	callq	gen_rtvec
	movq	$42, %rdi
	movq	$16, %rsi
	movq	$2, %rcx
	movq	%rax, %rdx
	callq	gen_rtx_fmt_Ei
	movq	$47, %rdi
	xorq	%rsi, %rsi
	movq	%rbx, %rdx
	movq	%rax, %rcx
	popq	%rbx
	jmp	gen_rtx_fmt_ee  # TAILCALL
.Ltmp804:
	.size	gen_cosdf2, .Ltmp804-gen_cosdf2
	.cfi_endproc

	.globl	gen_cossf2
	.align	16, 0x90
	.type	gen_cossf2,@function
gen_cossf2:                             # @gen_cossf2
	.cfi_startproc
# BB#0:                                 # %entry
	pushq	%rbx
.Ltmp807:
	.cfi_def_cfa_offset 16
.Ltmp808:
	.cfi_offset %rbx, -16
	movq	%rdi, %rbx
	movq	$1, %rdi
	xorq	%rax, %rax
	callq	gen_rtvec
	movq	$42, %rdi
	movq	$15, %rsi
	movq	$2, %rcx
	movq	%rax, %rdx
	callq	gen_rtx_fmt_Ei
	movq	$47, %rdi
	xorq	%rsi, %rsi
	movq	%rbx, %rdx
	movq	%rax, %rcx
	popq	%rbx
	jmp	gen_rtx_fmt_ee  # TAILCALL
.Ltmp809:
	.size	gen_cossf2, .Ltmp809-gen_cossf2
	.cfi_endproc

	.globl	gen_cosxf2
	.align	16, 0x90
	.type	gen_cosxf2,@function
gen_cosxf2:                             # @gen_cosxf2
	.cfi_startproc
# BB#0:                                 # %entry
	pushq	%rbx
.Ltmp812:
	.cfi_def_cfa_offset 16
.Ltmp813:
	.cfi_offset %rbx, -16
	movq	%rdi, %rbx
	movq	$1, %rdi
	xorq	%rax, %rax
	callq	gen_rtvec
	movq	$42, %rdi
	movq	$17, %rsi
	movq	$2, %rcx
	movq	%rax, %rdx
	callq	gen_rtx_fmt_Ei
	movq	$47, %rdi
	xorq	%rsi, %rsi
	movq	%rbx, %rdx
	movq	%rax, %rcx
	popq	%rbx
	jmp	gen_rtx_fmt_ee  # TAILCALL
.Ltmp814:
	.size	gen_cosxf2, .Ltmp814-gen_cosxf2
	.cfi_endproc

	.globl	gen_costf2
	.align	16, 0x90
	.type	gen_costf2,@function
gen_costf2:                             # @gen_costf2
	.cfi_startproc
# BB#0:                                 # %entry
	pushq	%rbx
.Ltmp817:
	.cfi_def_cfa_offset 16
.Ltmp818:
	.cfi_offset %rbx, -16
	movq	%rdi, %rbx
	movq	$1, %rdi
	xorq	%rax, %rax
	callq	gen_rtvec
	movq	$42, %rdi
	movq	$18, %rsi
	movq	$2, %rcx
	movq	%rax, %rdx
	callq	gen_rtx_fmt_Ei
	movq	$47, %rdi
	xorq	%rsi, %rsi
	movq	%rbx, %rdx
	movq	%rax, %rcx
	popq	%rbx
	jmp	gen_rtx_fmt_ee  # TAILCALL
.Ltmp819:
	.size	gen_costf2, .Ltmp819-gen_costf2
	.cfi_endproc

	.globl	gen_cld
	.align	16, 0x90
	.type	gen_cld,@function
gen_cld:                                # @gen_cld
	.cfi_startproc
# BB#0:                                 # %entry
	pushq	%rax
.Ltmp821:
	.cfi_def_cfa_offset 16
	movq	$4, %rdi
	movq	$19, %rsi
	callq	gen_rtx_REG
	movq	const_int_rtx+512(%rip), %rcx
	movq	$47, %rdi
	xorq	%rsi, %rsi
	movq	%rax, %rdx
	popq	%rax
	jmp	gen_rtx_fmt_ee  # TAILCALL
.Ltmp822:
	.size	gen_cld, .Ltmp822-gen_cld
	.cfi_endproc

	.globl	gen_strmovdi_rex_1
	.align	16, 0x90
	.type	gen_strmovdi_rex_1,@function
gen_strmovdi_rex_1:                     # @gen_strmovdi_rex_1
	.cfi_startproc
# BB#0:                                 # %entry
	pushq	%r15
.Ltmp829:
	.cfi_def_cfa_offset 16
	pushq	%r14
.Ltmp830:
	.cfi_def_cfa_offset 24
	pushq	%r13
.Ltmp831:
	.cfi_def_cfa_offset 32
	pushq	%r12
.Ltmp832:
	.cfi_def_cfa_offset 40
	pushq	%rbx
.Ltmp833:
	.cfi_def_cfa_offset 48
	subq	$16, %rsp
.Ltmp834:
	.cfi_def_cfa_offset 64
.Ltmp835:
	.cfi_offset %rbx, -48
.Ltmp836:
	.cfi_offset %r12, -40
.Ltmp837:
	.cfi_offset %r13, -32
.Ltmp838:
	.cfi_offset %r14, -24
.Ltmp839:
	.cfi_offset %r15, -16
	movq	%rcx, %r13
	movq	%rdx, %r14
	movq	%rsi, %r15
	movq	%rdi, %r12
	movq	$5, %rdi
	movq	%r14, %rsi
	callq	gen_rtx_MEM
	movq	%rax, %rbx
	movq	$5, %rdi
	movq	%r13, %rsi
	callq	gen_rtx_MEM
	movq	$47, %rdi
	xorq	%rsi, %rsi
	movq	%rbx, %rdx
	movq	%rax, %rcx
	callq	gen_rtx_fmt_ee
	movq	%rax, 8(%rsp)           # 8-byte Spill
	xorq	%rdi, %rdi
	movq	$8, %rsi
	callq	gen_rtx_CONST_INT
	movq	$75, %rdi
	movq	$5, %rsi
	movq	%r14, %rdx
	movq	%rax, %rcx
	callq	gen_rtx_fmt_ee
	movq	$47, %rdi
	xorq	%rsi, %rsi
	movq	%r12, %rdx
	movq	%rax, %rcx
	callq	gen_rtx_fmt_ee
	movq	%rax, %r12
	xorq	%rdi, %rdi
	movq	$8, %rsi
	callq	gen_rtx_CONST_INT
	movq	$75, %rdi
	movq	$5, %rsi
	movq	%r13, %rdx
	movq	%rax, %rcx
	callq	gen_rtx_fmt_ee
	movq	$47, %rdi
	xorq	%rsi, %rsi
	movq	%r15, %rdx
	movq	%rax, %rcx
	callq	gen_rtx_fmt_ee
	movq	%rax, %r14
	movq	$4, %rdi
	movq	$19, %rsi
	callq	gen_rtx_REG
	movq	$48, %rdi
	xorq	%rsi, %rsi
	movq	%rax, %rdx
	callq	gen_rtx_fmt_e
	movq	%rax, %rbx
	movq	$4, %rdi
	xorq	%rax, %rax
	movq	8(%rsp), %rsi           # 8-byte Reload
	movq	%r12, %rdx
	movq	%r14, %rcx
	movq	%rbx, %r8
	callq	gen_rtvec
	movq	$39, %rdi
	xorq	%rsi, %rsi
	movq	%rax, %rdx
	addq	$16, %rsp
	popq	%rbx
	popq	%r12
	popq	%r13
	popq	%r14
	popq	%r15
	jmp	gen_rtx_fmt_E  # TAILCALL
.Ltmp840:
	.size	gen_strmovdi_rex_1, .Ltmp840-gen_strmovdi_rex_1
	.cfi_endproc

	.globl	gen_strmovsi_1
	.align	16, 0x90
	.type	gen_strmovsi_1,@function
gen_strmovsi_1:                         # @gen_strmovsi_1
	.cfi_startproc
# BB#0:                                 # %entry
	pushq	%r15
.Ltmp847:
	.cfi_def_cfa_offset 16
	pushq	%r14
.Ltmp848:
	.cfi_def_cfa_offset 24
	pushq	%r13
.Ltmp849:
	.cfi_def_cfa_offset 32
	pushq	%r12
.Ltmp850:
	.cfi_def_cfa_offset 40
	pushq	%rbx
.Ltmp851:
	.cfi_def_cfa_offset 48
	subq	$16, %rsp
.Ltmp852:
	.cfi_def_cfa_offset 64
.Ltmp853:
	.cfi_offset %rbx, -48
.Ltmp854:
	.cfi_offset %r12, -40
.Ltmp855:
	.cfi_offset %r13, -32
.Ltmp856:
	.cfi_offset %r14, -24
.Ltmp857:
	.cfi_offset %r15, -16
	movq	%rcx, %r13
	movq	%rdx, %r14
	movq	%rsi, %r15
	movq	%rdi, %r12
	movq	$4, %rdi
	movq	%r14, %rsi
	callq	gen_rtx_MEM
	movq	%rax, %rbx
	movq	$4, %rdi
	movq	%r13, %rsi
	callq	gen_rtx_MEM
	movq	$47, %rdi
	xorq	%rsi, %rsi
	movq	%rbx, %rdx
	movq	%rax, %rcx
	callq	gen_rtx_fmt_ee
	movq	%rax, 8(%rsp)           # 8-byte Spill
	xorq	%rdi, %rdi
	movq	$4, %rsi
	callq	gen_rtx_CONST_INT
	movq	$75, %rdi
	movq	$4, %rsi
	movq	%r14, %rdx
	movq	%rax, %rcx
	callq	gen_rtx_fmt_ee
	movq	$47, %rdi
	xorq	%rsi, %rsi
	movq	%r12, %rdx
	movq	%rax, %rcx
	callq	gen_rtx_fmt_ee
	movq	%rax, %r12
	xorq	%rdi, %rdi
	movq	$4, %rsi
	callq	gen_rtx_CONST_INT
	movq	$75, %rdi
	movq	$4, %rsi
	movq	%r13, %rdx
	movq	%rax, %rcx
	callq	gen_rtx_fmt_ee
	movq	$47, %rdi
	xorq	%rsi, %rsi
	movq	%r15, %rdx
	movq	%rax, %rcx
	callq	gen_rtx_fmt_ee
	movq	%rax, %r14
	movq	$4, %rdi
	movq	$19, %rsi
	callq	gen_rtx_REG
	movq	$48, %rdi
	xorq	%rsi, %rsi
	movq	%rax, %rdx
	callq	gen_rtx_fmt_e
	movq	%rax, %rbx
	movq	$4, %rdi
	xorq	%rax, %rax
	movq	8(%rsp), %rsi           # 8-byte Reload
	movq	%r12, %rdx
	movq	%r14, %rcx
	movq	%rbx, %r8
	callq	gen_rtvec
	movq	$39, %rdi
	xorq	%rsi, %rsi
	movq	%rax, %rdx
	addq	$16, %rsp
	popq	%rbx
	popq	%r12
	popq	%r13
	popq	%r14
	popq	%r15
	jmp	gen_rtx_fmt_E  # TAILCALL
.Ltmp858:
	.size	gen_strmovsi_1, .Ltmp858-gen_strmovsi_1
	.cfi_endproc

	.globl	gen_strmovsi_rex_1
	.align	16, 0x90
	.type	gen_strmovsi_rex_1,@function
gen_strmovsi_rex_1:                     # @gen_strmovsi_rex_1
	.cfi_startproc
# BB#0:                                 # %entry
	pushq	%r15
.Ltmp865:
	.cfi_def_cfa_offset 16
	pushq	%r14
.Ltmp866:
	.cfi_def_cfa_offset 24
	pushq	%r13
.Ltmp867:
	.cfi_def_cfa_offset 32
	pushq	%r12
.Ltmp868:
	.cfi_def_cfa_offset 40
	pushq	%rbx
.Ltmp869:
	.cfi_def_cfa_offset 48
	subq	$16, %rsp
.Ltmp870:
	.cfi_def_cfa_offset 64
.Ltmp871:
	.cfi_offset %rbx, -48
.Ltmp872:
	.cfi_offset %r12, -40
.Ltmp873:
	.cfi_offset %r13, -32
.Ltmp874:
	.cfi_offset %r14, -24
.Ltmp875:
	.cfi_offset %r15, -16
	movq	%rcx, %r13
	movq	%rdx, %r14
	movq	%rsi, %r15
	movq	%rdi, %r12
	movq	$4, %rdi
	movq	%r14, %rsi
	callq	gen_rtx_MEM
	movq	%rax, %rbx
	movq	$4, %rdi
	movq	%r13, %rsi
	callq	gen_rtx_MEM
	movq	$47, %rdi
	xorq	%rsi, %rsi
	movq	%rbx, %rdx
	movq	%rax, %rcx
	callq	gen_rtx_fmt_ee
	movq	%rax, 8(%rsp)           # 8-byte Spill
	xorq	%rdi, %rdi
	movq	$4, %rsi
	callq	gen_rtx_CONST_INT
	movq	$75, %rdi
	movq	$5, %rsi
	movq	%r14, %rdx
	movq	%rax, %rcx
	callq	gen_rtx_fmt_ee
	movq	$47, %rdi
	xorq	%rsi, %rsi
	movq	%r12, %rdx
	movq	%rax, %rcx
	callq	gen_rtx_fmt_ee
	movq	%rax, %r12
	xorq	%rdi, %rdi
	movq	$4, %rsi
	callq	gen_rtx_CONST_INT
	movq	$75, %rdi
	movq	$5, %rsi
	movq	%r13, %rdx
	movq	%rax, %rcx
	callq	gen_rtx_fmt_ee
	movq	$47, %rdi
	xorq	%rsi, %rsi
	movq	%r15, %rdx
	movq	%rax, %rcx
	callq	gen_rtx_fmt_ee
	movq	%rax, %r14
	movq	$4, %rdi
	movq	$19, %rsi
	callq	gen_rtx_REG
	movq	$48, %rdi
	xorq	%rsi, %rsi
	movq	%rax, %rdx
	callq	gen_rtx_fmt_e
	movq	%rax, %rbx
	movq	$4, %rdi
	xorq	%rax, %rax
	movq	8(%rsp), %rsi           # 8-byte Reload
	movq	%r12, %rdx
	movq	%r14, %rcx
	movq	%rbx, %r8
	callq	gen_rtvec
	movq	$39, %rdi
	xorq	%rsi, %rsi
	movq	%rax, %rdx
	addq	$16, %rsp
	popq	%rbx
	popq	%r12
	popq	%r13
	popq	%r14
	popq	%r15
	jmp	gen_rtx_fmt_E  # TAILCALL
.Ltmp876:
	.size	gen_strmovsi_rex_1, .Ltmp876-gen_strmovsi_rex_1
	.cfi_endproc

	.globl	gen_strmovhi_1
	.align	16, 0x90
	.type	gen_strmovhi_1,@function
gen_strmovhi_1:                         # @gen_strmovhi_1
	.cfi_startproc
# BB#0:                                 # %entry
	pushq	%r15
.Ltmp883:
	.cfi_def_cfa_offset 16
	pushq	%r14
.Ltmp884:
	.cfi_def_cfa_offset 24
	pushq	%r13
.Ltmp885:
	.cfi_def_cfa_offset 32
	pushq	%r12
.Ltmp886:
	.cfi_def_cfa_offset 40
	pushq	%rbx
.Ltmp887:
	.cfi_def_cfa_offset 48
	subq	$16, %rsp
.Ltmp888:
	.cfi_def_cfa_offset 64
.Ltmp889:
	.cfi_offset %rbx, -48
.Ltmp890:
	.cfi_offset %r12, -40
.Ltmp891:
	.cfi_offset %r13, -32
.Ltmp892:
	.cfi_offset %r14, -24
.Ltmp893:
	.cfi_offset %r15, -16
	movq	%rcx, %r13
	movq	%rdx, %r14
	movq	%rsi, %r15
	movq	%rdi, %r12
	movq	$3, %rdi
	movq	%r14, %rsi
	callq	gen_rtx_MEM
	movq	%rax, %rbx
	movq	$3, %rdi
	movq	%r13, %rsi
	callq	gen_rtx_MEM
	movq	$47, %rdi
	xorq	%rsi, %rsi
	movq	%rbx, %rdx
	movq	%rax, %rcx
	callq	gen_rtx_fmt_ee
	movq	%rax, 8(%rsp)           # 8-byte Spill
	xorq	%rdi, %rdi
	movq	$2, %rsi
	callq	gen_rtx_CONST_INT
	movq	$75, %rdi
	movq	$4, %rsi
	movq	%r14, %rdx
	movq	%rax, %rcx
	callq	gen_rtx_fmt_ee
	movq	$47, %rdi
	xorq	%rsi, %rsi
	movq	%r12, %rdx
	movq	%rax, %rcx
	callq	gen_rtx_fmt_ee
	movq	%rax, %r12
	xorq	%rdi, %rdi
	movq	$2, %rsi
	callq	gen_rtx_CONST_INT
	movq	$75, %rdi
	movq	$4, %rsi
	movq	%r13, %rdx
	movq	%rax, %rcx
	callq	gen_rtx_fmt_ee
	movq	$47, %rdi
	xorq	%rsi, %rsi
	movq	%r15, %rdx
	movq	%rax, %rcx
	callq	gen_rtx_fmt_ee
	movq	%rax, %r14
	movq	$4, %rdi
	movq	$19, %rsi
	callq	gen_rtx_REG
	movq	$48, %rdi
	xorq	%rsi, %rsi
	movq	%rax, %rdx
	callq	gen_rtx_fmt_e
	movq	%rax, %rbx
	movq	$4, %rdi
	xorq	%rax, %rax
	movq	8(%rsp), %rsi           # 8-byte Reload
	movq	%r12, %rdx
	movq	%r14, %rcx
	movq	%rbx, %r8
	callq	gen_rtvec
	movq	$39, %rdi
	xorq	%rsi, %rsi
	movq	%rax, %rdx
	addq	$16, %rsp
	popq	%rbx
	popq	%r12
	popq	%r13
	popq	%r14
	popq	%r15
	jmp	gen_rtx_fmt_E  # TAILCALL
.Ltmp894:
	.size	gen_strmovhi_1, .Ltmp894-gen_strmovhi_1
	.cfi_endproc

	.globl	gen_strmovhi_rex_1
	.align	16, 0x90
	.type	gen_strmovhi_rex_1,@function
gen_strmovhi_rex_1:                     # @gen_strmovhi_rex_1
	.cfi_startproc
# BB#0:                                 # %entry
	pushq	%r15
.Ltmp901:
	.cfi_def_cfa_offset 16
	pushq	%r14
.Ltmp902:
	.cfi_def_cfa_offset 24
	pushq	%r13
.Ltmp903:
	.cfi_def_cfa_offset 32
	pushq	%r12
.Ltmp904:
	.cfi_def_cfa_offset 40
	pushq	%rbx
.Ltmp905:
	.cfi_def_cfa_offset 48
	subq	$16, %rsp
.Ltmp906:
	.cfi_def_cfa_offset 64
.Ltmp907:
	.cfi_offset %rbx, -48
.Ltmp908:
	.cfi_offset %r12, -40
.Ltmp909:
	.cfi_offset %r13, -32
.Ltmp910:
	.cfi_offset %r14, -24
.Ltmp911:
	.cfi_offset %r15, -16
	movq	%rcx, %r13
	movq	%rdx, %r14
	movq	%rsi, %r15
	movq	%rdi, %r12
	movq	$3, %rdi
	movq	%r14, %rsi
	callq	gen_rtx_MEM
	movq	%rax, %rbx
	movq	$3, %rdi
	movq	%r13, %rsi
	callq	gen_rtx_MEM
	movq	$47, %rdi
	xorq	%rsi, %rsi
	movq	%rbx, %rdx
	movq	%rax, %rcx
	callq	gen_rtx_fmt_ee
	movq	%rax, 8(%rsp)           # 8-byte Spill
	xorq	%rdi, %rdi
	movq	$2, %rsi
	callq	gen_rtx_CONST_INT
	movq	$75, %rdi
	movq	$5, %rsi
	movq	%r14, %rdx
	movq	%rax, %rcx
	callq	gen_rtx_fmt_ee
	movq	$47, %rdi
	xorq	%rsi, %rsi
	movq	%r12, %rdx
	movq	%rax, %rcx
	callq	gen_rtx_fmt_ee
	movq	%rax, %r12
	xorq	%rdi, %rdi
	movq	$2, %rsi
	callq	gen_rtx_CONST_INT
	movq	$75, %rdi
	movq	$5, %rsi
	movq	%r13, %rdx
	movq	%rax, %rcx
	callq	gen_rtx_fmt_ee
	movq	$47, %rdi
	xorq	%rsi, %rsi
	movq	%r15, %rdx
	movq	%rax, %rcx
	callq	gen_rtx_fmt_ee
	movq	%rax, %r14
	movq	$4, %rdi
	movq	$19, %rsi
	callq	gen_rtx_REG
	movq	$48, %rdi
	xorq	%rsi, %rsi
	movq	%rax, %rdx
	callq	gen_rtx_fmt_e
	movq	%rax, %rbx
	movq	$4, %rdi
	xorq	%rax, %rax
	movq	8(%rsp), %rsi           # 8-byte Reload
	movq	%r12, %rdx
	movq	%r14, %rcx
	movq	%rbx, %r8
	callq	gen_rtvec
	movq	$39, %rdi
	xorq	%rsi, %rsi
	movq	%rax, %rdx
	addq	$16, %rsp
	popq	%rbx
	popq	%r12
	popq	%r13
	popq	%r14
	popq	%r15
	jmp	gen_rtx_fmt_E  # TAILCALL
.Ltmp912:
	.size	gen_strmovhi_rex_1, .Ltmp912-gen_strmovhi_rex_1
	.cfi_endproc

	.globl	gen_strmovqi_1
	.align	16, 0x90
	.type	gen_strmovqi_1,@function
gen_strmovqi_1:                         # @gen_strmovqi_1
	.cfi_startproc
# BB#0:                                 # %entry
	pushq	%r15
.Ltmp919:
	.cfi_def_cfa_offset 16
	pushq	%r14
.Ltmp920:
	.cfi_def_cfa_offset 24
	pushq	%r13
.Ltmp921:
	.cfi_def_cfa_offset 32
	pushq	%r12
.Ltmp922:
	.cfi_def_cfa_offset 40
	pushq	%rbx
.Ltmp923:
	.cfi_def_cfa_offset 48
	subq	$16, %rsp
.Ltmp924:
	.cfi_def_cfa_offset 64
.Ltmp925:
	.cfi_offset %rbx, -48
.Ltmp926:
	.cfi_offset %r12, -40
.Ltmp927:
	.cfi_offset %r13, -32
.Ltmp928:
	.cfi_offset %r14, -24
.Ltmp929:
	.cfi_offset %r15, -16
	movq	%rcx, %r13
	movq	%rdx, %r14
	movq	%rsi, %r15
	movq	%rdi, %r12
	movq	$2, %rdi
	movq	%r14, %rsi
	callq	gen_rtx_MEM
	movq	%rax, %rbx
	movq	$2, %rdi
	movq	%r13, %rsi
	callq	gen_rtx_MEM
	movq	$47, %rdi
	xorq	%rsi, %rsi
	movq	%rbx, %rdx
	movq	%rax, %rcx
	callq	gen_rtx_fmt_ee
	movq	const_int_rtx+520(%rip), %rcx
	movq	%rax, 8(%rsp)           # 8-byte Spill
	movq	$75, %rdi
	movq	$4, %rsi
	movq	%r14, %rdx
	callq	gen_rtx_fmt_ee
	movq	$47, %rdi
	xorq	%rsi, %rsi
	movq	%r12, %rdx
	movq	%rax, %rcx
	callq	gen_rtx_fmt_ee
	movq	const_int_rtx+520(%rip), %rcx
	movq	%rax, %r12
	movq	$75, %rdi
	movq	$4, %rsi
	movq	%r13, %rdx
	callq	gen_rtx_fmt_ee
	movq	$47, %rdi
	xorq	%rsi, %rsi
	movq	%r15, %rdx
	movq	%rax, %rcx
	callq	gen_rtx_fmt_ee
	movq	%rax, %r14
	movq	$4, %rdi
	movq	$19, %rsi
	callq	gen_rtx_REG
	movq	$48, %rdi
	xorq	%rsi, %rsi
	movq	%rax, %rdx
	callq	gen_rtx_fmt_e
	movq	%rax, %rbx
	movq	$4, %rdi
	xorq	%rax, %rax
	movq	8(%rsp), %rsi           # 8-byte Reload
	movq	%r12, %rdx
	movq	%r14, %rcx
	movq	%rbx, %r8
	callq	gen_rtvec
	movq	$39, %rdi
	xorq	%rsi, %rsi
	movq	%rax, %rdx
	addq	$16, %rsp
	popq	%rbx
	popq	%r12
	popq	%r13
	popq	%r14
	popq	%r15
	jmp	gen_rtx_fmt_E  # TAILCALL
.Ltmp930:
	.size	gen_strmovqi_1, .Ltmp930-gen_strmovqi_1
	.cfi_endproc

	.globl	gen_strmovqi_rex_1
	.align	16, 0x90
	.type	gen_strmovqi_rex_1,@function
gen_strmovqi_rex_1:                     # @gen_strmovqi_rex_1
	.cfi_startproc
# BB#0:                                 # %entry
	pushq	%r15
.Ltmp937:
	.cfi_def_cfa_offset 16
	pushq	%r14
.Ltmp938:
	.cfi_def_cfa_offset 24
	pushq	%r13
.Ltmp939:
	.cfi_def_cfa_offset 32
	pushq	%r12
.Ltmp940:
	.cfi_def_cfa_offset 40
	pushq	%rbx
.Ltmp941:
	.cfi_def_cfa_offset 48
	subq	$16, %rsp
.Ltmp942:
	.cfi_def_cfa_offset 64
.Ltmp943:
	.cfi_offset %rbx, -48
.Ltmp944:
	.cfi_offset %r12, -40
.Ltmp945:
	.cfi_offset %r13, -32
.Ltmp946:
	.cfi_offset %r14, -24
.Ltmp947:
	.cfi_offset %r15, -16
	movq	%rcx, %r13
	movq	%rdx, %r14
	movq	%rsi, %r15
	movq	%rdi, %r12
	movq	$2, %rdi
	movq	%r14, %rsi
	callq	gen_rtx_MEM
	movq	%rax, %rbx
	movq	$2, %rdi
	movq	%r13, %rsi
	callq	gen_rtx_MEM
	movq	$47, %rdi
	xorq	%rsi, %rsi
	movq	%rbx, %rdx
	movq	%rax, %rcx
	callq	gen_rtx_fmt_ee
	movq	const_int_rtx+520(%rip), %rcx
	movq	%rax, 8(%rsp)           # 8-byte Spill
	movq	$75, %rdi
	movq	$5, %rsi
	movq	%r14, %rdx
	callq	gen_rtx_fmt_ee
	movq	$47, %rdi
	xorq	%rsi, %rsi
	movq	%r12, %rdx
	movq	%rax, %rcx
	callq	gen_rtx_fmt_ee
	movq	const_int_rtx+520(%rip), %rcx
	movq	%rax, %r12
	movq	$75, %rdi
	movq	$5, %rsi
	movq	%r13, %rdx
	callq	gen_rtx_fmt_ee
	movq	$47, %rdi
	xorq	%rsi, %rsi
	movq	%r15, %rdx
	movq	%rax, %rcx
	callq	gen_rtx_fmt_ee
	movq	%rax, %r14
	movq	$4, %rdi
	movq	$19, %rsi
	callq	gen_rtx_REG
	movq	$48, %rdi
	xorq	%rsi, %rsi
	movq	%rax, %rdx
	callq	gen_rtx_fmt_e
	movq	%rax, %rbx
	movq	$4, %rdi
	xorq	%rax, %rax
	movq	8(%rsp), %rsi           # 8-byte Reload
	movq	%r12, %rdx
	movq	%r14, %rcx
	movq	%rbx, %r8
	callq	gen_rtvec
	movq	$39, %rdi
	xorq	%rsi, %rsi
	movq	%rax, %rdx
	addq	$16, %rsp
	popq	%rbx
	popq	%r12
	popq	%r13
	popq	%r14
	popq	%r15
	jmp	gen_rtx_fmt_E  # TAILCALL
.Ltmp948:
	.size	gen_strmovqi_rex_1, .Ltmp948-gen_strmovqi_rex_1
	.cfi_endproc

	.globl	gen_rep_movdi_rex64
	.align	16, 0x90
	.type	gen_rep_movdi_rex64,@function
gen_rep_movdi_rex64:                    # @gen_rep_movdi_rex64
	.cfi_startproc
# BB#0:                                 # %entry
	pushq	%r15
.Ltmp955:
	.cfi_def_cfa_offset 16
	pushq	%r14
.Ltmp956:
	.cfi_def_cfa_offset 24
	pushq	%r13
.Ltmp957:
	.cfi_def_cfa_offset 32
	pushq	%r12
.Ltmp958:
	.cfi_def_cfa_offset 40
	pushq	%rbx
.Ltmp959:
	.cfi_def_cfa_offset 48
	subq	$32, %rsp
.Ltmp960:
	.cfi_def_cfa_offset 80
.Ltmp961:
	.cfi_offset %rbx, -48
.Ltmp962:
	.cfi_offset %r12, -40
.Ltmp963:
	.cfi_offset %r13, -32
.Ltmp964:
	.cfi_offset %r14, -24
.Ltmp965:
	.cfi_offset %r15, -16
	movq	const_int_rtx+512(%rip), %rax
	movq	%r9, %r14
	movq	%r8, %r12
	movq	%rcx, %r13
	movq	%rsi, %rbx
	movq	%rdi, %r15
	movq	$47, %rdi
	xorq	%rsi, %rsi
	movq	%rax, %rcx
	callq	gen_rtx_fmt_ee
	movq	%rax, 24(%rsp)          # 8-byte Spill
	xorq	%rdi, %rdi
	movq	$3, %rsi
	callq	gen_rtx_CONST_INT
	movq	$87, %rdi
	movq	$5, %rsi
	movq	%r14, %rdx
	movq	%rax, %rcx
	callq	gen_rtx_fmt_ee
	movq	$75, %rdi
	movq	$5, %rsi
	movq	%rax, %rdx
	movq	%r13, %rcx
	callq	gen_rtx_fmt_ee
	movq	$47, %rdi
	xorq	%rsi, %rsi
	movq	%r15, %rdx
	movq	%rax, %rcx
	callq	gen_rtx_fmt_ee
	movq	%rax, 16(%rsp)          # 8-byte Spill
	xorq	%rdi, %rdi
	movq	$3, %rsi
	callq	gen_rtx_CONST_INT
	movq	$87, %rdi
	movq	$5, %rsi
	movq	%r14, %rdx
	movq	%rax, %rcx
	callq	gen_rtx_fmt_ee
	movq	$75, %rdi
	movq	$5, %rsi
	movq	%rax, %rdx
	movq	%r12, %rcx
	callq	gen_rtx_fmt_ee
	movq	$47, %rdi
	xorq	%rsi, %rsi
	movq	%rbx, %rdx
	movq	%rax, %rcx
	callq	gen_rtx_fmt_ee
	movq	%rax, %r15
	movq	$51, %rdi
	movq	%r13, %rsi
	callq	gen_rtx_MEM
	movq	%rax, %rbx
	movq	$51, %rdi
	movq	%r12, %rsi
	callq	gen_rtx_MEM
	movq	$47, %rdi
	xorq	%rsi, %rsi
	movq	%rbx, %rdx
	movq	%rax, %rcx
	callq	gen_rtx_fmt_ee
	movq	%rax, %r12
	movq	$48, %rdi
	xorq	%rsi, %rsi
	movq	%r14, %rdx
	callq	gen_rtx_fmt_e
	movq	%rax, %rbx
	movq	$4, %rdi
	movq	$19, %rsi
	callq	gen_rtx_REG
	movq	$48, %rdi
	xorq	%rsi, %rsi
	movq	%rax, %rdx
	callq	gen_rtx_fmt_e
	movq	%rax, %rcx
	movq	$6, %rdi
	xorq	%rax, %rax
	movq	%rcx, (%rsp)
	movq	24(%rsp), %rsi          # 8-byte Reload
	movq	16(%rsp), %rdx          # 8-byte Reload
	movq	%r15, %rcx
	movq	%r12, %r8
	movq	%rbx, %r9
	callq	gen_rtvec
	movq	$39, %rdi
	xorq	%rsi, %rsi
	movq	%rax, %rdx
	addq	$32, %rsp
	popq	%rbx
	popq	%r12
	popq	%r13
	popq	%r14
	popq	%r15
	jmp	gen_rtx_fmt_E  # TAILCALL
.Ltmp966:
	.size	gen_rep_movdi_rex64, .Ltmp966-gen_rep_movdi_rex64
	.cfi_endproc

	.globl	gen_rep_movsi
	.align	16, 0x90
	.type	gen_rep_movsi,@function
gen_rep_movsi:                          # @gen_rep_movsi
	.cfi_startproc
# BB#0:                                 # %entry
	pushq	%r15
.Ltmp973:
	.cfi_def_cfa_offset 16
	pushq	%r14
.Ltmp974:
	.cfi_def_cfa_offset 24
	pushq	%r13
.Ltmp975:
	.cfi_def_cfa_offset 32
	pushq	%r12
.Ltmp976:
	.cfi_def_cfa_offset 40
	pushq	%rbx
.Ltmp977:
	.cfi_def_cfa_offset 48
	subq	$32, %rsp
.Ltmp978:
	.cfi_def_cfa_offset 80
.Ltmp979:
	.cfi_offset %rbx, -48
.Ltmp980:
	.cfi_offset %r12, -40
.Ltmp981:
	.cfi_offset %r13, -32
.Ltmp982:
	.cfi_offset %r14, -24
.Ltmp983:
	.cfi_offset %r15, -16
	movq	const_int_rtx+512(%rip), %rax
	movq	%r9, %r14
	movq	%r8, %r12
	movq	%rcx, %r13
	movq	%rsi, %rbx
	movq	%rdi, %r15
	movq	$47, %rdi
	xorq	%rsi, %rsi
	movq	%rax, %rcx
	callq	gen_rtx_fmt_ee
	movq	%rax, 24(%rsp)          # 8-byte Spill
	xorq	%rdi, %rdi
	movq	$2, %rsi
	callq	gen_rtx_CONST_INT
	movq	$87, %rdi
	movq	$4, %rsi
	movq	%r14, %rdx
	movq	%rax, %rcx
	callq	gen_rtx_fmt_ee
	movq	$75, %rdi
	movq	$4, %rsi
	movq	%rax, %rdx
	movq	%r13, %rcx
	callq	gen_rtx_fmt_ee
	movq	$47, %rdi
	xorq	%rsi, %rsi
	movq	%r15, %rdx
	movq	%rax, %rcx
	callq	gen_rtx_fmt_ee
	movq	%rax, 16(%rsp)          # 8-byte Spill
	xorq	%rdi, %rdi
	movq	$2, %rsi
	callq	gen_rtx_CONST_INT
	movq	$87, %rdi
	movq	$4, %rsi
	movq	%r14, %rdx
	movq	%rax, %rcx
	callq	gen_rtx_fmt_ee
	movq	$75, %rdi
	movq	$4, %rsi
	movq	%rax, %rdx
	movq	%r12, %rcx
	callq	gen_rtx_fmt_ee
	movq	$47, %rdi
	xorq	%rsi, %rsi
	movq	%rbx, %rdx
	movq	%rax, %rcx
	callq	gen_rtx_fmt_ee
	movq	%rax, %r15
	movq	$51, %rdi
	movq	%r13, %rsi
	callq	gen_rtx_MEM
	movq	%rax, %rbx
	movq	$51, %rdi
	movq	%r12, %rsi
	callq	gen_rtx_MEM
	movq	$47, %rdi
	xorq	%rsi, %rsi
	movq	%rbx, %rdx
	movq	%rax, %rcx
	callq	gen_rtx_fmt_ee
	movq	%rax, %r12
	movq	$48, %rdi
	xorq	%rsi, %rsi
	movq	%r14, %rdx
	callq	gen_rtx_fmt_e
	movq	%rax, %rbx
	movq	$4, %rdi
	movq	$19, %rsi
	callq	gen_rtx_REG
	movq	$48, %rdi
	xorq	%rsi, %rsi
	movq	%rax, %rdx
	callq	gen_rtx_fmt_e
	movq	%rax, %rcx
	movq	$6, %rdi
	xorq	%rax, %rax
	movq	%rcx, (%rsp)
	movq	24(%rsp), %rsi          # 8-byte Reload
	movq	16(%rsp), %rdx          # 8-byte Reload
	movq	%r15, %rcx
	movq	%r12, %r8
	movq	%rbx, %r9
	callq	gen_rtvec
	movq	$39, %rdi
	xorq	%rsi, %rsi
	movq	%rax, %rdx
	addq	$32, %rsp
	popq	%rbx
	popq	%r12
	popq	%r13
	popq	%r14
	popq	%r15
	jmp	gen_rtx_fmt_E  # TAILCALL
.Ltmp984:
	.size	gen_rep_movsi, .Ltmp984-gen_rep_movsi
	.cfi_endproc

	.globl	gen_rep_movsi_rex64
	.align	16, 0x90
	.type	gen_rep_movsi_rex64,@function
gen_rep_movsi_rex64:                    # @gen_rep_movsi_rex64
	.cfi_startproc
# BB#0:                                 # %entry
	pushq	%r15
.Ltmp991:
	.cfi_def_cfa_offset 16
	pushq	%r14
.Ltmp992:
	.cfi_def_cfa_offset 24
	pushq	%r13
.Ltmp993:
	.cfi_def_cfa_offset 32
	pushq	%r12
.Ltmp994:
	.cfi_def_cfa_offset 40
	pushq	%rbx
.Ltmp995:
	.cfi_def_cfa_offset 48
	subq	$32, %rsp
.Ltmp996:
	.cfi_def_cfa_offset 80
.Ltmp997:
	.cfi_offset %rbx, -48
.Ltmp998:
	.cfi_offset %r12, -40
.Ltmp999:
	.cfi_offset %r13, -32
.Ltmp1000:
	.cfi_offset %r14, -24
.Ltmp1001:
	.cfi_offset %r15, -16
	movq	const_int_rtx+512(%rip), %rax
	movq	%r9, %r14
	movq	%r8, %r12
	movq	%rcx, %r13
	movq	%rsi, %rbx
	movq	%rdi, %r15
	movq	$47, %rdi
	xorq	%rsi, %rsi
	movq	%rax, %rcx
	callq	gen_rtx_fmt_ee
	movq	%rax, 24(%rsp)          # 8-byte Spill
	xorq	%rdi, %rdi
	movq	$2, %rsi
	callq	gen_rtx_CONST_INT
	movq	$87, %rdi
	movq	$5, %rsi
	movq	%r14, %rdx
	movq	%rax, %rcx
	callq	gen_rtx_fmt_ee
	movq	$75, %rdi
	movq	$5, %rsi
	movq	%rax, %rdx
	movq	%r13, %rcx
	callq	gen_rtx_fmt_ee
	movq	$47, %rdi
	xorq	%rsi, %rsi
	movq	%r15, %rdx
	movq	%rax, %rcx
	callq	gen_rtx_fmt_ee
	movq	%rax, 16(%rsp)          # 8-byte Spill
	xorq	%rdi, %rdi
	movq	$2, %rsi
	callq	gen_rtx_CONST_INT
	movq	$87, %rdi
	movq	$5, %rsi
	movq	%r14, %rdx
	movq	%rax, %rcx
	callq	gen_rtx_fmt_ee
	movq	$75, %rdi
	movq	$5, %rsi
	movq	%rax, %rdx
	movq	%r12, %rcx
	callq	gen_rtx_fmt_ee
	movq	$47, %rdi
	xorq	%rsi, %rsi
	movq	%rbx, %rdx
	movq	%rax, %rcx
	callq	gen_rtx_fmt_ee
	movq	%rax, %r15
	movq	$51, %rdi
	movq	%r13, %rsi
	callq	gen_rtx_MEM
	movq	%rax, %rbx
	movq	$51, %rdi
	movq	%r12, %rsi
	callq	gen_rtx_MEM
	movq	$47, %rdi
	xorq	%rsi, %rsi
	movq	%rbx, %rdx
	movq	%rax, %rcx
	callq	gen_rtx_fmt_ee
	movq	%rax, %r12
	movq	$48, %rdi
	xorq	%rsi, %rsi
	movq	%r14, %rdx
	callq	gen_rtx_fmt_e
	movq	%rax, %rbx
	movq	$4, %rdi
	movq	$19, %rsi
	callq	gen_rtx_REG
	movq	$48, %rdi
	xorq	%rsi, %rsi
	movq	%rax, %rdx
	callq	gen_rtx_fmt_e
	movq	%rax, %rcx
	movq	$6, %rdi
	xorq	%rax, %rax
	movq	%rcx, (%rsp)
	movq	24(%rsp), %rsi          # 8-byte Reload
	movq	16(%rsp), %rdx          # 8-byte Reload
	movq	%r15, %rcx
	movq	%r12, %r8
	movq	%rbx, %r9
	callq	gen_rtvec
	movq	$39, %rdi
	xorq	%rsi, %rsi
	movq	%rax, %rdx
	addq	$32, %rsp
	popq	%rbx
	popq	%r12
	popq	%r13
	popq	%r14
	popq	%r15
	jmp	gen_rtx_fmt_E  # TAILCALL
.Ltmp1002:
	.size	gen_rep_movsi_rex64, .Ltmp1002-gen_rep_movsi_rex64
	.cfi_endproc

	.globl	gen_rep_movqi
	.align	16, 0x90
	.type	gen_rep_movqi,@function
gen_rep_movqi:                          # @gen_rep_movqi
	.cfi_startproc
# BB#0:                                 # %entry
	pushq	%r15
.Ltmp1009:
	.cfi_def_cfa_offset 16
	pushq	%r14
.Ltmp1010:
	.cfi_def_cfa_offset 24
	pushq	%r13
.Ltmp1011:
	.cfi_def_cfa_offset 32
	pushq	%r12
.Ltmp1012:
	.cfi_def_cfa_offset 40
	pushq	%rbx
.Ltmp1013:
	.cfi_def_cfa_offset 48
	subq	$32, %rsp
.Ltmp1014:
	.cfi_def_cfa_offset 80
.Ltmp1015:
	.cfi_offset %rbx, -48
.Ltmp1016:
	.cfi_offset %r12, -40
.Ltmp1017:
	.cfi_offset %r13, -32
.Ltmp1018:
	.cfi_offset %r14, -24
.Ltmp1019:
	.cfi_offset %r15, -16
	movq	const_int_rtx+512(%rip), %rax
	movq	%r9, %r15
	movq	%r8, %r13
	movq	%rcx, %r14
	movq	%rsi, %r12
	movq	%rdi, %rbx
	movq	$47, %rdi
	xorq	%rsi, %rsi
	movq	%rax, %rcx
	callq	gen_rtx_fmt_ee
	movq	%rax, 24(%rsp)          # 8-byte Spill
	movq	$75, %rdi
	movq	$4, %rsi
	movq	%r14, %rdx
	movq	%r15, %rcx
	callq	gen_rtx_fmt_ee
	movq	$47, %rdi
	xorq	%rsi, %rsi
	movq	%rbx, %rdx
	movq	%rax, %rcx
	callq	gen_rtx_fmt_ee
	movq	%rax, 16(%rsp)          # 8-byte Spill
	movq	$75, %rdi
	movq	$4, %rsi
	movq	%r13, %rdx
	movq	%r15, %rcx
	callq	gen_rtx_fmt_ee
	movq	$47, %rdi
	xorq	%rsi, %rsi
	movq	%r12, %rdx
	movq	%rax, %rcx
	callq	gen_rtx_fmt_ee
	movq	%rax, %r12
	movq	$51, %rdi
	movq	%r14, %rsi
	callq	gen_rtx_MEM
	movq	%rax, %rbx
	movq	$51, %rdi
	movq	%r13, %rsi
	callq	gen_rtx_MEM
	movq	$47, %rdi
	xorq	%rsi, %rsi
	movq	%rbx, %rdx
	movq	%rax, %rcx
	callq	gen_rtx_fmt_ee
	movq	%rax, %r14
	movq	$48, %rdi
	xorq	%rsi, %rsi
	movq	%r15, %rdx
	callq	gen_rtx_fmt_e
	movq	%rax, %rbx
	movq	$4, %rdi
	movq	$19, %rsi
	callq	gen_rtx_REG
	movq	$48, %rdi
	xorq	%rsi, %rsi
	movq	%rax, %rdx
	callq	gen_rtx_fmt_e
	movq	%rax, %rcx
	movq	$6, %rdi
	xorq	%rax, %rax
	movq	%rcx, (%rsp)
	movq	24(%rsp), %rsi          # 8-byte Reload
	movq	16(%rsp), %rdx          # 8-byte Reload
	movq	%r12, %rcx
	movq	%r14, %r8
	movq	%rbx, %r9
	callq	gen_rtvec
	movq	$39, %rdi
	xorq	%rsi, %rsi
	movq	%rax, %rdx
	addq	$32, %rsp
	popq	%rbx
	popq	%r12
	popq	%r13
	popq	%r14
	popq	%r15
	jmp	gen_rtx_fmt_E  # TAILCALL
.Ltmp1020:
	.size	gen_rep_movqi, .Ltmp1020-gen_rep_movqi
	.cfi_endproc

	.globl	gen_rep_movqi_rex64
	.align	16, 0x90
	.type	gen_rep_movqi_rex64,@function
gen_rep_movqi_rex64:                    # @gen_rep_movqi_rex64
	.cfi_startproc
# BB#0:                                 # %entry
	pushq	%r15
.Ltmp1027:
	.cfi_def_cfa_offset 16
	pushq	%r14
.Ltmp1028:
	.cfi_def_cfa_offset 24
	pushq	%r13
.Ltmp1029:
	.cfi_def_cfa_offset 32
	pushq	%r12
.Ltmp1030:
	.cfi_def_cfa_offset 40
	pushq	%rbx
.Ltmp1031:
	.cfi_def_cfa_offset 48
	subq	$32, %rsp
.Ltmp1032:
	.cfi_def_cfa_offset 80
.Ltmp1033:
	.cfi_offset %rbx, -48
.Ltmp1034:
	.cfi_offset %r12, -40
.Ltmp1035:
	.cfi_offset %r13, -32
.Ltmp1036:
	.cfi_offset %r14, -24
.Ltmp1037:
	.cfi_offset %r15, -16
	movq	const_int_rtx+512(%rip), %rax
	movq	%r9, %r15
	movq	%r8, %r13
	movq	%rcx, %r14
	movq	%rsi, %r12
	movq	%rdi, %rbx
	movq	$47, %rdi
	xorq	%rsi, %rsi
	movq	%rax, %rcx
	callq	gen_rtx_fmt_ee
	movq	%rax, 24(%rsp)          # 8-byte Spill
	movq	$75, %rdi
	movq	$5, %rsi
	movq	%r14, %rdx
	movq	%r15, %rcx
	callq	gen_rtx_fmt_ee
	movq	$47, %rdi
	xorq	%rsi, %rsi
	movq	%rbx, %rdx
	movq	%rax, %rcx
	callq	gen_rtx_fmt_ee
	movq	%rax, 16(%rsp)          # 8-byte Spill
	movq	$75, %rdi
	movq	$5, %rsi
	movq	%r13, %rdx
	movq	%r15, %rcx
	callq	gen_rtx_fmt_ee
	movq	$47, %rdi
	xorq	%rsi, %rsi
	movq	%r12, %rdx
	movq	%rax, %rcx
	callq	gen_rtx_fmt_ee
	movq	%rax, %r12
	movq	$51, %rdi
	movq	%r14, %rsi
	callq	gen_rtx_MEM
	movq	%rax, %rbx
	movq	$51, %rdi
	movq	%r13, %rsi
	callq	gen_rtx_MEM
	movq	$47, %rdi
	xorq	%rsi, %rsi
	movq	%rbx, %rdx
	movq	%rax, %rcx
	callq	gen_rtx_fmt_ee
	movq	%rax, %r14
	movq	$48, %rdi
	xorq	%rsi, %rsi
	movq	%r15, %rdx
	callq	gen_rtx_fmt_e
	movq	%rax, %rbx
	movq	$4, %rdi
	movq	$19, %rsi
	callq	gen_rtx_REG
	movq	$48, %rdi
	xorq	%rsi, %rsi
	movq	%rax, %rdx
	callq	gen_rtx_fmt_e
	movq	%rax, %rcx
	movq	$6, %rdi
	xorq	%rax, %rax
	movq	%rcx, (%rsp)
	movq	24(%rsp), %rsi          # 8-byte Reload
	movq	16(%rsp), %rdx          # 8-byte Reload
	movq	%r12, %rcx
	movq	%r14, %r8
	movq	%rbx, %r9
	callq	gen_rtvec
	movq	$39, %rdi
	xorq	%rsi, %rsi
	movq	%rax, %rdx
	addq	$32, %rsp
	popq	%rbx
	popq	%r12
	popq	%r13
	popq	%r14
	popq	%r15
	jmp	gen_rtx_fmt_E  # TAILCALL
.Ltmp1038:
	.size	gen_rep_movqi_rex64, .Ltmp1038-gen_rep_movqi_rex64
	.cfi_endproc

	.globl	gen_strsetdi_rex_1
	.align	16, 0x90
	.type	gen_strsetdi_rex_1,@function
gen_strsetdi_rex_1:                     # @gen_strsetdi_rex_1
	.cfi_startproc
# BB#0:                                 # %entry
	pushq	%r15
.Ltmp1043:
	.cfi_def_cfa_offset 16
	pushq	%r14
.Ltmp1044:
	.cfi_def_cfa_offset 24
	pushq	%rbx
.Ltmp1045:
	.cfi_def_cfa_offset 32
.Ltmp1046:
	.cfi_offset %rbx, -32
.Ltmp1047:
	.cfi_offset %r14, -24
.Ltmp1048:
	.cfi_offset %r15, -16
	movq	%rdx, %r14
	movq	%rsi, %rbx
	movq	%rdi, %r15
	movq	$4, %rdi
                                        # kill: RSI<def> RBX<kill>
	callq	gen_rtx_MEM
	movq	$47, %rdi
	xorq	%rsi, %rsi
	movq	%rax, %rdx
	movq	%r14, %rcx
	callq	gen_rtx_fmt_ee
	movq	%rax, %r14
	xorq	%rdi, %rdi
	movq	$8, %rsi
	callq	gen_rtx_CONST_INT
	movq	$75, %rdi
	movq	$5, %rsi
	movq	%rbx, %rdx
	movq	%rax, %rcx
	callq	gen_rtx_fmt_ee
	movq	$47, %rdi
	xorq	%rsi, %rsi
	movq	%r15, %rdx
	movq	%rax, %rcx
	callq	gen_rtx_fmt_ee
	movq	%rax, %rbx
	movq	$4, %rdi
	movq	$19, %rsi
	callq	gen_rtx_REG
	movq	$48, %rdi
	xorq	%rsi, %rsi
	movq	%rax, %rdx
	callq	gen_rtx_fmt_e
	movq	%rax, %rcx
	movq	$3, %rdi
	xorq	%rax, %rax
	movq	%r14, %rsi
	movq	%rbx, %rdx
	callq	gen_rtvec
	movq	$39, %rdi
	xorq	%rsi, %rsi
	movq	%rax, %rdx
	popq	%rbx
	popq	%r14
	popq	%r15
	jmp	gen_rtx_fmt_E  # TAILCALL
.Ltmp1049:
	.size	gen_strsetdi_rex_1, .Ltmp1049-gen_strsetdi_rex_1
	.cfi_endproc

	.globl	gen_strsetsi_1
	.align	16, 0x90
	.type	gen_strsetsi_1,@function
gen_strsetsi_1:                         # @gen_strsetsi_1
	.cfi_startproc
# BB#0:                                 # %entry
	pushq	%r15
.Ltmp1054:
	.cfi_def_cfa_offset 16
	pushq	%r14
.Ltmp1055:
	.cfi_def_cfa_offset 24
	pushq	%rbx
.Ltmp1056:
	.cfi_def_cfa_offset 32
.Ltmp1057:
	.cfi_offset %rbx, -32
.Ltmp1058:
	.cfi_offset %r14, -24
.Ltmp1059:
	.cfi_offset %r15, -16
	movq	%rdx, %r14
	movq	%rsi, %rbx
	movq	%rdi, %r15
	movq	$4, %rdi
                                        # kill: RSI<def> RBX<kill>
	callq	gen_rtx_MEM
	movq	$47, %rdi
	xorq	%rsi, %rsi
	movq	%rax, %rdx
	movq	%r14, %rcx
	callq	gen_rtx_fmt_ee
	movq	%rax, %r14
	xorq	%rdi, %rdi
	movq	$4, %rsi
	callq	gen_rtx_CONST_INT
	movq	$75, %rdi
	movq	$4, %rsi
	movq	%rbx, %rdx
	movq	%rax, %rcx
	callq	gen_rtx_fmt_ee
	movq	$47, %rdi
	xorq	%rsi, %rsi
	movq	%r15, %rdx
	movq	%rax, %rcx
	callq	gen_rtx_fmt_ee
	movq	%rax, %rbx
	movq	$4, %rdi
	movq	$19, %rsi
	callq	gen_rtx_REG
	movq	$48, %rdi
	xorq	%rsi, %rsi
	movq	%rax, %rdx
	callq	gen_rtx_fmt_e
	movq	%rax, %rcx
	movq	$3, %rdi
	xorq	%rax, %rax
	movq	%r14, %rsi
	movq	%rbx, %rdx
	callq	gen_rtvec
	movq	$39, %rdi
	xorq	%rsi, %rsi
	movq	%rax, %rdx
	popq	%rbx
	popq	%r14
	popq	%r15
	jmp	gen_rtx_fmt_E  # TAILCALL
.Ltmp1060:
	.size	gen_strsetsi_1, .Ltmp1060-gen_strsetsi_1
	.cfi_endproc

	.globl	gen_strsetsi_rex_1
	.align	16, 0x90
	.type	gen_strsetsi_rex_1,@function
gen_strsetsi_rex_1:                     # @gen_strsetsi_rex_1
	.cfi_startproc
# BB#0:                                 # %entry
	pushq	%r15
.Ltmp1065:
	.cfi_def_cfa_offset 16
	pushq	%r14
.Ltmp1066:
	.cfi_def_cfa_offset 24
	pushq	%rbx
.Ltmp1067:
	.cfi_def_cfa_offset 32
.Ltmp1068:
	.cfi_offset %rbx, -32
.Ltmp1069:
	.cfi_offset %r14, -24
.Ltmp1070:
	.cfi_offset %r15, -16
	movq	%rdx, %r14
	movq	%rsi, %rbx
	movq	%rdi, %r15
	movq	$4, %rdi
                                        # kill: RSI<def> RBX<kill>
	callq	gen_rtx_MEM
	movq	$47, %rdi
	xorq	%rsi, %rsi
	movq	%rax, %rdx
	movq	%r14, %rcx
	callq	gen_rtx_fmt_ee
	movq	%rax, %r14
	xorq	%rdi, %rdi
	movq	$4, %rsi
	callq	gen_rtx_CONST_INT
	movq	$75, %rdi
	movq	$5, %rsi
	movq	%rbx, %rdx
	movq	%rax, %rcx
	callq	gen_rtx_fmt_ee
	movq	$47, %rdi
	xorq	%rsi, %rsi
	movq	%r15, %rdx
	movq	%rax, %rcx
	callq	gen_rtx_fmt_ee
	movq	%rax, %rbx
	movq	$4, %rdi
	movq	$19, %rsi
	callq	gen_rtx_REG
	movq	$48, %rdi
	xorq	%rsi, %rsi
	movq	%rax, %rdx
	callq	gen_rtx_fmt_e
	movq	%rax, %rcx
	movq	$3, %rdi
	xorq	%rax, %rax
	movq	%r14, %rsi
	movq	%rbx, %rdx
	callq	gen_rtvec
	movq	$39, %rdi
	xorq	%rsi, %rsi
	movq	%rax, %rdx
	popq	%rbx
	popq	%r14
	popq	%r15
	jmp	gen_rtx_fmt_E  # TAILCALL
.Ltmp1071:
	.size	gen_strsetsi_rex_1, .Ltmp1071-gen_strsetsi_rex_1
	.cfi_endproc

	.globl	gen_strsethi_1
	.align	16, 0x90
	.type	gen_strsethi_1,@function
gen_strsethi_1:                         # @gen_strsethi_1
	.cfi_startproc
# BB#0:                                 # %entry
	pushq	%r15
.Ltmp1076:
	.cfi_def_cfa_offset 16
	pushq	%r14
.Ltmp1077:
	.cfi_def_cfa_offset 24
	pushq	%rbx
.Ltmp1078:
	.cfi_def_cfa_offset 32
.Ltmp1079:
	.cfi_offset %rbx, -32
.Ltmp1080:
	.cfi_offset %r14, -24
.Ltmp1081:
	.cfi_offset %r15, -16
	movq	%rdx, %r14
	movq	%rsi, %rbx
	movq	%rdi, %r15
	movq	$3, %rdi
                                        # kill: RSI<def> RBX<kill>
	callq	gen_rtx_MEM
	movq	$47, %rdi
	xorq	%rsi, %rsi
	movq	%rax, %rdx
	movq	%r14, %rcx
	callq	gen_rtx_fmt_ee
	movq	%rax, %r14
	xorq	%rdi, %rdi
	movq	$2, %rsi
	callq	gen_rtx_CONST_INT
	movq	$75, %rdi
	movq	$4, %rsi
	movq	%rbx, %rdx
	movq	%rax, %rcx
	callq	gen_rtx_fmt_ee
	movq	$47, %rdi
	xorq	%rsi, %rsi
	movq	%r15, %rdx
	movq	%rax, %rcx
	callq	gen_rtx_fmt_ee
	movq	%rax, %rbx
	movq	$4, %rdi
	movq	$19, %rsi
	callq	gen_rtx_REG
	movq	$48, %rdi
	xorq	%rsi, %rsi
	movq	%rax, %rdx
	callq	gen_rtx_fmt_e
	movq	%rax, %rcx
	movq	$3, %rdi
	xorq	%rax, %rax
	movq	%r14, %rsi
	movq	%rbx, %rdx
	callq	gen_rtvec
	movq	$39, %rdi
	xorq	%rsi, %rsi
	movq	%rax, %rdx
	popq	%rbx
	popq	%r14
	popq	%r15
	jmp	gen_rtx_fmt_E  # TAILCALL
.Ltmp1082:
	.size	gen_strsethi_1, .Ltmp1082-gen_strsethi_1
	.cfi_endproc

	.globl	gen_strsethi_rex_1
	.align	16, 0x90
	.type	gen_strsethi_rex_1,@function
gen_strsethi_rex_1:                     # @gen_strsethi_rex_1
	.cfi_startproc
# BB#0:                                 # %entry
	pushq	%r15
.Ltmp1087:
	.cfi_def_cfa_offset 16
	pushq	%r14
.Ltmp1088:
	.cfi_def_cfa_offset 24
	pushq	%rbx
.Ltmp1089:
	.cfi_def_cfa_offset 32
.Ltmp1090:
	.cfi_offset %rbx, -32
.Ltmp1091:
	.cfi_offset %r14, -24
.Ltmp1092:
	.cfi_offset %r15, -16
	movq	%rdx, %r14
	movq	%rsi, %rbx
	movq	%rdi, %r15
	movq	$3, %rdi
                                        # kill: RSI<def> RBX<kill>
	callq	gen_rtx_MEM
	movq	$47, %rdi
	xorq	%rsi, %rsi
	movq	%rax, %rdx
	movq	%r14, %rcx
	callq	gen_rtx_fmt_ee
	movq	%rax, %r14
	xorq	%rdi, %rdi
	movq	$2, %rsi
	callq	gen_rtx_CONST_INT
	movq	$75, %rdi
	movq	$5, %rsi
	movq	%rbx, %rdx
	movq	%rax, %rcx
	callq	gen_rtx_fmt_ee
	movq	$47, %rdi
	xorq	%rsi, %rsi
	movq	%r15, %rdx
	movq	%rax, %rcx
	callq	gen_rtx_fmt_ee
	movq	%rax, %rbx
	movq	$4, %rdi
	movq	$19, %rsi
	callq	gen_rtx_REG
	movq	$48, %rdi
	xorq	%rsi, %rsi
	movq	%rax, %rdx
	callq	gen_rtx_fmt_e
	movq	%rax, %rcx
	movq	$3, %rdi
	xorq	%rax, %rax
	movq	%r14, %rsi
	movq	%rbx, %rdx
	callq	gen_rtvec
	movq	$39, %rdi
	xorq	%rsi, %rsi
	movq	%rax, %rdx
	popq	%rbx
	popq	%r14
	popq	%r15
	jmp	gen_rtx_fmt_E  # TAILCALL
.Ltmp1093:
	.size	gen_strsethi_rex_1, .Ltmp1093-gen_strsethi_rex_1
	.cfi_endproc

	.globl	gen_strsetqi_1
	.align	16, 0x90
	.type	gen_strsetqi_1,@function
gen_strsetqi_1:                         # @gen_strsetqi_1
	.cfi_startproc
# BB#0:                                 # %entry
	pushq	%r15
.Ltmp1098:
	.cfi_def_cfa_offset 16
	pushq	%r14
.Ltmp1099:
	.cfi_def_cfa_offset 24
	pushq	%rbx
.Ltmp1100:
	.cfi_def_cfa_offset 32
.Ltmp1101:
	.cfi_offset %rbx, -32
.Ltmp1102:
	.cfi_offset %r14, -24
.Ltmp1103:
	.cfi_offset %r15, -16
	movq	%rdx, %r14
	movq	%rsi, %rbx
	movq	%rdi, %r15
	movq	$2, %rdi
                                        # kill: RSI<def> RBX<kill>
	callq	gen_rtx_MEM
	movq	$47, %rdi
	xorq	%rsi, %rsi
	movq	%rax, %rdx
	movq	%r14, %rcx
	callq	gen_rtx_fmt_ee
	movq	const_int_rtx+520(%rip), %rcx
	movq	%rax, %r14
	movq	$75, %rdi
	movq	$4, %rsi
	movq	%rbx, %rdx
	callq	gen_rtx_fmt_ee
	movq	$47, %rdi
	xorq	%rsi, %rsi
	movq	%r15, %rdx
	movq	%rax, %rcx
	callq	gen_rtx_fmt_ee
	movq	%rax, %rbx
	movq	$4, %rdi
	movq	$19, %rsi
	callq	gen_rtx_REG
	movq	$48, %rdi
	xorq	%rsi, %rsi
	movq	%rax, %rdx
	callq	gen_rtx_fmt_e
	movq	%rax, %rcx
	movq	$3, %rdi
	xorq	%rax, %rax
	movq	%r14, %rsi
	movq	%rbx, %rdx
	callq	gen_rtvec
	movq	$39, %rdi
	xorq	%rsi, %rsi
	movq	%rax, %rdx
	popq	%rbx
	popq	%r14
	popq	%r15
	jmp	gen_rtx_fmt_E  # TAILCALL
.Ltmp1104:
	.size	gen_strsetqi_1, .Ltmp1104-gen_strsetqi_1
	.cfi_endproc

	.globl	gen_strsetqi_rex_1
	.align	16, 0x90
	.type	gen_strsetqi_rex_1,@function
gen_strsetqi_rex_1:                     # @gen_strsetqi_rex_1
	.cfi_startproc
# BB#0:                                 # %entry
	pushq	%r15
.Ltmp1109:
	.cfi_def_cfa_offset 16
	pushq	%r14
.Ltmp1110:
	.cfi_def_cfa_offset 24
	pushq	%rbx
.Ltmp1111:
	.cfi_def_cfa_offset 32
.Ltmp1112:
	.cfi_offset %rbx, -32
.Ltmp1113:
	.cfi_offset %r14, -24
.Ltmp1114:
	.cfi_offset %r15, -16
	movq	%rdx, %r14
	movq	%rsi, %rbx
	movq	%rdi, %r15
	movq	$2, %rdi
                                        # kill: RSI<def> RBX<kill>
	callq	gen_rtx_MEM
	movq	$47, %rdi
	xorq	%rsi, %rsi
	movq	%rax, %rdx
	movq	%r14, %rcx
	callq	gen_rtx_fmt_ee
	movq	const_int_rtx+520(%rip), %rcx
	movq	%rax, %r14
	movq	$75, %rdi
	movq	$5, %rsi
	movq	%rbx, %rdx
	callq	gen_rtx_fmt_ee
	movq	$47, %rdi
	xorq	%rsi, %rsi
	movq	%r15, %rdx
	movq	%rax, %rcx
	callq	gen_rtx_fmt_ee
	movq	%rax, %rbx
	movq	$4, %rdi
	movq	$19, %rsi
	callq	gen_rtx_REG
	movq	$48, %rdi
	xorq	%rsi, %rsi
	movq	%rax, %rdx
	callq	gen_rtx_fmt_e
	movq	%rax, %rcx
	movq	$3, %rdi
	xorq	%rax, %rax
	movq	%r14, %rsi
	movq	%rbx, %rdx
	callq	gen_rtvec
	movq	$39, %rdi
	xorq	%rsi, %rsi
	movq	%rax, %rdx
	popq	%rbx
	popq	%r14
	popq	%r15
	jmp	gen_rtx_fmt_E  # TAILCALL
.Ltmp1115:
	.size	gen_strsetqi_rex_1, .Ltmp1115-gen_strsetqi_rex_1
	.cfi_endproc

	.globl	gen_rep_stosdi_rex64
	.align	16, 0x90
	.type	gen_rep_stosdi_rex64,@function
gen_rep_stosdi_rex64:                   # @gen_rep_stosdi_rex64
	.cfi_startproc
# BB#0:                                 # %entry
	pushq	%r15
.Ltmp1122:
	.cfi_def_cfa_offset 16
	pushq	%r14
.Ltmp1123:
	.cfi_def_cfa_offset 24
	pushq	%r13
.Ltmp1124:
	.cfi_def_cfa_offset 32
	pushq	%r12
.Ltmp1125:
	.cfi_def_cfa_offset 40
	pushq	%rbx
.Ltmp1126:
	.cfi_def_cfa_offset 48
	subq	$16, %rsp
.Ltmp1127:
	.cfi_def_cfa_offset 64
.Ltmp1128:
	.cfi_offset %rbx, -48
.Ltmp1129:
	.cfi_offset %r12, -40
.Ltmp1130:
	.cfi_offset %r13, -32
.Ltmp1131:
	.cfi_offset %r14, -24
.Ltmp1132:
	.cfi_offset %r15, -16
	movq	const_int_rtx+512(%rip), %rax
	movq	%r8, %r13
	movq	%rcx, %rbx
	movq	%rdx, %r15
	movq	%rsi, %rcx
	movq	%rdi, %r12
	movq	$47, %rdi
	xorq	%rsi, %rsi
	movq	%rcx, %rdx
	movq	%rax, %rcx
	callq	gen_rtx_fmt_ee
	movq	%rax, 8(%rsp)           # 8-byte Spill
	xorq	%rdi, %rdi
	movq	$3, %rsi
	callq	gen_rtx_CONST_INT
	movq	$87, %rdi
	movq	$5, %rsi
	movq	%r13, %rdx
	movq	%rax, %rcx
	callq	gen_rtx_fmt_ee
	movq	$75, %rdi
	movq	$5, %rsi
	movq	%rax, %rdx
	movq	%rbx, %rcx
	callq	gen_rtx_fmt_ee
	movq	$47, %rdi
	xorq	%rsi, %rsi
	movq	%r12, %rdx
	movq	%rax, %rcx
	callq	gen_rtx_fmt_ee
	movq	%rax, %r12
	movq	$51, %rdi
	movq	%rbx, %rsi
	callq	gen_rtx_MEM
	movq	const_int_rtx+512(%rip), %rcx
	movq	$47, %rdi
	xorq	%rsi, %rsi
	movq	%rax, %rdx
	callq	gen_rtx_fmt_ee
	movq	%rax, %r14
	movq	$48, %rdi
	xorq	%rsi, %rsi
	movq	%r15, %rdx
	callq	gen_rtx_fmt_e
	movq	%rax, %r15
	movq	$48, %rdi
	xorq	%rsi, %rsi
	movq	%r13, %rdx
	callq	gen_rtx_fmt_e
	movq	%rax, %rbx
	movq	$4, %rdi
	movq	$19, %rsi
	callq	gen_rtx_REG
	movq	$48, %rdi
	xorq	%rsi, %rsi
	movq	%rax, %rdx
	callq	gen_rtx_fmt_e
	movq	%rax, %rcx
	movq	$6, %rdi
	xorq	%rax, %rax
	movq	%rcx, (%rsp)
	movq	8(%rsp), %rsi           # 8-byte Reload
	movq	%r12, %rdx
	movq	%r14, %rcx
	movq	%r15, %r8
	movq	%rbx, %r9
	callq	gen_rtvec
	movq	$39, %rdi
	xorq	%rsi, %rsi
	movq	%rax, %rdx
	addq	$16, %rsp
	popq	%rbx
	popq	%r12
	popq	%r13
	popq	%r14
	popq	%r15
	jmp	gen_rtx_fmt_E  # TAILCALL
.Ltmp1133:
	.size	gen_rep_stosdi_rex64, .Ltmp1133-gen_rep_stosdi_rex64
	.cfi_endproc

	.globl	gen_rep_stossi
	.align	16, 0x90
	.type	gen_rep_stossi,@function
gen_rep_stossi:                         # @gen_rep_stossi
	.cfi_startproc
# BB#0:                                 # %entry
	pushq	%r15
.Ltmp1140:
	.cfi_def_cfa_offset 16
	pushq	%r14
.Ltmp1141:
	.cfi_def_cfa_offset 24
	pushq	%r13
.Ltmp1142:
	.cfi_def_cfa_offset 32
	pushq	%r12
.Ltmp1143:
	.cfi_def_cfa_offset 40
	pushq	%rbx
.Ltmp1144:
	.cfi_def_cfa_offset 48
	subq	$16, %rsp
.Ltmp1145:
	.cfi_def_cfa_offset 64
.Ltmp1146:
	.cfi_offset %rbx, -48
.Ltmp1147:
	.cfi_offset %r12, -40
.Ltmp1148:
	.cfi_offset %r13, -32
.Ltmp1149:
	.cfi_offset %r14, -24
.Ltmp1150:
	.cfi_offset %r15, -16
	movq	const_int_rtx+512(%rip), %rax
	movq	%r8, %r13
	movq	%rcx, %rbx
	movq	%rdx, %r15
	movq	%rsi, %rcx
	movq	%rdi, %r12
	movq	$47, %rdi
	xorq	%rsi, %rsi
	movq	%rcx, %rdx
	movq	%rax, %rcx
	callq	gen_rtx_fmt_ee
	movq	%rax, 8(%rsp)           # 8-byte Spill
	xorq	%rdi, %rdi
	movq	$2, %rsi
	callq	gen_rtx_CONST_INT
	movq	$87, %rdi
	movq	$4, %rsi
	movq	%r13, %rdx
	movq	%rax, %rcx
	callq	gen_rtx_fmt_ee
	movq	$75, %rdi
	movq	$4, %rsi
	movq	%rax, %rdx
	movq	%rbx, %rcx
	callq	gen_rtx_fmt_ee
	movq	$47, %rdi
	xorq	%rsi, %rsi
	movq	%r12, %rdx
	movq	%rax, %rcx
	callq	gen_rtx_fmt_ee
	movq	%rax, %r12
	movq	$51, %rdi
	movq	%rbx, %rsi
	callq	gen_rtx_MEM
	movq	const_int_rtx+512(%rip), %rcx
	movq	$47, %rdi
	xorq	%rsi, %rsi
	movq	%rax, %rdx
	callq	gen_rtx_fmt_ee
	movq	%rax, %r14
	movq	$48, %rdi
	xorq	%rsi, %rsi
	movq	%r15, %rdx
	callq	gen_rtx_fmt_e
	movq	%rax, %r15
	movq	$48, %rdi
	xorq	%rsi, %rsi
	movq	%r13, %rdx
	callq	gen_rtx_fmt_e
	movq	%rax, %rbx
	movq	$4, %rdi
	movq	$19, %rsi
	callq	gen_rtx_REG
	movq	$48, %rdi
	xorq	%rsi, %rsi
	movq	%rax, %rdx
	callq	gen_rtx_fmt_e
	movq	%rax, %rcx
	movq	$6, %rdi
	xorq	%rax, %rax
	movq	%rcx, (%rsp)
	movq	8(%rsp), %rsi           # 8-byte Reload
	movq	%r12, %rdx
	movq	%r14, %rcx
	movq	%r15, %r8
	movq	%rbx, %r9
	callq	gen_rtvec
	movq	$39, %rdi
	xorq	%rsi, %rsi
	movq	%rax, %rdx
	addq	$16, %rsp
	popq	%rbx
	popq	%r12
	popq	%r13
	popq	%r14
	popq	%r15
	jmp	gen_rtx_fmt_E  # TAILCALL
.Ltmp1151:
	.size	gen_rep_stossi, .Ltmp1151-gen_rep_stossi
	.cfi_endproc

	.globl	gen_rep_stossi_rex64
	.align	16, 0x90
	.type	gen_rep_stossi_rex64,@function
gen_rep_stossi_rex64:                   # @gen_rep_stossi_rex64
	.cfi_startproc
# BB#0:                                 # %entry
	pushq	%r15
.Ltmp1158:
	.cfi_def_cfa_offset 16
	pushq	%r14
.Ltmp1159:
	.cfi_def_cfa_offset 24
	pushq	%r13
.Ltmp1160:
	.cfi_def_cfa_offset 32
	pushq	%r12
.Ltmp1161:
	.cfi_def_cfa_offset 40
	pushq	%rbx
.Ltmp1162:
	.cfi_def_cfa_offset 48
	subq	$16, %rsp
.Ltmp1163:
	.cfi_def_cfa_offset 64
.Ltmp1164:
	.cfi_offset %rbx, -48
.Ltmp1165:
	.cfi_offset %r12, -40
.Ltmp1166:
	.cfi_offset %r13, -32
.Ltmp1167:
	.cfi_offset %r14, -24
.Ltmp1168:
	.cfi_offset %r15, -16
	movq	const_int_rtx+512(%rip), %rax
	movq	%r8, %r13
	movq	%rcx, %rbx
	movq	%rdx, %r15
	movq	%rsi, %rcx
	movq	%rdi, %r12
	movq	$47, %rdi
	xorq	%rsi, %rsi
	movq	%rcx, %rdx
	movq	%rax, %rcx
	callq	gen_rtx_fmt_ee
	movq	%rax, 8(%rsp)           # 8-byte Spill
	xorq	%rdi, %rdi
	movq	$2, %rsi
	callq	gen_rtx_CONST_INT
	movq	$87, %rdi
	movq	$5, %rsi
	movq	%r13, %rdx
	movq	%rax, %rcx
	callq	gen_rtx_fmt_ee
	movq	$75, %rdi
	movq	$5, %rsi
	movq	%rax, %rdx
	movq	%rbx, %rcx
	callq	gen_rtx_fmt_ee
	movq	$47, %rdi
	xorq	%rsi, %rsi
	movq	%r12, %rdx
	movq	%rax, %rcx
	callq	gen_rtx_fmt_ee
	movq	%rax, %r12
	movq	$51, %rdi
	movq	%rbx, %rsi
	callq	gen_rtx_MEM
	movq	const_int_rtx+512(%rip), %rcx
	movq	$47, %rdi
	xorq	%rsi, %rsi
	movq	%rax, %rdx
	callq	gen_rtx_fmt_ee
	movq	%rax, %r14
	movq	$48, %rdi
	xorq	%rsi, %rsi
	movq	%r15, %rdx
	callq	gen_rtx_fmt_e
	movq	%rax, %r15
	movq	$48, %rdi
	xorq	%rsi, %rsi
	movq	%r13, %rdx
	callq	gen_rtx_fmt_e
	movq	%rax, %rbx
	movq	$4, %rdi
	movq	$19, %rsi
	callq	gen_rtx_REG
	movq	$48, %rdi
	xorq	%rsi, %rsi
	movq	%rax, %rdx
	callq	gen_rtx_fmt_e
	movq	%rax, %rcx
	movq	$6, %rdi
	xorq	%rax, %rax
	movq	%rcx, (%rsp)
	movq	8(%rsp), %rsi           # 8-byte Reload
	movq	%r12, %rdx
	movq	%r14, %rcx
	movq	%r15, %r8
	movq	%rbx, %r9
	callq	gen_rtvec
	movq	$39, %rdi
	xorq	%rsi, %rsi
	movq	%rax, %rdx
	addq	$16, %rsp
	popq	%rbx
	popq	%r12
	popq	%r13
	popq	%r14
	popq	%r15
	jmp	gen_rtx_fmt_E  # TAILCALL
.Ltmp1169:
	.size	gen_rep_stossi_rex64, .Ltmp1169-gen_rep_stossi_rex64
	.cfi_endproc

	.globl	gen_rep_stosqi
	.align	16, 0x90
	.type	gen_rep_stosqi,@function
gen_rep_stosqi:                         # @gen_rep_stosqi
	.cfi_startproc
# BB#0:                                 # %entry
	pushq	%r15
.Ltmp1176:
	.cfi_def_cfa_offset 16
	pushq	%r14
.Ltmp1177:
	.cfi_def_cfa_offset 24
	pushq	%r13
.Ltmp1178:
	.cfi_def_cfa_offset 32
	pushq	%r12
.Ltmp1179:
	.cfi_def_cfa_offset 40
	pushq	%rbx
.Ltmp1180:
	.cfi_def_cfa_offset 48
	subq	$16, %rsp
.Ltmp1181:
	.cfi_def_cfa_offset 64
.Ltmp1182:
	.cfi_offset %rbx, -48
.Ltmp1183:
	.cfi_offset %r12, -40
.Ltmp1184:
	.cfi_offset %r13, -32
.Ltmp1185:
	.cfi_offset %r14, -24
.Ltmp1186:
	.cfi_offset %r15, -16
	movq	const_int_rtx+512(%rip), %rax
	movq	%r8, %r14
	movq	%rcx, %rbx
	movq	%rdx, %r12
	movq	%rsi, %rcx
	movq	%rdi, %r15
	movq	$47, %rdi
	xorq	%rsi, %rsi
	movq	%rcx, %rdx
	movq	%rax, %rcx
	callq	gen_rtx_fmt_ee
	movq	%rax, 8(%rsp)           # 8-byte Spill
	movq	$75, %rdi
	movq	$4, %rsi
	movq	%rbx, %rdx
	movq	%r14, %rcx
	callq	gen_rtx_fmt_ee
	movq	$47, %rdi
	xorq	%rsi, %rsi
	movq	%r15, %rdx
	movq	%rax, %rcx
	callq	gen_rtx_fmt_ee
	movq	%rax, %r15
	movq	$51, %rdi
	movq	%rbx, %rsi
	callq	gen_rtx_MEM
	movq	const_int_rtx+512(%rip), %rcx
	movq	$47, %rdi
	xorq	%rsi, %rsi
	movq	%rax, %rdx
	callq	gen_rtx_fmt_ee
	movq	%rax, %r13
	movq	$48, %rdi
	xorq	%rsi, %rsi
	movq	%r12, %rdx
	callq	gen_rtx_fmt_e
	movq	%rax, %r12
	movq	$48, %rdi
	xorq	%rsi, %rsi
	movq	%r14, %rdx
	callq	gen_rtx_fmt_e
	movq	%rax, %rbx
	movq	$4, %rdi
	movq	$19, %rsi
	callq	gen_rtx_REG
	movq	$48, %rdi
	xorq	%rsi, %rsi
	movq	%rax, %rdx
	callq	gen_rtx_fmt_e
	movq	%rax, %rcx
	movq	$6, %rdi
	xorq	%rax, %rax
	movq	%rcx, (%rsp)
	movq	8(%rsp), %rsi           # 8-byte Reload
	movq	%r15, %rdx
	movq	%r13, %rcx
	movq	%r12, %r8
	movq	%rbx, %r9
	callq	gen_rtvec
	movq	$39, %rdi
	xorq	%rsi, %rsi
	movq	%rax, %rdx
	addq	$16, %rsp
	popq	%rbx
	popq	%r12
	popq	%r13
	popq	%r14
	popq	%r15
	jmp	gen_rtx_fmt_E  # TAILCALL
.Ltmp1187:
	.size	gen_rep_stosqi, .Ltmp1187-gen_rep_stosqi
	.cfi_endproc

	.globl	gen_rep_stosqi_rex64
	.align	16, 0x90
	.type	gen_rep_stosqi_rex64,@function
gen_rep_stosqi_rex64:                   # @gen_rep_stosqi_rex64
	.cfi_startproc
# BB#0:                                 # %entry
	pushq	%r15
.Ltmp1194:
	.cfi_def_cfa_offset 16
	pushq	%r14
.Ltmp1195:
	.cfi_def_cfa_offset 24
	pushq	%r13
.Ltmp1196:
	.cfi_def_cfa_offset 32
	pushq	%r12
.Ltmp1197:
	.cfi_def_cfa_offset 40
	pushq	%rbx
.Ltmp1198:
	.cfi_def_cfa_offset 48
	subq	$16, %rsp
.Ltmp1199:
	.cfi_def_cfa_offset 64
.Ltmp1200:
	.cfi_offset %rbx, -48
.Ltmp1201:
	.cfi_offset %r12, -40
.Ltmp1202:
	.cfi_offset %r13, -32
.Ltmp1203:
	.cfi_offset %r14, -24
.Ltmp1204:
	.cfi_offset %r15, -16
	movq	const_int_rtx+512(%rip), %rax
	movq	%r8, %r14
	movq	%rcx, %rbx
	movq	%rdx, %r12
	movq	%rsi, %rcx
	movq	%rdi, %r15
	movq	$47, %rdi
	xorq	%rsi, %rsi
	movq	%rcx, %rdx
	movq	%rax, %rcx
	callq	gen_rtx_fmt_ee
	movq	%rax, 8(%rsp)           # 8-byte Spill
	movq	$75, %rdi
	movq	$5, %rsi
	movq	%rbx, %rdx
	movq	%r14, %rcx
	callq	gen_rtx_fmt_ee
	movq	$47, %rdi
	xorq	%rsi, %rsi
	movq	%r15, %rdx
	movq	%rax, %rcx
	callq	gen_rtx_fmt_ee
	movq	%rax, %r15
	movq	$51, %rdi
	movq	%rbx, %rsi
	callq	gen_rtx_MEM
	movq	const_int_rtx+512(%rip), %rcx
	movq	$47, %rdi
	xorq	%rsi, %rsi
	movq	%rax, %rdx
	callq	gen_rtx_fmt_ee
	movq	%rax, %r13
	movq	$48, %rdi
	xorq	%rsi, %rsi
	movq	%r12, %rdx
	callq	gen_rtx_fmt_e
	movq	%rax, %r12
	movq	$48, %rdi
	xorq	%rsi, %rsi
	movq	%r14, %rdx
	callq	gen_rtx_fmt_e
	movq	%rax, %rbx
	movq	$5, %rdi
	movq	$19, %rsi
	callq	gen_rtx_REG
	movq	$48, %rdi
	xorq	%rsi, %rsi
	movq	%rax, %rdx
	callq	gen_rtx_fmt_e
	movq	%rax, %rcx
	movq	$6, %rdi
	xorq	%rax, %rax
	movq	%rcx, (%rsp)
	movq	8(%rsp), %rsi           # 8-byte Reload
	movq	%r15, %rdx
	movq	%r13, %rcx
	movq	%r12, %r8
	movq	%rbx, %r9
	callq	gen_rtvec
	movq	$39, %rdi
	xorq	%rsi, %rsi
	movq	%rax, %rdx
	addq	$16, %rsp
	popq	%rbx
	popq	%r12
	popq	%r13
	popq	%r14
	popq	%r15
	jmp	gen_rtx_fmt_E  # TAILCALL
.Ltmp1205:
	.size	gen_rep_stosqi_rex64, .Ltmp1205-gen_rep_stosqi_rex64
	.cfi_endproc

	.globl	gen_cmpstrqi_nz_1
	.align	16, 0x90
	.type	gen_cmpstrqi_nz_1,@function
gen_cmpstrqi_nz_1:                      # @gen_cmpstrqi_nz_1
	.cfi_startproc
# BB#0:                                 # %entry
	pushq	%r15
.Ltmp1212:
	.cfi_def_cfa_offset 16
	pushq	%r14
.Ltmp1213:
	.cfi_def_cfa_offset 24
	pushq	%r13
.Ltmp1214:
	.cfi_def_cfa_offset 32
	pushq	%r12
.Ltmp1215:
	.cfi_def_cfa_offset 40
	pushq	%rbx
.Ltmp1216:
	.cfi_def_cfa_offset 48
	subq	$48, %rsp
.Ltmp1217:
	.cfi_def_cfa_offset 96
.Ltmp1218:
	.cfi_offset %rbx, -48
.Ltmp1219:
	.cfi_offset %r12, -40
.Ltmp1220:
	.cfi_offset %r13, -32
.Ltmp1221:
	.cfi_offset %r14, -24
.Ltmp1222:
	.cfi_offset %r15, -16
	movq	96(%rsp), %r12
	movq	%r9, %r13
	movq	%r8, %rbx
	movq	%rcx, %r14
	movq	%rdx, 40(%rsp)          # 8-byte Spill
	movq	%rsi, 32(%rsp)          # 8-byte Spill
	movq	%rdi, 24(%rsp)          # 8-byte Spill
	movq	$52, %rdi
	movq	$17, %rsi
	callq	gen_rtx_REG
	movq	%rax, %r15
	movq	$51, %rdi
	movq	%rbx, %rsi
	callq	gen_rtx_MEM
	movq	%rax, %rbx
	movq	$51, %rdi
	movq	%r13, %rsi
	callq	gen_rtx_MEM
	movq	$74, %rdi
	movq	$52, %rsi
	movq	%rbx, %rdx
	movq	%rax, %rcx
	callq	gen_rtx_fmt_ee
	movq	$47, %rdi
	xorq	%rsi, %rsi
	movq	%r15, %rdx
	movq	%rax, %rcx
	callq	gen_rtx_fmt_ee
	movq	%rax, 16(%rsp)          # 8-byte Spill
	movq	$48, %rdi
	xorq	%rsi, %rsi
	movq	%r12, %rdx
	callq	gen_rtx_fmt_e
	movq	%rax, %r15
	movq	$48, %rdi
	xorq	%rsi, %rsi
	movq	%r14, %rdx
	callq	gen_rtx_fmt_e
	movq	%rax, %r14
	movq	$4, %rdi
	movq	$19, %rsi
	callq	gen_rtx_REG
	movq	$48, %rdi
	xorq	%rsi, %rsi
	movq	%rax, %rdx
	callq	gen_rtx_fmt_e
	movq	%rax, %r12
	movq	$49, %rdi
	xorq	%rsi, %rsi
	movq	24(%rsp), %rdx          # 8-byte Reload
	callq	gen_rtx_fmt_e
	movq	%rax, %rbx
	movq	$49, %rdi
	xorq	%rsi, %rsi
	movq	32(%rsp), %rdx          # 8-byte Reload
	callq	gen_rtx_fmt_e
	movq	%rax, %r13
	movq	$49, %rdi
	xorq	%rsi, %rsi
	movq	40(%rsp), %rdx          # 8-byte Reload
	callq	gen_rtx_fmt_e
	movq	%rax, 8(%rsp)
	movq	$7, %rdi
	xorq	%rax, %rax
	movq	%r13, (%rsp)
	movq	16(%rsp), %rsi          # 8-byte Reload
	movq	%r15, %rdx
	movq	%r14, %rcx
	movq	%r12, %r8
	movq	%rbx, %r9
	callq	gen_rtvec
	movq	$39, %rdi
	xorq	%rsi, %rsi
	movq	%rax, %rdx
	addq	$48, %rsp
	popq	%rbx
	popq	%r12
	popq	%r13
	popq	%r14
	popq	%r15
	jmp	gen_rtx_fmt_E  # TAILCALL
.Ltmp1223:
	.size	gen_cmpstrqi_nz_1, .Ltmp1223-gen_cmpstrqi_nz_1
	.cfi_endproc

	.globl	gen_cmpstrqi_nz_rex_1
	.align	16, 0x90
	.type	gen_cmpstrqi_nz_rex_1,@function
gen_cmpstrqi_nz_rex_1:                  # @gen_cmpstrqi_nz_rex_1
	.cfi_startproc
# BB#0:                                 # %entry
	pushq	%r15
.Ltmp1230:
	.cfi_def_cfa_offset 16
	pushq	%r14
.Ltmp1231:
	.cfi_def_cfa_offset 24
	pushq	%r13
.Ltmp1232:
	.cfi_def_cfa_offset 32
	pushq	%r12
.Ltmp1233:
	.cfi_def_cfa_offset 40
	pushq	%rbx
.Ltmp1234:
	.cfi_def_cfa_offset 48
	subq	$48, %rsp
.Ltmp1235:
	.cfi_def_cfa_offset 96
.Ltmp1236:
	.cfi_offset %rbx, -48
.Ltmp1237:
	.cfi_offset %r12, -40
.Ltmp1238:
	.cfi_offset %r13, -32
.Ltmp1239:
	.cfi_offset %r14, -24
.Ltmp1240:
	.cfi_offset %r15, -16
	movq	96(%rsp), %r12
	movq	%r9, %r13
	movq	%r8, %rbx
	movq	%rcx, %r14
	movq	%rdx, 40(%rsp)          # 8-byte Spill
	movq	%rsi, 32(%rsp)          # 8-byte Spill
	movq	%rdi, 24(%rsp)          # 8-byte Spill
	movq	$52, %rdi
	movq	$17, %rsi
	callq	gen_rtx_REG
	movq	%rax, %r15
	movq	$51, %rdi
	movq	%rbx, %rsi
	callq	gen_rtx_MEM
	movq	%rax, %rbx
	movq	$51, %rdi
	movq	%r13, %rsi
	callq	gen_rtx_MEM
	movq	$74, %rdi
	movq	$52, %rsi
	movq	%rbx, %rdx
	movq	%rax, %rcx
	callq	gen_rtx_fmt_ee
	movq	$47, %rdi
	xorq	%rsi, %rsi
	movq	%r15, %rdx
	movq	%rax, %rcx
	callq	gen_rtx_fmt_ee
	movq	%rax, 16(%rsp)          # 8-byte Spill
	movq	$48, %rdi
	xorq	%rsi, %rsi
	movq	%r12, %rdx
	callq	gen_rtx_fmt_e
	movq	%rax, %r15
	movq	$48, %rdi
	xorq	%rsi, %rsi
	movq	%r14, %rdx
	callq	gen_rtx_fmt_e
	movq	%rax, %r14
	movq	$4, %rdi
	movq	$19, %rsi
	callq	gen_rtx_REG
	movq	$48, %rdi
	xorq	%rsi, %rsi
	movq	%rax, %rdx
	callq	gen_rtx_fmt_e
	movq	%rax, %r12
	movq	$49, %rdi
	xorq	%rsi, %rsi
	movq	24(%rsp), %rdx          # 8-byte Reload
	callq	gen_rtx_fmt_e
	movq	%rax, %rbx
	movq	$49, %rdi
	xorq	%rsi, %rsi
	movq	32(%rsp), %rdx          # 8-byte Reload
	callq	gen_rtx_fmt_e
	movq	%rax, %r13
	movq	$49, %rdi
	xorq	%rsi, %rsi
	movq	40(%rsp), %rdx          # 8-byte Reload
	callq	gen_rtx_fmt_e
	movq	%rax, 8(%rsp)
	movq	$7, %rdi
	xorq	%rax, %rax
	movq	%r13, (%rsp)
	movq	16(%rsp), %rsi          # 8-byte Reload
	movq	%r15, %rdx
	movq	%r14, %rcx
	movq	%r12, %r8
	movq	%rbx, %r9
	callq	gen_rtvec
	movq	$39, %rdi
	xorq	%rsi, %rsi
	movq	%rax, %rdx
	addq	$48, %rsp
	popq	%rbx
	popq	%r12
	popq	%r13
	popq	%r14
	popq	%r15
	jmp	gen_rtx_fmt_E  # TAILCALL
.Ltmp1241:
	.size	gen_cmpstrqi_nz_rex_1, .Ltmp1241-gen_cmpstrqi_nz_rex_1
	.cfi_endproc

	.globl	gen_cmpstrqi_1
	.align	16, 0x90
	.type	gen_cmpstrqi_1,@function
gen_cmpstrqi_1:                         # @gen_cmpstrqi_1
	.cfi_startproc
# BB#0:                                 # %entry
	pushq	%r15
.Ltmp1248:
	.cfi_def_cfa_offset 16
	pushq	%r14
.Ltmp1249:
	.cfi_def_cfa_offset 24
	pushq	%r13
.Ltmp1250:
	.cfi_def_cfa_offset 32
	pushq	%r12
.Ltmp1251:
	.cfi_def_cfa_offset 40
	pushq	%rbx
.Ltmp1252:
	.cfi_def_cfa_offset 48
	subq	$64, %rsp
.Ltmp1253:
	.cfi_def_cfa_offset 112
.Ltmp1254:
	.cfi_offset %rbx, -48
.Ltmp1255:
	.cfi_offset %r12, -40
.Ltmp1256:
	.cfi_offset %r13, -32
.Ltmp1257:
	.cfi_offset %r14, -24
.Ltmp1258:
	.cfi_offset %r15, -16
	movq	112(%rsp), %r15
	movq	%r9, %r14
	movq	%r8, %r12
	movq	%rcx, 24(%rsp)          # 8-byte Spill
	movq	%rdx, 56(%rsp)          # 8-byte Spill
	movq	%rsi, 48(%rsp)          # 8-byte Spill
	movq	%rdi, 40(%rsp)          # 8-byte Spill
	movq	$52, %rdi
	movq	$17, %rsi
	callq	gen_rtx_REG
	movq	const_int_rtx+512(%rip), %rcx
	movq	%rax, %r13
	movq	$102, %rdi
	xorq	%rsi, %rsi
	movq	%r15, %rdx
	callq	gen_rtx_fmt_ee
	movq	%rax, %r15
	movq	$51, %rdi
	movq	%r12, %rsi
	callq	gen_rtx_MEM
	movq	%rax, %rbx
	movq	$51, %rdi
	movq	%r14, %rsi
	callq	gen_rtx_MEM
	movq	$74, %rdi
	movq	$52, %rsi
	movq	%rbx, %rdx
	movq	%rax, %rcx
	callq	gen_rtx_fmt_ee
	movq	const_int_rtx+512(%rip), %r8
	movq	$72, %rdi
	movq	$52, %rsi
	movq	%r15, %rdx
	movq	%rax, %rcx
	callq	gen_rtx_fmt_eee
	movq	$47, %rdi
	xorq	%rsi, %rsi
	movq	%r13, %rdx
	movq	%rax, %rcx
	callq	gen_rtx_fmt_ee
	movq	%rax, 32(%rsp)          # 8-byte Spill
	movq	$48, %rdi
	xorq	%rsi, %rsi
	movq	24(%rsp), %rdx          # 8-byte Reload
	callq	gen_rtx_fmt_e
	movq	%rax, %r12
	movq	$52, %rdi
	movq	$17, %rsi
	callq	gen_rtx_REG
	movq	$48, %rdi
	xorq	%rsi, %rsi
	movq	%rax, %rdx
	callq	gen_rtx_fmt_e
	movq	%rax, %r14
	movq	$4, %rdi
	movq	$19, %rsi
	callq	gen_rtx_REG
	movq	$48, %rdi
	xorq	%rsi, %rsi
	movq	%rax, %rdx
	callq	gen_rtx_fmt_e
	movq	%rax, %r15
	movq	$49, %rdi
	xorq	%rsi, %rsi
	movq	40(%rsp), %rdx          # 8-byte Reload
	callq	gen_rtx_fmt_e
	movq	%rax, %rbx
	movq	$49, %rdi
	xorq	%rsi, %rsi
	movq	48(%rsp), %rdx          # 8-byte Reload
	callq	gen_rtx_fmt_e
	movq	%rax, %r13
	movq	$49, %rdi
	xorq	%rsi, %rsi
	movq	56(%rsp), %rdx          # 8-byte Reload
	callq	gen_rtx_fmt_e
	movq	%rax, 8(%rsp)
	movq	$7, %rdi
	xorq	%rax, %rax
	movq	%r13, (%rsp)
	movq	32(%rsp), %rsi          # 8-byte Reload
	movq	%r12, %rdx
	movq	%r14, %rcx
	movq	%r15, %r8
	movq	%rbx, %r9
	callq	gen_rtvec
	movq	$39, %rdi
	xorq	%rsi, %rsi
	movq	%rax, %rdx
	addq	$64, %rsp
	popq	%rbx
	popq	%r12
	popq	%r13
	popq	%r14
	popq	%r15
	jmp	gen_rtx_fmt_E  # TAILCALL
.Ltmp1259:
	.size	gen_cmpstrqi_1, .Ltmp1259-gen_cmpstrqi_1
	.cfi_endproc

	.globl	gen_cmpstrqi_rex_1
	.align	16, 0x90
	.type	gen_cmpstrqi_rex_1,@function
gen_cmpstrqi_rex_1:                     # @gen_cmpstrqi_rex_1
	.cfi_startproc
# BB#0:                                 # %entry
	pushq	%r15
.Ltmp1266:
	.cfi_def_cfa_offset 16
	pushq	%r14
.Ltmp1267:
	.cfi_def_cfa_offset 24
	pushq	%r13
.Ltmp1268:
	.cfi_def_cfa_offset 32
	pushq	%r12
.Ltmp1269:
	.cfi_def_cfa_offset 40
	pushq	%rbx
.Ltmp1270:
	.cfi_def_cfa_offset 48
	subq	$64, %rsp
.Ltmp1271:
	.cfi_def_cfa_offset 112
.Ltmp1272:
	.cfi_offset %rbx, -48
.Ltmp1273:
	.cfi_offset %r12, -40
.Ltmp1274:
	.cfi_offset %r13, -32
.Ltmp1275:
	.cfi_offset %r14, -24
.Ltmp1276:
	.cfi_offset %r15, -16
	movq	112(%rsp), %r15
	movq	%r9, %r14
	movq	%r8, %r12
	movq	%rcx, 24(%rsp)          # 8-byte Spill
	movq	%rdx, 56(%rsp)          # 8-byte Spill
	movq	%rsi, 48(%rsp)          # 8-byte Spill
	movq	%rdi, 40(%rsp)          # 8-byte Spill
	movq	$52, %rdi
	movq	$17, %rsi
	callq	gen_rtx_REG
	movq	const_int_rtx+512(%rip), %rcx
	movq	%rax, %r13
	movq	$102, %rdi
	xorq	%rsi, %rsi
	movq	%r15, %rdx
	callq	gen_rtx_fmt_ee
	movq	%rax, %r15
	movq	$51, %rdi
	movq	%r12, %rsi
	callq	gen_rtx_MEM
	movq	%rax, %rbx
	movq	$51, %rdi
	movq	%r14, %rsi
	callq	gen_rtx_MEM
	movq	$74, %rdi
	movq	$52, %rsi
	movq	%rbx, %rdx
	movq	%rax, %rcx
	callq	gen_rtx_fmt_ee
	movq	const_int_rtx+512(%rip), %r8
	movq	$72, %rdi
	movq	$52, %rsi
	movq	%r15, %rdx
	movq	%rax, %rcx
	callq	gen_rtx_fmt_eee
	movq	$47, %rdi
	xorq	%rsi, %rsi
	movq	%r13, %rdx
	movq	%rax, %rcx
	callq	gen_rtx_fmt_ee
	movq	%rax, 32(%rsp)          # 8-byte Spill
	movq	$48, %rdi
	xorq	%rsi, %rsi
	movq	24(%rsp), %rdx          # 8-byte Reload
	callq	gen_rtx_fmt_e
	movq	%rax, %r12
	movq	$52, %rdi
	movq	$17, %rsi
	callq	gen_rtx_REG
	movq	$48, %rdi
	xorq	%rsi, %rsi
	movq	%rax, %rdx
	callq	gen_rtx_fmt_e
	movq	%rax, %r14
	movq	$4, %rdi
	movq	$19, %rsi
	callq	gen_rtx_REG
	movq	$48, %rdi
	xorq	%rsi, %rsi
	movq	%rax, %rdx
	callq	gen_rtx_fmt_e
	movq	%rax, %r15
	movq	$49, %rdi
	xorq	%rsi, %rsi
	movq	40(%rsp), %rdx          # 8-byte Reload
	callq	gen_rtx_fmt_e
	movq	%rax, %rbx
	movq	$49, %rdi
	xorq	%rsi, %rsi
	movq	48(%rsp), %rdx          # 8-byte Reload
	callq	gen_rtx_fmt_e
	movq	%rax, %r13
	movq	$49, %rdi
	xorq	%rsi, %rsi
	movq	56(%rsp), %rdx          # 8-byte Reload
	callq	gen_rtx_fmt_e
	movq	%rax, 8(%rsp)
	movq	$7, %rdi
	xorq	%rax, %rax
	movq	%r13, (%rsp)
	movq	32(%rsp), %rsi          # 8-byte Reload
	movq	%r12, %rdx
	movq	%r14, %rcx
	movq	%r15, %r8
	movq	%rbx, %r9
	callq	gen_rtvec
	movq	$39, %rdi
	xorq	%rsi, %rsi
	movq	%rax, %rdx
	addq	$64, %rsp
	popq	%rbx
	popq	%r12
	popq	%r13
	popq	%r14
	popq	%r15
	jmp	gen_rtx_fmt_E  # TAILCALL
.Ltmp1277:
	.size	gen_cmpstrqi_rex_1, .Ltmp1277-gen_cmpstrqi_rex_1
	.cfi_endproc

	.globl	gen_strlenqi_1
	.align	16, 0x90
	.type	gen_strlenqi_1,@function
gen_strlenqi_1:                         # @gen_strlenqi_1
	.cfi_startproc
# BB#0:                                 # %entry
	pushq	%r15
.Ltmp1284:
	.cfi_def_cfa_offset 16
	pushq	%r14
.Ltmp1285:
	.cfi_def_cfa_offset 24
	pushq	%r13
.Ltmp1286:
	.cfi_def_cfa_offset 32
	pushq	%r12
.Ltmp1287:
	.cfi_def_cfa_offset 40
	pushq	%rbx
.Ltmp1288:
	.cfi_def_cfa_offset 48
.Ltmp1289:
	.cfi_offset %rbx, -48
.Ltmp1290:
	.cfi_offset %r12, -40
.Ltmp1291:
	.cfi_offset %r13, -32
.Ltmp1292:
	.cfi_offset %r14, -24
.Ltmp1293:
	.cfi_offset %r15, -16
	movq	%r8, %r15
	movq	%rcx, %r12
	movq	%rdx, %rbx
	movq	%rsi, %r14
	movq	%rdi, %r13
	movq	$51, %rdi
	movq	%r9, %rsi
	callq	gen_rtx_MEM
	movq	%rax, %rcx
	movq	$4, %rdi
	xorq	%rax, %rax
	movq	%rcx, %rsi
	movq	%rbx, %rdx
	movq	%r12, %rcx
	movq	%r15, %r8
	callq	gen_rtvec
	movq	$42, %rdi
	movq	$4, %rsi
	xorq	%rcx, %rcx
	movq	%rax, %rdx
	callq	gen_rtx_fmt_Ei
	movq	$47, %rdi
	xorq	%rsi, %rsi
	movq	%r13, %rdx
	movq	%rax, %rcx
	callq	gen_rtx_fmt_ee
	movq	%rax, %r15
	movq	$4, %rdi
	movq	$19, %rsi
	callq	gen_rtx_REG
	movq	$48, %rdi
	xorq	%rsi, %rsi
	movq	%rax, %rdx
	callq	gen_rtx_fmt_e
	movq	%rax, %r12
	movq	$49, %rdi
	xorq	%rsi, %rsi
	movq	%r14, %rdx
	callq	gen_rtx_fmt_e
	movq	%rax, %r14
	movq	$52, %rdi
	movq	$17, %rsi
	callq	gen_rtx_REG
	movq	$49, %rdi
	xorq	%rsi, %rsi
	movq	%rax, %rdx
	callq	gen_rtx_fmt_e
	movq	%rax, %rbx
	movq	$4, %rdi
	xorq	%rax, %rax
	movq	%r15, %rsi
	movq	%r12, %rdx
	movq	%r14, %rcx
	movq	%rbx, %r8
	callq	gen_rtvec
	movq	$39, %rdi
	xorq	%rsi, %rsi
	movq	%rax, %rdx
	popq	%rbx
	popq	%r12
	popq	%r13
	popq	%r14
	popq	%r15
	jmp	gen_rtx_fmt_E  # TAILCALL
.Ltmp1294:
	.size	gen_strlenqi_1, .Ltmp1294-gen_strlenqi_1
	.cfi_endproc

	.globl	gen_strlenqi_rex_1
	.align	16, 0x90
	.type	gen_strlenqi_rex_1,@function
gen_strlenqi_rex_1:                     # @gen_strlenqi_rex_1
	.cfi_startproc
# BB#0:                                 # %entry
	pushq	%r15
.Ltmp1301:
	.cfi_def_cfa_offset 16
	pushq	%r14
.Ltmp1302:
	.cfi_def_cfa_offset 24
	pushq	%r13
.Ltmp1303:
	.cfi_def_cfa_offset 32
	pushq	%r12
.Ltmp1304:
	.cfi_def_cfa_offset 40
	pushq	%rbx
.Ltmp1305:
	.cfi_def_cfa_offset 48
.Ltmp1306:
	.cfi_offset %rbx, -48
.Ltmp1307:
	.cfi_offset %r12, -40
.Ltmp1308:
	.cfi_offset %r13, -32
.Ltmp1309:
	.cfi_offset %r14, -24
.Ltmp1310:
	.cfi_offset %r15, -16
	movq	%r8, %r15
	movq	%rcx, %r12
	movq	%rdx, %rbx
	movq	%rsi, %r14
	movq	%rdi, %r13
	movq	$51, %rdi
	movq	%r9, %rsi
	callq	gen_rtx_MEM
	movq	%rax, %rcx
	movq	$4, %rdi
	xorq	%rax, %rax
	movq	%rcx, %rsi
	movq	%rbx, %rdx
	movq	%r12, %rcx
	movq	%r15, %r8
	callq	gen_rtvec
	movq	$42, %rdi
	movq	$5, %rsi
	xorq	%rcx, %rcx
	movq	%rax, %rdx
	callq	gen_rtx_fmt_Ei
	movq	$47, %rdi
	xorq	%rsi, %rsi
	movq	%r13, %rdx
	movq	%rax, %rcx
	callq	gen_rtx_fmt_ee
	movq	%rax, %r15
	movq	$4, %rdi
	movq	$19, %rsi
	callq	gen_rtx_REG
	movq	$48, %rdi
	xorq	%rsi, %rsi
	movq	%rax, %rdx
	callq	gen_rtx_fmt_e
	movq	%rax, %r12
	movq	$49, %rdi
	xorq	%rsi, %rsi
	movq	%r14, %rdx
	callq	gen_rtx_fmt_e
	movq	%rax, %r14
	movq	$52, %rdi
	movq	$17, %rsi
	callq	gen_rtx_REG
	movq	$49, %rdi
	xorq	%rsi, %rsi
	movq	%rax, %rdx
	callq	gen_rtx_fmt_e
	movq	%rax, %rbx
	movq	$4, %rdi
	xorq	%rax, %rax
	movq	%r15, %rsi
	movq	%r12, %rdx
	movq	%r14, %rcx
	movq	%rbx, %r8
	callq	gen_rtvec
	movq	$39, %rdi
	xorq	%rsi, %rsi
	movq	%rax, %rdx
	popq	%rbx
	popq	%r12
	popq	%r13
	popq	%r14
	popq	%r15
	jmp	gen_rtx_fmt_E  # TAILCALL
.Ltmp1311:
	.size	gen_strlenqi_rex_1, .Ltmp1311-gen_strlenqi_rex_1
	.cfi_endproc

	.globl	gen_x86_movdicc_0_m1_rex64
	.align	16, 0x90
	.type	gen_x86_movdicc_0_m1_rex64,@function
gen_x86_movdicc_0_m1_rex64:             # @gen_x86_movdicc_0_m1_rex64
	.cfi_startproc
# BB#0:                                 # %entry
	pushq	%rbx
.Ltmp1314:
	.cfi_def_cfa_offset 16
.Ltmp1315:
	.cfi_offset %rbx, -16
	movq	%rdi, %rbx
	movq	$52, %rdi
	movq	$17, %rsi
	callq	gen_rtx_REG
	movq	const_int_rtx+512(%rip), %rcx
	movq	$111, %rdi
	xorq	%rsi, %rsi
	movq	%rax, %rdx
	callq	gen_rtx_fmt_ee
	movq	const_int_rtx+504(%rip), %rcx
	movq	const_int_rtx+512(%rip), %r8
	movq	$72, %rdi
	movq	$5, %rsi
	movq	%rax, %rdx
	callq	gen_rtx_fmt_eee
	movq	$47, %rdi
	xorq	%rsi, %rsi
	movq	%rbx, %rdx
	movq	%rax, %rcx
	callq	gen_rtx_fmt_ee
	movq	%rax, %rbx
	movq	$52, %rdi
	movq	$17, %rsi
	callq	gen_rtx_REG
	movq	$49, %rdi
	xorq	%rsi, %rsi
	movq	%rax, %rdx
	callq	gen_rtx_fmt_e
	movq	%rax, %rcx
	movq	$2, %rdi
	xorq	%rax, %rax
	movq	%rbx, %rsi
	movq	%rcx, %rdx
	callq	gen_rtvec
	movq	$39, %rdi
	xorq	%rsi, %rsi
	movq	%rax, %rdx
	popq	%rbx
	jmp	gen_rtx_fmt_E  # TAILCALL
.Ltmp1316:
	.size	gen_x86_movdicc_0_m1_rex64, .Ltmp1316-gen_x86_movdicc_0_m1_rex64
	.cfi_endproc

	.globl	gen_x86_movsicc_0_m1
	.align	16, 0x90
	.type	gen_x86_movsicc_0_m1,@function
gen_x86_movsicc_0_m1:                   # @gen_x86_movsicc_0_m1
	.cfi_startproc
# BB#0:                                 # %entry
	pushq	%rbx
.Ltmp1319:
	.cfi_def_cfa_offset 16
.Ltmp1320:
	.cfi_offset %rbx, -16
	movq	%rdi, %rbx
	movq	$52, %rdi
	movq	$17, %rsi
	callq	gen_rtx_REG
	movq	const_int_rtx+512(%rip), %rcx
	movq	$111, %rdi
	xorq	%rsi, %rsi
	movq	%rax, %rdx
	callq	gen_rtx_fmt_ee
	movq	const_int_rtx+504(%rip), %rcx
	movq	const_int_rtx+512(%rip), %r8
	movq	$72, %rdi
	movq	$4, %rsi
	movq	%rax, %rdx
	callq	gen_rtx_fmt_eee
	movq	$47, %rdi
	xorq	%rsi, %rsi
	movq	%rbx, %rdx
	movq	%rax, %rcx
	callq	gen_rtx_fmt_ee
	movq	%rax, %rbx
	movq	$52, %rdi
	movq	$17, %rsi
	callq	gen_rtx_REG
	movq	$49, %rdi
	xorq	%rsi, %rsi
	movq	%rax, %rdx
	callq	gen_rtx_fmt_e
	movq	%rax, %rcx
	movq	$2, %rdi
	xorq	%rax, %rax
	movq	%rbx, %rsi
	movq	%rcx, %rdx
	callq	gen_rtvec
	movq	$39, %rdi
	xorq	%rsi, %rsi
	movq	%rax, %rdx
	popq	%rbx
	jmp	gen_rtx_fmt_E  # TAILCALL
.Ltmp1321:
	.size	gen_x86_movsicc_0_m1, .Ltmp1321-gen_x86_movsicc_0_m1
	.cfi_endproc

	.globl	gen_pro_epilogue_adjust_stack_rex64
	.align	16, 0x90
	.type	gen_pro_epilogue_adjust_stack_rex64,@function
gen_pro_epilogue_adjust_stack_rex64:    # @gen_pro_epilogue_adjust_stack_rex64
	.cfi_startproc
# BB#0:                                 # %entry
	pushq	%r14
.Ltmp1325:
	.cfi_def_cfa_offset 16
	pushq	%rbx
.Ltmp1326:
	.cfi_def_cfa_offset 24
	pushq	%rax
.Ltmp1327:
	.cfi_def_cfa_offset 32
.Ltmp1328:
	.cfi_offset %rbx, -24
.Ltmp1329:
	.cfi_offset %r14, -16
	movq	%rdx, %rax
	movq	%rsi, %rcx
	movq	%rdi, %rbx
	movq	$75, %rdi
	movq	$5, %rsi
	movq	%rcx, %rdx
	movq	%rax, %rcx
	callq	gen_rtx_fmt_ee
	movq	$47, %rdi
	xorq	%rsi, %rsi
	movq	%rbx, %rdx
	movq	%rax, %rcx
	callq	gen_rtx_fmt_ee
	movq	%rax, %r14
	movq	$52, %rdi
	movq	$17, %rsi
	callq	gen_rtx_REG
	movq	$49, %rdi
	xorq	%rsi, %rsi
	movq	%rax, %rdx
	callq	gen_rtx_fmt_e
	movq	%rax, %rbx
	movq	$62, %rdi
	xorq	%rsi, %rsi
	callq	gen_rtx_fmt_0
	movq	$51, %rdi
	movq	%rax, %rsi
	callq	gen_rtx_MEM
	movq	$49, %rdi
	xorq	%rsi, %rsi
	movq	%rax, %rdx
	callq	gen_rtx_fmt_e
	movq	%rax, %rcx
	movq	$3, %rdi
	xorq	%rax, %rax
	movq	%r14, %rsi
	movq	%rbx, %rdx
	callq	gen_rtvec
	movq	$39, %rdi
	xorq	%rsi, %rsi
	movq	%rax, %rdx
	addq	$8, %rsp
	popq	%rbx
	popq	%r14
	jmp	gen_rtx_fmt_E  # TAILCALL
.Ltmp1330:
	.size	gen_pro_epilogue_adjust_stack_rex64, .Ltmp1330-gen_pro_epilogue_adjust_stack_rex64
	.cfi_endproc

	.globl	gen_sse_movsfcc
	.align	16, 0x90
	.type	gen_sse_movsfcc,@function
gen_sse_movsfcc:                        # @gen_sse_movsfcc
	.cfi_startproc
# BB#0:                                 # %entry
	pushq	%r15
.Ltmp1336:
	.cfi_def_cfa_offset 16
	pushq	%r14
.Ltmp1337:
	.cfi_def_cfa_offset 24
	pushq	%r12
.Ltmp1338:
	.cfi_def_cfa_offset 32
	pushq	%rbx
.Ltmp1339:
	.cfi_def_cfa_offset 40
	pushq	%rax
.Ltmp1340:
	.cfi_def_cfa_offset 48
.Ltmp1341:
	.cfi_offset %rbx, -40
.Ltmp1342:
	.cfi_offset %r12, -32
.Ltmp1343:
	.cfi_offset %r14, -24
.Ltmp1344:
	.cfi_offset %r15, -16
	movzbl	(%rsi), %ebx
	movq	%rcx, %r14
	movq	%rdx, %r15
	movq	%rdi, %r12
	xorq	%rsi, %rsi
	xorq	%rax, %rax
	movq	%rbx, %rdi
	movq	%r8, %rdx
	movq	%r9, %rcx
	callq	gen_rtx
	movq	$72, %rdi
	movq	$15, %rsi
	movq	%rax, %rdx
	movq	%r15, %rcx
	movq	%r14, %r8
	callq	gen_rtx_fmt_eee
	movq	$47, %rdi
	xorq	%rsi, %rsi
	movq	%r12, %rdx
	movq	%rax, %rcx
	callq	gen_rtx_fmt_ee
	movq	%rax, %r14
	movq	$62, %rdi
	movq	$15, %rsi
	callq	gen_rtx_fmt_0
	movq	$49, %rdi
	xorq	%rsi, %rsi
	movq	%rax, %rdx
	callq	gen_rtx_fmt_e
	movq	%rax, %rbx
	movq	$52, %rdi
	movq	$17, %rsi
	callq	gen_rtx_REG
	movq	$49, %rdi
	xorq	%rsi, %rsi
	movq	%rax, %rdx
	callq	gen_rtx_fmt_e
	movq	%rax, %rcx
	movq	$3, %rdi
	xorq	%rax, %rax
	movq	%r14, %rsi
	movq	%rbx, %rdx
	callq	gen_rtvec
	movq	$39, %rdi
	xorq	%rsi, %rsi
	movq	%rax, %rdx
	addq	$8, %rsp
	popq	%rbx
	popq	%r12
	popq	%r14
	popq	%r15
	jmp	gen_rtx_fmt_E  # TAILCALL
.Ltmp1345:
	.size	gen_sse_movsfcc, .Ltmp1345-gen_sse_movsfcc
	.cfi_endproc

	.globl	gen_sse_movsfcc_eq
	.align	16, 0x90
	.type	gen_sse_movsfcc_eq,@function
gen_sse_movsfcc_eq:                     # @gen_sse_movsfcc_eq
	.cfi_startproc
# BB#0:                                 # %entry
	pushq	%r15
.Ltmp1350:
	.cfi_def_cfa_offset 16
	pushq	%r14
.Ltmp1351:
	.cfi_def_cfa_offset 24
	pushq	%rbx
.Ltmp1352:
	.cfi_def_cfa_offset 32
.Ltmp1353:
	.cfi_offset %rbx, -32
.Ltmp1354:
	.cfi_offset %r14, -24
.Ltmp1355:
	.cfi_offset %r15, -16
	movq	%rdx, %r14
	movq	%rsi, %rbx
	movq	%rdi, %r15
	movq	$103, %rdi
	xorq	%rsi, %rsi
	movq	%rcx, %rdx
	movq	%r8, %rcx
	callq	gen_rtx_fmt_ee
	movq	$72, %rdi
	movq	$15, %rsi
	movq	%rax, %rdx
	movq	%rbx, %rcx
	movq	%r14, %r8
	callq	gen_rtx_fmt_eee
	movq	$47, %rdi
	xorq	%rsi, %rsi
	movq	%r15, %rdx
	movq	%rax, %rcx
	callq	gen_rtx_fmt_ee
	movq	%rax, %r14
	movq	$62, %rdi
	movq	$15, %rsi
	callq	gen_rtx_fmt_0
	movq	$49, %rdi
	xorq	%rsi, %rsi
	movq	%rax, %rdx
	callq	gen_rtx_fmt_e
	movq	%rax, %rbx
	movq	$52, %rdi
	movq	$17, %rsi
	callq	gen_rtx_REG
	movq	$49, %rdi
	xorq	%rsi, %rsi
	movq	%rax, %rdx
	callq	gen_rtx_fmt_e
	movq	%rax, %rcx
	movq	$3, %rdi
	xorq	%rax, %rax
	movq	%r14, %rsi
	movq	%rbx, %rdx
	callq	gen_rtvec
	movq	$39, %rdi
	xorq	%rsi, %rsi
	movq	%rax, %rdx
	popq	%rbx
	popq	%r14
	popq	%r15
	jmp	gen_rtx_fmt_E  # TAILCALL
.Ltmp1356:
	.size	gen_sse_movsfcc_eq, .Ltmp1356-gen_sse_movsfcc_eq
	.cfi_endproc

	.globl	gen_sse_movdfcc
	.align	16, 0x90
	.type	gen_sse_movdfcc,@function
gen_sse_movdfcc:                        # @gen_sse_movdfcc
	.cfi_startproc
# BB#0:                                 # %entry
	pushq	%r15
.Ltmp1362:
	.cfi_def_cfa_offset 16
	pushq	%r14
.Ltmp1363:
	.cfi_def_cfa_offset 24
	pushq	%r12
.Ltmp1364:
	.cfi_def_cfa_offset 32
	pushq	%rbx
.Ltmp1365:
	.cfi_def_cfa_offset 40
	pushq	%rax
.Ltmp1366:
	.cfi_def_cfa_offset 48
.Ltmp1367:
	.cfi_offset %rbx, -40
.Ltmp1368:
	.cfi_offset %r12, -32
.Ltmp1369:
	.cfi_offset %r14, -24
.Ltmp1370:
	.cfi_offset %r15, -16
	movzbl	(%rsi), %ebx
	movq	%rcx, %r14
	movq	%rdx, %r15
	movq	%rdi, %r12
	xorq	%rsi, %rsi
	xorq	%rax, %rax
	movq	%rbx, %rdi
	movq	%r8, %rdx
	movq	%r9, %rcx
	callq	gen_rtx
	movq	$72, %rdi
	movq	$16, %rsi
	movq	%rax, %rdx
	movq	%r15, %rcx
	movq	%r14, %r8
	callq	gen_rtx_fmt_eee
	movq	$47, %rdi
	xorq	%rsi, %rsi
	movq	%r12, %rdx
	movq	%rax, %rcx
	callq	gen_rtx_fmt_ee
	movq	%rax, %r14
	movq	$62, %rdi
	movq	$16, %rsi
	callq	gen_rtx_fmt_0
	movq	$49, %rdi
	xorq	%rsi, %rsi
	movq	%rax, %rdx
	callq	gen_rtx_fmt_e
	movq	%rax, %rbx
	movq	$52, %rdi
	movq	$17, %rsi
	callq	gen_rtx_REG
	movq	$49, %rdi
	xorq	%rsi, %rsi
	movq	%rax, %rdx
	callq	gen_rtx_fmt_e
	movq	%rax, %rcx
	movq	$3, %rdi
	xorq	%rax, %rax
	movq	%r14, %rsi
	movq	%rbx, %rdx
	callq	gen_rtvec
	movq	$39, %rdi
	xorq	%rsi, %rsi
	movq	%rax, %rdx
	addq	$8, %rsp
	popq	%rbx
	popq	%r12
	popq	%r14
	popq	%r15
	jmp	gen_rtx_fmt_E  # TAILCALL
.Ltmp1371:
	.size	gen_sse_movdfcc, .Ltmp1371-gen_sse_movdfcc
	.cfi_endproc

	.globl	gen_sse_movdfcc_eq
	.align	16, 0x90
	.type	gen_sse_movdfcc_eq,@function
gen_sse_movdfcc_eq:                     # @gen_sse_movdfcc_eq
	.cfi_startproc
# BB#0:                                 # %entry
	pushq	%r15
.Ltmp1376:
	.cfi_def_cfa_offset 16
	pushq	%r14
.Ltmp1377:
	.cfi_def_cfa_offset 24
	pushq	%rbx
.Ltmp1378:
	.cfi_def_cfa_offset 32
.Ltmp1379:
	.cfi_offset %rbx, -32
.Ltmp1380:
	.cfi_offset %r14, -24
.Ltmp1381:
	.cfi_offset %r15, -16
	movq	%rdx, %r14
	movq	%rsi, %rbx
	movq	%rdi, %r15
	movq	$103, %rdi
	xorq	%rsi, %rsi
	movq	%rcx, %rdx
	movq	%r8, %rcx
	callq	gen_rtx_fmt_ee
	movq	$72, %rdi
	movq	$16, %rsi
	movq	%rax, %rdx
	movq	%rbx, %rcx
	movq	%r14, %r8
	callq	gen_rtx_fmt_eee
	movq	$47, %rdi
	xorq	%rsi, %rsi
	movq	%r15, %rdx
	movq	%rax, %rcx
	callq	gen_rtx_fmt_ee
	movq	%rax, %r14
	movq	$62, %rdi
	movq	$16, %rsi
	callq	gen_rtx_fmt_0
	movq	$49, %rdi
	xorq	%rsi, %rsi
	movq	%rax, %rdx
	callq	gen_rtx_fmt_e
	movq	%rax, %rbx
	movq	$52, %rdi
	movq	$17, %rsi
	callq	gen_rtx_REG
	movq	$49, %rdi
	xorq	%rsi, %rsi
	movq	%rax, %rdx
	callq	gen_rtx_fmt_e
	movq	%rax, %rcx
	movq	$3, %rdi
	xorq	%rax, %rax
	movq	%r14, %rsi
	movq	%rbx, %rdx
	callq	gen_rtvec
	movq	$39, %rdi
	xorq	%rsi, %rsi
	movq	%rax, %rdx
	popq	%rbx
	popq	%r14
	popq	%r15
	jmp	gen_rtx_fmt_E  # TAILCALL
.Ltmp1382:
	.size	gen_sse_movdfcc_eq, .Ltmp1382-gen_sse_movdfcc_eq
	.cfi_endproc

	.globl	gen_allocate_stack_worker_1
	.align	16, 0x90
	.type	gen_allocate_stack_worker_1,@function
gen_allocate_stack_worker_1:            # @gen_allocate_stack_worker_1
	.cfi_startproc
# BB#0:                                 # %entry
	pushq	%r15
.Ltmp1388:
	.cfi_def_cfa_offset 16
	pushq	%r14
.Ltmp1389:
	.cfi_def_cfa_offset 24
	pushq	%r12
.Ltmp1390:
	.cfi_def_cfa_offset 32
	pushq	%rbx
.Ltmp1391:
	.cfi_def_cfa_offset 40
	pushq	%rax
.Ltmp1392:
	.cfi_def_cfa_offset 48
.Ltmp1393:
	.cfi_offset %rbx, -40
.Ltmp1394:
	.cfi_offset %r12, -32
.Ltmp1395:
	.cfi_offset %r14, -24
.Ltmp1396:
	.cfi_offset %r15, -16
	movq	%rdi, %rbx
	movq	$1, %rdi
	xorq	%rax, %rax
	movq	%rbx, %rsi
	callq	gen_rtvec
	movq	$42, %rdi
	movq	$4, %rsi
	movq	$3, %rcx
	movq	%rax, %rdx
	callq	gen_rtx_fmt_Ei
	movq	%rax, %r14
	movq	$4, %rdi
	movq	$7, %rsi
	callq	gen_rtx_REG
	movq	%rax, %r15
	movq	$4, %rdi
	movq	$7, %rsi
	callq	gen_rtx_REG
	movq	$76, %rdi
	movq	$4, %rsi
	movq	%rax, %rdx
	movq	%rbx, %rcx
	callq	gen_rtx_fmt_ee
	movq	$47, %rdi
	xorq	%rsi, %rsi
	movq	%r15, %rdx
	movq	%rax, %rcx
	callq	gen_rtx_fmt_ee
	movq	%rax, %r15
	movq	$49, %rdi
	xorq	%rsi, %rsi
	movq	%rbx, %rdx
	callq	gen_rtx_fmt_e
	movq	%rax, %r12
	movq	$52, %rdi
	movq	$17, %rsi
	callq	gen_rtx_REG
	movq	$49, %rdi
	xorq	%rsi, %rsi
	movq	%rax, %rdx
	callq	gen_rtx_fmt_e
	movq	%rax, %rbx
	movq	$4, %rdi
	xorq	%rax, %rax
	movq	%r14, %rsi
	movq	%r15, %rdx
	movq	%r12, %rcx
	movq	%rbx, %r8
	callq	gen_rtvec
	movq	$39, %rdi
	xorq	%rsi, %rsi
	movq	%rax, %rdx
	addq	$8, %rsp
	popq	%rbx
	popq	%r12
	popq	%r14
	popq	%r15
	jmp	gen_rtx_fmt_E  # TAILCALL
.Ltmp1397:
	.size	gen_allocate_stack_worker_1, .Ltmp1397-gen_allocate_stack_worker_1
	.cfi_endproc

	.globl	gen_allocate_stack_worker_rex64
	.align	16, 0x90
	.type	gen_allocate_stack_worker_rex64,@function
gen_allocate_stack_worker_rex64:        # @gen_allocate_stack_worker_rex64
	.cfi_startproc
# BB#0:                                 # %entry
	pushq	%r15
.Ltmp1403:
	.cfi_def_cfa_offset 16
	pushq	%r14
.Ltmp1404:
	.cfi_def_cfa_offset 24
	pushq	%r12
.Ltmp1405:
	.cfi_def_cfa_offset 32
	pushq	%rbx
.Ltmp1406:
	.cfi_def_cfa_offset 40
	pushq	%rax
.Ltmp1407:
	.cfi_def_cfa_offset 48
.Ltmp1408:
	.cfi_offset %rbx, -40
.Ltmp1409:
	.cfi_offset %r12, -32
.Ltmp1410:
	.cfi_offset %r14, -24
.Ltmp1411:
	.cfi_offset %r15, -16
	movq	%rdi, %rbx
	movq	$1, %rdi
	xorq	%rax, %rax
	movq	%rbx, %rsi
	callq	gen_rtvec
	movq	$42, %rdi
	movq	$5, %rsi
	movq	$3, %rcx
	movq	%rax, %rdx
	callq	gen_rtx_fmt_Ei
	movq	%rax, %r14
	movq	$5, %rdi
	movq	$7, %rsi
	callq	gen_rtx_REG
	movq	%rax, %r15
	movq	$5, %rdi
	movq	$7, %rsi
	callq	gen_rtx_REG
	movq	$76, %rdi
	movq	$5, %rsi
	movq	%rax, %rdx
	movq	%rbx, %rcx
	callq	gen_rtx_fmt_ee
	movq	$47, %rdi
	xorq	%rsi, %rsi
	movq	%r15, %rdx
	movq	%rax, %rcx
	callq	gen_rtx_fmt_ee
	movq	%rax, %r15
	movq	$49, %rdi
	xorq	%rsi, %rsi
	movq	%rbx, %rdx
	callq	gen_rtx_fmt_e
	movq	%rax, %r12
	movq	$52, %rdi
	movq	$17, %rsi
	callq	gen_rtx_REG
	movq	$49, %rdi
	xorq	%rsi, %rsi
	movq	%rax, %rdx
	callq	gen_rtx_fmt_e
	movq	%rax, %rbx
	movq	$4, %rdi
	xorq	%rax, %rax
	movq	%r14, %rsi
	movq	%r15, %rdx
	movq	%r12, %rcx
	movq	%rbx, %r8
	callq	gen_rtvec
	movq	$39, %rdi
	xorq	%rsi, %rsi
	movq	%rax, %rdx
	addq	$8, %rsp
	popq	%rbx
	popq	%r12
	popq	%r14
	popq	%r15
	jmp	gen_rtx_fmt_E  # TAILCALL
.Ltmp1412:
	.size	gen_allocate_stack_worker_rex64, .Ltmp1412-gen_allocate_stack_worker_rex64
	.cfi_endproc

	.globl	gen_trap
	.align	16, 0x90
	.type	gen_trap,@function
gen_trap:                               # @gen_trap
	.cfi_startproc
# BB#0:                                 # %entry
	pushq	%rbx
.Ltmp1415:
	.cfi_def_cfa_offset 16
.Ltmp1416:
	.cfi_offset %rbx, -16
	movq	const_int_rtx+520(%rip), %rbx
	xorq	%rdi, %rdi
	movq	$5, %rsi
	callq	gen_rtx_CONST_INT
	movq	$52, %rdi
	xorq	%rsi, %rsi
	movq	%rbx, %rdx
	movq	%rax, %rcx
	popq	%rbx
	jmp	gen_rtx_fmt_ee  # TAILCALL
.Ltmp1417:
	.size	gen_trap, .Ltmp1417-gen_trap
	.cfi_endproc

	.globl	gen_movv4sf_internal
	.align	16, 0x90
	.type	gen_movv4sf_internal,@function
gen_movv4sf_internal:                   # @gen_movv4sf_internal
	.cfi_startproc
# BB#0:                                 # %entry
	movq	%rsi, %rax
	movq	%rdi, %rcx
	movq	$47, %rdi
	xorq	%rsi, %rsi
	movq	%rcx, %rdx
	movq	%rax, %rcx
	jmp	gen_rtx_fmt_ee  # TAILCALL
.Ltmp1418:
	.size	gen_movv4sf_internal, .Ltmp1418-gen_movv4sf_internal
	.cfi_endproc

	.globl	gen_movv4si_internal
	.align	16, 0x90
	.type	gen_movv4si_internal,@function
gen_movv4si_internal:                   # @gen_movv4si_internal
	.cfi_startproc
# BB#0:                                 # %entry
	movq	%rsi, %rax
	movq	%rdi, %rcx
	movq	$47, %rdi
	xorq	%rsi, %rsi
	movq	%rcx, %rdx
	movq	%rax, %rcx
	jmp	gen_rtx_fmt_ee  # TAILCALL
.Ltmp1419:
	.size	gen_movv4si_internal, .Ltmp1419-gen_movv4si_internal
	.cfi_endproc

	.globl	gen_movv8qi_internal
	.align	16, 0x90
	.type	gen_movv8qi_internal,@function
gen_movv8qi_internal:                   # @gen_movv8qi_internal
	.cfi_startproc
# BB#0:                                 # %entry
	movq	%rsi, %rax
	movq	%rdi, %rcx
	movq	$47, %rdi
	xorq	%rsi, %rsi
	movq	%rcx, %rdx
	movq	%rax, %rcx
	jmp	gen_rtx_fmt_ee  # TAILCALL
.Ltmp1420:
	.size	gen_movv8qi_internal, .Ltmp1420-gen_movv8qi_internal
	.cfi_endproc

	.globl	gen_movv4hi_internal
	.align	16, 0x90
	.type	gen_movv4hi_internal,@function
gen_movv4hi_internal:                   # @gen_movv4hi_internal
	.cfi_startproc
# BB#0:                                 # %entry
	movq	%rsi, %rax
	movq	%rdi, %rcx
	movq	$47, %rdi
	xorq	%rsi, %rsi
	movq	%rcx, %rdx
	movq	%rax, %rcx
	jmp	gen_rtx_fmt_ee  # TAILCALL
.Ltmp1421:
	.size	gen_movv4hi_internal, .Ltmp1421-gen_movv4hi_internal
	.cfi_endproc

	.globl	gen_movv2si_internal
	.align	16, 0x90
	.type	gen_movv2si_internal,@function
gen_movv2si_internal:                   # @gen_movv2si_internal
	.cfi_startproc
# BB#0:                                 # %entry
	movq	%rsi, %rax
	movq	%rdi, %rcx
	movq	$47, %rdi
	xorq	%rsi, %rsi
	movq	%rcx, %rdx
	movq	%rax, %rcx
	jmp	gen_rtx_fmt_ee  # TAILCALL
.Ltmp1422:
	.size	gen_movv2si_internal, .Ltmp1422-gen_movv2si_internal
	.cfi_endproc

	.globl	gen_movv2sf_internal
	.align	16, 0x90
	.type	gen_movv2sf_internal,@function
gen_movv2sf_internal:                   # @gen_movv2sf_internal
	.cfi_startproc
# BB#0:                                 # %entry
	movq	%rsi, %rax
	movq	%rdi, %rcx
	movq	$47, %rdi
	xorq	%rsi, %rsi
	movq	%rcx, %rdx
	movq	%rax, %rcx
	jmp	gen_rtx_fmt_ee  # TAILCALL
.Ltmp1423:
	.size	gen_movv2sf_internal, .Ltmp1423-gen_movv2sf_internal
	.cfi_endproc

	.globl	gen_movti_internal
	.align	16, 0x90
	.type	gen_movti_internal,@function
gen_movti_internal:                     # @gen_movti_internal
	.cfi_startproc
# BB#0:                                 # %entry
	movq	%rsi, %rax
	movq	%rdi, %rcx
	movq	$47, %rdi
	xorq	%rsi, %rsi
	movq	%rcx, %rdx
	movq	%rax, %rcx
	jmp	gen_rtx_fmt_ee  # TAILCALL
.Ltmp1424:
	.size	gen_movti_internal, .Ltmp1424-gen_movti_internal
	.cfi_endproc

	.globl	gen_sse_movaps
	.align	16, 0x90
	.type	gen_sse_movaps,@function
gen_sse_movaps:                         # @gen_sse_movaps
	.cfi_startproc
# BB#0:                                 # %entry
	pushq	%rbx
.Ltmp1427:
	.cfi_def_cfa_offset 16
.Ltmp1428:
	.cfi_offset %rbx, -16
	movq	%rdi, %rbx
	movq	$1, %rdi
	xorq	%rax, %rax
	callq	gen_rtvec
	movq	$42, %rdi
	movq	$46, %rsi
	movq	$38, %rcx
	movq	%rax, %rdx
	callq	gen_rtx_fmt_Ei
	movq	$47, %rdi
	xorq	%rsi, %rsi
	movq	%rbx, %rdx
	movq	%rax, %rcx
	popq	%rbx
	jmp	gen_rtx_fmt_ee  # TAILCALL
.Ltmp1429:
	.size	gen_sse_movaps, .Ltmp1429-gen_sse_movaps
	.cfi_endproc

	.globl	gen_sse_movups
	.align	16, 0x90
	.type	gen_sse_movups,@function
gen_sse_movups:                         # @gen_sse_movups
	.cfi_startproc
# BB#0:                                 # %entry
	pushq	%rbx
.Ltmp1432:
	.cfi_def_cfa_offset 16
.Ltmp1433:
	.cfi_offset %rbx, -16
	movq	%rdi, %rbx
	movq	$1, %rdi
	xorq	%rax, %rax
	callq	gen_rtvec
	movq	$42, %rdi
	movq	$46, %rsi
	movq	$39, %rcx
	movq	%rax, %rdx
	callq	gen_rtx_fmt_Ei
	movq	$47, %rdi
	xorq	%rsi, %rsi
	movq	%rbx, %rdx
	movq	%rax, %rcx
	popq	%rbx
	jmp	gen_rtx_fmt_ee  # TAILCALL
.Ltmp1434:
	.size	gen_sse_movups, .Ltmp1434-gen_sse_movups
	.cfi_endproc

	.globl	gen_sse_movmskps
	.align	16, 0x90
	.type	gen_sse_movmskps,@function
gen_sse_movmskps:                       # @gen_sse_movmskps
	.cfi_startproc
# BB#0:                                 # %entry
	pushq	%rbx
.Ltmp1437:
	.cfi_def_cfa_offset 16
.Ltmp1438:
	.cfi_offset %rbx, -16
	movq	%rdi, %rbx
	movq	$1, %rdi
	xorq	%rax, %rax
	callq	gen_rtvec
	movq	$42, %rdi
	movq	$4, %rsi
	movq	$33, %rcx
	movq	%rax, %rdx
	callq	gen_rtx_fmt_Ei
	movq	$47, %rdi
	xorq	%rsi, %rsi
	movq	%rbx, %rdx
	movq	%rax, %rcx
	popq	%rbx
	jmp	gen_rtx_fmt_ee  # TAILCALL
.Ltmp1439:
	.size	gen_sse_movmskps, .Ltmp1439-gen_sse_movmskps
	.cfi_endproc

	.globl	gen_mmx_pmovmskb
	.align	16, 0x90
	.type	gen_mmx_pmovmskb,@function
gen_mmx_pmovmskb:                       # @gen_mmx_pmovmskb
	.cfi_startproc
# BB#0:                                 # %entry
	pushq	%rbx
.Ltmp1442:
	.cfi_def_cfa_offset 16
.Ltmp1443:
	.cfi_offset %rbx, -16
	movq	%rdi, %rbx
	movq	$1, %rdi
	xorq	%rax, %rax
	callq	gen_rtvec
	movq	$42, %rdi
	movq	$4, %rsi
	movq	$33, %rcx
	movq	%rax, %rdx
	callq	gen_rtx_fmt_Ei
	movq	$47, %rdi
	xorq	%rsi, %rsi
	movq	%rbx, %rdx
	movq	%rax, %rcx
	popq	%rbx
	jmp	gen_rtx_fmt_ee  # TAILCALL
.Ltmp1444:
	.size	gen_mmx_pmovmskb, .Ltmp1444-gen_mmx_pmovmskb
	.cfi_endproc

	.globl	gen_mmx_maskmovq
	.align	16, 0x90
	.type	gen_mmx_maskmovq,@function
gen_mmx_maskmovq:                       # @gen_mmx_maskmovq
	.cfi_startproc
# BB#0:                                 # %entry
	pushq	%r15
.Ltmp1449:
	.cfi_def_cfa_offset 16
	pushq	%r14
.Ltmp1450:
	.cfi_def_cfa_offset 24
	pushq	%rbx
.Ltmp1451:
	.cfi_def_cfa_offset 32
.Ltmp1452:
	.cfi_offset %rbx, -32
.Ltmp1453:
	.cfi_offset %r14, -24
.Ltmp1454:
	.cfi_offset %r15, -16
	movq	%rdx, %r14
	movq	%rsi, %rbx
	movq	%rdi, %rax
	movq	$39, %rdi
	movq	%rax, %rsi
	callq	gen_rtx_MEM
	movq	%rax, %r15
	movq	$2, %rdi
	xorq	%rax, %rax
	movq	%rbx, %rsi
	movq	%r14, %rdx
	callq	gen_rtvec
	movq	$42, %rdi
	movq	$39, %rsi
	movq	$32, %rcx
	movq	%rax, %rdx
	callq	gen_rtx_fmt_Ei
	movq	$47, %rdi
	xorq	%rsi, %rsi
	movq	%r15, %rdx
	movq	%rax, %rcx
	popq	%rbx
	popq	%r14
	popq	%r15
	jmp	gen_rtx_fmt_ee  # TAILCALL
.Ltmp1455:
	.size	gen_mmx_maskmovq, .Ltmp1455-gen_mmx_maskmovq
	.cfi_endproc

	.globl	gen_mmx_maskmovq_rex
	.align	16, 0x90
	.type	gen_mmx_maskmovq_rex,@function
gen_mmx_maskmovq_rex:                   # @gen_mmx_maskmovq_rex
	.cfi_startproc
# BB#0:                                 # %entry
	pushq	%r15
.Ltmp1460:
	.cfi_def_cfa_offset 16
	pushq	%r14
.Ltmp1461:
	.cfi_def_cfa_offset 24
	pushq	%rbx
.Ltmp1462:
	.cfi_def_cfa_offset 32
.Ltmp1463:
	.cfi_offset %rbx, -32
.Ltmp1464:
	.cfi_offset %r14, -24
.Ltmp1465:
	.cfi_offset %r15, -16
	movq	%rdx, %r14
	movq	%rsi, %rbx
	movq	%rdi, %rax
	movq	$39, %rdi
	movq	%rax, %rsi
	callq	gen_rtx_MEM
	movq	%rax, %r15
	movq	$2, %rdi
	xorq	%rax, %rax
	movq	%rbx, %rsi
	movq	%r14, %rdx
	callq	gen_rtvec
	movq	$42, %rdi
	movq	$39, %rsi
	movq	$32, %rcx
	movq	%rax, %rdx
	callq	gen_rtx_fmt_Ei
	movq	$47, %rdi
	xorq	%rsi, %rsi
	movq	%r15, %rdx
	movq	%rax, %rcx
	popq	%rbx
	popq	%r14
	popq	%r15
	jmp	gen_rtx_fmt_ee  # TAILCALL
.Ltmp1466:
	.size	gen_mmx_maskmovq_rex, .Ltmp1466-gen_mmx_maskmovq_rex
	.cfi_endproc

	.globl	gen_sse_movntv4sf
	.align	16, 0x90
	.type	gen_sse_movntv4sf,@function
gen_sse_movntv4sf:                      # @gen_sse_movntv4sf
	.cfi_startproc
# BB#0:                                 # %entry
	pushq	%rbx
.Ltmp1469:
	.cfi_def_cfa_offset 16
.Ltmp1470:
	.cfi_offset %rbx, -16
	movq	%rdi, %rbx
	movq	$1, %rdi
	xorq	%rax, %rax
	callq	gen_rtvec
	movq	$42, %rdi
	movq	$46, %rsi
	movq	$34, %rcx
	movq	%rax, %rdx
	callq	gen_rtx_fmt_Ei
	movq	$47, %rdi
	xorq	%rsi, %rsi
	movq	%rbx, %rdx
	movq	%rax, %rcx
	popq	%rbx
	jmp	gen_rtx_fmt_ee  # TAILCALL
.Ltmp1471:
	.size	gen_sse_movntv4sf, .Ltmp1471-gen_sse_movntv4sf
	.cfi_endproc

	.globl	gen_sse_movntdi
	.align	16, 0x90
	.type	gen_sse_movntdi,@function
gen_sse_movntdi:                        # @gen_sse_movntdi
	.cfi_startproc
# BB#0:                                 # %entry
	pushq	%rbx
.Ltmp1474:
	.cfi_def_cfa_offset 16
.Ltmp1475:
	.cfi_offset %rbx, -16
	movq	%rdi, %rbx
	movq	$1, %rdi
	xorq	%rax, %rax
	callq	gen_rtvec
	movq	$42, %rdi
	movq	$5, %rsi
	movq	$34, %rcx
	movq	%rax, %rdx
	callq	gen_rtx_fmt_Ei
	movq	$47, %rdi
	xorq	%rsi, %rsi
	movq	%rbx, %rdx
	movq	%rax, %rcx
	popq	%rbx
	jmp	gen_rtx_fmt_ee  # TAILCALL
.Ltmp1476:
	.size	gen_sse_movntdi, .Ltmp1476-gen_sse_movntdi
	.cfi_endproc

	.globl	gen_sse_movhlps
	.align	16, 0x90
	.type	gen_sse_movhlps,@function
gen_sse_movhlps:                        # @gen_sse_movhlps
	.cfi_startproc
# BB#0:                                 # %entry
	pushq	%r15
.Ltmp1482:
	.cfi_def_cfa_offset 16
	pushq	%r14
.Ltmp1483:
	.cfi_def_cfa_offset 24
	pushq	%r12
.Ltmp1484:
	.cfi_def_cfa_offset 32
	pushq	%rbx
.Ltmp1485:
	.cfi_def_cfa_offset 40
	pushq	%rax
.Ltmp1486:
	.cfi_def_cfa_offset 48
.Ltmp1487:
	.cfi_offset %rbx, -40
.Ltmp1488:
	.cfi_offset %r12, -32
.Ltmp1489:
	.cfi_offset %r14, -24
.Ltmp1490:
	.cfi_offset %r15, -16
	movq	%rdx, %r12
	movq	%rsi, %r15
	movq	%rdi, %r14
	xorq	%rdi, %rdi
	movq	$2, %rsi
	callq	gen_rtx_CONST_INT
	movq	%rax, %rbx
	xorq	%rdi, %rdi
	movq	$3, %rsi
	callq	gen_rtx_CONST_INT
	movq	const_int_rtx+512(%rip), %rcx
	movq	const_int_rtx+520(%rip), %r8
	movq	%rax, %rdx
	movq	$4, %rdi
	xorq	%rax, %rax
	movq	%rbx, %rsi
	callq	gen_rtvec
	movq	$39, %rdi
	xorq	%rsi, %rsi
	movq	%rax, %rdx
	callq	gen_rtx_fmt_E
	movq	$143, %rdi
	movq	$46, %rsi
	movq	%r12, %rdx
	movq	%rax, %rcx
	callq	gen_rtx_fmt_ee
	movq	%rax, %rbx
	xorq	%rdi, %rdi
	movq	$3, %rsi
	callq	gen_rtx_CONST_INT
	movq	$142, %rdi
	movq	$46, %rsi
	movq	%r15, %rdx
	movq	%rbx, %rcx
	movq	%rax, %r8
	callq	gen_rtx_fmt_eee
	movq	$47, %rdi
	xorq	%rsi, %rsi
	movq	%r14, %rdx
	movq	%rax, %rcx
	addq	$8, %rsp
	popq	%rbx
	popq	%r12
	popq	%r14
	popq	%r15
	jmp	gen_rtx_fmt_ee  # TAILCALL
.Ltmp1491:
	.size	gen_sse_movhlps, .Ltmp1491-gen_sse_movhlps
	.cfi_endproc

	.globl	gen_sse_movlhps
	.align	16, 0x90
	.type	gen_sse_movlhps,@function
gen_sse_movlhps:                        # @gen_sse_movlhps
	.cfi_startproc
# BB#0:                                 # %entry
	pushq	%r15
.Ltmp1497:
	.cfi_def_cfa_offset 16
	pushq	%r14
.Ltmp1498:
	.cfi_def_cfa_offset 24
	pushq	%r12
.Ltmp1499:
	.cfi_def_cfa_offset 32
	pushq	%rbx
.Ltmp1500:
	.cfi_def_cfa_offset 40
	pushq	%rax
.Ltmp1501:
	.cfi_def_cfa_offset 48
.Ltmp1502:
	.cfi_offset %rbx, -40
.Ltmp1503:
	.cfi_offset %r12, -32
.Ltmp1504:
	.cfi_offset %r14, -24
.Ltmp1505:
	.cfi_offset %r15, -16
	movq	%rdx, %r12
	movq	%rsi, %r15
	movq	%rdi, %r14
	xorq	%rdi, %rdi
	movq	$2, %rsi
	callq	gen_rtx_CONST_INT
	movq	%rax, %rbx
	xorq	%rdi, %rdi
	movq	$3, %rsi
	callq	gen_rtx_CONST_INT
	movq	const_int_rtx+512(%rip), %rcx
	movq	const_int_rtx+520(%rip), %r8
	movq	%rax, %rdx
	movq	$4, %rdi
	xorq	%rax, %rax
	movq	%rbx, %rsi
	callq	gen_rtvec
	movq	$39, %rdi
	xorq	%rsi, %rsi
	movq	%rax, %rdx
	callq	gen_rtx_fmt_E
	movq	$143, %rdi
	movq	$46, %rsi
	movq	%r12, %rdx
	movq	%rax, %rcx
	callq	gen_rtx_fmt_ee
	movq	%rax, %rbx
	xorq	%rdi, %rdi
	movq	$12, %rsi
	callq	gen_rtx_CONST_INT
	movq	$142, %rdi
	movq	$46, %rsi
	movq	%r15, %rdx
	movq	%rbx, %rcx
	movq	%rax, %r8
	callq	gen_rtx_fmt_eee
	movq	$47, %rdi
	xorq	%rsi, %rsi
	movq	%r14, %rdx
	movq	%rax, %rcx
	addq	$8, %rsp
	popq	%rbx
	popq	%r12
	popq	%r14
	popq	%r15
	jmp	gen_rtx_fmt_ee  # TAILCALL
.Ltmp1506:
	.size	gen_sse_movlhps, .Ltmp1506-gen_sse_movlhps
	.cfi_endproc

	.globl	gen_sse_movhps
	.align	16, 0x90
	.type	gen_sse_movhps,@function
gen_sse_movhps:                         # @gen_sse_movhps
	.cfi_startproc
# BB#0:                                 # %entry
	pushq	%r15
.Ltmp1511:
	.cfi_def_cfa_offset 16
	pushq	%r14
.Ltmp1512:
	.cfi_def_cfa_offset 24
	pushq	%rbx
.Ltmp1513:
	.cfi_def_cfa_offset 32
.Ltmp1514:
	.cfi_offset %rbx, -32
.Ltmp1515:
	.cfi_offset %r14, -24
.Ltmp1516:
	.cfi_offset %r15, -16
	movq	%rdx, %r14
	movq	%rsi, %rbx
	movq	%rdi, %r15
	xorq	%rdi, %rdi
	movq	$12, %rsi
	callq	gen_rtx_CONST_INT
	movq	$142, %rdi
	movq	$46, %rsi
	movq	%rbx, %rdx
	movq	%r14, %rcx
	movq	%rax, %r8
	callq	gen_rtx_fmt_eee
	movq	$47, %rdi
	xorq	%rsi, %rsi
	movq	%r15, %rdx
	movq	%rax, %rcx
	popq	%rbx
	popq	%r14
	popq	%r15
	jmp	gen_rtx_fmt_ee  # TAILCALL
.Ltmp1517:
	.size	gen_sse_movhps, .Ltmp1517-gen_sse_movhps
	.cfi_endproc

	.globl	gen_sse_movlps
	.align	16, 0x90
	.type	gen_sse_movlps,@function
gen_sse_movlps:                         # @gen_sse_movlps
	.cfi_startproc
# BB#0:                                 # %entry
	pushq	%r15
.Ltmp1522:
	.cfi_def_cfa_offset 16
	pushq	%r14
.Ltmp1523:
	.cfi_def_cfa_offset 24
	pushq	%rbx
.Ltmp1524:
	.cfi_def_cfa_offset 32
.Ltmp1525:
	.cfi_offset %rbx, -32
.Ltmp1526:
	.cfi_offset %r14, -24
.Ltmp1527:
	.cfi_offset %r15, -16
	movq	%rdx, %r14
	movq	%rsi, %rbx
	movq	%rdi, %r15
	xorq	%rdi, %rdi
	movq	$3, %rsi
	callq	gen_rtx_CONST_INT
	movq	$142, %rdi
	movq	$46, %rsi
	movq	%rbx, %rdx
	movq	%r14, %rcx
	movq	%rax, %r8
	callq	gen_rtx_fmt_eee
	movq	$47, %rdi
	xorq	%rsi, %rsi
	movq	%r15, %rdx
	movq	%rax, %rcx
	popq	%rbx
	popq	%r14
	popq	%r15
	jmp	gen_rtx_fmt_ee  # TAILCALL
.Ltmp1528:
	.size	gen_sse_movlps, .Ltmp1528-gen_sse_movlps
	.cfi_endproc

	.globl	gen_sse_loadss
	.align	16, 0x90
	.type	gen_sse_loadss,@function
gen_sse_loadss:                         # @gen_sse_loadss
	.cfi_startproc
# BB#0:                                 # %entry
	pushq	%r14
.Ltmp1532:
	.cfi_def_cfa_offset 16
	pushq	%rbx
.Ltmp1533:
	.cfi_def_cfa_offset 24
	pushq	%rax
.Ltmp1534:
	.cfi_def_cfa_offset 32
.Ltmp1535:
	.cfi_offset %rbx, -24
.Ltmp1536:
	.cfi_offset %r14, -16
	movq	const_int_rtx+512(%rip), %rdx
	movq	%rsi, %rbx
	movq	%rdi, %r14
	movq	$125, %rdi
	movq	$15, %rsi
	callq	gen_rtx_fmt_e
	movq	$145, %rdi
	movq	$46, %rsi
	movq	%rax, %rdx
	callq	gen_rtx_fmt_e
	movq	const_int_rtx+520(%rip), %r8
	movq	$142, %rdi
	movq	$46, %rsi
	movq	%rbx, %rdx
	movq	%rax, %rcx
	callq	gen_rtx_fmt_eee
	movq	$47, %rdi
	xorq	%rsi, %rsi
	movq	%r14, %rdx
	movq	%rax, %rcx
	addq	$8, %rsp
	popq	%rbx
	popq	%r14
	jmp	gen_rtx_fmt_ee  # TAILCALL
.Ltmp1537:
	.size	gen_sse_loadss, .Ltmp1537-gen_sse_loadss
	.cfi_endproc

	.globl	gen_sse_movss
	.align	16, 0x90
	.type	gen_sse_movss,@function
gen_sse_movss:                          # @gen_sse_movss
	.cfi_startproc
# BB#0:                                 # %entry
	pushq	%rbx
.Ltmp1540:
	.cfi_def_cfa_offset 16
.Ltmp1541:
	.cfi_offset %rbx, -16
	movq	const_int_rtx+520(%rip), %r8
	movq	%rdx, %rax
	movq	%rsi, %rcx
	movq	%rdi, %rbx
	movq	$142, %rdi
	movq	$46, %rsi
	movq	%rcx, %rdx
	movq	%rax, %rcx
	callq	gen_rtx_fmt_eee
	movq	$47, %rdi
	xorq	%rsi, %rsi
	movq	%rbx, %rdx
	movq	%rax, %rcx
	popq	%rbx
	jmp	gen_rtx_fmt_ee  # TAILCALL
.Ltmp1542:
	.size	gen_sse_movss, .Ltmp1542-gen_sse_movss
	.cfi_endproc

	.globl	gen_sse_storess
	.align	16, 0x90
	.type	gen_sse_storess,@function
gen_sse_storess:                        # @gen_sse_storess
	.cfi_startproc
# BB#0:                                 # %entry
	pushq	%r14
.Ltmp1546:
	.cfi_def_cfa_offset 16
	pushq	%rbx
.Ltmp1547:
	.cfi_def_cfa_offset 24
	pushq	%rax
.Ltmp1548:
	.cfi_def_cfa_offset 32
.Ltmp1549:
	.cfi_offset %rbx, -24
.Ltmp1550:
	.cfi_offset %r14, -16
	movq	const_int_rtx+512(%rip), %rcx
	movq	%rsi, %rbx
	movq	%rdi, %r14
	movq	$1, %rdi
	xorq	%rax, %rax
	movq	%rcx, %rsi
	callq	gen_rtvec
	movq	$39, %rdi
	xorq	%rsi, %rsi
	movq	%rax, %rdx
	callq	gen_rtx_fmt_E
	movq	$143, %rdi
	movq	$15, %rsi
	movq	%rbx, %rdx
	movq	%rax, %rcx
	callq	gen_rtx_fmt_ee
	movq	$47, %rdi
	xorq	%rsi, %rsi
	movq	%r14, %rdx
	movq	%rax, %rcx
	addq	$8, %rsp
	popq	%rbx
	popq	%r14
	jmp	gen_rtx_fmt_ee  # TAILCALL
.Ltmp1551:
	.size	gen_sse_storess, .Ltmp1551-gen_sse_storess
	.cfi_endproc

	.globl	gen_sse_shufps
	.align	16, 0x90
	.type	gen_sse_shufps,@function
gen_sse_shufps:                         # @gen_sse_shufps
	.cfi_startproc
# BB#0:                                 # %entry
	pushq	%rbx
.Ltmp1554:
	.cfi_def_cfa_offset 16
.Ltmp1555:
	.cfi_offset %rbx, -16
	movq	%rdi, %rbx
	movq	$3, %rdi
	xorq	%rax, %rax
	callq	gen_rtvec
	movq	$42, %rdi
	movq	$46, %rsi
	movq	$41, %rcx
	movq	%rax, %rdx
	callq	gen_rtx_fmt_Ei
	movq	$47, %rdi
	xorq	%rsi, %rsi
	movq	%rbx, %rdx
	movq	%rax, %rcx
	popq	%rbx
	jmp	gen_rtx_fmt_ee  # TAILCALL
.Ltmp1556:
	.size	gen_sse_shufps, .Ltmp1556-gen_sse_shufps
	.cfi_endproc

	.globl	gen_addv4sf3
	.align	16, 0x90
	.type	gen_addv4sf3,@function
gen_addv4sf3:                           # @gen_addv4sf3
	.cfi_startproc
# BB#0:                                 # %entry
	pushq	%rbx
.Ltmp1559:
	.cfi_def_cfa_offset 16
.Ltmp1560:
	.cfi_offset %rbx, -16
	movq	%rdx, %rax
	movq	%rsi, %rcx
	movq	%rdi, %rbx
	movq	$75, %rdi
	movq	$46, %rsi
	movq	%rcx, %rdx
	movq	%rax, %rcx
	callq	gen_rtx_fmt_ee
	movq	$47, %rdi
	xorq	%rsi, %rsi
	movq	%rbx, %rdx
	movq	%rax, %rcx
	popq	%rbx
	jmp	gen_rtx_fmt_ee  # TAILCALL
.Ltmp1561:
	.size	gen_addv4sf3, .Ltmp1561-gen_addv4sf3
	.cfi_endproc

	.globl	gen_vmaddv4sf3
	.align	16, 0x90
	.type	gen_vmaddv4sf3,@function
gen_vmaddv4sf3:                         # @gen_vmaddv4sf3
	.cfi_startproc
# BB#0:                                 # %entry
	pushq	%r14
.Ltmp1565:
	.cfi_def_cfa_offset 16
	pushq	%rbx
.Ltmp1566:
	.cfi_def_cfa_offset 24
	pushq	%rax
.Ltmp1567:
	.cfi_def_cfa_offset 32
.Ltmp1568:
	.cfi_offset %rbx, -24
.Ltmp1569:
	.cfi_offset %r14, -16
	movq	%rdx, %rax
	movq	%rsi, %rbx
	movq	%rdi, %r14
	movq	$75, %rdi
	movq	$46, %rsi
	movq	%rbx, %rdx
	movq	%rax, %rcx
	callq	gen_rtx_fmt_ee
	movq	const_int_rtx+520(%rip), %r8
	movq	$142, %rdi
	movq	$46, %rsi
	movq	%rax, %rdx
	movq	%rbx, %rcx
	callq	gen_rtx_fmt_eee
	movq	$47, %rdi
	xorq	%rsi, %rsi
	movq	%r14, %rdx
	movq	%rax, %rcx
	addq	$8, %rsp
	popq	%rbx
	popq	%r14
	jmp	gen_rtx_fmt_ee  # TAILCALL
.Ltmp1570:
	.size	gen_vmaddv4sf3, .Ltmp1570-gen_vmaddv4sf3
	.cfi_endproc

	.globl	gen_subv4sf3
	.align	16, 0x90
	.type	gen_subv4sf3,@function
gen_subv4sf3:                           # @gen_subv4sf3
	.cfi_startproc
# BB#0:                                 # %entry
	pushq	%rbx
.Ltmp1573:
	.cfi_def_cfa_offset 16
.Ltmp1574:
	.cfi_offset %rbx, -16
	movq	%rdx, %rax
	movq	%rsi, %rcx
	movq	%rdi, %rbx
	movq	$76, %rdi
	movq	$46, %rsi
	movq	%rcx, %rdx
	movq	%rax, %rcx
	callq	gen_rtx_fmt_ee
	movq	$47, %rdi
	xorq	%rsi, %rsi
	movq	%rbx, %rdx
	movq	%rax, %rcx
	popq	%rbx
	jmp	gen_rtx_fmt_ee  # TAILCALL
.Ltmp1575:
	.size	gen_subv4sf3, .Ltmp1575-gen_subv4sf3
	.cfi_endproc

	.globl	gen_vmsubv4sf3
	.align	16, 0x90
	.type	gen_vmsubv4sf3,@function
gen_vmsubv4sf3:                         # @gen_vmsubv4sf3
	.cfi_startproc
# BB#0:                                 # %entry
	pushq	%r14
.Ltmp1579:
	.cfi_def_cfa_offset 16
	pushq	%rbx
.Ltmp1580:
	.cfi_def_cfa_offset 24
	pushq	%rax
.Ltmp1581:
	.cfi_def_cfa_offset 32
.Ltmp1582:
	.cfi_offset %rbx, -24
.Ltmp1583:
	.cfi_offset %r14, -16
	movq	%rdx, %rax
	movq	%rsi, %rbx
	movq	%rdi, %r14
	movq	$76, %rdi
	movq	$46, %rsi
	movq	%rbx, %rdx
	movq	%rax, %rcx
	callq	gen_rtx_fmt_ee
	movq	const_int_rtx+520(%rip), %r8
	movq	$142, %rdi
	movq	$46, %rsi
	movq	%rax, %rdx
	movq	%rbx, %rcx
	callq	gen_rtx_fmt_eee
	movq	$47, %rdi
	xorq	%rsi, %rsi
	movq	%r14, %rdx
	movq	%rax, %rcx
	addq	$8, %rsp
	popq	%rbx
	popq	%r14
	jmp	gen_rtx_fmt_ee  # TAILCALL
.Ltmp1584:
	.size	gen_vmsubv4sf3, .Ltmp1584-gen_vmsubv4sf3
	.cfi_endproc

	.globl	gen_mulv4sf3
	.align	16, 0x90
	.type	gen_mulv4sf3,@function
gen_mulv4sf3:                           # @gen_mulv4sf3
	.cfi_startproc
# BB#0:                                 # %entry
	pushq	%rbx
.Ltmp1587:
	.cfi_def_cfa_offset 16
.Ltmp1588:
	.cfi_offset %rbx, -16
	movq	%rdx, %rax
	movq	%rsi, %rcx
	movq	%rdi, %rbx
	movq	$78, %rdi
	movq	$46, %rsi
	movq	%rcx, %rdx
	movq	%rax, %rcx
	callq	gen_rtx_fmt_ee
	movq	$47, %rdi
	xorq	%rsi, %rsi
	movq	%rbx, %rdx
	movq	%rax, %rcx
	popq	%rbx
	jmp	gen_rtx_fmt_ee  # TAILCALL
.Ltmp1589:
	.size	gen_mulv4sf3, .Ltmp1589-gen_mulv4sf3
	.cfi_endproc

	.globl	gen_vmmulv4sf3
	.align	16, 0x90
	.type	gen_vmmulv4sf3,@function
gen_vmmulv4sf3:                         # @gen_vmmulv4sf3
	.cfi_startproc
# BB#0:                                 # %entry
	pushq	%r14
.Ltmp1593:
	.cfi_def_cfa_offset 16
	pushq	%rbx
.Ltmp1594:
	.cfi_def_cfa_offset 24
	pushq	%rax
.Ltmp1595:
	.cfi_def_cfa_offset 32
.Ltmp1596:
	.cfi_offset %rbx, -24
.Ltmp1597:
	.cfi_offset %r14, -16
	movq	%rdx, %rax
	movq	%rsi, %rbx
	movq	%rdi, %r14
	movq	$78, %rdi
	movq	$46, %rsi
	movq	%rbx, %rdx
	movq	%rax, %rcx
	callq	gen_rtx_fmt_ee
	movq	const_int_rtx+520(%rip), %r8
	movq	$142, %rdi
	movq	$46, %rsi
	movq	%rax, %rdx
	movq	%rbx, %rcx
	callq	gen_rtx_fmt_eee
	movq	$47, %rdi
	xorq	%rsi, %rsi
	movq	%r14, %rdx
	movq	%rax, %rcx
	addq	$8, %rsp
	popq	%rbx
	popq	%r14
	jmp	gen_rtx_fmt_ee  # TAILCALL
.Ltmp1598:
	.size	gen_vmmulv4sf3, .Ltmp1598-gen_vmmulv4sf3
	.cfi_endproc

	.globl	gen_divv4sf3
	.align	16, 0x90
	.type	gen_divv4sf3,@function
gen_divv4sf3:                           # @gen_divv4sf3
	.cfi_startproc
# BB#0:                                 # %entry
	pushq	%rbx
.Ltmp1601:
	.cfi_def_cfa_offset 16
.Ltmp1602:
	.cfi_offset %rbx, -16
	movq	%rdx, %rax
	movq	%rsi, %rcx
	movq	%rdi, %rbx
	movq	$79, %rdi
	movq	$46, %rsi
	movq	%rcx, %rdx
	movq	%rax, %rcx
	callq	gen_rtx_fmt_ee
	movq	$47, %rdi
	xorq	%rsi, %rsi
	movq	%rbx, %rdx
	movq	%rax, %rcx
	popq	%rbx
	jmp	gen_rtx_fmt_ee  # TAILCALL
.Ltmp1603:
	.size	gen_divv4sf3, .Ltmp1603-gen_divv4sf3
	.cfi_endproc

	.globl	gen_vmdivv4sf3
	.align	16, 0x90
	.type	gen_vmdivv4sf3,@function
gen_vmdivv4sf3:                         # @gen_vmdivv4sf3
	.cfi_startproc
# BB#0:                                 # %entry
	pushq	%r14
.Ltmp1607:
	.cfi_def_cfa_offset 16
	pushq	%rbx
.Ltmp1608:
	.cfi_def_cfa_offset 24
	pushq	%rax
.Ltmp1609:
	.cfi_def_cfa_offset 32
.Ltmp1610:
	.cfi_offset %rbx, -24
.Ltmp1611:
	.cfi_offset %r14, -16
	movq	%rdx, %rax
	movq	%rsi, %rbx
	movq	%rdi, %r14
	movq	$79, %rdi
	movq	$46, %rsi
	movq	%rbx, %rdx
	movq	%rax, %rcx
	callq	gen_rtx_fmt_ee
	movq	const_int_rtx+520(%rip), %r8
	movq	$142, %rdi
	movq	$46, %rsi
	movq	%rax, %rdx
	movq	%rbx, %rcx
	callq	gen_rtx_fmt_eee
	movq	$47, %rdi
	xorq	%rsi, %rsi
	movq	%r14, %rdx
	movq	%rax, %rcx
	addq	$8, %rsp
	popq	%rbx
	popq	%r14
	jmp	gen_rtx_fmt_ee  # TAILCALL
.Ltmp1612:
	.size	gen_vmdivv4sf3, .Ltmp1612-gen_vmdivv4sf3
	.cfi_endproc

	.globl	gen_rcpv4sf2
	.align	16, 0x90
	.type	gen_rcpv4sf2,@function
gen_rcpv4sf2:                           # @gen_rcpv4sf2
	.cfi_startproc
# BB#0:                                 # %entry
	pushq	%rbx
.Ltmp1615:
	.cfi_def_cfa_offset 16
.Ltmp1616:
	.cfi_offset %rbx, -16
	movq	%rdi, %rbx
	movq	$1, %rdi
	xorq	%rax, %rax
	callq	gen_rtvec
	movq	$42, %rdi
	movq	$46, %rsi
	movq	$42, %rcx
	movq	%rax, %rdx
	callq	gen_rtx_fmt_Ei
	movq	$47, %rdi
	xorq	%rsi, %rsi
	movq	%rbx, %rdx
	movq	%rax, %rcx
	popq	%rbx
	jmp	gen_rtx_fmt_ee  # TAILCALL
.Ltmp1617:
	.size	gen_rcpv4sf2, .Ltmp1617-gen_rcpv4sf2
	.cfi_endproc

	.globl	gen_vmrcpv4sf2
	.align	16, 0x90
	.type	gen_vmrcpv4sf2,@function
gen_vmrcpv4sf2:                         # @gen_vmrcpv4sf2
	.cfi_startproc
# BB#0:                                 # %entry
	pushq	%r14
.Ltmp1621:
	.cfi_def_cfa_offset 16
	pushq	%rbx
.Ltmp1622:
	.cfi_def_cfa_offset 24
	pushq	%rax
.Ltmp1623:
	.cfi_def_cfa_offset 32
.Ltmp1624:
	.cfi_offset %rbx, -24
.Ltmp1625:
	.cfi_offset %r14, -16
	movq	%rdx, %rbx
	movq	%rdi, %r14
	movq	$1, %rdi
	xorq	%rax, %rax
	callq	gen_rtvec
	movq	$42, %rdi
	movq	$46, %rsi
	movq	$42, %rcx
	movq	%rax, %rdx
	callq	gen_rtx_fmt_Ei
	movq	const_int_rtx+520(%rip), %r8
	movq	$142, %rdi
	movq	$46, %rsi
	movq	%rax, %rdx
	movq	%rbx, %rcx
	callq	gen_rtx_fmt_eee
	movq	$47, %rdi
	xorq	%rsi, %rsi
	movq	%r14, %rdx
	movq	%rax, %rcx
	addq	$8, %rsp
	popq	%rbx
	popq	%r14
	jmp	gen_rtx_fmt_ee  # TAILCALL
.Ltmp1626:
	.size	gen_vmrcpv4sf2, .Ltmp1626-gen_vmrcpv4sf2
	.cfi_endproc

	.globl	gen_rsqrtv4sf2
	.align	16, 0x90
	.type	gen_rsqrtv4sf2,@function
gen_rsqrtv4sf2:                         # @gen_rsqrtv4sf2
	.cfi_startproc
# BB#0:                                 # %entry
	pushq	%rbx
.Ltmp1629:
	.cfi_def_cfa_offset 16
.Ltmp1630:
	.cfi_offset %rbx, -16
	movq	%rdi, %rbx
	movq	$1, %rdi
	xorq	%rax, %rax
	callq	gen_rtvec
	movq	$42, %rdi
	movq	$46, %rsi
	movq	$43, %rcx
	movq	%rax, %rdx
	callq	gen_rtx_fmt_Ei
	movq	$47, %rdi
	xorq	%rsi, %rsi
	movq	%rbx, %rdx
	movq	%rax, %rcx
	popq	%rbx
	jmp	gen_rtx_fmt_ee  # TAILCALL
.Ltmp1631:
	.size	gen_rsqrtv4sf2, .Ltmp1631-gen_rsqrtv4sf2
	.cfi_endproc

	.globl	gen_vmrsqrtv4sf2
	.align	16, 0x90
	.type	gen_vmrsqrtv4sf2,@function
gen_vmrsqrtv4sf2:                       # @gen_vmrsqrtv4sf2
	.cfi_startproc
# BB#0:                                 # %entry
	pushq	%r14
.Ltmp1635:
	.cfi_def_cfa_offset 16
	pushq	%rbx
.Ltmp1636:
	.cfi_def_cfa_offset 24
	pushq	%rax
.Ltmp1637:
	.cfi_def_cfa_offset 32
.Ltmp1638:
	.cfi_offset %rbx, -24
.Ltmp1639:
	.cfi_offset %r14, -16
	movq	%rdx, %rbx
	movq	%rdi, %r14
	movq	$1, %rdi
	xorq	%rax, %rax
	callq	gen_rtvec
	movq	$42, %rdi
	movq	$46, %rsi
	movq	$43, %rcx
	movq	%rax, %rdx
	callq	gen_rtx_fmt_Ei
	movq	const_int_rtx+520(%rip), %r8
	movq	$142, %rdi
	movq	$46, %rsi
	movq	%rax, %rdx
	movq	%rbx, %rcx
	callq	gen_rtx_fmt_eee
	movq	$47, %rdi
	xorq	%rsi, %rsi
	movq	%r14, %rdx
	movq	%rax, %rcx
	addq	$8, %rsp
	popq	%rbx
	popq	%r14
	jmp	gen_rtx_fmt_ee  # TAILCALL
.Ltmp1640:
	.size	gen_vmrsqrtv4sf2, .Ltmp1640-gen_vmrsqrtv4sf2
	.cfi_endproc

	.globl	gen_sqrtv4sf2
	.align	16, 0x90
	.type	gen_sqrtv4sf2,@function
gen_sqrtv4sf2:                          # @gen_sqrtv4sf2
	.cfi_startproc
# BB#0:                                 # %entry
	pushq	%rbx
.Ltmp1643:
	.cfi_def_cfa_offset 16
.Ltmp1644:
	.cfi_offset %rbx, -16
	movq	%rsi, %rax
	movq	%rdi, %rbx
	movq	$130, %rdi
	movq	$46, %rsi
	movq	%rax, %rdx
	callq	gen_rtx_fmt_e
	movq	$47, %rdi
	xorq	%rsi, %rsi
	movq	%rbx, %rdx
	movq	%rax, %rcx
	popq	%rbx
	jmp	gen_rtx_fmt_ee  # TAILCALL
.Ltmp1645:
	.size	gen_sqrtv4sf2, .Ltmp1645-gen_sqrtv4sf2
	.cfi_endproc

	.globl	gen_vmsqrtv4sf2
	.align	16, 0x90
	.type	gen_vmsqrtv4sf2,@function
gen_vmsqrtv4sf2:                        # @gen_vmsqrtv4sf2
	.cfi_startproc
# BB#0:                                 # %entry
	pushq	%r14
.Ltmp1649:
	.cfi_def_cfa_offset 16
	pushq	%rbx
.Ltmp1650:
	.cfi_def_cfa_offset 24
	pushq	%rax
.Ltmp1651:
	.cfi_def_cfa_offset 32
.Ltmp1652:
	.cfi_offset %rbx, -24
.Ltmp1653:
	.cfi_offset %r14, -16
	movq	%rdx, %rbx
	movq	%rsi, %rax
	movq	%rdi, %r14
	movq	$130, %rdi
	movq	$46, %rsi
	movq	%rax, %rdx
	callq	gen_rtx_fmt_e
	movq	const_int_rtx+520(%rip), %r8
	movq	$142, %rdi
	movq	$46, %rsi
	movq	%rax, %rdx
	movq	%rbx, %rcx
	callq	gen_rtx_fmt_eee
	movq	$47, %rdi
	xorq	%rsi, %rsi
	movq	%r14, %rdx
	movq	%rax, %rcx
	addq	$8, %rsp
	popq	%rbx
	popq	%r14
	jmp	gen_rtx_fmt_ee  # TAILCALL
.Ltmp1654:
	.size	gen_vmsqrtv4sf2, .Ltmp1654-gen_vmsqrtv4sf2
	.cfi_endproc

	.globl	gen_sse_andti3
	.align	16, 0x90
	.type	gen_sse_andti3,@function
gen_sse_andti3:                         # @gen_sse_andti3
	.cfi_startproc
# BB#0:                                 # %entry
	pushq	%rbx
.Ltmp1657:
	.cfi_def_cfa_offset 16
.Ltmp1658:
	.cfi_offset %rbx, -16
	movq	%rdx, %rax
	movq	%rsi, %rcx
	movq	%rdi, %rbx
	movq	$83, %rdi
	movq	$6, %rsi
	movq	%rcx, %rdx
	movq	%rax, %rcx
	callq	gen_rtx_fmt_ee
	movq	$47, %rdi
	xorq	%rsi, %rsi
	movq	%rbx, %rdx
	movq	%rax, %rcx
	popq	%rbx
	jmp	gen_rtx_fmt_ee  # TAILCALL
.Ltmp1659:
	.size	gen_sse_andti3, .Ltmp1659-gen_sse_andti3
	.cfi_endproc

	.globl	gen_sse_nandti3
	.align	16, 0x90
	.type	gen_sse_nandti3,@function
gen_sse_nandti3:                        # @gen_sse_nandti3
	.cfi_startproc
# BB#0:                                 # %entry
	pushq	%r14
.Ltmp1663:
	.cfi_def_cfa_offset 16
	pushq	%rbx
.Ltmp1664:
	.cfi_def_cfa_offset 24
	pushq	%rax
.Ltmp1665:
	.cfi_def_cfa_offset 32
.Ltmp1666:
	.cfi_offset %rbx, -24
.Ltmp1667:
	.cfi_offset %r14, -16
	movq	%rdx, %rbx
	movq	%rsi, %rax
	movq	%rdi, %r14
	movq	$86, %rdi
	movq	$6, %rsi
	movq	%rax, %rdx
	callq	gen_rtx_fmt_e
	movq	$83, %rdi
	movq	$6, %rsi
	movq	%rax, %rdx
	movq	%rbx, %rcx
	callq	gen_rtx_fmt_ee
	movq	$47, %rdi
	xorq	%rsi, %rsi
	movq	%r14, %rdx
	movq	%rax, %rcx
	addq	$8, %rsp
	popq	%rbx
	popq	%r14
	jmp	gen_rtx_fmt_ee  # TAILCALL
.Ltmp1668:
	.size	gen_sse_nandti3, .Ltmp1668-gen_sse_nandti3
	.cfi_endproc

	.globl	gen_sse_iorti3
	.align	16, 0x90
	.type	gen_sse_iorti3,@function
gen_sse_iorti3:                         # @gen_sse_iorti3
	.cfi_startproc
# BB#0:                                 # %entry
	pushq	%rbx
.Ltmp1671:
	.cfi_def_cfa_offset 16
.Ltmp1672:
	.cfi_offset %rbx, -16
	movq	%rdx, %rax
	movq	%rsi, %rcx
	movq	%rdi, %rbx
	movq	$84, %rdi
	movq	$6, %rsi
	movq	%rcx, %rdx
	movq	%rax, %rcx
	callq	gen_rtx_fmt_ee
	movq	$47, %rdi
	xorq	%rsi, %rsi
	movq	%rbx, %rdx
	movq	%rax, %rcx
	popq	%rbx
	jmp	gen_rtx_fmt_ee  # TAILCALL
.Ltmp1673:
	.size	gen_sse_iorti3, .Ltmp1673-gen_sse_iorti3
	.cfi_endproc

	.globl	gen_sse_xorti3
	.align	16, 0x90
	.type	gen_sse_xorti3,@function
gen_sse_xorti3:                         # @gen_sse_xorti3
	.cfi_startproc
# BB#0:                                 # %entry
	pushq	%rbx
.Ltmp1676:
	.cfi_def_cfa_offset 16
.Ltmp1677:
	.cfi_offset %rbx, -16
	movq	%rdx, %rax
	movq	%rsi, %rcx
	movq	%rdi, %rbx
	movq	$85, %rdi
	movq	$6, %rsi
	movq	%rcx, %rdx
	movq	%rax, %rcx
	callq	gen_rtx_fmt_ee
	movq	$47, %rdi
	xorq	%rsi, %rsi
	movq	%rbx, %rdx
	movq	%rax, %rcx
	popq	%rbx
	jmp	gen_rtx_fmt_ee  # TAILCALL
.Ltmp1678:
	.size	gen_sse_xorti3, .Ltmp1678-gen_sse_xorti3
	.cfi_endproc

	.globl	gen_sse_clrv4sf
	.align	16, 0x90
	.type	gen_sse_clrv4sf,@function
gen_sse_clrv4sf:                        # @gen_sse_clrv4sf
	.cfi_startproc
# BB#0:                                 # %entry
	pushq	%rbx
.Ltmp1681:
	.cfi_def_cfa_offset 16
.Ltmp1682:
	.cfi_offset %rbx, -16
	movq	const_int_rtx+512(%rip), %rsi
	movq	%rdi, %rbx
	movq	$1, %rdi
	xorq	%rax, %rax
	callq	gen_rtvec
	movq	$42, %rdi
	movq	$46, %rsi
	movq	$45, %rcx
	movq	%rax, %rdx
	callq	gen_rtx_fmt_Ei
	movq	$47, %rdi
	xorq	%rsi, %rsi
	movq	%rbx, %rdx
	movq	%rax, %rcx
	popq	%rbx
	jmp	gen_rtx_fmt_ee  # TAILCALL
.Ltmp1683:
	.size	gen_sse_clrv4sf, .Ltmp1683-gen_sse_clrv4sf
	.cfi_endproc

	.globl	gen_maskcmpv4sf3
	.align	16, 0x90
	.type	gen_maskcmpv4sf3,@function
gen_maskcmpv4sf3:                       # @gen_maskcmpv4sf3
	.cfi_startproc
# BB#0:                                 # %entry
	pushq	%rbx
.Ltmp1686:
	.cfi_def_cfa_offset 16
.Ltmp1687:
	.cfi_offset %rbx, -16
	movzbl	(%rcx), %ecx
	movq	%rdx, %r8
	movq	%rsi, %rdx
	movq	%rdi, %rbx
	movq	$37, %rsi
	xorq	%rax, %rax
	movq	%rcx, %rdi
	movq	%r8, %rcx
	callq	gen_rtx
	movq	$47, %rdi
	xorq	%rsi, %rsi
	movq	%rbx, %rdx
	movq	%rax, %rcx
	popq	%rbx
	jmp	gen_rtx_fmt_ee  # TAILCALL
.Ltmp1688:
	.size	gen_maskcmpv4sf3, .Ltmp1688-gen_maskcmpv4sf3
	.cfi_endproc

	.globl	gen_maskncmpv4sf3
	.align	16, 0x90
	.type	gen_maskncmpv4sf3,@function
gen_maskncmpv4sf3:                      # @gen_maskncmpv4sf3
	.cfi_startproc
# BB#0:                                 # %entry
	pushq	%rbx
.Ltmp1691:
	.cfi_def_cfa_offset 16
.Ltmp1692:
	.cfi_offset %rbx, -16
	movzbl	(%rcx), %ecx
	movq	%rdx, %r8
	movq	%rsi, %rdx
	movq	%rdi, %rbx
	movq	$37, %rsi
	xorq	%rax, %rax
	movq	%rcx, %rdi
	movq	%r8, %rcx
	callq	gen_rtx
	movq	$86, %rdi
	movq	$37, %rsi
	movq	%rax, %rdx
	callq	gen_rtx_fmt_e
	movq	$47, %rdi
	xorq	%rsi, %rsi
	movq	%rbx, %rdx
	movq	%rax, %rcx
	popq	%rbx
	jmp	gen_rtx_fmt_ee  # TAILCALL
.Ltmp1693:
	.size	gen_maskncmpv4sf3, .Ltmp1693-gen_maskncmpv4sf3
	.cfi_endproc

	.globl	gen_vmmaskcmpv4sf3
	.align	16, 0x90
	.type	gen_vmmaskcmpv4sf3,@function
gen_vmmaskcmpv4sf3:                     # @gen_vmmaskcmpv4sf3
	.cfi_startproc
# BB#0:                                 # %entry
	pushq	%r14
.Ltmp1697:
	.cfi_def_cfa_offset 16
	pushq	%rbx
.Ltmp1698:
	.cfi_def_cfa_offset 24
	pushq	%rax
.Ltmp1699:
	.cfi_def_cfa_offset 32
.Ltmp1700:
	.cfi_offset %rbx, -24
.Ltmp1701:
	.cfi_offset %r14, -16
	movzbl	(%rcx), %ecx
	movq	%rdx, %r8
	movq	%rsi, %rbx
	movq	%rdi, %r14
	movq	$37, %rsi
	xorq	%rax, %rax
	movq	%rcx, %rdi
	movq	%rbx, %rdx
	movq	%r8, %rcx
	callq	gen_rtx
	movq	const_int_rtx+520(%rip), %r8
	movq	$142, %rdi
	movq	$37, %rsi
	movq	%rax, %rdx
	movq	%rbx, %rcx
	callq	gen_rtx_fmt_eee
	movq	$47, %rdi
	xorq	%rsi, %rsi
	movq	%r14, %rdx
	movq	%rax, %rcx
	addq	$8, %rsp
	popq	%rbx
	popq	%r14
	jmp	gen_rtx_fmt_ee  # TAILCALL
.Ltmp1702:
	.size	gen_vmmaskcmpv4sf3, .Ltmp1702-gen_vmmaskcmpv4sf3
	.cfi_endproc

	.globl	gen_vmmaskncmpv4sf3
	.align	16, 0x90
	.type	gen_vmmaskncmpv4sf3,@function
gen_vmmaskncmpv4sf3:                    # @gen_vmmaskncmpv4sf3
	.cfi_startproc
# BB#0:                                 # %entry
	pushq	%r15
.Ltmp1707:
	.cfi_def_cfa_offset 16
	pushq	%r14
.Ltmp1708:
	.cfi_def_cfa_offset 24
	pushq	%rbx
.Ltmp1709:
	.cfi_def_cfa_offset 32
.Ltmp1710:
	.cfi_offset %rbx, -32
.Ltmp1711:
	.cfi_offset %r14, -24
.Ltmp1712:
	.cfi_offset %r15, -16
	movzbl	(%rcx), %ecx
	movq	%rdx, %r8
	movq	%rsi, %rbx
	movq	%rdi, %r14
	movq	$37, %rsi
	xorq	%rax, %rax
	movq	%rcx, %rdi
	movq	%rbx, %rdx
	movq	%r8, %rcx
	callq	gen_rtx
	movq	$86, %rdi
	movq	$37, %rsi
	movq	%rax, %rdx
	callq	gen_rtx_fmt_e
	movq	%rax, %r15
	movq	$37, %rdi
	xorq	%rdx, %rdx
	movq	%rbx, %rsi
	callq	gen_rtx_SUBREG
	movq	const_int_rtx+520(%rip), %r8
	movq	$142, %rdi
	movq	$37, %rsi
	movq	%r15, %rdx
	movq	%rax, %rcx
	callq	gen_rtx_fmt_eee
	movq	$47, %rdi
	xorq	%rsi, %rsi
	movq	%r14, %rdx
	movq	%rax, %rcx
	popq	%rbx
	popq	%r14
	popq	%r15
	jmp	gen_rtx_fmt_ee  # TAILCALL
.Ltmp1713:
	.size	gen_vmmaskncmpv4sf3, .Ltmp1713-gen_vmmaskncmpv4sf3
	.cfi_endproc

	.globl	gen_sse_comi
	.align	16, 0x90
	.type	gen_sse_comi,@function
gen_sse_comi:                           # @gen_sse_comi
	.cfi_startproc
# BB#0:                                 # %entry
	pushq	%r15
.Ltmp1720:
	.cfi_def_cfa_offset 16
	pushq	%r14
.Ltmp1721:
	.cfi_def_cfa_offset 24
	pushq	%r13
.Ltmp1722:
	.cfi_def_cfa_offset 32
	pushq	%r12
.Ltmp1723:
	.cfi_def_cfa_offset 40
	pushq	%rbx
.Ltmp1724:
	.cfi_def_cfa_offset 48
.Ltmp1725:
	.cfi_offset %rbx, -48
.Ltmp1726:
	.cfi_offset %r12, -40
.Ltmp1727:
	.cfi_offset %r13, -32
.Ltmp1728:
	.cfi_offset %r14, -24
.Ltmp1729:
	.cfi_offset %r15, -16
	movq	%rdx, %rbx
	movq	%rsi, %r15
	movq	%rdi, %r12
	movq	$57, %rdi
	movq	$17, %rsi
	callq	gen_rtx_REG
	movq	const_int_rtx+512(%rip), %rsi
	movzbl	(%rbx), %r13d
	movq	%rax, %r14
	movq	$1, %rdi
	xorq	%rax, %rax
	callq	gen_rtvec
	movq	$39, %rdi
	xorq	%rsi, %rsi
	movq	%rax, %rdx
	callq	gen_rtx_fmt_E
	movq	$143, %rdi
	movq	$15, %rsi
	movq	%r12, %rdx
	movq	%rax, %rcx
	callq	gen_rtx_fmt_ee
	movq	const_int_rtx+512(%rip), %rsi
	movq	%rax, %rbx
	movq	$1, %rdi
	xorq	%rax, %rax
	callq	gen_rtvec
	movq	$39, %rdi
	xorq	%rsi, %rsi
	movq	%rax, %rdx
	callq	gen_rtx_fmt_E
	movq	$143, %rdi
	movq	$15, %rsi
	movq	%r15, %rdx
	movq	%rax, %rcx
	callq	gen_rtx_fmt_ee
	movq	%rax, %rcx
	movq	$57, %rsi
	xorq	%rax, %rax
	movq	%r13, %rdi
	movq	%rbx, %rdx
	callq	gen_rtx
	movq	$47, %rdi
	xorq	%rsi, %rsi
	movq	%r14, %rdx
	movq	%rax, %rcx
	popq	%rbx
	popq	%r12
	popq	%r13
	popq	%r14
	popq	%r15
	jmp	gen_rtx_fmt_ee  # TAILCALL
.Ltmp1730:
	.size	gen_sse_comi, .Ltmp1730-gen_sse_comi
	.cfi_endproc

	.globl	gen_sse_ucomi
	.align	16, 0x90
	.type	gen_sse_ucomi,@function
gen_sse_ucomi:                          # @gen_sse_ucomi
	.cfi_startproc
# BB#0:                                 # %entry
	pushq	%r15
.Ltmp1737:
	.cfi_def_cfa_offset 16
	pushq	%r14
.Ltmp1738:
	.cfi_def_cfa_offset 24
	pushq	%r13
.Ltmp1739:
	.cfi_def_cfa_offset 32
	pushq	%r12
.Ltmp1740:
	.cfi_def_cfa_offset 40
	pushq	%rbx
.Ltmp1741:
	.cfi_def_cfa_offset 48
.Ltmp1742:
	.cfi_offset %rbx, -48
.Ltmp1743:
	.cfi_offset %r12, -40
.Ltmp1744:
	.cfi_offset %r13, -32
.Ltmp1745:
	.cfi_offset %r14, -24
.Ltmp1746:
	.cfi_offset %r15, -16
	movq	%rdx, %rbx
	movq	%rsi, %r15
	movq	%rdi, %r12
	movq	$58, %rdi
	movq	$17, %rsi
	callq	gen_rtx_REG
	movq	const_int_rtx+512(%rip), %rsi
	movzbl	(%rbx), %r13d
	movq	%rax, %r14
	movq	$1, %rdi
	xorq	%rax, %rax
	callq	gen_rtvec
	movq	$39, %rdi
	xorq	%rsi, %rsi
	movq	%rax, %rdx
	callq	gen_rtx_fmt_E
	movq	$143, %rdi
	movq	$15, %rsi
	movq	%r12, %rdx
	movq	%rax, %rcx
	callq	gen_rtx_fmt_ee
	movq	const_int_rtx+512(%rip), %rsi
	movq	%rax, %rbx
	movq	$1, %rdi
	xorq	%rax, %rax
	callq	gen_rtvec
	movq	$39, %rdi
	xorq	%rsi, %rsi
	movq	%rax, %rdx
	callq	gen_rtx_fmt_E
	movq	$143, %rdi
	movq	$15, %rsi
	movq	%r15, %rdx
	movq	%rax, %rcx
	callq	gen_rtx_fmt_ee
	movq	%rax, %rcx
	movq	$58, %rsi
	xorq	%rax, %rax
	movq	%r13, %rdi
	movq	%rbx, %rdx
	callq	gen_rtx
	movq	$47, %rdi
	xorq	%rsi, %rsi
	movq	%r14, %rdx
	movq	%rax, %rcx
	popq	%rbx
	popq	%r12
	popq	%r13
	popq	%r14
	popq	%r15
	jmp	gen_rtx_fmt_ee  # TAILCALL
.Ltmp1747:
	.size	gen_sse_ucomi, .Ltmp1747-gen_sse_ucomi
	.cfi_endproc

	.globl	gen_sse_unpckhps
	.align	16, 0x90
	.type	gen_sse_unpckhps,@function
gen_sse_unpckhps:                       # @gen_sse_unpckhps
	.cfi_startproc
# BB#0:                                 # %entry
	pushq	%r15
.Ltmp1754:
	.cfi_def_cfa_offset 16
	pushq	%r14
.Ltmp1755:
	.cfi_def_cfa_offset 24
	pushq	%r13
.Ltmp1756:
	.cfi_def_cfa_offset 32
	pushq	%r12
.Ltmp1757:
	.cfi_def_cfa_offset 40
	pushq	%rbx
.Ltmp1758:
	.cfi_def_cfa_offset 48
	subq	$16, %rsp
.Ltmp1759:
	.cfi_def_cfa_offset 64
.Ltmp1760:
	.cfi_offset %rbx, -48
.Ltmp1761:
	.cfi_offset %r12, -40
.Ltmp1762:
	.cfi_offset %r13, -32
.Ltmp1763:
	.cfi_offset %r14, -24
.Ltmp1764:
	.cfi_offset %r15, -16
	movq	%rdx, (%rsp)            # 8-byte Spill
	movq	%rsi, %r12
	movq	%rdi, 8(%rsp)           # 8-byte Spill
	xorq	%rdi, %rdi
	movq	$2, %rsi
	callq	gen_rtx_CONST_INT
	movq	const_int_rtx+512(%rip), %r13
	movq	%rax, %rbx
	xorq	%rdi, %rdi
	movq	$3, %rsi
	callq	gen_rtx_CONST_INT
	movq	const_int_rtx+520(%rip), %r8
	movq	%rax, %rcx
	movq	$4, %rdi
	xorq	%rax, %rax
	movq	%rbx, %rsi
	movq	%r13, %rdx
	callq	gen_rtvec
	movq	$39, %rdi
	xorq	%rsi, %rsi
	movq	%rax, %rdx
	callq	gen_rtx_fmt_E
	movq	$143, %rdi
	movq	$46, %rsi
	movq	%r12, %rdx
	movq	%rax, %rcx
	callq	gen_rtx_fmt_ee
	movq	const_int_rtx+512(%rip), %r13
	movq	%rax, %r12
	xorq	%rdi, %rdi
	movq	$2, %rsi
	callq	gen_rtx_CONST_INT
	movq	const_int_rtx+520(%rip), %r15
	movq	%rax, %r14
	xorq	%rdi, %rdi
	movq	$3, %rsi
	callq	gen_rtx_CONST_INT
	movq	%rax, %rbx
	movq	$4, %rdi
	xorq	%rax, %rax
	movq	%r13, %rsi
	movq	%r14, %rdx
	movq	%r15, %rcx
	movq	%rbx, %r8
	callq	gen_rtvec
	movq	$39, %rdi
	xorq	%rsi, %rsi
	movq	%rax, %rdx
	callq	gen_rtx_fmt_E
	movq	$143, %rdi
	movq	$46, %rsi
	movq	(%rsp), %rdx            # 8-byte Reload
	movq	%rax, %rcx
	callq	gen_rtx_fmt_ee
	movq	%rax, %rbx
	xorq	%rdi, %rdi
	movq	$5, %rsi
	callq	gen_rtx_CONST_INT
	movq	$142, %rdi
	movq	$46, %rsi
	movq	%r12, %rdx
	movq	%rbx, %rcx
	movq	%rax, %r8
	callq	gen_rtx_fmt_eee
	movq	$47, %rdi
	xorq	%rsi, %rsi
	movq	8(%rsp), %rdx           # 8-byte Reload
	movq	%rax, %rcx
	addq	$16, %rsp
	popq	%rbx
	popq	%r12
	popq	%r13
	popq	%r14
	popq	%r15
	jmp	gen_rtx_fmt_ee  # TAILCALL
.Ltmp1765:
	.size	gen_sse_unpckhps, .Ltmp1765-gen_sse_unpckhps
	.cfi_endproc

	.globl	gen_sse_unpcklps
	.align	16, 0x90
	.type	gen_sse_unpcklps,@function
gen_sse_unpcklps:                       # @gen_sse_unpcklps
	.cfi_startproc
# BB#0:                                 # %entry
	pushq	%r15
.Ltmp1772:
	.cfi_def_cfa_offset 16
	pushq	%r14
.Ltmp1773:
	.cfi_def_cfa_offset 24
	pushq	%r13
.Ltmp1774:
	.cfi_def_cfa_offset 32
	pushq	%r12
.Ltmp1775:
	.cfi_def_cfa_offset 40
	pushq	%rbx
.Ltmp1776:
	.cfi_def_cfa_offset 48
	subq	$16, %rsp
.Ltmp1777:
	.cfi_def_cfa_offset 64
.Ltmp1778:
	.cfi_offset %rbx, -48
.Ltmp1779:
	.cfi_offset %r12, -40
.Ltmp1780:
	.cfi_offset %r13, -32
.Ltmp1781:
	.cfi_offset %r14, -24
.Ltmp1782:
	.cfi_offset %r15, -16
	movq	const_int_rtx+512(%rip), %r13
	movq	%rdx, (%rsp)            # 8-byte Spill
	movq	%rsi, %r12
	movq	%rdi, 8(%rsp)           # 8-byte Spill
	xorq	%rdi, %rdi
	movq	$2, %rsi
	callq	gen_rtx_CONST_INT
	movq	const_int_rtx+520(%rip), %r15
	movq	%rax, %r14
	xorq	%rdi, %rdi
	movq	$3, %rsi
	callq	gen_rtx_CONST_INT
	movq	%rax, %rbx
	movq	$4, %rdi
	xorq	%rax, %rax
	movq	%r13, %rsi
	movq	%r14, %rdx
	movq	%r15, %rcx
	movq	%rbx, %r8
	callq	gen_rtvec
	movq	$39, %rdi
	xorq	%rsi, %rsi
	movq	%rax, %rdx
	callq	gen_rtx_fmt_E
	movq	$143, %rdi
	movq	$46, %rsi
	movq	%r12, %rdx
	movq	%rax, %rcx
	callq	gen_rtx_fmt_ee
	movq	%rax, %r14
	xorq	%rdi, %rdi
	movq	$2, %rsi
	callq	gen_rtx_CONST_INT
	movq	const_int_rtx+512(%rip), %r15
	movq	%rax, %rbx
	xorq	%rdi, %rdi
	movq	$3, %rsi
	callq	gen_rtx_CONST_INT
	movq	const_int_rtx+520(%rip), %r8
	movq	%rax, %rcx
	movq	$4, %rdi
	xorq	%rax, %rax
	movq	%rbx, %rsi
	movq	%r15, %rdx
	callq	gen_rtvec
	movq	$39, %rdi
	xorq	%rsi, %rsi
	movq	%rax, %rdx
	callq	gen_rtx_fmt_E
	movq	$143, %rdi
	movq	$46, %rsi
	movq	(%rsp), %rdx            # 8-byte Reload
	movq	%rax, %rcx
	callq	gen_rtx_fmt_ee
	movq	%rax, %rbx
	xorq	%rdi, %rdi
	movq	$5, %rsi
	callq	gen_rtx_CONST_INT
	movq	$142, %rdi
	movq	$46, %rsi
	movq	%r14, %rdx
	movq	%rbx, %rcx
	movq	%rax, %r8
	callq	gen_rtx_fmt_eee
	movq	$47, %rdi
	xorq	%rsi, %rsi
	movq	8(%rsp), %rdx           # 8-byte Reload
	movq	%rax, %rcx
	addq	$16, %rsp
	popq	%rbx
	popq	%r12
	popq	%r13
	popq	%r14
	popq	%r15
	jmp	gen_rtx_fmt_ee  # TAILCALL
.Ltmp1783:
	.size	gen_sse_unpcklps, .Ltmp1783-gen_sse_unpcklps
	.cfi_endproc

	.globl	gen_smaxv4sf3
	.align	16, 0x90
	.type	gen_smaxv4sf3,@function
gen_smaxv4sf3:                          # @gen_smaxv4sf3
	.cfi_startproc
# BB#0:                                 # %entry
	pushq	%rbx
.Ltmp1786:
	.cfi_def_cfa_offset 16
.Ltmp1787:
	.cfi_offset %rbx, -16
	movq	%rdx, %rax
	movq	%rsi, %rcx
	movq	%rdi, %rbx
	movq	$93, %rdi
	movq	$46, %rsi
	movq	%rcx, %rdx
	movq	%rax, %rcx
	callq	gen_rtx_fmt_ee
	movq	$47, %rdi
	xorq	%rsi, %rsi
	movq	%rbx, %rdx
	movq	%rax, %rcx
	popq	%rbx
	jmp	gen_rtx_fmt_ee  # TAILCALL
.Ltmp1788:
	.size	gen_smaxv4sf3, .Ltmp1788-gen_smaxv4sf3
	.cfi_endproc

	.globl	gen_vmsmaxv4sf3
	.align	16, 0x90
	.type	gen_vmsmaxv4sf3,@function
gen_vmsmaxv4sf3:                        # @gen_vmsmaxv4sf3
	.cfi_startproc
# BB#0:                                 # %entry
	pushq	%r14
.Ltmp1792:
	.cfi_def_cfa_offset 16
	pushq	%rbx
.Ltmp1793:
	.cfi_def_cfa_offset 24
	pushq	%rax
.Ltmp1794:
	.cfi_def_cfa_offset 32
.Ltmp1795:
	.cfi_offset %rbx, -24
.Ltmp1796:
	.cfi_offset %r14, -16
	movq	%rdx, %rax
	movq	%rsi, %rbx
	movq	%rdi, %r14
	movq	$93, %rdi
	movq	$46, %rsi
	movq	%rbx, %rdx
	movq	%rax, %rcx
	callq	gen_rtx_fmt_ee
	movq	const_int_rtx+520(%rip), %r8
	movq	$142, %rdi
	movq	$46, %rsi
	movq	%rax, %rdx
	movq	%rbx, %rcx
	callq	gen_rtx_fmt_eee
	movq	$47, %rdi
	xorq	%rsi, %rsi
	movq	%r14, %rdx
	movq	%rax, %rcx
	addq	$8, %rsp
	popq	%rbx
	popq	%r14
	jmp	gen_rtx_fmt_ee  # TAILCALL
.Ltmp1797:
	.size	gen_vmsmaxv4sf3, .Ltmp1797-gen_vmsmaxv4sf3
	.cfi_endproc

	.globl	gen_sminv4sf3
	.align	16, 0x90
	.type	gen_sminv4sf3,@function
gen_sminv4sf3:                          # @gen_sminv4sf3
	.cfi_startproc
# BB#0:                                 # %entry
	pushq	%rbx
.Ltmp1800:
	.cfi_def_cfa_offset 16
.Ltmp1801:
	.cfi_offset %rbx, -16
	movq	%rdx, %rax
	movq	%rsi, %rcx
	movq	%rdi, %rbx
	movq	$92, %rdi
	movq	$46, %rsi
	movq	%rcx, %rdx
	movq	%rax, %rcx
	callq	gen_rtx_fmt_ee
	movq	$47, %rdi
	xorq	%rsi, %rsi
	movq	%rbx, %rdx
	movq	%rax, %rcx
	popq	%rbx
	jmp	gen_rtx_fmt_ee  # TAILCALL
.Ltmp1802:
	.size	gen_sminv4sf3, .Ltmp1802-gen_sminv4sf3
	.cfi_endproc

	.globl	gen_vmsminv4sf3
	.align	16, 0x90
	.type	gen_vmsminv4sf3,@function
gen_vmsminv4sf3:                        # @gen_vmsminv4sf3
	.cfi_startproc
# BB#0:                                 # %entry
	pushq	%r14
.Ltmp1806:
	.cfi_def_cfa_offset 16
	pushq	%rbx
.Ltmp1807:
	.cfi_def_cfa_offset 24
	pushq	%rax
.Ltmp1808:
	.cfi_def_cfa_offset 32
.Ltmp1809:
	.cfi_offset %rbx, -24
.Ltmp1810:
	.cfi_offset %r14, -16
	movq	%rdx, %rax
	movq	%rsi, %rbx
	movq	%rdi, %r14
	movq	$92, %rdi
	movq	$46, %rsi
	movq	%rbx, %rdx
	movq	%rax, %rcx
	callq	gen_rtx_fmt_ee
	movq	const_int_rtx+520(%rip), %r8
	movq	$142, %rdi
	movq	$46, %rsi
	movq	%rax, %rdx
	movq	%rbx, %rcx
	callq	gen_rtx_fmt_eee
	movq	$47, %rdi
	xorq	%rsi, %rsi
	movq	%r14, %rdx
	movq	%rax, %rcx
	addq	$8, %rsp
	popq	%rbx
	popq	%r14
	jmp	gen_rtx_fmt_ee  # TAILCALL
.Ltmp1811:
	.size	gen_vmsminv4sf3, .Ltmp1811-gen_vmsminv4sf3
	.cfi_endproc

	.globl	gen_cvtpi2ps
	.align	16, 0x90
	.type	gen_cvtpi2ps,@function
gen_cvtpi2ps:                           # @gen_cvtpi2ps
	.cfi_startproc
# BB#0:                                 # %entry
	pushq	%r15
.Ltmp1816:
	.cfi_def_cfa_offset 16
	pushq	%r14
.Ltmp1817:
	.cfi_def_cfa_offset 24
	pushq	%rbx
.Ltmp1818:
	.cfi_def_cfa_offset 32
.Ltmp1819:
	.cfi_offset %rbx, -32
.Ltmp1820:
	.cfi_offset %r14, -24
.Ltmp1821:
	.cfi_offset %r15, -16
	movq	%rsi, %r15
	movq	%rdi, %r14
	movq	$125, %rdi
	movq	$44, %rsi
	callq	gen_rtx_fmt_e
	movq	$145, %rdi
	movq	$46, %rsi
	movq	%rax, %rdx
	callq	gen_rtx_fmt_e
	movq	%rax, %rbx
	xorq	%rdi, %rdi
	movq	$12, %rsi
	callq	gen_rtx_CONST_INT
	movq	$142, %rdi
	movq	$46, %rsi
	movq	%r15, %rdx
	movq	%rbx, %rcx
	movq	%rax, %r8
	callq	gen_rtx_fmt_eee
	movq	$47, %rdi
	xorq	%rsi, %rsi
	movq	%r14, %rdx
	movq	%rax, %rcx
	popq	%rbx
	popq	%r14
	popq	%r15
	jmp	gen_rtx_fmt_ee  # TAILCALL
.Ltmp1822:
	.size	gen_cvtpi2ps, .Ltmp1822-gen_cvtpi2ps
	.cfi_endproc

	.globl	gen_cvtps2pi
	.align	16, 0x90
	.type	gen_cvtps2pi,@function
gen_cvtps2pi:                           # @gen_cvtps2pi
	.cfi_startproc
# BB#0:                                 # %entry
	pushq	%r14
.Ltmp1826:
	.cfi_def_cfa_offset 16
	pushq	%rbx
.Ltmp1827:
	.cfi_def_cfa_offset 24
	pushq	%rax
.Ltmp1828:
	.cfi_def_cfa_offset 32
.Ltmp1829:
	.cfi_offset %rbx, -24
.Ltmp1830:
	.cfi_offset %r14, -16
	movq	%rsi, %rax
	movq	%rdi, %r14
	movq	$126, %rdi
	movq	$37, %rsi
	movq	%rax, %rdx
	callq	gen_rtx_fmt_e
	movq	const_int_rtx+512(%rip), %rsi
	movq	const_int_rtx+520(%rip), %rdx
	movq	%rax, %rbx
	movq	$2, %rdi
	xorq	%rax, %rax
	callq	gen_rtvec
	movq	$39, %rdi
	xorq	%rsi, %rsi
	movq	%rax, %rdx
	callq	gen_rtx_fmt_E
	movq	$143, %rdi
	movq	$33, %rsi
	movq	%rbx, %rdx
	movq	%rax, %rcx
	callq	gen_rtx_fmt_ee
	movq	$47, %rdi
	xorq	%rsi, %rsi
	movq	%r14, %rdx
	movq	%rax, %rcx
	addq	$8, %rsp
	popq	%rbx
	popq	%r14
	jmp	gen_rtx_fmt_ee  # TAILCALL
.Ltmp1831:
	.size	gen_cvtps2pi, .Ltmp1831-gen_cvtps2pi
	.cfi_endproc

	.globl	gen_cvttps2pi
	.align	16, 0x90
	.type	gen_cvttps2pi,@function
gen_cvttps2pi:                          # @gen_cvttps2pi
	.cfi_startproc
# BB#0:                                 # %entry
	pushq	%r14
.Ltmp1835:
	.cfi_def_cfa_offset 16
	pushq	%rbx
.Ltmp1836:
	.cfi_def_cfa_offset 24
	pushq	%rax
.Ltmp1837:
	.cfi_def_cfa_offset 32
.Ltmp1838:
	.cfi_offset %rbx, -24
.Ltmp1839:
	.cfi_offset %r14, -16
	movq	%rdi, %r14
	movq	$1, %rdi
	xorq	%rax, %rax
	callq	gen_rtvec
	movq	$42, %rdi
	movq	$37, %rsi
	movq	$30, %rcx
	movq	%rax, %rdx
	callq	gen_rtx_fmt_Ei
	movq	const_int_rtx+512(%rip), %rsi
	movq	const_int_rtx+520(%rip), %rdx
	movq	%rax, %rbx
	movq	$2, %rdi
	xorq	%rax, %rax
	callq	gen_rtvec
	movq	$39, %rdi
	xorq	%rsi, %rsi
	movq	%rax, %rdx
	callq	gen_rtx_fmt_E
	movq	$143, %rdi
	movq	$33, %rsi
	movq	%rbx, %rdx
	movq	%rax, %rcx
	callq	gen_rtx_fmt_ee
	movq	$47, %rdi
	xorq	%rsi, %rsi
	movq	%r14, %rdx
	movq	%rax, %rcx
	addq	$8, %rsp
	popq	%rbx
	popq	%r14
	jmp	gen_rtx_fmt_ee  # TAILCALL
.Ltmp1840:
	.size	gen_cvttps2pi, .Ltmp1840-gen_cvttps2pi
	.cfi_endproc

	.globl	gen_cvtsi2ss
	.align	16, 0x90
	.type	gen_cvtsi2ss,@function
gen_cvtsi2ss:                           # @gen_cvtsi2ss
	.cfi_startproc
# BB#0:                                 # %entry
	pushq	%r15
.Ltmp1845:
	.cfi_def_cfa_offset 16
	pushq	%r14
.Ltmp1846:
	.cfi_def_cfa_offset 24
	pushq	%rbx
.Ltmp1847:
	.cfi_def_cfa_offset 32
.Ltmp1848:
	.cfi_offset %rbx, -32
.Ltmp1849:
	.cfi_offset %r14, -24
.Ltmp1850:
	.cfi_offset %r15, -16
	movq	%rsi, %r15
	movq	%rdi, %r14
	movq	$125, %rdi
	movq	$15, %rsi
	callq	gen_rtx_fmt_e
	movq	$145, %rdi
	movq	$46, %rsi
	movq	%rax, %rdx
	callq	gen_rtx_fmt_e
	movq	%rax, %rbx
	xorq	%rdi, %rdi
	movq	$14, %rsi
	callq	gen_rtx_CONST_INT
	movq	$142, %rdi
	movq	$46, %rsi
	movq	%r15, %rdx
	movq	%rbx, %rcx
	movq	%rax, %r8
	callq	gen_rtx_fmt_eee
	movq	$47, %rdi
	xorq	%rsi, %rsi
	movq	%r14, %rdx
	movq	%rax, %rcx
	popq	%rbx
	popq	%r14
	popq	%r15
	jmp	gen_rtx_fmt_ee  # TAILCALL
.Ltmp1851:
	.size	gen_cvtsi2ss, .Ltmp1851-gen_cvtsi2ss
	.cfi_endproc

	.globl	gen_cvtss2si
	.align	16, 0x90
	.type	gen_cvtss2si,@function
gen_cvtss2si:                           # @gen_cvtss2si
	.cfi_startproc
# BB#0:                                 # %entry
	pushq	%r14
.Ltmp1855:
	.cfi_def_cfa_offset 16
	pushq	%rbx
.Ltmp1856:
	.cfi_def_cfa_offset 24
	pushq	%rax
.Ltmp1857:
	.cfi_def_cfa_offset 32
.Ltmp1858:
	.cfi_offset %rbx, -24
.Ltmp1859:
	.cfi_offset %r14, -16
	movq	%rsi, %rax
	movq	%rdi, %r14
	movq	$126, %rdi
	movq	$37, %rsi
	movq	%rax, %rdx
	callq	gen_rtx_fmt_e
	movq	const_int_rtx+512(%rip), %rsi
	movq	%rax, %rbx
	movq	$1, %rdi
	xorq	%rax, %rax
	callq	gen_rtvec
	movq	$39, %rdi
	xorq	%rsi, %rsi
	movq	%rax, %rdx
	callq	gen_rtx_fmt_E
	movq	$143, %rdi
	movq	$4, %rsi
	movq	%rbx, %rdx
	movq	%rax, %rcx
	callq	gen_rtx_fmt_ee
	movq	$47, %rdi
	xorq	%rsi, %rsi
	movq	%r14, %rdx
	movq	%rax, %rcx
	addq	$8, %rsp
	popq	%rbx
	popq	%r14
	jmp	gen_rtx_fmt_ee  # TAILCALL
.Ltmp1860:
	.size	gen_cvtss2si, .Ltmp1860-gen_cvtss2si
	.cfi_endproc

	.globl	gen_cvttss2si
	.align	16, 0x90
	.type	gen_cvttss2si,@function
gen_cvttss2si:                          # @gen_cvttss2si
	.cfi_startproc
# BB#0:                                 # %entry
	pushq	%r14
.Ltmp1864:
	.cfi_def_cfa_offset 16
	pushq	%rbx
.Ltmp1865:
	.cfi_def_cfa_offset 24
	pushq	%rax
.Ltmp1866:
	.cfi_def_cfa_offset 32
.Ltmp1867:
	.cfi_offset %rbx, -24
.Ltmp1868:
	.cfi_offset %r14, -16
	movq	%rdi, %r14
	movq	$1, %rdi
	xorq	%rax, %rax
	callq	gen_rtvec
	movq	$42, %rdi
	movq	$37, %rsi
	movq	$30, %rcx
	movq	%rax, %rdx
	callq	gen_rtx_fmt_Ei
	movq	const_int_rtx+512(%rip), %rsi
	movq	%rax, %rbx
	movq	$1, %rdi
	xorq	%rax, %rax
	callq	gen_rtvec
	movq	$39, %rdi
	xorq	%rsi, %rsi
	movq	%rax, %rdx
	callq	gen_rtx_fmt_E
	movq	$143, %rdi
	movq	$4, %rsi
	movq	%rbx, %rdx
	movq	%rax, %rcx
	callq	gen_rtx_fmt_ee
	movq	$47, %rdi
	xorq	%rsi, %rsi
	movq	%r14, %rdx
	movq	%rax, %rcx
	addq	$8, %rsp
	popq	%rbx
	popq	%r14
	jmp	gen_rtx_fmt_ee  # TAILCALL
.Ltmp1869:
	.size	gen_cvttss2si, .Ltmp1869-gen_cvttss2si
	.cfi_endproc

	.globl	gen_addv8qi3
	.align	16, 0x90
	.type	gen_addv8qi3,@function
gen_addv8qi3:                           # @gen_addv8qi3
	.cfi_startproc
# BB#0:                                 # %entry
	pushq	%rbx
.Ltmp1872:
	.cfi_def_cfa_offset 16
.Ltmp1873:
	.cfi_offset %rbx, -16
	movq	%rdx, %rax
	movq	%rsi, %rcx
	movq	%rdi, %rbx
	movq	$75, %rdi
	movq	$39, %rsi
	movq	%rcx, %rdx
	movq	%rax, %rcx
	callq	gen_rtx_fmt_ee
	movq	$47, %rdi
	xorq	%rsi, %rsi
	movq	%rbx, %rdx
	movq	%rax, %rcx
	popq	%rbx
	jmp	gen_rtx_fmt_ee  # TAILCALL
.Ltmp1874:
	.size	gen_addv8qi3, .Ltmp1874-gen_addv8qi3
	.cfi_endproc

	.globl	gen_addv4hi3
	.align	16, 0x90
	.type	gen_addv4hi3,@function
gen_addv4hi3:                           # @gen_addv4hi3
	.cfi_startproc
# BB#0:                                 # %entry
	pushq	%rbx
.Ltmp1877:
	.cfi_def_cfa_offset 16
.Ltmp1878:
	.cfi_offset %rbx, -16
	movq	%rdx, %rax
	movq	%rsi, %rcx
	movq	%rdi, %rbx
	movq	$75, %rdi
	movq	$36, %rsi
	movq	%rcx, %rdx
	movq	%rax, %rcx
	callq	gen_rtx_fmt_ee
	movq	$47, %rdi
	xorq	%rsi, %rsi
	movq	%rbx, %rdx
	movq	%rax, %rcx
	popq	%rbx
	jmp	gen_rtx_fmt_ee  # TAILCALL
.Ltmp1879:
	.size	gen_addv4hi3, .Ltmp1879-gen_addv4hi3
	.cfi_endproc

	.globl	gen_addv2si3
	.align	16, 0x90
	.type	gen_addv2si3,@function
gen_addv2si3:                           # @gen_addv2si3
	.cfi_startproc
# BB#0:                                 # %entry
	pushq	%rbx
.Ltmp1882:
	.cfi_def_cfa_offset 16
.Ltmp1883:
	.cfi_offset %rbx, -16
	movq	%rdx, %rax
	movq	%rsi, %rcx
	movq	%rdi, %rbx
	movq	$75, %rdi
	movq	$33, %rsi
	movq	%rcx, %rdx
	movq	%rax, %rcx
	callq	gen_rtx_fmt_ee
	movq	$47, %rdi
	xorq	%rsi, %rsi
	movq	%rbx, %rdx
	movq	%rax, %rcx
	popq	%rbx
	jmp	gen_rtx_fmt_ee  # TAILCALL
.Ltmp1884:
	.size	gen_addv2si3, .Ltmp1884-gen_addv2si3
	.cfi_endproc

	.globl	gen_ssaddv8qi3
	.align	16, 0x90
	.type	gen_ssaddv8qi3,@function
gen_ssaddv8qi3:                         # @gen_ssaddv8qi3
	.cfi_startproc
# BB#0:                                 # %entry
	pushq	%rbx
.Ltmp1887:
	.cfi_def_cfa_offset 16
.Ltmp1888:
	.cfi_offset %rbx, -16
	movq	%rdx, %rax
	movq	%rsi, %rcx
	movq	%rdi, %rbx
	movq	$146, %rdi
	movq	$39, %rsi
	movq	%rcx, %rdx
	movq	%rax, %rcx
	callq	gen_rtx_fmt_ee
	movq	$47, %rdi
	xorq	%rsi, %rsi
	movq	%rbx, %rdx
	movq	%rax, %rcx
	popq	%rbx
	jmp	gen_rtx_fmt_ee  # TAILCALL
.Ltmp1889:
	.size	gen_ssaddv8qi3, .Ltmp1889-gen_ssaddv8qi3
	.cfi_endproc

	.globl	gen_ssaddv4hi3
	.align	16, 0x90
	.type	gen_ssaddv4hi3,@function
gen_ssaddv4hi3:                         # @gen_ssaddv4hi3
	.cfi_startproc
# BB#0:                                 # %entry
	pushq	%rbx
.Ltmp1892:
	.cfi_def_cfa_offset 16
.Ltmp1893:
	.cfi_offset %rbx, -16
	movq	%rdx, %rax
	movq	%rsi, %rcx
	movq	%rdi, %rbx
	movq	$146, %rdi
	movq	$36, %rsi
	movq	%rcx, %rdx
	movq	%rax, %rcx
	callq	gen_rtx_fmt_ee
	movq	$47, %rdi
	xorq	%rsi, %rsi
	movq	%rbx, %rdx
	movq	%rax, %rcx
	popq	%rbx
	jmp	gen_rtx_fmt_ee  # TAILCALL
.Ltmp1894:
	.size	gen_ssaddv4hi3, .Ltmp1894-gen_ssaddv4hi3
	.cfi_endproc

	.globl	gen_usaddv8qi3
	.align	16, 0x90
	.type	gen_usaddv8qi3,@function
gen_usaddv8qi3:                         # @gen_usaddv8qi3
	.cfi_startproc
# BB#0:                                 # %entry
	pushq	%rbx
.Ltmp1897:
	.cfi_def_cfa_offset 16
.Ltmp1898:
	.cfi_offset %rbx, -16
	movq	%rdx, %rax
	movq	%rsi, %rcx
	movq	%rdi, %rbx
	movq	$147, %rdi
	movq	$39, %rsi
	movq	%rcx, %rdx
	movq	%rax, %rcx
	callq	gen_rtx_fmt_ee
	movq	$47, %rdi
	xorq	%rsi, %rsi
	movq	%rbx, %rdx
	movq	%rax, %rcx
	popq	%rbx
	jmp	gen_rtx_fmt_ee  # TAILCALL
.Ltmp1899:
	.size	gen_usaddv8qi3, .Ltmp1899-gen_usaddv8qi3
	.cfi_endproc

	.globl	gen_usaddv4hi3
	.align	16, 0x90
	.type	gen_usaddv4hi3,@function
gen_usaddv4hi3:                         # @gen_usaddv4hi3
	.cfi_startproc
# BB#0:                                 # %entry
	pushq	%rbx
.Ltmp1902:
	.cfi_def_cfa_offset 16
.Ltmp1903:
	.cfi_offset %rbx, -16
	movq	%rdx, %rax
	movq	%rsi, %rcx
	movq	%rdi, %rbx
	movq	$147, %rdi
	movq	$36, %rsi
	movq	%rcx, %rdx
	movq	%rax, %rcx
	callq	gen_rtx_fmt_ee
	movq	$47, %rdi
	xorq	%rsi, %rsi
	movq	%rbx, %rdx
	movq	%rax, %rcx
	popq	%rbx
	jmp	gen_rtx_fmt_ee  # TAILCALL
.Ltmp1904:
	.size	gen_usaddv4hi3, .Ltmp1904-gen_usaddv4hi3
	.cfi_endproc

	.globl	gen_subv8qi3
	.align	16, 0x90
	.type	gen_subv8qi3,@function
gen_subv8qi3:                           # @gen_subv8qi3
	.cfi_startproc
# BB#0:                                 # %entry
	pushq	%rbx
.Ltmp1907:
	.cfi_def_cfa_offset 16
.Ltmp1908:
	.cfi_offset %rbx, -16
	movq	%rdx, %rax
	movq	%rsi, %rcx
	movq	%rdi, %rbx
	movq	$76, %rdi
	movq	$39, %rsi
	movq	%rcx, %rdx
	movq	%rax, %rcx
	callq	gen_rtx_fmt_ee
	movq	$47, %rdi
	xorq	%rsi, %rsi
	movq	%rbx, %rdx
	movq	%rax, %rcx
	popq	%rbx
	jmp	gen_rtx_fmt_ee  # TAILCALL
.Ltmp1909:
	.size	gen_subv8qi3, .Ltmp1909-gen_subv8qi3
	.cfi_endproc

	.globl	gen_subv4hi3
	.align	16, 0x90
	.type	gen_subv4hi3,@function
gen_subv4hi3:                           # @gen_subv4hi3
	.cfi_startproc
# BB#0:                                 # %entry
	pushq	%rbx
.Ltmp1912:
	.cfi_def_cfa_offset 16
.Ltmp1913:
	.cfi_offset %rbx, -16
	movq	%rdx, %rax
	movq	%rsi, %rcx
	movq	%rdi, %rbx
	movq	$76, %rdi
	movq	$36, %rsi
	movq	%rcx, %rdx
	movq	%rax, %rcx
	callq	gen_rtx_fmt_ee
	movq	$47, %rdi
	xorq	%rsi, %rsi
	movq	%rbx, %rdx
	movq	%rax, %rcx
	popq	%rbx
	jmp	gen_rtx_fmt_ee  # TAILCALL
.Ltmp1914:
	.size	gen_subv4hi3, .Ltmp1914-gen_subv4hi3
	.cfi_endproc

	.globl	gen_subv2si3
	.align	16, 0x90
	.type	gen_subv2si3,@function
gen_subv2si3:                           # @gen_subv2si3
	.cfi_startproc
# BB#0:                                 # %entry
	pushq	%rbx
.Ltmp1917:
	.cfi_def_cfa_offset 16
.Ltmp1918:
	.cfi_offset %rbx, -16
	movq	%rdx, %rax
	movq	%rsi, %rcx
	movq	%rdi, %rbx
	movq	$76, %rdi
	movq	$33, %rsi
	movq	%rcx, %rdx
	movq	%rax, %rcx
	callq	gen_rtx_fmt_ee
	movq	$47, %rdi
	xorq	%rsi, %rsi
	movq	%rbx, %rdx
	movq	%rax, %rcx
	popq	%rbx
	jmp	gen_rtx_fmt_ee  # TAILCALL
.Ltmp1919:
	.size	gen_subv2si3, .Ltmp1919-gen_subv2si3
	.cfi_endproc

	.globl	gen_sssubv8qi3
	.align	16, 0x90
	.type	gen_sssubv8qi3,@function
gen_sssubv8qi3:                         # @gen_sssubv8qi3
	.cfi_startproc
# BB#0:                                 # %entry
	pushq	%rbx
.Ltmp1922:
	.cfi_def_cfa_offset 16
.Ltmp1923:
	.cfi_offset %rbx, -16
	movq	%rdx, %rax
	movq	%rsi, %rcx
	movq	%rdi, %rbx
	movq	$148, %rdi
	movq	$39, %rsi
	movq	%rcx, %rdx
	movq	%rax, %rcx
	callq	gen_rtx_fmt_ee
	movq	$47, %rdi
	xorq	%rsi, %rsi
	movq	%rbx, %rdx
	movq	%rax, %rcx
	popq	%rbx
	jmp	gen_rtx_fmt_ee  # TAILCALL
.Ltmp1924:
	.size	gen_sssubv8qi3, .Ltmp1924-gen_sssubv8qi3
	.cfi_endproc

	.globl	gen_sssubv4hi3
	.align	16, 0x90
	.type	gen_sssubv4hi3,@function
gen_sssubv4hi3:                         # @gen_sssubv4hi3
	.cfi_startproc
# BB#0:                                 # %entry
	pushq	%rbx
.Ltmp1927:
	.cfi_def_cfa_offset 16
.Ltmp1928:
	.cfi_offset %rbx, -16
	movq	%rdx, %rax
	movq	%rsi, %rcx
	movq	%rdi, %rbx
	movq	$148, %rdi
	movq	$36, %rsi
	movq	%rcx, %rdx
	movq	%rax, %rcx
	callq	gen_rtx_fmt_ee
	movq	$47, %rdi
	xorq	%rsi, %rsi
	movq	%rbx, %rdx
	movq	%rax, %rcx
	popq	%rbx
	jmp	gen_rtx_fmt_ee  # TAILCALL
.Ltmp1929:
	.size	gen_sssubv4hi3, .Ltmp1929-gen_sssubv4hi3
	.cfi_endproc

	.globl	gen_ussubv8qi3
	.align	16, 0x90
	.type	gen_ussubv8qi3,@function
gen_ussubv8qi3:                         # @gen_ussubv8qi3
	.cfi_startproc
# BB#0:                                 # %entry
	pushq	%rbx
.Ltmp1932:
	.cfi_def_cfa_offset 16
.Ltmp1933:
	.cfi_offset %rbx, -16
	movq	%rdx, %rax
	movq	%rsi, %rcx
	movq	%rdi, %rbx
	movq	$149, %rdi
	movq	$39, %rsi
	movq	%rcx, %rdx
	movq	%rax, %rcx
	callq	gen_rtx_fmt_ee
	movq	$47, %rdi
	xorq	%rsi, %rsi
	movq	%rbx, %rdx
	movq	%rax, %rcx
	popq	%rbx
	jmp	gen_rtx_fmt_ee  # TAILCALL
.Ltmp1934:
	.size	gen_ussubv8qi3, .Ltmp1934-gen_ussubv8qi3
	.cfi_endproc

	.globl	gen_ussubv4hi3
	.align	16, 0x90
	.type	gen_ussubv4hi3,@function
gen_ussubv4hi3:                         # @gen_ussubv4hi3
	.cfi_startproc
# BB#0:                                 # %entry
	pushq	%rbx
.Ltmp1937:
	.cfi_def_cfa_offset 16
.Ltmp1938:
	.cfi_offset %rbx, -16
	movq	%rdx, %rax
	movq	%rsi, %rcx
	movq	%rdi, %rbx
	movq	$149, %rdi
	movq	$36, %rsi
	movq	%rcx, %rdx
	movq	%rax, %rcx
	callq	gen_rtx_fmt_ee
	movq	$47, %rdi
	xorq	%rsi, %rsi
	movq	%rbx, %rdx
	movq	%rax, %rcx
	popq	%rbx
	jmp	gen_rtx_fmt_ee  # TAILCALL
.Ltmp1939:
	.size	gen_ussubv4hi3, .Ltmp1939-gen_ussubv4hi3
	.cfi_endproc

	.globl	gen_mulv4hi3
	.align	16, 0x90
	.type	gen_mulv4hi3,@function
gen_mulv4hi3:                           # @gen_mulv4hi3
	.cfi_startproc
# BB#0:                                 # %entry
	pushq	%rbx
.Ltmp1942:
	.cfi_def_cfa_offset 16
.Ltmp1943:
	.cfi_offset %rbx, -16
	movq	%rdx, %rax
	movq	%rsi, %rcx
	movq	%rdi, %rbx
	movq	$78, %rdi
	movq	$36, %rsi
	movq	%rcx, %rdx
	movq	%rax, %rcx
	callq	gen_rtx_fmt_ee
	movq	$47, %rdi
	xorq	%rsi, %rsi
	movq	%rbx, %rdx
	movq	%rax, %rcx
	popq	%rbx
	jmp	gen_rtx_fmt_ee  # TAILCALL
.Ltmp1944:
	.size	gen_mulv4hi3, .Ltmp1944-gen_mulv4hi3
	.cfi_endproc

	.globl	gen_smulv4hi3_highpart
	.align	16, 0x90
	.type	gen_smulv4hi3_highpart,@function
gen_smulv4hi3_highpart:                 # @gen_smulv4hi3_highpart
	.cfi_startproc
# BB#0:                                 # %entry
	pushq	%r15
.Ltmp1949:
	.cfi_def_cfa_offset 16
	pushq	%r14
.Ltmp1950:
	.cfi_def_cfa_offset 24
	pushq	%rbx
.Ltmp1951:
	.cfi_def_cfa_offset 32
.Ltmp1952:
	.cfi_offset %rbx, -32
.Ltmp1953:
	.cfi_offset %r14, -24
.Ltmp1954:
	.cfi_offset %r15, -16
	movq	%rdx, %r15
	movq	%rsi, %rax
	movq	%rdi, %r14
	movq	$120, %rdi
	movq	$37, %rsi
	movq	%rax, %rdx
	callq	gen_rtx_fmt_e
	movq	%rax, %rbx
	movq	$120, %rdi
	movq	$37, %rsi
	movq	%r15, %rdx
	callq	gen_rtx_fmt_e
	movq	$78, %rdi
	movq	$37, %rsi
	movq	%rbx, %rdx
	movq	%rax, %rcx
	callq	gen_rtx_fmt_ee
	movq	%rax, %rbx
	xorq	%rdi, %rdi
	movq	$16, %rsi
	callq	gen_rtx_CONST_INT
	movq	$90, %rdi
	movq	$37, %rsi
	movq	%rbx, %rdx
	movq	%rax, %rcx
	callq	gen_rtx_fmt_ee
	movq	$122, %rdi
	movq	$36, %rsi
	movq	%rax, %rdx
	callq	gen_rtx_fmt_e
	movq	$47, %rdi
	xorq	%rsi, %rsi
	movq	%r14, %rdx
	movq	%rax, %rcx
	popq	%rbx
	popq	%r14
	popq	%r15
	jmp	gen_rtx_fmt_ee  # TAILCALL
.Ltmp1955:
	.size	gen_smulv4hi3_highpart, .Ltmp1955-gen_smulv4hi3_highpart
	.cfi_endproc

	.globl	gen_umulv4hi3_highpart
	.align	16, 0x90
	.type	gen_umulv4hi3_highpart,@function
gen_umulv4hi3_highpart:                 # @gen_umulv4hi3_highpart
	.cfi_startproc
# BB#0:                                 # %entry
	pushq	%r15
.Ltmp1960:
	.cfi_def_cfa_offset 16
	pushq	%r14
.Ltmp1961:
	.cfi_def_cfa_offset 24
	pushq	%rbx
.Ltmp1962:
	.cfi_def_cfa_offset 32
.Ltmp1963:
	.cfi_offset %rbx, -32
.Ltmp1964:
	.cfi_offset %r14, -24
.Ltmp1965:
	.cfi_offset %r15, -16
	movq	%rdx, %r15
	movq	%rsi, %rax
	movq	%rdi, %r14
	movq	$121, %rdi
	movq	$37, %rsi
	movq	%rax, %rdx
	callq	gen_rtx_fmt_e
	movq	%rax, %rbx
	movq	$121, %rdi
	movq	$37, %rsi
	movq	%r15, %rdx
	callq	gen_rtx_fmt_e
	movq	$78, %rdi
	movq	$37, %rsi
	movq	%rbx, %rdx
	movq	%rax, %rcx
	callq	gen_rtx_fmt_ee
	movq	%rax, %rbx
	xorq	%rdi, %rdi
	movq	$16, %rsi
	callq	gen_rtx_CONST_INT
	movq	$90, %rdi
	movq	$37, %rsi
	movq	%rbx, %rdx
	movq	%rax, %rcx
	callq	gen_rtx_fmt_ee
	movq	$122, %rdi
	movq	$36, %rsi
	movq	%rax, %rdx
	callq	gen_rtx_fmt_e
	movq	$47, %rdi
	xorq	%rsi, %rsi
	movq	%r14, %rdx
	movq	%rax, %rcx
	popq	%rbx
	popq	%r14
	popq	%r15
	jmp	gen_rtx_fmt_ee  # TAILCALL
.Ltmp1966:
	.size	gen_umulv4hi3_highpart, .Ltmp1966-gen_umulv4hi3_highpart
	.cfi_endproc

	.globl	gen_mmx_pmaddwd
	.align	16, 0x90
	.type	gen_mmx_pmaddwd,@function
gen_mmx_pmaddwd:                        # @gen_mmx_pmaddwd
	.cfi_startproc
# BB#0:                                 # %entry
	pushq	%r15
.Ltmp1973:
	.cfi_def_cfa_offset 16
	pushq	%r14
.Ltmp1974:
	.cfi_def_cfa_offset 24
	pushq	%r13
.Ltmp1975:
	.cfi_def_cfa_offset 32
	pushq	%r12
.Ltmp1976:
	.cfi_def_cfa_offset 40
	pushq	%rbx
.Ltmp1977:
	.cfi_def_cfa_offset 48
.Ltmp1978:
	.cfi_offset %rbx, -48
.Ltmp1979:
	.cfi_offset %r12, -40
.Ltmp1980:
	.cfi_offset %r13, -32
.Ltmp1981:
	.cfi_offset %r14, -24
.Ltmp1982:
	.cfi_offset %r15, -16
	movq	const_int_rtx+512(%rip), %rbx
	movq	%rdx, %r15
	movq	%rsi, %r13
	movq	%rdi, %r14
	xorq	%rdi, %rdi
	movq	$2, %rsi
	callq	gen_rtx_CONST_INT
	movq	%rax, %rcx
	movq	$2, %rdi
	xorq	%rax, %rax
	movq	%rbx, %rsi
	movq	%rcx, %rdx
	callq	gen_rtvec
	movq	$39, %rdi
	xorq	%rsi, %rsi
	movq	%rax, %rdx
	callq	gen_rtx_fmt_E
	movq	$143, %rdi
	movq	$32, %rsi
	movq	%r13, %rdx
	movq	%rax, %rcx
	callq	gen_rtx_fmt_ee
	movq	$120, %rdi
	movq	$33, %rsi
	movq	%rax, %rdx
	callq	gen_rtx_fmt_e
	movq	const_int_rtx+512(%rip), %rbx
	movq	%rax, %r12
	xorq	%rdi, %rdi
	movq	$2, %rsi
	callq	gen_rtx_CONST_INT
	movq	%rax, %rcx
	movq	$2, %rdi
	xorq	%rax, %rax
	movq	%rbx, %rsi
	movq	%rcx, %rdx
	callq	gen_rtvec
	movq	$39, %rdi
	xorq	%rsi, %rsi
	movq	%rax, %rdx
	callq	gen_rtx_fmt_E
	movq	$143, %rdi
	movq	$32, %rsi
	movq	%r15, %rdx
	movq	%rax, %rcx
	callq	gen_rtx_fmt_ee
	movq	$120, %rdi
	movq	$33, %rsi
	movq	%rax, %rdx
	callq	gen_rtx_fmt_e
	movq	$78, %rdi
	movq	$33, %rsi
	movq	%r12, %rdx
	movq	%rax, %rcx
	callq	gen_rtx_fmt_ee
	movq	const_int_rtx+520(%rip), %rbx
	movq	%rax, %r12
	xorq	%rdi, %rdi
	movq	$3, %rsi
	callq	gen_rtx_CONST_INT
	movq	%rax, %rcx
	movq	$2, %rdi
	xorq	%rax, %rax
	movq	%rbx, %rsi
	movq	%rcx, %rdx
	callq	gen_rtvec
	movq	$39, %rdi
	xorq	%rsi, %rsi
	movq	%rax, %rdx
	callq	gen_rtx_fmt_E
	movq	$143, %rdi
	movq	$32, %rsi
	movq	%r13, %rdx
	movq	%rax, %rcx
	callq	gen_rtx_fmt_ee
	movq	$120, %rdi
	movq	$33, %rsi
	movq	%rax, %rdx
	callq	gen_rtx_fmt_e
	movq	const_int_rtx+520(%rip), %rbx
	movq	%rax, %r13
	xorq	%rdi, %rdi
	movq	$3, %rsi
	callq	gen_rtx_CONST_INT
	movq	%rax, %rcx
	movq	$2, %rdi
	xorq	%rax, %rax
	movq	%rbx, %rsi
	movq	%rcx, %rdx
	callq	gen_rtvec
	movq	$39, %rdi
	xorq	%rsi, %rsi
	movq	%rax, %rdx
	callq	gen_rtx_fmt_E
	movq	$143, %rdi
	movq	$32, %rsi
	movq	%r15, %rdx
	movq	%rax, %rcx
	callq	gen_rtx_fmt_ee
	movq	$120, %rdi
	movq	$33, %rsi
	movq	%rax, %rdx
	callq	gen_rtx_fmt_e
	movq	$78, %rdi
	movq	$33, %rsi
	movq	%r13, %rdx
	movq	%rax, %rcx
	callq	gen_rtx_fmt_ee
	movq	$75, %rdi
	movq	$33, %rsi
	movq	%r12, %rdx
	movq	%rax, %rcx
	callq	gen_rtx_fmt_ee
	movq	$47, %rdi
	xorq	%rsi, %rsi
	movq	%r14, %rdx
	movq	%rax, %rcx
	popq	%rbx
	popq	%r12
	popq	%r13
	popq	%r14
	popq	%r15
	jmp	gen_rtx_fmt_ee  # TAILCALL
.Ltmp1983:
	.size	gen_mmx_pmaddwd, .Ltmp1983-gen_mmx_pmaddwd
	.cfi_endproc

	.globl	gen_mmx_iordi3
	.align	16, 0x90
	.type	gen_mmx_iordi3,@function
gen_mmx_iordi3:                         # @gen_mmx_iordi3
	.cfi_startproc
# BB#0:                                 # %entry
	pushq	%rbx
.Ltmp1986:
	.cfi_def_cfa_offset 16
.Ltmp1987:
	.cfi_offset %rbx, -16
	movq	%rdx, %rax
	movq	%rsi, %rcx
	movq	%rdi, %rbx
	movq	$84, %rdi
	movq	$5, %rsi
	movq	%rcx, %rdx
	movq	%rax, %rcx
	callq	gen_rtx_fmt_ee
	movq	%rax, %rcx
	movq	$1, %rdi
	xorq	%rax, %rax
	movq	%rcx, %rsi
	callq	gen_rtvec
	movq	$42, %rdi
	movq	$5, %rsi
	movq	$45, %rcx
	movq	%rax, %rdx
	callq	gen_rtx_fmt_Ei
	movq	$47, %rdi
	xorq	%rsi, %rsi
	movq	%rbx, %rdx
	movq	%rax, %rcx
	popq	%rbx
	jmp	gen_rtx_fmt_ee  # TAILCALL
.Ltmp1988:
	.size	gen_mmx_iordi3, .Ltmp1988-gen_mmx_iordi3
	.cfi_endproc

	.globl	gen_mmx_xordi3
	.align	16, 0x90
	.type	gen_mmx_xordi3,@function
gen_mmx_xordi3:                         # @gen_mmx_xordi3
	.cfi_startproc
# BB#0:                                 # %entry
	pushq	%rbx
.Ltmp1991:
	.cfi_def_cfa_offset 16
.Ltmp1992:
	.cfi_offset %rbx, -16
	movq	%rdx, %rax
	movq	%rsi, %rcx
	movq	%rdi, %rbx
	movq	$85, %rdi
	movq	$5, %rsi
	movq	%rcx, %rdx
	movq	%rax, %rcx
	callq	gen_rtx_fmt_ee
	movq	%rax, %rcx
	movq	$1, %rdi
	xorq	%rax, %rax
	movq	%rcx, %rsi
	callq	gen_rtvec
	movq	$42, %rdi
	movq	$5, %rsi
	movq	$45, %rcx
	movq	%rax, %rdx
	callq	gen_rtx_fmt_Ei
	movq	$47, %rdi
	xorq	%rsi, %rsi
	movq	%rbx, %rdx
	movq	%rax, %rcx
	popq	%rbx
	jmp	gen_rtx_fmt_ee  # TAILCALL
.Ltmp1993:
	.size	gen_mmx_xordi3, .Ltmp1993-gen_mmx_xordi3
	.cfi_endproc

	.globl	gen_mmx_clrdi
	.align	16, 0x90
	.type	gen_mmx_clrdi,@function
gen_mmx_clrdi:                          # @gen_mmx_clrdi
	.cfi_startproc
# BB#0:                                 # %entry
	pushq	%rbx
.Ltmp1996:
	.cfi_def_cfa_offset 16
.Ltmp1997:
	.cfi_offset %rbx, -16
	movq	const_int_rtx+512(%rip), %rsi
	movq	%rdi, %rbx
	movq	$1, %rdi
	xorq	%rax, %rax
	callq	gen_rtvec
	movq	$42, %rdi
	movq	$5, %rsi
	movq	$45, %rcx
	movq	%rax, %rdx
	callq	gen_rtx_fmt_Ei
	movq	$47, %rdi
	xorq	%rsi, %rsi
	movq	%rbx, %rdx
	movq	%rax, %rcx
	popq	%rbx
	jmp	gen_rtx_fmt_ee  # TAILCALL
.Ltmp1998:
	.size	gen_mmx_clrdi, .Ltmp1998-gen_mmx_clrdi
	.cfi_endproc

	.globl	gen_mmx_anddi3
	.align	16, 0x90
	.type	gen_mmx_anddi3,@function
gen_mmx_anddi3:                         # @gen_mmx_anddi3
	.cfi_startproc
# BB#0:                                 # %entry
	pushq	%rbx
.Ltmp2001:
	.cfi_def_cfa_offset 16
.Ltmp2002:
	.cfi_offset %rbx, -16
	movq	%rdx, %rax
	movq	%rsi, %rcx
	movq	%rdi, %rbx
	movq	$83, %rdi
	movq	$5, %rsi
	movq	%rcx, %rdx
	movq	%rax, %rcx
	callq	gen_rtx_fmt_ee
	movq	%rax, %rcx
	movq	$1, %rdi
	xorq	%rax, %rax
	movq	%rcx, %rsi
	callq	gen_rtvec
	movq	$42, %rdi
	movq	$5, %rsi
	movq	$45, %rcx
	movq	%rax, %rdx
	callq	gen_rtx_fmt_Ei
	movq	$47, %rdi
	xorq	%rsi, %rsi
	movq	%rbx, %rdx
	movq	%rax, %rcx
	popq	%rbx
	jmp	gen_rtx_fmt_ee  # TAILCALL
.Ltmp2003:
	.size	gen_mmx_anddi3, .Ltmp2003-gen_mmx_anddi3
	.cfi_endproc

	.globl	gen_mmx_nanddi3
	.align	16, 0x90
	.type	gen_mmx_nanddi3,@function
gen_mmx_nanddi3:                        # @gen_mmx_nanddi3
	.cfi_startproc
# BB#0:                                 # %entry
	pushq	%r14
.Ltmp2007:
	.cfi_def_cfa_offset 16
	pushq	%rbx
.Ltmp2008:
	.cfi_def_cfa_offset 24
	pushq	%rax
.Ltmp2009:
	.cfi_def_cfa_offset 32
.Ltmp2010:
	.cfi_offset %rbx, -24
.Ltmp2011:
	.cfi_offset %r14, -16
	movq	%rdx, %rbx
	movq	%rsi, %rax
	movq	%rdi, %r14
	movq	$86, %rdi
	movq	$5, %rsi
	movq	%rax, %rdx
	callq	gen_rtx_fmt_e
	movq	$83, %rdi
	movq	$5, %rsi
	movq	%rax, %rdx
	movq	%rbx, %rcx
	callq	gen_rtx_fmt_ee
	movq	%rax, %rcx
	movq	$1, %rdi
	xorq	%rax, %rax
	movq	%rcx, %rsi
	callq	gen_rtvec
	movq	$42, %rdi
	movq	$5, %rsi
	movq	$45, %rcx
	movq	%rax, %rdx
	callq	gen_rtx_fmt_Ei
	movq	$47, %rdi
	xorq	%rsi, %rsi
	movq	%r14, %rdx
	movq	%rax, %rcx
	addq	$8, %rsp
	popq	%rbx
	popq	%r14
	jmp	gen_rtx_fmt_ee  # TAILCALL
.Ltmp2012:
	.size	gen_mmx_nanddi3, .Ltmp2012-gen_mmx_nanddi3
	.cfi_endproc

	.globl	gen_mmx_uavgv8qi3
	.align	16, 0x90
	.type	gen_mmx_uavgv8qi3,@function
gen_mmx_uavgv8qi3:                      # @gen_mmx_uavgv8qi3
	.cfi_startproc
# BB#0:                                 # %entry
	pushq	%r14
.Ltmp2016:
	.cfi_def_cfa_offset 16
	pushq	%rbx
.Ltmp2017:
	.cfi_def_cfa_offset 24
	subq	$24, %rsp
.Ltmp2018:
	.cfi_def_cfa_offset 48
.Ltmp2019:
	.cfi_offset %rbx, -24
.Ltmp2020:
	.cfi_offset %r14, -16
	movq	%rdx, %rax
	movq	%rsi, %rcx
	movq	%rdi, %r14
	movq	$75, %rdi
	movq	$39, %rsi
	movq	%rcx, %rdx
	movq	%rax, %rcx
	callq	gen_rtx_fmt_ee
	movq	const_int_rtx+520(%rip), %rsi
	movq	%rax, %rbx
	movq	%rsi, 16(%rsp)
	movq	%rsi, 8(%rsp)
	movq	$8, %rdi
	xorq	%rax, %rax
	movq	%rsi, (%rsp)
	movq	%rsi, %rdx
	movq	%rsi, %rcx
	movq	%rsi, %r8
	movq	%rsi, %r9
	callq	gen_rtvec
	movq	$56, %rdi
	movq	$39, %rsi
	movq	%rax, %rdx
	callq	gen_rtx_fmt_E
	movq	$75, %rdi
	movq	$39, %rsi
	movq	%rbx, %rdx
	movq	%rax, %rcx
	callq	gen_rtx_fmt_ee
	movq	const_int_rtx+520(%rip), %rcx
	movq	$89, %rdi
	movq	$39, %rsi
	movq	%rax, %rdx
	callq	gen_rtx_fmt_ee
	movq	$47, %rdi
	xorq	%rsi, %rsi
	movq	%r14, %rdx
	movq	%rax, %rcx
	addq	$24, %rsp
	popq	%rbx
	popq	%r14
	jmp	gen_rtx_fmt_ee  # TAILCALL
.Ltmp2021:
	.size	gen_mmx_uavgv8qi3, .Ltmp2021-gen_mmx_uavgv8qi3
	.cfi_endproc

	.globl	gen_mmx_uavgv4hi3
	.align	16, 0x90
	.type	gen_mmx_uavgv4hi3,@function
gen_mmx_uavgv4hi3:                      # @gen_mmx_uavgv4hi3
	.cfi_startproc
# BB#0:                                 # %entry
	pushq	%r14
.Ltmp2025:
	.cfi_def_cfa_offset 16
	pushq	%rbx
.Ltmp2026:
	.cfi_def_cfa_offset 24
	pushq	%rax
.Ltmp2027:
	.cfi_def_cfa_offset 32
.Ltmp2028:
	.cfi_offset %rbx, -24
.Ltmp2029:
	.cfi_offset %r14, -16
	movq	%rdx, %rax
	movq	%rsi, %rcx
	movq	%rdi, %r14
	movq	$75, %rdi
	movq	$36, %rsi
	movq	%rcx, %rdx
	movq	%rax, %rcx
	callq	gen_rtx_fmt_ee
	movq	const_int_rtx+520(%rip), %rsi
	movq	%rax, %rbx
	movq	$4, %rdi
	xorq	%rax, %rax
	movq	%rsi, %rdx
	movq	%rsi, %rcx
	movq	%rsi, %r8
	callq	gen_rtvec
	movq	$56, %rdi
	movq	$36, %rsi
	movq	%rax, %rdx
	callq	gen_rtx_fmt_E
	movq	$75, %rdi
	movq	$36, %rsi
	movq	%rbx, %rdx
	movq	%rax, %rcx
	callq	gen_rtx_fmt_ee
	movq	const_int_rtx+520(%rip), %rcx
	movq	$89, %rdi
	movq	$36, %rsi
	movq	%rax, %rdx
	callq	gen_rtx_fmt_ee
	movq	$47, %rdi
	xorq	%rsi, %rsi
	movq	%r14, %rdx
	movq	%rax, %rcx
	addq	$8, %rsp
	popq	%rbx
	popq	%r14
	jmp	gen_rtx_fmt_ee  # TAILCALL
.Ltmp2030:
	.size	gen_mmx_uavgv4hi3, .Ltmp2030-gen_mmx_uavgv4hi3
	.cfi_endproc

	.globl	gen_mmx_psadbw
	.align	16, 0x90
	.type	gen_mmx_psadbw,@function
gen_mmx_psadbw:                         # @gen_mmx_psadbw
	.cfi_startproc
# BB#0:                                 # %entry
	pushq	%rbx
.Ltmp2033:
	.cfi_def_cfa_offset 16
.Ltmp2034:
	.cfi_offset %rbx, -16
	movq	%rdx, %rax
	movq	%rsi, %rcx
	movq	%rdi, %rbx
	movq	$76, %rdi
	movq	$39, %rsi
	movq	%rcx, %rdx
	movq	%rax, %rcx
	callq	gen_rtx_fmt_ee
	movq	$129, %rdi
	movq	$39, %rsi
	movq	%rax, %rdx
	callq	gen_rtx_fmt_e
	movq	$47, %rdi
	xorq	%rsi, %rsi
	movq	%rbx, %rdx
	movq	%rax, %rcx
	popq	%rbx
	jmp	gen_rtx_fmt_ee  # TAILCALL
.Ltmp2035:
	.size	gen_mmx_psadbw, .Ltmp2035-gen_mmx_psadbw
	.cfi_endproc

	.globl	gen_mmx_pinsrw
	.align	16, 0x90
	.type	gen_mmx_pinsrw,@function
gen_mmx_pinsrw:                         # @gen_mmx_pinsrw
	.cfi_startproc
# BB#0:                                 # %entry
	pushq	%r15
.Ltmp2040:
	.cfi_def_cfa_offset 16
	pushq	%r14
.Ltmp2041:
	.cfi_def_cfa_offset 24
	pushq	%rbx
.Ltmp2042:
	.cfi_def_cfa_offset 32
.Ltmp2043:
	.cfi_offset %rbx, -32
.Ltmp2044:
	.cfi_offset %r14, -24
.Ltmp2045:
	.cfi_offset %r15, -16
	movq	%rcx, %r14
	movq	%rsi, %rbx
	movq	%rdi, %r15
	movq	$122, %rdi
	movq	$3, %rsi
	callq	gen_rtx_fmt_e
	movq	$145, %rdi
	movq	$36, %rsi
	movq	%rax, %rdx
	callq	gen_rtx_fmt_e
	movq	$142, %rdi
	movq	$36, %rsi
	movq	%rbx, %rdx
	movq	%rax, %rcx
	movq	%r14, %r8
	callq	gen_rtx_fmt_eee
	movq	$47, %rdi
	xorq	%rsi, %rsi
	movq	%r15, %rdx
	movq	%rax, %rcx
	popq	%rbx
	popq	%r14
	popq	%r15
	jmp	gen_rtx_fmt_ee  # TAILCALL
.Ltmp2046:
	.size	gen_mmx_pinsrw, .Ltmp2046-gen_mmx_pinsrw
	.cfi_endproc

	.globl	gen_mmx_pextrw
	.align	16, 0x90
	.type	gen_mmx_pextrw,@function
gen_mmx_pextrw:                         # @gen_mmx_pextrw
	.cfi_startproc
# BB#0:                                 # %entry
	pushq	%r14
.Ltmp2050:
	.cfi_def_cfa_offset 16
	pushq	%rbx
.Ltmp2051:
	.cfi_def_cfa_offset 24
	pushq	%rax
.Ltmp2052:
	.cfi_def_cfa_offset 32
.Ltmp2053:
	.cfi_offset %rbx, -24
.Ltmp2054:
	.cfi_offset %r14, -16
	movq	%rsi, %rbx
	movq	%rdi, %r14
	movq	$1, %rdi
	xorq	%rax, %rax
	movq	%rdx, %rsi
	callq	gen_rtvec
	movq	$39, %rdi
	xorq	%rsi, %rsi
	movq	%rax, %rdx
	callq	gen_rtx_fmt_E
	movq	$143, %rdi
	movq	$3, %rsi
	movq	%rbx, %rdx
	movq	%rax, %rcx
	callq	gen_rtx_fmt_ee
	movq	$121, %rdi
	movq	$4, %rsi
	movq	%rax, %rdx
	callq	gen_rtx_fmt_e
	movq	$47, %rdi
	xorq	%rsi, %rsi
	movq	%r14, %rdx
	movq	%rax, %rcx
	addq	$8, %rsp
	popq	%rbx
	popq	%r14
	jmp	gen_rtx_fmt_ee  # TAILCALL
.Ltmp2055:
	.size	gen_mmx_pextrw, .Ltmp2055-gen_mmx_pextrw
	.cfi_endproc

	.globl	gen_mmx_pshufw
	.align	16, 0x90
	.type	gen_mmx_pshufw,@function
gen_mmx_pshufw:                         # @gen_mmx_pshufw
	.cfi_startproc
# BB#0:                                 # %entry
	pushq	%rbx
.Ltmp2058:
	.cfi_def_cfa_offset 16
.Ltmp2059:
	.cfi_offset %rbx, -16
	movq	%rdi, %rbx
	movq	$2, %rdi
	xorq	%rax, %rax
	callq	gen_rtvec
	movq	$42, %rdi
	movq	$36, %rsi
	movq	$41, %rcx
	movq	%rax, %rdx
	callq	gen_rtx_fmt_Ei
	movq	$47, %rdi
	xorq	%rsi, %rsi
	movq	%rbx, %rdx
	movq	%rax, %rcx
	popq	%rbx
	jmp	gen_rtx_fmt_ee  # TAILCALL
.Ltmp2060:
	.size	gen_mmx_pshufw, .Ltmp2060-gen_mmx_pshufw
	.cfi_endproc

	.globl	gen_eqv8qi3
	.align	16, 0x90
	.type	gen_eqv8qi3,@function
gen_eqv8qi3:                            # @gen_eqv8qi3
	.cfi_startproc
# BB#0:                                 # %entry
	pushq	%rbx
.Ltmp2063:
	.cfi_def_cfa_offset 16
.Ltmp2064:
	.cfi_offset %rbx, -16
	movq	%rdx, %rax
	movq	%rsi, %rcx
	movq	%rdi, %rbx
	movq	$103, %rdi
	movq	$39, %rsi
	movq	%rcx, %rdx
	movq	%rax, %rcx
	callq	gen_rtx_fmt_ee
	movq	$47, %rdi
	xorq	%rsi, %rsi
	movq	%rbx, %rdx
	movq	%rax, %rcx
	popq	%rbx
	jmp	gen_rtx_fmt_ee  # TAILCALL
.Ltmp2065:
	.size	gen_eqv8qi3, .Ltmp2065-gen_eqv8qi3
	.cfi_endproc

	.globl	gen_eqv4hi3
	.align	16, 0x90
	.type	gen_eqv4hi3,@function
gen_eqv4hi3:                            # @gen_eqv4hi3
	.cfi_startproc
# BB#0:                                 # %entry
	pushq	%rbx
.Ltmp2068:
	.cfi_def_cfa_offset 16
.Ltmp2069:
	.cfi_offset %rbx, -16
	movq	%rdx, %rax
	movq	%rsi, %rcx
	movq	%rdi, %rbx
	movq	$103, %rdi
	movq	$36, %rsi
	movq	%rcx, %rdx
	movq	%rax, %rcx
	callq	gen_rtx_fmt_ee
	movq	$47, %rdi
	xorq	%rsi, %rsi
	movq	%rbx, %rdx
	movq	%rax, %rcx
	popq	%rbx
	jmp	gen_rtx_fmt_ee  # TAILCALL
.Ltmp2070:
	.size	gen_eqv4hi3, .Ltmp2070-gen_eqv4hi3
	.cfi_endproc

	.globl	gen_eqv2si3
	.align	16, 0x90
	.type	gen_eqv2si3,@function
gen_eqv2si3:                            # @gen_eqv2si3
	.cfi_startproc
# BB#0:                                 # %entry
	pushq	%rbx
.Ltmp2073:
	.cfi_def_cfa_offset 16
.Ltmp2074:
	.cfi_offset %rbx, -16
	movq	%rdx, %rax
	movq	%rsi, %rcx
	movq	%rdi, %rbx
	movq	$103, %rdi
	movq	$33, %rsi
	movq	%rcx, %rdx
	movq	%rax, %rcx
	callq	gen_rtx_fmt_ee
	movq	$47, %rdi
	xorq	%rsi, %rsi
	movq	%rbx, %rdx
	movq	%rax, %rcx
	popq	%rbx
	jmp	gen_rtx_fmt_ee  # TAILCALL
.Ltmp2075:
	.size	gen_eqv2si3, .Ltmp2075-gen_eqv2si3
	.cfi_endproc

	.globl	gen_gtv8qi3
	.align	16, 0x90
	.type	gen_gtv8qi3,@function
gen_gtv8qi3:                            # @gen_gtv8qi3
	.cfi_startproc
# BB#0:                                 # %entry
	pushq	%rbx
.Ltmp2078:
	.cfi_def_cfa_offset 16
.Ltmp2079:
	.cfi_offset %rbx, -16
	movq	%rdx, %rax
	movq	%rsi, %rcx
	movq	%rdi, %rbx
	movq	$105, %rdi
	movq	$39, %rsi
	movq	%rcx, %rdx
	movq	%rax, %rcx
	callq	gen_rtx_fmt_ee
	movq	$47, %rdi
	xorq	%rsi, %rsi
	movq	%rbx, %rdx
	movq	%rax, %rcx
	popq	%rbx
	jmp	gen_rtx_fmt_ee  # TAILCALL
.Ltmp2080:
	.size	gen_gtv8qi3, .Ltmp2080-gen_gtv8qi3
	.cfi_endproc

	.globl	gen_gtv4hi3
	.align	16, 0x90
	.type	gen_gtv4hi3,@function
gen_gtv4hi3:                            # @gen_gtv4hi3
	.cfi_startproc
# BB#0:                                 # %entry
	pushq	%rbx
.Ltmp2083:
	.cfi_def_cfa_offset 16
.Ltmp2084:
	.cfi_offset %rbx, -16
	movq	%rdx, %rax
	movq	%rsi, %rcx
	movq	%rdi, %rbx
	movq	$105, %rdi
	movq	$36, %rsi
	movq	%rcx, %rdx
	movq	%rax, %rcx
	callq	gen_rtx_fmt_ee
	movq	$47, %rdi
	xorq	%rsi, %rsi
	movq	%rbx, %rdx
	movq	%rax, %rcx
	popq	%rbx
	jmp	gen_rtx_fmt_ee  # TAILCALL
.Ltmp2085:
	.size	gen_gtv4hi3, .Ltmp2085-gen_gtv4hi3
	.cfi_endproc

	.globl	gen_gtv2si3
	.align	16, 0x90
	.type	gen_gtv2si3,@function
gen_gtv2si3:                            # @gen_gtv2si3
	.cfi_startproc
# BB#0:                                 # %entry
	pushq	%rbx
.Ltmp2088:
	.cfi_def_cfa_offset 16
.Ltmp2089:
	.cfi_offset %rbx, -16
	movq	%rdx, %rax
	movq	%rsi, %rcx
	movq	%rdi, %rbx
	movq	$105, %rdi
	movq	$33, %rsi
	movq	%rcx, %rdx
	movq	%rax, %rcx
	callq	gen_rtx_fmt_ee
	movq	$47, %rdi
	xorq	%rsi, %rsi
	movq	%rbx, %rdx
	movq	%rax, %rcx
	popq	%rbx
	jmp	gen_rtx_fmt_ee  # TAILCALL
.Ltmp2090:
	.size	gen_gtv2si3, .Ltmp2090-gen_gtv2si3
	.cfi_endproc

	.globl	gen_umaxv8qi3
	.align	16, 0x90
	.type	gen_umaxv8qi3,@function
gen_umaxv8qi3:                          # @gen_umaxv8qi3
	.cfi_startproc
# BB#0:                                 # %entry
	pushq	%rbx
.Ltmp2093:
	.cfi_def_cfa_offset 16
.Ltmp2094:
	.cfi_offset %rbx, -16
	movq	%rdx, %rax
	movq	%rsi, %rcx
	movq	%rdi, %rbx
	movq	$95, %rdi
	movq	$39, %rsi
	movq	%rcx, %rdx
	movq	%rax, %rcx
	callq	gen_rtx_fmt_ee
	movq	$47, %rdi
	xorq	%rsi, %rsi
	movq	%rbx, %rdx
	movq	%rax, %rcx
	popq	%rbx
	jmp	gen_rtx_fmt_ee  # TAILCALL
.Ltmp2095:
	.size	gen_umaxv8qi3, .Ltmp2095-gen_umaxv8qi3
	.cfi_endproc

	.globl	gen_smaxv4hi3
	.align	16, 0x90
	.type	gen_smaxv4hi3,@function
gen_smaxv4hi3:                          # @gen_smaxv4hi3
	.cfi_startproc
# BB#0:                                 # %entry
	pushq	%rbx
.Ltmp2098:
	.cfi_def_cfa_offset 16
.Ltmp2099:
	.cfi_offset %rbx, -16
	movq	%rdx, %rax
	movq	%rsi, %rcx
	movq	%rdi, %rbx
	movq	$93, %rdi
	movq	$36, %rsi
	movq	%rcx, %rdx
	movq	%rax, %rcx
	callq	gen_rtx_fmt_ee
	movq	$47, %rdi
	xorq	%rsi, %rsi
	movq	%rbx, %rdx
	movq	%rax, %rcx
	popq	%rbx
	jmp	gen_rtx_fmt_ee  # TAILCALL
.Ltmp2100:
	.size	gen_smaxv4hi3, .Ltmp2100-gen_smaxv4hi3
	.cfi_endproc

	.globl	gen_uminv8qi3
	.align	16, 0x90
	.type	gen_uminv8qi3,@function
gen_uminv8qi3:                          # @gen_uminv8qi3
	.cfi_startproc
# BB#0:                                 # %entry
	pushq	%rbx
.Ltmp2103:
	.cfi_def_cfa_offset 16
.Ltmp2104:
	.cfi_offset %rbx, -16
	movq	%rdx, %rax
	movq	%rsi, %rcx
	movq	%rdi, %rbx
	movq	$94, %rdi
	movq	$39, %rsi
	movq	%rcx, %rdx
	movq	%rax, %rcx
	callq	gen_rtx_fmt_ee
	movq	$47, %rdi
	xorq	%rsi, %rsi
	movq	%rbx, %rdx
	movq	%rax, %rcx
	popq	%rbx
	jmp	gen_rtx_fmt_ee  # TAILCALL
.Ltmp2105:
	.size	gen_uminv8qi3, .Ltmp2105-gen_uminv8qi3
	.cfi_endproc

	.globl	gen_sminv4hi3
	.align	16, 0x90
	.type	gen_sminv4hi3,@function
gen_sminv4hi3:                          # @gen_sminv4hi3
	.cfi_startproc
# BB#0:                                 # %entry
	pushq	%rbx
.Ltmp2108:
	.cfi_def_cfa_offset 16
.Ltmp2109:
	.cfi_offset %rbx, -16
	movq	%rdx, %rax
	movq	%rsi, %rcx
	movq	%rdi, %rbx
	movq	$92, %rdi
	movq	$36, %rsi
	movq	%rcx, %rdx
	movq	%rax, %rcx
	callq	gen_rtx_fmt_ee
	movq	$47, %rdi
	xorq	%rsi, %rsi
	movq	%rbx, %rdx
	movq	%rax, %rcx
	popq	%rbx
	jmp	gen_rtx_fmt_ee  # TAILCALL
.Ltmp2110:
	.size	gen_sminv4hi3, .Ltmp2110-gen_sminv4hi3
	.cfi_endproc

	.globl	gen_ashrv4hi3
	.align	16, 0x90
	.type	gen_ashrv4hi3,@function
gen_ashrv4hi3:                          # @gen_ashrv4hi3
	.cfi_startproc
# BB#0:                                 # %entry
	pushq	%rbx
.Ltmp2113:
	.cfi_def_cfa_offset 16
.Ltmp2114:
	.cfi_offset %rbx, -16
	movq	%rdx, %rax
	movq	%rsi, %rcx
	movq	%rdi, %rbx
	movq	$89, %rdi
	movq	$36, %rsi
	movq	%rcx, %rdx
	movq	%rax, %rcx
	callq	gen_rtx_fmt_ee
	movq	$47, %rdi
	xorq	%rsi, %rsi
	movq	%rbx, %rdx
	movq	%rax, %rcx
	popq	%rbx
	jmp	gen_rtx_fmt_ee  # TAILCALL
.Ltmp2115:
	.size	gen_ashrv4hi3, .Ltmp2115-gen_ashrv4hi3
	.cfi_endproc

	.globl	gen_ashrv2si3
	.align	16, 0x90
	.type	gen_ashrv2si3,@function
gen_ashrv2si3:                          # @gen_ashrv2si3
	.cfi_startproc
# BB#0:                                 # %entry
	pushq	%rbx
.Ltmp2118:
	.cfi_def_cfa_offset 16
.Ltmp2119:
	.cfi_offset %rbx, -16
	movq	%rdx, %rax
	movq	%rsi, %rcx
	movq	%rdi, %rbx
	movq	$89, %rdi
	movq	$33, %rsi
	movq	%rcx, %rdx
	movq	%rax, %rcx
	callq	gen_rtx_fmt_ee
	movq	$47, %rdi
	xorq	%rsi, %rsi
	movq	%rbx, %rdx
	movq	%rax, %rcx
	popq	%rbx
	jmp	gen_rtx_fmt_ee  # TAILCALL
.Ltmp2120:
	.size	gen_ashrv2si3, .Ltmp2120-gen_ashrv2si3
	.cfi_endproc

	.globl	gen_lshrv4hi3
	.align	16, 0x90
	.type	gen_lshrv4hi3,@function
gen_lshrv4hi3:                          # @gen_lshrv4hi3
	.cfi_startproc
# BB#0:                                 # %entry
	pushq	%rbx
.Ltmp2123:
	.cfi_def_cfa_offset 16
.Ltmp2124:
	.cfi_offset %rbx, -16
	movq	%rdx, %rax
	movq	%rsi, %rcx
	movq	%rdi, %rbx
	movq	$90, %rdi
	movq	$36, %rsi
	movq	%rcx, %rdx
	movq	%rax, %rcx
	callq	gen_rtx_fmt_ee
	movq	$47, %rdi
	xorq	%rsi, %rsi
	movq	%rbx, %rdx
	movq	%rax, %rcx
	popq	%rbx
	jmp	gen_rtx_fmt_ee  # TAILCALL
.Ltmp2125:
	.size	gen_lshrv4hi3, .Ltmp2125-gen_lshrv4hi3
	.cfi_endproc

	.globl	gen_lshrv2si3
	.align	16, 0x90
	.type	gen_lshrv2si3,@function
gen_lshrv2si3:                          # @gen_lshrv2si3
	.cfi_startproc
# BB#0:                                 # %entry
	pushq	%rbx
.Ltmp2128:
	.cfi_def_cfa_offset 16
.Ltmp2129:
	.cfi_offset %rbx, -16
	movq	%rdx, %rax
	movq	%rsi, %rcx
	movq	%rdi, %rbx
	movq	$90, %rdi
	movq	$33, %rsi
	movq	%rcx, %rdx
	movq	%rax, %rcx
	callq	gen_rtx_fmt_ee
	movq	$47, %rdi
	xorq	%rsi, %rsi
	movq	%rbx, %rdx
	movq	%rax, %rcx
	popq	%rbx
	jmp	gen_rtx_fmt_ee  # TAILCALL
.Ltmp2130:
	.size	gen_lshrv2si3, .Ltmp2130-gen_lshrv2si3
	.cfi_endproc

	.globl	gen_mmx_lshrdi3
	.align	16, 0x90
	.type	gen_mmx_lshrdi3,@function
gen_mmx_lshrdi3:                        # @gen_mmx_lshrdi3
	.cfi_startproc
# BB#0:                                 # %entry
	pushq	%rbx
.Ltmp2133:
	.cfi_def_cfa_offset 16
.Ltmp2134:
	.cfi_offset %rbx, -16
	movq	%rdx, %rax
	movq	%rsi, %rcx
	movq	%rdi, %rbx
	movq	$90, %rdi
	movq	$5, %rsi
	movq	%rcx, %rdx
	movq	%rax, %rcx
	callq	gen_rtx_fmt_ee
	movq	%rax, %rcx
	movq	$1, %rdi
	xorq	%rax, %rax
	movq	%rcx, %rsi
	callq	gen_rtvec
	movq	$42, %rdi
	movq	$5, %rsi
	movq	$45, %rcx
	movq	%rax, %rdx
	callq	gen_rtx_fmt_Ei
	movq	$47, %rdi
	xorq	%rsi, %rsi
	movq	%rbx, %rdx
	movq	%rax, %rcx
	popq	%rbx
	jmp	gen_rtx_fmt_ee  # TAILCALL
.Ltmp2135:
	.size	gen_mmx_lshrdi3, .Ltmp2135-gen_mmx_lshrdi3
	.cfi_endproc

	.globl	gen_ashlv4hi3
	.align	16, 0x90
	.type	gen_ashlv4hi3,@function
gen_ashlv4hi3:                          # @gen_ashlv4hi3
	.cfi_startproc
# BB#0:                                 # %entry
	pushq	%rbx
.Ltmp2138:
	.cfi_def_cfa_offset 16
.Ltmp2139:
	.cfi_offset %rbx, -16
	movq	%rdx, %rax
	movq	%rsi, %rcx
	movq	%rdi, %rbx
	movq	$87, %rdi
