	.file	"insn-recog.c.bc"
	.text
	.globl	recog
	.align	16, 0x90
	.type	recog,@function
recog:                                  # @recog
	.cfi_startproc
# BB#0:                                 # %entry
	pushq	%r15
.Ltmp4:
	.cfi_def_cfa_offset 16
	pushq	%r14
.Ltmp5:
	.cfi_def_cfa_offset 24
	pushq	%rbx
.Ltmp6:
	.cfi_def_cfa_offset 32
.Ltmp7:
	.cfi_offset %rbx, -32
.Ltmp8:
	.cfi_offset %r14, -24
.Ltmp9:
	.cfi_offset %r15, -16
	movq	%rdi, %rbx
	movq	$0, recog_data+1000(%rip)
	movzbl	(%rbx), %eax
	addq	$-39, %rax
	movabsq	$4294967295, %r15       # imm = 0xFFFFFFFF
	andq	%r15, %rax
	cmpq	$15, %rax
	ja	.LBB0_64
# BB#1:                                 # %entry
	jmpq	*.LJTI0_0(,%rax,8)
.LBB0_3:                                # %L10828
	movq	%rbx, %rdi
	popq	%rbx
	popq	%r14
	popq	%r15
	jmp	recog_32  # TAILCALL
.LBB0_13:                               # %L10832
	movq	8(%rbx), %rax
	movl	(%rax), %ecx
	cmpq	$1, %rcx
	jne	.LBB0_64
# BB#14:                                # %L12053
	movslq	16(%rbx), %rcx
	cmpq	$12, %rcx
	jg	.LBB0_18
# BB#15:                                # %L12053
	testq	%r15, %rcx
	jne	.LBB0_64
# BB#16:                                # %L5946
	movq	8(%rax), %rax
	movzbl	(%rax), %ecx
	cmpq	$54, %rcx
	jne	.LBB0_64
# BB#17:                                # %land.lhs.true78
	cmpq	$0, 8(%rax)
	movq	$513, %rax              # imm = 0x201
	jne	.LBB0_64
	jmp	.LBB0_54
.LBB0_57:                               # %L8952
	movq	8(%rbx), %r14
	movq	$4, %rsi
	movq	%r14, %rdi
	callq	address_operand
	testq	%r15, %rax
	je	.LBB0_64
# BB#58:                                # %if.then247
	movq	%r14, recog_data(%rip)
	movq	16(%rbx), %r14
	movzbl	(%r14), %eax
	cmpq	$54, %rax
	jne	.LBB0_64
# BB#59:                                # %L12060
	cmpq	$0, 8(%r14)
	jne	.LBB0_60
# BB#65:                                # %L8954
	movq	24(%rbx), %r14
	movq	$4, %rsi
	movq	%r14, %rdi
	callq	const_int_operand
	testq	%r15, %rax
	je	.LBB0_67
# BB#66:                                # %if.then274
	movl	x86_prefetch_sse(%rip), %eax
	movq	%r14, recog_data+8(%rip)
	testq	%rax, %rax
	movq	$832, %rax              # imm = 0x340
	jne	.LBB0_54
.LBB0_67:                               # %if.end282
	movq	16(%rbx), %r14
.LBB0_60:                               # %L12061
	movq	$4, %rsi
	movq	%r14, %rdi
	callq	const_int_operand
	testq	%r15, %rax
	je	.LBB0_64
# BB#61:                                # %if.then266
	movq	%r14, recog_data+8(%rip)
	movq	24(%rbx), %rax
	movzbl	(%rax), %ecx
	cmpq	$54, %rcx
	jne	.LBB0_64
# BB#62:                                # %land.lhs.true292
	movq	8(%rax), %rax
	cmpq	$3, %rax
	jne	.LBB0_64
# BB#63:                                # %land.lhs.true297
	movzbl	target_flags+2(%rip), %ecx
	movq	$833, %rax              # imm = 0x341
	testq	$16, %rcx
	jne	.LBB0_54
	jmp	.LBB0_64
.LBB0_2:                                # %L138
	movq	%rbx, %rdi
	popq	%rbx
	popq	%r14
	popq	%r15
	jmp	recog_16  # TAILCALL
.LBB0_4:                                # %L5932
	movq	8(%rbx), %rax
	movl	(%rax), %ecx
	andq	$16777215, %rcx         # imm = 0xFFFFFF
	cmpq	$131138, %rcx           # imm = 0x20042
	jne	.LBB0_64
# BB#5:                                 # %L5933
	movq	8(%rax), %r14
	xorq	%rsi, %rsi
	movq	%r14, %rdi
	callq	constant_call_address_operand
	testq	%r15, %rax
	je	.LBB0_7
# BB#6:                                 # %if.then18
	movq	%r14, recog_data(%rip)
	movq	16(%rbx), %rax
	movq	%rax, recog_data+8(%rip)
	movq	$510, %rax              # imm = 0x1FE
	jmp	.LBB0_54
.LBB0_43:                               # %L10833
	movl	reload_completed(%rip), %eax
	testq	%rax, %rax
	movq	$514, %rax              # imm = 0x202
	jne	.LBB0_54
	jmp	.LBB0_64
.LBB0_45:                               # %L7544
	movq	8(%rbx), %r14
	movzbl	(%r14), %eax
	cmpq	$54, %rax
	jne	.LBB0_47
# BB#46:                                # %land.lhs.true183
	movq	8(%r14), %rax
	cmpq	$1, %rax
	jne	.LBB0_47
# BB#55:                                # %L7545
	movq	16(%rbx), %rax
	movzbl	(%rax), %ecx
	cmpq	$54, %rcx
	jne	.LBB0_64
# BB#56:                                # %land.lhs.true201
	movq	8(%rax), %rax
	cmpq	$5, %rax
	movq	$657, %rax              # imm = 0x291
	je	.LBB0_54
	jmp	.LBB0_64
.LBB0_44:                               # %L10834
	cmpq	$0, 8(%rbx)
	movq	$517, %rax              # imm = 0x205
	jne	.LBB0_64
	jmp	.LBB0_54
.LBB0_47:                               # %if.end189
	xorq	%rsi, %rsi
	movq	%r14, %rdi
	callq	comparison_operator
	testq	%r15, %rax
	je	.LBB0_64
# BB#48:                                # %if.then192
	movq	%r14, recog_data(%rip)
	movq	8(%r14), %rax
	movzbl	(%rax), %ecx
	cmpq	$61, %rcx
	jne	.LBB0_64
# BB#49:                                # %land.lhs.true214
	movl	8(%rax), %eax
	cmpq	$17, %rax
	jne	.LBB0_64
# BB#50:                                # %L7549
	movq	16(%r14), %rax
	movzbl	(%rax), %ecx
	cmpq	$54, %rcx
	jne	.LBB0_64
# BB#51:                                # %land.lhs.true227
	cmpq	$0, 8(%rax)
	jne	.LBB0_64
# BB#52:                                # %L7550
	movq	16(%rbx), %rbx
	xorq	%rsi, %rsi
	movq	%rbx, %rdi
	callq	const_int_operand
	testq	%r15, %rax
	je	.LBB0_64
# BB#53:                                # %if.then239
	movq	%rbx, recog_data+8(%rip)
	movq	$658, %rax              # imm = 0x292
	jmp	.LBB0_54
.LBB0_18:                               # %L12053
	cmpq	$30, %rcx
	jg	.LBB0_25
# BB#19:                                # %L12053
	andq	%r15, %rcx
	cmpq	$13, %rcx
	jne	.LBB0_64
# BB#20:                                # %L5991
	movq	8(%rax), %rbx
	movzbl	2(%rbx), %eax
	cmpq	$5, %rax
	jne	.LBB0_21
# BB#33:                                # %L12059
	movq	$5, %rsi
	movq	%rbx, %rdi
	callq	register_operand
	testq	%r15, %rax
	je	.LBB0_64
# BB#34:                                # %if.then107
	movzbl	target_flags+3(%rip), %ecx
	movq	%rbx, recog_data(%rip)
	movq	$521, %rax              # imm = 0x209
	jmp	.LBB0_35
.LBB0_7:                                # %L5937
	movzbl	2(%r14), %eax
	cmpq	$5, %rax
	jne	.LBB0_8
# BB#11:                                # %L12052
	movq	$5, %rsi
	movq	%r14, %rdi
	callq	call_insn_operand
	testq	%r15, %rax
	je	.LBB0_64
# BB#12:                                # %if.then46
	movq	%r14, recog_data(%rip)
	movq	16(%rbx), %rax
	movzbl	target_flags+3(%rip), %ecx
	movq	%rax, recog_data+8(%rip)
	movq	$512, %rax              # imm = 0x200
.LBB0_35:                               # %if.then107
	testq	$2, %rcx
	jne	.LBB0_54
	jmp	.LBB0_64
.LBB0_25:                               # %L12053
	andq	%r15, %rcx
	cmpq	$31, %rcx
	je	.LBB0_36
# BB#26:                                # %L12053
	cmpq	$37, %rcx
	jne	.LBB0_27
# BB#41:                                # %L8667
	movq	8(%rax), %rbx
	movq	$4, %rsi
	movq	%rbx, %rdi
	callq	memory_operand
	testq	%r15, %rax
	je	.LBB0_64
# BB#42:                                # %if.then141
	movzbl	target_flags+1(%rip), %ecx
	movq	%rbx, recog_data(%rip)
	movq	$802, %rax              # imm = 0x322
	testq	$64, %rcx
	jne	.LBB0_54
	jmp	.LBB0_64
.LBB0_8:                                # %L5937
	cmpq	$4, %rax
	jne	.LBB0_64
# BB#9:                                 # %L12051
	movq	$4, %rsi
	movq	%r14, %rdi
	callq	call_insn_operand
	testq	%r15, %rax
	je	.LBB0_64
# BB#10:                                # %if.then34
	movq	%r14, recog_data(%rip)
	movq	16(%rbx), %rax
	movzbl	target_flags+3(%rip), %ecx
	movq	%rax, recog_data+8(%rip)
	movq	$511, %rax              # imm = 0x1FF
	jmp	.LBB0_24
.LBB0_36:                               # %L8665
	movq	8(%rax), %rax
	movzbl	(%rax), %ecx
	cmpq	$54, %rcx
	jne	.LBB0_64
# BB#37:                                # %land.lhs.true122
	cmpq	$0, 8(%rax)
	jne	.LBB0_64
# BB#38:                                # %land.lhs.true127
	movl	target_flags(%rip), %eax
	testq	$16384, %rax            # imm = 0x4000
	je	.LBB0_64
# BB#39:                                # %land.lhs.true127
	testq	%rdx, %rdx
	je	.LBB0_64
# BB#40:                                # %if.then132
	movq	$16, %rax
	movl	%eax, (%rdx)
	movq	$801, %rax              # imm = 0x321
	jmp	.LBB0_54
.LBB0_27:                               # %L12053
	cmpq	$46, %rcx
	jne	.LBB0_64
# BB#28:                                # %L8790
	movq	8(%rax), %rax
	movzbl	(%rax), %ecx
	cmpq	$54, %rcx
	jne	.LBB0_64
# BB#29:                                # %land.lhs.true156
	cmpq	$0, 8(%rax)
	jne	.LBB0_64
# BB#30:                                # %land.lhs.true161
	movl	target_flags(%rip), %eax
	testq	$1048576, %rax          # imm = 0x100000
	je	.LBB0_64
# BB#31:                                # %land.lhs.true161
	testq	%rdx, %rdx
	je	.LBB0_64
# BB#32:                                # %if.then166
	movq	$16, %rax
	movl	%eax, (%rdx)
	movq	$815, %rax              # imm = 0x32F
	jmp	.LBB0_54
.LBB0_21:                               # %L5991
	cmpq	$4, %rax
	jne	.LBB0_64
# BB#22:                                # %L12058
	movq	$4, %rsi
	movq	%rbx, %rdi
	callq	register_operand
	testq	%r15, %rax
	je	.LBB0_64
# BB#23:                                # %if.then98
	movzbl	target_flags+3(%rip), %ecx
	movq	%rbx, recog_data(%rip)
	movq	$520, %rax              # imm = 0x208
.LBB0_24:                               # %if.then98
	testq	$2, %rcx
	je	.LBB0_54
.LBB0_64:                               # %ret0
	movq	%r15, %rax
.LBB0_54:                               # %return
	popq	%rbx
	popq	%r14
	popq	%r15
	retq
.Ltmp10:
	.size	recog, .Ltmp10-recog
	.cfi_endproc
	.section	.rodata,"a",@progbits
	.align	8
.LJTI0_0:
	.quad	.LBB0_3
	.quad	.LBB0_64
	.quad	.LBB0_64
	.quad	.LBB0_64
	.quad	.LBB0_13
	.quad	.LBB0_64
	.quad	.LBB0_64
	.quad	.LBB0_57
	.quad	.LBB0_2
	.quad	.LBB0_64
	.quad	.LBB0_64
	.quad	.LBB0_4
	.quad	.LBB0_43
	.quad	.LBB0_45
	.quad	.LBB0_64
	.quad	.LBB0_44

	.text
	.align	16, 0x90
	.type	recog_16,@function
recog_16:                               # @recog_16
	.cfi_startproc
# BB#0:                                 # %entry
	pushq	%r15
.Ltmp17:
	.cfi_def_cfa_offset 16
	pushq	%r14
.Ltmp18:
	.cfi_def_cfa_offset 24
	pushq	%r13
.Ltmp19:
	.cfi_def_cfa_offset 32
	pushq	%r12
.Ltmp20:
	.cfi_def_cfa_offset 40
	pushq	%rbx
.Ltmp21:
	.cfi_def_cfa_offset 48
	subq	$32, %rsp
.Ltmp22:
	.cfi_def_cfa_offset 80
.Ltmp23:
	.cfi_offset %rbx, -48
.Ltmp24:
	.cfi_offset %r12, -40
.Ltmp25:
	.cfi_offset %r13, -32
.Ltmp26:
	.cfi_offset %r14, -24
.Ltmp27:
	.cfi_offset %r15, -16
	movq	%rdi, %r8
	movq	8(%r8), %r15
	movl	(%r15), %eax
	movq	%rsi, 16(%rsp)          # 8-byte Spill
	movq	$16, %rcx
	movq	%rax, %rsi
	shrq	%cl, %rsi
	andq	$255, %rsi
	cmpq	$51, %rsi
	jg	.LBB1_3
# BB#1:                                 # %entry
	movq	%rdx, 24(%rsp)          # 8-byte Spill
	addq	$-2, %rsi
	movabsq	$4294967295, %r13       # imm = 0xFFFFFFFF
	andq	%r13, %rsi
	cmpq	$16, %rsi
	ja	.LBB1_7
# BB#2:                                 # %entry
	jmpq	*.LJTI1_0(,%rsi,8)
.LBB1_961:                              # %L10855
	movq	%r8, %rbx
	movq	$2, %rsi
	movq	%r15, %rdi
	callq	push_operand
	testq	%r13, %rax
	movq	%r15, %r14
	je	.LBB1_964
# BB#962:                               # %if.then.i11593
	movq	%r15, recog_data(%rip)
	movq	16(%rbx), %r14
	movq	$2, %rsi
	movq	%r14, %rdi
	callq	nonmemory_no_elim_operand
	testq	%r13, %rax
	je	.LBB1_963
# BB#1151:                              # %recog_3.exit
	movl	target_flags(%rip), %edx
	movq	%r14, recog_data+8(%rip)
	movq	$25, %rcx
	shrq	%cl, %rdx
	andq	$1, %rdx
	orq	$58, %rdx
	movq	%rdx, %rax
	jmp	.LBB1_2108
.LBB1_3:                                # %entry
	cmpq	$52, %rsi
	je	.LBB1_361
# BB#4:                                 # %entry
	cmpq	$57, %rsi
	jne	.LBB1_5
# BB#325:                               # %L10843
	andq	$65535, %rax            # imm = 0xFFFF
	cmpq	$61, %rax
	jne	.LBB1_326
# BB#327:                               # %land.lhs.true69
	movq	%rdx, 24(%rsp)          # 8-byte Spill
	movl	8(%r15), %eax
	cmpq	$18, %rax
	jne	.LBB1_7
# BB#328:                               # %L146
	movq	16(%r8), %r12
	movl	(%r12), %eax
	andq	$16777215, %rax         # imm = 0xFFFFFF
	cmpq	$3735626, %rax          # imm = 0x39004A
	jne	.LBB1_7
# BB#329:                               # %L147
	movq	8(%r12), %rbx
	movzbl	2(%rbx), %eax
	addq	$-15, %rax
	movabsq	$4294967295, %r14       # imm = 0xFFFFFFFF
	andq	%r14, %rax
	cmpq	$3, %rax
	jbe	.LBB1_4574
# BB#330:
	movq	%r8, %r15
	jmp	.LBB1_331
.LBB1_361:                              # %L10845
	andq	$65535, %rax            # imm = 0xFFFF
	cmpq	$61, %rax
	jne	.LBB1_362
# BB#363:                               # %land.lhs.true333
	movl	8(%r15), %eax
	cmpq	$17, %rax
	jne	.LBB1_364
# BB#365:                               # %L222
	movq	%rdx, 24(%rsp)          # 8-byte Spill
	movq	16(%r8), %rax
	movl	(%rax), %ecx
	andq	$16777215, %rcx         # imm = 0xFFFFFF
	cmpq	$3407914, %rcx          # imm = 0x34002A
	jne	.LBB1_7
# BB#366:                               # %land.lhs.true351
	movq	8(%rax), %rcx
	movl	(%rcx), %edx
	cmpq	$1, %rdx
	jne	.LBB1_7
# BB#367:                               # %land.lhs.true355
	movl	16(%rax), %eax
	cmpq	$10, %rax
	jne	.LBB1_7
# BB#368:                               # %L223
	movq	%r8, %r14
	movq	8(%rcx), %rbx
	movq	$3, %rsi
	movq	%rbx, %rdi
	callq	register_operand
	movabsq	$4294967295, %rcx       # imm = 0xFFFFFFFF
	testq	%rcx, %rax
	je	.LBB1_370
# BB#369:                               # %if.then371
	movzbl	target_flags+3(%rip), %eax
	movq	%rbx, recog_data(%rip)
	movq	$31, %rdx
	testq	$2, %rax
	movq	%r14, %r8
	jne	.LBB1_371
	jmp	.LBB1_4569
.LBB1_5:                                # %entry
	cmpq	$58, %rsi
	jne	.LBB1_6
# BB#350:                               # %L10844
	andq	$65535, %rax            # imm = 0xFFFF
	cmpq	$61, %rax
	jne	.LBB1_351
# BB#352:                               # %land.lhs.true246
	movq	%rdx, 24(%rsp)          # 8-byte Spill
	movl	8(%r15), %eax
	cmpq	$18, %rax
	jne	.LBB1_7
# BB#353:                               # %L198
	movq	16(%r8), %rbx
	movl	(%rbx), %eax
	andq	$16777215, %rax         # imm = 0xFFFFFF
	cmpq	$3801162, %rax          # imm = 0x3A004A
	jne	.LBB1_7
# BB#354:                               # %L199
	movq	%r8, %r12
	movq	8(%rbx), %r14
	xorq	%rsi, %rsi
	movq	%r14, %rdi
	callq	register_operand
	movabsq	$4294967295, %r15       # imm = 0xFFFFFFFF
	testq	%r15, %rax
	je	.LBB1_4576
# BB#355:                               # %if.then274
	movq	%r14, recog_data(%rip)
	movq	16(%rbx), %rbx
	xorq	%rsi, %rsi
	movq	%rbx, %rdi
	callq	register_operand
	testq	%r15, %rax
	je	.LBB1_4576
# BB#356:                               # %if.then285
	movzbl	target_flags(%rip), %eax
	movq	%rbx, recog_data+8(%rip)
	testq	$1, %rax
	movq	%r12, %r8
	je	.LBB1_360
# BB#357:                               # %land.lhs.true293
	movq	recog_data(%rip), %rax
	movl	(%rax), %eax
	movq	$14, %rcx
	movq	%rax, %rdx
	shrq	%cl, %rdx
	andq	$1020, %rdx             # imm = 0x3FC
	movl	mode_class(%rdx), %ecx
	cmpq	$8, %rcx
	ja	.LBB1_360
# BB#358:                               # %land.lhs.true293
	movq	$1, %rdx
	shlq	%cl, %rdx
	testq	$324, %rdx              # imm = 0x144
	je	.LBB1_360
# BB#359:                               # %land.lhs.true315
	movl	(%rbx), %ecx
	xorq	%rax, %rcx
	testq	$16711680, %rcx         # imm = 0xFF0000
	movq	$27, %rdx
	je	.LBB1_4569
.LBB1_360:                              # %if.end326
	movq	8(%r8), %r15
	jmp	.LBB1_7
.LBB1_326:
	movq	%rdx, 24(%rsp)          # 8-byte Spill
	jmp	.LBB1_7
.LBB1_362:
	movq	%rdx, 24(%rsp)          # 8-byte Spill
	jmp	.LBB1_7
.LBB1_6:
	movq	%rdx, 24(%rsp)          # 8-byte Spill
	jmp	.LBB1_7
.LBB1_364:
	movq	%rdx, 24(%rsp)          # 8-byte Spill
	jmp	.LBB1_7
.LBB1_351:
	movq	%rdx, 24(%rsp)          # 8-byte Spill
	jmp	.LBB1_7
.LBB1_43:                               # %L10851
	movq	%r8, %rbx
	andq	$65535, %rax            # imm = 0xFFFF
	cmpq	$61, %rax
	jne	.LBB1_44
# BB#83:                                # %L10930.i
	movl	8(%r15), %eax
	cmpq	$18, %rax
	movq	%r15, %r14
	jne	.LBB1_45
# BB#84:                                # %L1105.i
	movq	16(%rbx), %rax
	movl	(%rax), %ecx
	andq	$16777215, %rcx         # imm = 0xFFFFFF
	cmpq	$196650, %rcx           # imm = 0x3002A
	movq	%r15, %r14
	jne	.LBB1_45
# BB#85:                                # %land.lhs.true70.i
	movq	8(%rax), %rcx
	movl	(%rcx), %edx
	cmpq	$1, %rdx
	movq	%r15, %r14
	jne	.LBB1_45
# BB#86:                                # %land.lhs.true74.i
	movl	16(%rax), %eax
	cmpq	$12, %rax
	movq	%r15, %r14
	jne	.LBB1_45
# BB#87:                                # %L1106.i
	movq	8(%rcx), %r14
	movq	$3, %rsi
	movq	%r14, %rdi
	callq	memory_operand
	testq	%r13, %rax
	je	.LBB1_89
# BB#88:                                # %if.then90.i
	movzbl	target_flags(%rip), %eax
	movq	%r14, recog_data(%rip)
	movq	$166, %rdx
	testq	$1, %rax
	jne	.LBB1_4569
.LBB1_89:                               # %if.end99.i
	movq	8(%rbx), %r14
	jmp	.LBB1_45
.LBB1_372:                              # %L10846
	movq	%r8, %r12
	andq	$65535, %rax            # imm = 0xFFFF
	cmpq	$132, %rax
	jg	.LBB1_415
# BB#373:                               # %L10846
	cmpq	$61, %rax
	je	.LBB1_382
# BB#374:                               # %L10846
	cmpq	$63, %rax
	jne	.LBB1_375
.LBB1_382:                              # %L10847.i
	movq	$4, %rsi
	movq	%r15, %rdi
	callq	register_operand
	testq	%r13, %rax
	movq	%r15, %r14
	je	.LBB1_376
# BB#383:                               # %if.then.i11537
	movq	%r15, recog_data(%rip)
	movq	16(%r12), %rbx
	movq	$4, %rsi
	movq	%rbx, %rdi
	callq	const0_operand
	testq	%r13, %rax
	je	.LBB1_544
# BB#384:                               # %if.then552.i
	movl	reload_completed(%rip), %eax
	movq	%rbx, recog_data+8(%rip)
	testq	%rax, %rax
	movq	24(%rsp), %rdi          # 8-byte Reload
	je	.LBB1_543
# BB#385:                               # %land.lhs.true564.i
	movl	ix86_cpu(%rip), %ecx
	movl	x86_use_mov0(%rip), %eax
	movq	$1, %rdx
	shlq	%cl, %rdx
	andq	%rax, %rdx
	testq	%r13, %rdx
	movabsq	$0, %rax
	movabsq	$1, %rdx
	movq	%rax, %rcx
	jne	.LBB1_387
# BB#386:                               # %land.lhs.true564.i
	movq	%rdx, %rcx
.LBB1_387:                              # %land.lhs.true564.i
	movl	optimize_size(%rip), %esi
	testq	%rsi, %rsi
	je	.LBB1_389
# BB#388:                               # %land.lhs.true564.i
	movq	%rdx, %rax
.LBB1_389:                              # %land.lhs.true564.i
	orq	%rax, %rcx
	cmpq	$1, %rcx
	jne	.LBB1_543
# BB#390:                               # %land.lhs.true564.i
	testq	%rdi, %rdi
	je	.LBB1_543
# BB#391:                               # %if.then570.i
	movq	$1, %rax
	movl	%eax, (%rdi)
	movq	$43, %rdx
	movq	%rdx, %rax
	jmp	.LBB1_2108
.LBB1_1152:                             # %L10862
	movq	%r8, %rdi
	movq	24(%rsp), %rsi          # 8-byte Reload
	movq	%r8, %rbx
	callq	recog_5
	movq	%rbx, %r8
	movq	%rax, %rdx
	movq	$32, %rcx
                                        # kill: RAX<def> RDX<kill>
	shlq	%cl, %rax
	movq	$32, %rcx
	sarq	%cl, %rax
	testq	%rax, %rax
	jns	.LBB1_4569
	jmp	.LBB1_7
.LBB1_2345:                             # %L10885
	movq	%r8, %rbx
	movq	$6, %rsi
	movq	%r15, %rdi
	callq	register_operand
	testq	%r13, %rax
	je	.LBB1_2346
# BB#2347:                              # %if.then1500
	movq	%r15, recog_data(%rip)
	movq	%rbx, %r8
	movq	16(%r8), %rbx
	movl	(%rbx), %eax
	andq	$16777215, %rax         # imm = 0xFFFFFF
	cmpq	$393294, %rax           # imm = 0x6004E
	jne	.LBB1_2348
# BB#2349:                              # %L2246
	movq	8(%rbx), %rax
	movl	(%rax), %ecx
	movq	%rcx, %rdx
	andq	$16711680, %rdx         # imm = 0xFF0000
	cmpq	$393216, %rdx           # imm = 0x60000
	jne	.LBB1_2350
# BB#2351:                              # %L11291
	movq	%r8, %r15
	andq	$65535, %rcx            # imm = 0xFFFF
	cmpq	$120, %rcx
	jne	.LBB1_2352
# BB#2361:                              # %L2283
	movq	8(%rax), %r14
	movq	$5, %rsi
	movq	%r14, %rdi
	callq	nonimmediate_operand
	testq	%r13, %rax
	je	.LBB1_335
# BB#2362:                              # %if.then1602
	movq	%r14, recog_data+8(%rip)
	movq	16(%rbx), %rax
	movl	(%rax), %ecx
	andq	$16777215, %rcx         # imm = 0xFFFFFF
	cmpq	$393336, %rcx           # imm = 0x60078
	jne	.LBB1_335
# BB#2363:                              # %L2285
	movq	8(%rax), %rbx
	movq	$5, %rsi
	movq	%rbx, %rdi
	callq	nonimmediate_operand
	testq	%r13, %rax
	je	.LBB1_335
# BB#2364:                              # %if.then1629
	movzbl	target_flags+3(%rip), %eax
	movq	%rbx, recog_data+16(%rip)
	testq	$2, %rax
	je	.LBB1_335
# BB#2365:                              # %land.lhs.true1637
	movq	recog_data+8(%rip), %rax
	movzbl	(%rax), %eax
	cmpq	$66, %rax
	jne	.LBB1_2367
# BB#2366:                              # %lor.lhs.false1642
	movzbl	(%rbx), %eax
	cmpq	$66, %rax
	je	.LBB1_335
.LBB1_2367:                             # %land.lhs.true1647
	cmpq	$0, 24(%rsp)            # 8-byte Folded Reload
	je	.LBB1_335
# BB#2368:                              # %if.then1649
	movq	$1, %rax
	movq	24(%rsp), %rcx          # 8-byte Reload
	movl	%eax, (%rcx)
	movq	$258, %rdx              # imm = 0x102
	movq	%rdx, %rax
	jmp	.LBB1_2108
.LBB1_1153:                             # %L10867
	movq	%r8, %r14
	movq	$15, %rsi
	movq	%r15, %rdi
	callq	push_operand
	testq	%r13, %rax
	je	.LBB1_1159
# BB#1154:                              # %if.then398
	movq	%r15, recog_data(%rip)
	movq	16(%r14), %rbx
	movq	$15, %rsi
	movq	%rbx, %rdi
	callq	general_no_elim_operand
	testq	%r13, %rax
	je	.LBB1_1157
# BB#1155:                              # %if.then431
	movzbl	target_flags+3(%rip), %eax
	movq	%rbx, recog_data+8(%rip)
	movq	$88, %rdx
	testq	$2, %rax
	je	.LBB1_4569
# BB#1156:                              # %if.end445
	movq	16(%r14), %rbx
.LBB1_1157:                             # %L596
	movq	$15, %rsi
	movq	%rbx, %rdi
	callq	nonmemory_no_elim_operand
	testq	%r13, %rax
	je	.LBB1_1158
# BB#1180:                              # %if.then436
	movzbl	target_flags+3(%rip), %eax
	movq	%rbx, recog_data+8(%rip)
	movq	$89, %rdx
	testq	$2, %rax
	jne	.LBB1_4569
.LBB1_1158:                             # %if.end438
	movq	8(%r14), %r15
.LBB1_1159:                             # %L10868
	movq	$15, %rsi
	movq	%r15, %rdi
	callq	nonimmediate_operand
	testq	%r13, %rax
	je	.LBB1_1169
# BB#1160:                              # %if.then403
	movq	%r15, recog_data(%rip)
	movq	16(%r14), %rbx
	movl	(%rbx), %eax
	andq	$16777215, %rax         # imm = 0xFFFFFF
	cmpq	$983164, %rax           # imm = 0xF007C
	jne	.LBB1_1161
# BB#1181:                              # %L908
	movq	8(%rbx), %rbx
	movq	$16, %rsi
	movq	%rbx, %rdi
	callq	nonimmediate_operand
	testq	%r13, %rax
	je	.LBB1_1168
# BB#1182:                              # %if.then482
	movl	target_flags(%rip), %eax
	movq	%rbx, recog_data+8(%rip)
	andq	$262145, %rax           # imm = 0x40001
	cmpq	$262145, %rax           # imm = 0x40001
	jne	.LBB1_1168
# BB#1183:                              # %land.lhs.true493
	movq	recog_data(%rip), %rax
	movzbl	(%rax), %eax
	cmpq	$66, %rax
	movq	$141, %rdx
	jne	.LBB1_4569
# BB#1184:                              # %lor.lhs.false498
	movzbl	(%rbx), %eax
	cmpq	$66, %rax
	jne	.LBB1_4569
	jmp	.LBB1_1168
.LBB1_1469:                             # %L10869
	movq	%r8, %r14
	movq	$16, %rsi
	movq	%r15, %rdi
	callq	push_operand
	testq	%r13, %rax
	je	.LBB1_1476
# BB#1470:                              # %if.then909
	movq	%r15, recog_data(%rip)
	movq	16(%r14), %rbx
	movl	(%rbx), %eax
	andq	$16777215, %rax         # imm = 0xFFFFFF
	cmpq	$1048699, %rax          # imm = 0x10007B
	jne	.LBB1_1471
# BB#1503:                              # %L837
	movq	8(%rbx), %rbx
	movq	$15, %rsi
	movq	%rbx, %rdi
	callq	nonimmediate_operand
	testq	%r13, %rax
	je	.LBB1_1475
# BB#1504:                              # %if.then963
	movq	%rbx, recog_data+8(%rip)
	jmp	.LBB1_1475
.LBB1_1869:                             # %L10871
	movq	%r8, %r12
	movq	$17, %rsi
	movq	%r15, %rdi
	callq	push_operand
	testq	%r13, %rax
	movq	%r15, %rbx
	je	.LBB1_1876
# BB#1870:                              # %if.then.i11956
	movq	%r15, recog_data(%rip)
	movq	16(%r12), %rbx
	movl	(%rbx), %eax
	andq	$16777215, %rax         # imm = 0xFFFFFF
	cmpq	$1114235, %rax          # imm = 0x11007B
	jne	.LBB1_1871
# BB#1904:                              # %L842.i
	movq	8(%rbx), %rbx
	movzbl	2(%rbx), %eax
	cmpq	$15, %rax
	jne	.LBB1_1905
# BB#1907:                              # %L11203.i
	movq	$15, %rsi
	jmp	.LBB1_1908
.LBB1_2109:                             # %L10872
	movq	%r8, %r12
	movq	$18, %rsi
	movq	%r15, %rdi
	callq	push_operand
	testq	%r13, %rax
	movq	%r15, %rbx
	je	.LBB1_2115
# BB#2110:                              # %if.then.i12038
	movq	%r15, recog_data(%rip)
	movq	16(%r12), %rbx
	movl	(%rbx), %eax
	andq	$16777215, %rax         # imm = 0xFFFFFF
	cmpq	$1179771, %rax          # imm = 0x12007B
	jne	.LBB1_2111
# BB#2132:                              # %L847.i
	movq	8(%rbx), %rbx
	movzbl	2(%rbx), %eax
	cmpq	$15, %rax
	jne	.LBB1_2133
# BB#2135:                              # %L11247.i
	movq	$15, %rsi
	jmp	.LBB1_2136
.LBB1_44:                               # %L10851
	cmpq	$66, %rax
	movq	%r15, %r14
	jne	.LBB1_45
# BB#77:                                # %L10929.i
	movq	$3, %rsi
	movq	%r15, %rdi
	callq	push_operand
	testq	%r13, %rax
	movq	%r15, %r14
	je	.LBB1_51
# BB#78:                                # %if.then24.i
	movq	%r15, recog_data(%rip)
	movq	16(%rbx), %r14
	movq	$3, %rsi
	movq	%r14, %rdi
	callq	general_no_elim_operand
	testq	%r13, %rax
	je	.LBB1_81
# BB#79:                                # %if.then32.i
	movzbl	target_flags+3(%rip), %eax
	movq	%r14, recog_data+8(%rip)
	movq	$49, %rdx
	testq	$2, %rax
	je	.LBB1_4569
# BB#80:                                # %if.end45.i
	movq	16(%rbx), %r14
.LBB1_81:                               # %L346.i
	movq	$3, %rsi
	movq	%r14, %rdi
	callq	nonmemory_no_elim_operand
	testq	%r13, %rax
	je	.LBB1_50
# BB#82:                                # %if.then37.i
	movzbl	target_flags+3(%rip), %eax
	movq	%r14, recog_data+8(%rip)
	movq	$50, %rdx
	testq	$2, %rax
	jne	.LBB1_4569
.LBB1_50:                               # %if.end39.i
	movq	8(%rbx), %r14
	jmp	.LBB1_51
.LBB1_45:                               # %L10842.i
	movq	$3, %rsi
	movq	%r14, %rdi
	callq	register_operand
	testq	%r13, %rax
	je	.LBB1_51
# BB#46:                                # %if.then.i
	movq	%r14, recog_data(%rip)
	movq	%rbx, %rsi
	movq	16(%rsi), %rax
	movl	(%rax), %ecx
	andq	$16777215, %rcx         # imm = 0xFFFFFF
	cmpq	$196650, %rcx           # imm = 0x3002A
	jne	.LBB1_49
# BB#47:                                # %land.lhs.true114.i
	movq	8(%rax), %rcx
	movl	(%rcx), %edx
	cmpq	$1, %rdx
	jne	.LBB1_49
# BB#48:                                # %land.lhs.true120.i
	movl	16(%rax), %eax
	cmpq	$9, %rax
	jne	.LBB1_49
# BB#90:                                # %L140.i
	movq	8(%rcx), %rbx
	movl	(%rbx), %eax
	movq	$16, %rcx
	movq	%rax, %rdx
	shrq	%cl, %rdx
	andq	$255, %rdx
	cmpq	$57, %rdx
	jne	.LBB1_91
# BB#95:                                # %L10931.i
	andq	$65535, %rax            # imm = 0xFFFF
	cmpq	$74, %rax
	jne	.LBB1_92
# BB#96:                                # %L154.i
	movq	8(%rbx), %r14
	movzbl	2(%r14), %eax
	addq	$-15, %rax
	andq	%r13, %rax
	cmpq	$3, %rax
	jbe	.LBB1_4570
# BB#97:
	movq	%rsi, %r12
	jmp	.LBB1_98
.LBB1_415:                              # %L10846
	cmpq	$133, %rax
	movq	%r15, %r14
	jne	.LBB1_376
# BB#416:                               # %L485.i
	movq	8(%r15), %rbx
	xorq	%rsi, %rsi
	movq	%rbx, %rdi
	callq	ext_register_operand
	testq	%r13, %rax
	je	.LBB1_417
# BB#418:                               # %if.then70.i
	movq	%rbx, recog_data(%rip)
	movq	16(%r15), %rax
	movzbl	(%rax), %ecx
	cmpq	$54, %rcx
	jne	.LBB1_419
# BB#420:                               # %land.lhs.true79.i
	movq	8(%rax), %rax
	cmpq	$8, %rax
	movq	%r12, %r8
	jne	.LBB1_7
# BB#421:                               # %L487.i
	movq	24(%r15), %rax
	movzbl	(%rax), %ecx
	cmpq	$54, %rcx
	jne	.LBB1_7
# BB#422:                               # %land.lhs.true91.i
	movq	8(%rax), %rax
	cmpq	$8, %rax
	jne	.LBB1_7
# BB#423:                               # %L502.i
	movq	16(%r8), %r14
	movl	(%r14), %eax
	movq	%rax, %rcx
	andq	$16711680, %rcx         # imm = 0xFF0000
	cmpq	$262144, %rcx           # imm = 0x40000
	jne	.LBB1_424
# BB#430:                               # %L10964.i
	movq	%r8, %rbx
	andq	$65535, %rax            # imm = 0xFFFF
	cmpq	$75, %rax
	je	.LBB1_482
# BB#431:                               # %L10964.i
	cmpq	$85, %rax
	jne	.LBB1_432
# BB#517:                               # %L3692.i
	movq	8(%r14), %r12
	movl	(%r12), %eax
	andq	$16777215, %rax         # imm = 0xFFFFFF
	cmpq	$262277, %rax           # imm = 0x40085
	jne	.LBB1_518
# BB#519:                               # %L3693.i
	movq	8(%r12), %rax
	movq	%rax, 8(%rsp)           # 8-byte Spill
	xorq	%rsi, %rsi
	movq	%rax, %rdi
	callq	ext_register_operand
	testq	%r13, %rax
	je	.LBB1_520
# BB#521:                               # %if.then458.i
	movq	8(%rsp), %rax           # 8-byte Reload
	movq	%rax, recog_data+8(%rip)
	movq	16(%r12), %rax
	movzbl	(%rax), %ecx
	cmpq	$54, %rcx
	jne	.LBB1_522
# BB#523:                               # %land.lhs.true467.i
	movq	8(%rax), %rax
	cmpq	$8, %rax
	jne	.LBB1_524
# BB#525:                               # %L3695.i
	movq	24(%r12), %rax
	movzbl	(%rax), %ecx
	cmpq	$54, %rcx
	jne	.LBB1_526
# BB#527:                               # %land.lhs.true480.i
	movq	8(%rax), %rax
	cmpq	$8, %rax
	jne	.LBB1_528
# BB#529:                               # %L3696.i
	movq	16(%r14), %r12
	movl	(%r12), %eax
	andq	$16777215, %rax         # imm = 0xFFFFFF
	cmpq	$262277, %rax           # imm = 0x40085
	jne	.LBB1_530
# BB#531:                               # %L3697.i
	movq	8(%r12), %rax
	movq	%rax, 8(%rsp)           # 8-byte Spill
	xorq	%rsi, %rsi
	movq	%rax, %rdi
	callq	ext_register_operand
	testq	%r13, %rax
	je	.LBB1_532
# BB#533:                               # %if.then505.i
	movq	8(%rsp), %rax           # 8-byte Reload
	movq	%rax, recog_data+16(%rip)
	movq	16(%r12), %rax
	movzbl	(%rax), %ecx
	cmpq	$54, %rcx
	jne	.LBB1_534
# BB#535:                               # %land.lhs.true514.i
	movq	8(%rax), %rax
	cmpq	$8, %rax
	jne	.LBB1_536
# BB#537:                               # %L3699.i
	movq	24(%r12), %rax
	movzbl	(%rax), %ecx
	cmpq	$54, %rcx
	jne	.LBB1_538
# BB#539:                               # %land.lhs.true527.i
	movq	8(%rax), %rax
	cmpq	$8, %rax
	jne	.LBB1_540
# BB#541:                               # %land.lhs.true527.i
	cmpq	$0, 24(%rsp)            # 8-byte Folded Reload
	movq	%rbx, %r8
	je	.LBB1_424
# BB#542:                               # %if.then534.i11563
	movq	$1, %rax
	movq	24(%rsp), %rcx          # 8-byte Reload
	movl	%eax, (%rcx)
	movq	$339, %rdx              # imm = 0x153
	movq	%rdx, %rax
	jmp	.LBB1_2108
.LBB1_4574:                             # %L147
	jmpq	*.LJTI1_4(,%rax,8)
.LBB1_336:                              # %L10959
	movq	%r8, %r15
	movq	$15, %rsi
	movq	%rbx, %rdi
	callq	register_operand
	testq	%r14, %rax
	je	.LBB1_331
# BB#337:                               # %if.then114
	movq	%rbx, recog_data(%rip)
	movq	16(%r12), %rbx
	movq	$15, %rsi
	movq	%rbx, %rdi
	callq	nonimmediate_operand
	testq	%r14, %rax
	je	.LBB1_4575
# BB#338:                               # %if.then122
	movzbl	target_flags(%rip), %eax
	movq	%rbx, recog_data+8(%rip)
	movq	$19, %rdx
	jmp	.LBB1_339
.LBB1_2346:
	movq	%rbx, %r8
	jmp	.LBB1_7
.LBB1_2348:                             # %if.end1515
	movq	8(%r8), %r15
	jmp	.LBB1_7
.LBB1_1471:                             # %if.end949
	movq	$16, %rsi
	movq	%rbx, %rdi
	callq	general_no_elim_operand
	testq	%r13, %rax
	je	.LBB1_1475
# BB#1472:                              # %if.then952
	movzbl	target_flags+3(%rip), %eax
	movq	%rbx, recog_data+8(%rip)
	movq	$93, %rdx
	testq	$2, %rax
	jne	.LBB1_4569
# BB#1473:                              # %land.lhs.true974
	movl	x86_integer_DFmode_moves(%rip), %eax
	movl	ix86_cpu(%rip), %ecx
	movq	$1, %rdi
	movq	$1, %rsi
	shlq	%cl, %rsi
	andq	%rax, %rsi
	testq	%r13, %rsi
	movq	$92, %rdx
	je	.LBB1_4569
# BB#1474:                              # %lor.lhs.false981
	movl	ix86_cpu(%rip), %ecx
	shlq	%cl, %rdi
	andq	%rax, %rdi
	testq	%r13, %rdi
	movq	$93, %rdx
	jne	.LBB1_4569
.LBB1_1475:                             # %if.end954
	movq	8(%r14), %r15
.LBB1_1476:                             # %L10870
	movq	$16, %rsi
	movq	%r15, %rdi
	callq	nonimmediate_operand
	testq	%r13, %rax
	je	.LBB1_1492
# BB#1477:                              # %if.then914
	movq	%r15, recog_data(%rip)
	movq	16(%r14), %rbx
	movl	(%rbx), %eax
	andq	$16777215, %rax         # imm = 0xFFFFFF
	cmpq	$1048699, %rax          # imm = 0x10007B
	jne	.LBB1_1478
# BB#1505:                              # %L862
	movq	8(%rbx), %rbx
	movq	$15, %rsi
	movq	%rbx, %rdi
	callq	nonimmediate_operand
	testq	%r13, %rax
	je	.LBB1_1491
# BB#1506:                              # %if.then1016
	movl	target_flags(%rip), %eax
	movq	%rbx, recog_data+8(%rip)
	testq	$262145, %rax           # imm = 0x40001
	je	.LBB1_1491
# BB#1507:                              # %land.lhs.true1027
	movq	recog_data(%rip), %rax
	movzbl	(%rax), %eax
	cmpq	$66, %rax
	movq	$133, %rdx
	jne	.LBB1_4569
# BB#1508:                              # %lor.lhs.false1032
	movzbl	(%rbx), %eax
	cmpq	$66, %rax
	jne	.LBB1_4569
	jmp	.LBB1_1491
.LBB1_1871:                             # %if.end19.i
	movq	$17, %rsi
	movq	%rbx, %rdi
	callq	general_no_elim_operand
	testq	%r13, %rax
	je	.LBB1_1875
# BB#1872:                              # %if.then22.i
	movl	target_flags(%rip), %eax
	movl	optimize_size(%rip), %ecx
	movq	%rbx, recog_data+8(%rip)
	andq	$33554432, %rax         # imm = 0x2000000
	jne	.LBB1_1874
# BB#1873:                              # %if.then22.i
	movq	$97, %rdx
	testq	%r13, %rcx
	jne	.LBB1_4569
.LBB1_1874:                             # %L643.i
	orq	%rcx, %rax
	testq	%r13, %rax
	movq	$99, %rdx
	jne	.LBB1_1875
	jmp	.LBB1_4569
.LBB1_2111:                             # %if.end19.i12051
	movq	$18, %rsi
	movq	%rbx, %rdi
	callq	general_no_elim_operand
	testq	%r13, %rax
	je	.LBB1_2114
# BB#2112:                              # %if.then22.i12053
	movl	optimize_size(%rip), %eax
	movq	%rbx, recog_data+8(%rip)
	testq	%rax, %rax
	movq	$98, %rdx
	jne	.LBB1_4569
# BB#2113:                              # %select.mid1049
	movq	$100, %rdx
	movq	%rdx, %rax
	jmp	.LBB1_2108
.LBB1_1478:                             # %if.end1002
	movq	$16, %rsi
	movq	%rbx, %rdi
	callq	general_operand
	testq	%r13, %rax
	je	.LBB1_1491
# BB#1479:                              # %if.then1005
	movq	%rbx, recog_data+8(%rip)
	movq	recog_data(%rip), %rdi
	movl	(%rdi), %eax
	movq	%rax, %rcx
	andq	$65535, %rcx            # imm = 0xFFFF
	cmpq	$66, %rcx
	jne	.LBB1_1481
# BB#1480:                              # %lor.lhs.false1046
	movzbl	(%rbx), %ecx
	cmpq	$66, %rcx
	je	.LBB1_1488
.LBB1_1481:                             # %land.lhs.true1051
	movl	optimize_size(%rip), %ecx
	testq	%rcx, %rcx
	jne	.LBB1_1483
# BB#1482:                              # %lor.lhs.false1053
	movl	ix86_cpu(%rip), %ecx
	movl	x86_integer_DFmode_moves(%rip), %edx
	movq	$1, %rsi
	shlq	%cl, %rsi
	andq	%rdx, %rsi
	testq	%r13, %rsi
	jne	.LBB1_1488
.LBB1_1483:                             # %land.lhs.true1057
	movl	reload_in_progress(%rip), %eax
	movl	reload_completed(%rip), %ecx
	orq	%rax, %rcx
	testq	%r13, %rcx
	movq	$94, %rdx
	jne	.LBB1_4569
# BB#1484:                              # %land.lhs.true1057
	movl	ix86_cmodel(%rip), %eax
	addq	$-3, %rax
	andq	%r13, %rax
	cmpq	$2, %rax
	jb	.LBB1_4569
# BB#1485:                              # %lor.lhs.false1065
	movzbl	(%rbx), %eax
	cmpq	$55, %rax
	jne	.LBB1_4569
# BB#1486:                              # %lor.lhs.false1070
	movq	$16, %rsi
	callq	memory_operand
	movq	$94, %rdx
	testq	%r13, %rax
	jne	.LBB1_4569
# BB#1487:                              # %lor.lhs.false1070.L624_crit_edge
	movq	recog_data(%rip), %rdi
	movl	(%rdi), %eax
.LBB1_1488:                             # %L624
	andq	$65535, %rax            # imm = 0xFFFF
	cmpq	$66, %rax
	jne	.LBB1_1509
# BB#1489:                              # %lor.lhs.false1080
	movq	recog_data+8(%rip), %rax
	movzbl	(%rax), %eax
	cmpq	$66, %rax
	je	.LBB1_1491
# BB#1490:                              # %lor.lhs.false1080
	movl	optimize_size(%rip), %eax
	testq	%r13, %rax
	je	.LBB1_1510
	jmp	.LBB1_1491
.LBB1_4576:                             # %if.end276
	movq	%r12, %r8
	movq	8(%r8), %r15
	jmp	.LBB1_7
.LBB1_963:                              # %if.end31.i
	movq	8(%rbx), %r14
.LBB1_964:                              # %L10856.i
	movq	$2, %rsi
	movq	%r14, %rdi
	callq	nonimmediate_operand
	testq	%r13, %rax
	je	.LBB1_970
# BB#965:                               # %if.then4.i
	movq	%r14, recog_data(%rip)
	movq	16(%rbx), %r12
	movl	(%r12), %eax
	andq	$16777215, %rax         # imm = 0xFFFFFF
	cmpq	$131204, %rax           # imm = 0x20084
	jne	.LBB1_966
# BB#988:                               # %L444.i
	movq	8(%r12), %r14
	xorq	%rsi, %rsi
	movq	%r14, %rdi
	callq	ext_register_operand
	testq	%r13, %rax
	je	.LBB1_969
# BB#989:                               # %if.then69.i
	movq	%r14, recog_data+8(%rip)
	movq	16(%r12), %rax
	movzbl	(%rax), %ecx
	cmpq	$54, %rcx
	jne	.LBB1_969
# BB#990:                               # %land.lhs.true81.i
	movq	8(%rax), %rax
	cmpq	$8, %rax
	jne	.LBB1_969
# BB#991:                               # %L446.i
	movq	24(%r12), %rax
	movzbl	(%rax), %ecx
	cmpq	$54, %rcx
	jne	.LBB1_969
# BB#992:                               # %land.lhs.true96.i
	movq	8(%rax), %rax
	cmpq	$8, %rax
	jne	.LBB1_969
# BB#993:                               # %land.lhs.true101.i
	movzbl	target_flags+3(%rip), %eax
	movq	$66, %rdx
	testq	$2, %rax
	jne	.LBB1_969
	jmp	.LBB1_4569
.LBB1_1161:                             # %if.end468
	movq	$15, %rsi
	movq	%rbx, %rdi
	callq	general_operand
	testq	%r13, %rax
	je	.LBB1_1168
# BB#1162:                              # %if.then471
	movq	%rbx, recog_data+8(%rip)
	movq	recog_data(%rip), %rdi
	movzbl	(%rdi), %eax
	cmpq	$66, %rax
	jne	.LBB1_1164
# BB#1163:                              # %lor.lhs.false512
	movzbl	(%rbx), %eax
	cmpq	$66, %rax
	je	.LBB1_1168
.LBB1_1164:                             # %land.lhs.true517
	movl	reload_in_progress(%rip), %eax
	movl	reload_completed(%rip), %ecx
	orq	%rax, %rcx
	movq	%r13, %r15
	testq	%r15, %rcx
	movq	$90, %rdx
	jne	.LBB1_4569
# BB#1165:                              # %land.lhs.true517
	movl	ix86_cmodel(%rip), %eax
	addq	$-3, %rax
	andq	%r15, %rax
	cmpq	$2, %rax
	jb	.LBB1_4569
# BB#1166:                              # %lor.lhs.false525
	movzbl	(%rbx), %eax
	cmpq	$55, %rax
	jne	.LBB1_4569
# BB#1167:                              # %lor.lhs.false530
	movq	$15, %rsi
	callq	memory_operand
	movq	$90, %rdx
	testq	%r15, %rax
	movq	%r15, %r13
	jne	.LBB1_4569
.LBB1_1168:                             # %if.end473
	movq	8(%r14), %r15
.LBB1_1169:                             # %L10876
	movq	$15, %rsi
	movq	%r15, %rdi
	callq	memory_operand
	testq	%r13, %rax
	je	.LBB1_1172
# BB#1170:                              # %if.then408
	movq	%r15, recog_data(%rip)
	movq	16(%r14), %rax
	movl	(%rax), %ecx
	movq	%rcx, %rdx
	andq	$16711680, %rdx         # imm = 0xFF0000
	cmpq	$983040, %rdx           # imm = 0xF0000
	jne	.LBB1_1171
# BB#1185:                              # %L11113
	andq	$65535, %rcx            # imm = 0xFFFF
	cmpq	$77, %rcx
	je	.LBB1_1201
# BB#1186:                              # %L11113
	cmpq	$124, %rcx
	jne	.LBB1_1187
# BB#1192:                              # %L913
	movq	8(%rax), %rbx
	movzbl	2(%rbx), %eax
	cmpq	$16, %rax
	je	.LBB1_1197
# BB#1193:                              # %L913
	cmpq	$17, %rax
	jne	.LBB1_1194
# BB#1199:                              # %L11117
	movq	$17, %rsi
	movq	%rbx, %rdi
	callq	register_operand
	testq	%r13, %rax
	je	.LBB1_1171
# BB#1200:                              # %if.then592
	movl	target_flags(%rip), %eax
	movq	%rbx, recog_data+8(%rip)
	andq	$33554433, %rax         # imm = 0x2000001
	cmpq	$1, %rax
	movq	$145, %rdx
	je	.LBB1_4569
	jmp	.LBB1_1171
.LBB1_966:                              # %if.end55.i
	movq	$2, %rsi
	movq	%r12, %rdi
	callq	general_operand
	testq	%r13, %rax
	je	.LBB1_969
# BB#967:                               # %if.then58.i
	movq	%r12, recog_data+8(%rip)
	movq	recog_data(%rip), %rax
	movzbl	(%rax), %eax
	cmpq	$66, %rax
	movq	$60, %rdx
	jne	.LBB1_4569
# BB#968:                               # %lor.lhs.false.i
	movzbl	(%r12), %eax
	cmpq	$66, %rax
	jne	.LBB1_4569
.LBB1_969:                              # %if.end60.i
	movq	8(%rbx), %r14
.LBB1_970:                              # %L10858.i
	movq	%rbx, %r12
	movzbl	(%r14), %eax
	cmpq	$66, %rax
	jne	.LBB1_971
# BB#994:                               # %L455.i
	movq	8(%r14), %rbx
	movq	$5, %rsi
	movq	%rbx, %rdi
	callq	x86_64_movabs_operand
	testq	%r13, %rax
	je	.LBB1_976
# BB#995:                               # %if.then127.i
	movq	%rbx, recog_data(%rip)
	movq	16(%r12), %rbx
	movq	$2, %rsi
	movq	%rbx, %rdi
	callq	nonmemory_operand
	testq	%r13, %rax
	je	.LBB1_975
# BB#996:                               # %if.then135.i
	movzbl	target_flags+3(%rip), %eax
	movq	%rbx, recog_data+8(%rip)
	movq	$68, %rdx
	testq	$2, %rax
	jne	.LBB1_4569
	jmp	.LBB1_975
.LBB1_971:                              # %if.end8.i
	movq	$2, %rsi
	movq	%r14, %rdi
	callq	register_operand
	testq	%r13, %rax
	je	.LBB1_976
# BB#972:                               # %if.then11.i
	movq	%r14, recog_data(%rip)
	movq	16(%r12), %rbx
	movl	(%rbx), %eax
	movq	%rax, %rcx
	andq	$16711680, %rcx         # imm = 0xFF0000
	cmpq	$131072, %rcx           # imm = 0x20000
	jne	.LBB1_975
# BB#973:                               # %L11016.i
	andq	$65535, %rax            # imm = 0xFFFF
	cmpq	$66, %rax
	jne	.LBB1_974
# BB#1003:                              # %L461.i
	movq	8(%rbx), %rbx
	movq	$5, %rsi
	movq	%rbx, %rdi
	callq	x86_64_movabs_operand
	testq	%r13, %rax
	je	.LBB1_975
# BB#1004:                              # %if.then217.i
	movzbl	target_flags+3(%rip), %eax
	movq	%rbx, recog_data+8(%rip)
	movq	$69, %rdx
	testq	$2, %rax
	jne	.LBB1_4569
	jmp	.LBB1_975
.LBB1_375:                              # %L10846
	cmpq	$66, %rax
	movq	%r15, %r14
	jne	.LBB1_376
# BB#408:                               # %L10963.i
	movq	$4, %rsi
	movq	%r15, %rdi
	callq	push_operand
	testq	%r13, %rax
	movq	%r15, %r14
	je	.LBB1_376
# BB#409:                               # %if.then33.i
	movq	%r15, recog_data(%rip)
	movq	16(%r12), %rbx
	movq	$4, %rsi
	movq	%rbx, %rdi
	callq	general_no_elim_operand
	testq	%r13, %rax
	je	.LBB1_412
# BB#410:                               # %if.then41.i
	movzbl	target_flags+3(%rip), %eax
	movq	%rbx, recog_data+8(%rip)
	movq	$38, %rdx
	testq	$2, %rax
	je	.LBB1_4569
# BB#411:                               # %if.end54.i
	movq	16(%r12), %rbx
.LBB1_412:                              # %L267.i
	movq	$4, %rsi
	movq	%rbx, %rdi
	callq	nonmemory_no_elim_operand
	testq	%r13, %rax
	je	.LBB1_414
# BB#413:                               # %if.then46.i
	movzbl	target_flags+3(%rip), %eax
	movq	%rbx, recog_data+8(%rip)
	movq	$39, %rdx
	testq	$2, %rax
	jne	.LBB1_4569
.LBB1_414:                              # %if.end48.i
	movq	8(%r12), %r14
	jmp	.LBB1_376
.LBB1_2350:                             # %if.end1527
	movq	8(%r8), %r15
	jmp	.LBB1_7
.LBB1_1905:                             # %L842.i
	cmpq	$16, %rax
	jne	.LBB1_1875
# BB#1906:                              # %L11204.i
	movq	$16, %rsi
.LBB1_1908:                             # %L11203.i
	movq	%rbx, %rdi
	callq	nonimmediate_operand
	testq	%r13, %rax
	je	.LBB1_1875
# BB#1909:                              # %if.then40.i
	movq	%rbx, recog_data+8(%rip)
.LBB1_1875:                             # %if.end24.i11967
	movq	8(%r12), %rbx
.LBB1_1876:                             # %L10873.i
	movq	$17, %rsi
	movq	%rbx, %rdi
	callq	nonimmediate_operand
	testq	%r13, %rax
	je	.LBB1_1894
# BB#1877:                              # %if.then4.i11962
	movq	%rbx, recog_data(%rip)
	movq	16(%r12), %r14
	movl	(%r14), %eax
	movq	%rax, %rcx
	andq	$16711680, %rcx         # imm = 0xFF0000
	cmpq	$1114112, %rcx          # imm = 0x110000
	jne	.LBB1_1878
# BB#1910:                              # %L11205.i
	andq	$65535, %rax            # imm = 0xFFFF
	cmpq	$77, %rax
	je	.LBB1_1926
# BB#1911:                              # %L11205.i
	cmpq	$129, %rax
	jne	.LBB1_1912
# BB#1932:                              # %L4223.i
	movq	8(%r14), %rbx
	movq	$17, %rsi
	movq	%rbx, %rdi
	callq	nonimmediate_operand
	testq	%r13, %rax
	je	.LBB1_1878
# BB#1933:                              # %if.then185.i
	movl	target_flags(%rip), %eax
	movq	%rbx, recog_data+8(%rip)
	andq	$33554433, %rax         # imm = 0x2000001
	cmpq	$1, %rax
	jne	.LBB1_1937
# BB#1934:                              # %land.lhs.true193.i
	movabsq	$recog_data, %rdx
	movq	$129, %rdi
	movq	$17, %rsi
	callq	ix86_unary_operator_ok
	testq	%r13, %rax
	je	.LBB1_1937
# BB#1935:                              # %land.lhs.true193.i
	cmpq	$0, 24(%rsp)            # 8-byte Folded Reload
	je	.LBB1_1937
# BB#1936:                              # %if.then198.i
	movq	$1, %rax
	movq	24(%rsp), %rcx          # 8-byte Reload
	movl	%eax, (%rcx)
	movq	$382, %rdx              # imm = 0x17E
	movq	%rdx, %rax
	jmp	.LBB1_2108
.LBB1_2133:                             # %L847.i
	cmpq	$16, %rax
	jne	.LBB1_2114
# BB#2134:                              # %L11248.i
	movq	$16, %rsi
.LBB1_2136:                             # %L11247.i
	movq	%rbx, %rdi
	callq	nonimmediate_operand
	testq	%r13, %rax
	je	.LBB1_2114
# BB#2137:                              # %if.then40.i12063
	movq	%rbx, recog_data+8(%rip)
.LBB1_2114:                             # %if.end24.i12054
	movq	8(%r12), %rbx
.LBB1_2115:                             # %L10874.i
	movq	$18, %rsi
	movq	%rbx, %rdi
	callq	nonimmediate_operand
	testq	%r13, %rax
	je	.LBB1_2122
# BB#2116:                              # %if.then4.i12042
	movq	%rbx, recog_data(%rip)
	movq	16(%r12), %r14
	movl	(%r14), %eax
	movq	%rax, %rcx
	andq	$16711680, %rcx         # imm = 0xFF0000
	cmpq	$1179648, %rcx          # imm = 0x120000
	jne	.LBB1_2117
# BB#2138:                              # %L11249.i
	andq	$65535, %rax            # imm = 0xFFFF
	cmpq	$77, %rax
	je	.LBB1_2154
# BB#2139:                              # %L11249.i
	cmpq	$129, %rax
	jne	.LBB1_2140
# BB#2160:                              # %L4235.i
	movq	8(%r14), %rbx
	movq	$18, %rsi
	movq	%rbx, %rdi
	callq	nonimmediate_operand
	testq	%r13, %rax
	je	.LBB1_2117
# BB#2161:                              # %if.then170.i
	movzbl	target_flags(%rip), %eax
	movq	%rbx, recog_data+8(%rip)
	testq	$1, %rax
	je	.LBB1_2165
# BB#2162:                              # %land.lhs.true175.i
	movabsq	$recog_data, %rdx
	movq	$129, %rdi
	movq	$18, %rsi
	callq	ix86_unary_operator_ok
	testq	%r13, %rax
	je	.LBB1_2165
# BB#2163:                              # %land.lhs.true175.i
	cmpq	$0, 24(%rsp)            # 8-byte Folded Reload
	je	.LBB1_2165
# BB#2164:                              # %if.then180.i
	movq	$1, %rax
	movq	24(%rsp), %rcx          # 8-byte Reload
	movl	%eax, (%rcx)
	movq	$383, %rdx              # imm = 0x17F
	movq	%rdx, %rax
	jmp	.LBB1_2108
.LBB1_341:                              # %L10960
	movq	%r8, %r15
	movq	$16, %rsi
	movq	%rbx, %rdi
	callq	register_operand
	testq	%r14, %rax
	je	.LBB1_331
# BB#342:                               # %if.then139
	movq	%rbx, recog_data(%rip)
	movq	16(%r12), %rbx
	movq	$16, %rsi
	movq	%rbx, %rdi
	callq	nonimmediate_operand
	testq	%r14, %rax
	je	.LBB1_4575
# BB#343:                               # %if.then147
	movzbl	target_flags(%rip), %eax
	movq	%rbx, recog_data+8(%rip)
	movq	$21, %rdx
	jmp	.LBB1_339
.LBB1_344:                              # %L10961
	movq	%r8, %r15
	movq	$17, %rsi
	movq	%rbx, %rdi
	callq	register_operand
	testq	%r14, %rax
	je	.LBB1_331
# BB#345:                               # %if.then165
	movq	%rbx, recog_data(%rip)
	movq	16(%r12), %rbx
	movq	$17, %rsi
	movq	%rbx, %rdi
	callq	register_operand
	testq	%r14, %rax
	je	.LBB1_4575
# BB#346:                               # %if.then173
	movl	target_flags(%rip), %eax
	movq	%rbx, recog_data+8(%rip)
	andq	$33554433, %rax         # imm = 0x2000001
	cmpq	$1, %rax
	movq	$23, %rdx
	jne	.LBB1_340
	jmp	.LBB1_4569
.LBB1_347:                              # %L10962
	movq	%r8, %r15
	movq	$18, %rsi
	movq	%rbx, %rdi
	callq	register_operand
	testq	%r14, %rax
	je	.LBB1_331
# BB#348:                               # %if.then194
	movq	%rbx, recog_data(%rip)
	movq	16(%r12), %rbx
	movq	$18, %rsi
	movq	%rbx, %rdi
	callq	register_operand
	testq	%r14, %rax
	je	.LBB1_4575
# BB#349:                               # %if.then202
	movzbl	target_flags(%rip), %eax
	movq	%rbx, recog_data+8(%rip)
	movq	$24, %rdx
.LBB1_339:                              # %if.then122
	testq	$1, %rax
	jne	.LBB1_4569
.LBB1_340:                              # %if.end130
	movq	16(%r15), %r12
	movq	8(%r12), %rbx
	jmp	.LBB1_331
.LBB1_417:
	movq	%r12, %r8
	jmp	.LBB1_7
.LBB1_1926:                             # %L4038.i
	movq	8(%r14), %rbx
	movq	$17, %rsi
	movq	%rbx, %rdi
	callq	nonimmediate_operand
	testq	%r13, %rax
	je	.LBB1_1878
# BB#1927:                              # %if.then162.i
	movl	target_flags(%rip), %eax
	movq	%rbx, recog_data+8(%rip)
	andq	$33554433, %rax         # imm = 0x2000001
	cmpq	$1, %rax
	jne	.LBB1_1931
# BB#1928:                              # %land.lhs.true170.i
	movabsq	$recog_data, %rdx
	movq	$77, %rdi
	movq	$17, %rsi
	callq	ix86_unary_operator_ok
	testq	%r13, %rax
	je	.LBB1_1931
# BB#1929:                              # %land.lhs.true170.i
	cmpq	$0, 24(%rsp)            # 8-byte Folded Reload
	je	.LBB1_1931
# BB#1930:                              # %if.then175.i
	movq	$1, %rax
	movq	24(%rsp), %rcx          # 8-byte Reload
	movl	%eax, (%rcx)
	movq	$363, %rdx              # imm = 0x16B
	movq	%rdx, %rax
	jmp	.LBB1_2108
.LBB1_1912:                             # %L11205.i
	cmpq	$123, %rax
	jne	.LBB1_1878
# BB#1913:                              # %L872.i
	movq	8(%r14), %rbx
	movzbl	2(%rbx), %eax
	cmpq	$16, %rax
	jne	.LBB1_1914
# BB#1921:                              # %L11209.i
	movq	$16, %rsi
	movq	%rbx, %rdi
	callq	nonimmediate_operand
	testq	%r13, %rax
	je	.LBB1_1878
# BB#1922:                              # %if.then134.i
	movl	target_flags(%rip), %eax
	movq	%rbx, recog_data+8(%rip)
	andq	$33554433, %rax         # imm = 0x2000001
	cmpq	$1, %rax
	jne	.LBB1_1925
# BB#1923:                              # %land.lhs.true142.i
	movq	recog_data(%rip), %rax
	movzbl	(%rax), %eax
	cmpq	$66, %rax
	movq	$137, %rdx
	jne	.LBB1_4569
# BB#1924:                              # %lor.lhs.false147.i
	movzbl	(%rbx), %eax
	cmpq	$66, %rax
	jne	.LBB1_4569
.LBB1_1925:                             # %if.end153.i
	movq	16(%r12), %r14
	jmp	.LBB1_1878
.LBB1_4575:                             # %if.end204
	movq	8(%r12), %rbx
.LBB1_331:                              # %L212
	xorq	%rsi, %rsi
	movq	%rbx, %rdi
	callq	register_operand
	testq	%r14, %rax
	je	.LBB1_335
# BB#332:                               # %if.then106
	movq	%rbx, recog_data(%rip)
	movq	16(%r12), %rax
	movzbl	(%rax), %ecx
	cmpq	$125, %rcx
	jne	.LBB1_335
# BB#333:                               # %L214
	movq	8(%rax), %rbx
	movq	$4, %rsi
	movq	%rbx, %rdi
	callq	nonimmediate_operand
	testq	%r14, %rax
	je	.LBB1_335
# BB#334:                               # %if.then234
	movq	%rbx, recog_data+8(%rip)
	jmp	.LBB1_335
.LBB1_543:                              # %if.end571.i
	movq	16(%r12), %rbx
.LBB1_544:                              # %L317.i
	movq	$4, %rsi
	movq	%rbx, %rdi
	callq	immediate_operand
	testq	%r13, %rax
	je	.LBB1_555
# BB#545:                               # %if.then557.i
	movl	reload_completed(%rip), %eax
	movq	%rbx, recog_data+8(%rip)
	testq	%rax, %rax
	je	.LBB1_555
# BB#546:                               # %land.lhs.true576.i
	movzbl	(%rbx), %eax
	cmpq	$54, %rax
	jne	.LBB1_555
# BB#547:                               # %land.lhs.true581.i
	movq	8(%rbx), %rax
	cmpq	$-1, %rax
	jne	.LBB1_555
# BB#548:                               # %land.lhs.true587.i
	movl	ix86_cpu(%rip), %eax
	cmpq	$2, %rax
	movabsq	$0, %rax
	movabsq	$1, %rdx
	movq	%rax, %rcx
	jne	.LBB1_550
# BB#549:                               # %land.lhs.true587.i
	movq	%rdx, %rcx
.LBB1_550:                              # %land.lhs.true587.i
	movl	optimize_size(%rip), %esi
	testq	%rsi, %rsi
	je	.LBB1_552
# BB#551:                               # %land.lhs.true587.i
	movq	%rdx, %rax
.LBB1_552:                              # %land.lhs.true587.i
	orq	%rax, %rcx
	cmpq	$1, %rcx
	jne	.LBB1_555
# BB#553:                               # %land.lhs.true587.i
	cmpq	$0, 24(%rsp)            # 8-byte Folded Reload
	je	.LBB1_555
# BB#554:                               # %if.then593.i
	movq	$1, %rax
	movq	24(%rsp), %rcx          # 8-byte Reload
	movl	%eax, (%rcx)
	movq	$44, %rdx
	movq	%rdx, %rax
	jmp	.LBB1_2108
.LBB1_555:                              # %if.end594.i
	movq	8(%r12), %r14
.LBB1_376:                              # %L10848.i
	movq	$4, %rsi
	movq	%r14, %rdi
	callq	nonimmediate_operand
	testq	%r13, %rax
	je	.LBB1_394
# BB#377:                               # %if.then6.i
	movq	%r14, recog_data(%rip)
	movq	16(%r12), %r14
	movl	(%r14), %eax
	movq	%rax, %rcx
	andq	$16711680, %rcx         # imm = 0xFF0000
	cmpq	$262144, %rcx           # imm = 0x40000
	jne	.LBB1_378
# BB#556:                               # %L10971.i
	andq	$65535, %rax            # imm = 0xFFFF
	movq	%r12, %rbx
	cmpq	$75, %rax
	jne	.LBB1_557
# BB#571:                               # %L1260.i
	movq	8(%r14), %rax
	movl	(%rax), %ecx
	andq	$16777215, %rcx         # imm = 0xFFFFFF
	cmpq	$262219, %rcx           # imm = 0x4004B
	jne	.LBB1_379
# BB#572:                               # %L1261.i
	movq	8(%rax), %rcx
	movl	(%rcx), %edx
	andq	$16777215, %rdx         # imm = 0xFFFFFF
	cmpq	$262255, %rdx           # imm = 0x4006F
	jne	.LBB1_379
# BB#573:                               # %L1262.i
	movq	8(%rcx), %rdx
	movl	(%rdx), %esi
	andq	$16777215, %rsi         # imm = 0xFFFFFF
	cmpq	$3407933, %rsi          # imm = 0x34003D
	jne	.LBB1_379
# BB#574:                               # %land.lhs.true718.i
	movl	8(%rdx), %edx
	cmpq	$17, %rdx
	jne	.LBB1_379
# BB#575:                               # %L1263.i
	movq	16(%rcx), %rcx
	movzbl	(%rcx), %edx
	cmpq	$54, %rdx
	jne	.LBB1_379
# BB#576:                               # %land.lhs.true731.i
	cmpq	$0, 8(%rcx)
	jne	.LBB1_379
# BB#577:                               # %L1264.i
	movq	16(%rax), %r12
	movq	$4, %rsi
	movq	%r12, %rdi
	callq	nonimmediate_operand
	testq	%r13, %rax
	je	.LBB1_379
# BB#578:                               # %if.then743.i11572
	movq	%r12, recog_data+8(%rip)
	movq	16(%r14), %r12
	movq	$4, %rsi
	movq	%r12, %rdi
	callq	general_operand
	testq	%r13, %rax
	je	.LBB1_379
# BB#579:                               # %if.then751.i
	movq	%r12, recog_data+16(%rip)
	movabsq	$recog_data, %rax
	movq	$75, %rdi
	movq	$4, %rsi
	movq	%rax, %rdx
	callq	ix86_binary_operator_ok
	testq	%r13, %rax
	je	.LBB1_582
# BB#580:                               # %if.then751.i
	cmpq	$0, 24(%rsp)            # 8-byte Folded Reload
	je	.LBB1_582
# BB#581:                               # %if.then758.i
	movq	$1, %rax
	movq	24(%rsp), %rcx          # 8-byte Reload
	movl	%eax, (%rcx)
	movq	$188, %rdx
	movq	%rdx, %rax
	jmp	.LBB1_2108
.LBB1_378:
	movq	%r12, %rbx
	jmp	.LBB1_379
.LBB1_557:                              # %L10971.i
	cmpq	$126, %rax
	jne	.LBB1_379
# BB#558:                               # %L1038.i
	movq	8(%r14), %r12
	xorq	%rsi, %rsi
	movq	%r12, %rdi
	callq	register_operand
	testq	%r13, %rax
	je	.LBB1_379
# BB#559:                               # %if.then626.i
	movl	target_flags(%rip), %edx
	movq	%r12, recog_data+8(%rip)
	testq	$1, %rdx
	je	.LBB1_570
# BB#560:                               # %land.lhs.true631.i
	movl	(%r12), %eax
	movq	$14, %rcx
	movq	%rax, %rsi
	shrq	%cl, %rsi
	andq	$1020, %rsi             # imm = 0x3FC
	movl	mode_class(%rsi), %ecx
	movq	%rcx, %rsi
	orq	$4, %rsi
	andq	%r13, %rsi
	cmpq	$6, %rsi
	jne	.LBB1_561
# BB#564:                               # %land.lhs.true654.i
	movl	reload_completed(%rip), %ecx
	movl	reload_in_progress(%rip), %esi
	orq	%rcx, %rsi
	testq	%r13, %rsi
	jne	.LBB1_570
	jmp	.LBB1_565
.LBB1_2154:                             # %L4050.i
	movq	8(%r14), %rbx
	movq	$18, %rsi
	movq	%rbx, %rdi
	callq	nonimmediate_operand
	testq	%r13, %rax
	je	.LBB1_2117
# BB#2155:                              # %if.then150.i
	movzbl	target_flags(%rip), %eax
	movq	%rbx, recog_data+8(%rip)
	testq	$1, %rax
	je	.LBB1_2159
# BB#2156:                              # %land.lhs.true155.i
	movabsq	$recog_data, %rdx
	movq	$77, %rdi
	movq	$18, %rsi
	callq	ix86_unary_operator_ok
	testq	%r13, %rax
	je	.LBB1_2159
# BB#2157:                              # %land.lhs.true155.i
	cmpq	$0, 24(%rsp)            # 8-byte Folded Reload
	je	.LBB1_2159
# BB#2158:                              # %if.then160.i
	movq	$1, %rax
	movq	24(%rsp), %rcx          # 8-byte Reload
	movl	%eax, (%rcx)
	movq	$364, %rdx              # imm = 0x16C
	movq	%rdx, %rax
	jmp	.LBB1_2108
.LBB1_2140:                             # %L11249.i
	cmpq	$123, %rax
	jne	.LBB1_2117
# BB#2141:                              # %L877.i
	movq	8(%r14), %rbx
	movzbl	2(%rbx), %eax
	cmpq	$16, %rax
	jne	.LBB1_2142
# BB#2149:                              # %L11253.i
	movq	$16, %rsi
	movq	%rbx, %rdi
	callq	nonimmediate_operand
	testq	%r13, %rax
	je	.LBB1_2117
# BB#2150:                              # %if.then125.i
	movzbl	target_flags(%rip), %eax
	movq	%rbx, recog_data+8(%rip)
	testq	$1, %rax
	je	.LBB1_2153
# BB#2151:                              # %land.lhs.true130.i
	movq	recog_data(%rip), %rax
	movzbl	(%rax), %eax
	cmpq	$66, %rax
	movq	$138, %rdx
	jne	.LBB1_4569
# BB#2152:                              # %lor.lhs.false135.i
	movzbl	(%rbx), %eax
	cmpq	$66, %rax
	jne	.LBB1_4569
.LBB1_2153:                             # %if.end141.i
	movq	16(%r12), %r14
	jmp	.LBB1_2117
.LBB1_370:                              # %if.end373
	movq	%r14, %r8
.LBB1_371:                              # %if.end380
	movq	8(%r8), %r15
	jmp	.LBB1_7
.LBB1_2352:                             # %L11291
	cmpq	$121, %rcx
	jne	.LBB1_335
# BB#2353:                              # %L2247
	movq	8(%rax), %r14
	movq	$5, %rsi
	movq	%r14, %rdi
	callq	nonimmediate_operand
	testq	%r13, %rax
	je	.LBB1_335
# BB#2354:                              # %if.then1545
	movq	%r14, recog_data+8(%rip)
	movq	16(%rbx), %rax
	movl	(%rax), %ecx
	andq	$16777215, %rcx         # imm = 0xFFFFFF
	cmpq	$393337, %rcx           # imm = 0x60079
	jne	.LBB1_335
# BB#2355:                              # %L2249
	movq	8(%rax), %rbx
	movq	$5, %rsi
	movq	%rbx, %rdi
	callq	nonimmediate_operand
	testq	%r13, %rax
	je	.LBB1_335
# BB#2356:                              # %if.then1572
	movzbl	target_flags+3(%rip), %eax
	movq	%rbx, recog_data+16(%rip)
	testq	$2, %rax
	je	.LBB1_335
# BB#2357:                              # %land.lhs.true1580
	movq	recog_data+8(%rip), %rax
	movzbl	(%rax), %eax
	cmpq	$66, %rax
	jne	.LBB1_2359
# BB#2358:                              # %lor.lhs.false1585
	movzbl	(%rbx), %eax
	cmpq	$66, %rax
	je	.LBB1_335
.LBB1_2359:                             # %land.lhs.true1590
	cmpq	$0, 24(%rsp)            # 8-byte Folded Reload
	je	.LBB1_335
# BB#2360:                              # %if.then1592
	movq	$1, %rax
	movq	24(%rsp), %rcx          # 8-byte Reload
	movl	%eax, (%rcx)
	movq	$256, %rdx              # imm = 0x100
	movq	%rdx, %rax
	jmp	.LBB1_2108
.LBB1_335:                              # %if.end108
	movq	%r15, %r8
	movq	8(%r8), %r15
	jmp	.LBB1_7
.LBB1_419:
	movq	%r12, %r8
	jmp	.LBB1_7
.LBB1_1201:                             # %L3927
	movq	8(%rax), %rbx
	movq	$15, %rsi
	movq	%rbx, %rdi
	callq	memory_operand
	testq	%r13, %rax
	je	.LBB1_1171
# BB#1202:                              # %if.then628
	movq	%rbx, recog_data+8(%rip)
	movabsq	$recog_data, %rdx
	movq	$77, %rdi
	movq	$15, %rsi
	callq	ix86_unary_operator_ok
	testq	%r13, %rax
	movq	24(%rsp), %rcx          # 8-byte Reload
	je	.LBB1_1171
# BB#1203:                              # %if.then628
	testq	%rcx, %rcx
	je	.LBB1_1171
# BB#1204:                              # %if.then638
	movq	$1, %rax
	movl	%eax, (%rcx)
	movq	$355, %rdx              # imm = 0x163
	movq	%rdx, %rax
	jmp	.LBB1_2108
.LBB1_1187:                             # %L11113
	cmpq	$129, %rcx
	jne	.LBB1_1171
# BB#1188:                              # %L4112
	movq	8(%rax), %rbx
	movq	$15, %rsi
	movq	%rbx, %rdi
	callq	memory_operand
	testq	%r13, %rax
	je	.LBB1_1171
# BB#1189:                              # %if.then648
	movq	%rbx, recog_data+8(%rip)
	movabsq	$recog_data, %rdx
	movq	$129, %rdi
	movq	$15, %rsi
	callq	ix86_unary_operator_ok
	testq	%r13, %rax
	movq	24(%rsp), %rcx          # 8-byte Reload
	je	.LBB1_1171
# BB#1190:                              # %if.then648
	testq	%rcx, %rcx
	je	.LBB1_1171
# BB#1191:                              # %if.then658
	movq	$1, %rax
	movl	%eax, (%rcx)
	movq	$374, %rdx              # imm = 0x176
	movq	%rdx, %rax
	jmp	.LBB1_2108
.LBB1_974:                              # %L11016.i
	cmpq	$132, %rax
	jne	.LBB1_975
# BB#997:                               # %L450.i
	movq	8(%rbx), %r14
	xorq	%rsi, %rsi
	movq	%r14, %rdi
	callq	ext_register_operand
	testq	%r13, %rax
	je	.LBB1_975
# BB#998:                               # %if.then171.i
	movq	%r14, recog_data+8(%rip)
	movq	16(%rbx), %rax
	movzbl	(%rax), %ecx
	cmpq	$54, %rcx
	jne	.LBB1_975
# BB#999:                               # %land.lhs.true183.i
	movq	8(%rax), %rax
	cmpq	$8, %rax
	jne	.LBB1_975
# BB#1000:                              # %L452.i
	movq	24(%rbx), %rax
	movzbl	(%rax), %ecx
	cmpq	$54, %rcx
	jne	.LBB1_975
# BB#1001:                              # %land.lhs.true199.i
	movq	8(%rax), %rax
	cmpq	$8, %rax
	jne	.LBB1_975
# BB#1002:                              # %land.lhs.true204.i
	movzbl	target_flags+3(%rip), %eax
	movq	$67, %rdx
	testq	$2, %rax
	jne	.LBB1_4569
.LBB1_975:                              # %if.end137.i
	movq	8(%r12), %r14
.LBB1_976:                              # %L10859.i
	movq	$2, %rsi
	movq	%r14, %rdi
	callq	nonimmediate_operand
	testq	%r13, %rax
	je	.LBB1_979
# BB#977:                               # %if.then16.i
	movq	%r14, recog_data(%rip)
	movq	16(%r12), %r14
	movl	(%r14), %eax
	movq	%rax, %rcx
	andq	$16711680, %rcx         # imm = 0xFF0000
	cmpq	$131072, %rcx           # imm = 0x20000
	jne	.LBB1_978
# BB#1005:                              # %L11018.i
	andq	$65535, %rax            # imm = 0xFFFF
	addq	$-63, %rax
	andq	%r13, %rax
	cmpq	$56, %rax
	ja	.LBB1_978
# BB#1006:                              # %L11018.i
	jmpq	*.LJTI1_1(,%rax,8)
.LBB1_1007:                             # %L11031.i
	movq	$2, %rsi
	movq	%r14, %rdi
	callq	ix86_comparison_operator
	testq	%r13, %rax
	je	.LBB1_978
# BB#1008:                              # %if.then264.i
	movq	%r14, recog_data+8(%rip)
	movq	8(%r14), %rax
	movzbl	(%rax), %ecx
	cmpq	$61, %rcx
	jne	.LBB1_978
# BB#1009:                              # %land.lhs.true805.i
	movl	8(%rax), %eax
	cmpq	$17, %rax
	jne	.LBB1_978
# BB#1010:                              # %L5563.i
	movq	16(%r14), %rax
	movzbl	(%rax), %ecx
	cmpq	$54, %rcx
	jne	.LBB1_978
# BB#1011:                              # %land.lhs.true821.i
	cmpq	$0, 8(%rax)
	movq	$486, %rdx              # imm = 0x1E6
	jne	.LBB1_978
	jmp	.LBB1_4569
.LBB1_1509:                             # %land.lhs.true1085
	movl	optimize_size(%rip), %eax
	testq	%rax, %rax
	jne	.LBB1_1491
.LBB1_1510:                             # %land.lhs.true1087
	movl	ix86_cpu(%rip), %ecx
	movl	x86_integer_DFmode_moves(%rip), %eax
	movq	$1, %rdx
	shlq	%cl, %rdx
	andq	%rax, %rdx
	testq	%r13, %rdx
	je	.LBB1_1491
# BB#1511:                              # %land.lhs.true1091
	movl	reload_in_progress(%rip), %eax
	movl	reload_completed(%rip), %ecx
	orq	%rax, %rcx
	testq	%r13, %rcx
	movq	$95, %rdx
	jne	.LBB1_4569
# BB#1512:                              # %land.lhs.true1091
	movl	ix86_cmodel(%rip), %eax
	addq	$-3, %rax
	andq	%r13, %rax
	cmpq	$2, %rax
	jb	.LBB1_4569
# BB#1513:                              # %lor.lhs.false1099
	movq	recog_data+8(%rip), %rax
	movzbl	(%rax), %eax
	cmpq	$55, %rax
	jne	.LBB1_4569
# BB#1514:                              # %lor.lhs.false1104
	movq	$16, %rsi
	callq	memory_operand
	movq	$95, %rdx
	testq	%r13, %rax
	jne	.LBB1_4569
.LBB1_1491:                             # %if.end1007
	movq	8(%r14), %r15
.LBB1_1492:                             # %L10875
	movq	$16, %rsi
	movq	%r15, %rdi
	callq	register_operand
	testq	%r13, %rax
	je	.LBB1_1495
# BB#1493:                              # %if.then919
	movq	%r15, recog_data(%rip)
	movq	16(%r14), %rax
	movl	(%rax), %ecx
	movq	%rcx, %rdx
	andq	$16711680, %rdx         # imm = 0xFF0000
	cmpq	$1048576, %rdx          # imm = 0x100000
	jne	.LBB1_1494
# BB#1515:                              # %L11153
	andq	$65535, %rcx            # imm = 0xFFFF
	cmpq	$123, %rcx
	jne	.LBB1_1516
# BB#1526:                              # %L867
	movq	8(%rax), %rbx
	movq	$15, %rsi
	movq	%rbx, %rdi
	callq	nonimmediate_operand
	testq	%r13, %rax
	je	.LBB1_1494
# BB#1527:                              # %if.then1139
	movl	target_flags(%rip), %eax
	movq	%rbx, recog_data+8(%rip)
	andq	$262145, %rax           # imm = 0x40001
	cmpq	$262144, %rax           # imm = 0x40000
	jne	.LBB1_1494
# BB#1528:                              # %land.lhs.true1150
	movq	recog_data(%rip), %rax
	movzbl	(%rax), %eax
	cmpq	$66, %rax
	movq	$134, %rdx
	jne	.LBB1_4569
# BB#1529:                              # %lor.lhs.false1155
	movzbl	(%rbx), %eax
	cmpq	$66, %rax
	jne	.LBB1_4569
	jmp	.LBB1_1494
.LBB1_1516:                             # %L11153
	cmpq	$125, %rcx
	jne	.LBB1_1494
# BB#1517:                              # %L1141
	movq	8(%rax), %rbx
	movzbl	2(%rbx), %eax
	cmpq	$3, %rax
	je	.LBB1_1530
# BB#1518:                              # %L1141
	cmpq	$4, %rax
	jne	.LBB1_1519
# BB#1532:                              # %L11156
	movq	$4, %rsi
	movq	%rbx, %rdi
	callq	nonimmediate_operand
	testq	%r13, %rax
	je	.LBB1_1494
# BB#1533:                              # %if.then1199
	movl	target_flags(%rip), %ecx
	movq	%rbx, recog_data+8(%rip)
	movq	%rcx, %rax
	andq	$262144, %rax           # imm = 0x40000
	testq	$1, %rcx
	je	.LBB1_1537
# BB#1534:                              # %land.lhs.true1207
	testq	%r13, %rax
	je	.LBB1_1535
# BB#1536:                              # %lor.lhs.false1210
	movl	ix86_fpmath(%rip), %ecx
	andq	$3, %rcx
	cmpq	$3, %rcx
	movq	$174, %rdx
	je	.LBB1_4569
.LBB1_1537:                             # %L1152
	movq	$175, %rdx
	testq	%r13, %rax
	jne	.LBB1_4569
	jmp	.LBB1_1494
.LBB1_1937:                             # %if.end199.i11981
	movq	16(%r12), %r14
	jmp	.LBB1_1878
.LBB1_1931:                             # %if.end176.i
	movq	16(%r12), %r14
	jmp	.LBB1_1878
.LBB1_2165:                             # %if.end181.i
	movq	16(%r12), %r14
	jmp	.LBB1_2117
.LBB1_2159:                             # %if.end161.i12076
	movq	16(%r12), %r14
	jmp	.LBB1_2117
.LBB1_91:                               # %L140.i
	cmpq	$58, %rdx
	jne	.LBB1_92
# BB#120:                               # %L10932.i
	andq	$65535, %rax            # imm = 0xFFFF
	cmpq	$74, %rax
	jne	.LBB1_92
# BB#121:                               # %L206.i
	movq	%rsi, %r12
	movq	8(%rbx), %r14
	xorq	%rsi, %rsi
	movq	%r14, %rdi
	callq	register_operand
	testq	%r13, %rax
	je	.LBB1_122
# BB#123:                               # %if.then369.i
	movq	%r14, recog_data+8(%rip)
	movq	16(%rbx), %r14
	xorq	%rsi, %rsi
	movq	%r14, %rdi
	callq	register_operand
	testq	%r13, %rax
	movq	%r12, %rsi
	je	.LBB1_92
# BB#124:                               # %if.then377.i
	movzbl	target_flags(%rip), %eax
	movq	%r14, recog_data+16(%rip)
	testq	$1, %rax
	je	.LBB1_119
# BB#125:                               # %land.lhs.true382.i
	movq	recog_data+8(%rip), %rax
	movl	(%rax), %eax
	movq	$14, %rcx
	movq	%rax, %rdx
	shrq	%cl, %rdx
	andq	$1020, %rdx             # imm = 0x3FC
	movl	mode_class(%rdx), %ecx
	cmpq	$8, %rcx
	ja	.LBB1_119
# BB#126:                               # %land.lhs.true382.i
	movq	$1, %rdx
	shlq	%cl, %rdx
	testq	$324, %rdx              # imm = 0x144
	je	.LBB1_119
# BB#127:                               # %land.lhs.true406.i
	movl	(%r14), %ecx
	xorq	%rax, %rcx
	testq	$16711680, %rcx         # imm = 0xFF0000
	movq	$28, %rdx
	jne	.LBB1_119
	jmp	.LBB1_4569
.LBB1_1914:                             # %L872.i
	cmpq	$15, %rax
	jne	.LBB1_1878
# BB#1915:                              # %L11208.i
	movq	$15, %rsi
	movq	%rbx, %rdi
	callq	nonimmediate_operand
	testq	%r13, %rax
	je	.LBB1_1878
# BB#1916:                              # %if.then110.i
	movl	target_flags(%rip), %eax
	movq	%rbx, recog_data+8(%rip)
	andq	$33554433, %rax         # imm = 0x2000001
	cmpq	$1, %rax
	jne	.LBB1_1920
# BB#1917:                              # %land.lhs.true118.i
	movq	%r12, %rcx
	movq	recog_data(%rip), %rax
	movzbl	(%rax), %eax
	cmpq	$66, %rax
	jne	.LBB1_1918
# BB#1919:                              # %lor.lhs.false.i11976
	movzbl	(%rbx), %eax
	cmpq	$66, %rax
	movq	%rcx, %r12
	movq	$135, %rdx
	jne	.LBB1_4569
.LBB1_1920:                             # %if.end128.i
	movq	16(%r12), %r14
.LBB1_1878:                             # %L650.i
	movq	$17, %rsi
	movq	%r14, %rdi
	callq	general_operand
	testq	%r13, %rax
	je	.LBB1_1893
# BB#1879:                              # %if.then85.i
	movl	target_flags(%rip), %eax
	movl	optimize_size(%rip), %ecx
	movq	%r14, recog_data+8(%rip)
	testq	$33554432, %rax         # imm = 0x2000000
	jne	.LBB1_1887
# BB#1880:                              # %if.then85.i
	testq	%r13, %rcx
	je	.LBB1_1887
# BB#1881:                              # %land.lhs.true207.i
	movq	recog_data(%rip), %rdi
	movzbl	(%rdi), %edx
	cmpq	$66, %rdx
	jne	.LBB1_1883
# BB#1882:                              # %lor.lhs.false212.i
	movzbl	(%r14), %edx
	cmpq	$66, %rdx
	je	.LBB1_1887
.LBB1_1883:                             # %land.lhs.true217.i
	movl	reload_in_progress(%rip), %eax
	movl	reload_completed(%rip), %ecx
	orq	%rax, %rcx
	testq	%r13, %rcx
	movq	$101, %rdx
	jne	.LBB1_4569
# BB#1884:                              # %lor.lhs.false221.i
	movzbl	(%r14), %eax
	cmpq	$55, %rax
	jne	.LBB1_4569
# BB#1885:                              # %lor.lhs.false226.i
	movq	$17, %rsi
	callq	memory_operand
	movq	$101, %rdx
	testq	%r13, %rax
	jne	.LBB1_4569
# BB#1886:                              # %lor.lhs.false226.L659_crit_edge.i
	movl	target_flags(%rip), %eax
	movl	optimize_size(%rip), %ecx
.LBB1_1887:                             # %L659.i
	andq	$33554432, %rax         # imm = 0x2000000
	orq	%rcx, %rax
	testq	%r13, %rax
	jne	.LBB1_1893
# BB#1888:                              # %land.lhs.true236.i
	movq	recog_data(%rip), %rdi
	movzbl	(%rdi), %eax
	cmpq	$66, %rax
	jne	.LBB1_1890
# BB#1889:                              # %lor.lhs.false241.i
	movq	recog_data+8(%rip), %rax
	movzbl	(%rax), %eax
	cmpq	$66, %rax
	je	.LBB1_1893
.LBB1_1890:                             # %land.lhs.true246.i
	movl	reload_in_progress(%rip), %eax
	movl	reload_completed(%rip), %ecx
	orq	%rax, %rcx
	testq	%r13, %rcx
	movq	$103, %rdx
	jne	.LBB1_4569
# BB#1891:                              # %lor.lhs.false250.i
	movq	recog_data+8(%rip), %rax
	movzbl	(%rax), %eax
	cmpq	$55, %rax
	jne	.LBB1_4569
# BB#1892:                              # %lor.lhs.false255.i
	movq	$17, %rsi
	callq	memory_operand
	movq	$103, %rdx
	testq	%r13, %rax
	jne	.LBB1_4569
.LBB1_1893:                             # %if.end87.i
	movq	8(%r12), %rbx
.LBB1_1894:                             # %L10881.i
	movq	$17, %rsi
	movq	%rbx, %rdi
	callq	register_operand
	testq	%r13, %rax
	je	.LBB1_1895
# BB#1896:                              # %if.then9.i
	movq	%rbx, recog_data(%rip)
	movq	%r12, %r8
	movq	16(%r8), %r14
	movl	(%r14), %ecx
	movq	%rcx, %rax
	andq	$16711680, %rax         # imm = 0xFF0000
	cmpq	$1114112, %rax          # imm = 0x110000
	jne	.LBB1_7
# BB#1897:                              # %L11210.i
	andq	$65535, %rcx            # imm = 0xFFFF
	cmpq	$71, %rcx
	jg	.LBB1_1938
# BB#1898:                              # %L11210.i
	cmpq	$42, %rcx
	jne	.LBB1_7
# BB#1899:                              # %L11218.i
	movq	8(%r14), %rax
	movl	(%rax), %ecx
	cmpq	$1, %rcx
	jne	.LBB1_7
# BB#1900:                              # %L11235.i
	movl	16(%r14), %ecx
	cmpq	$2, %rcx
	jne	.LBB1_1901
# BB#2026:                              # %L6369.i
	movq	%r8, %r14
	movq	8(%rax), %rbx
	movq	$17, %rsi
	movq	%rbx, %rdi
	callq	register_operand
	testq	%r13, %rax
	je	.LBB1_2027
# BB#2028:                              # %if.then572.i12007
	movl	target_flags(%rip), %eax
	movq	%rbx, recog_data+8(%rip)
	testq	$64, %rax
	je	.LBB1_2030
# BB#2029:
	movq	%r14, %r8
	jmp	.LBB1_7
.LBB1_1895:
	movq	%r12, %r8
	jmp	.LBB1_7
.LBB1_1938:                             # %L11210.i
	cmpq	$124, %rcx
	jg	.LBB1_1944
# BB#1939:                              # %L11210.i
	addq	$-72, %rcx
	andq	%r13, %rcx
	cmpq	$7, %rcx
	ja	.LBB1_7
# BB#1940:                              # %L11210.i
	movq	$1, %rax
	shlq	%cl, %rax
	testq	$216, %rax
	je	.LBB1_1941
# BB#1951:                              # %L11213.i
	movq	%r8, %r12
	movq	$17, %rsi
	movq	%r14, %rdi
	callq	binary_fp_operator
	testq	%r13, %rax
	je	.LBB1_1952
# BB#1953:                              # %if.then285.i
	movq	%r14, recog_data+24(%rip)
	movq	8(%r14), %rbx
	movl	(%rbx), %eax
	movq	%rax, %rcx
	andq	$16711680, %rcx         # imm = 0xFF0000
	cmpq	$1114112, %rcx          # imm = 0x110000
	jne	.LBB1_1954
# BB#2050:                              # %L11238.i
	andq	$65535, %rax            # imm = 0xFFFF
	cmpq	$122, %rax
	jg	.LBB1_2054
# BB#2051:                              # %L11238.i
	cmpq	$61, %rax
	je	.LBB1_2057
# BB#2052:                              # %L11238.i
	cmpq	$63, %rax
	jne	.LBB1_2053
.LBB1_2057:                             # %L11237.i
	movq	$17, %rsi
	movq	%rbx, %rdi
	callq	register_operand
	testq	%r13, %rax
	je	.LBB1_2058
# BB#2059:                              # %if.then660.i
	movq	%rbx, recog_data+8(%rip)
	movq	16(%r14), %rbx
	movl	(%rbx), %eax
	movq	%rax, %rcx
	andq	$16711680, %rcx         # imm = 0xFF0000
	cmpq	$1114112, %rcx          # imm = 0x110000
	jne	.LBB1_2060
# BB#2082:                              # %L11243.i
	andq	$65535, %rax            # imm = 0xFFFF
	cmpq	$122, %rax
	jg	.LBB1_2086
# BB#2083:                              # %L11243.i
	cmpq	$61, %rax
	je	.LBB1_2089
# BB#2084:                              # %L11243.i
	cmpq	$63, %rax
	jne	.LBB1_2085
.LBB1_2089:                             # %L11242.i
	movq	$17, %rsi
	movq	%rbx, %rdi
	callq	register_operand
	testq	%r13, %rax
	je	.LBB1_2090
# BB#2105:                              # %if.then757.i
	movl	target_flags(%rip), %eax
	movq	%rbx, recog_data+16(%rip)
	andq	$33554433, %rax         # imm = 0x2000001
	cmpq	$1, %rax
	movq	%r12, %r8
	jne	.LBB1_7
# BB#2106:                              # %land.lhs.true818.i
	movq	recog_data+24(%rip), %rax
	movzbl	(%rax), %eax
	movzbl	rtx_class(%rax), %eax
	cmpq	$99, %rax
	movq	$531, %rax              # imm = 0x213
	je	.LBB1_2108
# BB#2107:                              # %select.mid
	movq	$545, %rax              # imm = 0x221
	jmp	.LBB1_2108
.LBB1_1944:                             # %L11210.i
	cmpq	$125, %rcx
	je	.LBB1_1955
# BB#1945:                              # %L11210.i
	cmpq	$129, %rcx
	jne	.LBB1_1946
# BB#1989:                              # %L4256.i
	movq	8(%r14), %rbx
	movl	(%rbx), %eax
	movq	%rax, %rcx
	andq	$16711680, %rcx         # imm = 0xFF0000
	cmpq	$1114112, %rcx          # imm = 0x110000
	jne	.LBB1_7
# BB#1990:                              # %L11228.i
	andq	$65535, %rax            # imm = 0xFFFF
	movq	%r8, %r14
	cmpq	$123, %rax
	jne	.LBB1_1991
# BB#1995:                              # %L4262.i
	movq	8(%rbx), %rbx
	movzbl	2(%rbx), %eax
	cmpq	$15, %rax
	jne	.LBB1_1996
# BB#2001:                              # %L11230.i
	movq	$15, %rsi
	movq	%rbx, %rdi
	callq	register_operand
	testq	%r13, %rax
	je	.LBB1_2002
# BB#2003:                              # %if.then440.i
	movl	target_flags(%rip), %eax
	movq	%rbx, recog_data+8(%rip)
	andq	$33554433, %rax         # imm = 0x2000001
	cmpq	$1, %rax
	movq	$389, %rdx              # imm = 0x185
	jmp	.LBB1_1961
.LBB1_2142:                             # %L877.i
	cmpq	$15, %rax
	jne	.LBB1_2117
# BB#2143:                              # %L11252.i
	movq	$15, %rsi
	movq	%rbx, %rdi
	callq	nonimmediate_operand
	testq	%r13, %rax
	je	.LBB1_2117
# BB#2144:                              # %if.then105.i
	movzbl	target_flags(%rip), %eax
	movq	%rbx, recog_data+8(%rip)
	testq	$1, %rax
	je	.LBB1_2148
# BB#2145:                              # %land.lhs.true109.i
	movq	%r12, %rcx
	movq	recog_data(%rip), %rax
	movzbl	(%rax), %eax
	cmpq	$66, %rax
	jne	.LBB1_2146
# BB#2147:                              # %lor.lhs.false.i12070
	movzbl	(%rbx), %eax
	cmpq	$66, %rax
	movq	%rcx, %r12
	movq	$136, %rdx
	jne	.LBB1_4569
.LBB1_2148:                             # %if.end119.i
	movq	16(%r12), %r14
.LBB1_2117:                             # %L654.i
	movq	$18, %rsi
	movq	%r14, %rdi
	callq	general_operand
	testq	%r13, %rax
	je	.LBB1_2121
# BB#2118:                              # %if.then80.i
	movq	%r14, recog_data+8(%rip)
	movq	recog_data(%rip), %rdi
	movl	(%rdi), %eax
	movq	%rax, %rcx
	andq	$65535, %rcx            # imm = 0xFFFF
	cmpq	$66, %rcx
	jne	.LBB1_2166
# BB#2119:                              # %lor.lhs.false189.i
	movzbl	(%r14), %ecx
	cmpq	$66, %rcx
	je	.LBB1_2172
# BB#2120:                              # %lor.lhs.false189.i
	movl	optimize_size(%rip), %ecx
	testq	%r13, %rcx
	jne	.LBB1_2167
	jmp	.LBB1_2172
.LBB1_2166:                             # %land.lhs.true194.i
	movl	optimize_size(%rip), %ecx
	testq	%rcx, %rcx
	je	.LBB1_2172
.LBB1_2167:                             # %land.lhs.true196.i
	movl	reload_in_progress(%rip), %eax
	movl	reload_completed(%rip), %ecx
	orq	%rax, %rcx
	testq	%r13, %rcx
	movq	$102, %rdx
	jne	.LBB1_4569
# BB#2168:                              # %lor.lhs.false200.i
	movq	%r13, %rcx
	movzbl	(%r14), %eax
	cmpq	$55, %rax
	jne	.LBB1_4569
# BB#2169:                              # %lor.lhs.false200.i
	movl	ix86_cmodel(%rip), %eax
	addq	$-3, %rax
	movq	%rcx, %rbx
	andq	%rbx, %rax
	cmpq	$2, %rax
	jb	.LBB1_4569
# BB#2170:                              # %lor.lhs.false209.i
	movq	$18, %rsi
	callq	memory_operand
	movq	$102, %rdx
	testq	%rbx, %rax
	movq	%rbx, %r13
	jne	.LBB1_4569
# BB#2171:                              # %lor.lhs.false209.L663_crit_edge.i
	movq	recog_data(%rip), %rdi
	movl	(%rdi), %eax
.LBB1_2172:                             # %L663.i
	andq	$65535, %rax            # imm = 0xFFFF
	cmpq	$66, %rax
	jne	.LBB1_2175
# BB#2173:                              # %lor.lhs.false219.i
	movq	recog_data+8(%rip), %rax
	movzbl	(%rax), %eax
	cmpq	$66, %rax
	je	.LBB1_2121
# BB#2174:                              # %lor.lhs.false219.i
	movl	optimize_size(%rip), %eax
	testq	%r13, %rax
	je	.LBB1_2176
	jmp	.LBB1_2121
.LBB1_2175:                             # %land.lhs.true224.i
	movl	optimize_size(%rip), %eax
	testq	%rax, %rax
	jne	.LBB1_2121
.LBB1_2176:                             # %land.lhs.true226.i
	movl	reload_in_progress(%rip), %eax
	movl	reload_completed(%rip), %ecx
	orq	%rax, %rcx
	testq	%r13, %rcx
	movq	$104, %rdx
	jne	.LBB1_4569
# BB#2177:                              # %lor.lhs.false230.i
	movq	%r13, %rcx
	movq	recog_data+8(%rip), %rax
	movzbl	(%rax), %eax
	cmpq	$55, %rax
	jne	.LBB1_4569
# BB#2178:                              # %lor.lhs.false230.i
	movl	ix86_cmodel(%rip), %eax
	addq	$-3, %rax
	movq	%rcx, %rbx
	andq	%rbx, %rax
	cmpq	$2, %rax
	jb	.LBB1_4569
# BB#2179:                              # %lor.lhs.false239.i
	movq	$18, %rsi
	callq	memory_operand
	movq	$104, %rdx
	testq	%rbx, %rax
	movq	%rbx, %r13
	jne	.LBB1_4569
.LBB1_2121:                             # %if.end82.i
	movq	8(%r12), %rbx
.LBB1_2122:                             # %L10882.i
	movq	$18, %rsi
	movq	%rbx, %rdi
	callq	register_operand
	testq	%r13, %rax
	je	.LBB1_2123
# BB#2124:                              # %if.then9.i12048
	movq	%rbx, recog_data(%rip)
	movq	%r12, %r8
	movq	16(%r8), %r14
	movl	(%r14), %ecx
	movq	%rcx, %rax
	andq	$16711680, %rax         # imm = 0xFF0000
	cmpq	$1179648, %rax          # imm = 0x120000
	jne	.LBB1_7
# BB#2125:                              # %L11254.i
	andq	$65535, %rcx            # imm = 0xFFFF
	cmpq	$71, %rcx
	jg	.LBB1_2180
# BB#2126:                              # %L11254.i
	cmpq	$42, %rcx
	jne	.LBB1_7
# BB#2127:                              # %L11262.i
	movq	8(%r14), %rax
	movl	(%rax), %ecx
	cmpq	$1, %rcx
	jne	.LBB1_7
# BB#2128:                              # %L11279.i
	movl	16(%r14), %ecx
	cmpq	$2, %rcx
	jne	.LBB1_2129
# BB#2263:                              # %L6374.i
	movq	%r8, %r14
	movq	8(%rax), %rbx
	movq	$18, %rsi
	movq	%rbx, %rdi
	callq	register_operand
	testq	%r13, %rax
	je	.LBB1_2264
# BB#2265:                              # %if.then517.i
	movl	target_flags(%rip), %eax
	movq	%rbx, recog_data+8(%rip)
	testq	$64, %rax
	je	.LBB1_2267
# BB#2266:
	movq	%r14, %r8
	jmp	.LBB1_7
.LBB1_2123:
	movq	%r12, %r8
	jmp	.LBB1_7
.LBB1_2180:                             # %L11254.i
	cmpq	$124, %rcx
	jg	.LBB1_2186
# BB#2181:                              # %L11254.i
	addq	$-72, %rcx
	andq	%r13, %rcx
	cmpq	$7, %rcx
	ja	.LBB1_7
# BB#2182:                              # %L11254.i
	movq	$1, %rax
	shlq	%cl, %rax
	movq	%r8, %r12
	testq	$216, %rax
	je	.LBB1_2183
# BB#2193:                              # %L11257.i
	movq	$18, %rsi
	movq	%r14, %rdi
	callq	binary_fp_operator
	testq	%r13, %rax
	je	.LBB1_2194
# BB#2195:                              # %if.then269.i
	movq	%r14, recog_data+24(%rip)
	movq	8(%r14), %rbx
	movl	(%rbx), %eax
	movq	%rax, %rcx
	andq	$16711680, %rcx         # imm = 0xFF0000
	cmpq	$1179648, %rcx          # imm = 0x120000
	jne	.LBB1_2196
# BB#2287:                              # %L11282.i
	andq	$65535, %rax            # imm = 0xFFFF
	cmpq	$122, %rax
	jg	.LBB1_2291
# BB#2288:                              # %L11282.i
	cmpq	$61, %rax
	je	.LBB1_2294
# BB#2289:                              # %L11282.i
	cmpq	$63, %rax
	jne	.LBB1_2290
.LBB1_2294:                             # %L11281.i
	movq	$18, %rsi
	movq	%rbx, %rdi
	callq	register_operand
	testq	%r13, %rax
	je	.LBB1_2295
# BB#2296:                              # %if.then602.i
	movq	%rbx, recog_data+8(%rip)
	movq	16(%r14), %rbx
	movl	(%rbx), %eax
	movq	%rax, %rcx
	andq	$16711680, %rcx         # imm = 0xFF0000
	cmpq	$1179648, %rcx          # imm = 0x120000
	jne	.LBB1_2297
# BB#2318:                              # %L11287.i
	andq	$65535, %rax            # imm = 0xFFFF
	cmpq	$122, %rax
	jg	.LBB1_2322
# BB#2319:                              # %L11287.i
	cmpq	$61, %rax
	je	.LBB1_2325
# BB#2320:                              # %L11287.i
	cmpq	$63, %rax
	jne	.LBB1_2321
.LBB1_2325:                             # %L11286.i
	movq	$18, %rsi
	movq	%rbx, %rdi
	callq	register_operand
	testq	%r13, %rax
	je	.LBB1_2326
# BB#2341:                              # %if.then690.i12141
	movzbl	target_flags(%rip), %eax
	movq	%rbx, recog_data+16(%rip)
	testq	$1, %rax
	movq	%r12, %r8
	je	.LBB1_7
# BB#2342:                              # %land.lhs.true739.i
	movq	recog_data+24(%rip), %rax
	movzbl	(%rax), %eax
	movzbl	rtx_class(%rax), %eax
	cmpq	$99, %rax
	movq	$532, %rax              # imm = 0x214
	je	.LBB1_2344
# BB#2343:                              # %select.mid1089
	movq	$546, %rax              # imm = 0x222
.LBB1_2344:                             # %select.end1088
	movq	%rax, %rdx
                                        # kill: RAX<def> RDX<kill>
	jmp	.LBB1_2108
.LBB1_2186:                             # %L11254.i
	cmpq	$125, %rcx
	je	.LBB1_2197
# BB#2187:                              # %L11254.i
	cmpq	$129, %rcx
	jne	.LBB1_2188
# BB#2230:                              # %L4273.i
	movq	8(%r14), %rbx
	movl	(%rbx), %eax
	movq	%rax, %rcx
	andq	$16711680, %rcx         # imm = 0xFF0000
	cmpq	$1179648, %rcx          # imm = 0x120000
	jne	.LBB1_7
# BB#2231:                              # %L11272.i
	movq	%r8, %r14
	andq	$65535, %rax            # imm = 0xFFFF
	cmpq	$123, %rax
	jne	.LBB1_2232
# BB#2237:                              # %L4279.i
	movq	8(%rbx), %rbx
	movzbl	2(%rbx), %eax
	cmpq	$15, %rax
	jne	.LBB1_2238
# BB#2243:                              # %L11274.i
	movq	$15, %rsi
	movq	%rbx, %rdi
	callq	register_operand
	testq	%r13, %rax
	je	.LBB1_2244
# BB#2245:                              # %if.then403.i
	movzbl	target_flags(%rip), %eax
	movq	%rbx, recog_data+8(%rip)
	movq	$392, %rdx              # imm = 0x188
	testq	$1, %rax
	jmp	.LBB1_2008
.LBB1_1197:                             # %L11116
	movq	$16, %rsi
	movq	%rbx, %rdi
	callq	register_operand
	testq	%r13, %rax
	je	.LBB1_1171
# BB#1198:                              # %if.then577
	movzbl	target_flags(%rip), %eax
	movq	%rbx, recog_data+8(%rip)
	movq	$142, %rdx
	testq	$1, %rax
	jne	.LBB1_4569
	jmp	.LBB1_1171
.LBB1_1194:                             # %L913
	cmpq	$18, %rax
	jne	.LBB1_1171
# BB#1195:                              # %L11118
	movq	$18, %rsi
	movq	%rbx, %rdi
	callq	register_operand
	testq	%r13, %rax
	je	.LBB1_1171
# BB#1196:                              # %if.then610
	movzbl	target_flags(%rip), %eax
	movq	%rbx, recog_data+8(%rip)
	movq	$147, %rdx
	testq	$1, %rax
	jne	.LBB1_4569
.LBB1_1171:                             # %if.end547
	movq	8(%r14), %r15
.LBB1_1172:                             # %L10877
	movq	$15, %rsi
	movq	%r15, %rdi
	callq	register_operand
	testq	%r13, %rax
	je	.LBB1_1175
# BB#1173:                              # %if.then413
	movq	%r15, recog_data(%rip)
	movq	16(%r14), %rax
	movl	(%rax), %ecx
	movq	%rcx, %rdx
	andq	$16711680, %rdx         # imm = 0xFF0000
	cmpq	$983040, %rdx           # imm = 0xF0000
	jne	.LBB1_1174
# BB#1205:                              # %L11119
	andq	$65535, %rcx            # imm = 0xFFFF
	cmpq	$124, %rcx
	jne	.LBB1_1206
# BB#1214:                              # %L918
	movq	8(%rax), %rbx
	movq	$16, %rsi
	movq	%rbx, %rdi
	callq	nonimmediate_operand
	testq	%r13, %rax
	je	.LBB1_1174
# BB#1215:                              # %if.then689
	movl	target_flags(%rip), %eax
	movq	%rbx, recog_data+8(%rip)
	andq	$262145, %rax           # imm = 0x40001
	cmpq	$262144, %rax           # imm = 0x40000
	movq	$143, %rdx
	je	.LBB1_4569
	jmp	.LBB1_1174
.LBB1_1206:                             # %L11119
	cmpq	$125, %rcx
	jne	.LBB1_1174
# BB#1207:                              # %L1111
	movq	8(%rax), %rbx
	movzbl	2(%rbx), %eax
	cmpq	$3, %rax
	je	.LBB1_1216
# BB#1208:                              # %L1111
	cmpq	$4, %rax
	jne	.LBB1_1209
# BB#1218:                              # %L11122
	movq	$4, %rsi
	movq	%rbx, %rdi
	callq	nonimmediate_operand
	testq	%r13, %rax
	je	.LBB1_1174
# BB#1219:                              # %if.then739
	movl	target_flags(%rip), %ecx
	movq	%rbx, recog_data+8(%rip)
	movq	%rcx, %rax
	andq	$327680, %rax           # imm = 0x50000
	testq	$1, %rcx
	je	.LBB1_1223
# BB#1220:                              # %land.lhs.true747
	testq	%r13, %rax
	je	.LBB1_1221
# BB#1222:                              # %lor.lhs.false750
	movl	ix86_fpmath(%rip), %ecx
	andq	$3, %rcx
	cmpq	$3, %rcx
	movq	$168, %rdx
	je	.LBB1_4569
.LBB1_1223:                             # %L1122
	movq	$169, %rdx
	testq	%r13, %rax
	jne	.LBB1_4569
	jmp	.LBB1_1174
.LBB1_1530:                             # %L11155
	movq	$3, %rsi
	movq	%rbx, %rdi
	callq	nonimmediate_operand
	testq	%r13, %rax
	je	.LBB1_1494
# BB#1531:                              # %if.then1181
	movl	target_flags(%rip), %eax
	movq	%rbx, recog_data+8(%rip)
	andq	$262145, %rax           # imm = 0x40001
	cmpq	$1, %rax
	movq	$173, %rdx
	je	.LBB1_4569
	jmp	.LBB1_1494
.LBB1_1519:                             # %L1141
	cmpq	$5, %rax
	jne	.LBB1_1494
# BB#1520:                              # %L11157
	movq	$5, %rsi
	movq	%rbx, %rdi
	callq	nonimmediate_operand
	testq	%r13, %rax
	je	.LBB1_1494
# BB#1521:                              # %if.then1227
	movl	target_flags(%rip), %eax
	movq	%rbx, recog_data+8(%rip)
	testq	$1, %rax
	je	.LBB1_1523
# BB#1522:                              # %if.then1227
	movq	%rax, %rcx
	andq	$33816576, %rcx         # imm = 0x2040000
	movq	$176, %rdx
	andq	%r13, %rcx
	cmpq	$33816576, %rcx         # imm = 0x2040000
	jne	.LBB1_4569
.LBB1_1523:                             # %L1162
	movq	%rax, %rcx
	andq	$33554433, %rcx         # imm = 0x2000001
	andq	$262144, %rax           # imm = 0x40000
	cmpq	$33554433, %rcx         # imm = 0x2000001
	jne	.LBB1_1539
# BB#1524:                              # %land.lhs.true1248
	movq	%r14, %rdx
	testq	%r13, %rax
	je	.LBB1_1525
# BB#1538:                              # %lor.lhs.false1251
	movl	ix86_fpmath(%rip), %ecx
	andq	$3, %rcx
	cmpq	$3, %rcx
	movq	%rdx, %r14
	movq	$177, %rdx
	je	.LBB1_4569
.LBB1_1539:                             # %L1167
	movq	$178, %rdx
	testq	%r13, %rax
	jne	.LBB1_4569
.LBB1_1494:                             # %if.end1121
	movq	8(%r14), %r15
.LBB1_1495:                             # %L10878
	movq	$16, %rsi
	movq	%r15, %rdi
	callq	memory_operand
	testq	%r13, %rax
	je	.LBB1_1498
# BB#1496:                              # %if.then924
	movq	%r15, recog_data(%rip)
	movq	16(%r14), %rax
	movl	(%rax), %ecx
	movq	%rcx, %rdx
	andq	$16711680, %rdx         # imm = 0xFF0000
	cmpq	$1048576, %rdx          # imm = 0x100000
	jne	.LBB1_1497
# BB#1540:                              # %L11158
	andq	$65535, %rcx            # imm = 0xFFFF
	cmpq	$77, %rcx
	je	.LBB1_1553
# BB#1541:                              # %L11158
	cmpq	$124, %rcx
	jne	.LBB1_1542
# BB#1547:                              # %L957
	movq	8(%rax), %rbx
	movzbl	2(%rbx), %eax
	cmpq	$17, %rax
	jne	.LBB1_1548
# BB#1551:                              # %L11161
	movq	$17, %rsi
	movq	%rbx, %rdi
	callq	register_operand
	testq	%r13, %rax
	je	.LBB1_1497
# BB#1552:                              # %if.then1303
	movl	target_flags(%rip), %eax
	movq	%rbx, recog_data+8(%rip)
	andq	$33554433, %rax         # imm = 0x2000001
	cmpq	$1, %rax
	movq	$149, %rdx
	je	.LBB1_4569
	jmp	.LBB1_1497
.LBB1_1553:                             # %L3968
	movq	8(%rax), %rbx
	movq	$16, %rsi
	movq	%rbx, %rdi
	callq	memory_operand
	testq	%r13, %rax
	je	.LBB1_1497
# BB#1554:                              # %if.then1339
	movq	%rbx, recog_data+8(%rip)
	movabsq	$recog_data, %rdx
	movq	$77, %rdi
	movq	$16, %rsi
	callq	ix86_unary_operator_ok
	testq	%r13, %rax
	movq	24(%rsp), %rcx          # 8-byte Reload
	je	.LBB1_1497
# BB#1555:                              # %if.then1339
	testq	%rcx, %rcx
	je	.LBB1_1497
# BB#1556:                              # %if.then1349
	movq	$1, %rax
	movl	%eax, (%rcx)
	movq	$358, %rdx              # imm = 0x166
	movq	%rdx, %rax
	jmp	.LBB1_2108
.LBB1_1542:                             # %L11158
	cmpq	$129, %rcx
	jne	.LBB1_1497
# BB#1543:                              # %L4153
	movq	8(%rax), %rbx
	movq	$16, %rsi
	movq	%rbx, %rdi
	callq	memory_operand
	testq	%r13, %rax
	je	.LBB1_1497
# BB#1544:                              # %if.then1359
	movq	%rbx, recog_data+8(%rip)
	movabsq	$recog_data, %rdx
	movq	$129, %rdi
	movq	$16, %rsi
	callq	ix86_unary_operator_ok
	testq	%r13, %rax
	movq	24(%rsp), %rcx          # 8-byte Reload
	je	.LBB1_1497
# BB#1545:                              # %if.then1359
	testq	%rcx, %rcx
	je	.LBB1_1497
# BB#1546:                              # %if.then1369
	movq	$1, %rax
	movl	%eax, (%rcx)
	movq	$377, %rdx              # imm = 0x179
	movq	%rdx, %rax
	jmp	.LBB1_2108
.LBB1_1548:                             # %L957
	cmpq	$18, %rax
	jne	.LBB1_1497
# BB#1549:                              # %L11162
	movq	$18, %rsi
	movq	%rbx, %rdi
	callq	register_operand
	testq	%r13, %rax
	je	.LBB1_1497
# BB#1550:                              # %if.then1321
	movzbl	target_flags(%rip), %eax
	movq	%rbx, recog_data+8(%rip)
	movq	$151, %rdx
	testq	$1, %rax
	jne	.LBB1_4569
.LBB1_1497:                             # %if.end1274
	movq	8(%r14), %r15
.LBB1_1498:                             # %L10887
	movq	$16, %rsi
	movq	%r15, %rdi
	callq	nonimmediate_operand
	testq	%r13, %rax
	je	.LBB1_1501
# BB#1499:                              # %if.then929
	movq	%r15, recog_data(%rip)
	movq	16(%r14), %rax
	movl	(%rax), %ecx
	movq	%rcx, %rdx
	andq	$16711680, %rdx         # imm = 0xFF0000
	cmpq	$1048576, %rdx          # imm = 0x100000
	jne	.LBB1_1500
# BB#1557:                              # %L11163
	andq	$65535, %rcx            # imm = 0xFFFF
	cmpq	$77, %rcx
	jne	.LBB1_1558
# BB#1568:                              # %L4014
	movq	8(%rax), %rbx
	movq	$16, %rsi
	movq	%rbx, %rdi
	callq	nonimmediate_operand
	testq	%r13, %rax
	je	.LBB1_1500
# BB#1569:                              # %if.then1400
	movl	target_flags(%rip), %eax
	movq	%rbx, recog_data+8(%rip)
	movq	%rax, %rcx
	andq	$33554433, %rcx         # imm = 0x2000001
	cmpq	$1, %rcx
	jne	.LBB1_1573
# BB#1570:                              # %land.lhs.true1411
	movabsq	$recog_data, %rdx
	movq	$77, %rdi
	movq	$16, %rsi
	callq	ix86_unary_operator_ok
	testq	%r13, %rax
	movq	24(%rsp), %rcx          # 8-byte Reload
	je	.LBB1_1572
# BB#1571:                              # %land.lhs.true1411
	testq	%rcx, %rcx
	je	.LBB1_1572
# BB#4581:                              # %if.then1416
	movq	$1, %rax
	movl	%eax, (%rcx)
	movq	$361, %rdx              # imm = 0x169
	movq	%rdx, %rax
	jmp	.LBB1_2108
.LBB1_1558:                             # %L11163
	cmpq	$129, %rcx
	jne	.LBB1_1500
# BB#1559:                              # %L4199
	movq	8(%rax), %rbx
	movq	$16, %rsi
	movq	%rbx, %rdi
	callq	nonimmediate_operand
	testq	%r13, %rax
	je	.LBB1_1500
# BB#1560:                              # %if.then1438
	movl	target_flags(%rip), %eax
	movq	%rbx, recog_data+8(%rip)
	movq	%rax, %rcx
	andq	$33554433, %rcx         # imm = 0x2000001
	cmpq	$1, %rcx
	jne	.LBB1_1564
# BB#1561:                              # %land.lhs.true1449
	movabsq	$recog_data, %rdx
	movq	$129, %rdi
	movq	$16, %rsi
	callq	ix86_unary_operator_ok
	testq	%r13, %rax
	movq	24(%rsp), %rcx          # 8-byte Reload
	je	.LBB1_1563
# BB#1562:                              # %land.lhs.true1449
	testq	%rcx, %rcx
	je	.LBB1_1563
# BB#4582:                              # %if.then1454
	movq	$1, %rax
	movl	%eax, (%rcx)
	movq	$380, %rdx              # imm = 0x17C
	movq	%rdx, %rax
	jmp	.LBB1_2108
.LBB1_1955:                             # %L1171.i
	movq	8(%r14), %rbx
	movzbl	2(%rbx), %eax
	cmpq	$5, %rax
	je	.LBB1_1965
# BB#1956:                              # %L1171.i
	cmpq	$4, %rax
	jne	.LBB1_1957
# BB#1962:                              # %L11221.i
	movq	%r8, %r14
	movq	$4, %rsi
	movq	%rbx, %rdi
	callq	nonimmediate_operand
	testq	%r13, %rax
	je	.LBB1_1963
# BB#1964:                              # %if.then313.i
	movl	target_flags(%rip), %eax
	movq	%rbx, recog_data+8(%rip)
	andq	$33554433, %rax         # imm = 0x2000001
	cmpq	$1, %rax
	movq	$181, %rdx
	jmp	.LBB1_1961
.LBB1_1946:                             # %L11210.i
	cmpq	$130, %rcx
	jne	.LBB1_7
# BB#1947:                              # %L6293.i
	movq	8(%r14), %rbx
	movl	(%rbx), %eax
	movq	%rax, %rcx
	andq	$16711680, %rcx         # imm = 0xFF0000
	cmpq	$1114112, %rcx          # imm = 0x110000
	jne	.LBB1_7
# BB#1948:                              # %L11232.i
	movq	%r8, %r14
	andq	$65535, %rax            # imm = 0xFFFF
	cmpq	$123, %rax
	jne	.LBB1_1949
# BB#2011:                              # %L6304.i
	movq	8(%rbx), %rbx
	movzbl	2(%rbx), %eax
	cmpq	$15, %rax
	jne	.LBB1_2012
# BB#2017:                              # %L11234.i
	movq	$15, %rsi
	movq	%rbx, %rdi
	callq	register_operand
	testq	%r13, %rax
	je	.LBB1_2018
# BB#2019:                              # %if.then505.i11999
	movl	target_flags(%rip), %eax
	movq	%rbx, recog_data+8(%rip)
	andq	$33554497, %rax         # imm = 0x2000041
	cmpq	$1, %rax
	movq	$570, %rdx              # imm = 0x23A
	jmp	.LBB1_1961
.LBB1_1901:                             # %L11235.i
	cmpq	$1, %rcx
	jne	.LBB1_7
# BB#1902:                              # %L6343.i
	movq	%r8, %r14
	movq	8(%rax), %rbx
	movq	$17, %rsi
	movq	%rbx, %rdi
	callq	register_operand
	testq	%r13, %rax
	je	.LBB1_1903
# BB#2021:                              # %if.then550.i
	movl	target_flags(%rip), %eax
	movq	%rbx, recog_data+8(%rip)
	movq	%rax, %rcx
	andq	$33554433, %rcx         # imm = 0x2000001
	cmpq	$1, %rcx
	jne	.LBB1_2022
# BB#2023:                              # %land.lhs.true558.i
	testq	$64, %rax
	jne	.LBB1_2024
# BB#2025:                              # %land.lhs.true558.i
	movl	flag_unsafe_math_optimizations(%rip), %eax
	movq	$575, %rdx              # imm = 0x23F
	jmp	.LBB1_2007
.LBB1_2197:                             # %L1176.i
	movq	8(%r14), %rbx
	movzbl	2(%rbx), %eax
	movq	%r8, %r14
	cmpq	$5, %rax
	je	.LBB1_2208
# BB#2198:                              # %L1176.i
	cmpq	$4, %rax
	jne	.LBB1_2199
# BB#2205:                              # %L11265.i
	movq	$4, %rsi
	movq	%rbx, %rdi
	callq	nonimmediate_operand
	testq	%r13, %rax
	je	.LBB1_2206
# BB#2207:                              # %if.then294.i
	movzbl	target_flags(%rip), %eax
	movq	%rbx, recog_data+8(%rip)
	movq	$182, %rdx
	testq	$1, %rax
	jmp	.LBB1_2008
.LBB1_2188:                             # %L11254.i
	cmpq	$130, %rcx
	jne	.LBB1_7
# BB#2189:                              # %L6298.i
	movq	8(%r14), %rbx
	movl	(%rbx), %eax
	movq	%rax, %rcx
	andq	$16711680, %rcx         # imm = 0xFF0000
	cmpq	$1179648, %rcx          # imm = 0x120000
	jne	.LBB1_7
# BB#2190:                              # %L11276.i
	movq	%r8, %r14
	andq	$65535, %rax            # imm = 0xFFFF
	cmpq	$123, %rax
	jne	.LBB1_2191
# BB#2248:                              # %L6310.i
	movq	8(%rbx), %rbx
	movzbl	2(%rbx), %eax
	cmpq	$15, %rax
	jne	.LBB1_2249
# BB#2254:                              # %L11278.i
	movq	$15, %rsi
	movq	%rbx, %rdi
	callq	register_operand
	testq	%r13, %rax
	je	.LBB1_2255
# BB#2256:                              # %if.then459.i12111
	movl	target_flags(%rip), %eax
	movq	%rbx, recog_data+8(%rip)
	andq	$65, %rax
	cmpq	$1, %rax
	movq	$571, %rdx              # imm = 0x23B
	jmp	.LBB1_1961
.LBB1_2129:                             # %L11279.i
	cmpq	$1, %rcx
	jne	.LBB1_7
# BB#2130:                              # %L6348.i
	movq	%r8, %r14
	movq	8(%rax), %rbx
	movq	$18, %rsi
	movq	%rbx, %rdi
	callq	register_operand
	testq	%r13, %rax
	je	.LBB1_2131
# BB#2258:                              # %if.then498.i
	movl	target_flags(%rip), %eax
	movq	%rbx, recog_data+8(%rip)
	testq	$64, %rax
	je	.LBB1_2260
# BB#2259:
	movq	%r14, %r8
	jmp	.LBB1_7
.LBB1_1216:                             # %L11121
	movq	$3, %rsi
	movq	%rbx, %rdi
	callq	nonimmediate_operand
	testq	%r13, %rax
	je	.LBB1_1174
# BB#1217:                              # %if.then721
	movl	target_flags(%rip), %eax
	movq	%rbx, recog_data+8(%rip)
	andq	$327681, %rax           # imm = 0x50001
	cmpq	$1, %rax
	movq	$167, %rdx
	je	.LBB1_4569
	jmp	.LBB1_1174
.LBB1_1209:                             # %L1111
	cmpq	$5, %rax
	jne	.LBB1_1174
# BB#1210:                              # %L11123
	movq	$5, %rsi
	movq	%rbx, %rdi
	callq	nonimmediate_operand
	testq	%r13, %rax
	je	.LBB1_1174
# BB#1211:                              # %if.then767
	movl	target_flags(%rip), %eax
	movq	%rbx, recog_data+8(%rip)
	testq	$1, %rax
	je	.LBB1_1227
# BB#1212:                              # %land.lhs.true775
	movq	%r14, %rdx
	testq	$327680, %rax           # imm = 0x50000
	je	.LBB1_1213
# BB#1224:                              # %land.lhs.true775
	movq	%rax, %rcx
	andq	$33554432, %rcx         # imm = 0x2000000
	testq	%r13, %rcx
	je	.LBB1_1225
# BB#1226:                              # %lor.lhs.false781
	movl	ix86_fpmath(%rip), %ecx
	andq	$3, %rcx
	cmpq	$3, %rcx
	movq	%rdx, %r14
	movq	$170, %rdx
	je	.LBB1_4569
.LBB1_1227:                             # %L1132
	movq	%rax, %rdx
	andq	$33554433, %rdx         # imm = 0x2000001
	movq	%rax, %rcx
	andq	$327680, %rcx           # imm = 0x50000
	cmpq	$33554433, %rdx         # imm = 0x2000001
	jne	.LBB1_1231
# BB#1228:                              # %land.lhs.true794
	movq	%r14, %rsi
	testq	%r13, %rcx
	je	.LBB1_1229
# BB#1230:                              # %lor.lhs.false797
	movl	ix86_fpmath(%rip), %edx
	andq	$3, %rdx
	cmpq	$3, %rdx
	movq	%rsi, %r14
	movq	$171, %rdx
	je	.LBB1_4569
.LBB1_1231:                             # %L1137
	testq	$33554432, %rax         # imm = 0x2000000
	je	.LBB1_1174
# BB#1232:                              # %L1137
	movq	$172, %rdx
	testq	%r13, %rcx
	jne	.LBB1_4569
.LBB1_1174:                             # %if.end671
	movq	8(%r14), %r15
.LBB1_1175:                             # %L10886
	movq	$15, %rsi
	movq	%r15, %rdi
	callq	nonimmediate_operand
	testq	%r13, %rax
	je	.LBB1_1178
# BB#1176:                              # %if.then418
	movq	%r15, recog_data(%rip)
	movq	16(%r14), %rax
	movl	(%rax), %ecx
	movq	%rcx, %rdx
	andq	$16711680, %rdx         # imm = 0xFF0000
	cmpq	$983040, %rdx           # imm = 0xF0000
	jne	.LBB1_1177
# BB#1233:                              # %L11124
	andq	$65535, %rcx            # imm = 0xFFFF
	cmpq	$77, %rcx
	jne	.LBB1_1234
# BB#1241:                              # %L3956
	movq	8(%rax), %rbx
	movq	$15, %rsi
	movq	%rbx, %rdi
	callq	nonimmediate_operand
	testq	%r13, %rax
	je	.LBB1_1177
# BB#1242:                              # %if.then841
	movl	target_flags(%rip), %eax
	movq	%rbx, recog_data+8(%rip)
	andq	$327681, %rax           # imm = 0x50001
	cmpq	$1, %rax
	jne	.LBB1_1177
# BB#1243:                              # %land.lhs.true852
	movabsq	$recog_data, %rdx
	movq	$77, %rdi
	movq	$15, %rsi
	callq	ix86_unary_operator_ok
	testq	%r13, %rax
	je	.LBB1_1177
# BB#1244:                              # %land.lhs.true852
	cmpq	$0, 24(%rsp)            # 8-byte Folded Reload
	je	.LBB1_1177
# BB#1245:                              # %if.then857
	movq	$1, %rax
	movq	24(%rsp), %rcx          # 8-byte Reload
	movl	%eax, (%rcx)
	movq	$357, %rdx              # imm = 0x165
	movq	%rdx, %rax
	jmp	.LBB1_2108
.LBB1_1234:                             # %L11124
	cmpq	$129, %rcx
	jne	.LBB1_1177
# BB#1235:                              # %L4141
	movq	8(%rax), %rbx
	movq	$15, %rsi
	movq	%rbx, %rdi
	callq	nonimmediate_operand
	testq	%r13, %rax
	je	.LBB1_1177
# BB#1236:                              # %if.then867
	movzbl	target_flags(%rip), %eax
	movq	%rbx, recog_data+8(%rip)
	testq	$1, %rax
	je	.LBB1_1177
# BB#1237:                              # %land.lhs.true875
	movabsq	$recog_data, %rdx
	movq	$129, %rdi
	movq	$15, %rsi
	callq	ix86_unary_operator_ok
	testq	%r13, %rax
	je	.LBB1_1177
# BB#1238:                              # %land.lhs.true878
	movl	target_flags(%rip), %eax
	testq	$327680, %rax           # imm = 0x50000
	jne	.LBB1_1177
# BB#1239:                              # %land.lhs.true878
	cmpq	$0, 24(%rsp)            # 8-byte Folded Reload
	je	.LBB1_1177
# BB#1240:                              # %if.then883
	movq	$1, %rax
	movq	24(%rsp), %rcx          # 8-byte Reload
	movl	%eax, (%rcx)
	movq	$376, %rdx              # imm = 0x178
	movq	%rdx, %rax
	jmp	.LBB1_2108
.LBB1_1177:                             # %if.end823
	movq	8(%r14), %r15
.LBB1_1178:                             # %L10888
	movq	$15, %rsi
	movq	%r15, %rdi
	callq	register_operand
	testq	%r13, %rax
	je	.LBB1_1179
# BB#1247:                              # %if.then423
	movq	%r15, recog_data(%rip)
	movq	%r14, %r8
	movq	16(%r8), %rbx
	movl	(%rbx), %ecx
	movq	%rcx, %rax
	andq	$16711680, %rax         # imm = 0xFF0000
	cmpq	$983040, %rax           # imm = 0xF0000
	jne	.LBB1_1246
# BB#1248:                              # %L11126
	andq	$65535, %rcx            # imm = 0xFFFF
	cmpq	$71, %rcx
	jg	.LBB1_1257
# BB#1249:                              # %L11126
	cmpq	$42, %rcx
	jne	.LBB1_1434
# BB#1250:                              # %L11134.i
	movq	8(%rbx), %rax
	movl	(%rax), %ecx
	cmpq	$1, %rcx
	jne	.LBB1_1434
# BB#1251:                              # %L11138.i
	movl	16(%rbx), %ecx
	cmpq	$2, %rcx
	jne	.LBB1_1252
# BB#1299:                              # %L6358.i
	movq	8(%rax), %r14
	movq	$15, %rsi
	movq	%r14, %rdi
	movq	%r8, %rbx
	callq	register_operand
	movq	%rbx, %r8
	testq	%r13, %rax
	je	.LBB1_1434
# BB#1300:                              # %if.then135.i11672
	movl	target_flags(%rip), %eax
	movq	%r14, recog_data+8(%rip)
	testq	$64, %rax
	jne	.LBB1_1434
# BB#1301:                              # %land.lhs.true140.i
	testq	$1, %rax
	je	.LBB1_1434
# BB#1302:                              # %land.lhs.true140.i
	movl	flag_unsafe_math_optimizations(%rip), %eax
	movq	$578, %rdx              # imm = 0x242
	jmp	.LBB1_1265
.LBB1_1179:
	movq	%r14, %r8
	jmp	.LBB1_7
.LBB1_1246:                             # %if.end896
	movq	8(%r8), %r15
	jmp	.LBB1_7
.LBB1_1257:                             # %L11126
	cmpq	$101, %rcx
	jg	.LBB1_1266
# BB#1258:                              # %L11126
	addq	$-72, %rcx
	andq	%r13, %rcx
	cmpq	$7, %rcx
	ja	.LBB1_1434
# BB#1259:                              # %L11126
	movq	%r8, %r12
	movq	$1, %rax
	shlq	%cl, %rax
	testq	$216, %rax
	jne	.LBB1_1286
# BB#1260:                              # %L11126
	testq	%rcx, %rcx
	jne	.LBB1_1261
# BB#1303:                              # %L7093.i
	movq	8(%rbx), %r14
	movzbl	(%r14), %eax
	cmpq	$105, %rax
	jne	.LBB1_1304
# BB#1348:                              # %L7186.i
	movq	8(%r14), %r15
	movl	(%r15), %eax
	andq	$16711680, %rax         # imm = 0xFF0000
	cmpq	$983040, %rax           # imm = 0xF0000
	jne	.LBB1_1305
# BB#1349:                              # %L11143.i
	movq	$15, %rsi
	movq	%r15, %rdi
	callq	register_operand
	testq	%r13, %rax
	je	.LBB1_1354
# BB#1350:                              # %if.then350.i
	movq	%r15, recog_data+8(%rip)
	movq	16(%r14), %r15
	movq	$15, %rsi
	movq	%r15, %rdi
	callq	nonimmediate_operand
	testq	%r13, %rax
	je	.LBB1_1353
# BB#1351:                              # %if.then368.i
	movq	%r15, recog_data+16(%rip)
	movq	16(%rbx), %rax
	movq	recog_data+8(%rip), %rcx
	movq	%rax, %rdi
	movq	%rcx, %rsi
	callq	rtx_equal_p
	testq	%r13, %rax
	je	.LBB1_1352
# BB#1363:                              # %L7189.i
	movq	24(%rbx), %rax
	movq	recog_data+16(%rip), %rcx
	movq	%rax, %rdi
	movq	%rcx, %rsi
	callq	rtx_equal_p
	testq	%r13, %rax
	je	.LBB1_1352
# BB#1364:                              # %land.lhs.true394.i
	movl	target_flags(%rip), %eax
	testq	$327680, %rax           # imm = 0x50000
	je	.LBB1_1352
# BB#1365:                              # %land.lhs.true397.i11716
	testq	$16, %rax
	je	.LBB1_1352
# BB#1366:                              # %land.lhs.true397.i11716
	cmpq	$0, 24(%rsp)            # 8-byte Folded Reload
	je	.LBB1_1352
# BB#1367:                              # %if.then402.i
	movq	$1, %rax
	movq	24(%rsp), %rcx          # 8-byte Reload
	movl	%eax, (%rcx)
	movq	$629, %rdx              # imm = 0x275
	movq	%rdx, %rax
	jmp	.LBB1_2108
.LBB1_1266:                             # %L11126
	addq	$-102, %rcx
	andq	%r13, %rcx
	cmpq	$28, %rcx
	ja	.LBB1_1434
# BB#1267:                              # %L11126
	movq	%r8, %r12
	movq	$1, %rax
	shlq	%cl, %rax
	testq	$261183, %rax           # imm = 0x3FC3F
	je	.LBB1_1268
# BB#1281:                              # %L11128.i
	movq	$15, %rsi
	movq	%rbx, %rdi
	callq	sse_comparison_operator
	testq	%r13, %rax
	je	.LBB1_1286
# BB#1282:                              # %if.then.i11657
	movq	%rbx, recog_data+8(%rip)
	movq	8(%rbx), %r14
	movq	$15, %rsi
	movq	%r14, %rdi
	callq	register_operand
	testq	%r13, %rax
	movq	%r12, %r8
	je	.LBB1_1434
# BB#1283:                              # %if.then852.i
	movq	%r14, recog_data+16(%rip)
	movq	16(%rbx), %r14
	movq	$15, %rsi
	movq	%r14, %rdi
	movq	%r8, %rbx
	callq	nonimmediate_operand
	movq	%rbx, %r8
	testq	%r13, %rax
	je	.LBB1_1434
# BB#1284:                              # %if.then860.i
	movl	target_flags(%rip), %eax
	movq	%r14, recog_data+24(%rip)
	testq	$327680, %rax           # imm = 0x50000
	je	.LBB1_1434
# BB#1285:                              # %if.then860.i
	movl	reload_completed(%rip), %eax
	movq	$488, %rdx              # imm = 0x1E8
	jmp	.LBB1_1265
.LBB1_1572:                             # %land.lhs.true1411.L4027_crit_edge
	movl	target_flags(%rip), %eax
.LBB1_1573:                             # %L4027
	andq	$33554433, %rax         # imm = 0x2000001
	cmpq	$33554433, %rax         # imm = 0x2000001
	jne	.LBB1_1500
# BB#1574:                              # %land.lhs.true1423
	movabsq	$recog_data, %rdx
	movq	$77, %rdi
	movq	$16, %rsi
	callq	ix86_unary_operator_ok
	testq	%r13, %rax
	je	.LBB1_1500
# BB#1575:                              # %land.lhs.true1423
	cmpq	$0, 24(%rsp)            # 8-byte Folded Reload
	je	.LBB1_1500
# BB#1576:                              # %if.then1428
	movq	$1, %rax
	movq	24(%rsp), %rcx          # 8-byte Reload
	movl	%eax, (%rcx)
	movq	$362, %rdx              # imm = 0x16A
	movq	%rdx, %rax
	jmp	.LBB1_2108
.LBB1_1286:                             # %L11129.i
	movq	$15, %rsi
	movq	%rbx, %rdi
	callq	binary_fp_operator
	testq	%r13, %rax
	movq	%r12, %r8
	je	.LBB1_1434
# BB#1287:                              # %if.then10.i
	movq	%rbx, recog_data+24(%rip)
	movq	8(%rbx), %r14
	movl	(%r14), %eax
	movq	%rax, %rcx
	andq	$16711680, %rcx         # imm = 0xFF0000
	cmpq	$983040, %rcx           # imm = 0xF0000
	jne	.LBB1_1434
# BB#1288:                              # %L11150.i
	movq	%r8, %r15
	andq	$65535, %rax            # imm = 0xFFFF
	cmpq	$125, %rax
	jne	.LBB1_1289
# BB#1435:                              # %L6102.i
	movq	8(%r14), %r14
	movq	$4, %rsi
	movq	%r14, %rdi
	callq	nonimmediate_operand
	testq	%r13, %rax
	movq	%r15, %r8
	je	.LBB1_1434
# BB#1436:                              # %if.then898.i
	movq	%r14, recog_data+8(%rip)
	movq	16(%rbx), %rbx
	movq	$15, %rsi
	movq	%rbx, %rdi
	movq	%r8, %r14
	callq	register_operand
	movq	%r14, %r8
	testq	%r13, %rax
	je	.LBB1_1434
# BB#1437:                              # %if.then906.i
	movzbl	target_flags(%rip), %eax
	movq	%rbx, recog_data+16(%rip)
	testq	$1, %rax
	je	.LBB1_1434
# BB#1438:                              # %land.lhs.true911.i
	movl	ix86_cpu(%rip), %eax
	movl	x86_use_fiop(%rip), %edx
	movq	$1, %rsi
	movq	%rax, %rcx
	shlq	%cl, %rsi
	andq	%rdx, %rsi
	testq	%r13, %rsi
	je	.LBB1_1434
# BB#1439:                              # %land.lhs.true915.i11757
	movzbl	ix86_fpmath(%rip), %eax
	movq	$536, %rdx              # imm = 0x218
	jmp	.LBB1_1280
.LBB1_1941:                             # %L11210.i
	testq	%rcx, %rcx
	jne	.LBB1_1942
# BB#2033:                              # %L7064.i
	movq	%r8, %r12
	movq	8(%r14), %rbx
	xorq	%rsi, %rsi
	movq	%rbx, %rdi
	callq	fcmov_comparison_operator
	testq	%r13, %rax
	je	.LBB1_2034
# BB#2035:                              # %if.then589.i12013
	movq	%rbx, recog_data+8(%rip)
	movq	8(%rbx), %rax
	movzbl	(%rax), %ecx
	cmpq	$61, %rcx
	jne	.LBB1_2036
# BB#2037:                              # %land.lhs.true598.i
	movl	8(%rax), %eax
	cmpq	$17, %rax
	jne	.LBB1_2038
# BB#2039:                              # %L7066.i
	movq	16(%rbx), %rax
	movzbl	(%rax), %ecx
	cmpq	$54, %rcx
	jne	.LBB1_2040
# BB#2041:                              # %land.lhs.true611.i
	cmpq	$0, 8(%rax)
	je	.LBB1_2043
# BB#2042:
	movq	%r12, %r8
	jmp	.LBB1_7
.LBB1_4570:                             # %L154.i
	jmpq	*.LJTI1_5(,%rax,8)
.LBB1_100:                              # %L10933.i
	movq	%rsi, %r12
	movq	$15, %rsi
	movq	%r14, %rdi
	callq	register_operand
	testq	%r13, %rax
	je	.LBB1_98
# BB#101:                               # %if.then182.i
	movq	%r14, recog_data+8(%rip)
	movq	16(%rbx), %r14
	movq	$15, %rsi
	movq	%r14, %rdi
	callq	nonimmediate_operand
	testq	%r13, %rax
	je	.LBB1_4571
# BB#102:                               # %if.then190.i
	movzbl	target_flags(%rip), %eax
	movq	%r14, recog_data+16(%rip)
	movq	$20, %rdx
	jmp	.LBB1_103
.LBB1_561:                              # %lor.lhs.false646.i
	andq	%r13, %rcx
	cmpq	$8, %rcx
	jne	.LBB1_570
# BB#562:                               # %lor.lhs.false646.i
	movl	reload_completed(%rip), %ecx
	testq	%r13, %rcx
	jne	.LBB1_570
# BB#563:                               # %lor.lhs.false646.i
	movl	reload_in_progress(%rip), %ecx
	testq	%r13, %rcx
	jne	.LBB1_570
.LBB1_565:                              # %land.lhs.true658.i
	andq	$16711680, %rax         # imm = 0xFF0000
	testq	$327680, %rdx           # imm = 0x50000
	je	.LBB1_567
# BB#566:                               # %land.lhs.true658.i
	movq	%rax, %rcx
	andq	%r13, %rcx
	cmpq	$983040, %rcx           # imm = 0xF0000
	je	.LBB1_570
.LBB1_567:                              # %lor.lhs.false667.i
	movq	%rbx, %rcx
	testq	$262144, %rdx           # imm = 0x40000
	je	.LBB1_568
# BB#569:                               # %lor.lhs.false667.i
	andq	%r13, %rax
	cmpq	$1048576, %rax          # imm = 0x100000
	movq	%rcx, %rbx
	movq	$157, %rdx
	jne	.LBB1_4569
.LBB1_570:                              # %if.end677.i
	movq	16(%rbx), %r14
.LBB1_379:                              # %L321.i
	movq	$4, %rsi
	movq	%r14, %rdi
	callq	general_operand
	testq	%r13, %rax
	je	.LBB1_392
# BB#380:                               # %if.then609.i
	movq	%r14, recog_data+8(%rip)
	movq	recog_data(%rip), %rax
	movzbl	(%rax), %eax
	cmpq	$66, %rax
	movq	$45, %rdx
	jne	.LBB1_4569
# BB#381:                               # %lor.lhs.false767.i
	movzbl	(%r14), %eax
	cmpq	$66, %rax
	movq	%rbx, %r12
	jne	.LBB1_4569
	jmp	.LBB1_393
.LBB1_392:                              # %if.end611.i
	movq	%rbx, %r12
.LBB1_393:                              # %L10849.i
	movq	8(%r12), %r14
.LBB1_394:                              # %L10849.i
	movzbl	(%r14), %eax
	cmpq	$66, %rax
	jne	.LBB1_395
# BB#583:                               # %L325.i
	movq	8(%r14), %rbx
	movq	$5, %rsi
	movq	%rbx, %rdi
	callq	x86_64_movabs_operand
	testq	%r13, %rax
	je	.LBB1_403
# BB#584:                               # %if.then782.i
	movq	%rbx, recog_data(%rip)
	movq	16(%r12), %rbx
	movq	$4, %rsi
	movq	%rbx, %rdi
	callq	nonmemory_operand
	testq	%r13, %rax
	je	.LBB1_586
# BB#585:                               # %if.then790.i
	movzbl	target_flags+3(%rip), %eax
	movq	%rbx, recog_data+8(%rip)
	movq	$46, %rdx
	testq	$2, %rax
	jne	.LBB1_4569
.LBB1_586:                              # %if.end799.i
	movq	8(%r12), %r14
	jmp	.LBB1_403
.LBB1_395:                              # %if.end12.i
	movq	$4, %rsi
	movq	%r14, %rdi
	callq	register_operand
	testq	%r13, %rax
	je	.LBB1_401
# BB#396:                               # %if.then15.i
	movq	%r14, recog_data(%rip)
	movq	%r12, %rdi
	movq	16(%rdi), %r12
	movl	(%r12), %eax
	movq	%rax, %rcx
	andq	$16711680, %rcx         # imm = 0xFF0000
	cmpq	$262144, %rcx           # imm = 0x40000
	jne	.LBB1_397
# BB#587:                               # %L10973.i
	andq	$65535, %rax            # imm = 0xFFFF
	cmpq	$65, %rax
	jg	.LBB1_593
# BB#588:                               # %L10973.i
	cmpq	$43, %rax
	jne	.LBB1_397
# BB#589:                               # %L10985.i
	movq	8(%r12), %rax
	movl	(%rax), %ecx
	cmpq	$1, %rcx
	jne	.LBB1_397
# BB#590:                               # %L10996.i
	movl	16(%r12), %ecx
	cmpq	$2, %rcx
	jne	.LBB1_591
# BB#727:                               # %L5986.i
	movq	8(%rax), %rax
	movl	(%rax), %ecx
	andq	$16777215, %rcx         # imm = 0xFFFFFF
	cmpq	$262219, %rcx           # imm = 0x4004B
	jne	.LBB1_397
# BB#728:                               # %L5987.i
	movq	8(%rax), %rcx
	movzbl	(%rcx), %ecx
	cmpq	$59, %rcx
	jne	.LBB1_397
# BB#729:                               # %L5988.i
	movq	16(%rax), %rax
	movzbl	target_flags+3(%rip), %ecx
	movq	%rax, recog_data+8(%rip)
	movq	$519, %rdx              # imm = 0x207
	testq	$2, %rcx
	je	.LBB1_4569
# BB#730:                               # %if.end1324.i11584
	movq	16(%rdi), %r12
	jmp	.LBB1_397
.LBB1_593:                              # %L10973.i
	cmpq	$119, %rax
	jg	.LBB1_597
# BB#594:                               # %L10973.i
	movq	%rdi, %r14
	cmpq	$66, %rax
	jne	.LBB1_595
# BB#599:                               # %L331.i
	movq	8(%r12), %rbx
	movq	$5, %rsi
	movq	%rbx, %rdi
	callq	x86_64_movabs_operand
	testq	%r13, %rax
	movq	%r14, %rdi
	je	.LBB1_397
# BB#600:                               # %if.then844.i
	movzbl	target_flags+3(%rip), %eax
	movq	%rbx, recog_data+8(%rip)
	movq	$47, %rdx
	testq	$2, %rax
	jne	.LBB1_4569
# BB#601:                               # %if.end850.i
	movq	16(%rdi), %r12
	jmp	.LBB1_397
.LBB1_597:                              # %L10973.i
	addq	$-120, %rax
	andq	%r13, %rax
	cmpq	$13, %rax
	ja	.LBB1_397
# BB#598:                               # %L10973.i
	jmpq	*.LJTI1_2(,%rax,8)
.LBB1_657:                              # %L813.i
	movq	%rdi, %r14
	movq	8(%r12), %rbx
	movzbl	2(%rbx), %eax
	cmpq	$2, %rax
	jne	.LBB1_658
# BB#662:                               # %L10991.i
	movq	$2, %rsi
	movq	%rbx, %rdi
	callq	nonimmediate_operand
	testq	%r13, %rax
	movq	%r14, %rdi
	je	.LBB1_397
# BB#663:                               # %if.then1019.i
	movq	%rbx, recog_data+8(%rip)
	movq	$126, %rdx
	movq	%rdx, %rax
	jmp	.LBB1_2108
.LBB1_595:                              # %L10973.i
	cmpq	$72, %rax
	jne	.LBB1_596
# BB#731:                               # %L7011.i
	movq	8(%r12), %rbx
	movzbl	(%rbx), %eax
	cmpq	$111, %rax
	jne	.LBB1_732
# BB#736:                               # %L7012.i
	movq	8(%rbx), %rax
	movl	(%rax), %ecx
	andq	$16777215, %rcx         # imm = 0xFFFFFF
	cmpq	$3407933, %rcx          # imm = 0x34003D
	jne	.LBB1_732
# BB#737:                               # %land.lhs.true1352.i
	movl	8(%rax), %eax
	cmpq	$17, %rax
	jne	.LBB1_732
# BB#738:                               # %L7013.i
	movq	16(%rbx), %rax
	movzbl	(%rax), %ecx
	cmpq	$54, %rcx
	jne	.LBB1_732
# BB#739:                               # %land.lhs.true1365.i
	cmpq	$0, 8(%rax)
	jne	.LBB1_732
# BB#740:                               # %L7014.i
	movq	16(%r12), %rax
	movzbl	(%rax), %ecx
	cmpq	$54, %rcx
	jne	.LBB1_732
# BB#741:                               # %land.lhs.true1378.i
	movq	8(%rax), %rax
	cmpq	$-1, %rax
	jne	.LBB1_732
# BB#742:                               # %L7015.i
	movq	24(%r12), %rax
	movzbl	(%rax), %ecx
	cmpq	$54, %rcx
	jne	.LBB1_732
# BB#743:                               # %land.lhs.true1394.i
	cmpq	$0, 8(%rax)
	jne	.LBB1_732
# BB#744:                               # %land.lhs.true1394.i
	cmpq	$0, 24(%rsp)            # 8-byte Folded Reload
	je	.LBB1_732
# BB#745:                               # %if.then1401.i
	movq	$1, %rax
	movq	24(%rsp), %rcx          # 8-byte Reload
	movl	%eax, (%rcx)
	movq	$615, %rdx              # imm = 0x267
	movq	%rdx, %rax
	jmp	.LBB1_2108
.LBB1_1952:
	movq	%r12, %r8
	jmp	.LBB1_7
.LBB1_2183:                             # %L11254.i
	testq	%rcx, %rcx
	jne	.LBB1_2184
# BB#2270:                              # %L7073.i
	movq	8(%r14), %rbx
	xorq	%rsi, %rsi
	movq	%rbx, %rdi
	callq	fcmov_comparison_operator
	testq	%r13, %rax
	je	.LBB1_2271
# BB#2272:                              # %if.then534.i12122
	movq	%rbx, recog_data+8(%rip)
	movq	8(%rbx), %rax
	movzbl	(%rax), %ecx
	cmpq	$61, %rcx
	jne	.LBB1_2273
# BB#2274:                              # %land.lhs.true543.i12123
	movl	8(%rax), %eax
	cmpq	$17, %rax
	jne	.LBB1_2275
# BB#2276:                              # %L7075.i
	movq	16(%rbx), %rax
	movzbl	(%rax), %ecx
	cmpq	$54, %rcx
	jne	.LBB1_2277
# BB#2278:                              # %land.lhs.true556.i
	cmpq	$0, 8(%rax)
	je	.LBB1_2280
# BB#2279:
	movq	%r12, %r8
	jmp	.LBB1_7
.LBB1_1563:                             # %land.lhs.true1449.L4212_crit_edge
	movl	target_flags(%rip), %eax
.LBB1_1564:                             # %L4212
	andq	$33554433, %rax         # imm = 0x2000001
	cmpq	$33554433, %rax         # imm = 0x2000001
	jne	.LBB1_1500
# BB#1565:                              # %land.lhs.true1461
	movabsq	$recog_data, %rdx
	movq	$129, %rdi
	movq	$16, %rsi
	callq	ix86_unary_operator_ok
	testq	%r13, %rax
	je	.LBB1_1500
# BB#1566:                              # %land.lhs.true1461
	cmpq	$0, 24(%rsp)            # 8-byte Folded Reload
	je	.LBB1_1500
# BB#1567:                              # %if.then1466
	movq	$1, %rax
	movq	24(%rsp), %rcx          # 8-byte Reload
	movl	%eax, (%rcx)
	movq	$381, %rdx              # imm = 0x17D
	movq	%rdx, %rax
	jmp	.LBB1_2108
.LBB1_1500:                             # %if.end1382
	movq	8(%r14), %r15
.LBB1_1501:                             # %L10889
	movq	$16, %rsi
	movq	%r15, %rdi
	callq	register_operand
	testq	%r13, %rax
	je	.LBB1_1502
# BB#1578:                              # %if.then934
	movq	%r15, recog_data(%rip)
	movq	%r14, %r8
	movq	16(%r8), %rbx
	movl	(%rbx), %ecx
	movq	%rcx, %rax
	andq	$16711680, %rax         # imm = 0xFF0000
	cmpq	$1048576, %rax          # imm = 0x100000
	jne	.LBB1_1577
# BB#1579:                              # %L11165
	andq	$65535, %rcx            # imm = 0xFFFF
	cmpq	$71, %rcx
	jg	.LBB1_1590
# BB#1580:                              # %L11165
	cmpq	$42, %rcx
	jne	.LBB1_1868
# BB#1581:                              # %L11173.i
	movq	8(%rbx), %rax
	movl	(%rax), %ecx
	cmpq	$1, %rcx
	jne	.LBB1_1868
# BB#1582:                              # %L11182.i
	movl	16(%rbx), %ecx
	cmpq	$2, %rcx
	jne	.LBB1_1583
# BB#1656:                              # %L6353.i
	movq	8(%rax), %rbx
	movl	(%rbx), %eax
	movq	%rax, %rcx
	andq	$16711680, %rcx         # imm = 0xFF0000
	cmpq	$1048576, %rcx          # imm = 0x100000
	jne	.LBB1_1868
# BB#1657:                              # %L11187.i
	movq	%r8, %r14
	andq	$65535, %rax            # imm = 0xFFFF
	cmpq	$123, %rax
	jne	.LBB1_1658
# BB#1662:                              # %L6364.i
	movq	8(%rbx), %rbx
	movq	$15, %rsi
	movq	%rbx, %rdi
	callq	register_operand
	testq	%r13, %rax
	movq	%r14, %r8
	je	.LBB1_1868
# BB#1663:                              # %if.then263.i
	movl	target_flags(%rip), %eax
	movq	%rbx, recog_data+8(%rip)
	testq	$64, %rax
	jne	.LBB1_1868
# BB#1664:                              # %land.lhs.true268.i
	testq	$1, %rax
	je	.LBB1_1868
# BB#1665:                              # %land.lhs.true268.i
	movl	flag_unsafe_math_optimizations(%rip), %eax
	movq	$579, %rdx              # imm = 0x243
	jmp	.LBB1_1600
.LBB1_1502:
	movq	%r14, %r8
	jmp	.LBB1_7
.LBB1_1577:                             # %if.end1479
	movq	8(%r8), %r15
	jmp	.LBB1_7
.LBB1_1590:                             # %L11165
	cmpq	$101, %rcx
	jg	.LBB1_1601
# BB#1591:                              # %L11165
	addq	$-72, %rcx
	andq	%r13, %rcx
	cmpq	$7, %rcx
	ja	.LBB1_1868
# BB#1592:                              # %L11165
	movq	%r8, %r12
	movq	$1, %rax
	shlq	%cl, %rax
	testq	$216, %rax
	jne	.LBB1_1623
# BB#1593:                              # %L11165
	testq	%rcx, %rcx
	jne	.LBB1_1594
# BB#1666:                              # %L7139.i
	movq	8(%rbx), %r14
	movzbl	(%r14), %eax
	cmpq	$105, %rax
	jne	.LBB1_1667
# BB#1713:                              # %L7232.i
	movq	8(%r14), %r15
	movl	(%r15), %eax
	andq	$16711680, %rax         # imm = 0xFF0000
	cmpq	$1048576, %rax          # imm = 0x100000
	jne	.LBB1_1668
# BB#1714:                              # %L11191.i
	movq	$16, %rsi
	movq	%r15, %rdi
	callq	register_operand
	testq	%r13, %rax
	je	.LBB1_1719
# BB#1715:                              # %if.then496.i
	movq	%r15, recog_data+8(%rip)
	movq	16(%r14), %r15
	movq	$16, %rsi
	movq	%r15, %rdi
	callq	nonimmediate_operand
	testq	%r13, %rax
	je	.LBB1_1718
# BB#1716:                              # %if.then514.i
	movq	%r15, recog_data+16(%rip)
	movq	16(%rbx), %rax
	movq	recog_data+8(%rip), %rcx
	movq	%rax, %rdi
	movq	%rcx, %rsi
	callq	rtx_equal_p
	testq	%r13, %rax
	je	.LBB1_1717
# BB#1728:                              # %L7235.i
	movq	24(%rbx), %rax
	movq	recog_data+16(%rip), %rcx
	movq	%rax, %rdi
	movq	%rcx, %rsi
	callq	rtx_equal_p
	testq	%r13, %rax
	je	.LBB1_1717
# BB#1729:                              # %land.lhs.true540.i
	movl	target_flags(%rip), %eax
	testq	$262144, %rax           # imm = 0x40000
	je	.LBB1_1717
# BB#1730:                              # %land.lhs.true543.i
	movzbl	ix86_fpmath(%rip), %ecx
	testq	$2, %rcx
	je	.LBB1_1717
# BB#1731:                              # %land.lhs.true546.i
	testq	$16, %rax
	je	.LBB1_1717
# BB#1732:                              # %land.lhs.true546.i
	cmpq	$0, 24(%rsp)            # 8-byte Folded Reload
	je	.LBB1_1717
# BB#1733:                              # %if.then551.i11870
	movq	$1, %rax
	movq	24(%rsp), %rcx          # 8-byte Reload
	movl	%eax, (%rcx)
	movq	$632, %rdx              # imm = 0x278
	movq	%rdx, %rax
	jmp	.LBB1_2108
.LBB1_1601:                             # %L11165
	addq	$-102, %rcx
	andq	%r13, %rcx
	cmpq	$28, %rcx
	ja	.LBB1_1868
# BB#1602:                              # %L11165
	movq	%r8, %r12
	movq	$1, %rax
	shlq	%cl, %rax
	testq	$261183, %rax           # imm = 0x3FC3F
	je	.LBB1_1603
# BB#1618:                              # %L11167.i
	movq	$16, %rsi
	movq	%rbx, %rdi
	callq	sse_comparison_operator
	testq	%r13, %rax
	je	.LBB1_1623
# BB#1619:                              # %if.then.i11779
	movq	%rbx, recog_data+8(%rip)
	movq	8(%rbx), %r14
	movq	$16, %rsi
	movq	%r14, %rdi
	callq	register_operand
	testq	%r13, %rax
	movq	%r12, %r8
	je	.LBB1_1868
# BB#1620:                              # %if.then1031.i
	movq	%r14, recog_data+16(%rip)
	movq	16(%rbx), %r14
	movq	$16, %rsi
	movq	%r14, %rdi
	movq	%r8, %rbx
	callq	nonimmediate_operand
	movq	%rbx, %r8
	testq	%r13, %rax
	je	.LBB1_1868
# BB#1621:                              # %if.then1039.i
	movl	target_flags(%rip), %eax
	movq	%r14, recog_data+24(%rip)
	testq	$262144, %rax           # imm = 0x40000
	je	.LBB1_1868
# BB#1622:                              # %if.then1039.i
	movl	reload_completed(%rip), %eax
	movq	$489, %rdx              # imm = 0x1E9
	jmp	.LBB1_1600
.LBB1_1623:                             # %L11168.i
	movq	$16, %rsi
	movq	%rbx, %rdi
	callq	binary_fp_operator
	testq	%r13, %rax
	movq	%r12, %r8
	je	.LBB1_1868
# BB#1624:                              # %if.then10.i11782
	movq	%rbx, recog_data+24(%rip)
	movq	8(%rbx), %r14
	movl	(%r14), %eax
	movq	%rax, %rcx
	andq	$16711680, %rcx         # imm = 0xFF0000
	cmpq	$1048576, %rcx          # imm = 0x100000
	jne	.LBB1_1868
# BB#1625:                              # %L11198.i
	movq	%r8, %r15
	andq	$65535, %rax            # imm = 0xFFFF
	cmpq	$122, %rax
	jg	.LBB1_1799
# BB#1626:                              # %L11198.i
	addq	$-61, %rax
	andq	%r13, %rax
	cmpq	$5, %rax
	ja	.LBB1_1801
# BB#1627:                              # %L11198.i
	movq	$1, %rdx
	movq	%rax, %rcx
	shlq	%cl, %rdx
	testq	$37, %rdx
	je	.LBB1_1801
# BB#1628:                              # %L11196.i
	movq	$16, %rsi
	movq	%r14, %rdi
	callq	nonimmediate_operand
	testq	%r13, %rax
	je	.LBB1_1801
# BB#1629:                              # %if.then1065.i
	movq	%r14, recog_data+8(%rip)
	movq	16(%rbx), %r14
	movq	$16, %rsi
	movq	%r14, %rdi
	callq	nonimmediate_operand
	testq	%r13, %rax
	je	.LBB1_1825
# BB#1630:                              # %if.then1144.i
	movl	target_flags(%rip), %eax
	movq	%r14, recog_data+16(%rip)
	movq	%rax, %rcx
	andq	$262144, %rcx           # imm = 0x40000
	movq	%rax, %rbx
	andq	$1, %rbx
	movq	%r15, %rdi
	je	.LBB1_1835
# BB#1631:                              # %land.lhs.true1152.i
	testq	%r13, %rcx
	je	.LBB1_1633
# BB#1632:                              # %lor.lhs.false1155.i
	movl	ix86_fpmath(%rip), %esi
	testq	$2, %rsi
	jne	.LBB1_1828
.LBB1_1633:                             # %land.lhs.true1158.i
	movq	recog_data+24(%rip), %rsi
	movzbl	(%rsi), %esi
	movzbl	rtx_class(%rsi), %esi
	cmpq	$99, %rsi
	movq	%rdi, %rsi
	jne	.LBB1_1827
# BB#1634:                              # %land.lhs.true1165.i
	movq	%rsi, %rdi
	movq	recog_data+8(%rip), %rsi
	movzbl	(%rsi), %esi
	cmpq	$66, %rsi
	jne	.LBB1_1635
# BB#1826:                              # %lor.lhs.false1171.i
	movzbl	(%r14), %esi
	cmpq	$66, %rsi
	movq	%rdi, %rsi
	movq	$528, %rdx              # imm = 0x210
	jne	.LBB1_4569
.LBB1_1827:                             # %L6061.i.land.lhs.true1181.i_crit_edge
	movq	%rsi, %rdi
	movl	ix86_fpmath(%rip), %esi
.LBB1_1828:                             # %land.lhs.true1181.i
	testq	$2, %rsi
	je	.LBB1_1835
# BB#1829:                              # %land.lhs.true1181.i
	testq	%r13, %rcx
	je	.LBB1_1835
# BB#1830:                              # %land.lhs.true1181.i
	andq	$1, %rsi
	je	.LBB1_1835
# BB#1831:                              # %land.lhs.true1195.i
	movq	recog_data+24(%rip), %rsi
	movzbl	(%rsi), %esi
	movzbl	rtx_class(%rsi), %esi
	cmpq	$99, %rsi
	jne	.LBB1_1835
# BB#1832:                              # %land.lhs.true1204.i
	movq	recog_data+8(%rip), %rsi
	movzbl	(%rsi), %esi
	cmpq	$66, %rsi
	jne	.LBB1_1833
# BB#1834:                              # %lor.lhs.false1210.i
	movzbl	(%r14), %esi
	cmpq	$66, %rsi
	movq	$529, %rdx              # imm = 0x211
	jne	.LBB1_4569
.LBB1_1835:                             # %L6067.i
	testq	%r13, %rcx
	je	.LBB1_1841
# BB#1836:                              # %land.lhs.true1221.i
	movzbl	ix86_fpmath(%rip), %esi
	testq	$2, %rsi
	je	.LBB1_1841
# BB#1837:                              # %land.lhs.true1225.i
	movq	recog_data+24(%rip), %rsi
	movzbl	(%rsi), %esi
	movzbl	rtx_class(%rsi), %esi
	cmpq	$99, %rsi
	jne	.LBB1_1841
# BB#1838:                              # %land.lhs.true1234.i
	movq	recog_data+8(%rip), %rsi
	movzbl	(%rsi), %esi
	cmpq	$66, %rsi
	jne	.LBB1_1839
# BB#1840:                              # %lor.lhs.false1240.i
	movzbl	(%r14), %esi
	cmpq	$66, %rsi
	movq	$530, %rdx              # imm = 0x212
	jne	.LBB1_4569
.LBB1_1841:                             # %L6117.i
	testq	%r13, %rbx
	je	.LBB1_1848
# BB#1842:                              # %land.lhs.true1250.i
	testq	%r13, %rcx
	je	.LBB1_1844
# BB#1843:                              # %lor.lhs.false1254.i
	movzbl	ix86_fpmath(%rip), %ecx
	testq	$2, %rcx
	jne	.LBB1_1848
.LBB1_1844:                             # %land.lhs.true1258.i
	movq	recog_data+24(%rip), %rcx
	movzbl	(%rcx), %ecx
	movzbl	rtx_class(%rcx), %ecx
	cmpq	$99, %rcx
	je	.LBB1_1848
# BB#1845:                              # %land.lhs.true1267.i
	movq	%rdi, %rdx
	movq	recog_data+8(%rip), %rcx
	movzbl	(%rcx), %ecx
	cmpq	$66, %rcx
	jne	.LBB1_1846
# BB#1847:                              # %lor.lhs.false1273.i
	movzbl	(%r14), %ecx
	cmpq	$66, %rcx
	movq	%rdx, %rdi
	movq	$538, %rdx              # imm = 0x21A
	jne	.LBB1_4569
.LBB1_1848:                             # %L6123.i
	andq	$262145, %rax           # imm = 0x40001
	cmpq	$262145, %rax           # imm = 0x40001
	jne	.LBB1_1854
# BB#1849:                              # %land.lhs.true1287.i
	movl	ix86_fpmath(%rip), %eax
	andq	$3, %rax
	cmpq	$3, %rax
	jne	.LBB1_1854
# BB#1850:                              # %land.lhs.true1297.i
	movq	recog_data+24(%rip), %rax
	movzbl	(%rax), %eax
	movzbl	rtx_class(%rax), %eax
	cmpq	$99, %rax
	je	.LBB1_1854
# BB#1851:                              # %land.lhs.true1306.i
	movq	%rdi, %rcx
	movq	recog_data+8(%rip), %rax
	movzbl	(%rax), %eax
	cmpq	$66, %rax
	jne	.LBB1_1852
# BB#1853:                              # %lor.lhs.false1312.i
	movzbl	(%r14), %eax
	cmpq	$66, %rax
	movq	%rcx, %rdi
	movq	$539, %rdx              # imm = 0x21B
	jne	.LBB1_4569
.LBB1_1854:                             # %if.end1319.i
	movq	16(%rdi), %rbx
	movq	%rdi, %r15
	movq	8(%rbx), %r14
	jmp	.LBB1_1801
.LBB1_1583:                             # %L11182.i
	cmpq	$1, %rcx
	jne	.LBB1_1868
# BB#1584:                              # %L6327.i
	movq	8(%rax), %rbx
	movl	(%rbx), %eax
	movq	%rax, %rcx
	andq	$16711680, %rcx         # imm = 0xFF0000
	cmpq	$1048576, %rcx          # imm = 0x100000
	jne	.LBB1_1868
# BB#1585:                              # %L11185.i
	movq	%r8, %r14
	andq	$65535, %rax            # imm = 0xFFFF
	cmpq	$123, %rax
	jne	.LBB1_1586
# BB#1652:                              # %L6338.i
	movq	8(%rbx), %rbx
	movq	$15, %rsi
	movq	%rbx, %rdi
	callq	register_operand
	testq	%r13, %rax
	movq	%r14, %r8
	je	.LBB1_1868
# BB#1653:                              # %if.then216.i11812
	movl	target_flags(%rip), %eax
	movq	%rbx, recog_data+8(%rip)
	testq	$64, %rax
	jne	.LBB1_1868
# BB#1654:                              # %land.lhs.true221.i
	testq	$1, %rax
	je	.LBB1_1868
# BB#1655:                              # %land.lhs.true221.i
	movl	flag_unsafe_math_optimizations(%rip), %eax
	movq	$574, %rdx              # imm = 0x23E
	jmp	.LBB1_1600
.LBB1_1965:                             # %L11222.i
	movq	%r8, %r14
	movq	$5, %rsi
	movq	%rbx, %rdi
	callq	nonimmediate_operand
	testq	%r13, %rax
	je	.LBB1_1966
# BB#1967:                              # %if.then325.i
	movl	target_flags(%rip), %eax
	movq	%rbx, recog_data+8(%rip)
	andq	$33554433, %rax         # imm = 0x2000001
	cmpq	$1, %rax
	movq	$183, %rdx
	jmp	.LBB1_1961
.LBB1_1957:                             # %L1171.i
	cmpq	$3, %rax
	jne	.LBB1_7
# BB#1958:                              # %L11220.i
	movq	%r8, %r14
	movq	$3, %rsi
	movq	%rbx, %rdi
	callq	nonimmediate_operand
	testq	%r13, %rax
	je	.LBB1_1959
# BB#1960:                              # %if.then301.i
	movl	target_flags(%rip), %eax
	movq	%rbx, recog_data+8(%rip)
	andq	$33554433, %rax         # imm = 0x2000001
	cmpq	$1, %rax
	movq	$179, %rdx
	jmp	.LBB1_1961
.LBB1_1252:                             # %L11138.i
	cmpq	$1, %rcx
	jne	.LBB1_1434
# BB#1253:                              # %L6332.i
	movq	8(%rax), %r14
	movq	$15, %rsi
	movq	%r14, %rdi
	movq	%r8, %rbx
	callq	register_operand
	movq	%rbx, %r8
	testq	%r13, %rax
	je	.LBB1_1434
# BB#1254:                              # %if.then116.i
	movl	target_flags(%rip), %eax
	movq	%r14, recog_data+8(%rip)
	testq	$64, %rax
	jne	.LBB1_1434
# BB#1255:                              # %land.lhs.true121.i
	testq	$1, %rax
	je	.LBB1_1434
# BB#1256:                              # %land.lhs.true121.i
	movl	flag_unsafe_math_optimizations(%rip), %eax
	movq	$573, %rdx              # imm = 0x23D
	jmp	.LBB1_1265
.LBB1_2027:
	movq	%r14, %r8
	jmp	.LBB1_7
.LBB1_2030:                             # %land.lhs.true577.i
	testq	$1, %rax
	je	.LBB1_2031
# BB#2032:                              # %land.lhs.true577.i
	movl	flag_unsafe_math_optimizations(%rip), %eax
	movq	$580, %rdx              # imm = 0x244
	jmp	.LBB1_2007
.LBB1_1954:
	movq	%r12, %r8
	jmp	.LBB1_7
.LBB1_1991:                             # %if.end410.i
	movq	$17, %rsi
	movq	%rbx, %rdi
	callq	register_operand
	testq	%r13, %rax
	je	.LBB1_1992
# BB#1993:                              # %if.then413.i
	movl	target_flags(%rip), %eax
	movq	%rbx, recog_data+8(%rip)
	testq	$33554432, %rax         # imm = 0x2000000
	je	.LBB1_2004
# BB#1994:
	movq	%r14, %r8
	jmp	.LBB1_7
.LBB1_2264:
	movq	%r14, %r8
	jmp	.LBB1_7
.LBB1_2194:
	movq	%r12, %r8
	jmp	.LBB1_7
.LBB1_2196:
	movq	%r12, %r8
	jmp	.LBB1_7
.LBB1_2232:                             # %if.end376.i
	movq	$18, %rsi
	movq	%rbx, %rdi
	callq	register_operand
	testq	%r13, %rax
	je	.LBB1_2233
# BB#2234:                              # %if.then379.i12099
	movl	target_flags(%rip), %eax
	movq	%rbx, recog_data+8(%rip)
	testq	$1, %rax
	je	.LBB1_2235
# BB#2236:                              # %if.then379.i12099
	movl	reload_completed(%rip), %eax
	movq	$390, %rdx              # imm = 0x186
	jmp	.LBB1_2007
.LBB1_2208:                             # %L11266.i
	movq	$5, %rsi
	movq	%rbx, %rdi
	callq	nonimmediate_operand
	testq	%r13, %rax
	je	.LBB1_2209
# BB#2210:                              # %if.then303.i
	movzbl	target_flags(%rip), %eax
	movq	%rbx, recog_data+8(%rip)
	movq	$184, %rdx
	testq	$1, %rax
	jmp	.LBB1_2008
.LBB1_2199:                             # %L1176.i
	cmpq	$3, %rax
	jne	.LBB1_2200
# BB#2201:                              # %L11264.i
	movq	$3, %rsi
	movq	%rbx, %rdi
	callq	nonimmediate_operand
	testq	%r13, %rax
	je	.LBB1_2202
# BB#2203:                              # %if.then285.i12090
	movzbl	target_flags(%rip), %eax
	movq	%rbx, recog_data+8(%rip)
	movq	$180, %rdx
	testq	$1, %rax
	jmp	.LBB1_2008
.LBB1_1942:                             # %L11210.i
	movq	%r8, %rbx
	cmpq	$5, %rcx
	jne	.LBB1_1943
# BB#1968:                              # %L4071.i
	movq	8(%r14), %r14
	movl	(%r14), %eax
	movq	%rax, %rcx
	andq	$16711680, %rcx         # imm = 0xFF0000
	cmpq	$1114112, %rcx          # imm = 0x110000
	jne	.LBB1_1969
# BB#1970:                              # %L11224.i
	andq	$65535, %rax            # imm = 0xFFFF
	cmpq	$123, %rax
	jne	.LBB1_1971
# BB#1975:                              # %L4077.i
	movq	8(%r14), %r14
	movzbl	2(%r14), %eax
	cmpq	$15, %rax
	jne	.LBB1_1976
# BB#1982:                              # %L11226.i
	movq	$15, %rsi
	movq	%r14, %rdi
	callq	register_operand
	testq	%r13, %rax
	je	.LBB1_1983
# BB#1984:                              # %if.then378.i
	movl	target_flags(%rip), %eax
	movq	%r14, recog_data+8(%rip)
	andq	$33554433, %rax         # imm = 0x2000001
	cmpq	$1, %rax
	movq	$370, %rdx              # imm = 0x172
	jmp	.LBB1_1981
.LBB1_591:                              # %L10996.i
	movq	%rdi, %rbx
	cmpq	$1, %rcx
	jne	.LBB1_592
# BB#712:                               # %L5975.i
	movq	8(%rax), %rax
	movq	%rax, 8(%rsp)           # 8-byte Spill
	movl	(%rax), %eax
	andq	$16777215, %rax         # imm = 0xFFFFFF
	cmpq	$262219, %rax           # imm = 0x4004B
	jne	.LBB1_713
# BB#714:                               # %L5976.i
	movq	8(%rsp), %rax           # 8-byte Reload
	movq	8(%rax), %rax
	movq	%rax, %rdi
	movq	%r14, %rsi
	callq	rtx_equal_p
	testq	%r13, %rax
	je	.LBB1_715
# BB#716:                               # %L5977.i
	movq	8(%rsp), %rax           # 8-byte Reload
	movq	16(%rax), %rax
	movq	%rax, 8(%rsp)           # 8-byte Spill
	movl	(%rax), %eax
	andq	$16777215, %rax         # imm = 0xFFFFFF
	cmpq	$262219, %rax           # imm = 0x4004B
	jne	.LBB1_717
# BB#718:                               # %L5978.i
	movq	8(%rsp), %rax           # 8-byte Reload
	movq	8(%rax), %r14
	movq	$4, %rsi
	movq	%r14, %rdi
	callq	symbolic_operand
	testq	%r13, %rax
	je	.LBB1_719
# BB#720:                               # %if.then1257.i
	movq	%r14, recog_data+8(%rip)
	movq	8(%rsp), %rax           # 8-byte Reload
	movq	16(%rax), %rax
	movl	(%rax), %ecx
	andq	$16777215, %rcx         # imm = 0xFFFFFF
	cmpq	$262220, %rcx           # imm = 0x4004C
	jne	.LBB1_721
# BB#722:                               # %L5980.i
	movq	8(%rax), %rcx
	movzbl	(%rcx), %ecx
	cmpq	$59, %rcx
	movq	%rbx, %rdi
	jne	.LBB1_397
# BB#723:                               # %L5981.i
	movq	%rdi, %rdx
	movq	16(%rax), %rax
	movl	target_flags(%rip), %ecx
	movq	%rax, recog_data+16(%rip)
	testq	$33554432, %rcx         # imm = 0x2000000
	jne	.LBB1_726
# BB#724:                               # %L5981.i
	cmpq	$0, 24(%rsp)            # 8-byte Folded Reload
	je	.LBB1_726
# BB#725:                               # %if.then1289.i
	movq	$1, %rax
	movq	24(%rsp), %rcx          # 8-byte Reload
	movl	%eax, (%rcx)
	movq	$518, %rdx              # imm = 0x206
	movq	%rdx, %rax
	jmp	.LBB1_2108
.LBB1_596:
	movq	%r14, %rdi
	jmp	.LBB1_397
.LBB1_2184:                             # %L11254.i
	cmpq	$5, %rcx
	jne	.LBB1_2185
# BB#2211:                              # %L4088.i
	movq	8(%r14), %rbx
	movl	(%rbx), %eax
	movq	%rax, %rcx
	andq	$16711680, %rcx         # imm = 0xFF0000
	cmpq	$1179648, %rcx          # imm = 0x120000
	jne	.LBB1_2212
# BB#2213:                              # %L11268.i
	andq	$65535, %rax            # imm = 0xFFFF
	cmpq	$123, %rax
	jne	.LBB1_2214
# BB#2219:                              # %L4094.i
	movq	8(%rbx), %rbx
	movzbl	2(%rbx), %eax
	cmpq	$15, %rax
	jne	.LBB1_2220
# BB#2227:                              # %L11270.i
	movq	$15, %rsi
	movq	%rbx, %rdi
	callq	register_operand
	testq	%r13, %rax
	je	.LBB1_2228
# BB#2229:                              # %if.then350.i12096
	movzbl	target_flags(%rip), %eax
	movq	%rbx, recog_data+8(%rip)
	movq	$373, %rdx              # imm = 0x175
	jmp	.LBB1_2225
.LBB1_1594:                             # %L11165
	cmpq	$5, %rcx
	movq	%r12, %r8
	jne	.LBB1_1868
# BB#1595:                              # %L4060.i
	movq	8(%rbx), %rbx
	movl	(%rbx), %eax
	movq	%rax, %rcx
	andq	$16711680, %rcx         # imm = 0xFF0000
	cmpq	$1048576, %rcx          # imm = 0x100000
	jne	.LBB1_1868
# BB#1596:                              # %L11176.i
	movq	%r8, %r14
	andq	$65535, %rax            # imm = 0xFFFF
	cmpq	$123, %rax
	jne	.LBB1_1597
# BB#1636:                              # %L4066.i
	movq	8(%rbx), %rbx
	movq	$15, %rsi
	movq	%rbx, %rdi
	callq	register_operand
	testq	%r13, %rax
	movq	%r14, %r8
	je	.LBB1_1868
# BB#1637:                              # %if.then35.i
	movzbl	target_flags(%rip), %eax
	movq	%rbx, recog_data+8(%rip)
	movq	$367, %rdx              # imm = 0x16F
	jmp	.LBB1_1638
.LBB1_482:                              # %L1786.i
	movq	8(%r14), %r12
	movl	(%r12), %eax
	andq	$16777215, %rax         # imm = 0xFFFFFF
	cmpq	$262277, %rax           # imm = 0x40085
	jne	.LBB1_483
# BB#484:                               # %L1787.i
	movq	8(%r12), %rax
	movq	%rax, 8(%rsp)           # 8-byte Spill
	xorq	%rsi, %rsi
	movq	%rax, %rdi
	callq	ext_register_operand
	testq	%r13, %rax
	je	.LBB1_485
# BB#486:                               # %if.then331.i
	movq	8(%rsp), %rax           # 8-byte Reload
	movq	%rax, recog_data+8(%rip)
	movq	16(%r12), %rax
	movzbl	(%rax), %ecx
	cmpq	$54, %rcx
	jne	.LBB1_487
# BB#488:                               # %land.lhs.true340.i
	movq	8(%rax), %rax
	cmpq	$8, %rax
	jne	.LBB1_489
# BB#490:                               # %L1789.i
	movq	24(%r12), %rax
	movzbl	(%rax), %ecx
	cmpq	$54, %rcx
	jne	.LBB1_491
# BB#492:                               # %land.lhs.true353.i
	movq	8(%rax), %rax
	cmpq	$8, %rax
	jne	.LBB1_493
# BB#494:                               # %L1845.i
	movq	16(%r14), %r12
	movl	(%r12), %eax
	andq	$16777215, %rax         # imm = 0xFFFFFF
	cmpq	$262277, %rax           # imm = 0x40085
	jne	.LBB1_495
# BB#504:                               # %L1846.i
	movq	8(%r12), %rax
	movq	%rax, 8(%rsp)           # 8-byte Spill
	xorq	%rsi, %rsi
	movq	%rax, %rdi
	callq	ext_register_operand
	testq	%r13, %rax
	je	.LBB1_505
# BB#506:                               # %if.then388.i
	movq	8(%rsp), %rax           # 8-byte Reload
	movq	%rax, recog_data+16(%rip)
	movq	16(%r12), %rax
	movzbl	(%rax), %ecx
	cmpq	$54, %rcx
	jne	.LBB1_507
# BB#508:                               # %land.lhs.true397.i
	movq	8(%rax), %rax
	cmpq	$8, %rax
	jne	.LBB1_509
# BB#510:                               # %L1848.i
	movq	24(%r12), %rax
	movzbl	(%rax), %ecx
	cmpq	$54, %rcx
	jne	.LBB1_511
# BB#512:                               # %land.lhs.true410.i
	movq	8(%rax), %rax
	cmpq	$8, %rax
	jne	.LBB1_513
# BB#514:                               # %land.lhs.true410.i
	cmpq	$0, 24(%rsp)            # 8-byte Folded Reload
	movq	%rbx, %r8
	je	.LBB1_424
# BB#515:                               # %if.then417.i
	movq	$1, %rax
	movq	24(%rsp), %rcx          # 8-byte Reload
	movl	%eax, (%rcx)
	movq	$229, %rdx
	movq	%rdx, %rax
	jmp	.LBB1_2108
.LBB1_432:                              # %L10964.i
	cmpq	$83, %rax
	jne	.LBB1_433
# BB#434:                               # %L503.i
	movq	8(%r14), %r12
	movl	(%r12), %eax
	movq	%rax, %rcx
	andq	$16711680, %rcx         # imm = 0xFF0000
	cmpq	$262144, %rcx           # imm = 0x40000
	jne	.LBB1_435
# BB#436:                               # %L10967.i
	andq	$65535, %rax            # imm = 0xFFFF
	cmpq	$133, %rax
	jne	.LBB1_437
# BB#448:                               # %L3076.i
	movq	8(%r12), %rax
	movq	%rax, 8(%rsp)           # 8-byte Spill
	xorq	%rsi, %rsi
	movq	%rax, %rdi
	callq	ext_register_operand
	testq	%r13, %rax
	je	.LBB1_449
# BB#450:                               # %if.then176.i
	movq	8(%rsp), %rax           # 8-byte Reload
	movq	%rax, recog_data+8(%rip)
	movq	16(%r12), %rax
	movzbl	(%rax), %ecx
	cmpq	$54, %rcx
	jne	.LBB1_451
# BB#452:                               # %land.lhs.true185.i
	movq	8(%rax), %rax
	cmpq	$8, %rax
	jne	.LBB1_453
# BB#454:                               # %L3078.i
	movq	24(%r12), %rax
	movzbl	(%rax), %ecx
	cmpq	$54, %rcx
	jne	.LBB1_455
# BB#456:                               # %land.lhs.true198.i
	movq	8(%rax), %rax
	cmpq	$8, %rax
	jne	.LBB1_457
# BB#458:                               # %L3128.i
	movq	16(%r14), %r12
	movl	(%r12), %eax
	movq	%rax, %rcx
	andq	$16711680, %rcx         # imm = 0xFF0000
	cmpq	$262144, %rcx           # imm = 0x40000
	jne	.LBB1_459
# BB#463:                               # %L10969.i
	andq	$65535, %rax            # imm = 0xFFFF
	cmpq	$133, %rax
	jne	.LBB1_464
# BB#475:                               # %L3187.i
	movq	8(%r12), %rax
	movq	%rax, 8(%rsp)           # 8-byte Spill
	xorq	%rsi, %rsi
	movq	%rax, %rdi
	callq	ext_register_operand
	testq	%r13, %rax
	je	.LBB1_459
# BB#476:                               # %if.then270.i
	movq	8(%rsp), %rax           # 8-byte Reload
	movq	%rax, recog_data+16(%rip)
	movq	16(%r12), %rax
	movzbl	(%rax), %ecx
	cmpq	$54, %rcx
	jne	.LBB1_459
# BB#477:                               # %land.lhs.true279.i
	movq	8(%rax), %rax
	cmpq	$8, %rax
	jne	.LBB1_459
# BB#478:                               # %L3189.i
	movq	24(%r12), %rax
	movzbl	(%rax), %ecx
	cmpq	$54, %rcx
	jne	.LBB1_459
# BB#479:                               # %land.lhs.true292.i
	movq	8(%rax), %rax
	cmpq	$8, %rax
	jne	.LBB1_459
# BB#480:                               # %land.lhs.true292.i
	cmpq	$0, 24(%rsp)            # 8-byte Folded Reload
	je	.LBB1_459
# BB#481:                               # %if.then299.i
	movq	$1, %rax
	movq	24(%rsp), %rcx          # 8-byte Reload
	movl	%eax, (%rcx)
	movq	$306, %rdx              # imm = 0x132
	movq	%rdx, %rax
	jmp	.LBB1_2108
.LBB1_518:
	movq	%rbx, %r8
	jmp	.LBB1_424
.LBB1_520:
	movq	%rbx, %r8
	jmp	.LBB1_424
.LBB1_522:
	movq	%rbx, %r8
	jmp	.LBB1_424
.LBB1_524:
	movq	%rbx, %r8
	jmp	.LBB1_424
.LBB1_526:
	movq	%rbx, %r8
	jmp	.LBB1_424
.LBB1_528:
	movq	%rbx, %r8
	jmp	.LBB1_424
.LBB1_530:
	movq	%rbx, %r8
	jmp	.LBB1_424
.LBB1_532:
	movq	%rbx, %r8
	jmp	.LBB1_424
.LBB1_534:
	movq	%rbx, %r8
	jmp	.LBB1_424
.LBB1_536:
	movq	%rbx, %r8
	jmp	.LBB1_424
.LBB1_538:
	movq	%rbx, %r8
	jmp	.LBB1_424
.LBB1_540:
	movq	%rbx, %r8
	jmp	.LBB1_424
.LBB1_582:                              # %if.end759.i
	movq	16(%rbx), %r14
	jmp	.LBB1_379
.LBB1_1012:                             # %L11032.i
	movl	16(%r14), %eax
	testq	%rax, %rax
	jne	.LBB1_978
# BB#1013:                              # %L472.i
	movq	8(%r14), %rbx
	movl	(%rbx), %eax
	andq	$16777215, %rax         # imm = 0xFFFFFF
	cmpq	$262277, %rax           # imm = 0x40085
	jne	.LBB1_978
# BB#1014:                              # %L473.i
	movq	8(%rbx), %r14
	xorq	%rsi, %rsi
	movq	%r14, %rdi
	callq	ext_register_operand
	testq	%r13, %rax
	je	.LBB1_978
# BB#1015:                              # %if.then299.i11608
	movq	%r14, recog_data+8(%rip)
	movq	16(%rbx), %rax
	movzbl	(%rax), %ecx
	cmpq	$54, %rcx
	jne	.LBB1_978
# BB#1016:                              # %land.lhs.true311.i
	movq	8(%rax), %rax
	cmpq	$8, %rax
	jne	.LBB1_978
# BB#1017:                              # %L475.i
	movq	24(%rbx), %rax
	movzbl	(%rax), %ecx
	cmpq	$54, %rcx
	movq	%r12, %rcx
	jne	.LBB1_1020
# BB#1018:                              # %land.lhs.true327.i
	movq	8(%rax), %rax
	cmpq	$8, %rax
	jne	.LBB1_1020
# BB#1019:                              # %land.lhs.true332.i
	movzbl	target_flags+3(%rip), %eax
	movq	$71, %rdx
	testq	$2, %rax
	je	.LBB1_4569
.LBB1_1020:                             # %if.end336.i
	movq	8(%rcx), %r14
	movq	%rcx, %r12
	jmp	.LBB1_979
.LBB1_1021:                             # %L1686.i
	movq	8(%r14), %rbx
	movq	$2, %rsi
	movq	%rbx, %rdi
	callq	nonimmediate_operand
	testq	%r13, %rax
	je	.LBB1_978
# BB#1022:                              # %if.then345.i
	movq	%rbx, recog_data+8(%rip)
	movq	16(%r14), %rbx
	movq	$2, %rsi
	movq	%rbx, %rdi
	callq	general_operand
	testq	%r13, %rax
	je	.LBB1_978
# BB#1023:                              # %if.then356.i
	movq	%rbx, recog_data+16(%rip)
	movl	ix86_cpu(%rip), %eax
	movl	x86_partial_reg_stall(%rip), %r14d
	movq	$1, %rbx
	movq	$1, %rdx
	movq	%rax, %rcx
	shlq	%cl, %rdx
	andq	%r14, %rdx
	testq	%r13, %rdx
	jne	.LBB1_1027
# BB#1024:                              # %land.lhs.true364.i
	movabsq	$recog_data, %rax
	movq	$75, %rdi
	movq	$2, %rsi
	movq	%rax, %rdx
	callq	ix86_binary_operator_ok
	testq	%r13, %rax
	je	.LBB1_1026
# BB#1025:                              # %land.lhs.true364.i
	cmpq	$0, 24(%rsp)            # 8-byte Folded Reload
	je	.LBB1_1026
# BB#4577:                              # %if.then369.i11613
	movq	$1, %rax
	movq	24(%rsp), %rcx          # 8-byte Reload
	movl	%eax, (%rcx)
	movq	$221, %rdx
	movq	%rdx, %rax
	jmp	.LBB1_2108
.LBB1_1031:                             # %L2098.i
	movq	8(%r14), %rbx
	movq	$2, %rsi
	movq	%rbx, %rdi
	callq	nonimmediate_operand
	testq	%r13, %rax
	je	.LBB1_978
# BB#1032:                              # %if.then389.i
	movq	%rbx, recog_data+8(%rip)
	movq	16(%r14), %rbx
	movq	$2, %rsi
	movq	%rbx, %rdi
	callq	general_operand
	testq	%r13, %rax
	je	.LBB1_978
# BB#1033:                              # %if.then400.i
	movq	%rbx, recog_data+16(%rip)
	movabsq	$recog_data, %rax
	movq	$76, %rdi
	movq	$2, %rsi
	movq	%rax, %rdx
	callq	ix86_binary_operator_ok
	testq	%r13, %rax
	je	.LBB1_978
# BB#1034:                              # %if.then400.i
	cmpq	$0, 24(%rsp)            # 8-byte Folded Reload
	je	.LBB1_978
# BB#1035:                              # %if.then410.i
	movq	$1, %rax
	movq	24(%rsp), %rcx          # 8-byte Reload
	movl	%eax, (%rcx)
	movq	$246, %rdx
	movq	%rdx, %rax
	jmp	.LBB1_2108
.LBB1_1051:                             # %L3904.i
	movq	8(%r14), %rbx
	movq	$2, %rsi
	movq	%rbx, %rdi
	callq	nonimmediate_operand
	testq	%r13, %rax
	je	.LBB1_978
# BB#1052:                              # %if.then513.i
	movq	%rbx, recog_data+8(%rip)
	movabsq	$recog_data, %rax
	movq	$77, %rdi
	movq	$2, %rsi
	movq	%rax, %rdx
	callq	ix86_unary_operator_ok
	testq	%r13, %rax
	je	.LBB1_978
# BB#1053:                              # %if.then513.i
	cmpq	$0, 24(%rsp)            # 8-byte Folded Reload
	je	.LBB1_978
# BB#1054:                              # %if.then523.i
	movq	$1, %rax
	movq	24(%rsp), %rcx          # 8-byte Reload
	movl	%eax, (%rcx)
	movq	$353, %rdx              # imm = 0x161
	movq	%rdx, %rax
	jmp	.LBB1_2108
.LBB1_1036:                             # %L3009.i
	movq	8(%r14), %rbx
	movq	$2, %rsi
	movq	%rbx, %rdi
	callq	nonimmediate_operand
	testq	%r13, %rax
	je	.LBB1_978
# BB#1037:                              # %if.then420.i
	movq	%rbx, recog_data+8(%rip)
	movq	16(%r14), %rbx
	movq	$2, %rsi
	movq	%rbx, %rdi
	callq	general_operand
	testq	%r13, %rax
	je	.LBB1_978
# BB#1038:                              # %if.then431.i
	movq	%rbx, recog_data+16(%rip)
	movabsq	$recog_data, %rax
	movq	$83, %rdi
	movq	$2, %rsi
	movq	%rax, %rdx
	callq	ix86_binary_operator_ok
	testq	%r13, %rax
	je	.LBB1_978
# BB#1039:                              # %if.then431.i
	cmpq	$0, 24(%rsp)            # 8-byte Folded Reload
	je	.LBB1_978
# BB#1040:                              # %if.then441.i
	movq	$1, %rax
	movq	24(%rsp), %rcx          # 8-byte Reload
	movl	%eax, (%rcx)
	movq	$298, %rdx              # imm = 0x12A
	movq	%rdx, %rax
	jmp	.LBB1_2108
.LBB1_1041:                             # %L3396.i
	movq	8(%r14), %rbx
	movq	$2, %rsi
	movq	%rbx, %rdi
	callq	nonimmediate_operand
	testq	%r13, %rax
	je	.LBB1_978
# BB#1042:                              # %if.then451.i
	movq	%rbx, recog_data+8(%rip)
	movq	16(%r14), %rbx
	movq	$2, %rsi
	movq	%rbx, %rdi
	callq	general_operand
	testq	%r13, %rax
	je	.LBB1_978
# BB#1043:                              # %if.then462.i
	movq	%rbx, recog_data+16(%rip)
	movabsq	$recog_data, %rax
	movq	$84, %rdi
	movq	$2, %rsi
	movq	%rax, %rdx
	callq	ix86_binary_operator_ok
	testq	%r13, %rax
	je	.LBB1_978
# BB#1044:                              # %if.then462.i
	cmpq	$0, 24(%rsp)            # 8-byte Folded Reload
	je	.LBB1_978
# BB#1045:                              # %if.then472.i
	movq	$1, %rax
	movq	24(%rsp), %rcx          # 8-byte Reload
	movl	%eax, (%rcx)
	movq	$320, %rdx              # imm = 0x140
	movq	%rdx, %rax
	jmp	.LBB1_2108
.LBB1_1046:                             # %L3666.i
	movq	8(%r14), %rbx
	movq	$2, %rsi
	movq	%rbx, %rdi
	callq	nonimmediate_operand
	testq	%r13, %rax
	je	.LBB1_978
# BB#1047:                              # %if.then482.i
	movq	%rbx, recog_data+8(%rip)
	movq	16(%r14), %rbx
	movq	$2, %rsi
	movq	%rbx, %rdi
	callq	general_operand
	testq	%r13, %rax
	je	.LBB1_978
# BB#1048:                              # %if.then493.i
	movq	%rbx, recog_data+16(%rip)
	movabsq	$recog_data, %rax
	movq	$85, %rdi
	movq	$2, %rsi
	movq	%rax, %rdx
	callq	ix86_binary_operator_ok
	testq	%r13, %rax
	je	.LBB1_978
# BB#1049:                              # %if.then493.i
	cmpq	$0, 24(%rsp)            # 8-byte Folded Reload
	je	.LBB1_978
# BB#1050:                              # %if.then503.i
	movq	$1, %rax
	movq	24(%rsp), %rcx          # 8-byte Reload
	movl	%eax, (%rcx)
	movq	$338, %rdx              # imm = 0x152
	movq	%rdx, %rax
	jmp	.LBB1_2108
.LBB1_1055:                             # %L4356.i
	movq	8(%r14), %rbx
	movq	$2, %rsi
	movq	%rbx, %rdi
	callq	nonimmediate_operand
	testq	%r13, %rax
	je	.LBB1_978
# BB#1056:                              # %if.then533.i
	movq	%rbx, recog_data+8(%rip)
	movabsq	$recog_data, %rax
	movq	$86, %rdi
	movq	$2, %rsi
	movq	%rax, %rdx
	callq	ix86_unary_operator_ok
	testq	%r13, %rax
	movq	$401, %rdx              # imm = 0x191
	movq	%r12, %rax
	jne	.LBB1_4569
# BB#1057:                              # %if.end542.i
	movq	8(%rax), %r14
	movq	%rax, %r12
	jmp	.LBB1_979
.LBB1_1058:                             # %L4560.i
	movq	8(%r14), %rbx
	movq	$2, %rsi
	movq	%rbx, %rdi
	callq	nonimmediate_operand
	testq	%r13, %rax
	je	.LBB1_978
# BB#1059:                              # %if.then551.i
	movq	%rbx, recog_data+8(%rip)
	movq	16(%r14), %rbx
	movq	$2, %rsi
	movq	%rbx, %rdi
	callq	nonmemory_operand
	testq	%r13, %rax
	je	.LBB1_978
# BB#1060:                              # %if.then562.i
	movq	%rbx, recog_data+16(%rip)
	movl	ix86_cpu(%rip), %eax
	movl	x86_partial_reg_stall(%rip), %r14d
	movq	$1, %rbx
	movq	$1, %rdx
	movq	%rax, %rcx
	shlq	%cl, %rdx
	andq	%r14, %rdx
	testq	%r13, %rdx
	jne	.LBB1_1064
# BB#1061:                              # %land.lhs.true571.i
	movabsq	$recog_data, %rax
	movq	$87, %rdi
	movq	$2, %rsi
	movq	%rax, %rdx
	callq	ix86_binary_operator_ok
	testq	%r13, %rax
	je	.LBB1_1063
# BB#1062:                              # %land.lhs.true571.i
	cmpq	$0, 24(%rsp)            # 8-byte Folded Reload
	je	.LBB1_1063
# BB#4578:                              # %if.then576.i
	movq	$1, %rax
	movq	24(%rsp), %rcx          # 8-byte Reload
	movl	%eax, (%rcx)
	movq	$415, %rdx              # imm = 0x19F
	movq	%rdx, %rax
	jmp	.LBB1_2108
.LBB1_1090:                             # %L5398.i
	movq	8(%r14), %rbx
	movq	$2, %rsi
	movq	%rbx, %rdi
	callq	nonimmediate_operand
	testq	%r13, %rax
	je	.LBB1_978
# BB#1091:                              # %if.then700.i
	movq	%rbx, recog_data+8(%rip)
	movq	16(%r14), %rbx
	movq	$2, %rsi
	movq	%rbx, %rdi
	callq	const_int_1_operand
	testq	%r13, %rax
	je	.LBB1_1097
# BB#1092:                              # %if.then711.i
	movq	%rbx, recog_data+16(%rip)
	movabsq	$recog_data, %rax
	movq	$88, %rdi
	movq	$2, %rsi
	movq	%rax, %rdx
	callq	ix86_binary_operator_ok
	testq	%r13, %rax
	je	.LBB1_1096
# BB#1093:                              # %land.lhs.true724.i
	movl	ix86_cpu(%rip), %eax
	movabsq	$4294967294, %rcx       # imm = 0xFFFFFFFE
	andq	%rax, %rcx
	cmpq	$2, %rcx
	jne	.LBB1_1096
# BB#1094:                              # %land.lhs.true724.i
	cmpq	$0, 24(%rsp)            # 8-byte Folded Reload
	je	.LBB1_1096
# BB#1095:                              # %if.then730.i
	movq	$1, %rax
	movq	24(%rsp), %rcx          # 8-byte Reload
	movl	%eax, (%rcx)
	movq	$474, %rdx              # imm = 0x1DA
	movq	%rdx, %rax
	jmp	.LBB1_2108
.LBB1_1068:                             # %L4922.i
	movq	8(%r14), %rbx
	movq	$2, %rsi
	movq	%rbx, %rdi
	callq	nonimmediate_operand
	testq	%r13, %rax
	je	.LBB1_978
# BB#1069:                              # %if.then596.i
	movq	%rbx, recog_data+8(%rip)
	movq	16(%r14), %rbx
	movq	$2, %rsi
	movq	%rbx, %rdi
	callq	const_int_1_operand
	testq	%r13, %rax
	je	.LBB1_1075
# BB#1070:                              # %if.then607.i
	movq	%rbx, recog_data+16(%rip)
	movabsq	$recog_data, %rax
	movq	$89, %rdi
	movq	$2, %rsi
	movq	%rax, %rdx
	callq	ix86_binary_operator_ok
	testq	%r13, %rax
	je	.LBB1_1074
# BB#1071:                              # %land.lhs.true620.i
	movl	ix86_cpu(%rip), %eax
	movabsq	$4294967294, %rcx       # imm = 0xFFFFFFFE
	andq	%rax, %rcx
	cmpq	$2, %rcx
	jne	.LBB1_1074
# BB#1072:                              # %land.lhs.true620.i
	cmpq	$0, 24(%rsp)            # 8-byte Folded Reload
	je	.LBB1_1074
# BB#1073:                              # %if.then626.i11625
	movq	$1, %rax
	movq	24(%rsp), %rcx          # 8-byte Reload
	movl	%eax, (%rcx)
	movq	$440, %rdx              # imm = 0x1B8
	movq	%rdx, %rax
	jmp	.LBB1_2108
.LBB1_1079:                             # %L5228.i
	movq	8(%r14), %rbx
	movq	$2, %rsi
	movq	%rbx, %rdi
	callq	nonimmediate_operand
	testq	%r13, %rax
	je	.LBB1_978
# BB#1080:                              # %if.then648.i
	movq	%rbx, recog_data+8(%rip)
	movq	16(%r14), %rbx
	movq	$2, %rsi
	movq	%rbx, %rdi
	callq	const_int_1_operand
	testq	%r13, %rax
	je	.LBB1_1086
# BB#1081:                              # %if.then659.i
	movq	%rbx, recog_data+16(%rip)
	movabsq	$recog_data, %rax
	movq	$90, %rdi
	movq	$2, %rsi
	movq	%rax, %rdx
	callq	ix86_binary_operator_ok
	testq	%r13, %rax
	je	.LBB1_1085
# BB#1082:                              # %land.lhs.true672.i
	movl	ix86_cpu(%rip), %eax
	movabsq	$4294967294, %rcx       # imm = 0xFFFFFFFE
	andq	%rax, %rcx
	cmpq	$2, %rcx
	jne	.LBB1_1085
# BB#1083:                              # %land.lhs.true672.i
	cmpq	$0, 24(%rsp)            # 8-byte Folded Reload
	je	.LBB1_1085
# BB#1084:                              # %if.then678.i
	movq	$1, %rax
	movq	24(%rsp), %rcx          # 8-byte Reload
	movl	%eax, (%rcx)
	movq	$462, %rdx              # imm = 0x1CE
	movq	%rdx, %rax
	jmp	.LBB1_2108
.LBB1_1101:                             # %L5542.i
	movq	8(%r14), %rbx
	movq	$2, %rsi
	movq	%rbx, %rdi
	callq	nonimmediate_operand
	testq	%r13, %rax
	je	.LBB1_978
# BB#1102:                              # %if.then752.i
	movq	%rbx, recog_data+8(%rip)
	movq	16(%r14), %rbx
	movq	$2, %rsi
	movq	%rbx, %rdi
	callq	const_int_1_operand
	testq	%r13, %rax
	je	.LBB1_1108
# BB#1103:                              # %if.then763.i
	movq	%rbx, recog_data+16(%rip)
	movabsq	$recog_data, %rax
	movq	$91, %rdi
	movq	$2, %rsi
	movq	%rax, %rdx
	callq	ix86_binary_operator_ok
	testq	%r13, %rax
	je	.LBB1_1107
# BB#1104:                              # %land.lhs.true776.i
	movl	ix86_cpu(%rip), %eax
	movabsq	$4294967294, %rcx       # imm = 0xFFFFFFFE
	andq	%rax, %rcx
	cmpq	$2, %rcx
	jne	.LBB1_1107
# BB#1105:                              # %land.lhs.true776.i
	cmpq	$0, 24(%rsp)            # 8-byte Folded Reload
	je	.LBB1_1107
# BB#1106:                              # %if.then782.i11632
	movq	$1, %rax
	movq	24(%rsp), %rcx          # 8-byte Reload
	movl	%eax, (%rcx)
	movq	$484, %rdx              # imm = 0x1E4
	movq	%rdx, %rax
	jmp	.LBB1_2108
.LBB1_1535:
	movq	$174, %rdx
	movq	%rdx, %rax
	jmp	.LBB1_2108
.LBB1_122:
	movq	%r12, %rsi
	jmp	.LBB1_92
.LBB1_1918:
	movq	$135, %rdx
	movq	%rdx, %rax
	jmp	.LBB1_2108
.LBB1_2054:                             # %L11238.i
	cmpq	$123, %rax
	jne	.LBB1_2055
# BB#2068:                              # %L6202.i
	movq	8(%rbx), %rbx
	movzbl	2(%rbx), %eax
	cmpq	$16, %rax
	jne	.LBB1_2069
# BB#2077:                              # %L11241.i
	movq	$16, %rsi
	movq	%rbx, %rdi
	callq	nonimmediate_operand
	testq	%r13, %rax
	je	.LBB1_2078
# BB#2079:                              # %if.then722.i
	movq	%rbx, recog_data+8(%rip)
	movq	16(%r14), %rbx
	movq	$17, %rsi
	movq	%rbx, %rdi
	callq	register_operand
	testq	%r13, %rax
	je	.LBB1_2080
# BB#2081:                              # %if.then730.i12026
	movl	target_flags(%rip), %eax
	movq	%rbx, recog_data+16(%rip)
	andq	$33554433, %rax         # imm = 0x2000001
	cmpq	$1, %rax
	movq	$555, %rdx              # imm = 0x22B
	jmp	.LBB1_2076
.LBB1_2053:
	movq	%r12, %r8
	jmp	.LBB1_7
.LBB1_2058:
	movq	%r12, %r8
	jmp	.LBB1_7
.LBB1_2060:
	movq	%r12, %r8
	jmp	.LBB1_7
.LBB1_2086:                             # %L11243.i
	cmpq	$123, %rax
	jne	.LBB1_2087
# BB#2096:                              # %L6217.i
	movq	8(%rbx), %rbx
	movzbl	2(%rbx), %eax
	cmpq	$16, %rax
	jne	.LBB1_2097
# BB#2102:                              # %L11246.i
	movq	$16, %rsi
	movq	%rbx, %rdi
	callq	nonimmediate_operand
	testq	%r13, %rax
	je	.LBB1_2103
# BB#2104:                              # %if.then803.i
	movl	target_flags(%rip), %eax
	movq	%rbx, recog_data+16(%rip)
	andq	$33554433, %rax         # imm = 0x2000001
	cmpq	$1, %rax
	movq	$557, %rdx              # imm = 0x22D
	jmp	.LBB1_2076
.LBB1_2085:
	movq	%r12, %r8
	jmp	.LBB1_7
.LBB1_2090:
	movq	%r12, %r8
	jmp	.LBB1_7
.LBB1_1996:                             # %L4262.i
	cmpq	$16, %rax
	jne	.LBB1_1997
# BB#1998:                              # %L11229.i
	movq	$16, %rsi
	movq	%rbx, %rdi
	callq	register_operand
	testq	%r13, %rax
	je	.LBB1_1999
# BB#2000:                              # %if.then428.i
	movl	target_flags(%rip), %eax
	movq	%rbx, recog_data+8(%rip)
	andq	$33554433, %rax         # imm = 0x2000001
	cmpq	$1, %rax
	movq	$388, %rdx              # imm = 0x184
	jmp	.LBB1_1961
.LBB1_2002:
	movq	%r14, %r8
	jmp	.LBB1_7
.LBB1_2146:
	movq	$136, %rdx
	movq	%rdx, %rax
	jmp	.LBB1_2108
.LBB1_2267:                             # %land.lhs.true522.i
	movq	%r13, %rcx
	testq	$1, %rax
	je	.LBB1_2268
# BB#2269:                              # %land.lhs.true522.i
	movl	flag_unsafe_math_optimizations(%rip), %eax
	movq	$581, %rdx              # imm = 0x245
	testq	%rcx, %rax
	jmp	.LBB1_2008
.LBB1_2291:                             # %L11282.i
	cmpq	$123, %rax
	jne	.LBB1_2292
# BB#2305:                              # %L6209.i
	movq	8(%rbx), %rbx
	movzbl	2(%rbx), %eax
	cmpq	$16, %rax
	jne	.LBB1_2306
# BB#2313:                              # %L11285.i
	movq	$16, %rsi
	movq	%rbx, %rdi
	callq	nonimmediate_operand
	testq	%r13, %rax
	je	.LBB1_2314
# BB#2315:                              # %if.then658.i
	movq	%rbx, recog_data+8(%rip)
	movq	16(%r14), %rbx
	movq	$18, %rsi
	movq	%rbx, %rdi
	callq	register_operand
	testq	%r13, %rax
	je	.LBB1_2316
# BB#2317:                              # %if.then666.i
	movzbl	target_flags(%rip), %eax
	movq	%rbx, recog_data+16(%rip)
	movq	$556, %rdx              # imm = 0x22C
	jmp	.LBB1_2225
.LBB1_2290:
	movq	%r12, %r8
	jmp	.LBB1_7
.LBB1_2295:
	movq	%r12, %r8
	jmp	.LBB1_7
.LBB1_2297:
	movq	%r12, %r8
	jmp	.LBB1_7
.LBB1_2322:                             # %L11287.i
	cmpq	$123, %rax
	jne	.LBB1_2323
# BB#2332:                              # %L6224.i
	movq	8(%rbx), %rbx
	movzbl	2(%rbx), %eax
	cmpq	$16, %rax
	jne	.LBB1_2333
# BB#2338:                              # %L11290.i
	movq	$16, %rsi
	movq	%rbx, %rdi
	callq	nonimmediate_operand
	testq	%r13, %rax
	je	.LBB1_2339
# BB#2340:                              # %if.then730.i12151
	movzbl	target_flags(%rip), %eax
	movq	%rbx, recog_data+16(%rip)
	movq	$558, %rdx              # imm = 0x22E
	jmp	.LBB1_2225
.LBB1_2321:
	movq	%r12, %r8
	jmp	.LBB1_7
.LBB1_2326:
	movq	%r12, %r8
	jmp	.LBB1_7
.LBB1_2238:                             # %L4279.i
	cmpq	$16, %rax
	jne	.LBB1_2239
# BB#2240:                              # %L11273.i
	movq	$16, %rsi
	movq	%rbx, %rdi
	callq	register_operand
	testq	%r13, %rax
	je	.LBB1_2241
# BB#2242:                              # %if.then394.i
	movzbl	target_flags(%rip), %eax
	movq	%rbx, recog_data+8(%rip)
	movq	$391, %rdx              # imm = 0x187
	testq	$1, %rax
	jmp	.LBB1_2008
.LBB1_2244:
	movq	%r14, %r8
	jmp	.LBB1_7
.LBB1_1221:
	movq	$168, %rdx
	movq	%rdx, %rax
	jmp	.LBB1_2108
.LBB1_1525:
	movq	$177, %rdx
	movq	%rdx, %rax
	jmp	.LBB1_2108
.LBB1_1963:
	movq	%r14, %r8
	jmp	.LBB1_7
.LBB1_1949:                             # %if.end472.i
	movq	$17, %rsi
	movq	%rbx, %rdi
	callq	register_operand
	testq	%r13, %rax
	je	.LBB1_1950
# BB#2009:                              # %if.then475.i
	movl	target_flags(%rip), %eax
	movq	%rbx, recog_data+8(%rip)
	movq	%rax, %rcx
	andq	$33554497, %rcx         # imm = 0x2000041
	cmpq	$1, %rcx
	jne	.LBB1_2010
# BB#2020:                              # %land.lhs.true526.i
	movl	flag_unsafe_math_optimizations(%rip), %ecx
	andq	$16, %rax
	orq	%rax, %rcx
	testq	%r13, %rcx
	movq	$566, %rdx              # imm = 0x236
	jmp	.LBB1_2008
.LBB1_2012:                             # %L6304.i
	cmpq	$16, %rax
	jne	.LBB1_2013
# BB#2014:                              # %L11233.i
	movq	$16, %rsi
	movq	%rbx, %rdi
	callq	register_operand
	testq	%r13, %rax
	je	.LBB1_2015
# BB#2016:                              # %if.then490.i
	movl	target_flags(%rip), %eax
	movq	%rbx, recog_data+8(%rip)
	andq	$33554497, %rax         # imm = 0x2000041
	cmpq	$1, %rax
	movq	$568, %rdx              # imm = 0x238
	jmp	.LBB1_1961
.LBB1_2018:
	movq	%r14, %r8
	jmp	.LBB1_7
.LBB1_1903:
	movq	%r14, %r8
	jmp	.LBB1_7
.LBB1_2022:
	movq	%r14, %r8
	jmp	.LBB1_7
.LBB1_2024:
	movq	%r14, %r8
	jmp	.LBB1_7
.LBB1_2206:
	movq	%r14, %r8
	jmp	.LBB1_7
.LBB1_2191:                             # %if.end429.i
	movq	$18, %rsi
	movq	%rbx, %rdi
	callq	register_operand
	testq	%r13, %rax
	je	.LBB1_2192
# BB#2246:                              # %if.then432.i
	movl	target_flags(%rip), %eax
	movq	%rbx, recog_data+8(%rip)
	movq	%rax, %rcx
	andq	$65, %rcx
	cmpq	$1, %rcx
	jne	.LBB1_2247
# BB#2257:                              # %land.lhs.true474.i
	movl	flag_unsafe_math_optimizations(%rip), %ecx
	andq	$16, %rax
	orq	%rax, %rcx
	testq	%r13, %rcx
	movq	$567, %rdx              # imm = 0x237
	jmp	.LBB1_2008
.LBB1_2249:                             # %L6310.i
	cmpq	$16, %rax
	jne	.LBB1_2250
# BB#2251:                              # %L11277.i
	movq	$16, %rsi
	movq	%rbx, %rdi
	callq	register_operand
	testq	%r13, %rax
	je	.LBB1_2252
# BB#2253:                              # %if.then447.i
	movl	target_flags(%rip), %eax
	movq	%rbx, recog_data+8(%rip)
	andq	$65, %rax
	cmpq	$1, %rax
	movq	$569, %rdx              # imm = 0x239
.LBB1_1961:                             # %if.then301.i
	movq	%r14, %r8
	jne	.LBB1_7
	jmp	.LBB1_4569
.LBB1_2255:
	movq	%r14, %r8
	jmp	.LBB1_7
.LBB1_2131:
	movq	%r14, %r8
	jmp	.LBB1_7
.LBB1_2260:                             # %land.lhs.true503.i
	testq	$1, %rax
	je	.LBB1_2261
# BB#2262:                              # %land.lhs.true503.i
	movl	flag_unsafe_math_optimizations(%rip), %eax
	movq	$576, %rdx              # imm = 0x240
	jmp	.LBB1_2007
.LBB1_1213:
	movq	$170, %rdx
	movq	%rdx, %rax
	jmp	.LBB1_2108
.LBB1_1225:
	movq	$170, %rdx
	movq	%rdx, %rax
	jmp	.LBB1_2108
.LBB1_1229:
	movq	$171, %rdx
	movq	%rdx, %rax
	jmp	.LBB1_2108
.LBB1_1261:                             # %L11126
	cmpq	$5, %rcx
	movq	%r12, %r8
	jne	.LBB1_1434
# BB#1262:                              # %L4055.i
	movq	8(%rbx), %rbx
	movq	$15, %rsi
	movq	%rbx, %rdi
	movq	%r8, %r14
	callq	register_operand
	movq	%r14, %r8
	testq	%r13, %rax
	je	.LBB1_1434
# BB#1263:                              # %if.then18.i
	movl	target_flags(%rip), %eax
	movq	%rbx, recog_data+8(%rip)
	testq	$1, %rax
	je	.LBB1_1434
# BB#1264:                              # %if.then18.i
	movl	reload_completed(%rip), %eax
	movq	$365, %rdx              # imm = 0x16D
	jmp	.LBB1_1265
.LBB1_1304:                             # %L7093.i
	cmpq	$107, %rax
	jne	.LBB1_1305
# BB#1317:                              # %L7094.i
	movq	8(%r14), %r15
	movl	(%r15), %eax
	andq	$16711680, %rax         # imm = 0xFF0000
	cmpq	$983040, %rax           # imm = 0xF0000
	jne	.LBB1_1305
# BB#1318:                              # %L11140.i
	movq	$15, %rsi
	movq	%r15, %rdi
	callq	register_operand
	testq	%r13, %rax
	je	.LBB1_1323
# BB#1319:                              # %if.then187.i
	movq	%r15, recog_data+8(%rip)
	movq	16(%r14), %r15
	movq	$15, %rsi
	movq	%r15, %rdi
	callq	nonimmediate_operand
	testq	%r13, %rax
	je	.LBB1_1322
# BB#1320:                              # %if.then205.i
	movq	%r15, recog_data+16(%rip)
	movq	16(%rbx), %rax
	movq	recog_data+8(%rip), %rcx
	movq	%rax, %rdi
	movq	%rcx, %rsi
	callq	rtx_equal_p
	testq	%r13, %rax
	je	.LBB1_1321
# BB#1332:                              # %L7097.i
	movq	24(%rbx), %rax
	movq	recog_data+16(%rip), %rcx
	movq	%rax, %rdi
	movq	%rcx, %rsi
	callq	rtx_equal_p
	testq	%r13, %rax
	je	.LBB1_1321
# BB#1333:                              # %land.lhs.true231.i
	movl	target_flags(%rip), %eax
	testq	$327680, %rax           # imm = 0x50000
	je	.LBB1_1321
# BB#1334:                              # %land.lhs.true234.i
	testq	$16, %rax
	je	.LBB1_1321
# BB#1335:                              # %land.lhs.true234.i
	cmpq	$0, 24(%rsp)            # 8-byte Folded Reload
	je	.LBB1_1321
# BB#1336:                              # %if.then239.i
	movq	$1, %rax
	movq	24(%rsp), %rcx          # 8-byte Reload
	movl	%eax, (%rcx)
	movq	$623, %rdx              # imm = 0x26F
	movq	%rdx, %rax
	jmp	.LBB1_2108
.LBB1_1352:                             # %if.end381.i
	movq	8(%rbx), %r14
.LBB1_1353:                             # %if.end370.i
	movq	8(%r14), %r15
.LBB1_1354:                             # %L11144.i
	movq	$15, %rsi
	movq	%r15, %rdi
	callq	nonimmediate_operand
	testq	%r13, %rax
	je	.LBB1_1359
# BB#1355:                              # %if.then355.i
	movq	%r15, recog_data+8(%rip)
	movq	16(%r14), %r15
	movq	$15, %rsi
	movq	%r15, %rdi
	callq	nonimmediate_operand
	testq	%r13, %rax
	je	.LBB1_1358
# BB#1356:                              # %if.then415.i
	movq	%r15, recog_data+16(%rip)
	movq	16(%rbx), %rax
	movq	recog_data+8(%rip), %rcx
	movq	%rax, %rdi
	movq	%rcx, %rsi
	callq	rtx_equal_p
	testq	%r13, %rax
	je	.LBB1_1357
# BB#1368:                              # %L7208.i
	movq	24(%rbx), %rax
	movq	recog_data+16(%rip), %rcx
	movq	%rax, %rdi
	movq	%rcx, %rsi
	callq	rtx_equal_p
	testq	%r13, %rax
	je	.LBB1_1357
# BB#1369:                              # %land.lhs.true441.i
	movl	target_flags(%rip), %eax
	testq	$327680, %rax           # imm = 0x50000
	je	.LBB1_1357
# BB#1370:                              # %land.lhs.true441.i
	andq	$16, %rax
	testq	%r13, %rax
	jne	.LBB1_1357
# BB#1371:                              # %land.lhs.true447.i
	movq	recog_data+8(%rip), %rax
	movzbl	(%rax), %eax
	cmpq	$66, %rax
	jne	.LBB1_1373
# BB#1372:                              # %lor.lhs.false452.i
	movq	recog_data+16(%rip), %rax
	movzbl	(%rax), %eax
	cmpq	$66, %rax
	je	.LBB1_1357
.LBB1_1373:                             # %land.lhs.true457.i
	cmpq	$0, 24(%rsp)            # 8-byte Folded Reload
	je	.LBB1_1357
# BB#1374:                              # %if.then459.i
	movq	$1, %rax
	movq	24(%rsp), %rcx          # 8-byte Reload
	movl	%eax, (%rcx)
	movq	$630, %rdx              # imm = 0x276
	movq	%rdx, %rax
	jmp	.LBB1_2108
.LBB1_1268:                             # %L11126
	cmpq	$27, %rcx
	jne	.LBB1_1269
# BB#1296:                              # %L4240.i
	movq	8(%rbx), %rbx
	movq	$15, %rsi
	movq	%rbx, %rdi
	callq	register_operand
	testq	%r13, %rax
	movq	%r12, %r8
	je	.LBB1_1434
# BB#1297:                              # %if.then30.i
	movl	target_flags(%rip), %eax
	movq	%rbx, recog_data+8(%rip)
	testq	$1, %rax
	je	.LBB1_1434
# BB#1298:                              # %if.then30.i
	movl	reload_completed(%rip), %eax
	movq	$384, %rdx              # imm = 0x180
.LBB1_1265:                             # %if.then18.i
	testq	%r13, %rax
	jne	.LBB1_4569
	jmp	.LBB1_1434
.LBB1_1289:                             # %if.end882.i
	movq	$15, %rsi
	movq	%r14, %rdi
	callq	nonimmediate_operand
	testq	%r13, %rax
	je	.LBB1_1428
# BB#1290:                              # %if.then885.i
	movq	%r14, recog_data+8(%rip)
	movq	16(%rbx), %r14
	movq	$15, %rsi
	movq	%r14, %rdi
	callq	nonimmediate_operand
	testq	%r13, %rax
	je	.LBB1_1427
# BB#1291:                              # %if.then925.i
	movl	target_flags(%rip), %ecx
	movl	ix86_fpmath(%rip), %eax
	movq	%r14, recog_data+16(%rip)
	andq	$1, %rcx
	movq	%r15, %rdi
	je	.LBB1_1446
# BB#1292:                              # %land.lhs.true933.i11759
	testq	$2, %rax
	jne	.LBB1_1441
# BB#1293:                              # %land.lhs.true936.i
	movq	recog_data+24(%rip), %rdx
	movzbl	(%rdx), %edx
	movzbl	rtx_class(%rdx), %edx
	cmpq	$99, %rdx
	jne	.LBB1_1441
# BB#1294:                              # %land.lhs.true943.i
	movq	%rdi, %rsi
	movq	recog_data+8(%rip), %rdx
	movzbl	(%rdx), %edx
	cmpq	$66, %rdx
	jne	.LBB1_1295
# BB#1440:                              # %lor.lhs.false949.i
	movzbl	(%r14), %edx
	cmpq	$66, %rdx
	movq	%rsi, %rdi
	movq	$525, %rdx              # imm = 0x20D
	jne	.LBB1_4569
.LBB1_1441:                             # %land.lhs.true959.i
	movq	%rax, %rdx
	andq	$3, %rdx
	cmpq	$3, %rdx
	jne	.LBB1_1446
# BB#1442:                              # %land.lhs.true969.i
	movq	recog_data+24(%rip), %rdx
	movzbl	(%rdx), %edx
	movzbl	rtx_class(%rdx), %edx
	cmpq	$99, %rdx
	jne	.LBB1_1446
# BB#1443:                              # %land.lhs.true978.i
	movq	%rdi, %rsi
	movq	recog_data+8(%rip), %rdx
	movzbl	(%rdx), %edx
	cmpq	$66, %rdx
	jne	.LBB1_1444
# BB#1445:                              # %lor.lhs.false984.i
	movzbl	(%r14), %edx
	cmpq	$66, %rdx
	movq	%rsi, %rdi
	movq	$526, %rdx              # imm = 0x20E
	jne	.LBB1_4569
.LBB1_1446:                             # %L6049.i
	movq	%rax, %rbx
	andq	$2, %rbx
	je	.LBB1_1451
# BB#1447:                              # %land.lhs.true995.i
	movq	recog_data+24(%rip), %rsi
	movzbl	(%rsi), %esi
	movzbl	rtx_class(%rsi), %esi
	cmpq	$99, %rsi
	jne	.LBB1_1451
# BB#1448:                              # %land.lhs.true1004.i
	movq	recog_data+8(%rip), %rsi
	movzbl	(%rsi), %esi
	cmpq	$66, %rsi
	jne	.LBB1_1449
# BB#1450:                              # %lor.lhs.false1010.i
	movzbl	(%r14), %esi
	cmpq	$66, %rsi
	movq	$527, %rdx              # imm = 0x20F
	jne	.LBB1_4569
.LBB1_1451:                             # %L6085.i
	testq	%r13, %rcx
	je	.LBB1_1464
# BB#1452:                              # %land.lhs.true1020.i
	movq	%rdi, %rsi
	testq	%r13, %rbx
	je	.LBB1_1453
# BB#1458:                              # %land.lhs.true1049.i
	andq	$3, %rax
	cmpq	$3, %rax
	movq	%rsi, %rdi
	jne	.LBB1_1464
# BB#1459:                              # %land.lhs.true1049.i.land.lhs.true1059.i_crit_edge
	movq	recog_data+24(%rip), %rax
	movl	(%rax), %ecx
	jmp	.LBB1_1460
.LBB1_2034:
	movq	%r12, %r8
	jmp	.LBB1_7
.LBB1_2036:
	movq	%r12, %r8
	jmp	.LBB1_7
.LBB1_2038:
	movq	%r12, %r8
	jmp	.LBB1_7
.LBB1_2040:
	movq	%r12, %r8
	jmp	.LBB1_7
.LBB1_2043:                             # %L7067.i
	movq	16(%r14), %rbx
	movq	$17, %rsi
	movq	%rbx, %rdi
	callq	register_operand
	testq	%r13, %rax
	je	.LBB1_2044
# BB#2045:                              # %if.then622.i12020
	movq	%rbx, recog_data+16(%rip)
	movq	24(%r14), %rbx
	movq	$17, %rsi
	movq	%rbx, %rdi
	callq	register_operand
	testq	%r13, %rax
	je	.LBB1_2046
# BB#2047:                              # %if.then630.i
	movl	target_flags(%rip), %eax
	movq	%rbx, recog_data+24(%rip)
	testq	$33554432, %rax         # imm = 0x2000000
	je	.LBB1_2049
# BB#2048:
	movq	%r12, %r8
	jmp	.LBB1_7
.LBB1_105:                              # %L10934.i
	movq	%rsi, %r12
	movq	$16, %rsi
	movq	%r14, %rdi
	callq	register_operand
	testq	%r13, %rax
	je	.LBB1_98
# BB#106:                               # %if.then213.i
	movq	%r14, recog_data+8(%rip)
	movq	16(%rbx), %r14
	movq	$16, %rsi
	movq	%r14, %rdi
	callq	nonimmediate_operand
	testq	%r13, %rax
	je	.LBB1_4571
# BB#107:                               # %if.then221.i
	movzbl	target_flags(%rip), %eax
	movq	%r14, recog_data+16(%rip)
	movq	$22, %rdx
	jmp	.LBB1_103
.LBB1_108:                              # %L10935.i
	movq	%rsi, %r12
	movq	$17, %rsi
	movq	%r14, %rdi
	callq	register_operand
	testq	%r13, %rax
	je	.LBB1_98
# BB#109:                               # %if.then244.i
	movq	%r14, recog_data+8(%rip)
	movq	16(%rbx), %r14
	movq	$17, %rsi
	movq	%r14, %rdi
	callq	register_operand
	testq	%r13, %rax
	je	.LBB1_4571
# BB#110:                               # %if.then252.i
	movl	target_flags(%rip), %eax
	movq	%r14, recog_data+16(%rip)
	andq	$33554433, %rax         # imm = 0x2000001
	cmpq	$1, %rax
	movq	$25, %rdx
	movq	%r12, %rcx
	jne	.LBB1_104
	jmp	.LBB1_4569
.LBB1_111:                              # %L10936.i
	movq	%rsi, %r12
	movq	$18, %rsi
	movq	%r14, %rdi
	callq	register_operand
	testq	%r13, %rax
	je	.LBB1_98
# BB#112:                               # %if.then278.i
	movq	%r14, recog_data+8(%rip)
	movq	16(%rbx), %r14
	movq	$18, %rsi
	movq	%r14, %rdi
	callq	register_operand
	testq	%r13, %rax
	je	.LBB1_4571
# BB#113:                               # %if.then286.i
	movzbl	target_flags(%rip), %eax
	movq	%r14, recog_data+16(%rip)
	movq	$26, %rdx
.LBB1_103:                              # %if.then190.i
	testq	$1, %rax
	movq	%r12, %rcx
	jne	.LBB1_4569
.LBB1_104:                              # %if.end199.i
	movq	16(%rcx), %rax
	movq	%rcx, %r12
	movq	8(%rax), %rax
	movq	8(%rax), %rbx
	movq	8(%rbx), %r14
	jmp	.LBB1_98
.LBB1_568:
	movq	$157, %rdx
	movq	%rdx, %rax
	jmp	.LBB1_2108
.LBB1_621:                              # %L688.i
	movq	%rdi, %r14
	movq	8(%r12), %rbx
	movzbl	2(%rbx), %eax
	cmpq	$2, %rax
	jne	.LBB1_622
# BB#635:                               # %L10989.i
	movq	$2, %rsi
	movq	%rbx, %rdi
	callq	nonimmediate_operand
	testq	%r13, %rax
	movq	%r14, %rdi
	je	.LBB1_397
# BB#636:                               # %if.then969.i
	movq	%rdi, %r8
	movq	%rbx, recog_data+8(%rip)
	movl	ix86_cpu(%rip), %ecx
	movl	x86_zero_extend_with_and(%rip), %edx
	movq	$1, %rax
	shlq	%cl, %rax
	andq	%rdx, %rax
	andq	%r13, %rax
	movabsq	$0, %rcx
	movabsq	$1, %rsi
	movq	%rcx, %rdx
	je	.LBB1_638
# BB#637:                               # %if.then969.i
	movq	%rsi, %rdx
.LBB1_638:                              # %if.then969.i
	testq	%rax, %rax
	movq	%rcx, %rax
	jne	.LBB1_640
# BB#639:                               # %if.then969.i
	movq	%rsi, %rax
.LBB1_640:                              # %if.then969.i
	movl	optimize_size(%rip), %edi
	testq	%rdi, %rdi
	movq	%rcx, %rdi
	jne	.LBB1_642
# BB#641:                               # %if.then969.i
	movq	%rsi, %rdi
.LBB1_642:                              # %if.then969.i
	je	.LBB1_644
# BB#643:                               # %if.then969.i
	movq	%rsi, %rcx
.LBB1_644:                              # %if.then969.i
	cmpq	$0, 24(%rsp)            # 8-byte Folded Reload
	je	.LBB1_647
# BB#645:                               # %if.then969.i
	andq	%rdi, %rdx
	je	.LBB1_647
# BB#646:                               # %if.then979.i
	movq	$1, %rax
	movq	24(%rsp), %rcx          # 8-byte Reload
	movl	%eax, (%rcx)
	movq	$112, %rdx
	movq	%rdx, %rax
	jmp	.LBB1_2108
.LBB1_673:                              # %L2348.i
	movq	%rdi, 8(%rsp)           # 8-byte Spill
	movq	8(%r12), %rbx
	movl	(%rbx), %eax
	andq	$16777215, %rax         # imm = 0xFFFFFF
	cmpq	$327770, %rax           # imm = 0x5005A
	jne	.LBB1_674
# BB#675:                               # %L2349.i
	movq	8(%rbx), %r14
	movl	(%r14), %eax
	andq	$16777215, %rax         # imm = 0xFFFFFF
	cmpq	$327758, %rax           # imm = 0x5004E
	jne	.LBB1_676
# BB#677:                               # %L2350.i
	movq	8(%r14), %rax
	movl	(%rax), %ecx
	movq	%rcx, %rdx
	andq	$16711680, %rdx         # imm = 0xFF0000
	cmpq	$327680, %rdx           # imm = 0x50000
	jne	.LBB1_678
# BB#679:                               # %L10994.i
	andq	$65535, %rcx            # imm = 0xFFFF
	cmpq	$120, %rcx
	jne	.LBB1_680
# BB#697:                               # %L2428.i
	movq	8(%rax), %rax
	movq	%rax, (%rsp)            # 8-byte Spill
	movq	$4, %rsi
	movq	%rax, %rdi
	callq	nonimmediate_operand
	testq	%r13, %rax
	je	.LBB1_698
# BB#699:                               # %if.then1156.i
	movq	(%rsp), %rax            # 8-byte Reload
	movq	%rax, recog_data+8(%rip)
	movq	16(%r14), %rax
	movl	(%rax), %ecx
	andq	$16777215, %rcx         # imm = 0xFFFFFF
	cmpq	$327800, %rcx           # imm = 0x50078
	jne	.LBB1_700
# BB#701:                               # %L2430.i
	movq	8(%rax), %r14
	movq	$4, %rsi
	movq	%r14, %rdi
	callq	nonimmediate_operand
	testq	%r13, %rax
	je	.LBB1_702
# BB#703:                               # %if.then1177.i
	movq	%r14, recog_data+16(%rip)
	movq	16(%rbx), %rax
	movzbl	(%rax), %ecx
	cmpq	$54, %rcx
	jne	.LBB1_704
# BB#705:                               # %land.lhs.true1186.i
	movq	8(%rax), %rax
	cmpq	$32, %rax
	jne	.LBB1_706
# BB#707:                               # %land.lhs.true1191.i
	movq	recog_data+8(%rip), %rax
	movzbl	(%rax), %eax
	cmpq	$66, %rax
	jne	.LBB1_710
# BB#708:                               # %lor.lhs.false1196.i
	movzbl	(%r14), %eax
	cmpq	$66, %rax
	je	.LBB1_709
.LBB1_710:                              # %land.lhs.true1201.i
	cmpq	$0, 24(%rsp)            # 8-byte Folded Reload
	movq	8(%rsp), %rdi           # 8-byte Reload
	je	.LBB1_397
# BB#711:                               # %if.then1203.i
	movq	$2, %rax
	movq	24(%rsp), %rcx          # 8-byte Reload
	movl	%eax, (%rcx)
	movq	$264, %rdx              # imm = 0x108
	movq	%rdx, %rax
	jmp	.LBB1_2108
.LBB1_664:                              # %L1065.i
	movq	%rdi, %r14
	movq	8(%r12), %rbx
	movzbl	2(%rbx), %eax
	cmpq	$16, %rax
	jne	.LBB1_665
# BB#670:                               # %L10993.i
	movq	$16, %rsi
	movq	%rbx, %rdi
	callq	nonimmediate_operand
	testq	%r13, %rax
	movq	%r14, %rdi
	je	.LBB1_397
# BB#671:                               # %if.then1046.i
	movzbl	target_flags+2(%rip), %eax
	movq	%rbx, recog_data+8(%rip)
	movq	$161, %rdx
	testq	$4, %rax
	jne	.LBB1_4569
# BB#672:                               # %if.end1052.i
	movq	16(%rdi), %r12
	jmp	.LBB1_397
.LBB1_602:                              # %L432.i
	movq	%rdi, %r14
	movq	8(%r12), %rbx
	xorq	%rsi, %rsi
	movq	%rbx, %rdi
	callq	ext_register_operand
	testq	%r13, %rax
	je	.LBB1_603
# BB#604:                               # %if.then859.i
	movq	%rbx, recog_data+8(%rip)
	movq	16(%r12), %rax
	movzbl	(%rax), %ecx
	cmpq	$54, %rcx
	jne	.LBB1_605
# BB#606:                               # %land.lhs.true868.i
	movq	8(%rax), %rax
	cmpq	$8, %rax
	jne	.LBB1_607
# BB#608:                               # %L434.i
	movq	24(%r12), %rax
	movzbl	(%rax), %ecx
	cmpq	$54, %rcx
	jne	.LBB1_609
# BB#610:                               # %land.lhs.true881.i
	movq	8(%rax), %rax
	cmpq	$8, %rax
	movq	$64, %rdx
	jmp	.LBB1_611
.LBB1_612:                              # %L466.i
	movq	%rdi, %r14
	movq	8(%r12), %rbx
	xorq	%rsi, %rsi
	movq	%rbx, %rdi
	callq	ext_register_operand
	testq	%r13, %rax
	je	.LBB1_613
# BB#614:                               # %if.then893.i
	movq	%rbx, recog_data+8(%rip)
	movq	16(%r12), %rax
	movzbl	(%rax), %ecx
	cmpq	$54, %rcx
	jne	.LBB1_615
# BB#616:                               # %land.lhs.true902.i
	movq	8(%rax), %rax
	cmpq	$8, %rax
	jne	.LBB1_617
# BB#618:                               # %L468.i
	movq	24(%r12), %rax
	movzbl	(%rax), %ecx
	cmpq	$54, %rcx
	jne	.LBB1_619
# BB#620:                               # %land.lhs.true915.i
	movq	8(%rax), %rax
	cmpq	$8, %rax
	movq	$70, %rdx
.LBB1_611:                              # %land.lhs.true881.i
	movq	%r14, %rdi
	jne	.LBB1_397
	jmp	.LBB1_4569
.LBB1_658:                              # %L813.i
	cmpq	$3, %rax
	jne	.LBB1_659
# BB#660:                               # %L10990.i
	movq	$3, %rsi
	movq	%rbx, %rdi
	callq	nonimmediate_operand
	testq	%r13, %rax
	movq	%r14, %rdi
	je	.LBB1_397
# BB#661:                               # %if.then1014.i
	movq	%rbx, recog_data+8(%rip)
	movq	$123, %rdx
	movq	%rdx, %rax
	jmp	.LBB1_2108
.LBB1_732:                              # %L7019.i
	xorq	%rsi, %rsi
	movq	%rbx, %rdi
	callq	ix86_comparison_operator
	testq	%r13, %rax
	je	.LBB1_733
# BB#734:                               # %if.then1338.i
	movq	%rbx, recog_data+8(%rip)
	movq	8(%rbx), %rax
	movzbl	(%rax), %ecx
	cmpq	$61, %rcx
	jne	.LBB1_735
# BB#746:                               # %land.lhs.true1412.i
	movl	8(%rax), %eax
	cmpq	$17, %rax
	jne	.LBB1_747
# BB#748:                               # %L7021.i
	movq	16(%rbx), %rax
	movzbl	(%rax), %ecx
	cmpq	$54, %rcx
	jne	.LBB1_749
# BB#750:                               # %land.lhs.true1425.i
	cmpq	$0, 8(%rax)
	je	.LBB1_752
# BB#751:
	movq	%r14, %rdi
	jmp	.LBB1_397
.LBB1_2271:
	movq	%r12, %r8
	jmp	.LBB1_7
.LBB1_2273:
	movq	%r12, %r8
	jmp	.LBB1_7
.LBB1_2275:
	movq	%r12, %r8
	jmp	.LBB1_7
.LBB1_2277:
	movq	%r12, %r8
	jmp	.LBB1_7
.LBB1_2280:                             # %L7076.i
	movq	16(%r14), %rbx
	movq	$18, %rsi
	movq	%rbx, %rdi
	callq	register_operand
	testq	%r13, %rax
	je	.LBB1_2281
# BB#2282:                              # %if.then567.i
	movq	%rbx, recog_data+16(%rip)
	movq	24(%r14), %rbx
	movq	$18, %rsi
	movq	%rbx, %rdi
	callq	register_operand
	testq	%r13, %rax
	je	.LBB1_2283
# BB#2284:                              # %if.then575.i
	movq	%rbx, recog_data+24(%rip)
	movl	ix86_arch(%rip), %eax
	movl	x86_cmove(%rip), %edx
	movq	$1, %rsi
	movq	%rax, %rcx
	shlq	%cl, %rsi
	andq	%rdx, %rsi
	testq	%r13, %rsi
	je	.LBB1_2286
# BB#2285:
	movq	$622, %rdx              # imm = 0x26E
	movq	%rdx, %rax
	jmp	.LBB1_2108
.LBB1_1658:                             # %if.end252.i
	movq	$16, %rsi
	movq	%rbx, %rdi
	callq	register_operand
	testq	%r13, %rax
	movq	%r14, %r8
	je	.LBB1_1868
# BB#1659:                              # %if.then255.i
	movl	target_flags(%rip), %eax
	movq	%rbx, recog_data+8(%rip)
	testq	$64, %rax
	jne	.LBB1_1868
# BB#1660:                              # %land.lhs.true277.i
	testq	$1, %rax
	je	.LBB1_1868
# BB#1661:                              # %land.lhs.true277.i
	movl	flag_unsafe_math_optimizations(%rip), %eax
	movq	$577, %rdx              # imm = 0x241
	jmp	.LBB1_1600
.LBB1_1667:                             # %L7139.i
	cmpq	$107, %rax
	jne	.LBB1_1668
# BB#1680:                              # %L7140.i
	movq	8(%r14), %r15
	movl	(%r15), %eax
	andq	$16711680, %rax         # imm = 0xFF0000
	cmpq	$1048576, %rax          # imm = 0x100000
	jne	.LBB1_1668
# BB#1681:                              # %L11188.i
	movq	$16, %rsi
	movq	%r15, %rdi
	callq	register_operand
	testq	%r13, %rax
	je	.LBB1_1686
# BB#1682:                              # %if.then324.i
	movq	%r15, recog_data+8(%rip)
	movq	16(%r14), %r15
	movq	$16, %rsi
	movq	%r15, %rdi
	callq	nonimmediate_operand
	testq	%r13, %rax
	je	.LBB1_1685
# BB#1683:                              # %if.then342.i
	movq	%r15, recog_data+16(%rip)
	movq	16(%rbx), %rax
	movq	recog_data+8(%rip), %rcx
	movq	%rax, %rdi
	movq	%rcx, %rsi
	callq	rtx_equal_p
	testq	%r13, %rax
	je	.LBB1_1684
# BB#1695:                              # %L7143.i
	movq	24(%rbx), %rax
	movq	recog_data+16(%rip), %rcx
	movq	%rax, %rdi
	movq	%rcx, %rsi
	callq	rtx_equal_p
	testq	%r13, %rax
	je	.LBB1_1684
# BB#1696:                              # %land.lhs.true368.i
	movl	target_flags(%rip), %eax
	andq	$262160, %rax           # imm = 0x40010
	cmpq	$262160, %rax           # imm = 0x40010
	jne	.LBB1_1684
# BB#1697:                              # %land.lhs.true374.i11842
	movl	ix86_fpmath(%rip), %eax
	testq	$2, %rax
	je	.LBB1_1684
# BB#1698:                              # %land.lhs.true374.i11842
	cmpq	$0, 24(%rsp)            # 8-byte Folded Reload
	je	.LBB1_1684
# BB#1699:                              # %if.then379.i11843
	movq	$1, %rax
	movq	24(%rsp), %rcx          # 8-byte Reload
	movl	%eax, (%rcx)
	movq	$626, %rdx              # imm = 0x272
	movq	%rdx, %rax
	jmp	.LBB1_2108
.LBB1_1717:                             # %if.end527.i
	movq	8(%rbx), %r14
.LBB1_1718:                             # %if.end516.i
	movq	8(%r14), %r15
.LBB1_1719:                             # %L11192.i
	movq	$16, %rsi
	movq	%r15, %rdi
	callq	nonimmediate_operand
	testq	%r13, %rax
	je	.LBB1_1724
# BB#1720:                              # %if.then501.i
	movq	%r15, recog_data+8(%rip)
	movq	16(%r14), %r15
	movq	$16, %rsi
	movq	%r15, %rdi
	callq	nonimmediate_operand
	testq	%r13, %rax
	je	.LBB1_1723
# BB#1721:                              # %if.then564.i11872
	movq	%r15, recog_data+16(%rip)
	movq	16(%rbx), %rax
	movq	recog_data+8(%rip), %rcx
	movq	%rax, %rdi
	movq	%rcx, %rsi
	callq	rtx_equal_p
	testq	%r13, %rax
	je	.LBB1_1722
# BB#1734:                              # %L7254.i
	movq	24(%rbx), %rax
	movq	recog_data+16(%rip), %rcx
	movq	%rax, %rdi
	movq	%rcx, %rsi
	callq	rtx_equal_p
	testq	%r13, %rax
	je	.LBB1_1722
# BB#1735:                              # %land.lhs.true590.i
	movl	target_flags(%rip), %eax
	testq	$262144, %rax           # imm = 0x40000
	je	.LBB1_1722
# BB#1736:                              # %land.lhs.true593.i
	movl	ix86_fpmath(%rip), %ecx
	testq	$2, %rcx
	je	.LBB1_1722
# BB#1737:                              # %land.lhs.true593.i
	andq	$16, %rax
	testq	%r13, %rax
	jne	.LBB1_1722
# BB#1738:                              # %land.lhs.true599.i
	movq	recog_data+8(%rip), %rax
	movzbl	(%rax), %eax
	cmpq	$66, %rax
	jne	.LBB1_1740
# BB#1739:                              # %lor.lhs.false604.i
	movq	recog_data+16(%rip), %rax
	movzbl	(%rax), %eax
	cmpq	$66, %rax
	je	.LBB1_1722
.LBB1_1740:                             # %land.lhs.true609.i
	cmpq	$0, 24(%rsp)            # 8-byte Folded Reload
	je	.LBB1_1722
# BB#1741:                              # %if.then611.i
	movq	$1, %rax
	movq	24(%rsp), %rcx          # 8-byte Reload
	movl	%eax, (%rcx)
	movq	$633, %rdx              # imm = 0x279
	movq	%rdx, %rax
	jmp	.LBB1_2108
.LBB1_1603:                             # %L11165
	cmpq	$27, %rcx
	jne	.LBB1_1604
# BB#1639:                              # %L4245.i
	movq	8(%rbx), %rbx
	movl	(%rbx), %eax
	movq	%rax, %rcx
	andq	$16711680, %rcx         # imm = 0xFF0000
	cmpq	$1048576, %rcx          # imm = 0x100000
	movq	%r12, %r8
	jne	.LBB1_1868
# BB#1640:                              # %L11178.i
	movq	%r8, %r14
	andq	$65535, %rax            # imm = 0xFFFF
	cmpq	$123, %rax
	jne	.LBB1_1641
# BB#1644:                              # %L4251.i
	movq	8(%rbx), %rbx
	movq	$15, %rsi
	movq	%rbx, %rdi
	callq	register_operand
	testq	%r13, %rax
	movq	%r14, %r8
	je	.LBB1_1868
# BB#1645:                              # %if.then70.i11794
	movzbl	target_flags(%rip), %eax
	movq	%rbx, recog_data+8(%rip)
	movq	$386, %rdx              # imm = 0x182
.LBB1_1638:                             # %if.then35.i
	testq	$1, %rax
	jne	.LBB1_4569
	jmp	.LBB1_1868
.LBB1_1799:                             # %L11198.i
	cmpq	$123, %rax
	jne	.LBB1_1800
# BB#1817:                              # %L6148.i
	movq	8(%r14), %r14
	movq	$15, %rsi
	movq	%r14, %rdi
	callq	nonimmediate_operand
	testq	%r13, %rax
	movq	%r15, %r8
	je	.LBB1_1868
# BB#1818:                              # %if.then1108.i
	movq	%r14, recog_data+8(%rip)
	movq	16(%rbx), %rbx
	movq	$16, %rsi
	movq	%rbx, %rdi
	movq	%r8, %r14
	callq	register_operand
	movq	%r14, %r8
	testq	%r13, %rax
	je	.LBB1_1868
# BB#1819:                              # %if.then1116.i
	movl	target_flags(%rip), %eax
	movq	%rbx, recog_data+16(%rip)
	testq	$1, %rax
	je	.LBB1_1868
# BB#1820:                              # %land.lhs.true1121.i
	testq	$262144, %rax           # imm = 0x40000
	je	.LBB1_1822
# BB#1821:                              # %lor.lhs.false1124.i
	movzbl	ix86_fpmath(%rip), %eax
	testq	$2, %rax
	jne	.LBB1_1868
.LBB1_1822:                             # %land.lhs.true1127.i
	movq	%r8, %rcx
	movq	recog_data+8(%rip), %rax
	movzbl	(%rax), %eax
	cmpq	$66, %rax
	jne	.LBB1_1823
# BB#1824:                              # %lor.lhs.false1132.i
	movzbl	(%rbx), %eax
	cmpq	$66, %rax
	movq	%rcx, %r8
	movq	$543, %rdx              # imm = 0x21F
	je	.LBB1_1868
	jmp	.LBB1_4569
.LBB1_1825:                             # %if.end1146.i
	movq	8(%rbx), %r14
	jmp	.LBB1_1801
.LBB1_1635:
	movq	$528, %rdx              # imm = 0x210
	movq	%rdx, %rax
	jmp	.LBB1_2108
.LBB1_1833:
	movq	$529, %rdx              # imm = 0x211
	movq	%rdx, %rax
	jmp	.LBB1_2108
.LBB1_1839:
	movq	$530, %rdx              # imm = 0x212
	movq	%rdx, %rax
	jmp	.LBB1_2108
.LBB1_1846:
	movq	$538, %rdx              # imm = 0x21A
	movq	%rdx, %rax
	jmp	.LBB1_2108
.LBB1_1852:
	movq	$539, %rdx              # imm = 0x21B
	movq	%rdx, %rax
	jmp	.LBB1_2108
.LBB1_1586:                             # %if.end205.i
	movq	$16, %rsi
	movq	%rbx, %rdi
	callq	register_operand
	testq	%r13, %rax
	movq	%r14, %r8
	je	.LBB1_1868
# BB#1587:                              # %if.then208.i
	movl	target_flags(%rip), %eax
	movq	%rbx, recog_data+8(%rip)
	testq	$64, %rax
	jne	.LBB1_1868
# BB#1588:                              # %land.lhs.true230.i
	testq	$1, %rax
	je	.LBB1_1868
# BB#1589:                              # %land.lhs.true230.i
	movl	flag_unsafe_math_optimizations(%rip), %eax
	movq	$572, %rdx              # imm = 0x23C
	jmp	.LBB1_1600
.LBB1_1966:
	movq	%r14, %r8
	jmp	.LBB1_7
.LBB1_1959:
	movq	%r14, %r8
	jmp	.LBB1_7
.LBB1_2031:
	movq	%r14, %r8
	jmp	.LBB1_7
.LBB1_1992:
	movq	%r14, %r8
	jmp	.LBB1_7
.LBB1_2004:                             # %land.lhs.true452.i
	testq	$1, %rax
	je	.LBB1_2005
# BB#2006:                              # %land.lhs.true452.i
	movl	reload_completed(%rip), %eax
	movq	$387, %rdx              # imm = 0x183
.LBB1_2007:                             # %land.lhs.true452.i
	testq	%r13, %rax
	jmp	.LBB1_2008
.LBB1_2233:
	movq	%r14, %r8
	jmp	.LBB1_7
.LBB1_2235:
	movq	%r14, %r8
	jmp	.LBB1_7
.LBB1_2209:
	movq	%r14, %r8
	jmp	.LBB1_7
.LBB1_2200:
	movq	%r14, %r8
	jmp	.LBB1_7
.LBB1_2202:
	movq	%r14, %r8
	jmp	.LBB1_7
.LBB1_1943:
	movq	%rbx, %r8
	jmp	.LBB1_7
.LBB1_1969:
	movq	%rbx, %r8
	jmp	.LBB1_7
.LBB1_1971:                             # %if.end348.i
	movq	$17, %rsi
	movq	%r14, %rdi
	callq	register_operand
	testq	%r13, %rax
	je	.LBB1_1972
# BB#1973:                              # %if.then351.i
	movl	target_flags(%rip), %eax
	movq	%r14, recog_data+8(%rip)
	testq	$33554432, %rax         # imm = 0x2000000
	je	.LBB1_1985
# BB#1974:
	movq	%rbx, %r8
	jmp	.LBB1_7
.LBB1_1976:                             # %L4077.i
	cmpq	$16, %rax
	jne	.LBB1_1977
# BB#1978:                              # %L11225.i
	movq	$16, %rsi
	movq	%r14, %rdi
	callq	register_operand
	testq	%r13, %rax
	je	.LBB1_1979
# BB#1980:                              # %if.then366.i
	movl	target_flags(%rip), %eax
	movq	%r14, recog_data+8(%rip)
	andq	$33554433, %rax         # imm = 0x2000001
	cmpq	$1, %rax
	movq	$369, %rdx              # imm = 0x171
.LBB1_1981:                             # %if.then366.i
	movq	%rbx, %r8
	jne	.LBB1_7
	jmp	.LBB1_4569
.LBB1_1983:
	movq	%rbx, %r8
	jmp	.LBB1_7
.LBB1_592:
	movq	%rbx, %rdi
	jmp	.LBB1_397
.LBB1_713:
	movq	%rbx, %rdi
	jmp	.LBB1_397
.LBB1_715:
	movq	%rbx, %rdi
	jmp	.LBB1_397
.LBB1_717:
	movq	%rbx, %rdi
	jmp	.LBB1_397
.LBB1_719:
	movq	%rbx, %rdi
	jmp	.LBB1_397
.LBB1_721:
	movq	%rbx, %rdi
	jmp	.LBB1_397
.LBB1_726:                              # %if.end1290.i
	movq	%rdx, %rdi
	movq	16(%rdi), %r12
	jmp	.LBB1_397
.LBB1_2185:
	movq	%r12, %r8
	jmp	.LBB1_7
.LBB1_2212:
	movq	%r12, %r8
	jmp	.LBB1_7
.LBB1_2214:                             # %if.end323.i
	movq	$18, %rsi
	movq	%rbx, %rdi
	callq	register_operand
	testq	%r13, %rax
	je	.LBB1_2215
# BB#2216:                              # %if.then326.i
	movl	target_flags(%rip), %eax
	movq	%rbx, recog_data+8(%rip)
	testq	$1, %rax
	je	.LBB1_2217
# BB#2218:                              # %if.then326.i
	movl	reload_completed(%rip), %eax
	movq	$371, %rdx              # imm = 0x173
	testq	%r13, %rax
	jmp	.LBB1_2226
.LBB1_2220:                             # %L4094.i
	cmpq	$16, %rax
	jne	.LBB1_2221
# BB#2222:                              # %L11269.i
	movq	$16, %rsi
	movq	%rbx, %rdi
	callq	register_operand
	testq	%r13, %rax
	je	.LBB1_2223
# BB#2224:                              # %if.then341.i
	movzbl	target_flags(%rip), %eax
	movq	%rbx, recog_data+8(%rip)
	movq	$372, %rdx              # imm = 0x174
	jmp	.LBB1_2225
.LBB1_2228:
	movq	%r12, %r8
	jmp	.LBB1_7
.LBB1_1597:                             # %if.end24.i
	movq	$16, %rsi
	movq	%rbx, %rdi
	callq	register_operand
	testq	%r13, %rax
	movq	%r14, %r8
	je	.LBB1_1868
# BB#1598:                              # %if.then27.i
	movl	target_flags(%rip), %eax
	movq	%rbx, recog_data+8(%rip)
	testq	$1, %rax
	je	.LBB1_1868
# BB#1599:                              # %if.then27.i
	movl	reload_completed(%rip), %eax
	movq	$366, %rdx              # imm = 0x16E
	jmp	.LBB1_1600
.LBB1_483:
	movq	%rbx, %r8
	jmp	.LBB1_424
.LBB1_485:
	movq	%rbx, %r8
	jmp	.LBB1_424
.LBB1_487:
	movq	%rbx, %r8
	jmp	.LBB1_424
.LBB1_489:
	movq	%rbx, %r8
	jmp	.LBB1_424
.LBB1_491:
	movq	%rbx, %r8
	jmp	.LBB1_424
.LBB1_493:
	movq	%rbx, %r8
	jmp	.LBB1_424
.LBB1_495:                              # %if.end372.i
	movq	$2, %rsi
	movq	%r12, %rdi
	callq	general_operand
	testq	%r13, %rax
	je	.LBB1_500
# BB#496:                               # %if.then375.i
	movl	target_flags(%rip), %eax
	movq	%r12, recog_data+16(%rip)
	testq	$33554432, %rax         # imm = 0x2000000
	jne	.LBB1_499
# BB#497:                               # %if.then375.i
	cmpq	$0, 24(%rsp)            # 8-byte Folded Reload
	je	.LBB1_499
# BB#498:                               # %if.then423.i
	movq	$1, %rax
	movq	24(%rsp), %rcx          # 8-byte Reload
	movl	%eax, (%rcx)
	movq	$227, %rdx
	movq	%rdx, %rax
	jmp	.LBB1_2108
.LBB1_505:
	movq	%rbx, %r8
	jmp	.LBB1_424
.LBB1_507:
	movq	%rbx, %r8
	jmp	.LBB1_424
.LBB1_509:
	movq	%rbx, %r8
	jmp	.LBB1_424
.LBB1_511:
	movq	%rbx, %r8
	jmp	.LBB1_424
.LBB1_513:
	movq	%rbx, %r8
	jmp	.LBB1_424
.LBB1_433:
	movq	%rbx, %r8
	jmp	.LBB1_424
.LBB1_435:
	movq	%rbx, %r8
	jmp	.LBB1_424
.LBB1_437:                              # %L10967.i
	cmpq	$90, %rax
	jne	.LBB1_438
# BB#439:                               # %L504.i
	movq	8(%r12), %rax
	movq	%rax, 8(%rsp)           # 8-byte Spill
	movq	$4, %rsi
	movq	%rax, %rdi
	callq	register_operand
	testq	%r13, %rax
	je	.LBB1_440
# BB#441:                               # %if.then142.i
	movq	8(%rsp), %rax           # 8-byte Reload
	movq	%rax, recog_data+8(%rip)
	movq	16(%r12), %rax
	movzbl	(%rax), %ecx
	cmpq	$54, %rcx
	jne	.LBB1_442
# BB#443:                               # %land.lhs.true151.i
	movq	8(%rax), %rax
	cmpq	$8, %rax
	jne	.LBB1_444
# BB#445:                               # %L506.i
	movq	16(%r14), %rax
	movzbl	(%rax), %ecx
	cmpq	$54, %rcx
	jne	.LBB1_446
# BB#447:                               # %land.lhs.true164.i
	movq	8(%rax), %rax
	cmpq	$255, %rax
	movq	$75, %rdx
	movq	%rbx, %r8
	jne	.LBB1_424
	jmp	.LBB1_4569
.LBB1_449:
	movq	%rbx, %r8
	jmp	.LBB1_424
.LBB1_451:
	movq	%rbx, %r8
	jmp	.LBB1_424
.LBB1_453:
	movq	%rbx, %r8
	jmp	.LBB1_424
.LBB1_455:
	movq	%rbx, %r8
	jmp	.LBB1_424
.LBB1_457:
	movq	%rbx, %r8
	jmp	.LBB1_424
.LBB1_464:                              # %L10969.i
	cmpq	$121, %rax
	jne	.LBB1_459
# BB#465:                               # %L3129.i
	movq	8(%r12), %rax
	movq	%rax, 8(%rsp)           # 8-byte Spill
	movq	$2, %rsi
	movq	%rax, %rdi
	callq	general_operand
	testq	%r13, %rax
	je	.LBB1_470
# BB#466:                               # %if.then230.i
	movl	target_flags(%rip), %eax
	movq	8(%rsp), %rcx           # 8-byte Reload
	movq	%rcx, recog_data+16(%rip)
	testq	$33554432, %rax         # imm = 0x2000000
	jne	.LBB1_469
# BB#467:                               # %if.then230.i
	cmpq	$0, 24(%rsp)            # 8-byte Folded Reload
	je	.LBB1_469
# BB#468:                               # %if.then242.i
	movq	$1, %rax
	movq	24(%rsp), %rcx          # 8-byte Reload
	movl	%eax, (%rcx)
	movq	$304, %rdx              # imm = 0x130
	movq	%rdx, %rax
	jmp	.LBB1_2108
.LBB1_1026:                             # %land.lhs.true364.L1702_crit_edge.i
	movl	ix86_cpu(%rip), %eax
.LBB1_1027:                             # %L1702.i
	movq	%rax, %rcx
	shlq	%cl, %rbx
	andq	%r14, %rbx
	testq	%r13, %rbx
	je	.LBB1_978
# BB#1028:                              # %land.lhs.true374.i
	movabsq	$recog_data, %rax
	movq	$75, %rdi
	movq	$2, %rsi
	movq	%rax, %rdx
	callq	ix86_binary_operator_ok
	testq	%r13, %rax
	je	.LBB1_978
# BB#1029:                              # %land.lhs.true374.i
	cmpq	$0, 24(%rsp)            # 8-byte Folded Reload
	je	.LBB1_978
# BB#1030:                              # %if.then379.i
	movq	$1, %rax
	movq	24(%rsp), %rcx          # 8-byte Reload
	movl	%eax, (%rcx)
	movq	$222, %rdx
	movq	%rdx, %rax
	jmp	.LBB1_2108
.LBB1_1063:                             # %land.lhs.true571.L4576_crit_edge.i
	movl	ix86_cpu(%rip), %eax
.LBB1_1064:                             # %L4576.i
	movq	%rax, %rcx
	shlq	%cl, %rbx
	andq	%r14, %rbx
	testq	%r13, %rbx
	je	.LBB1_978
# BB#1065:                              # %land.lhs.true581.i11623
	movabsq	$recog_data, %rax
	movq	$87, %rdi
	movq	$2, %rsi
	movq	%rax, %rdx
	callq	ix86_binary_operator_ok
	testq	%r13, %rax
	je	.LBB1_978
# BB#1066:                              # %land.lhs.true581.i11623
	cmpq	$0, 24(%rsp)            # 8-byte Folded Reload
	je	.LBB1_978
# BB#1067:                              # %if.then586.i
	movq	$1, %rax
	movq	24(%rsp), %rcx          # 8-byte Reload
	movl	%eax, (%rcx)
	movq	$416, %rdx              # imm = 0x1A0
	movq	%rdx, %rax
	jmp	.LBB1_2108
.LBB1_1096:                             # %if.end731.i
	movq	16(%r12), %rax
	movq	16(%rax), %rbx
.LBB1_1097:                             # %L5413.i
	movq	$2, %rsi
	movq	%rbx, %rdi
	callq	nonmemory_operand
	testq	%r13, %rax
	je	.LBB1_978
# BB#1098:                              # %if.then716.i
	movq	%rbx, recog_data+16(%rip)
	movabsq	$recog_data, %rax
	movq	$88, %rdi
	movq	$2, %rsi
	movq	%rax, %rdx
	callq	ix86_binary_operator_ok
	testq	%r13, %rax
	je	.LBB1_978
# BB#1099:                              # %if.then716.i
	cmpq	$0, 24(%rsp)            # 8-byte Folded Reload
	je	.LBB1_978
# BB#1100:                              # %if.then742.i
	movq	$1, %rax
	movq	24(%rsp), %rcx          # 8-byte Reload
	movl	%eax, (%rcx)
	movq	$475, %rdx              # imm = 0x1DB
	movq	%rdx, %rax
	jmp	.LBB1_2108
.LBB1_1074:                             # %if.end627.i
	movq	16(%r12), %rax
	movq	16(%rax), %rbx
.LBB1_1075:                             # %L4937.i
	movq	$2, %rsi
	movq	%rbx, %rdi
	callq	nonmemory_operand
	testq	%r13, %rax
	je	.LBB1_978
# BB#1076:                              # %if.then612.i
	movq	%rbx, recog_data+16(%rip)
	movabsq	$recog_data, %rax
	movq	$89, %rdi
	movq	$2, %rsi
	movq	%rax, %rdx
	callq	ix86_binary_operator_ok
	testq	%r13, %rax
	je	.LBB1_978
# BB#1077:                              # %if.then612.i
	cmpq	$0, 24(%rsp)            # 8-byte Folded Reload
	je	.LBB1_978
# BB#1078:                              # %if.then638.i
	movq	$1, %rax
	movq	24(%rsp), %rcx          # 8-byte Reload
	movl	%eax, (%rcx)
	movq	$441, %rdx              # imm = 0x1B9
	movq	%rdx, %rax
	jmp	.LBB1_2108
.LBB1_1085:                             # %if.end679.i
	movq	16(%r12), %rax
	movq	16(%rax), %rbx
.LBB1_1086:                             # %L5243.i
	movq	$2, %rsi
	movq	%rbx, %rdi
	callq	nonmemory_operand
	testq	%r13, %rax
	je	.LBB1_978
# BB#1087:                              # %if.then664.i11629
	movq	%rbx, recog_data+16(%rip)
	movabsq	$recog_data, %rax
	movq	$90, %rdi
	movq	$2, %rsi
	movq	%rax, %rdx
	callq	ix86_binary_operator_ok
	testq	%r13, %rax
	je	.LBB1_978
# BB#1088:                              # %if.then664.i11629
	cmpq	$0, 24(%rsp)            # 8-byte Folded Reload
	je	.LBB1_978
# BB#1089:                              # %if.then690.i
	movq	$1, %rax
	movq	24(%rsp), %rcx          # 8-byte Reload
	movl	%eax, (%rcx)
	movq	$463, %rdx              # imm = 0x1CF
	movq	%rdx, %rax
	jmp	.LBB1_2108
.LBB1_1107:                             # %if.end783.i
	movq	16(%r12), %rax
	movq	16(%rax), %rbx
.LBB1_1108:                             # %L5557.i
	movq	$2, %rsi
	movq	%rbx, %rdi
	callq	nonmemory_operand
	testq	%r13, %rax
	je	.LBB1_978
# BB#1109:                              # %if.then768.i
	movq	%rbx, recog_data+16(%rip)
	movabsq	$recog_data, %rax
	movq	$91, %rdi
	movq	$2, %rsi
	movq	%rax, %rdx
	callq	ix86_binary_operator_ok
	testq	%r13, %rax
	je	.LBB1_978
# BB#1110:                              # %if.then768.i
	cmpq	$0, 24(%rsp)            # 8-byte Folded Reload
	je	.LBB1_978
# BB#1111:                              # %if.then794.i11633
	movq	$1, %rax
	movq	24(%rsp), %rcx          # 8-byte Reload
	movl	%eax, (%rcx)
	movq	$485, %rdx              # imm = 0x1E5
	movq	%rdx, %rax
	jmp	.LBB1_2108
.LBB1_978:                              # %if.end238.i
	movq	8(%r12), %r14
.LBB1_979:                              # %L10860.i
	movq	$2, %rsi
	movq	%r14, %rdi
	callq	register_operand
	testq	%r13, %rax
	je	.LBB1_980
# BB#981:                               # %if.then21.i
	movq	%r14, recog_data(%rip)
	movq	%r12, %r8
	movq	16(%r8), %rbx
	movl	(%rbx), %eax
	movq	%rax, %rcx
	andq	$16711680, %rcx         # imm = 0xFF0000
	cmpq	$131072, %rcx           # imm = 0x20000
	jne	.LBB1_7
# BB#982:                               # %L11033.i
	andq	$65535, %rax            # imm = 0xFFFF
	cmpq	$77, %rax
	jg	.LBB1_1112
# BB#983:                               # %L11033.i
	cmpq	$63, %rax
	jne	.LBB1_7
# BB#984:                               # %L11037.i
	movl	16(%rbx), %eax
	testq	%rax, %rax
	jne	.LBB1_7
# BB#985:                               # %L479.i
	movq	8(%rbx), %rbx
	movl	(%rbx), %eax
	andq	$16777215, %rax         # imm = 0xFFFFFF
	cmpq	$262277, %rax           # imm = 0x40085
	jne	.LBB1_7
# BB#986:                               # %L480.i
	movq	%r8, %r12
	movq	8(%rbx), %r14
	xorq	%rsi, %rsi
	movq	%r14, %rdi
	callq	ext_register_operand
	testq	%r13, %rax
	je	.LBB1_987
# BB#1116:                              # %if.then872.i
	movq	%r14, recog_data+8(%rip)
	movq	16(%rbx), %rax
	movzbl	(%rax), %ecx
	cmpq	$54, %rcx
	jne	.LBB1_1117
# BB#1118:                              # %land.lhs.true881.i11645
	movq	8(%rax), %rax
	cmpq	$8, %rax
	jne	.LBB1_1119
# BB#1120:                              # %L482.i
	movq	24(%rbx), %rax
	movzbl	(%rax), %ecx
	cmpq	$54, %rcx
	jne	.LBB1_1121
# BB#1122:                              # %land.lhs.true894.i
	movq	8(%rax), %rax
	cmpq	$8, %rax
	jne	.LBB1_1123
# BB#1124:                              # %land.lhs.true899.i
	movzbl	target_flags+3(%rip), %eax
	movq	$72, %rdx
	testq	$2, %rax
	jmp	.LBB1_2226
.LBB1_980:
	movq	%r12, %r8
	jmp	.LBB1_7
.LBB1_1112:                             # %L11033.i
	movq	%r8, %r12
	cmpq	$78, %rax
	je	.LBB1_1125
# BB#1113:                              # %L11033.i
	cmpq	$79, %rax
	jne	.LBB1_1114
# BB#1136:                              # %L2470.i
	movq	8(%rbx), %r14
	movq	$3, %rsi
	movq	%r14, %rdi
	callq	register_operand
	testq	%r13, %rax
	je	.LBB1_1137
# BB#1138:                              # %if.then942.i
	movq	%r14, recog_data+8(%rip)
	movq	16(%rbx), %rbx
	movq	$2, %rsi
	movq	%rbx, %rdi
	callq	nonimmediate_operand
	testq	%r13, %rax
	je	.LBB1_1139
# BB#1140:                              # %if.then950.i
	movl	ix86_cpu(%rip), %ecx
	movl	x86_qimode_math(%rip), %eax
	movq	%rbx, recog_data+16(%rip)
	movq	$1, %rdx
	shlq	%cl, %rdx
	andq	%rax, %rdx
	testq	%r13, %rdx
	movq	%r12, %r8
	je	.LBB1_7
# BB#1141:                              # %if.then950.i
	cmpq	$0, 24(%rsp)            # 8-byte Folded Reload
	je	.LBB1_7
# BB#1142:                              # %if.then958.i
	movq	$1, %rax
	movq	24(%rsp), %rcx          # 8-byte Reload
	movl	%eax, (%rcx)
	movq	$266, %rdx              # imm = 0x10A
	movq	%rdx, %rax
	jmp	.LBB1_2108
.LBB1_1125:                             # %L2194.i
	movq	8(%rbx), %r14
	movq	$2, %rsi
	movq	%r14, %rdi
	callq	nonimmediate_operand
	testq	%r13, %rax
	je	.LBB1_1126
# BB#1127:                              # %if.then909.i11647
	movq	%r14, recog_data+8(%rip)
	movq	16(%rbx), %rbx
	movq	$2, %rsi
	movq	%rbx, %rdi
	callq	nonimmediate_operand
	testq	%r13, %rax
	je	.LBB1_1128
# BB#1129:                              # %if.then917.i
	movl	ix86_cpu(%rip), %ecx
	movl	x86_qimode_math(%rip), %eax
	movq	%rbx, recog_data+16(%rip)
	movq	$1, %rdx
	shlq	%cl, %rdx
	andq	%rax, %rdx
	testq	%r13, %rdx
	je	.LBB1_1130
# BB#1131:                              # %land.lhs.true923.i
	movq	recog_data+8(%rip), %rax
	movzbl	(%rax), %eax
	cmpq	$66, %rax
	jne	.LBB1_1134
# BB#1132:                              # %lor.lhs.false928.i
	movzbl	(%rbx), %eax
	cmpq	$66, %rax
	je	.LBB1_1133
.LBB1_1134:                             # %land.lhs.true933.i
	cmpq	$0, 24(%rsp)            # 8-byte Folded Reload
	movq	%r12, %r8
	je	.LBB1_7
# BB#1135:                              # %if.then935.i
	movq	$1, %rax
	movq	24(%rsp), %rcx          # 8-byte Reload
	movl	%eax, (%rcx)
	movq	$253, %rdx
	movq	%rdx, %rax
	jmp	.LBB1_2108
.LBB1_1114:                             # %L11033.i
	cmpq	$81, %rax
	jne	.LBB1_1115
# BB#1143:                              # %L2484.i
	movq	8(%rbx), %r14
	movq	$3, %rsi
	movq	%r14, %rdi
	callq	register_operand
	testq	%r13, %rax
	je	.LBB1_1144
# BB#1145:                              # %if.then965.i
	movq	%r14, recog_data+8(%rip)
	movq	16(%rbx), %rbx
	movq	$2, %rsi
	movq	%rbx, %rdi
	callq	nonimmediate_operand
	testq	%r13, %rax
	je	.LBB1_1146
# BB#1147:                              # %if.then973.i
	movl	ix86_cpu(%rip), %ecx
	movl	x86_qimode_math(%rip), %eax
	movq	%rbx, recog_data+16(%rip)
	movq	$1, %rdx
	shlq	%cl, %rdx
	andq	%rax, %rdx
	testq	%r13, %rdx
	je	.LBB1_1148
# BB#1149:                              # %if.then973.i
	cmpq	$0, 24(%rsp)            # 8-byte Folded Reload
	movq	%r12, %r8
	je	.LBB1_7
# BB#1150:                              # %if.then981.i
	movq	$1, %rax
	movq	24(%rsp), %rcx          # 8-byte Reload
	movl	%eax, (%rcx)
	movq	$267, %rdx              # imm = 0x10B
	movq	%rdx, %rax
	jmp	.LBB1_2108
.LBB1_1115:
	movq	%r12, %r8
	jmp	.LBB1_7
.LBB1_1137:
	movq	%r12, %r8
	jmp	.LBB1_7
.LBB1_1126:
	movq	%r12, %r8
	jmp	.LBB1_7
.LBB1_1139:
	movq	%r12, %r8
	jmp	.LBB1_7
.LBB1_1128:
	movq	%r12, %r8
	jmp	.LBB1_7
.LBB1_1130:
	movq	%r12, %r8
	jmp	.LBB1_7
.LBB1_1144:
	movq	%r12, %r8
	jmp	.LBB1_7
.LBB1_2055:                             # %L11238.i
	cmpq	$125, %rax
	jne	.LBB1_2056
# BB#2061:                              # %L6174.i
	movq	8(%rbx), %rbx
	movq	$4, %rsi
	movq	%rbx, %rdi
	callq	nonimmediate_operand
	testq	%r13, %rax
	je	.LBB1_2062
# BB#2063:                              # %if.then668.i
	movq	%rbx, recog_data+8(%rip)
	movq	16(%r14), %rbx
	movq	$17, %rsi
	movq	%rbx, %rdi
	callq	register_operand
	testq	%r13, %rax
	je	.LBB1_2064
# BB#2065:                              # %if.then676.i
	movl	target_flags(%rip), %eax
	movq	%rbx, recog_data+16(%rip)
	andq	$33554433, %rax         # imm = 0x2000001
	cmpq	$1, %rax
	jne	.LBB1_2066
# BB#2067:                              # %land.lhs.true684.i
	movl	ix86_cpu(%rip), %eax
	movl	x86_use_fiop(%rip), %edx
	movq	$1, %rsi
	movq	%rax, %rcx
	shlq	%cl, %rsi
	andq	%rdx, %rsi
	testq	%r13, %rsi
	movq	$547, %rdx              # imm = 0x223
	jmp	.LBB1_2226
.LBB1_2069:                             # %L6202.i
	cmpq	$15, %rax
	jne	.LBB1_2070
# BB#2071:                              # %L11240.i
	movq	$15, %rsi
	movq	%rbx, %rdi
	callq	nonimmediate_operand
	testq	%r13, %rax
	je	.LBB1_2072
# BB#2073:                              # %if.then702.i
	movq	%rbx, recog_data+8(%rip)
	movq	16(%r14), %rbx
	movq	$17, %rsi
	movq	%rbx, %rdi
	callq	register_operand
	testq	%r13, %rax
	je	.LBB1_2074
# BB#2075:                              # %if.then710.i
	movl	target_flags(%rip), %eax
	movq	%rbx, recog_data+16(%rip)
	andq	$33554433, %rax         # imm = 0x2000001
	cmpq	$1, %rax
	movq	$551, %rdx              # imm = 0x227
	jmp	.LBB1_2076
.LBB1_2078:
	movq	%r12, %r8
	jmp	.LBB1_7
.LBB1_2080:
	movq	%r12, %r8
	jmp	.LBB1_7
.LBB1_2087:                             # %L11243.i
	cmpq	$125, %rax
	jne	.LBB1_2088
# BB#2091:                              # %L6189.i
	movq	8(%rbx), %rbx
	movq	$4, %rsi
	movq	%rbx, %rdi
	callq	nonimmediate_operand
	testq	%r13, %rax
	je	.LBB1_2092
# BB#2093:                              # %if.then765.i
	movl	target_flags(%rip), %eax
	movq	%rbx, recog_data+16(%rip)
	andq	$33554433, %rax         # imm = 0x2000001
	cmpq	$1, %rax
	jne	.LBB1_2094
# BB#2095:                              # %land.lhs.true773.i
	movl	ix86_cpu(%rip), %eax
	movl	x86_use_fiop(%rip), %edx
	movq	$1, %rsi
	movq	%rax, %rcx
	shlq	%cl, %rsi
	andq	%rdx, %rsi
	testq	%r13, %rsi
	movq	$549, %rdx              # imm = 0x225
	jmp	.LBB1_2226
.LBB1_2097:                             # %L6217.i
	cmpq	$15, %rax
	jne	.LBB1_2098
# BB#2099:                              # %L11245.i
	movq	$15, %rsi
	movq	%rbx, %rdi
	callq	nonimmediate_operand
	testq	%r13, %rax
	je	.LBB1_2100
# BB#2101:                              # %if.then791.i
	movl	target_flags(%rip), %eax
	movq	%rbx, recog_data+16(%rip)
	andq	$33554433, %rax         # imm = 0x2000001
	cmpq	$1, %rax
	movq	$553, %rdx              # imm = 0x229
.LBB1_2076:                             # %if.then710.i
	movq	%r12, %r8
	jne	.LBB1_7
	jmp	.LBB1_4569
.LBB1_2103:
	movq	%r12, %r8
	jmp	.LBB1_7
.LBB1_1997:
	movq	%r14, %r8
	jmp	.LBB1_7
.LBB1_1999:
	movq	%r14, %r8
	jmp	.LBB1_7
.LBB1_2268:
	movq	%r14, %r8
	jmp	.LBB1_7
.LBB1_2292:                             # %L11282.i
	cmpq	$125, %rax
	jne	.LBB1_2293
# BB#2298:                              # %L6181.i
	movq	8(%rbx), %rbx
	movq	$4, %rsi
	movq	%rbx, %rdi
	callq	nonimmediate_operand
	testq	%r13, %rax
	je	.LBB1_2299
# BB#2300:                              # %if.then610.i
	movq	%rbx, recog_data+8(%rip)
	movq	16(%r14), %rbx
	movq	$18, %rsi
	movq	%rbx, %rdi
	callq	register_operand
	testq	%r13, %rax
	je	.LBB1_2301
# BB#2302:                              # %if.then618.i
	movzbl	target_flags(%rip), %eax
	movq	%rbx, recog_data+16(%rip)
	testq	$1, %rax
	je	.LBB1_2303
# BB#2304:                              # %land.lhs.true623.i
	movl	ix86_cpu(%rip), %eax
	movl	x86_use_fiop(%rip), %edx
	movq	$1, %rsi
	movq	%rax, %rcx
	shlq	%cl, %rsi
	andq	%rdx, %rsi
	testq	%r13, %rsi
	movq	$548, %rdx              # imm = 0x224
	jmp	.LBB1_2226
.LBB1_2306:                             # %L6209.i
	cmpq	$15, %rax
	jne	.LBB1_2307
# BB#2308:                              # %L11284.i
	movq	$15, %rsi
	movq	%rbx, %rdi
	callq	nonimmediate_operand
	testq	%r13, %rax
	je	.LBB1_2309
# BB#2310:                              # %if.then641.i
	movq	%rbx, recog_data+8(%rip)
	movq	16(%r14), %rbx
	movq	$18, %rsi
	movq	%rbx, %rdi
	callq	register_operand
	testq	%r13, %rax
	je	.LBB1_2311
# BB#2312:                              # %if.then649.i
	movzbl	target_flags(%rip), %eax
	movq	%rbx, recog_data+16(%rip)
	movq	$552, %rdx              # imm = 0x228
	jmp	.LBB1_2225
.LBB1_2314:
	movq	%r12, %r8
	jmp	.LBB1_7
.LBB1_2316:
	movq	%r12, %r8
	jmp	.LBB1_7
.LBB1_2323:                             # %L11287.i
	cmpq	$125, %rax
	jne	.LBB1_2324
# BB#2327:                              # %L6196.i
	movq	8(%rbx), %rbx
	movq	$4, %rsi
	movq	%rbx, %rdi
	callq	nonimmediate_operand
	testq	%r13, %rax
	je	.LBB1_2328
# BB#2329:                              # %if.then698.i12146
	movzbl	target_flags(%rip), %eax
	movq	%rbx, recog_data+16(%rip)
	testq	$1, %rax
	je	.LBB1_2330
# BB#2331:                              # %land.lhs.true703.i
	movl	ix86_cpu(%rip), %eax
	movl	x86_use_fiop(%rip), %edx
	movq	$1, %rsi
	movq	%rax, %rcx
	shlq	%cl, %rsi
	andq	%rdx, %rsi
	testq	%r13, %rsi
	movq	$550, %rdx              # imm = 0x226
	jmp	.LBB1_2226
.LBB1_2333:                             # %L6224.i
	cmpq	$15, %rax
	jne	.LBB1_2334
# BB#2335:                              # %L11289.i
	movq	$15, %rsi
	movq	%rbx, %rdi
	callq	nonimmediate_operand
	testq	%r13, %rax
	je	.LBB1_2336
# BB#2337:                              # %if.then721.i
	movzbl	target_flags(%rip), %eax
	movq	%rbx, recog_data+16(%rip)
	movq	$554, %rdx              # imm = 0x22A
.LBB1_2225:                             # %if.then341.i
	testq	$1, %rax
	jmp	.LBB1_2226
.LBB1_2339:
	movq	%r12, %r8
	jmp	.LBB1_7
.LBB1_2239:
	movq	%r14, %r8
	jmp	.LBB1_7
.LBB1_2241:
	movq	%r14, %r8
	jmp	.LBB1_7
.LBB1_1950:
	movq	%r14, %r8
	jmp	.LBB1_7
.LBB1_2010:
	movq	%r14, %r8
	jmp	.LBB1_7
.LBB1_2013:
	movq	%r14, %r8
	jmp	.LBB1_7
.LBB1_2015:
	movq	%r14, %r8
	jmp	.LBB1_7
.LBB1_2192:
	movq	%r14, %r8
	jmp	.LBB1_7
.LBB1_2247:
	movq	%r14, %r8
	jmp	.LBB1_7
.LBB1_2250:
	movq	%r14, %r8
	jmp	.LBB1_7
.LBB1_2252:
	movq	%r14, %r8
	jmp	.LBB1_7
.LBB1_2261:
	movq	%r14, %r8
	jmp	.LBB1_7
.LBB1_1321:                             # %if.end218.i
	movq	8(%rbx), %r14
.LBB1_1322:                             # %if.end207.i
	movq	8(%r14), %r15
.LBB1_1323:                             # %L11141.i
	movq	$15, %rsi
	movq	%r15, %rdi
	callq	nonimmediate_operand
	testq	%r13, %rax
	je	.LBB1_1328
# BB#1324:                              # %if.then192.i
	movq	%r15, recog_data+8(%rip)
	movq	16(%r14), %r15
	movq	$15, %rsi
	movq	%r15, %rdi
	callq	nonimmediate_operand
	testq	%r13, %rax
	je	.LBB1_1327
# BB#1325:                              # %if.then252.i11704
	movq	%r15, recog_data+16(%rip)
	movq	16(%rbx), %rax
	movq	recog_data+8(%rip), %rcx
	movq	%rax, %rdi
	movq	%rcx, %rsi
	callq	rtx_equal_p
	testq	%r13, %rax
	je	.LBB1_1326
# BB#1337:                              # %L7116.i
	movq	24(%rbx), %rax
	movq	recog_data+16(%rip), %rcx
	movq	%rax, %rdi
	movq	%rcx, %rsi
	callq	rtx_equal_p
	testq	%r13, %rax
	je	.LBB1_1326
# BB#1338:                              # %land.lhs.true278.i
	movl	target_flags(%rip), %eax
	testq	$327680, %rax           # imm = 0x50000
	je	.LBB1_1326
# BB#1339:                              # %land.lhs.true278.i
	andq	$16, %rax
	testq	%r13, %rax
	jne	.LBB1_1326
# BB#1340:                              # %land.lhs.true284.i
	movq	recog_data+8(%rip), %rax
	movzbl	(%rax), %eax
	cmpq	$66, %rax
	jne	.LBB1_1342
# BB#1341:                              # %lor.lhs.false289.i
	movq	recog_data+16(%rip), %rax
	movzbl	(%rax), %eax
	cmpq	$66, %rax
	je	.LBB1_1326
.LBB1_1342:                             # %land.lhs.true294.i
	cmpq	$0, 24(%rsp)            # 8-byte Folded Reload
	je	.LBB1_1326
# BB#1343:                              # %if.then296.i
	movq	$1, %rax
	movq	24(%rsp), %rcx          # 8-byte Reload
	movl	%eax, (%rcx)
	movq	$624, %rdx              # imm = 0x270
	movq	%rdx, %rax
	jmp	.LBB1_2108
.LBB1_1357:                             # %if.end428.i
	movq	8(%rbx), %r14
.LBB1_1358:                             # %if.end417.i11718
	movq	8(%r14), %r15
.LBB1_1359:                             # %L11145.i
	movq	$15, %rsi
	movq	%r15, %rdi
	callq	register_operand
	testq	%r13, %rax
	je	.LBB1_1305
# BB#1360:                              # %if.then360.i
	movq	%r15, recog_data+8(%rip)
	movq	16(%r14), %r15
	movq	$15, %rsi
	movq	%r15, %rdi
	callq	nonimmediate_operand
	testq	%r13, %rax
	je	.LBB1_1305
# BB#1361:                              # %if.then472.i11720
	movq	%r15, recog_data+16(%rip)
	movq	16(%rbx), %rax
	movq	recog_data+8(%rip), %rcx
	movq	%rax, %rdi
	movq	%rcx, %rsi
	callq	rtx_equal_p
	testq	%r13, %rax
	je	.LBB1_1362
# BB#1375:                              # %L7216.i
	movq	24(%rbx), %rax
	movq	recog_data+16(%rip), %rcx
	movq	%rax, %rdi
	movq	%rcx, %rsi
	callq	rtx_equal_p
	testq	%r13, %rax
	movq	%r12, %rcx
	je	.LBB1_1347
# BB#1376:                              # %land.lhs.true492.i
	movl	target_flags(%rip), %eax
	testq	$327680, %rax           # imm = 0x50000
	je	.LBB1_1347
# BB#1377:                              # %land.lhs.true492.i
	movl	reload_completed(%rip), %eax
	movq	$631, %rdx              # imm = 0x277
	testq	%r13, %rax
	jne	.LBB1_4569
	jmp	.LBB1_1347
.LBB1_1269:                             # %L11126
	cmpq	$28, %rcx
	movq	%r12, %r8
	jne	.LBB1_1434
# BB#1270:                              # %L6257.i
	movq	8(%rbx), %rbx
	movl	(%rbx), %eax
	andq	$16711680, %rax         # imm = 0xFF0000
	cmpq	$983040, %rax           # imm = 0xF0000
	jne	.LBB1_1434
# BB#1271:                              # %L11136.i
	movq	%r8, %r14
	movq	$15, %rsi
	movq	%rbx, %rdi
	callq	nonimmediate_operand
	testq	%r13, %rax
	je	.LBB1_1277
# BB#1272:                              # %if.then48.i
	movl	target_flags(%rip), %eax
	movl	ix86_fpmath(%rip), %ecx
	movq	%rbx, recog_data+8(%rip)
	movq	%rax, %rdx
	andq	$65, %rdx
	cmpq	$1, %rdx
	movq	%r14, %rsi
	jne	.LBB1_1274
# BB#1273:                              # %if.then48.i
	movq	%rcx, %rdi
	andq	$3, %rdi
	movq	$559, %rdx              # imm = 0x22F
	andq	%r13, %rdi
	cmpq	$3, %rdi
	je	.LBB1_4569
.LBB1_1274:                             # %L6263.i
	testq	$2, %rcx
	je	.LBB1_1276
# BB#1275:                              # %land.lhs.true74.i11665
	andq	%rcx, %rax
	testq	$1, %rax
	movq	$560, %rdx              # imm = 0x230
	je	.LBB1_4569
.LBB1_1276:                             # %if.end83.i
	movq	16(%rsi), %rax
	movq	%rsi, %r14
	movq	8(%rax), %rbx
.LBB1_1277:                             # %L11137.i
	movq	$15, %rsi
	movq	%rbx, %rdi
	callq	register_operand
	testq	%r13, %rax
	movq	%r14, %r8
	je	.LBB1_1434
# BB#1278:                              # %if.then53.i
	movl	target_flags(%rip), %eax
	movq	%rbx, recog_data+8(%rip)
	andq	$65, %rax
	cmpq	$1, %rax
	jne	.LBB1_1434
# BB#1279:                              # %land.lhs.true95.i
	movzbl	ix86_fpmath(%rip), %eax
	movq	$561, %rdx              # imm = 0x231
	jmp	.LBB1_1280
.LBB1_1295:
	movq	$525, %rdx              # imm = 0x20D
	movq	%rdx, %rax
	jmp	.LBB1_2108
.LBB1_1444:
	movq	$526, %rdx              # imm = 0x20E
	movq	%rdx, %rax
	jmp	.LBB1_2108
.LBB1_1449:
	movq	$527, %rdx              # imm = 0x20F
	movq	%rdx, %rax
	jmp	.LBB1_2108
.LBB1_1453:                             # %land.lhs.true1024.i
	movq	recog_data+24(%rip), %rcx
	movl	(%rcx), %ecx
	movq	%rcx, %rdx
	andq	$65535, %rdx            # imm = 0xFFFF
	movzbl	rtx_class(%rdx), %edx
	cmpq	$99, %rdx
	movq	%rsi, %rdi
	je	.LBB1_1457
# BB#1454:                              # %land.lhs.true1033.i
	movq	%rdi, %rsi
	movq	recog_data+8(%rip), %rdx
	movzbl	(%rdx), %edx
	cmpq	$66, %rdx
	jne	.LBB1_1455
# BB#1456:                              # %lor.lhs.false1039.i
	movzbl	(%r14), %edx
	cmpq	$66, %rdx
	movq	%rsi, %rdi
	movq	$533, %rdx              # imm = 0x215
	jne	.LBB1_4569
.LBB1_1457:                             # %L6091.i
	andq	$3, %rax
	cmpq	$3, %rax
	jne	.LBB1_1464
.LBB1_1460:                             # %land.lhs.true1059.i
	andq	$65535, %rcx            # imm = 0xFFFF
	movzbl	rtx_class(%rcx), %eax
	cmpq	$99, %rax
	je	.LBB1_1464
# BB#1461:                              # %land.lhs.true1068.i
	movq	%rdi, %rcx
	movq	recog_data+8(%rip), %rax
	movzbl	(%rax), %eax
	cmpq	$66, %rax
	jne	.LBB1_1462
# BB#1463:                              # %lor.lhs.false1074.i
	movzbl	(%r14), %eax
	cmpq	$66, %rax
	movq	%rcx, %rdi
	movq	$534, %rdx              # imm = 0x216
	jne	.LBB1_4569
.LBB1_1464:                             # %if.end1081.i
	movq	16(%rdi), %rbx
	movq	%rdi, %r15
.LBB1_1427:                             # %if.end927.i
	movq	8(%rbx), %r14
.LBB1_1428:                             # %L11149.i
	movq	$15, %rsi
	movq	%r14, %rdi
	callq	register_operand
	testq	%r13, %rax
	movq	%r15, %r8
	je	.LBB1_1434
# BB#1429:                              # %if.then890.i
	movq	%r14, recog_data+8(%rip)
	movq	16(%rbx), %rbx
	movl	(%rbx), %eax
	movq	%rax, %rcx
	andq	$16711680, %rcx         # imm = 0xFF0000
	cmpq	$983040, %rcx           # imm = 0xF0000
	jne	.LBB1_1434
# BB#1430:                              # %L11152.i
	movq	%r8, %r14
	andq	$65535, %rax            # imm = 0xFFFF
	cmpq	$125, %rax
	jne	.LBB1_1431
# BB#1465:                              # %L6110.i
	movq	8(%rbx), %rbx
	movq	$4, %rsi
	movq	%rbx, %rdi
	callq	nonimmediate_operand
	testq	%r13, %rax
	movq	%r14, %r8
	je	.LBB1_1434
# BB#1466:                              # %if.then1114.i11766
	movzbl	target_flags(%rip), %eax
	movq	%rbx, recog_data+16(%rip)
	testq	$1, %rax
	je	.LBB1_1434
# BB#1467:                              # %land.lhs.true1119.i
	movl	ix86_cpu(%rip), %eax
	movl	x86_use_fiop(%rip), %edx
	movq	$1, %rsi
	movq	%rax, %rcx
	shlq	%cl, %rsi
	andq	%rdx, %rsi
	testq	%r13, %rsi
	je	.LBB1_1434
# BB#1468:                              # %land.lhs.true1123.i
	movzbl	ix86_fpmath(%rip), %eax
	movq	$537, %rdx              # imm = 0x219
.LBB1_1280:                             # %land.lhs.true95.i
	testq	$2, %rax
	jne	.LBB1_1434
	jmp	.LBB1_4569
.LBB1_2044:
	movq	%r12, %r8
	jmp	.LBB1_7
.LBB1_2046:
	movq	%r12, %r8
	jmp	.LBB1_7
.LBB1_2049:                             # %land.lhs.true635.i
	movl	x86_cmove(%rip), %edx
	movl	ix86_arch(%rip), %ecx
	movq	$1, %rsi
	shlq	%cl, %rsi
	andq	%rdx, %rsi
	andq	$327680, %rax           # imm = 0x50000
	orq	%rsi, %rax
	testq	%r13, %rax
	movq	$621, %rdx              # imm = 0x26D
.LBB1_2226:                             # %if.then341.i
	movq	%r12, %r8
	jne	.LBB1_4569
	jmp	.LBB1_7
.LBB1_4571:                             # %if.end288.i
	movq	8(%rbx), %r14
.LBB1_98:                               # %L141.i
	xorq	%rsi, %rsi
	movq	%r14, %rdi
	callq	register_operand
	testq	%r13, %rax
	je	.LBB1_99
# BB#114:                               # %if.then177.i
	movq	%r14, recog_data+8(%rip)
	movq	16(%rbx), %r14
	xorq	%rsi, %rsi
	movq	%r14, %rdi
	callq	const0_operand
	testq	%r13, %rax
	movq	%r12, %rsi
	je	.LBB1_92
# BB#115:                               # %if.then312.i
	movzbl	target_flags(%rip), %eax
	movq	%r14, recog_data+16(%rip)
	testq	$1, %rax
	je	.LBB1_119
# BB#116:                               # %land.lhs.true317.i
	movq	recog_data+8(%rip), %rax
	movl	(%rax), %eax
	movq	$14, %rcx
	movq	%rax, %rdx
	shrq	%cl, %rdx
	andq	$1020, %rdx             # imm = 0x3FC
	movl	mode_class(%rdx), %ecx
	cmpq	$8, %rcx
	ja	.LBB1_119
# BB#117:                               # %land.lhs.true317.i
	movq	$1, %rdx
	shlq	%cl, %rdx
	testq	$324, %rdx              # imm = 0x144
	je	.LBB1_119
# BB#118:                               # %land.lhs.true339.i
	movl	(%r14), %ecx
	xorq	%rax, %rcx
	testq	$16711680, %rcx         # imm = 0xFF0000
	movq	$18, %rdx
	je	.LBB1_4569
.LBB1_119:                              # %if.end350.i
	movq	16(%rsi), %rax
	movq	8(%rax), %rax
	movq	8(%rax), %rbx
	jmp	.LBB1_92
.LBB1_622:                              # %L688.i
	cmpq	$3, %rax
	jne	.LBB1_623
# BB#624:                               # %L10987.i
	movq	$3, %rsi
	movq	%rbx, %rdi
	callq	register_operand
	testq	%r13, %rax
	je	.LBB1_630
# BB#625:                               # %if.then934.i
	movl	ix86_cpu(%rip), %ecx
	movl	optimize_size(%rip), %edx
	movq	%rbx, recog_data+8(%rip)
	movq	$1, %rax
	shlq	%cl, %rax
	testq	%rdx, %rdx
	jne	.LBB1_629
# BB#626:                               # %if.then934.i
	movl	x86_zero_extend_with_and(%rip), %ecx
	andq	%rcx, %rax
	testq	%r13, %rax
	je	.LBB1_629
# BB#627:                               # %if.then934.i
	cmpq	$0, 24(%rsp)            # 8-byte Folded Reload
	je	.LBB1_629
# BB#628:                               # %if.then949.i
	movq	$1, %rax
	movq	24(%rsp), %rcx          # 8-byte Reload
	movl	%eax, (%rcx)
	movq	$107, %rdx
	movq	%rdx, %rax
	jmp	.LBB1_2108
.LBB1_647:                              # %L747.i
	orq	%rcx, %rax
	cmpq	$0, 24(%rsp)            # 8-byte Folded Reload
	je	.LBB1_648
# BB#649:                               # %L747.i
	movabsq	$1, %rcx
	jmp	.LBB1_650
.LBB1_674:
	movq	8(%rsp), %rdi           # 8-byte Reload
	jmp	.LBB1_397
.LBB1_676:
	movq	8(%rsp), %rdi           # 8-byte Reload
	jmp	.LBB1_397
.LBB1_678:
	movq	8(%rsp), %rdi           # 8-byte Reload
	jmp	.LBB1_397
.LBB1_680:                              # %L10994.i
	cmpq	$121, %rcx
	jne	.LBB1_681
# BB#682:                               # %L2351.i
	movq	8(%rax), %rax
	movq	%rax, (%rsp)            # 8-byte Spill
	movq	$4, %rsi
	movq	%rax, %rdi
	callq	nonimmediate_operand
	testq	%r13, %rax
	je	.LBB1_683
# BB#684:                               # %if.then1102.i
	movq	(%rsp), %rax            # 8-byte Reload
	movq	%rax, recog_data+8(%rip)
	movq	16(%r14), %rax
	movl	(%rax), %ecx
	andq	$16777215, %rcx         # imm = 0xFFFFFF
	cmpq	$327801, %rcx           # imm = 0x50079
	jne	.LBB1_685
# BB#686:                               # %L2353.i
	movq	8(%rax), %r14
	movq	$4, %rsi
	movq	%r14, %rdi
	callq	nonimmediate_operand
	testq	%r13, %rax
	je	.LBB1_687
# BB#688:                               # %if.then1123.i
	movq	%r14, recog_data+16(%rip)
	movq	16(%rbx), %rax
	movzbl	(%rax), %ecx
	cmpq	$54, %rcx
	jne	.LBB1_689
# BB#690:                               # %land.lhs.true1132.i
	movq	8(%rax), %rax
	cmpq	$32, %rax
	jne	.LBB1_691
# BB#692:                               # %land.lhs.true1137.i
	movq	recog_data+8(%rip), %rax
	movzbl	(%rax), %eax
	cmpq	$66, %rax
	jne	.LBB1_695
# BB#693:                               # %lor.lhs.false1142.i
	movzbl	(%r14), %eax
	cmpq	$66, %rax
	je	.LBB1_694
.LBB1_695:                              # %land.lhs.true1147.i
	cmpq	$0, 24(%rsp)            # 8-byte Folded Reload
	movq	8(%rsp), %rdi           # 8-byte Reload
	je	.LBB1_397
# BB#696:                               # %if.then1149.i
	movq	$2, %rax
	movq	24(%rsp), %rcx          # 8-byte Reload
	movl	%eax, (%rcx)
	movq	$261, %rdx              # imm = 0x105
	movq	%rdx, %rax
	jmp	.LBB1_2108
.LBB1_698:
	movq	8(%rsp), %rdi           # 8-byte Reload
	jmp	.LBB1_397
.LBB1_700:
	movq	8(%rsp), %rdi           # 8-byte Reload
	jmp	.LBB1_397
.LBB1_702:
	movq	8(%rsp), %rdi           # 8-byte Reload
	jmp	.LBB1_397
.LBB1_704:
	movq	8(%rsp), %rdi           # 8-byte Reload
	jmp	.LBB1_397
.LBB1_706:
	movq	8(%rsp), %rdi           # 8-byte Reload
	jmp	.LBB1_397
.LBB1_709:
	movq	8(%rsp), %rdi           # 8-byte Reload
	jmp	.LBB1_397
.LBB1_665:                              # %L1065.i
	cmpq	$15, %rax
	jne	.LBB1_666
# BB#667:                               # %L10992.i
	movq	$15, %rsi
	movq	%rbx, %rdi
	callq	nonimmediate_operand
	testq	%r13, %rax
	movq	%r14, %rdi
	je	.LBB1_397
# BB#668:                               # %if.then1034.i
	movzbl	target_flags+2(%rip), %eax
	movq	%rbx, recog_data+8(%rip)
	movq	$160, %rdx
	testq	$5, %rax
	jne	.LBB1_4569
# BB#669:                               # %if.end1040.i
	movq	16(%rdi), %r12
	jmp	.LBB1_397
.LBB1_603:
	movq	%r14, %rdi
	jmp	.LBB1_397
.LBB1_605:
	movq	%r14, %rdi
	jmp	.LBB1_397
.LBB1_607:
	movq	%r14, %rdi
	jmp	.LBB1_397
.LBB1_609:
	movq	%r14, %rdi
	jmp	.LBB1_397
.LBB1_613:
	movq	%r14, %rdi
	jmp	.LBB1_397
.LBB1_615:
	movq	%r14, %rdi
	jmp	.LBB1_397
.LBB1_617:
	movq	%r14, %rdi
	jmp	.LBB1_397
.LBB1_619:
	movq	%r14, %rdi
	jmp	.LBB1_397
.LBB1_659:
	movq	%r14, %rdi
	jmp	.LBB1_397
.LBB1_733:
	movq	%r14, %rdi
	jmp	.LBB1_397
.LBB1_735:
	movq	%r14, %rdi
	jmp	.LBB1_397
.LBB1_747:
	movq	%r14, %rdi
	jmp	.LBB1_397
.LBB1_749:
	movq	%r14, %rdi
	jmp	.LBB1_397
.LBB1_752:                              # %L7022.i
	movq	16(%r12), %rbx
	movq	$4, %rsi
	movq	%rbx, %rdi
	callq	nonimmediate_operand
	testq	%r13, %rax
	je	.LBB1_753
# BB#754:                               # %if.then1437.i
	movq	%rbx, recog_data+16(%rip)
	movq	24(%r12), %rbx
	movq	$4, %rsi
	movq	%rbx, %rdi
	callq	nonimmediate_operand
	testq	%r13, %rax
	movq	%r14, %rdi
	je	.LBB1_397
# BB#755:                               # %if.then1445.i
	movl	ix86_arch(%rip), %eax
	movl	x86_cmove(%rip), %edx
	movq	%rbx, recog_data+24(%rip)
	movq	$1, %rsi
	movq	%rax, %rcx
	shlq	%cl, %rsi
	andq	%rdx, %rsi
	testq	%r13, %rsi
	jne	.LBB1_757
# BB#756:                               # %lor.lhs.false1451.i
	movzbl	target_flags+2(%rip), %eax
	testq	$5, %rax
	je	.LBB1_760
.LBB1_757:                              # %land.lhs.true1454.i
	movq	%rdi, %rcx
	movq	recog_data+16(%rip), %rax
	movzbl	(%rax), %eax
	cmpq	$66, %rax
	jne	.LBB1_758
# BB#759:                               # %lor.lhs.false1459.i
	movzbl	(%rbx), %eax
	cmpq	$66, %rax
	movq	%rcx, %rdi
	movq	$616, %rdx              # imm = 0x268
	jne	.LBB1_4569
.LBB1_760:                              # %if.end1465.i
	movq	16(%rdi), %r12
	jmp	.LBB1_397
.LBB1_2281:
	movq	%r12, %r8
	jmp	.LBB1_7
.LBB1_2283:
	movq	%r12, %r8
	jmp	.LBB1_7
.LBB1_2286:                             # %lor.lhs.false580.i
	movzbl	target_flags+2(%rip), %eax
	testq	$5, %rax
	movq	%r12, %r8
	movq	$622, %rdx              # imm = 0x26E
	jne	.LBB1_4569
	jmp	.LBB1_7
.LBB1_1684:                             # %if.end355.i
	movq	8(%rbx), %r14
.LBB1_1685:                             # %if.end344.i
	movq	8(%r14), %r15
.LBB1_1686:                             # %L11189.i
	movq	$16, %rsi
	movq	%r15, %rdi
	callq	nonimmediate_operand
	testq	%r13, %rax
	je	.LBB1_1691
# BB#1687:                              # %if.then329.i
	movq	%r15, recog_data+8(%rip)
	movq	16(%r14), %r15
	movq	$16, %rsi
	movq	%r15, %rdi
	callq	nonimmediate_operand
	testq	%r13, %rax
	je	.LBB1_1690
# BB#1688:                              # %if.then392.i
	movq	%r15, recog_data+16(%rip)
	movq	16(%rbx), %rax
	movq	recog_data+8(%rip), %rcx
	movq	%rax, %rdi
	movq	%rcx, %rsi
	callq	rtx_equal_p
	testq	%r13, %rax
	je	.LBB1_1689
# BB#1700:                              # %L7162.i
	movq	24(%rbx), %rax
	movq	recog_data+16(%rip), %rcx
	movq	%rax, %rdi
	movq	%rcx, %rsi
	callq	rtx_equal_p
	testq	%r13, %rax
	je	.LBB1_1689
# BB#1701:                              # %land.lhs.true418.i
	movl	target_flags(%rip), %eax
	testq	$262144, %rax           # imm = 0x40000
	je	.LBB1_1689
# BB#1702:                              # %land.lhs.true421.i
	movl	ix86_fpmath(%rip), %ecx
	testq	$2, %rcx
	je	.LBB1_1689
# BB#1703:                              # %land.lhs.true421.i
	andq	$16, %rax
	testq	%r13, %rax
	jne	.LBB1_1689
# BB#1704:                              # %land.lhs.true427.i
	movq	recog_data+8(%rip), %rax
	movzbl	(%rax), %eax
	cmpq	$66, %rax
	jne	.LBB1_1706
# BB#1705:                              # %lor.lhs.false432.i
	movq	recog_data+16(%rip), %rax
	movzbl	(%rax), %eax
	cmpq	$66, %rax
	je	.LBB1_1689
.LBB1_1706:                             # %land.lhs.true437.i
	cmpq	$0, 24(%rsp)            # 8-byte Folded Reload
	je	.LBB1_1689
# BB#1707:                              # %if.then439.i
	movq	$1, %rax
	movq	24(%rsp), %rcx          # 8-byte Reload
	movl	%eax, (%rcx)
	movq	$627, %rdx              # imm = 0x273
	movq	%rdx, %rax
	jmp	.LBB1_2108
.LBB1_1722:                             # %if.end577.i
	movq	8(%rbx), %r14
.LBB1_1723:                             # %if.end566.i
	movq	8(%r14), %r15
.LBB1_1724:                             # %L11193.i
	movq	$16, %rsi
	movq	%r15, %rdi
	callq	register_operand
	testq	%r13, %rax
	je	.LBB1_1668
# BB#1725:                              # %if.then506.i
	movq	%r15, recog_data+8(%rip)
	movq	16(%r14), %r15
	movq	$16, %rsi
	movq	%r15, %rdi
	callq	nonimmediate_operand
	testq	%r13, %rax
	je	.LBB1_1668
# BB#1726:                              # %if.then624.i
	movq	%r15, recog_data+16(%rip)
	movq	16(%rbx), %rax
	movq	recog_data+8(%rip), %rcx
	movq	%rax, %rdi
	movq	%rcx, %rsi
	callq	rtx_equal_p
	testq	%r13, %rax
	je	.LBB1_1727
# BB#1742:                              # %L7262.i
	movq	24(%rbx), %rax
	movq	recog_data+16(%rip), %rcx
	movq	%rax, %rdi
	movq	%rcx, %rsi
	callq	rtx_equal_p
	testq	%r13, %rax
	movq	%r12, %rcx
	je	.LBB1_1712
# BB#1743:                              # %land.lhs.true644.i
	movzbl	target_flags+2(%rip), %eax
	testq	$4, %rax
	je	.LBB1_1712
# BB#1744:                              # %land.lhs.true647.i
	movl	ix86_fpmath(%rip), %eax
	testq	$2, %rax
	je	.LBB1_1712
# BB#1745:                              # %land.lhs.true647.i
	movl	reload_completed(%rip), %eax
	movq	$634, %rdx              # imm = 0x27A
	testq	%r13, %rax
	jne	.LBB1_4569
	jmp	.LBB1_1712
.LBB1_1604:                             # %L11165
	cmpq	$28, %rcx
	movq	%r12, %r8
	jne	.LBB1_1868
# BB#1605:                              # %L6272.i
	movq	8(%rbx), %rbx
	movl	(%rbx), %eax
	movq	%rax, %rcx
	andq	$16711680, %rcx         # imm = 0xFF0000
	cmpq	$1048576, %rcx          # imm = 0x100000
	jne	.LBB1_1868
# BB#1606:                              # %L11181.i
	movq	%r8, %r14
	andq	$65535, %rax            # imm = 0xFFFF
	cmpq	$123, %rax
	jne	.LBB1_1607
# BB#1646:                              # %L6288.i
	movq	8(%rbx), %rbx
	movq	$15, %rsi
	movq	%rbx, %rdi
	callq	register_operand
	testq	%r13, %rax
	movq	%r14, %r8
	je	.LBB1_1868
# BB#1647:                              # %if.then112.i
	movl	target_flags(%rip), %eax
	movq	%rbx, recog_data+8(%rip)
	movq	%rax, %rcx
	andq	$65, %rcx
	cmpq	$1, %rcx
	jne	.LBB1_1868
# BB#1648:                              # %land.lhs.true120.i11797
	movq	%r8, %rcx
	testq	$262144, %rax           # imm = 0x40000
	je	.LBB1_1649
# BB#1650:                              # %land.lhs.true123.i
	movzbl	ix86_fpmath(%rip), %eax
	testq	$2, %rax
	movq	%rcx, %r8
	movq	$565, %rdx              # imm = 0x235
	jne	.LBB1_1868
	jmp	.LBB1_4569
.LBB1_1641:                             # %if.end59.i
	movq	$16, %rsi
	movq	%rbx, %rdi
	callq	register_operand
	testq	%r13, %rax
	movq	%r14, %r8
	je	.LBB1_1868
# BB#1642:                              # %if.then62.i
	movl	target_flags(%rip), %eax
	movq	%rbx, recog_data+8(%rip)
	testq	$1, %rax
	je	.LBB1_1868
# BB#1643:                              # %if.then62.i
	movl	reload_completed(%rip), %eax
	movq	$385, %rdx              # imm = 0x181
.LBB1_1600:                             # %if.then27.i
	testq	%r13, %rax
	jne	.LBB1_4569
	jmp	.LBB1_1868
.LBB1_1800:                             # %L11198.i
	cmpq	$125, %rax
	jne	.LBB1_1801
# BB#1810:                              # %L6134.i
	movq	8(%r14), %r14
	movq	$4, %rsi
	movq	%r14, %rdi
	callq	nonimmediate_operand
	testq	%r13, %rax
	movq	%r15, %r8
	je	.LBB1_1868
# BB#1811:                              # %if.then1078.i
	movq	%r14, recog_data+8(%rip)
	movq	16(%rbx), %rbx
	movq	$16, %rsi
	movq	%rbx, %rdi
	movq	%r8, %r14
	callq	register_operand
	movq	%r14, %r8
	testq	%r13, %rax
	je	.LBB1_1868
# BB#1812:                              # %if.then1086.i
	movl	target_flags(%rip), %eax
	movq	%rbx, recog_data+16(%rip)
	testq	$1, %rax
	je	.LBB1_1868
# BB#1813:                              # %land.lhs.true1091.i
	movl	ix86_cpu(%rip), %ecx
	movl	x86_use_fiop(%rip), %edx
	movq	$1, %rsi
	shlq	%cl, %rsi
	andq	%rdx, %rsi
	testq	%r13, %rsi
	je	.LBB1_1868
# BB#1814:                              # %land.lhs.true1095.i
	movq	%r8, %rcx
	testq	$262144, %rax           # imm = 0x40000
	je	.LBB1_1815
# BB#1816:                              # %land.lhs.true1098.i
	movzbl	ix86_fpmath(%rip), %eax
	testq	$2, %rax
	movq	%rcx, %r8
	movq	$541, %rdx              # imm = 0x21D
	jne	.LBB1_1868
	jmp	.LBB1_4569
.LBB1_1823:
	movq	$543, %rdx              # imm = 0x21F
	movq	%rdx, %rax
	jmp	.LBB1_2108
.LBB1_2005:
	movq	%r14, %r8
	jmp	.LBB1_7
.LBB1_1972:
	movq	%rbx, %r8
	jmp	.LBB1_7
.LBB1_1985:                             # %land.lhs.true390.i
	testq	$1, %rax
	je	.LBB1_1986
# BB#1987:                              # %land.lhs.true390.i
	movl	reload_completed(%rip), %eax
	movq	$368, %rdx              # imm = 0x170
	testq	%r13, %rax
	jmp	.LBB1_1988
.LBB1_1977:
	movq	%rbx, %r8
	jmp	.LBB1_7
.LBB1_1979:
	movq	%rbx, %r8
	jmp	.LBB1_7
.LBB1_2215:
	movq	%r12, %r8
	jmp	.LBB1_7
.LBB1_2217:
	movq	%r12, %r8
	jmp	.LBB1_7
.LBB1_2221:
	movq	%r12, %r8
	jmp	.LBB1_7
.LBB1_2223:
	movq	%r12, %r8
	jmp	.LBB1_7
.LBB1_499:                              # %if.end424.i
	movq	16(%rbx), %rax
	movq	16(%rax), %r12
	movq	%rax, %r14
.LBB1_500:                              # %L1816.i
	movq	$2, %rsi
	movq	%r12, %rdi
	callq	nonmemory_operand
	testq	%r13, %rax
	movq	%rbx, %r8
	je	.LBB1_424
# BB#501:                               # %if.then380.i
	movq	%r8, %rcx
	movl	target_flags(%rip), %eax
	movq	%r12, recog_data+16(%rip)
	testq	$33554432, %rax         # imm = 0x2000000
	je	.LBB1_516
# BB#502:                               # %if.then380.i
	cmpq	$0, 24(%rsp)            # 8-byte Folded Reload
	je	.LBB1_516
# BB#503:                               # %if.then435.i
	movq	$1, %rax
	movq	24(%rsp), %rcx          # 8-byte Reload
	movl	%eax, (%rcx)
	movq	$228, %rdx
	movq	%rdx, %rax
	jmp	.LBB1_2108
.LBB1_438:
	movq	%rbx, %r8
	jmp	.LBB1_424
.LBB1_440:
	movq	%rbx, %r8
	jmp	.LBB1_424
.LBB1_442:
	movq	%rbx, %r8
	jmp	.LBB1_424
.LBB1_444:
	movq	%rbx, %r8
	jmp	.LBB1_424
.LBB1_446:
	movq	%rbx, %r8
	jmp	.LBB1_424
.LBB1_469:                              # %if.end243.i
	movq	16(%rbx), %rax
	movq	16(%rax), %r12
	movq	%rax, %r14
	movq	8(%r12), %rax
	movq	%rax, 8(%rsp)           # 8-byte Spill
.LBB1_470:                              # %L3157.i
	xorq	%rsi, %rsi
	movq	8(%rsp), %rdi           # 8-byte Reload
	callq	ext_register_operand
	testq	%r13, %rax
	je	.LBB1_459
# BB#471:                               # %if.then235.i
	movl	target_flags(%rip), %eax
	movq	8(%rsp), %rcx           # 8-byte Reload
	movq	%rcx, recog_data+16(%rip)
	testq	$33554432, %rax         # imm = 0x2000000
	je	.LBB1_474
# BB#472:                               # %if.then235.i
	cmpq	$0, 24(%rsp)            # 8-byte Folded Reload
	je	.LBB1_474
# BB#473:                               # %if.then257.i
	movq	$1, %rax
	movq	24(%rsp), %rcx          # 8-byte Reload
	movl	%eax, (%rcx)
	movq	$305, %rdx              # imm = 0x131
	movq	%rdx, %rax
	jmp	.LBB1_2108
.LBB1_987:
	movq	%r12, %r8
	jmp	.LBB1_7
.LBB1_1117:
	movq	%r12, %r8
	jmp	.LBB1_7
.LBB1_1119:
	movq	%r12, %r8
	jmp	.LBB1_7
.LBB1_1121:
	movq	%r12, %r8
	jmp	.LBB1_7
.LBB1_1123:
	movq	%r12, %r8
	jmp	.LBB1_7
.LBB1_1133:
	movq	%r12, %r8
	jmp	.LBB1_7
.LBB1_1146:
	movq	%r12, %r8
	jmp	.LBB1_7
.LBB1_1148:
	movq	%r12, %r8
	jmp	.LBB1_7
.LBB1_2056:
	movq	%r12, %r8
	jmp	.LBB1_7
.LBB1_2062:
	movq	%r12, %r8
	jmp	.LBB1_7
.LBB1_2064:
	movq	%r12, %r8
	jmp	.LBB1_7
.LBB1_2066:
	movq	%r12, %r8
	jmp	.LBB1_7
.LBB1_2070:
	movq	%r12, %r8
	jmp	.LBB1_7
.LBB1_2072:
	movq	%r12, %r8
	jmp	.LBB1_7
.LBB1_2074:
	movq	%r12, %r8
	jmp	.LBB1_7
.LBB1_2088:
	movq	%r12, %r8
	jmp	.LBB1_7
.LBB1_2092:
	movq	%r12, %r8
	jmp	.LBB1_7
.LBB1_2094:
	movq	%r12, %r8
	jmp	.LBB1_7
.LBB1_2098:
	movq	%r12, %r8
	jmp	.LBB1_7
.LBB1_2100:
	movq	%r12, %r8
	jmp	.LBB1_7
.LBB1_2293:
	movq	%r12, %r8
	jmp	.LBB1_7
.LBB1_2299:
	movq	%r12, %r8
	jmp	.LBB1_7
.LBB1_2301:
	movq	%r12, %r8
	jmp	.LBB1_7
.LBB1_2303:
	movq	%r12, %r8
	jmp	.LBB1_7
.LBB1_2307:
	movq	%r12, %r8
	jmp	.LBB1_7
.LBB1_2309:
	movq	%r12, %r8
	jmp	.LBB1_7
.LBB1_2311:
	movq	%r12, %r8
	jmp	.LBB1_7
.LBB1_2324:
	movq	%r12, %r8
	jmp	.LBB1_7
.LBB1_2328:
	movq	%r12, %r8
	jmp	.LBB1_7
.LBB1_2330:
	movq	%r12, %r8
	jmp	.LBB1_7
.LBB1_2334:
	movq	%r12, %r8
	jmp	.LBB1_7
.LBB1_2336:
	movq	%r12, %r8
	jmp	.LBB1_7
.LBB1_1326:                             # %if.end265.i
	movq	8(%rbx), %r14
.LBB1_1327:                             # %if.end254.i11705
	movq	8(%r14), %r15
.LBB1_1328:                             # %L11142.i
	movq	$15, %rsi
	movq	%r15, %rdi
	callq	register_operand
	testq	%r13, %rax
	je	.LBB1_1305
# BB#1329:                              # %if.then197.i
	movq	%r15, recog_data+8(%rip)
	movq	16(%r14), %r15
	movq	$15, %rsi
	movq	%r15, %rdi
	callq	nonimmediate_operand
	testq	%r13, %rax
	je	.LBB1_1305
# BB#1330:                              # %if.then309.i
	movq	%r15, recog_data+16(%rip)
	movq	16(%rbx), %rax
	movq	recog_data+8(%rip), %rcx
	movq	%rax, %rdi
	movq	%rcx, %rsi
	callq	rtx_equal_p
	testq	%r13, %rax
	je	.LBB1_1331
# BB#1344:                              # %L7124.i
	movq	24(%rbx), %rax
	movq	recog_data+16(%rip), %rcx
	movq	%rax, %rdi
	movq	%rcx, %rsi
	callq	rtx_equal_p
	testq	%r13, %rax
	movq	%r12, %rcx
	je	.LBB1_1347
# BB#1345:                              # %land.lhs.true329.i
	movl	target_flags(%rip), %eax
	testq	$327680, %rax           # imm = 0x50000
	je	.LBB1_1347
# BB#1346:                              # %land.lhs.true329.i
	movl	reload_completed(%rip), %eax
	movq	$625, %rdx              # imm = 0x271
	testq	%r13, %rax
	jne	.LBB1_4569
.LBB1_1347:                             # %if.end335.i
	movq	%rcx, %r12
	movq	8(%rbx), %r14
	jmp	.LBB1_1305
.LBB1_1362:                             # %if.end482.i
	movq	8(%rbx), %r14
	jmp	.LBB1_1305
.LBB1_1455:
	movq	$533, %rdx              # imm = 0x215
	movq	%rdx, %rax
	jmp	.LBB1_2108
.LBB1_1462:
	movq	$534, %rdx              # imm = 0x216
	movq	%rdx, %rax
	jmp	.LBB1_2108
.LBB1_1431:                             # %if.end1103.i
	movq	$15, %rsi
	movq	%rbx, %rdi
	callq	nonimmediate_operand
	testq	%r13, %rax
	movq	%r14, %r8
	je	.LBB1_1434
# BB#1432:                              # %if.then1106.i
	movzbl	ix86_fpmath(%rip), %eax
	movq	%rbx, recog_data+16(%rip)
	testq	$2, %rax
	je	.LBB1_1434
# BB#1433:                              # %land.lhs.true1132.i11769
	movq	recog_data+24(%rip), %rax
	movzbl	(%rax), %eax
	movzbl	rtx_class(%rax), %eax
	cmpq	$99, %rax
	movq	$535, %rdx              # imm = 0x217
	jne	.LBB1_4569
	jmp	.LBB1_1434
.LBB1_99:
	movq	%r12, %rsi
.LBB1_92:                               # %L219.i
	movzbl	(%rbx), %eax
	cmpq	$61, %rax
	jne	.LBB1_49
# BB#93:                                # %land.lhs.true145.i
	movl	8(%rbx), %eax
	cmpq	$18, %rax
	jne	.LBB1_49
# BB#94:                                # %land.lhs.true150.i
	movzbl	target_flags(%rip), %eax
	movq	$30, %rdx
	testq	$1, %rax
	jne	.LBB1_4569
.LBB1_49:                               # %if.end126.i
	movq	8(%rsi), %r14
	movq	%rsi, %rbx
.LBB1_51:                               # %L10852.i
	movq	$3, %rsi
	movq	%r14, %rdi
	callq	nonimmediate_operand
	testq	%r13, %rax
	je	.LBB1_52
# BB#65:                                # %if.then5.i
	movq	%r14, recog_data(%rip)
	movq	16(%rbx), %r14
	movl	(%r14), %eax
	movq	%rax, %rcx
	andq	$16711680, %rcx         # imm = 0xFF0000
	cmpq	$196608, %rcx           # imm = 0x30000
	jne	.LBB1_66
# BB#129:                               # %L10937.i
	andq	$65535, %rax            # imm = 0xFFFF
	movq	%rbx, %r12
	cmpq	$125, %rax
	jg	.LBB1_132
# BB#130:                               # %L10937.i
	addq	$-75, %rax
	andq	%r13, %rax
	cmpq	$16, %rax
	ja	.LBB1_67
# BB#131:                               # %L10937.i
	jmpq	*.LJTI1_6(,%rax,8)
.LBB1_146:                              # %L1595.i
	movq	8(%r14), %rbx
	movq	$3, %rsi
	movq	%rbx, %rdi
	callq	nonimmediate_operand
	testq	%r13, %rax
	je	.LBB1_67
# BB#147:                               # %if.then526.i
	movq	%rbx, recog_data+8(%rip)
	movq	16(%r14), %rbx
	movq	$3, %rsi
	movq	%rbx, %rdi
	callq	general_operand
	testq	%r13, %rax
	je	.LBB1_67
# BB#148:                               # %if.then534.i
	movq	%rbx, recog_data+16(%rip)
	movl	ix86_cpu(%rip), %eax
	movl	x86_partial_reg_stall(%rip), %r14d
	movq	$1, %rbx
	movq	$1, %rdx
	movq	%rax, %rcx
	shlq	%cl, %rdx
	andq	%r14, %rdx
	testq	%r13, %rdx
	jne	.LBB1_152
# BB#149:                               # %land.lhs.true539.i
	movabsq	$recog_data, %rax
	movq	$75, %rdi
	movq	$3, %rsi
	movq	%rax, %rdx
	callq	ix86_binary_operator_ok
	testq	%r13, %rax
	je	.LBB1_151
# BB#150:                               # %land.lhs.true539.i
	cmpq	$0, 24(%rsp)            # 8-byte Folded Reload
	je	.LBB1_151
# BB#4572:                              # %if.then544.i
	movq	$1, %rax
	movq	24(%rsp), %rcx          # 8-byte Reload
	movl	%eax, (%rcx)
	movq	$215, %rdx
	movq	%rdx, %rax
	jmp	.LBB1_2108
.LBB1_52:
	movq	%rbx, %r12
	jmp	.LBB1_53
.LBB1_66:
	movq	%rbx, %r12
	jmp	.LBB1_67
.LBB1_132:                              # %L10937.i
	cmpq	$126, %rax
	jne	.LBB1_67
# BB#133:                               # %L1075.i
	movq	8(%r14), %rbx
	xorq	%rsi, %rsi
	movq	%rbx, %rdi
	callq	register_operand
	testq	%r13, %rax
	je	.LBB1_67
# BB#134:                               # %if.then465.i
	movl	target_flags(%rip), %edx
	movq	%rbx, recog_data+8(%rip)
	testq	$1, %rdx
	je	.LBB1_145
# BB#135:                               # %land.lhs.true470.i
	movl	(%rbx), %eax
	movq	$14, %rcx
	movq	%rax, %rsi
	shrq	%cl, %rsi
	andq	$1020, %rsi             # imm = 0x3FC
	movl	mode_class(%rsi), %ecx
	movq	%rcx, %rsi
	orq	$4, %rsi
	andq	%r13, %rsi
	cmpq	$6, %rsi
	jne	.LBB1_136
# BB#139:                               # %land.lhs.true494.i
	movl	reload_completed(%rip), %ecx
	movl	reload_in_progress(%rip), %esi
	orq	%rcx, %rsi
	testq	%r13, %rsi
	jne	.LBB1_145
	jmp	.LBB1_140
.LBB1_136:                              # %lor.lhs.false486.i
	andq	%r13, %rcx
	cmpq	$8, %rcx
	jne	.LBB1_145
# BB#137:                               # %lor.lhs.false486.i
	movl	reload_completed(%rip), %ecx
	testq	%r13, %rcx
	jne	.LBB1_145
# BB#138:                               # %lor.lhs.false486.i
	movl	reload_in_progress(%rip), %ecx
	testq	%r13, %rcx
	jne	.LBB1_145
.LBB1_140:                              # %land.lhs.true498.i
	andq	$16711680, %rax         # imm = 0xFF0000
	testq	$327680, %rdx           # imm = 0x50000
	je	.LBB1_142
# BB#141:                               # %land.lhs.true498.i
	movq	%rax, %rcx
	andq	%r13, %rcx
	cmpq	$983040, %rcx           # imm = 0xF0000
	je	.LBB1_145
.LBB1_142:                              # %lor.lhs.false507.i
	movq	%r12, %rcx
	testq	$262144, %rdx           # imm = 0x40000
	je	.LBB1_143
# BB#144:                               # %lor.lhs.false507.i
	andq	%r13, %rax
	cmpq	$1048576, %rax          # imm = 0x100000
	movq	%rcx, %r12
	movq	$162, %rdx
	jne	.LBB1_4569
.LBB1_145:                              # %if.end517.i
	movq	16(%r12), %r14
.LBB1_67:                               # %L350.i
	movq	$3, %rsi
	movq	%r14, %rdi
	callq	general_operand
	testq	%r13, %rax
	je	.LBB1_128
# BB#68:                                # %if.then437.i
	movq	%r14, recog_data+8(%rip)
	movq	recog_data(%rip), %rax
	movzbl	(%rax), %eax
	cmpq	$66, %rax
	movq	$51, %rdx
	jne	.LBB1_4569
# BB#69:                                # %lor.lhs.false918.i
	movzbl	(%r14), %eax
	cmpq	$66, %rax
	jne	.LBB1_4569
# BB#70:                                # %if.end924.i
	movq	8(%r12), %r14
	jmp	.LBB1_53
.LBB1_128:                              # %if.end439.i
	movq	8(%r12), %r14
.LBB1_53:                               # %L10853.i
	movzbl	(%r14), %eax
	cmpq	$66, %rax
	jne	.LBB1_54
# BB#248:                               # %L354.i
	movq	8(%r14), %rbx
	movq	$5, %rsi
	movq	%rbx, %rdi
	callq	x86_64_movabs_operand
	testq	%r13, %rax
	je	.LBB1_63
# BB#249:                               # %if.then933.i
	movq	%rbx, recog_data(%rip)
	movq	16(%r12), %rbx
	movq	$3, %rsi
	movq	%rbx, %rdi
	callq	nonmemory_operand
	testq	%r13, %rax
	je	.LBB1_62
# BB#250:                               # %if.then941.i
	movzbl	target_flags+3(%rip), %eax
	movq	%rbx, recog_data+8(%rip)
	movq	$52, %rdx
	testq	$2, %rax
	jne	.LBB1_4569
	jmp	.LBB1_62
.LBB1_54:                               # %if.end11.i
	movq	$3, %rsi
	movq	%r14, %rdi
	callq	register_operand
	testq	%r13, %rax
	je	.LBB1_63
# BB#55:                                # %if.then14.i
	movq	%r14, recog_data(%rip)
	movq	16(%r12), %rbx
	movl	(%rbx), %eax
	movq	%rax, %rcx
	andq	$16711680, %rcx         # imm = 0xFF0000
	cmpq	$196608, %rcx           # imm = 0x30000
	jne	.LBB1_62
# BB#56:                                # %L10950.i
	andq	$65535, %rax            # imm = 0xFFFF
	cmpq	$131, %rax
	jg	.LBB1_265
# BB#57:                                # %L10950.i
	cmpq	$119, %rax
	jg	.LBB1_251
# BB#58:                                # %L10950.i
	cmpq	$66, %rax
	je	.LBB1_271
# BB#59:                                # %L10950.i
	cmpq	$72, %rax
	jne	.LBB1_60
# BB#312:                               # %L7028.i
	movq	8(%rbx), %r14
	xorq	%rsi, %rsi
	movq	%r14, %rdi
	callq	ix86_comparison_operator
	testq	%r13, %rax
	je	.LBB1_62
# BB#313:                               # %if.then1268.i
	movq	%r14, recog_data+8(%rip)
	movq	8(%r14), %rax
	movzbl	(%rax), %ecx
	cmpq	$61, %rcx
	jne	.LBB1_62
# BB#314:                               # %land.lhs.true1280.i
	movl	8(%rax), %eax
	cmpq	$17, %rax
	jne	.LBB1_62
# BB#315:                               # %L7030.i
	movq	16(%r14), %rax
	movzbl	(%rax), %ecx
	cmpq	$54, %rcx
	jne	.LBB1_62
# BB#316:                               # %land.lhs.true1296.i
	cmpq	$0, 8(%rax)
	jne	.LBB1_62
# BB#317:                               # %L7031.i
	movq	16(%rbx), %r14
	movq	$3, %rsi
	movq	%r14, %rdi
	callq	nonimmediate_operand
	testq	%r13, %rax
	je	.LBB1_62
# BB#318:                               # %if.then1311.i
	movq	%r14, recog_data+16(%rip)
	movq	24(%rbx), %rbx
	movq	$3, %rsi
	movq	%rbx, %rdi
	callq	nonimmediate_operand
	testq	%r13, %rax
	je	.LBB1_62
# BB#319:                               # %if.then1322.i
	movl	ix86_arch(%rip), %eax
	movl	x86_cmove(%rip), %edx
	movq	%rbx, recog_data+24(%rip)
	movq	$1, %rsi
