	.file	"optabs.c.bc"
	.text
	.globl	expand_simple_binop
	.align	16, 0x90
	.type	expand_simple_binop,@function
expand_simple_binop:                    # @expand_simple_binop
	.cfi_startproc
# BB#0:                                 # %entry
	pushq	%rax
.Ltmp1:
	.cfi_def_cfa_offset 16
	movq	%rcx, %rax
	movq	$32, %rcx
	shlq	%cl, %rsi
	movq	$32, %rcx
	sarq	%cl, %rsi
	movq	code_to_optab(,%rsi,8), %rsi
	testq	%rsi, %rsi
	je	.LBB0_1
# BB#2:                                 # %if.end
	movq	%rax, %rcx
	popq	%rax
	jmp	expand_binop  # TAILCALL
.LBB0_1:                                # %if.then
	movabsq	$.L.str, %rax
	movabsq	$.L__FUNCTION__.expand_simple_binop, %rcx
	movq	$624, %rsi              # imm = 0x270
	movq	%rax, %rdi
	movq	%rcx, %rdx
	callq	fancy_abort
.Ltmp2:
	.size	expand_simple_binop, .Ltmp2-expand_simple_binop
	.cfi_endproc

	.globl	expand_binop
	.align	16, 0x90
	.type	expand_binop,@function
expand_binop:                           # @expand_binop
	.cfi_startproc
# BB#0:                                 # %entry
	pushq	%r15
.Ltmp9:
	.cfi_def_cfa_offset 16
	pushq	%r14
.Ltmp10:
	.cfi_def_cfa_offset 24
	pushq	%r13
.Ltmp11:
	.cfi_def_cfa_offset 32
	pushq	%r12
.Ltmp12:
	.cfi_def_cfa_offset 40
	pushq	%rbx
.Ltmp13:
	.cfi_def_cfa_offset 48
	subq	$256, %rsp              # imm = 0x100
.Ltmp14:
	.cfi_def_cfa_offset 304
.Ltmp15:
	.cfi_offset %rbx, -48
.Ltmp16:
	.cfi_offset %r12, -40
.Ltmp17:
	.cfi_offset %r13, -32
.Ltmp18:
	.cfi_offset %r14, -24
.Ltmp19:
	.cfi_offset %r15, -16
	movq	%r9, 160(%rsp)          # 8-byte Spill
	movq	%r8, %r15
	movq	%rcx, 208(%rsp)         # 8-byte Spill
	movq	%rdx, %rbx
	movq	%rdi, 232(%rsp)         # 8-byte Spill
	movq	$32, %rcx
	movq	%rdi, %rax
	shlq	%cl, %rax
	movq	$32, %rcx
	sarq	%cl, %rax
	movq	%rax, 168(%rsp)         # 8-byte Spill
	movabsq	$4294967295, %r14       # imm = 0xFFFFFFFF
	jmp	.LBB1_1
	.align	16, 0x90
.LBB1_94:                               # %if.then336
                                        #   in Loop: Header=BB1_1 Depth=1
	movq	184(%rsp), %rdi         # 8-byte Reload
	callq	delete_insns_since
	xorq	%r15, %r15
	movq	192(%rsp), %rbx         # 8-byte Reload
	movq	248(%rsp), %rsi         # 8-byte Reload
.LBB1_1:                                # %tailrecurse
                                        # =>This Inner Loop Header: Depth=1
	movl	(%rsi), %eax
	movq	%rax, 216(%rsp)         # 8-byte Spill
	movq	%rsi, %r12
	callq	get_last_insn
	movq	%rax, 144(%rsp)         # 8-byte Spill
	xorq	%rsi, %rsi
	movq	%rbx, %rdi
	callq	protect_from_queue
	movq	%rax, %rbx
	xorq	%rsi, %rsi
	movq	208(%rsp), %rdi         # 8-byte Reload
	callq	protect_from_queue
	movq	%rax, %r13
	testq	%r15, %r15
	movabsq	$0, %rax
	je	.LBB1_3
# BB#2:                                 # %if.then
                                        #   in Loop: Header=BB1_1 Depth=1
	movq	$1, %rsi
	movq	%r15, %rdi
	callq	protect_from_queue
.LBB1_3:                                # %if.end
                                        #   in Loop: Header=BB1_1 Depth=1
	movl	flag_force_mem(%rip), %ecx
	testq	%rcx, %rcx
	jne	.LBB1_5
# BB#4:                                 #   in Loop: Header=BB1_1 Depth=1
	movq	%rax, 224(%rsp)         # 8-byte Spill
	jmp	.LBB1_6
	.align	16, 0x90
.LBB1_5:                                # %if.then18
                                        #   in Loop: Header=BB1_1 Depth=1
	movq	%rax, 224(%rsp)         # 8-byte Spill
	movq	%rbx, %rdi
	callq	force_not_mem
	movq	%rax, %rbx
	movq	%r13, %rdi
	callq	force_not_mem
	movq	%rax, %r13
.LBB1_6:                                # %if.end21
                                        #   in Loop: Header=BB1_1 Depth=1
	movq	216(%rsp), %r15         # 8-byte Reload
	movq	optab_table+16(%rip), %rax
	cmpq	%r12, %rax
	jne	.LBB1_9
# BB#7:                                 # %land.lhs.true
                                        #   in Loop: Header=BB1_1 Depth=1
	movzbl	(%r13), %eax
	cmpq	$54, %rax
	jne	.LBB1_9
# BB#8:                                 # %if.then24
                                        #   in Loop: Header=BB1_1 Depth=1
	movq	232(%rsp), %rdi         # 8-byte Reload
	movq	%r13, %rsi
	callq	negate_rtx
	movq	optab_table(%rip), %r12
	movq	%rax, %r13
.LBB1_9:                                # %if.end26
                                        #   in Loop: Header=BB1_1 Depth=1
	movzbl	(%rbx), %ecx
	addq	$-87, %r15
	cmpq	$133, %rcx
	jg	.LBB1_14
# BB#10:                                # %if.end26
                                        #   in Loop: Header=BB1_1 Depth=1
	movq	%rbx, 240(%rsp)         # 8-byte Spill
	addq	$-54, %rcx
	andq	%r14, %rcx
	cmpq	$14, %rcx
	jbe	.LBB1_12
# BB#11:                                #   in Loop: Header=BB1_1 Depth=1
	movq	%r12, 248(%rsp)         # 8-byte Spill
	movq	%r14, %r12
	jmp	.LBB1_20
	.align	16, 0x90
.LBB1_14:                               # %if.end26
                                        #   in Loop: Header=BB1_1 Depth=1
	movq	%rbx, 240(%rsp)         # 8-byte Spill
	movq	%r12, 248(%rsp)         # 8-byte Spill
	cmpq	$134, %rcx
	je	.LBB1_17
# BB#15:                                # %if.end26
                                        #   in Loop: Header=BB1_1 Depth=1
	cmpq	$140, %rcx
	je	.LBB1_17
# BB#16:                                #   in Loop: Header=BB1_1 Depth=1
	movq	%r14, %r12
	jmp	.LBB1_20
	.align	16, 0x90
.LBB1_12:                               # %if.end26
                                        #   in Loop: Header=BB1_1 Depth=1
	movq	%r12, 248(%rsp)         # 8-byte Spill
	movq	$1, %rax
	shlq	%cl, %rax
	testq	$24599, %rax            # imm = 0x6017
	je	.LBB1_13
.LBB1_17:                               # %land.lhs.true58
                                        #   in Loop: Header=BB1_1 Depth=1
	callq	preserve_subexpressions_p
	movq	%r14, %r12
	testq	%r12, %rax
	je	.LBB1_20
# BB#18:                                # %land.lhs.true61
                                        #   in Loop: Header=BB1_1 Depth=1
	movq	248(%rsp), %rax         # 8-byte Reload
	movl	(%rax), %esi
	movq	240(%rsp), %rbx         # 8-byte Reload
	movq	%rbx, %rdi
	callq	rtx_cost
	movq	$32, %rcx
	shlq	%cl, %rax
	movq	$32, %rcx
	sarq	%cl, %rax
	cmpq	$5, %rax
	jl	.LBB1_20
# BB#19:                                # %if.then65
                                        #   in Loop: Header=BB1_1 Depth=1
	movq	232(%rsp), %rdi         # 8-byte Reload
	movq	%rbx, %rsi
	callq	force_reg
	movq	%rax, 240(%rsp)         # 8-byte Spill
	jmp	.LBB1_20
.LBB1_13:                               #   in Loop: Header=BB1_1 Depth=1
	movq	%r14, %r12
	.align	16, 0x90
.LBB1_20:                               # %if.end67
                                        #   in Loop: Header=BB1_1 Depth=1
	movzbl	(%r13), %ecx
	cmpq	$133, %rcx
	jg	.LBB1_25
# BB#21:                                # %if.end67
                                        #   in Loop: Header=BB1_1 Depth=1
	addq	$-54, %rcx
	andq	%r12, %rcx
	cmpq	$14, %rcx
	jbe	.LBB1_23
# BB#22:                                #   in Loop: Header=BB1_1 Depth=1
	movq	%r15, 216(%rsp)         # 8-byte Spill
	jmp	.LBB1_35
	.align	16, 0x90
.LBB1_25:                               # %if.end67
                                        #   in Loop: Header=BB1_1 Depth=1
	cmpq	$134, %rcx
	je	.LBB1_28
# BB#26:                                # %if.end67
                                        #   in Loop: Header=BB1_1 Depth=1
	cmpq	$140, %rcx
	je	.LBB1_28
# BB#27:                                #   in Loop: Header=BB1_1 Depth=1
	movq	%r15, 216(%rsp)         # 8-byte Spill
	jmp	.LBB1_35
	.align	16, 0x90
.LBB1_23:                               # %if.end67
                                        #   in Loop: Header=BB1_1 Depth=1
	movq	$1, %rax
	shlq	%cl, %rax
	testq	$24599, %rax            # imm = 0x6017
	je	.LBB1_24
.LBB1_28:                               # %land.lhs.true99
                                        #   in Loop: Header=BB1_1 Depth=1
	callq	preserve_subexpressions_p
	testq	%r12, %rax
	je	.LBB1_29
# BB#30:                                # %land.lhs.true99
                                        #   in Loop: Header=BB1_1 Depth=1
	movq	%r15, %rax
	andq	%r12, %rax
	cmpq	$5, %rax
	jb	.LBB1_31
# BB#32:                                # %land.lhs.true104
                                        #   in Loop: Header=BB1_1 Depth=1
	movq	248(%rsp), %rax         # 8-byte Reload
	movl	(%rax), %esi
	movq	%r13, %rdi
	callq	rtx_cost
	movq	$32, %rcx
	shlq	%cl, %rax
	movq	$32, %rcx
	sarq	%cl, %rax
	cmpq	$5, %rax
	jl	.LBB1_33
# BB#34:                                # %if.then108
                                        #   in Loop: Header=BB1_1 Depth=1
	movq	%r15, 216(%rsp)         # 8-byte Spill
	movq	232(%rsp), %rdi         # 8-byte Reload
	movq	%r13, %rsi
	callq	force_reg
	movq	%rax, %r13
	jmp	.LBB1_35
.LBB1_29:                               #   in Loop: Header=BB1_1 Depth=1
	movq	%r15, 216(%rsp)         # 8-byte Spill
	jmp	.LBB1_35
.LBB1_31:                               #   in Loop: Header=BB1_1 Depth=1
	movq	%r15, 216(%rsp)         # 8-byte Spill
	jmp	.LBB1_35
.LBB1_33:                               #   in Loop: Header=BB1_1 Depth=1
	movq	%r15, 216(%rsp)         # 8-byte Spill
	jmp	.LBB1_35
.LBB1_24:                               #   in Loop: Header=BB1_1 Depth=1
	movq	%r15, 216(%rsp)         # 8-byte Spill
	.align	16, 0x90
.LBB1_35:                               # %if.end110
                                        #   in Loop: Header=BB1_1 Depth=1
	callq	get_last_insn
	movq	248(%rsp), %r9          # 8-byte Reload
	movslq	(%r9), %rcx
	movzbl	rtx_class(%rcx), %ecx
	movq	%rax, 184(%rsp)         # 8-byte Spill
	cmpq	$99, %rcx
	je	.LBB1_41
# BB#36:                                # %if.end110
                                        #   in Loop: Header=BB1_1 Depth=1
	movq	optab_table+64(%rip), %rax
	cmpq	%rax, %r9
	je	.LBB1_41
# BB#37:                                # %if.end110
                                        #   in Loop: Header=BB1_1 Depth=1
	movq	optab_table+72(%rip), %rax
	cmpq	%rax, %r9
	je	.LBB1_41
# BB#38:                                # %if.end110
                                        #   in Loop: Header=BB1_1 Depth=1
	movq	optab_table+48(%rip), %rax
	cmpq	%rax, %r9
	je	.LBB1_41
# BB#39:                                # %if.end110
                                        #   in Loop: Header=BB1_1 Depth=1
	movq	optab_table+56(%rip), %rax
	xorq	%r15, %r15
	cmpq	%rax, %r9
	je	.LBB1_41
# BB#40:                                #   in Loop: Header=BB1_1 Depth=1
	movq	240(%rsp), %rbx         # 8-byte Reload
	movq	224(%rsp), %rsi         # 8-byte Reload
	jmp	.LBB1_50
	.align	16, 0x90
.LBB1_41:                               # %if.then129
                                        #   in Loop: Header=BB1_1 Depth=1
	movq	224(%rsp), %rsi         # 8-byte Reload
	testq	%rsi, %rsi
	je	.LBB1_43
# BB#42:                                # %lor.lhs.false132
                                        #   in Loop: Header=BB1_1 Depth=1
	movzbl	(%rsi), %eax
	cmpq	$61, %rax
	jne	.LBB1_47
.LBB1_43:                               # %cond.true137
                                        #   in Loop: Header=BB1_1 Depth=1
	movzbl	(%r13), %eax
	cmpq	$61, %rax
	jne	.LBB1_45
# BB#44:                                # %land.lhs.true142
                                        #   in Loop: Header=BB1_1 Depth=1
	movq	240(%rsp), %rax         # 8-byte Reload
	movzbl	(%rax), %eax
	cmpq	$61, %rax
	jne	.LBB1_46
.LBB1_45:                               # %lor.lhs.false147
                                        #   in Loop: Header=BB1_1 Depth=1
	cmpq	%r13, %rsi
	jne	.LBB1_48
	jmp	.LBB1_46
.LBB1_47:                               # %cond.false150
                                        #   in Loop: Header=BB1_1 Depth=1
	movq	%r13, %rdi
	movq	%r9, %r14
	movq	%rsi, %rbx
	callq	rtx_equal_p
	movq	%rbx, %rsi
	movq	%r14, %r9
	testq	%r12, %rax
	jne	.LBB1_46
.LBB1_48:                               # %lor.lhs.false153
                                        #   in Loop: Header=BB1_1 Depth=1
	movq	240(%rsp), %rax         # 8-byte Reload
	movzbl	(%rax), %eax
	cmpq	$54, %rax
	movq	$1, %r15
	jne	.LBB1_49
.LBB1_46:                               # %if.then158
                                        #   in Loop: Header=BB1_1 Depth=1
	movq	%r13, %rbx
	movq	$1, %r15
	movq	240(%rsp), %r13         # 8-byte Reload
	jmp	.LBB1_50
.LBB1_49:                               #   in Loop: Header=BB1_1 Depth=1
	movq	240(%rsp), %rbx         # 8-byte Reload
	.align	16, 0x90
.LBB1_50:                               # %if.end160
                                        #   in Loop: Header=BB1_1 Depth=1
	movq	304(%rsp), %rax
	andq	%r12, %rax
	movq	%rax, 152(%rsp)         # 8-byte Spill
	cmpq	$4, %rax
	movq	168(%rsp), %r14         # 8-byte Reload
	je	.LBB1_100
# BB#51:                                # %land.lhs.true163
                                        #   in Loop: Header=BB1_1 Depth=1
	movq	$4, %rcx
	movq	%r14, %rax
	shlq	%cl, %rax
	movslq	8(%r9,%rax), %rax
	cmpq	$1317, %rax             # imm = 0x525
	je	.LBB1_100
# BB#52:                                # %if.then168
                                        #   in Loop: Header=BB1_1 Depth=1
	movq	%r9, 248(%rsp)          # 8-byte Spill
	leaq	(%rax,%rax,4), %rax
	movq	%rax, 176(%rsp)         # 8-byte Spill
	movq	insn_data+24(,%rax,8), %rax
	movq	%rax, 240(%rsp)         # 8-byte Spill
	movzbl	40(%rax), %r12d
	movzbl	64(%rax), %r14d
	testq	%rsi, %rsi
	movq	%rsi, 200(%rsp)         # 8-byte Spill
	movq	%rsi, 224(%rsp)         # 8-byte Spill
	jne	.LBB1_54
# BB#53:                                # %if.else
                                        #   in Loop: Header=BB1_1 Depth=1
	movq	232(%rsp), %rdi         # 8-byte Reload
	callq	gen_reg_rtx
	movq	%rax, 200(%rsp)         # 8-byte Spill
.LBB1_54:                               # %if.end188
                                        #   in Loop: Header=BB1_1 Depth=1
	testq	%r15, %r15
	jne	.LBB1_56
# BB#55:                                #   in Loop: Header=BB1_1 Depth=1
	movq	%r13, %rdx
	jmp	.LBB1_69
	.align	16, 0x90
.LBB1_56:                               # %if.then190
                                        #   in Loop: Header=BB1_1 Depth=1
	movzbl	2(%rbx), %edx
	cmpq	%r12, %rdx
	jne	.LBB1_58
# BB#57:                                #   in Loop: Header=BB1_1 Depth=1
	movq	%r13, %rdx
	jmp	.LBB1_69
	.align	16, 0x90
.LBB1_58:                               # %land.lhs.true195
                                        #   in Loop: Header=BB1_1 Depth=1
	movzbl	2(%r13), %ecx
	cmpq	%r14, %rcx
	movabsq	$0, %rax
	je	.LBB1_60
# BB#59:                                # %land.lhs.true195
                                        #   in Loop: Header=BB1_1 Depth=1
	movabsq	$1, %rax
.LBB1_60:                               # %land.lhs.true195
                                        #   in Loop: Header=BB1_1 Depth=1
	cmpq	%r14, %rdx
	movabsq	$0, %rdx
	jne	.LBB1_62
# BB#61:                                # %land.lhs.true195
                                        #   in Loop: Header=BB1_1 Depth=1
	movabsq	$1, %rdx
.LBB1_62:                               # %land.lhs.true195
                                        #   in Loop: Header=BB1_1 Depth=1
	andq	%rdx, %rax
	cmpq	%r12, %rcx
	movabsq	$0, %rcx
	jne	.LBB1_64
# BB#63:                                # %land.lhs.true195
                                        #   in Loop: Header=BB1_1 Depth=1
	movabsq	$1, %rcx
.LBB1_64:                               # %land.lhs.true195
                                        #   in Loop: Header=BB1_1 Depth=1
	andq	%rcx, %rax
	movq	%rbx, %rdx
	jne	.LBB1_66
# BB#65:                                # %land.lhs.true195
                                        #   in Loop: Header=BB1_1 Depth=1
	movq	%r13, %rdx
.LBB1_66:                               # %land.lhs.true195
                                        #   in Loop: Header=BB1_1 Depth=1
	testq	%rax, %rax
	jne	.LBB1_68
# BB#67:                                # %land.lhs.true195
                                        #   in Loop: Header=BB1_1 Depth=1
	movq	%rbx, %r13
.LBB1_68:                               # %land.lhs.true195
                                        #   in Loop: Header=BB1_1 Depth=1
	movq	%r13, %rbx
.LBB1_69:                               # %if.end215
                                        #   in Loop: Header=BB1_1 Depth=1
	movzbl	2(%rbx), %esi
	cmpq	%r12, %rsi
	movq	%rbx, %r15
	je	.LBB1_75
# BB#70:                                # %if.end215
                                        #   in Loop: Header=BB1_1 Depth=1
	testq	%r12, %r12
	movq	%rbx, %r15
	je	.LBB1_75
# BB#71:                                # %if.then224
                                        #   in Loop: Header=BB1_1 Depth=1
	movq	%rdx, %r13
	testq	%rsi, %rsi
	jne	.LBB1_74
# BB#72:                                # %cond.false234
                                        #   in Loop: Header=BB1_1 Depth=1
	movq	168(%rsp), %rax         # 8-byte Reload
	movzbl	mode_size(%rax), %eax
	movzbl	mode_size(%r12), %ecx
	cmpq	%rcx, %rax
	movq	232(%rsp), %rsi         # 8-byte Reload
	ja	.LBB1_74
# BB#73:                                # %select.mid
                                        #   in Loop: Header=BB1_1 Depth=1
	movq	%r12, %rsi
.LBB1_74:                               # %cond.end247
                                        #   in Loop: Header=BB1_1 Depth=1
	movq	%r12, %rdi
	movq	%rbx, %rdx
	movq	160(%rsp), %rcx         # 8-byte Reload
	callq	convert_modes
	movq	%rax, %r15
	movq	%r13, %rdx
.LBB1_75:                               # %if.end250
                                        #   in Loop: Header=BB1_1 Depth=1
	movq	%rbx, 192(%rsp)         # 8-byte Spill
	movzbl	2(%rdx), %esi
	cmpq	%r14, %rsi
	movq	%rdx, %r13
	je	.LBB1_83
# BB#76:                                # %if.end250
                                        #   in Loop: Header=BB1_1 Depth=1
	testq	%r14, %r14
	movq	%rdx, %r13
	je	.LBB1_83
# BB#77:                                # %if.then259
                                        #   in Loop: Header=BB1_1 Depth=1
	testq	%rsi, %rsi
	jne	.LBB1_82
# BB#78:                                # %cond.false269
                                        #   in Loop: Header=BB1_1 Depth=1
	movq	216(%rsp), %rax         # 8-byte Reload
	movabsq	$4294967295, %rcx       # imm = 0xFFFFFFFF
	andq	%rcx, %rax
	movq	168(%rsp), %rcx         # 8-byte Reload
	movzbl	mode_size(%rcx), %ecx
	movzbl	mode_size(%r14), %esi
	cmpq	$5, %rax
	sbbq	%rax, %rax
	andq	$1, %rax
	cmpq	%rsi, %rcx
	movabsq	$0, %rcx
	ja	.LBB1_80
# BB#79:                                # %cond.false269
                                        #   in Loop: Header=BB1_1 Depth=1
	movabsq	$1, %rcx
.LBB1_80:                               # %cond.false269
                                        #   in Loop: Header=BB1_1 Depth=1
	orq	%rax, %rcx
	movq	%r14, %rsi
	jne	.LBB1_82
# BB#81:                                # %cond.false269
                                        #   in Loop: Header=BB1_1 Depth=1
	movq	232(%rsp), %rsi         # 8-byte Reload
.LBB1_82:                               # %cond.end284
                                        #   in Loop: Header=BB1_1 Depth=1
	movq	%r14, %rdi
	movq	160(%rsp), %rcx         # 8-byte Reload
	movq	%rdx, %rbx
	callq	convert_modes
	movq	%rbx, %rdx
	movq	%rax, %r13
.LBB1_83:                               # %if.end287
                                        #   in Loop: Header=BB1_1 Depth=1
	movq	%rdx, 208(%rsp)         # 8-byte Spill
	movq	%r15, %rdi
	movq	%r12, %rsi
	movq	240(%rsp), %rax         # 8-byte Reload
	callq	*24(%rax)
	movabsq	$4294967295, %rcx       # imm = 0xFFFFFFFF
	testq	%rcx, %rax
	jne	.LBB1_86
# BB#84:                                # %if.end287
                                        #   in Loop: Header=BB1_1 Depth=1
	testq	%r12, %r12
	je	.LBB1_86
# BB#85:                                # %if.then297
                                        #   in Loop: Header=BB1_1 Depth=1
	movq	%r12, %rdi
	movq	%r15, %rsi
	callq	copy_to_mode_reg
	movq	%rax, %r15
.LBB1_86:                               # %if.end299
                                        #   in Loop: Header=BB1_1 Depth=1
	movq	200(%rsp), %r12         # 8-byte Reload
	movq	%r13, %rdi
	movq	%r14, %rsi
	movq	240(%rsp), %rax         # 8-byte Reload
	callq	*48(%rax)
	movabsq	$4294967295, %rbx       # imm = 0xFFFFFFFF
	testq	%rbx, %rax
	movq	232(%rsp), %rcx         # 8-byte Reload
	jne	.LBB1_89
# BB#87:                                # %if.end299
                                        #   in Loop: Header=BB1_1 Depth=1
	testq	%r14, %r14
	je	.LBB1_89
# BB#88:                                # %if.then310
                                        #   in Loop: Header=BB1_1 Depth=1
	movq	%r14, %rdi
	movq	%r13, %rsi
	movq	%rcx, %r14
	callq	copy_to_mode_reg
	movq	%r14, %rcx
	movq	%rax, %r13
.LBB1_89:                               # %if.end312
                                        #   in Loop: Header=BB1_1 Depth=1
	movq	%r12, %rdi
	movq	%rcx, %rsi
	movq	240(%rsp), %rax         # 8-byte Reload
	callq	*(%rax)
	testq	%rbx, %rax
	jne	.LBB1_91
# BB#90:                                # %if.then320
                                        #   in Loop: Header=BB1_1 Depth=1
	movq	232(%rsp), %rdi         # 8-byte Reload
	callq	gen_reg_rtx
	movq	%rax, %r12
.LBB1_91:                               # %if.end322
                                        #   in Loop: Header=BB1_1 Depth=1
	xorq	%rax, %rax
	movq	%r12, %rdi
	movq	%r15, %rsi
	movq	%r13, %rdx
	movq	176(%rsp), %rcx         # 8-byte Reload
	callq	*insn_data+16(,%rcx,8)
	movq	%rax, %rbx
	testq	%rbx, %rbx
	je	.LBB1_97
# BB#92:                                # %if.then327
                                        #   in Loop: Header=BB1_1 Depth=1
	movzbl	(%rbx), %eax
	cmpq	$24, %rax
	movabsq	$4294967295, %r14       # imm = 0xFFFFFFFF
	jne	.LBB1_95
# BB#93:                                # %land.lhs.true332
                                        #   in Loop: Header=BB1_1 Depth=1
	movq	248(%rsp), %rax         # 8-byte Reload
	movl	(%rax), %edx
	movq	%rbx, %rdi
	movq	%r12, %rsi
	movq	%r15, %rcx
	movq	%r13, %r8
	callq	add_equal_note
	testq	%r14, %rax
	je	.LBB1_94
.LBB1_95:                               # %if.end338
	movq	%rbx, %rdi
	callq	emit_insn
	jmp	.LBB1_96
.LBB1_100:                              # %if.end342.loopexit
	movabsq	$4294967293, %rax       # imm = 0xFFFFFFFD
	movq	304(%rsp), %r15
	andq	%r15, %rax
	cmpq	$1, %rax
	movq	$2, 176(%rsp)           # 8-byte Folded Spill
	je	.LBB1_102
# BB#101:                               # %if.end342.loopexit
	movq	%r15, 176(%rsp)         # 8-byte Spill
.LBB1_102:                              # %if.end342.loopexit
	movl	mode_class(,%r14,4), %eax
	movq	%rax, 136(%rsp)         # 8-byte Spill
	movq	%r13, 208(%rsp)         # 8-byte Spill
	movq	160(%rsp), %r13         # 8-byte Reload
	jmp	.LBB1_103
.LBB1_97:                               # %if.else340
	movabsq	$4294967293, %rax       # imm = 0xFFFFFFFD
	movq	304(%rsp), %r15
	andq	%r15, %rax
	cmpq	$1, %rax
	movq	$2, 176(%rsp)           # 8-byte Folded Spill
	movq	192(%rsp), %rbx         # 8-byte Reload
	je	.LBB1_99
# BB#98:                                # %if.else340
	movq	%r15, 176(%rsp)         # 8-byte Spill
.LBB1_99:                               # %if.else340
	movq	168(%rsp), %r14         # 8-byte Reload
	movl	mode_class(,%r14,4), %eax
	movq	%rax, 136(%rsp)         # 8-byte Spill
	movq	184(%rsp), %rdi         # 8-byte Reload
	callq	delete_insns_since
	movq	248(%rsp), %r9          # 8-byte Reload
	movq	160(%rsp), %r13         # 8-byte Reload
	movq	224(%rsp), %rsi         # 8-byte Reload
.LBB1_103:                              # %if.end342
	movq	%rsi, 224(%rsp)         # 8-byte Spill
	movq	optab_table+32(%rip), %rax
	cmpq	%rax, %r9
	jne	.LBB1_113
# BB#104:                               # %land.lhs.true345
	movzbl	mode_wider_mode(%r14), %edi
	testq	%rdi, %rdi
	je	.LBB1_113
# BB#105:                               # %land.lhs.true351
	movabsq	$4294967295, %rax       # imm = 0xFFFFFFFF
	testq	%rax, %r13
	jne	.LBB1_106
# BB#107:                               # %land.lhs.true351
	movabsq	$optab_table+64, %rax
	jmp	.LBB1_108
.LBB1_106:
	movabsq	$optab_table+72, %rax
.LBB1_108:                              # %land.lhs.true351
	movq	(%rax), %rsi
	movq	$4, %rcx
	movq	%rdi, %rax
	shlq	%cl, %rax
	movl	8(%rsi,%rax), %eax
	cmpq	$1317, %rax             # imm = 0x525
	je	.LBB1_113
# BB#109:                               # %if.then366
	xorq	%r8, %r8
	movq	$0, (%rsp)
	movq	%rbx, %rdx
	movq	208(%rsp), %rcx         # 8-byte Reload
	movq	%r13, %r12
	movq	%r15, %r13
	movq	%r14, %r15
	movq	%r9, %r14
	movq	%r12, %r9
	callq	expand_binop
	movq	%r14, %r9
	movq	%r15, %r14
	movq	%r13, %r15
	movq	%r12, %r13
	testq	%rax, %rax
	je	.LBB1_113
# BB#110:                               # %if.then378
	movabsq	$4294967295, %rcx       # imm = 0xFFFFFFFF
	movq	136(%rsp), %rdx         # 8-byte Reload
	andq	%rcx, %rdx
	cmpq	$1, %rdx
	jne	.LBB1_112
# BB#111:                               # %if.then383
	movq	232(%rsp), %rdi         # 8-byte Reload
	movq	%rax, %rsi
.LBB1_166:                              # %if.else486
	addq	$256, %rsp              # imm = 0x100
	popq	%rbx
	popq	%r12
	popq	%r13
	popq	%r14
	popq	%r15
	jmp	gen_lowpart  # TAILCALL
.LBB1_113:                              # %if.end388
	movq	%rbx, 192(%rsp)         # 8-byte Spill
	movq	136(%rsp), %r8          # 8-byte Reload
	movabsq	$4294967295, %rax       # imm = 0xFFFFFFFF
	andq	%rax, %r8
	movq	%r8, 240(%rsp)          # 8-byte Spill
	cmpq	$6, %r8
	ja	.LBB1_125
# BB#114:                               # %if.end388
	movq	$1, %rax
	movq	%r8, %rcx
	shlq	%cl, %rax
	testq	$70, %rax
	je	.LBB1_125
# BB#115:                               # %switch.early.test
	cmpq	$2, 152(%rsp)           # 8-byte Folded Reload
	jb	.LBB1_125
# BB#116:                               # %for.cond.preheader
	movzbl	mode_wider_mode(%r14), %ebx
	jmp	.LBB1_117
.LBB1_167:                              # %if.else488
                                        #   in Loop: Header=BB1_117 Depth=1
	movq	184(%rsp), %rdi         # 8-byte Reload
	callq	delete_insns_since
	movq	248(%rsp), %r9          # 8-byte Reload
	movq	168(%rsp), %r14         # 8-byte Reload
	movq	304(%rsp), %r15
	movq	240(%rsp), %r8          # 8-byte Reload
	movzbl	mode_wider_mode(%rbx), %ebx
.LBB1_117:                              # %for.cond.preheader
                                        # =>This Inner Loop Header: Depth=1
	testq	%rbx, %rbx
	je	.LBB1_125
# BB#118:                               # %for.body
                                        #   in Loop: Header=BB1_117 Depth=1
	andq	$255, %rbx
	movq	$4, %rcx
	movq	%rbx, %rax
	shlq	%cl, %rax
	movl	8(%r9,%rax), %ecx
	movq	optab_table+32(%rip), %rax
	cmpq	$1317, %rcx             # imm = 0x525
	jne	.LBB1_149
# BB#119:                               # %lor.lhs.false415
                                        #   in Loop: Header=BB1_117 Depth=1
	cmpq	%rax, %r9
	jne	.LBB1_124
# BB#120:                               # %land.lhs.true418
                                        #   in Loop: Header=BB1_117 Depth=1
	movzbl	mode_wider_mode(%rbx), %eax
	testq	%rax, %rax
	je	.LBB1_124
# BB#121:                               # %land.lhs.true424
                                        #   in Loop: Header=BB1_117 Depth=1
	movabsq	$4294967295, %rcx       # imm = 0xFFFFFFFF
	testq	%rcx, %r13
	movabsq	$optab_table+72, %rcx
	jne	.LBB1_123
# BB#122:                               # %land.lhs.true424
                                        #   in Loop: Header=BB1_117 Depth=1
	movabsq	$optab_table+64, %rcx
.LBB1_123:                              # %land.lhs.true424
                                        #   in Loop: Header=BB1_117 Depth=1
	movq	(%rcx), %rdx
	movq	$4, %rcx
	shlq	%cl, %rax
	movl	8(%rdx,%rax), %eax
	cmpq	$1317, %rax             # imm = 0x525
	movq	%r9, %rax
	jne	.LBB1_149
.LBB1_124:                              # %for.cond.backedge
                                        #   in Loop: Header=BB1_117 Depth=1
	movzbl	mode_wider_mode(%rbx), %ebx
	jmp	.LBB1_117
.LBB1_149:                              # %if.then439
                                        #   in Loop: Header=BB1_117 Depth=1
	movq	optab_table+152(%rip), %rcx
	cmpq	%rcx, %r9
	je	.LBB1_156
# BB#150:                               # %if.then439
                                        #   in Loop: Header=BB1_117 Depth=1
	movq	optab_table+144(%rip), %rcx
	cmpq	%rcx, %r9
	je	.LBB1_156
# BB#151:                               # %if.then439
                                        #   in Loop: Header=BB1_117 Depth=1
	movq	optab_table+160(%rip), %rcx
	cmpq	%rcx, %r9
	je	.LBB1_156
# BB#152:                               # %if.then439
                                        #   in Loop: Header=BB1_117 Depth=1
	movq	optab_table(%rip), %rcx
	cmpq	%rcx, %r9
	je	.LBB1_156
# BB#153:                               # %if.then439
                                        #   in Loop: Header=BB1_117 Depth=1
	movq	optab_table+16(%rip), %rcx
	cmpq	%rcx, %r9
	je	.LBB1_156
# BB#154:                               # %if.then439
                                        #   in Loop: Header=BB1_117 Depth=1
	cmpq	%rax, %r9
	je	.LBB1_156
# BB#155:                               # %lor.lhs.false462
                                        #   in Loop: Header=BB1_117 Depth=1
	movq	optab_table+168(%rip), %rax
	cmpq	%rax, %r9
	jne	.LBB1_157
.LBB1_156:                              # %land.lhs.true465
                                        #   in Loop: Header=BB1_117 Depth=1
	cmpq	$1, %r8
	jne	.LBB1_157
# BB#158:                               # %land.rhs
                                        #   in Loop: Header=BB1_117 Depth=1
	movq	$1, %r8
	movq	192(%rsp), %rdi         # 8-byte Reload
	movq	%rbx, %rsi
	movq	232(%rsp), %rdx         # 8-byte Reload
	movq	%rdx, %r14
	movq	%r13, %rcx
	movq	%r9, %r12
	movq	%r12, 248(%rsp)         # 8-byte Spill
	callq	widen_operand
	movq	optab_table+168(%rip), %rcx
	movq	%rax, %r15
	cmpq	%rcx, %r12
	movabsq	$0, %r12
	je	.LBB1_160
# BB#159:                               # %land.rhs
                                        #   in Loop: Header=BB1_117 Depth=1
	movabsq	$1, %r12
	jmp	.LBB1_160
.LBB1_157:                              # %if.end469.thread
                                        #   in Loop: Header=BB1_117 Depth=1
	movq	%r9, 248(%rsp)          # 8-byte Spill
	xorq	%r8, %r8
	movq	232(%rsp), %r14         # 8-byte Reload
	xorq	%r12, %r12
	movq	192(%rsp), %rdi         # 8-byte Reload
	movq	%rbx, %rsi
	movq	%r14, %rdx
	movq	%r13, %rcx
	callq	widen_operand
	movq	%rax, %r15
.LBB1_160:                              # %land.rhs
                                        #   in Loop: Header=BB1_117 Depth=1
	movq	208(%rsp), %rdi         # 8-byte Reload
	movq	%rdi, 208(%rsp)         # 8-byte Spill
	movq	%rbx, %rsi
	movq	%r14, %rdx
	movq	%r13, %rcx
	movq	%r12, %r8
	callq	widen_operand
	xorq	%r8, %r8
	movq	$0, (%rsp)
	movq	%rbx, %rdi
	movq	248(%rsp), %rsi         # 8-byte Reload
	movq	%r15, %rdx
	movq	%rax, %rcx
	movq	%r13, %r9
	callq	expand_binop
	movq	%rax, %r15
	testq	%r15, %r15
	je	.LBB1_167
# BB#161:                               # %if.then477
	cmpq	$1, 240(%rsp)           # 8-byte Folded Reload
	jne	.LBB1_162
# BB#165:                               # %if.else486
	movq	%r14, %rdi
	movq	%r15, %rsi
	jmp	.LBB1_166
.LBB1_125:                              # %if.end494
	movq	optab_table+144(%rip), %rax
	movabsq	$4294967293, %rbx       # imm = 0xFFFFFFFD
	andq	%r15, %rbx
	cmpq	%rax, %r9
	je	.LBB1_168
# BB#126:                               # %if.end494
	movq	optab_table+152(%rip), %rax
	cmpq	%rax, %r9
	je	.LBB1_168
# BB#127:                               # %lor.lhs.false500
	movq	optab_table+160(%rip), %rax
	cmpq	%rax, %r9
	jne	.LBB1_128
.LBB1_168:                              # %lor.lhs.false500
	cmpq	$1, %r8
	movq	192(%rsp), %r13         # 8-byte Reload
	jne	.LBB1_169
# BB#170:                               # %land.lhs.true506
	movl	target_flags(%rip), %eax
	movzbl	mode_size(%r14), %edx
	movq	$23, %rcx
	shrq	%cl, %rax
	andq	$4, %rax
	addq	$4, %rax
	movabsq	$4294967292, %rcx       # imm = 0xFFFFFFFC
	andq	%rax, %rcx
	cmpq	%rcx, %rdx
	jbe	.LBB1_169
# BB#171:                               # %land.lhs.true514
	movslq	word_mode(%rip), %rax
	movq	$4, %rcx
	shlq	%cl, %rax
	movl	8(%r9,%rax), %eax
	cmpq	$1317, %rax             # imm = 0x525
	jne	.LBB1_172
.LBB1_169:
	movq	224(%rsp), %rax         # 8-byte Reload
	movq	%rax, 200(%rsp)         # 8-byte Spill
.LBB1_129:                              # %if.end586
	movq	optab_table+176(%rip), %rax
	movq	optab_table+168(%rip), %rdx
	cmpq	%rax, %r9
	je	.LBB1_132
# BB#130:                               # %if.end586
	cmpq	%rdx, %r9
	je	.LBB1_132
# BB#131:                               # %lor.lhs.false592
	movq	optab_table+184(%rip), %rcx
	cmpq	%rcx, %r9
	jne	.LBB1_220
.LBB1_132:                              # %land.lhs.true595
	cmpq	$1, %r8
	jne	.LBB1_220
# BB#133:                               # %land.lhs.true598
	movq	208(%rsp), %rcx         # 8-byte Reload
	movzbl	(%rcx), %ecx
	cmpq	$54, %rcx
	jne	.LBB1_220
# BB#134:                               # %land.lhs.true603
	movl	target_flags(%rip), %esi
	movzbl	mode_size(%r14), %edi
	movq	$22, %rcx
	shrq	%cl, %rsi
	andq	$8, %rsi
	addq	$8, %rsi
	movabsq	$4294967288, %rcx       # imm = 0xFFFFFFF8
	andq	%rsi, %rcx
	cmpq	%rcx, %rdi
	jne	.LBB1_220
# BB#135:                               # %land.lhs.true612
	movslq	word_mode(%rip), %rsi
	movq	$4, %rcx
	movq	%rsi, %rdi
	shlq	%cl, %rdi
	movl	8(%r9,%rdi), %ecx
	cmpq	$1317, %rcx             # imm = 0x525
	je	.LBB1_220
# BB#136:                               # %land.lhs.true619
	movq	$4, %rcx
	movq	%rsi, %rdi
	shlq	%cl, %rdi
	movl	8(%rdx,%rdi), %ecx
	cmpq	$1317, %rcx             # imm = 0x525
	je	.LBB1_220
# BB#137:                               # %land.lhs.true626
	movq	$4, %rcx
	shlq	%cl, %rsi
	movl	8(%rax,%rsi), %eax
	cmpq	$1317, %rax             # imm = 0x525
	je	.LBB1_220
# BB#138:                               # %if.then633
	movq	%rbx, 88(%rsp)          # 8-byte Spill
	movq	%r8, 240(%rsp)          # 8-byte Spill
	movq	%r9, %rbx
	movq	200(%rsp), %rcx         # 8-byte Reload
	testq	%rcx, %rcx
	je	.LBB1_141
# BB#139:                               # %if.then633
	cmpq	%r13, %rcx
	je	.LBB1_141
# BB#140:                               # %if.then633
	movq	208(%rsp), %rax         # 8-byte Reload
	cmpq	%rax, %rcx
	jne	.LBB1_142
.LBB1_141:                              # %if.then654
	movq	232(%rsp), %rdi         # 8-byte Reload
	callq	gen_reg_rtx
	movq	%rax, %rcx
.LBB1_142:                              # %if.end656
	movq	%rcx, %r15
	movq	232(%rsp), %r13         # 8-byte Reload
	callq	start_sequence
	movq	208(%rsp), %rax         # 8-byte Reload
	movq	8(%rax), %r12
	movq	%r12, 224(%rsp)         # 8-byte Spill
	movq	$32, %rcx
	shlq	%cl, %r12
	movq	optab_table+168(%rip), %rax
	movq	%rax, 112(%rsp)         # 8-byte Spill
	movq	$32, %rcx
	sarq	%cl, %r12
	movq	%rbx, %rcx
	cmpq	%rax, %rcx
	movabsq	$0, %r14
	movabsq	$1, %rax
	movq	%r14, %rbx
	jne	.LBB1_144
# BB#143:                               # %if.end656
	movq	%rax, %rbx
.LBB1_144:                              # %if.end656
	movq	%rcx, 248(%rsp)         # 8-byte Spill
	je	.LBB1_146
# BB#145:                               # %if.end656
	movq	%rax, %r14
.LBB1_146:                              # %if.end656
	movq	$1, %rdx
	movq	%r15, 200(%rsp)         # 8-byte Spill
	movq	%r15, %rdi
	movq	%r14, %rsi
	movq	%r13, %rcx
	callq	operand_subword
	movq	%rax, 120(%rsp)         # 8-byte Spill
	movq	$1, %rdx
	movq	%r15, %rdi
	movq	%rbx, %rsi
	movq	%r13, %rcx
	callq	operand_subword
	movq	%rax, 128(%rsp)         # 8-byte Spill
	movq	%rbx, %r15
	movq	192(%rsp), %rbx         # 8-byte Reload
	movq	%rbx, %rdi
	movq	%r14, %rsi
	movq	%r13, %rdx
	callq	operand_subword_force
	movq	%rax, %r14
	movq	%rbx, %rdi
	movq	%r15, %rsi
	movq	%r13, %rdx
	callq	operand_subword_force
	movl	target_flags(%rip), %esi
	movq	$20, %rcx
	shrq	%cl, %rsi
	andq	$32, %rsi
	addq	$32, %rsi
	cmpq	%rsi, %r12
	jge	.LBB1_147
# BB#200:                               # %if.else716
	movq	%rax, 104(%rsp)         # 8-byte Spill
	movq	optab_table+176(%rip), %rbx
	movq	%rbx, 96(%rsp)          # 8-byte Spill
	movq	optab_table+168(%rip), %r12
	movq	112(%rsp), %r15         # 8-byte Reload
	cmpq	%r15, 248(%rsp)         # 8-byte Folded Reload
	je	.LBB1_202
# BB#201:                               # %if.else716
	movq	%r12, %rbx
.LBB1_202:                              # %if.else716
	movq	224(%rsp), %rax         # 8-byte Reload
	subq	%rax, %rsi
	movq	$32, %rcx
	shlq	%cl, %rsi
	movq	$32, %rcx
	sarq	%cl, %rsi
	xorq	%rdi, %rdi
	xorq	%r13, %r13
	callq	gen_rtx_CONST_INT
	xorq	%r8, %r8
	movq	176(%rsp), %rcx         # 8-byte Reload
	movq	%rcx, (%rsp)
	movl	word_mode(%rip), %edi
	movq	%rbx, %rsi
	movq	%r14, %rdx
	movq	%rax, %rcx
	movq	160(%rsp), %r9          # 8-byte Reload
	callq	expand_binop
	movq	%r14, %rcx
	movq	%rax, %r14
	testq	%r14, %r14
	je	.LBB1_218
# BB#203:                               # %if.end742
	movq	%rcx, 224(%rsp)         # 8-byte Spill
	cmpq	%r15, 248(%rsp)         # 8-byte Folded Reload
	movq	104(%rsp), %rdx         # 8-byte Reload
	movq	%r12, %rsi
	je	.LBB1_205
# BB#204:                               # %if.end742
	movq	96(%rsp), %rsi          # 8-byte Reload
.LBB1_205:                              # %if.end742
	movl	word_mode(%rip), %edi
	movq	176(%rsp), %r15         # 8-byte Reload
	movq	%r15, (%rsp)
	xorq	%r8, %r8
	xorq	%r13, %r13
	movq	208(%rsp), %rcx         # 8-byte Reload
	movq	160(%rsp), %rbx         # 8-byte Reload
	movq	%rbx, %r9
	callq	expand_binop
	testq	%rax, %rax
	je	.LBB1_218
# BB#206:                               # %if.end747
	movq	optab_table+152(%rip), %rsi
	movl	word_mode(%rip), %edi
	movq	%r15, (%rsp)
	movq	%r14, %rdx
	movq	%rax, %rcx
	movq	128(%rsp), %r8          # 8-byte Reload
	movq	%rbx, %r9
	callq	expand_binop
	movq	%rax, %rbx
	testq	%rbx, %rbx
	jne	.LBB1_207
# BB#208:                               # %if.end747
	movabsq	$1, %rax
	jmp	.LBB1_209
.LBB1_172:                              # %if.then521
	movq	%rbx, 88(%rsp)          # 8-byte Spill
	movq	%r8, 240(%rsp)          # 8-byte Spill
	movq	%r9, 248(%rsp)          # 8-byte Spill
	movq	224(%rsp), %rcx         # 8-byte Reload
	testq	%rcx, %rcx
	je	.LBB1_175
# BB#173:                               # %if.then521
	cmpq	%r13, %rcx
	je	.LBB1_175
# BB#174:                               # %if.then521
	movq	208(%rsp), %rax         # 8-byte Reload
	cmpq	%rax, %rcx
	jne	.LBB1_176
.LBB1_175:                              # %if.then533
	movq	232(%rsp), %rdi         # 8-byte Reload
	callq	gen_reg_rtx
	movq	%rax, %rcx
.LBB1_176:                              # %if.end535
	movq	%rcx, 224(%rsp)         # 8-byte Spill
	movq	%r13, 192(%rsp)         # 8-byte Spill
	callq	start_sequence
	movzbl	mode_bitsize(%r14,%r14), %eax
	movq	%rax, 200(%rsp)         # 8-byte Spill
	movl	target_flags(%rip), %esi
	movq	$20, %rcx
	shrq	%cl, %rsi
	andq	$32, %rsi
	addq	$32, %rsi
	xorq	%r13, %r13
	xorq	%rdx, %rdx
	idivq	%rsi
	movq	$32, %rcx
	shlq	%cl, %rax
	movq	$32, %rcx
	sarq	%cl, %rax
	testq	%rax, %rax
	jle	.LBB1_177
# BB#178:
	movq	232(%rsp), %rcx         # 8-byte Reload
	.align	16, 0x90
.LBB1_179:                              # %for.body545
                                        # =>This Inner Loop Header: Depth=1
	movq	$1, %rdx
	movq	224(%rsp), %rdi         # 8-byte Reload
	movq	%r13, %rsi
	movq	%rcx, %rbx
	callq	operand_subword
	movl	word_mode(%rip), %r12d
	movq	%rax, %r14
	movq	192(%rsp), %rdi         # 8-byte Reload
	movq	%r13, %rsi
	movq	%rbx, %rdx
	callq	operand_subword_force
	movq	%rax, %r15
	movq	208(%rsp), %rdi         # 8-byte Reload
	movq	%r13, %rsi
	movq	%rbx, %rdx
	callq	operand_subword_force
	movq	176(%rsp), %rcx         # 8-byte Reload
	movq	%rcx, (%rsp)
	movq	%r12, %rdi
	movq	248(%rsp), %rsi         # 8-byte Reload
	movq	%r15, %rdx
	movq	%rax, %rcx
	movq	%r14, %r8
	movq	160(%rsp), %r9          # 8-byte Reload
	callq	expand_binop
	testq	%rax, %rax
	je	.LBB1_180
# BB#181:                               # %if.end555
                                        #   in Loop: Header=BB1_179 Depth=1
	cmpq	%rax, %r14
	je	.LBB1_183
# BB#182:                               # %if.then558
                                        #   in Loop: Header=BB1_179 Depth=1
	movq	%r14, %rdi
	movq	%rax, %rsi
	callq	emit_move_insn
.LBB1_183:                              # %for.inc561
                                        #   in Loop: Header=BB1_179 Depth=1
	incq	%r13
	movq	$32, %rcx
	movq	%r13, %rsi
	shlq	%cl, %rsi
	movq	$32, %rcx
	sarq	%cl, %rsi
	movl	target_flags(%rip), %edi
	movq	$20, %rcx
	shrq	%cl, %rdi
	andq	$32, %rdi
	addq	$32, %rdi
	xorq	%rdx, %rdx
	movq	200(%rsp), %rax         # 8-byte Reload
	idivq	%rdi
	movq	$32, %rcx
	shlq	%cl, %rax
	movq	$32, %rcx
	sarq	%cl, %rax
	cmpq	%rax, %rsi
	movq	%rbx, %rcx
	jl	.LBB1_179
	jmp	.LBB1_184
.LBB1_128:
	movq	224(%rsp), %rax         # 8-byte Reload
	movq	%rax, 200(%rsp)         # 8-byte Spill
	movq	192(%rsp), %r13         # 8-byte Reload
	jmp	.LBB1_129
.LBB1_177:
	movq	232(%rsp), %rcx         # 8-byte Reload
	jmp	.LBB1_184
.LBB1_180:
	movq	%rbx, %rcx
.LBB1_184:                              # %for.end562
	movq	%rcx, %r15
	callq	get_insns
	movq	%rax, %r12
	callq	end_sequence
	movl	target_flags(%rip), %esi
	movq	$20, %rcx
	shrq	%cl, %rsi
	andq	$32, %rsi
	addq	$32, %rsi
	xorq	%r8, %r8
	xorq	%rdx, %rdx
	movq	200(%rsp), %rax         # 8-byte Reload
	idivq	%rsi
	movabsq	$4294967295, %rcx       # imm = 0xFFFFFFFF
	andq	%rcx, %rax
	andq	%rcx, %r13
	cmpq	%rax, %r13
	jne	.LBB1_185
# BB#186:                               # %if.then573
	movq	248(%rsp), %rax         # 8-byte Reload
	movl	(%rax), %eax
	testq	%rax, %rax
	movq	192(%rsp), %r14         # 8-byte Reload
	movq	208(%rsp), %r13         # 8-byte Reload
	je	.LBB1_188
# BB#187:                               # %if.then577
	movq	%rax, 248(%rsp)         # 8-byte Spill
	movq	%r14, %rdi
	callq	copy_rtx
	movq	%rax, %rbx
	movq	%r13, %rdi
	callq	copy_rtx
	movq	248(%rsp), %rdi         # 8-byte Reload
	movq	%r15, %rsi
	movq	%rbx, %rdx
	movq	%rax, %rcx
	callq	gen_rtx_fmt_ee
	movq	%rax, %r8
.LBB1_188:                              # %if.end583
	movq	%r12, %rdi
	movq	224(%rsp), %rbx         # 8-byte Reload
	movq	%rbx, %rsi
	movq	%r14, %rdx
	movq	%r13, %rcx
	callq	emit_no_conflict_block
	movq	%rbx, %r12
	jmp	.LBB1_96
.LBB1_185:
	movq	224(%rsp), %rax         # 8-byte Reload
	movq	%rax, 200(%rsp)         # 8-byte Spill
	movq	%r15, 232(%rsp)         # 8-byte Spill
	movq	192(%rsp), %r13         # 8-byte Reload
	movq	248(%rsp), %r9          # 8-byte Reload
	movq	168(%rsp), %r14         # 8-byte Reload
	movq	240(%rsp), %r8          # 8-byte Reload
	movq	88(%rsp), %rbx          # 8-byte Reload
	jmp	.LBB1_129
.LBB1_112:                              # %if.else385
	movq	232(%rsp), %rdi         # 8-byte Reload
	movq	%rax, %rsi
	movq	%r13, %rdx
	addq	$256, %rsp              # imm = 0x100
	popq	%rbx
	popq	%r12
	popq	%r13
	popq	%r14
	popq	%r15
	jmp	convert_to_mode  # TAILCALL
.LBB1_147:                              # %if.then671
	movq	224(%rsp), %rax         # 8-byte Reload
	subq	%rsi, %rax
	movq	$32, %rcx
	movl	word_mode(%rip), %ebx
	shlq	%cl, %rax
	movq	$32, %rcx
	sarq	%cl, %rax
	xorq	%rdi, %rdi
	movq	%rax, %rsi
	callq	gen_rtx_CONST_INT
	movq	176(%rsp), %rcx         # 8-byte Reload
	movq	%rcx, (%rsp)
	movq	%rbx, %rdi
	movq	248(%rsp), %rsi         # 8-byte Reload
	movq	%r14, %rdx
	movq	%r14, %r12
	movq	%rax, %rcx
	movq	128(%rsp), %rbx         # 8-byte Reload
	movq	%rbx, %r8
	movq	160(%rsp), %r9          # 8-byte Reload
	callq	expand_binop
	movq	%rax, %r15
	testq	%r15, %r15
	movq	%rbx, %rdi
	jne	.LBB1_148
# BB#189:                               # %if.then671
	movabsq	$1, %r14
	jmp	.LBB1_190
.LBB1_148:
	movabsq	$0, %r14
.LBB1_190:                              # %if.then671
	cmpq	%rdi, %r15
	je	.LBB1_193
# BB#191:                               # %if.then671
	testq	%r14, %r14
	jne	.LBB1_193
# BB#192:                               # %if.then684
	movq	%r15, %rsi
	callq	emit_move_insn
.LBB1_193:                              # %if.end686
	movq	optab_table+184(%rip), %rax
	movq	248(%rsp), %rcx         # 8-byte Reload
	cmpq	%rax, %rcx
	jne	.LBB1_194
# BB#195:                               # %if.end686
	movabsq	$1, %rax
	jmp	.LBB1_196
.LBB1_194:
	movabsq	$0, %rax
.LBB1_196:                              # %if.end686
	orq	%r14, %rax
	je	.LBB1_197
# BB#198:                               # %if.else695
	xorq	%r13, %r13
	testq	%r15, %r15
	movq	%r12, %rbx
	je	.LBB1_218
# BB#199:                               # %if.then698
	movl	target_flags(%rip), %esi
	movq	$20, %rcx
	movl	word_mode(%rip), %r14d
	shrq	%cl, %rsi
	andq	$32, %rsi
	orq	$31, %rsi
	xorq	%rdi, %rdi
	callq	gen_rtx_CONST_INT
	movq	176(%rsp), %rcx         # 8-byte Reload
	movq	%rcx, (%rsp)
	movq	%r14, %rdi
	movq	248(%rsp), %rsi         # 8-byte Reload
	movq	%rbx, %rdx
	movq	%rax, %rcx
	jmp	.LBB1_214
.LBB1_197:                              # %if.then692
	movslq	word_mode(%rip), %rax
	movq	const_tiny_rtx(,%rax,8), %r13
	movq	120(%rsp), %rbx         # 8-byte Reload
	jmp	.LBB1_215
.LBB1_162:                              # %if.then480
	movq	224(%rsp), %rax         # 8-byte Reload
	testq	%rax, %rax
	movq	%r14, %rdi
	jne	.LBB1_164
# BB#163:                               # %if.then483
	callq	gen_reg_rtx
.LBB1_164:                              # %if.end485
	xorq	%rdx, %rdx
	movq	%rax, %rdi
	movq	%r15, %rsi
	movq	%rax, %rbx
	callq	convert_move
	movq	%rbx, %r12
	jmp	.LBB1_96
.LBB1_207:
	movabsq	$0, %rax
.LBB1_209:                              # %if.end747
	movq	128(%rsp), %rcx         # 8-byte Reload
	cmpq	%rcx, %rbx
	movq	224(%rsp), %r14         # 8-byte Reload
	je	.LBB1_212
# BB#210:                               # %if.end747
	testq	%rax, %rax
	jne	.LBB1_212
# BB#211:                               # %if.then753
	movq	128(%rsp), %rdi         # 8-byte Reload
	movq	%rbx, %rsi
	callq	emit_move_insn
.LBB1_212:                              # %if.end755
	testq	%rbx, %rbx
	je	.LBB1_218
# BB#213:                               # %if.end760
	movl	word_mode(%rip), %edi
	movq	176(%rsp), %rax         # 8-byte Reload
	movq	%rax, (%rsp)
	movq	248(%rsp), %rsi         # 8-byte Reload
	movq	%r14, %rdx
	movq	208(%rsp), %rcx         # 8-byte Reload
.LBB1_214:                              # %if.end760
	movq	120(%rsp), %rbx         # 8-byte Reload
	movq	%rbx, %r8
	movq	160(%rsp), %r9          # 8-byte Reload
	callq	expand_binop
	movq	%rax, %r13
.LBB1_215:                              # %if.end760
	testq	%r13, %r13
	je	.LBB1_218
# BB#216:                               # %if.end760
	cmpq	%rbx, %r13
	je	.LBB1_218
# BB#217:                               # %if.then766
	movq	%rbx, %rdi
	movq	%r13, %rsi
	callq	emit_move_insn
.LBB1_218:                              # %if.end769
	callq	get_insns
	movq	%rax, %r14
	callq	end_sequence
	testq	%r13, %r13
	je	.LBB1_219
# BB#237:                               # %if.then773
	movq	248(%rsp), %rax         # 8-byte Reload
	movl	(%rax), %edi
	xorq	%r8, %r8
	testq	%rdi, %rdi
	movq	208(%rsp), %r15         # 8-byte Reload
	movq	192(%rsp), %rbx         # 8-byte Reload
	je	.LBB1_239
# BB#238:                               # %if.then777
	movq	232(%rsp), %rsi         # 8-byte Reload
	movq	%rbx, %rdx
	movq	%r15, %rcx
	callq	gen_rtx_fmt_ee
	movq	%rax, %r8
.LBB1_239:                              # %if.end781
	movq	%r14, %rdi
	movq	200(%rsp), %r12         # 8-byte Reload
	movq	%r12, %rsi
	movq	%rbx, %rdx
	movq	%r15, %rcx
	callq	emit_no_conflict_block
	jmp	.LBB1_96
.LBB1_219:
	movq	248(%rsp), %r9          # 8-byte Reload
	movq	168(%rsp), %r14         # 8-byte Reload
	movq	240(%rsp), %r8          # 8-byte Reload
	movq	88(%rsp), %rbx          # 8-byte Reload
	movq	192(%rsp), %r13         # 8-byte Reload
.LBB1_220:                              # %if.end784
	movq	optab_table+192(%rip), %rax
	cmpq	%rax, %r9
	je	.LBB1_222
# BB#221:                               # %lor.lhs.false787
	movq	optab_table+200(%rip), %rax
	cmpq	%rax, %r9
	jne	.LBB1_272
.LBB1_222:                              # %land.lhs.true790
	cmpq	$1, %r8
	jne	.LBB1_272
# BB#223:                               # %land.lhs.true793
	movq	208(%rsp), %rax         # 8-byte Reload
	movzbl	(%rax), %eax
	cmpq	$54, %rax
	jne	.LBB1_272
# BB#224:                               # %land.lhs.true798
	movl	target_flags(%rip), %eax
	movzbl	mode_size(%r14), %edx
	movq	$22, %rcx
	shrq	%cl, %rax
	andq	$8, %rax
	addq	$8, %rax
	movabsq	$4294967288, %rcx       # imm = 0xFFFFFFF8
	andq	%rax, %rcx
	cmpq	%rcx, %rdx
	jne	.LBB1_272
# BB#225:                               # %land.lhs.true808
	movslq	word_mode(%rip), %rax
	movq	optab_table+168(%rip), %rdx
	movq	$4, %rcx
	movq	%rax, %rsi
	shlq	%cl, %rsi
	movl	8(%rdx,%rsi), %ecx
	cmpq	$1317, %rcx             # imm = 0x525
	je	.LBB1_272
# BB#226:                               # %land.lhs.true815
	movq	optab_table+176(%rip), %rdx
	movq	$4, %rcx
	shlq	%cl, %rax
	movl	8(%rdx,%rax), %eax
	cmpq	$1317, %rax             # imm = 0x525
	je	.LBB1_272
# BB#227:                               # %if.then822
	movq	%rbx, 88(%rsp)          # 8-byte Spill
	movq	%r8, 240(%rsp)          # 8-byte Spill
	movq	%r9, %rbx
	movq	200(%rsp), %rcx         # 8-byte Reload
	testq	%rcx, %rcx
	je	.LBB1_230
# BB#228:                               # %if.then822
	cmpq	%r13, %rcx
	je	.LBB1_230
# BB#229:                               # %if.then822
	movq	208(%rsp), %rax         # 8-byte Reload
	cmpq	%rax, %rcx
	jne	.LBB1_231
.LBB1_230:                              # %if.then851
	movq	232(%rsp), %rdi         # 8-byte Reload
	callq	gen_reg_rtx
	movq	%rax, %rcx
.LBB1_231:                              # %if.end853
	movq	%rcx, %r12
	movq	232(%rsp), %r13         # 8-byte Reload
	callq	start_sequence
	movq	208(%rsp), %rax         # 8-byte Reload
	movq	8(%rax), %rcx
	movq	%rcx, 80(%rsp)          # 8-byte Spill
	movq	optab_table+192(%rip), %rdx
	movq	%rdx, 120(%rsp)         # 8-byte Spill
	movabsq	$4294967295, %rax       # imm = 0xFFFFFFFF
	andq	%rax, %rcx
	movq	%rcx, 224(%rsp)         # 8-byte Spill
	cmpq	%rdx, %rbx
	movabsq	$0, %r15
	movabsq	$1, %rax
	movq	%r15, %r14
	jne	.LBB1_233
# BB#232:                               # %if.end853
	movq	%rax, %r14
.LBB1_233:                              # %if.end853
	movq	%rbx, 248(%rsp)         # 8-byte Spill
	je	.LBB1_235
# BB#234:                               # %if.end853
	movq	%rax, %r15
.LBB1_235:                              # %if.end853
	movq	$1, %rdx
	movq	%r12, %rbx
	movq	%rbx, 200(%rsp)         # 8-byte Spill
	movq	%rbx, %rdi
	movq	%r15, %rsi
	movq	%r13, %r12
	movq	%r12, %rcx
	callq	operand_subword
	movq	%rax, 128(%rsp)         # 8-byte Spill
	movq	$1, %rdx
	movq	%rbx, %rdi
	movq	%r14, %rsi
	movq	%r12, %rcx
	callq	operand_subword
	movq	%rax, %r13
	movq	192(%rsp), %rbx         # 8-byte Reload
	movq	%rbx, %rdi
	movq	%r15, %rsi
	movq	%r12, %rdx
	callq	operand_subword_force
	movq	%rax, %r15
	movq	%rbx, %rdi
	movq	%r14, %rsi
	movq	%r12, %rdx
	callq	operand_subword_force
	movl	target_flags(%rip), %esi
	movq	$20, %rcx
	shrq	%cl, %rsi
	andq	$32, %rsi
	addq	$32, %rsi
	movabsq	$4294967264, %rcx       # imm = 0xFFFFFFE0
	movq	%rsi, %rdx
	andq	%rcx, %rdx
	cmpq	%rdx, 224(%rsp)         # 8-byte Folded Reload
	jne	.LBB1_240
# BB#236:                               # %if.then872
	movq	128(%rsp), %rdi         # 8-byte Reload
	movq	%rax, %rsi
	callq	emit_move_insn
	movq	%r13, %rdi
	movq	%r15, %rsi
	callq	emit_move_insn
	movq	const_int_rtx+512(%rip), %rbx
	movq	192(%rsp), %r13         # 8-byte Reload
	movq	168(%rsp), %r14         # 8-byte Reload
	movq	200(%rsp), %r12         # 8-byte Reload
	jmp	.LBB1_270
.LBB1_240:                              # %if.else875
	movq	%r13, 72(%rsp)          # 8-byte Spill
	movq	%rax, 96(%rsp)          # 8-byte Spill
	movq	248(%rsp), %rax         # 8-byte Reload
	movq	120(%rsp), %rcx         # 8-byte Reload
	cmpq	%rcx, %rax
	movabsq	$0, %rdx
	movabsq	$1, %rbx
	movq	%rdx, %rdi
	jne	.LBB1_242
# BB#241:                               # %if.else875
	movq	%rbx, %rdi
.LBB1_242:                              # %if.else875
	movq	$32, %rcx
	movq	80(%rsp), %r13          # 8-byte Reload
	movq	%r13, %rax
	shlq	%cl, %rax
	movq	$32, %rcx
	sarq	%cl, %rax
	cmpq	%rsi, %rax
	jge	.LBB1_244
# BB#243:                               # %if.else875
	movq	%rbx, %rdx
.LBB1_244:                              # %if.else875
	movq	optab_table+176(%rip), %rcx
	movq	optab_table+168(%rip), %rbx
	movq	%rbx, 120(%rsp)         # 8-byte Spill
	xorq	%rdx, %rdi
	movq	%rcx, 112(%rsp)         # 8-byte Spill
	movq	200(%rsp), %r12         # 8-byte Reload
	jne	.LBB1_246
# BB#245:                               # %if.else875
	movq	120(%rsp), %rdx         # 8-byte Reload
	movq	%rdx, 112(%rsp)         # 8-byte Spill
.LBB1_246:                              # %if.else875
	movq	%r15, 104(%rsp)         # 8-byte Spill
	jne	.LBB1_248
# BB#247:                               # %if.else875
	movq	%rcx, 120(%rsp)         # 8-byte Spill
.LBB1_248:                              # %if.else875
	cmpq	%rsi, %rax
	movq	176(%rsp), %r14         # 8-byte Reload
	jle	.LBB1_250
# BB#249:                               # %if.then913
	movq	%r13, %rax
	subq	%rsi, %rax
	movq	$32, %rcx
	shlq	%cl, %rax
	movq	$32, %rcx
	sarq	%cl, %rax
	xorq	%rdi, %rdi
	movq	%rax, %rsi
	callq	gen_rtx_CONST_INT
	movq	%rax, %rbx
	movl	target_flags(%rip), %eax
	movq	$19, %rcx
	shrq	%cl, %rax
	andq	$64, %rax
	movq	$64, %rsi
	subq	%r13, %rsi
	addq	%rax, %rsi
	movq	$32, %rcx
	shlq	%cl, %rsi
	movq	$32, %rcx
	sarq	%cl, %rsi
	xorq	%rdi, %rdi
	jmp	.LBB1_251
.LBB1_250:                              # %if.else927
	subq	%r13, %rsi
	movq	$32, %rcx
	shlq	%cl, %rsi
	movq	$32, %rcx
	sarq	%cl, %rsi
	xorq	%rdi, %rdi
	callq	gen_rtx_CONST_INT
	movq	%rax, %rbx
	movq	$32, %rcx
	shlq	%cl, %r13
	movq	$32, %rcx
	sarq	%cl, %r13
	xorq	%rdi, %rdi
	movq	%r13, %rsi
.LBB1_251:                              # %if.end936
	callq	gen_rtx_CONST_INT
	movq	%rax, %r15
	movq	192(%rsp), %r13         # 8-byte Reload
	movq	%r15, 56(%rsp)          # 8-byte Spill
	movq	%rbx, 64(%rsp)          # 8-byte Spill
	movl	word_mode(%rip), %edi
	movq	%r14, (%rsp)
	xorq	%r8, %r8
	movq	$0, 80(%rsp)            # 8-byte Folded Spill
	movq	120(%rsp), %rsi         # 8-byte Reload
	movq	104(%rsp), %rdx         # 8-byte Reload
	movq	%rbx, %rcx
	movq	160(%rsp), %rbx         # 8-byte Reload
	movq	%rbx, %r9
	callq	expand_binop
	movl	word_mode(%rip), %edi
	movq	%r14, %rcx
	movq	%rax, %r14
	movq	%rcx, (%rsp)
	movq	112(%rsp), %rsi         # 8-byte Reload
	movq	96(%rsp), %rdx          # 8-byte Reload
	movq	%r15, %rcx
	movq	72(%rsp), %r8           # 8-byte Reload
	movq	%rbx, %r9
	callq	expand_binop
	testq	%r14, %r14
	je	.LBB1_252
# BB#253:                               # %if.end936
	testq	%rax, %rax
	movabsq	$0, %rbx
	je	.LBB1_261
# BB#254:                               # %if.end947
	movq	optab_table+152(%rip), %rsi
	movl	word_mode(%rip), %edi
	movq	176(%rsp), %rcx         # 8-byte Reload
	movq	%rcx, (%rsp)
	movq	%r14, %rdx
	movq	%rax, %rcx
	movq	72(%rsp), %r14          # 8-byte Reload
	movq	%r14, %r8
	movq	160(%rsp), %r9          # 8-byte Reload
	callq	expand_binop
	movq	%rax, %rbx
	testq	%rbx, %rbx
	movabsq	$0, %rax
	movabsq	$1, %rcx
	movq	%rax, %rdx
	je	.LBB1_256
# BB#255:                               # %if.end947
	movq	%rcx, %rdx
.LBB1_256:                              # %if.end947
	movq	%rdx, 80(%rsp)          # 8-byte Spill
	jne	.LBB1_258
# BB#257:                               # %if.end947
	movq	%rcx, %rax
.LBB1_258:                              # %if.end947
	cmpq	%r14, %rbx
	je	.LBB1_261
# BB#259:                               # %if.end947
	testq	%rax, %rax
	jne	.LBB1_261
# BB#260:                               # %if.then953
	movq	%r14, %rdi
	movq	%rbx, %rsi
	callq	emit_move_insn
	jmp	.LBB1_261
.LBB1_252:
	xorq	%rbx, %rbx
.LBB1_261:                              # %if.end955
	movq	%rbx, 72(%rsp)          # 8-byte Spill
	movl	word_mode(%rip), %edi
	xorq	%r8, %r8
	movq	176(%rsp), %r14         # 8-byte Reload
	movq	%r14, (%rsp)
	movq	120(%rsp), %rsi         # 8-byte Reload
	movq	96(%rsp), %rdx          # 8-byte Reload
	movq	64(%rsp), %rcx          # 8-byte Reload
	movq	160(%rsp), %rbx         # 8-byte Reload
	movq	%rbx, %r9
	callq	expand_binop
	movl	word_mode(%rip), %edi
	movq	%rax, %r15
	movq	%r14, (%rsp)
	movq	112(%rsp), %rsi         # 8-byte Reload
	movq	104(%rsp), %rdx         # 8-byte Reload
	movq	56(%rsp), %rcx          # 8-byte Reload
	movq	128(%rsp), %r8          # 8-byte Reload
	movq	%rbx, %r9
	callq	expand_binop
	cmpq	$0, 80(%rsp)            # 8-byte Folded Reload
	je	.LBB1_262
# BB#263:                               # %if.end955
	testq	%r15, %r15
	movq	168(%rsp), %r14         # 8-byte Reload
	movq	%r15, %rdx
	je	.LBB1_264
# BB#265:                               # %if.end955
	testq	%rax, %rax
	movq	128(%rsp), %r15         # 8-byte Reload
	movq	72(%rsp), %rbx          # 8-byte Reload
	je	.LBB1_267
# BB#266:                               # %if.then966
	movq	optab_table+152(%rip), %rsi
	movl	word_mode(%rip), %edi
	movq	176(%rsp), %rcx         # 8-byte Reload
	movq	%rcx, (%rsp)
	movq	%rax, %rcx
	movq	%r15, %r8
	movq	160(%rsp), %r9          # 8-byte Reload
	callq	expand_binop
	movq	%rax, %rbx
	jmp	.LBB1_267
.LBB1_262:
	movq	168(%rsp), %r14         # 8-byte Reload
.LBB1_264:
	movq	128(%rsp), %r15         # 8-byte Reload
	movq	72(%rsp), %rbx          # 8-byte Reload
.LBB1_267:                              # %if.end968
	testq	%rbx, %rbx
	je	.LBB1_270
# BB#268:                               # %if.end968
	cmpq	%r15, %rbx
	je	.LBB1_270
# BB#269:                               # %if.then974
	movq	%r15, %rdi
	movq	%rbx, %rsi
	callq	emit_move_insn
.LBB1_270:                              # %if.end977
	callq	get_insns
	movq	%rax, %r15
	callq	end_sequence
	testq	%rbx, %rbx
	je	.LBB1_271
# BB#275:                               # %if.then981
	movq	248(%rsp), %rax         # 8-byte Reload
	movl	(%rax), %edi
	xorq	%rax, %rax
	testq	%rdi, %rdi
	je	.LBB1_277
# BB#276:                               # %if.then985
	movq	232(%rsp), %rsi         # 8-byte Reload
	movq	%r13, %rdx
	movq	208(%rsp), %rcx         # 8-byte Reload
	callq	gen_rtx_fmt_ee
.LBB1_277:                              # %if.end989
	movl	target_flags(%rip), %edx
	movq	$20, %rcx
	shrq	%cl, %rdx
	andq	$32, %rdx
	addq	$32, %rdx
	movabsq	$4294967264, %rcx       # imm = 0xFFFFFFE0
	andq	%rcx, %rdx
	cmpq	%rdx, 224(%rsp)         # 8-byte Folded Reload
	movq	208(%rsp), %rcx         # 8-byte Reload
	movq	%r15, %rdi
	jne	.LBB1_278
# BB#279:                               # %if.else997
	callq	emit_insns
	jmp	.LBB1_96
.LBB1_271:
	movq	%r12, 200(%rsp)         # 8-byte Spill
	movq	248(%rsp), %r9          # 8-byte Reload
	movq	240(%rsp), %r8          # 8-byte Reload
	movq	88(%rsp), %rbx          # 8-byte Reload
.LBB1_272:                              # %if.end1001
	movq	optab_table(%rip), %rax
	cmpq	%rax, %r9
	je	.LBB1_282
# BB#273:                               # %lor.lhs.false1004
	movq	optab_table+16(%rip), %rax
	cmpq	%rax, %r9
	jne	.LBB1_274
# BB#280:                               # %lor.lhs.false1004
	cmpq	$1, %r8
	je	.LBB1_283
# BB#281:
	movq	200(%rsp), %r13         # 8-byte Reload
	jmp	.LBB1_315
.LBB1_282:                              # %land.lhs.true1007
	cmpq	$1, %r8
	jne	.LBB1_370
.LBB1_283:                              # %land.lhs.true1010
	movl	target_flags(%rip), %esi
	movzbl	mode_size(%r14), %eax
	andq	$33554432, %rsi         # imm = 0x2000000
	movq	$22, %rcx
	movq	%rsi, %rdx
	shrq	%cl, %rdx
	addq	$8, %rdx
	movabsq	$4294967288, %rcx       # imm = 0xFFFFFFF8
	andq	%rdx, %rcx
	cmpq	%rcx, %rax
	jae	.LBB1_285
# BB#284:
	movq	200(%rsp), %r13         # 8-byte Reload
	jmp	.LBB1_315
.LBB1_285:                              # %land.lhs.true1020
	movslq	word_mode(%rip), %rax
	movq	$4, %rcx
	shlq	%cl, %rax
	movl	8(%r9,%rax), %eax
	cmpq	$1317, %rax             # imm = 0x525
	jne	.LBB1_287
# BB#286:
	movq	200(%rsp), %r13         # 8-byte Reload
	jmp	.LBB1_315
.LBB1_274:
	movq	200(%rsp), %r13         # 8-byte Reload
	jmp	.LBB1_315
.LBB1_287:                              # %if.then1027
	movq	%rbx, 88(%rsp)          # 8-byte Spill
	movq	%r8, 240(%rsp)          # 8-byte Spill
	movq	%r9, 248(%rsp)          # 8-byte Spill
	movzbl	mode_bitsize(%r14,%r14), %r14d
	movabsq	$4293918720, %rax       # imm = 0xFFF00000
	andq	%rax, %rsi
	movq	$20, %rcx
	shrq	%cl, %rsi
	addq	$32, %rsi
	xorq	%rdx, %rdx
	movq	%r14, %rax
	idivq	%rsi
	movq	%rax, %r15
	movq	232(%rsp), %rbx         # 8-byte Reload
	movq	%rbx, %rdi
	movq	%r13, %rsi
	callq	force_reg
	movq	%rax, 104(%rsp)         # 8-byte Spill
	movq	%rbx, %rdi
	movq	208(%rsp), %rsi         # 8-byte Reload
	callq	force_reg
	movq	%rax, 96(%rsp)          # 8-byte Spill
	movq	200(%rsp), %r12         # 8-byte Reload
	testq	%r12, %r12
	je	.LBB1_291
# BB#288:                               # %lor.lhs.false1056
	movl	(%r12), %eax
	movq	%rax, %rcx
	andq	$65535, %rcx            # imm = 0xFFFF
	cmpq	$61, %rcx
	jne	.LBB1_291
# BB#289:                               # %lor.lhs.false1056
	movq	104(%rsp), %rcx         # 8-byte Reload
	cmpq	%rcx, %r12
	je	.LBB1_291
# BB#290:                               # %lor.lhs.false1056
	movq	96(%rsp), %rcx          # 8-byte Reload
	cmpq	%rcx, %r12
	jne	.LBB1_292
.LBB1_291:                              # %if.then1067
	movq	%rbx, %rdi
	callq	gen_reg_rtx
	movq	%rax, %r12
	movl	(%r12), %eax
.LBB1_292:                              # %if.end1069
	movq	%r14, 80(%rsp)          # 8-byte Spill
	movq	%r12, 200(%rsp)         # 8-byte Spill
	movq	%r13, 192(%rsp)         # 8-byte Spill
	andq	$65535, %rax            # imm = 0xFFFF
	cmpq	$61, %rax
	jne	.LBB1_294
# BB#293:                               # %if.then1074
	movq	$49, %rdi
	xorq	%rsi, %rsi
	movq	%r12, %rdx
	callq	gen_rtx_fmt_e
	movq	%rax, %rdi
	callq	emit_insn
.LBB1_294:                              # %for.cond1078.preheader
	xorq	%r13, %r13
	movabsq	$4294967295, %rax       # imm = 0xFFFFFFFF
	testq	%rax, %r15
	je	.LBB1_311
# BB#295:
	andq	%rax, %r15
	movq	%r15, 224(%rsp)         # 8-byte Spill
	movq	$0, 128(%rsp)           # 8-byte Folded Spill
	.align	16, 0x90
.LBB1_296:                              # %for.body1081
                                        # =>This Inner Loop Header: Depth=1
	movq	$1, %rdx
	movq	%r12, %rdi
	movq	%r13, %rsi
	movq	232(%rsp), %rbx         # 8-byte Reload
	movq	%rbx, %rcx
	callq	operand_subword
	movq	%rax, %r14
	movq	104(%rsp), %rdi         # 8-byte Reload
	movq	%r13, %rsi
	movq	%rbx, %rdx
	callq	operand_subword_force
	movq	%rax, %r15
	movq	96(%rsp), %rdi          # 8-byte Reload
	movq	%r13, %rsi
	movq	%rbx, %rdx
	callq	operand_subword_force
	movl	word_mode(%rip), %edi
	movq	176(%rsp), %rbx         # 8-byte Reload
	movq	%rbx, (%rsp)
	movq	248(%rsp), %rsi         # 8-byte Reload
	movq	%r15, %rdx
	movq	%rax, %rcx
	movq	%r14, %r8
	movq	160(%rsp), %r9          # 8-byte Reload
	callq	expand_binop
	movq	%rax, %r12
	testq	%r12, %r12
	je	.LBB1_297
# BB#298:                               # %if.end1096
                                        #   in Loop: Header=BB1_296 Depth=1
	movq	%r14, 112(%rsp)         # 8-byte Spill
	leaq	1(%r13), %r14
	movq	%r14, 120(%rsp)         # 8-byte Spill
	movabsq	$4294967295, %rax       # imm = 0xFFFFFFFF
	andq	%rax, %r14
	movq	224(%rsp), %rax         # 8-byte Reload
	cmpq	%rax, %r14
	movq	128(%rsp), %rax         # 8-byte Reload
	movq	%rax, %rdx
	jae	.LBB1_302
# BB#299:                               # %if.then1099
                                        #   in Loop: Header=BB1_296 Depth=1
	movl	word_mode(%rip), %edi
	callq	gen_reg_rtx
	movq	optab_table(%rip), %rcx
	movq	$107, %rsi
	cmpq	%rcx, 248(%rsp)         # 8-byte Folded Reload
	je	.LBB1_301
# BB#300:                               # %select.mid19
                                        #   in Loop: Header=BB1_296 Depth=1
	movq	$105, %rsi
.LBB1_301:                              # %select.end18
                                        #   in Loop: Header=BB1_296 Depth=1
	movl	word_mode(%rip), %r8d
	movq	$1, %r9
	movq	$1, (%rsp)
	movq	%rax, %rdi
	movq	%r12, %rdx
	movq	%r15, %rcx
	callq	emit_store_flag_force
	movq	%rax, %rdx
.LBB1_302:                              # %if.end1105
                                        #   in Loop: Header=BB1_296 Depth=1
	movq	$32, %rcx
	movq	%r13, %rax
	shlq	%cl, %rax
	movq	$32, %rcx
	sarq	%cl, %rax
	testq	%rax, %rax
	jle	.LBB1_303
# BB#304:                               # %if.then1108
                                        #   in Loop: Header=BB1_296 Depth=1
	movq	%rdx, %r15
	movl	word_mode(%rip), %edi
	xorq	%r8, %r8
	movq	$1, %r9
	movq	%rbx, (%rsp)
	movq	248(%rsp), %rbx         # 8-byte Reload
	movq	%rbx, %rsi
	movq	%r12, %rdx
	movq	128(%rsp), %rcx         # 8-byte Reload
	callq	expand_binop
	movq	%rax, %rcx
	movq	224(%rsp), %rax         # 8-byte Reload
	cmpq	%rax, %r14
	jae	.LBB1_305
# BB#306:                               # %if.then1120
                                        #   in Loop: Header=BB1_296 Depth=1
	movq	%rcx, 128(%rsp)         # 8-byte Spill
	movl	word_mode(%rip), %edi
	callq	gen_reg_rtx
	movq	optab_table(%rip), %rcx
	movq	$107, %rsi
	cmpq	%rcx, %rbx
	je	.LBB1_308
# BB#307:                               # %select.mid21
                                        #   in Loop: Header=BB1_296 Depth=1
	movq	$105, %rsi
.LBB1_308:                              # %select.end20
                                        #   in Loop: Header=BB1_296 Depth=1
	movl	word_mode(%rip), %r8d
	movq	$1, %r9
	movq	$1, (%rsp)
	movq	%rax, %rdi
	movq	128(%rsp), %rbx         # 8-byte Reload
	movq	%rbx, %rdx
	movq	%r12, %rcx
	callq	emit_store_flag_force
	movq	optab_table+152(%rip), %rsi
	movl	word_mode(%rip), %edi
	xorq	%r9, %r9
	movq	176(%rsp), %rcx         # 8-byte Reload
	movq	%rcx, (%rsp)
	movq	%r15, %rdx
	movq	%rax, %rcx
	movq	%rdx, %r8
	callq	expand_binop
	movq	%rbx, %rcx
	testq	%rax, %rax
	movq	%rax, %r15
	movq	200(%rsp), %r12         # 8-byte Reload
	jne	.LBB1_309
	jmp	.LBB1_311
	.align	16, 0x90
.LBB1_303:                              #   in Loop: Header=BB1_296 Depth=1
	movq	200(%rsp), %r12         # 8-byte Reload
	jmp	.LBB1_310
.LBB1_305:                              #   in Loop: Header=BB1_296 Depth=1
	movq	200(%rsp), %r12         # 8-byte Reload
.LBB1_309:                              # %if.end1132
                                        #   in Loop: Header=BB1_296 Depth=1
	movq	112(%rsp), %rdi         # 8-byte Reload
	movq	%rcx, %rsi
	callq	emit_move_insn
	movq	%r15, %rdx
.LBB1_310:                              # %for.cond1078.backedge
                                        #   in Loop: Header=BB1_296 Depth=1
	movq	224(%rsp), %rax         # 8-byte Reload
	cmpq	%rax, %r14
	movq	120(%rsp), %r13         # 8-byte Reload
	movq	%rdx, %rax
	movq	%rax, 128(%rsp)         # 8-byte Spill
	jb	.LBB1_296
	jmp	.LBB1_311
.LBB1_297:
	movq	200(%rsp), %r12         # 8-byte Reload
.LBB1_311:                              # %for.end1137
	movl	target_flags(%rip), %esi
	movq	$20, %rcx
	shrq	%cl, %rsi
	andq	$32, %rsi
	addq	$32, %rsi
	xorq	%rdx, %rdx
	movq	80(%rsp), %rax          # 8-byte Reload
	idivq	%rsi
	movabsq	$4294967295, %rcx       # imm = 0xFFFFFFFF
	andq	%rcx, %rax
	andq	%rcx, %r13
	cmpq	%rax, %r13
	jne	.LBB1_314
# BB#312:                               # %if.then1147
	movq	optab_table+240(%rip), %rax
	movq	$4, %rcx
	movq	168(%rsp), %rdx         # 8-byte Reload
	shlq	%cl, %rdx
	movl	8(%rax,%rdx), %eax
	cmpq	$1317, %rax             # imm = 0x525
	movq	232(%rsp), %rbx         # 8-byte Reload
	je	.LBB1_96
# BB#313:                               # %if.then1154
	movq	%r12, %rdi
	movq	%r12, %rsi
	callq	emit_move_insn
	movq	248(%rsp), %rcx         # 8-byte Reload
	movl	(%rcx), %r14d
	movq	%rax, %r15
	movq	104(%rsp), %rdi         # 8-byte Reload
	callq	copy_rtx
	movq	%r12, %r13
	movq	%rax, %r12
	movq	96(%rsp), %rdi          # 8-byte Reload
	callq	copy_rtx
	movq	%r14, %rdi
	movq	%rbx, %rsi
	movq	%r12, %rdx
	movq	%r13, %r12
	movq	%rax, %rcx
	callq	gen_rtx_fmt_ee
	movq	$4, %rsi
	movq	%r15, %rdi
	movq	%rax, %rdx
	callq	set_unique_reg_note
	jmp	.LBB1_96
.LBB1_314:                              # %if.else1164
	movq	184(%rsp), %rdi         # 8-byte Reload
	callq	delete_insns_since
	movq	%r12, %r13
	movq	248(%rsp), %r9          # 8-byte Reload
	movq	168(%rsp), %r14         # 8-byte Reload
	movq	240(%rsp), %r8          # 8-byte Reload
	movq	88(%rsp), %rbx          # 8-byte Reload
.LBB1_315:                              # %if.end1166
	movq	optab_table+32(%rip), %rax
	cmpq	%rax, %r9
	jne	.LBB1_316
# BB#317:                               # %if.end1166
	cmpq	$1, %r8
	jne	.LBB1_318
# BB#319:                               # %land.lhs.true1172
	movl	target_flags(%rip), %eax
	movzbl	mode_size(%r14), %edx
	movq	$22, %rcx
	shrq	%cl, %rax
	andq	$8, %rax
	addq	$8, %rax
	movabsq	$4294967288, %rcx       # imm = 0xFFFFFFF8
	andq	%rax, %rcx
	cmpq	%rcx, %rdx
	jne	.LBB1_320
# BB#321:                               # %land.lhs.true1182
	movslq	word_mode(%rip), %rax
	movq	$4, %rcx
	movq	%rax, %rdx
	shlq	%cl, %rdx
	movl	8(%r9,%rdx), %ecx
	cmpq	$1317, %rcx             # imm = 0x525
	jne	.LBB1_323
# BB#322:
	movq	%r13, 200(%rsp)         # 8-byte Spill
	jmp	.LBB1_370
.LBB1_316:
	movq	%r13, 200(%rsp)         # 8-byte Spill
	jmp	.LBB1_370
.LBB1_318:
	movq	%r13, 200(%rsp)         # 8-byte Spill
	jmp	.LBB1_370
.LBB1_320:
	movq	%r13, 200(%rsp)         # 8-byte Spill
	jmp	.LBB1_370
.LBB1_323:                              # %land.lhs.true1189
	movq	optab_table(%rip), %rdx
	movq	$4, %rcx
	shlq	%cl, %rax
	movl	8(%rdx,%rax), %eax
	cmpq	$1317, %rax             # imm = 0x525
	jne	.LBB1_325
# BB#324:
	movq	%r13, 200(%rsp)         # 8-byte Spill
	jmp	.LBB1_370
.LBB1_325:                              # %land.lhs.true1196
	movq	optab_table+72(%rip), %rax
	movq	$4, %rcx
	movq	%r14, %rdx
	shlq	%cl, %rdx
	movl	8(%rax,%rdx), %eax
	cmpq	$1317, %rax             # imm = 0x525
	jne	.LBB1_328
# BB#326:                               # %lor.lhs.false1203
	movq	optab_table+64(%rip), %rax
	movq	$4, %rcx
	movq	%r14, %rdx
	shlq	%cl, %rdx
	movl	8(%rax,%rdx), %eax
	cmpq	$1317, %rax             # imm = 0x525
	jne	.LBB1_328
# BB#327:
	movq	%r13, 200(%rsp)         # 8-byte Spill
	jmp	.LBB1_370
.LBB1_328:                              # %if.then1210
	movq	%rbx, 88(%rsp)          # 8-byte Spill
	movq	%r8, 240(%rsp)          # 8-byte Spill
	movq	%r9, 248(%rsp)          # 8-byte Spill
	movq	$1, %rsi
	movq	192(%rsp), %r12         # 8-byte Reload
	movq	%r12, %rdi
	movq	232(%rsp), %rbx         # 8-byte Reload
	movq	%rbx, %rdx
	callq	operand_subword_force
	movq	%rax, 128(%rsp)         # 8-byte Spill
	xorq	%rsi, %rsi
	movq	%r12, %rdi
	movq	%rbx, %rdx
	callq	operand_subword_force
	movq	%rax, %r14
	movq	$1, %rsi
	movq	208(%rsp), %r15         # 8-byte Reload
	movq	%r15, %rdi
	movq	%rbx, %rdx
	callq	operand_subword_force
	movq	%rax, 224(%rsp)         # 8-byte Spill
	xorq	%rsi, %rsi
	movq	%r15, %rdi
	movq	%rbx, %rdx
	callq	operand_subword_force
	movq	%rax, %r15
	cmpq	%r12, %r13
	je	.LBB1_332
# BB#329:                               # %if.then1210
	movq	208(%rsp), %rax         # 8-byte Reload
	cmpq	%rax, %r13
	je	.LBB1_332
# BB#330:                               # %lor.lhs.false1229
	xorq	%rbx, %rbx
	testq	%r13, %r13
	je	.LBB1_333
# BB#331:                               # %land.lhs.true1232
	movzbl	(%r13), %eax
	cmpq	$61, %rax
	movq	%r13, %rbx
	je	.LBB1_333
.LBB1_332:                              # %if.then1237
	xorq	%rbx, %rbx
.LBB1_333:                              # %if.end1238
	movq	optab_table+72(%rip), %rsi
	movq	$4, %rcx
	movq	168(%rsp), %rdx         # 8-byte Reload
	movq	%rdx, %rax
	shlq	%cl, %rax
	movl	8(%rsi,%rax), %eax
	cmpq	$1317, %rax             # imm = 0x525
	movq	%r14, %r12
	je	.LBB1_337
# BB#334:                               # %if.then1245
	movq	$1, %r9
	movq	$0, (%rsp)
	movq	232(%rsp), %rdi         # 8-byte Reload
	movq	%r12, %rdx
	movq	%r15, %rcx
	movq	%rbx, %r8
	callq	expand_binop
	movq	%rax, %r14
	testq	%r14, %r14
	je	.LBB1_336
# BB#335:
	movq	%rbx, 200(%rsp)         # 8-byte Spill
	movq	%r15, 120(%rsp)         # 8-byte Spill
	movq	128(%rsp), %r13         # 8-byte Reload
	jmp	.LBB1_347
.LBB1_278:                              # %if.then995
	movq	%r12, %rsi
	movq	%r13, %rdx
	movq	%rax, %r8
	callq	emit_no_conflict_block
	jmp	.LBB1_96
.LBB1_336:                              # %if.then1249
	movq	184(%rsp), %rdi         # 8-byte Reload
	callq	delete_insns_since
	movq	168(%rsp), %rdx         # 8-byte Reload
.LBB1_337:                              # %land.lhs.true1255
	movq	%rbx, 200(%rsp)         # 8-byte Spill
	movq	%r15, %rbx
	movq	optab_table+64(%rip), %rax
	movq	$4, %rcx
	shlq	%cl, %rdx
	movl	8(%rax,%rdx), %eax
	cmpq	$1317, %rax             # imm = 0x525
	je	.LBB1_369
# BB#338:                               # %if.then1262
	movl	target_flags(%rip), %esi
	movq	$20, %rcx
	shrq	%cl, %rsi
	andq	$32, %rsi
	orq	$31, %rsi
	xorq	%rdi, %rdi
	callq	gen_rtx_CONST_INT
	movq	optab_table+64(%rip), %rsi
	movq	%rax, %r14
	movq	$1, %r9
	movq	$0, (%rsp)
	movq	232(%rsp), %rdi         # 8-byte Reload
	movq	%r12, %rdx
	movq	%rbx, %r15
	movq	%r15, %rcx
	movq	200(%rsp), %r8          # 8-byte Reload
	callq	expand_binop
	movq	optab_table+176(%rip), %rsi
	movl	word_mode(%rip), %edi
	movq	%rax, 112(%rsp)         # 8-byte Spill
	xorq	%r8, %r8
	movq	$1, %r9
	movq	176(%rsp), %rbx         # 8-byte Reload
	movq	%rbx, (%rsp)
	movq	%r12, %rdx
	movq	%r14, %rcx
	callq	expand_binop
	movl	word_mode(%rip), %edi
	testq	%rax, %rax
	je	.LBB1_340
# BB#339:                               # %if.then1273
	movq	optab_table(%rip), %rsi
	jmp	.LBB1_342
.LBB1_340:                              # %if.else1275
	xorq	%r13, %r13
	movq	optab_table+184(%rip), %rsi
	xorq	%r8, %r8
	xorq	%r9, %r9
	movq	%rbx, (%rsp)
	movq	%r12, %rdx
	movq	%r14, %rcx
	callq	expand_binop
	testq	%rax, %rax
	je	.LBB1_343
# BB#341:                               # %if.then1278
	movq	optab_table+16(%rip), %rsi
	movl	word_mode(%rip), %edi
.LBB1_342:                              # %if.end1281
	xorq	%r9, %r9
	movq	%rbx, (%rsp)
	movq	128(%rsp), %rdx         # 8-byte Reload
	movq	%rax, %rcx
	movq	%rax, %r8
	callq	expand_binop
	movq	%rax, %r13
.LBB1_343:                              # %if.end1281
	movq	optab_table+176(%rip), %rsi
	movl	word_mode(%rip), %edi
	xorq	%r8, %r8
	movq	$1, %r9
	movq	%rbx, (%rsp)
	movq	%r15, %rdx
	movq	%r14, %rcx
	callq	expand_binop
	movl	word_mode(%rip), %edi
	testq	%rax, %rax
	je	.LBB1_345
# BB#344:                               # %if.then1284
	movq	%r15, 120(%rsp)         # 8-byte Spill
	movq	optab_table(%rip), %rsi
	xorq	%r9, %r9
	movq	%rbx, (%rsp)
	movq	224(%rsp), %rdx         # 8-byte Reload
	movq	%rax, %rcx
	movq	%rax, %r8
	callq	expand_binop
	movq	%rax, 224(%rsp)         # 8-byte Spill
	movq	112(%rsp), %r14         # 8-byte Reload
	jmp	.LBB1_347
.LBB1_345:                              # %if.else1286
	movq	optab_table+184(%rip), %rsi
	xorq	%r8, %r8
	xorq	%r9, %r9
	movq	%rbx, (%rsp)
	movq	%r15, %rdx
	movq	%r15, 120(%rsp)         # 8-byte Spill
	movq	%r14, %rcx
	callq	expand_binop
	testq	%rax, %rax
	movq	112(%rsp), %r14         # 8-byte Reload
	je	.LBB1_369
# BB#346:                               # %if.then1289
	movq	optab_table+16(%rip), %rsi
	movl	word_mode(%rip), %edi
	xorq	%r9, %r9
	movq	176(%rsp), %rcx         # 8-byte Reload
	movq	%rcx, (%rsp)
	movq	224(%rsp), %rdx         # 8-byte Reload
	movq	%rax, %rcx
	movq	%rax, %r8
	callq	expand_binop
	movq	%rax, 224(%rsp)         # 8-byte Spill
.LBB1_347:                              # %if.end1293
	testq	%r14, %r14
	je	.LBB1_369
# BB#348:                               # %if.end1293
	testq	%r13, %r13
	je	.LBB1_369
# BB#349:                               # %if.end1293
	cmpq	$0, 224(%rsp)           # 8-byte Folded Reload
	je	.LBB1_369
# BB#350:                               # %if.then1299
	movq	$1, %rsi
	movq	$1, %rdx
	movq	%r14, %rdi
	movq	232(%rsp), %rcx         # 8-byte Reload
	callq	operand_subword
	movl	word_mode(%rip), %edi
	movq	%r12, %rdx
	movq	%rax, %r15
	xorq	%r8, %r8
	xorq	%r9, %r9
	movq	$0, (%rsp)
	movq	248(%rsp), %rsi         # 8-byte Reload
	movq	224(%rsp), %rcx         # 8-byte Reload
	callq	expand_binop
	testq	%rax, %rax
	je	.LBB1_369
# BB#351:                               # %if.end1309
	movq	optab_table(%rip), %rsi
	movl	word_mode(%rip), %edi
	xorq	%r9, %r9
	movq	176(%rsp), %rcx         # 8-byte Reload
	movq	%rcx, (%rsp)
	movq	%rax, %rdx
	movq	%r15, %rcx
	movq	%r15, %r8
	callq	expand_binop
	movq	%rax, %rbx
	testq	%rbx, %rbx
	jne	.LBB1_352
# BB#353:                               # %if.end1309
	movabsq	$1, %rax
	jmp	.LBB1_354
.LBB1_352:
	movabsq	$0, %rax
.LBB1_354:                              # %if.end1309
	cmpq	%r15, %rbx
	je	.LBB1_357
# BB#355:                               # %if.end1309
	testq	%rax, %rax
	jne	.LBB1_357
# BB#356:                               # %if.then1315
	movq	%r15, %rdi
	movq	%rbx, %rsi
	callq	emit_move_insn
.LBB1_357:                              # %if.end1317
	testq	%rbx, %rbx
	movq	%r13, %rcx
	je	.LBB1_369
# BB#358:                               # %if.end1322
	movl	word_mode(%rip), %edi
	xorq	%r8, %r8
	xorq	%r9, %r9
	movq	$0, (%rsp)
	movq	248(%rsp), %rsi         # 8-byte Reload
	movq	120(%rsp), %rdx         # 8-byte Reload
	callq	expand_binop
	testq	%rax, %rax
	je	.LBB1_369
# BB#359:                               # %if.end1327
	movq	optab_table(%rip), %rsi
	movl	word_mode(%rip), %edi
	xorq	%r9, %r9
	movq	176(%rsp), %rcx         # 8-byte Reload
	movq	%rcx, (%rsp)
	movq	%rax, %rdx
	movq	%r15, %rcx
	movq	%r15, %r8
	callq	expand_binop
	movq	%rax, %rbx
	testq	%rbx, %rbx
	jne	.LBB1_360
# BB#361:                               # %if.end1327
	movabsq	$1, %rax
	jmp	.LBB1_362
.LBB1_360:
	movabsq	$0, %rax
.LBB1_362:                              # %if.end1327
	cmpq	%r15, %rbx
	je	.LBB1_365
# BB#363:                               # %if.end1327
	testq	%rax, %rax
	jne	.LBB1_365
# BB#364:                               # %if.then1333
	movq	%r15, %rdi
	movq	%rbx, %rsi
	callq	emit_move_insn
.LBB1_365:                              # %if.end1335
	testq	%rbx, %rbx
	je	.LBB1_369
# BB#366:                               # %if.then1338
	movq	optab_table+240(%rip), %rax
	movq	$4, %rcx
	movq	168(%rsp), %r13         # 8-byte Reload
	shlq	%cl, %r13
	movl	8(%rax,%r13), %eax
	cmpq	$1317, %rax             # imm = 0x525
	jne	.LBB1_368
# BB#367:
	movq	%r14, %r12
	jmp	.LBB1_96
.LBB1_369:                              # %if.end1353
	movq	184(%rsp), %rdi         # 8-byte Reload
	callq	delete_insns_since
	movq	248(%rsp), %r9          # 8-byte Reload
	movq	168(%rsp), %r14         # 8-byte Reload
	movq	240(%rsp), %r8          # 8-byte Reload
	movq	88(%rsp), %rbx          # 8-byte Reload
.LBB1_370:                              # %if.end1354
	movq	136(%rsp), %rcx         # 8-byte Reload
	addq	$-5, %rcx
	movabsq	$4294967295, %rax       # imm = 0xFFFFFFFF
	andq	%rax, %rcx
	cmpq	$1, %rcx
	ja	.LBB1_580
# BB#371:                               # %if.then1360
	cmpq	$5, %r8
	jne	.LBB1_372
# BB#373:                               # %if.then1360
	movq	%rbx, 88(%rsp)          # 8-byte Spill
	movq	%r8, 240(%rsp)          # 8-byte Spill
	movq	%r9, 248(%rsp)          # 8-byte Spill
	movabsq	$1, %rsi
	jmp	.LBB1_374
.LBB1_372:
	movq	%rbx, 88(%rsp)          # 8-byte Spill
	movq	%r8, 240(%rsp)          # 8-byte Spill
	movq	%r9, 248(%rsp)          # 8-byte Spill
	movabsq	$0, %rsi
.LBB1_374:                              # %if.then1360
	movq	200(%rsp), %r12         # 8-byte Reload
	movzbl	mode_unit_size(%r14), %edi
	movq	$3, %rcx
	shlq	%cl, %rdi
	xorq	$1, %rsi
	incq	%rsi
	xorq	%rdx, %rdx
	callq	mode_for_size
	movq	%rax, %rbx
                                        # kill: RAX<def> RBX<kill>
	movabsq	$4294967295, %rcx       # imm = 0xFFFFFFFF
	andq	%rcx, %rax
	cmpq	$51, %rax
	je	.LBB1_375
# BB#377:                               # %if.end1384
	movq	%r14, 168(%rsp)         # 8-byte Spill
	testq	%r12, %r12
	jne	.LBB1_379
# BB#378:                               # %if.then1386
	movq	232(%rsp), %rdi         # 8-byte Reload
	callq	gen_reg_rtx
	movq	%rax, %r12
.LBB1_379:                              # %if.end1388
	movq	%r12, 200(%rsp)         # 8-byte Spill
	callq	start_sequence
	movq	%rbx, %rdi
	movq	%r12, %rsi
	callq	gen_realpart
	movq	%rax, 136(%rsp)         # 8-byte Spill
	movq	%rbx, %rdi
	movq	%rbx, 224(%rsp)         # 8-byte Spill
	movq	%r12, %rsi
	callq	gen_imagpart
	movq	%rax, 128(%rsp)         # 8-byte Spill
	movq	192(%rsp), %rsi         # 8-byte Reload
	movzbl	2(%rsi), %eax
	movq	232(%rsp), %rbx         # 8-byte Reload
	movabsq	$4294967295, %rcx       # imm = 0xFFFFFFFF
	andq	%rcx, %rbx
	xorq	%r13, %r13
	cmpq	%rbx, %rax
	movq	%rsi, %rdx
	movq	%rsi, %r12
	movabsq	$0, %r8
	jne	.LBB1_381
# BB#380:                               # %if.then1396
	movq	224(%rsp), %r13         # 8-byte Reload
	movq	%r13, %rdi
	movq	%r12, %r14
	movq	%r14, %rsi
	callq	gen_realpart
	movq	%rax, %r15
	movq	%r13, %rdi
	xorq	%r13, %r13
	movq	%r14, %rsi
	movq	%r14, %r12
	callq	gen_imagpart
	movq	%r15, %rdx
	movq	%rax, %r8
.LBB1_381:                              # %if.end1400
	movq	208(%rsp), %rcx         # 8-byte Reload
	movzbl	2(%rcx), %eax
	cmpq	%rbx, %rax
	movq	%rcx, %rbx
	jne	.LBB1_383
# BB#382:                               # %if.then1406
	movq	224(%rsp), %rbx         # 8-byte Reload
	movq	%rbx, %rdi
	movq	%rcx, %rsi
	movq	%rcx, %r13
	movq	%r8, 176(%rsp)          # 8-byte Spill
	movq	%rdx, %r15
	callq	gen_realpart
	movq	%rax, %r14
	movq	%rbx, %rdi
	movq	%r13, %rsi
	callq	gen_imagpart
	movq	%r15, %rdx
	movq	%r14, %rbx
	movq	176(%rsp), %r8          # 8-byte Reload
	movq	%r13, %rcx
	movq	%rax, %r13
.LBB1_383:                              # %if.end1410
	testq	%rdx, %rdx
	movq	248(%rsp), %rsi         # 8-byte Reload
	je	.LBB1_386
# BB#384:                               # %if.end1410
	testq	%rbx, %rbx
	je	.LBB1_386
# BB#385:                               # %lor.lhs.false1416
	movq	%r8, %rax
	orq	%r13, %rax
	je	.LBB1_386
# BB#387:                               # %if.end1423
	movl	(%rsi), %eax
	cmpq	$79, %rax
	je	.LBB1_438
# BB#388:                               # %if.end1423
	movq	%r13, %r14
	movq	%r8, %r13
	cmpq	$78, %rax
	movq	160(%rsp), %r9          # 8-byte Reload
	je	.LBB1_405
# BB#389:                               # %if.end1423
	movq	%rcx, 208(%rsp)         # 8-byte Spill
	addq	$-75, %rax
	movabsq	$4294967295, %rcx       # imm = 0xFFFFFFFF
	andq	%rcx, %rax
	cmpq	$1, %rax
	ja	.LBB1_587
# BB#390:                               # %sw.bb
	movq	304(%rsp), %rax
	movq	%rax, (%rsp)
	movq	224(%rsp), %r12         # 8-byte Reload
	movq	%r12, %rdi
	movq	%rbx, %rcx
	movq	136(%rsp), %rbx         # 8-byte Reload
	movq	%rbx, %r8
	callq	expand_binop
	testq	%rax, %rax
	movq	$1, 176(%rsp)           # 8-byte Folded Spill
	je	.LBB1_578
# BB#391:                               # %if.else1429
	cmpq	%rbx, %rax
	je	.LBB1_393
# BB#392:                               # %if.then1432
	movq	%rbx, %rdi
	movq	%rax, %rsi
	callq	emit_move_insn
.LBB1_393:                              # %if.end1435
	movq	%r13, %rdx
	testq	%rdx, %rdx
	movq	304(%rsp), %r15
	movq	%r14, %rax
	je	.LBB1_396
# BB#394:                               # %if.end1435
	testq	%rax, %rax
	je	.LBB1_396
# BB#395:                               # %if.then1439
	movq	%r15, (%rsp)
	movq	%r12, %rdi
	movq	248(%rsp), %rsi         # 8-byte Reload
	movq	%rax, %rcx
	movq	128(%rsp), %r14         # 8-byte Reload
	movq	%r14, %r8
	movq	160(%rsp), %r9          # 8-byte Reload
	callq	expand_binop
.LBB1_402:                              # %if.end1459
	testq	%rax, %rax
	movq	%rax, %rdx
	jne	.LBB1_403
	jmp	.LBB1_578
.LBB1_438:                              # %sw.bb1565
	movq	%rdx, %r15
	testq	%r13, %r13
	movq	%r13, 120(%rsp)         # 8-byte Spill
	movq	%r12, %rdi
	movq	160(%rsp), %r13         # 8-byte Reload
	je	.LBB1_439
# BB#449:                               # %if.else1604
	movq	%r8, 176(%rsp)          # 8-byte Spill
	movq	%rcx, 208(%rsp)         # 8-byte Spill
	movl	flag_complex_divide_method(%rip), %eax
	cmpq	$1, %rax
	movq	%r15, %rdx
	jne	.LBB1_450
# BB#493:                               # %sw.bb1607
	movq	optab_table+88(%rip), %rax
	cmpq	%rsi, %rax
	je	.LBB1_495
# BB#494:
	movabsq	$optab_table, %rax
	movabsq	$optab_table+32, %rcx
	movabsq	$optab_table+256, %rdi
	movabsq	$optab_table+16, %rsi
	jmp	.LBB1_496
.LBB1_405:                              # %sw.bb1470
	movq	%rcx, 208(%rsp)         # 8-byte Spill
	movq	%r12, 192(%rsp)         # 8-byte Spill
	movq	224(%rsp), %r12         # 8-byte Reload
	movq	%r12, %rdi
	movq	%rdx, %rsi
	callq	force_reg
	movq	%rax, 120(%rsp)         # 8-byte Spill
	movq	%r12, %rdi
	movq	%rbx, %rsi
	callq	force_reg
	movq	%rax, %rcx
	movq	%r13, %rsi
	testq	%rsi, %rsi
	movq	%r14, %rbx
	je	.LBB1_431
# BB#406:                               # %sw.bb1470
	testq	%rbx, %rbx
	je	.LBB1_431
# BB#407:                               # %if.then1474
	movq	%r12, %rdi
	movq	%rcx, %r13
	movq	%r13, 104(%rsp)         # 8-byte Spill
	callq	force_reg
	movq	%rax, 176(%rsp)         # 8-byte Spill
	movq	%r12, %rdi
	movq	%rbx, %rsi
	callq	force_reg
	movq	%rax, 112(%rsp)         # 8-byte Spill
	xorq	%r8, %r8
	movq	304(%rsp), %rax
	movq	%rax, %r15
	movq	%r15, (%rsp)
	movq	%r12, %rdi
	movq	160(%rsp), %r14         # 8-byte Reload
	movq	%r12, %rbx
	movq	248(%rsp), %r12         # 8-byte Reload
	movq	%r12, %rsi
	movq	120(%rsp), %rdx         # 8-byte Reload
	movq	%r13, %rcx
	movq	%r14, %r9
	callq	expand_binop
	movq	%rax, %r13
	xorq	%r8, %r8
	movq	%r15, (%rsp)
	movq	%rbx, %rdi
	movq	%r12, %rsi
	movq	176(%rsp), %rdx         # 8-byte Reload
	movq	112(%rsp), %rcx         # 8-byte Reload
	movq	%r14, %r9
	callq	expand_binop
	testq	%r13, %r13
	je	.LBB1_408
# BB#409:                               # %if.then1474
	testq	%rax, %rax
	je	.LBB1_410
# BB#411:                               # %if.end1489
	movq	optab_table+40(%rip), %rcx
	movq	248(%rsp), %rdx         # 8-byte Reload
	cmpq	%rcx, %rdx
	je	.LBB1_412
# BB#413:                               # %select.mid27
	movq	optab_table+16(%rip), %rsi
	jmp	.LBB1_414
.LBB1_396:                              # %if.else1441
	testq	%rdx, %rdx
	movq	128(%rsp), %r14         # 8-byte Reload
	je	.LBB1_397
.LBB1_403:                              # %if.else1463
	movq	$0, 176(%rsp)           # 8-byte Folded Spill
	cmpq	%r14, %rdx
	je	.LBB1_578
# BB#404:                               # %if.then1466
	movq	%r14, %rdi
	movq	%rdx, %rsi
	callq	emit_move_insn
	jmp	.LBB1_578
.LBB1_431:                              # %if.else1533
	movq	%rsi, %r15
	movq	304(%rsp), %rax
	movq	%rax, (%rsp)
	movq	%r12, %rdi
	movq	248(%rsp), %rsi         # 8-byte Reload
	movq	120(%rsp), %rdx         # 8-byte Reload
	movq	%rcx, %r13
	movq	136(%rsp), %r14         # 8-byte Reload
	movq	%r14, %r8
	movq	160(%rsp), %r9          # 8-byte Reload
	callq	expand_binop
	testq	%rax, %rax
	movq	$1, 176(%rsp)           # 8-byte Folded Spill
	je	.LBB1_578
# BB#432:                               # %if.else1540
	cmpq	%r14, %rax
	je	.LBB1_434
# BB#433:                               # %if.then1543
	movq	%r14, %rdi
	movq	%rax, %rsi
	callq	emit_move_insn
.LBB1_434:                              # %if.end1546
	movq	%r15, %rcx
	testq	%rcx, %rcx
	je	.LBB1_436
# BB#435:                               # %if.then1549
	movq	304(%rsp), %r15
	movq	%r15, (%rsp)
	movq	%r12, %rdi
	movq	248(%rsp), %rsi         # 8-byte Reload
	movq	%r13, %rdx
	jmp	.LBB1_437
.LBB1_439:                              # %if.then1568
	movq	%r8, 176(%rsp)          # 8-byte Spill
	movq	%rcx, 208(%rsp)         # 8-byte Spill
	movq	224(%rsp), %r12         # 8-byte Reload
	movq	%r12, %rdi
	movq	%rbx, %rsi
	callq	force_reg
	movq	%rax, %r14
	cmpq	$6, 240(%rsp)           # 8-byte Folded Reload
	jne	.LBB1_441
# BB#440:                               # %if.then1572
	movq	304(%rsp), %rax
	movq	%rax, (%rsp)
	movq	%r12, %rdi
	movq	248(%rsp), %rsi         # 8-byte Reload
	movq	%r15, %rdx
	movq	%r14, %rcx
	movq	136(%rsp), %rbx         # 8-byte Reload
	movq	%rbx, %r8
	movq	%r13, %r9
	callq	expand_binop
	jmp	.LBB1_442
.LBB1_450:                              # %if.else1604
	testq	%rax, %rax
	jne	.LBB1_586
# BB#451:                               # %sw.bb1605
	movq	optab_table+88(%rip), %rax
	cmpq	%rsi, %rax
	movq	%rdx, %rsi
	je	.LBB1_453
# BB#452:
	movq	%rdi, 192(%rsp)         # 8-byte Spill
	movabsq	$optab_table, %rax
	movabsq	$optab_table+32, %rcx
	movabsq	$optab_table+256, %rdx
	movabsq	$optab_table+16, %rdi
	jmp	.LBB1_454
.LBB1_397:                              # %if.else1444
	movq	248(%rsp), %rcx         # 8-byte Reload
	movl	(%rcx), %edx
	cmpq	$76, %rdx
	jne	.LBB1_402
# BB#398:                               # %if.then1448
	movq	optab_table+24(%rip), %rdx
	cmpq	%rdx, %rcx
	movq	160(%rsp), %r8          # 8-byte Reload
	je	.LBB1_399
# BB#400:                               # %select.mid25
	movq	optab_table+256(%rip), %rsi
	jmp	.LBB1_401
.LBB1_441:                              # %if.else1574
	xorq	%rdi, %rdi
	movq	$62, %rsi
	movq	%r13, (%rsp)
	movq	%r12, %rdx
	movq	%r15, %rcx
	movq	%r14, %r8
	movq	136(%rsp), %rbx         # 8-byte Reload
	movq	%rbx, %r9
	callq	expand_divmod
.LBB1_442:                              # %if.end1576
	testq	%rax, %rax
	je	.LBB1_443
# BB#444:                               # %if.else1580
	cmpq	%rbx, %rax
	movq	304(%rsp), %r15
	je	.LBB1_446
# BB#445:                               # %if.then1583
	movq	%rbx, %rdi
	movq	%rax, %rsi
	callq	emit_move_insn
.LBB1_446:                              # %if.end1586
	cmpq	$6, 240(%rsp)           # 8-byte Folded Reload
	movq	128(%rsp), %rbx         # 8-byte Reload
	jne	.LBB1_448
# BB#447:                               # %if.then1589
	movq	%r15, (%rsp)
	movq	%r12, %rdi
	movq	248(%rsp), %rsi         # 8-byte Reload
	movq	176(%rsp), %rdx         # 8-byte Reload
	movq	%r14, %rcx
	movq	%rbx, %r8
	movq	%r13, %r9
	jmp	.LBB1_426
.LBB1_443:
	movq	$1, 176(%rsp)           # 8-byte Folded Spill
	jmp	.LBB1_578
.LBB1_408:
	movq	$1, 176(%rsp)           # 8-byte Folded Spill
	jmp	.LBB1_578
.LBB1_410:
	movq	$1, 176(%rsp)           # 8-byte Folded Spill
	jmp	.LBB1_578
.LBB1_495:                              # %if.then.i2746
	movabsq	$optab_table+40, %rcx
	movabsq	$optab_table+264, %rdi
	movabsq	$optab_table+24, %rsi
	movabsq	$optab_table+8, %rax
.LBB1_496:                              # %if.end.i2758
	movq	224(%rsp), %r12         # 8-byte Reload
	movq	(%rcx), %rcx
	movq	%rcx, 104(%rsp)         # 8-byte Spill
	movq	(%rdi), %rcx
	movq	%rcx, 56(%rsp)          # 8-byte Spill
	movq	(%rsi), %rcx
	movq	%rcx, 64(%rsp)          # 8-byte Spill
	movq	(%rax), %rax
	movq	%rax, 96(%rsp)          # 8-byte Spill
	movq	%r12, %rdi
	movq	%rdx, %rsi
	callq	force_reg
	movq	%rax, 72(%rsp)          # 8-byte Spill
	movq	%r12, %rdi
	movq	%rbx, %rsi
	callq	force_reg
	movq	%rax, 112(%rsp)         # 8-byte Spill
	xorq	%rax, %rax
	movq	176(%rsp), %rsi         # 8-byte Reload
	testq	%rsi, %rsi
	je	.LBB1_498
# BB#497:                               # %if.then3.i2760
	movq	%r12, %rdi
	callq	force_reg
.LBB1_498:                              # %if.end5.i2763
	movq	%rax, 80(%rsp)          # 8-byte Spill
	movq	%r12, %rdi
	movq	120(%rsp), %rsi         # 8-byte Reload
	callq	force_reg
	movq	%rax, %rcx
	movq	%rcx, 176(%rsp)         # 8-byte Spill
	movabsq	$4294967295, %rax       # imm = 0xFFFFFFFF
	testq	%rax, %r13
	movq	112(%rsp), %r14         # 8-byte Reload
	movq	%rcx, %r15
	jne	.LBB1_500
# BB#499:                               # %if.else.i2765
	xorq	%rdx, %rdx
	xorq	%rcx, %rcx
	movq	$1, %r8
	movq	%r12, %rdi
	movq	112(%rsp), %rsi         # 8-byte Reload
	callq	expand_abs
	movq	%rax, %r14
	xorq	%rdx, %rdx
	xorq	%rcx, %rcx
	movq	$1, %r8
	movq	%r12, %rdi
	movq	176(%rsp), %rsi         # 8-byte Reload
	callq	expand_abs
	movq	%rax, %r15
.LBB1_500:                              # %if.end10.i
	testq	%r14, %r14
	je	.LBB1_501
# BB#502:                               # %if.end10.i
	movq	%r12, 224(%rsp)         # 8-byte Spill
	movq	%r13, %r12
	testq	%r15, %r15
	je	.LBB1_503
# BB#504:                               # %if.end14.i
	movq	232(%rsp), %r13         # 8-byte Reload
	movzbl	2(%r14), %ebx
	callq	gen_label_rtx
	movq	%rax, 120(%rsp)         # 8-byte Spill
	movq	$107, %rdx
	xorq	%rcx, %rcx
	movq	%rax, (%rsp)
	movq	%r14, %rdi
	movq	%r15, %rsi
	movq	%rbx, %r8
	movq	%r12, %r14
	movq	%r14, %r9
	callq	emit_cmp_and_jump_insns
	cmpq	$6, 240(%rsp)           # 8-byte Folded Reload
	jne	.LBB1_506
# BB#505:                               # %if.then17.i
	xorq	%r8, %r8
	movq	304(%rsp), %r15
	movq	%r15, %rbx
	movq	%rbx, (%rsp)
	movq	224(%rsp), %r12         # 8-byte Reload
	movq	%r12, %rdi
	movq	248(%rsp), %rsi         # 8-byte Reload
	movq	176(%rsp), %rdx         # 8-byte Reload
	movq	112(%rsp), %rcx         # 8-byte Reload
	movq	%r14, %r9
	callq	expand_binop
	jmp	.LBB1_507
.LBB1_436:                              # %if.else1551
	movq	304(%rsp), %rax
	movq	%rax, (%rsp)
	movq	%r12, %rdi
	movq	248(%rsp), %rsi         # 8-byte Reload
	movq	120(%rsp), %rdx         # 8-byte Reload
	movq	%rbx, %rcx
.LBB1_437:                              # %if.end1553
	movq	128(%rsp), %rbx         # 8-byte Reload
	movq	%rbx, %r8
	movq	160(%rsp), %r9          # 8-byte Reload
	callq	expand_binop
	testq	%rax, %rax
	jne	.LBB1_428
	jmp	.LBB1_578
.LBB1_453:                              # %if.then.i
	movq	%rdi, 192(%rsp)         # 8-byte Spill
	movabsq	$optab_table+40, %rcx
	movabsq	$optab_table+264, %rdx
	movabsq	$optab_table+24, %rdi
	movabsq	$optab_table+8, %rax
.LBB1_454:                              # %if.end.i
	movq	(%rcx), %r15
	movq	(%rdx), %rcx
	movq	%rcx, 64(%rsp)          # 8-byte Spill
	movq	(%rdi), %rcx
	movq	%rcx, 56(%rsp)          # 8-byte Spill
	movq	(%rax), %rax
	movq	%rax, 112(%rsp)         # 8-byte Spill
	movq	224(%rsp), %r13         # 8-byte Reload
	movq	%r13, %rdi
	callq	force_reg
	movq	%rax, 104(%rsp)         # 8-byte Spill
	movq	%r13, %rdi
	movq	%rbx, %rsi
	callq	force_reg
	movq	%rax, %r14
	xorq	%rax, %rax
	movq	176(%rsp), %rsi         # 8-byte Reload
	testq	%rsi, %rsi
	je	.LBB1_456
# BB#455:                               # %if.then3.i
	movq	%r13, %rdi
	callq	force_reg
.LBB1_456:                              # %if.end5.i
	movq	%rax, 80(%rsp)          # 8-byte Spill
	movq	%r13, %rdi
	movq	120(%rsp), %rsi         # 8-byte Reload
	callq	force_reg
	movq	%rax, %r12
	movq	%r12, 120(%rsp)         # 8-byte Spill
	xorq	%r8, %r8
	movq	304(%rsp), %rax
	movq	%rax, %rbx
	movq	%rbx, (%rsp)
	movq	%r13, %rdi
	movq	%r15, %rsi
	movq	%r14, %rdx
	movq	%rdx, 96(%rsp)          # 8-byte Spill
	movq	%rdx, %rcx
	movq	%r15, %r14
	movq	%r14, 72(%rsp)          # 8-byte Spill
	movq	160(%rsp), %r15         # 8-byte Reload
	movq	%r15, %r9
	callq	expand_binop
	movq	%rax, 176(%rsp)         # 8-byte Spill
	xorq	%r8, %r8
	movq	%rbx, (%rsp)
	movq	%r13, %rdi
	movq	%r14, %rsi
	movq	%r12, %rdx
	movq	%r12, %rcx
	movq	%r15, %r9
	callq	expand_binop
	movq	176(%rsp), %rdx         # 8-byte Reload
	testq	%rdx, %rdx
	je	.LBB1_457
# BB#458:                               # %if.end5.i
	testq	%rax, %rax
	je	.LBB1_459
# BB#460:                               # %if.end12.i
	xorq	%r8, %r8
	movq	%rbx, %r14
	movq	%r14, (%rsp)
	movq	%r13, %rbx
	movq	%rbx, %rdi
	movq	112(%rsp), %rsi         # 8-byte Reload
	movq	%rax, %rcx
	movq	%r15, %r9
	callq	expand_binop
	testq	%rax, %rax
	je	.LBB1_461
# BB#462:                               # %if.end16.i
	movq	%rax, 48(%rsp)          # 8-byte Spill
	xorq	%r8, %r8
	movq	%r14, (%rsp)
	movq	%rbx, %rdi
	movq	72(%rsp), %r12          # 8-byte Reload
	movq	%r12, %rsi
	movq	104(%rsp), %r13         # 8-byte Reload
	movq	%r13, %rdx
	movq	96(%rsp), %rcx          # 8-byte Reload
	movq	%r15, %r9
	callq	expand_binop
	movq	%rax, 176(%rsp)         # 8-byte Spill
	movq	80(%rsp), %rdx          # 8-byte Reload
	xorq	%r8, %r8
	testq	%rdx, %rdx
	je	.LBB1_463
# BB#467:                               # %if.else.i
	movq	%r14, (%rsp)
	movq	%rbx, %rdi
	movq	%r12, %rsi
	movq	120(%rsp), %rcx         # 8-byte Reload
	movq	%r15, %r9
	callq	expand_binop
	movq	176(%rsp), %rcx         # 8-byte Reload
	testq	%rcx, %rcx
	movq	%rcx, %rdx
	je	.LBB1_468
# BB#469:                               # %if.else.i
	movq	%rbx, %rsi
	testq	%rax, %rax
	je	.LBB1_470
# BB#471:                               # %if.end33.i
	xorq	%r8, %r8
	movq	304(%rsp), %rcx
	movq	%rcx, %rbx
	movq	%rbx, (%rsp)
	movq	%rsi, %r13
	movq	%r13, %rdi
	movq	112(%rsp), %rsi         # 8-byte Reload
	movq	%rax, %rcx
	movq	%r15, %r14
	movq	%r14, %r9
	callq	expand_binop
	movq	%rax, 176(%rsp)         # 8-byte Spill
	xorq	%r8, %r8
	movq	%rbx, (%rsp)
	movq	%r13, %rdi
	movq	%r12, %rsi
	movq	80(%rsp), %rdx          # 8-byte Reload
	movq	96(%rsp), %rcx          # 8-byte Reload
	movq	%r14, %r9
	callq	expand_binop
	movq	%rbx, %rcx
	movq	%rax, %r15
	xorq	%r8, %r8
	movq	%rcx, (%rsp)
                                        # kill: RBX<def> RCX<kill>
	movq	%r13, %rdi
	movq	%r12, %rsi
	movq	%r14, %r12
	movq	104(%rsp), %rdx         # 8-byte Reload
	movq	120(%rsp), %rcx         # 8-byte Reload
	movq	%r12, %r9
	callq	expand_binop
	testq	%r15, %r15
	je	.LBB1_472
# BB#473:                               # %if.end33.i
	testq	%rax, %rax
	je	.LBB1_474
# BB#475:                               # %if.end41.i
	xorq	%r8, %r8
	movq	%rbx, (%rsp)
	movq	224(%rsp), %rdi         # 8-byte Reload
	movq	56(%rsp), %rsi          # 8-byte Reload
	movq	%r15, %rdx
	movq	%rax, %rcx
	movq	%r12, %r9
	callq	expand_binop
	movq	%rax, %r14
	movq	176(%rsp), %rcx         # 8-byte Reload
	testq	%rcx, %rcx
	je	.LBB1_476
# BB#477:                               # %if.end41.i
	testq	%r14, %r14
	movq	%rbx, %rax
	movq	48(%rsp), %r13          # 8-byte Reload
	jne	.LBB1_480
# BB#478:
	movq	$1, 176(%rsp)           # 8-byte Folded Spill
	jmp	.LBB1_578
.LBB1_448:                              # %if.else1591
	xorq	%rdi, %rdi
	movq	$62, %rsi
	movq	%r13, (%rsp)
	movq	%r12, %rdx
	movq	176(%rsp), %rcx         # 8-byte Reload
	movq	%r14, %r8
	movq	%rbx, %r9
	callq	expand_divmod
	jmp	.LBB1_427
.LBB1_412:
	movq	optab_table+24(%rip), %rsi
.LBB1_414:                              # %select.end26
	movq	%rbx, %r12
	movq	%r15, (%rsp)
	movq	%r12, %rdi
	movq	%r13, %rdx
	movq	%rax, %rcx
	movq	136(%rsp), %rbx         # 8-byte Reload
	movq	%rbx, %r8
	movq	%r14, %r9
	callq	expand_binop
	testq	%rax, %rax
	je	.LBB1_415
# BB#416:                               # %if.else1500
	cmpq	%rbx, %rax
	je	.LBB1_418
# BB#417:                               # %if.then1503
	movq	%rbx, %rdi
	movq	%rax, %rsi
	callq	emit_move_insn
.LBB1_418:                              # %if.end1506
	xorq	%r8, %r8
	movq	%r15, %r13
	movq	%r13, (%rsp)
	movq	%r12, %rdi
	movq	248(%rsp), %rbx         # 8-byte Reload
	movq	%rbx, %rsi
	movq	120(%rsp), %rdx         # 8-byte Reload
	movq	112(%rsp), %rcx         # 8-byte Reload
	movq	%r14, %r9
	callq	expand_binop
	movq	%rax, %r15
	xorq	%r8, %r8
	movq	%r13, (%rsp)
	movq	%r12, %rdi
	movq	%rbx, %rsi
	movq	104(%rsp), %rdx         # 8-byte Reload
	movq	176(%rsp), %rcx         # 8-byte Reload
	movq	%r14, %r9
	callq	expand_binop
	testq	%r15, %r15
	je	.LBB1_419
# BB#420:                               # %if.end1506
	testq	%rax, %rax
	je	.LBB1_421
# BB#422:                               # %if.end1515
	movq	optab_table+40(%rip), %rcx
	movq	248(%rsp), %rdx         # 8-byte Reload
	cmpq	%rcx, %rdx
	je	.LBB1_423
# BB#424:                               # %select.mid29
	movq	optab_table(%rip), %rsi
	jmp	.LBB1_425
.LBB1_415:
	movq	$1, 176(%rsp)           # 8-byte Folded Spill
	jmp	.LBB1_578
.LBB1_501:
	movq	$1, 176(%rsp)           # 8-byte Folded Spill
	jmp	.LBB1_578
.LBB1_503:
	movq	$1, 176(%rsp)           # 8-byte Folded Spill
	jmp	.LBB1_578
.LBB1_506:                              # %if.else19.i
	xorq	%rdi, %rdi
	movq	$62, %rsi
	xorq	%r9, %r9
	movq	%r14, (%rsp)
	movq	224(%rsp), %r12         # 8-byte Reload
	movq	%r12, %rdx
	movq	176(%rsp), %rcx         # 8-byte Reload
	movq	112(%rsp), %r8          # 8-byte Reload
	callq	expand_divmod
	movq	304(%rsp), %r15
	movq	%r15, %rbx
.LBB1_507:                              # %if.end21.i
	movq	%r13, 232(%rsp)         # 8-byte Spill
	testq	%rax, %rax
	movq	104(%rsp), %r15         # 8-byte Reload
	je	.LBB1_508
# BB#509:                               # %if.end24.i
	xorq	%r8, %r8
	movq	%rbx, (%rsp)
	movq	%r12, %rdi
	movq	%r15, %rsi
	movq	176(%rsp), %rdx         # 8-byte Reload
	movq	%rax, %rcx
	movq	%rcx, %r13
	movq	%r14, %r9
	callq	expand_binop
	testq	%rax, %rax
	je	.LBB1_510
# BB#511:                               # %if.end28.i
	xorq	%r8, %r8
	movq	%rbx, (%rsp)
	movq	%r12, %rdi
	movq	96(%rsp), %rsi          # 8-byte Reload
	movq	%rax, %rdx
	movq	112(%rsp), %rcx         # 8-byte Reload
	movq	%r14, %r9
	callq	expand_binop
	movq	%rax, %rbx
	testq	%rbx, %rbx
	je	.LBB1_512
# BB#513:                               # %if.end32.i
	movq	80(%rsp), %rdx          # 8-byte Reload
	testq	%rdx, %rdx
	movq	%r13, %rcx
	je	.LBB1_514
# BB#520:                               # %if.else45.i
	xorq	%r8, %r8
	movq	304(%rsp), %r13
	movq	%r13, (%rsp)
	movq	%r12, %rdi
	movq	%r15, %rsi
	movq	%rcx, 40(%rsp)          # 8-byte Spill
	movq	%r14, %r9
	callq	expand_binop
	testq	%rax, %rax
	je	.LBB1_521
# BB#522:                               # %if.end49.i
	movq	%rbx, 48(%rsp)          # 8-byte Spill
	xorq	%r8, %r8
	movq	%r13, (%rsp)
	movq	%r12, %rdi
	movq	96(%rsp), %rsi          # 8-byte Reload
	movq	%rax, %rdx
	movq	%r15, %rbx
	movq	72(%rsp), %r15          # 8-byte Reload
	movq	%r15, %rcx
	movq	%r14, %r9
	callq	expand_binop
	movq	%rax, 32(%rsp)          # 8-byte Spill
	xorq	%r8, %r8
	movq	%r13, (%rsp)
	movq	%r12, %rdi
	movq	%rbx, %rsi
	movq	%r15, %rdx
	movq	40(%rsp), %rcx          # 8-byte Reload
	movq	%r14, %r9
	callq	expand_binop
	testq	%rax, %rax
	je	.LBB1_523
# BB#524:                               # %if.end54.i2771
	xorq	%r8, %r8
	movq	%r13, (%rsp)
	movq	%r12, %rdi
	movq	64(%rsp), %rsi          # 8-byte Reload
	movq	80(%rsp), %rdx          # 8-byte Reload
	movq	%rax, %rcx
	movq	%r14, %r9
	movq	%r14, %rbx
	callq	expand_binop
	movq	%rax, %r13
	movq	32(%rsp), %rax          # 8-byte Reload
	testq	%rax, %rax
	movq	%rax, %rcx
	je	.LBB1_525
# BB#526:                               # %if.end54.i2771
	testq	%r13, %r13
	jne	.LBB1_528
# BB#527:
	movq	$1, 176(%rsp)           # 8-byte Folded Spill
	jmp	.LBB1_578
.LBB1_457:
	movq	$1, 176(%rsp)           # 8-byte Folded Spill
	jmp	.LBB1_578
.LBB1_459:
	movq	$1, 176(%rsp)           # 8-byte Folded Spill
	jmp	.LBB1_578
.LBB1_508:
	movq	$1, 176(%rsp)           # 8-byte Folded Spill
	jmp	.LBB1_578
.LBB1_461:
	movq	$1, 176(%rsp)           # 8-byte Folded Spill
	jmp	.LBB1_578
.LBB1_399:
	movq	optab_table+264(%rip), %rsi
.LBB1_401:                              # %select.end24
	movq	$1, 176(%rsp)           # 8-byte Folded Spill
	movq	%r12, %rdi
	movq	%rax, %rdx
	movq	%r14, %rcx
	callq	expand_unop
	jmp	.LBB1_402
.LBB1_419:
	movq	$1, 176(%rsp)           # 8-byte Folded Spill
	jmp	.LBB1_578
.LBB1_421:
	movq	$1, 176(%rsp)           # 8-byte Folded Spill
	jmp	.LBB1_578
.LBB1_510:
	movq	$1, 176(%rsp)           # 8-byte Folded Spill
	jmp	.LBB1_578
.LBB1_463:                              # %if.then18.i
	movq	%r14, (%rsp)
	movq	%rbx, %rdi
	movq	%r12, %rsi
	movq	%r13, %rdx
	movq	120(%rsp), %rcx         # 8-byte Reload
	movq	%r15, %r9
	callq	expand_binop
	movq	176(%rsp), %rcx         # 8-byte Reload
	testq	%rcx, %rcx
	movq	%r15, %r12
	movq	%rcx, %rbx
	je	.LBB1_464
# BB#465:                               # %if.then18.i
	testq	%rax, %rax
	movq	48(%rsp), %r13          # 8-byte Reload
	je	.LBB1_466
# BB#479:                               # %if.end25.i
	xorq	%rcx, %rcx
	movq	224(%rsp), %rdi         # 8-byte Reload
	movq	64(%rsp), %rsi          # 8-byte Reload
	movq	%rax, %rdx
	movq	%r12, %r8
	callq	expand_unop
	movq	%rbx, %rcx
	movq	%rax, %r14
	movq	304(%rsp), %rax
.LBB1_480:                              # %if.end48.i
	cmpq	$6, 240(%rsp)           # 8-byte Folded Reload
	jne	.LBB1_482
# BB#481:                               # %if.then50.i
	movq	%rax, (%rsp)
	movq	224(%rsp), %rdi         # 8-byte Reload
	movq	248(%rsp), %rsi         # 8-byte Reload
	movq	%rcx, %rdx
	movq	%r13, %rcx
	movq	136(%rsp), %r8          # 8-byte Reload
	movq	%r12, %r9
	callq	expand_binop
	jmp	.LBB1_483
.LBB1_423:
	movq	optab_table+8(%rip), %rsi
.LBB1_425:                              # %select.end28
	movq	304(%rsp), %rcx
	movq	%rcx, (%rsp)
	movq	%r12, %rdi
	movq	%r15, %rdx
	movq	%rax, %rcx
	movq	128(%rsp), %rbx         # 8-byte Reload
	movq	%rbx, %r8
	movq	%r14, %r9
.LBB1_426:                              # %select.end28
	callq	expand_binop
.LBB1_427:                              # %select.end28
	testq	%rax, %rax
	movq	$1, 176(%rsp)           # 8-byte Folded Spill
	je	.LBB1_578
.LBB1_428:                              # %if.else1526
	movq	$0, 176(%rsp)           # 8-byte Folded Spill
	cmpq	%rbx, %rax
	je	.LBB1_578
# BB#429:                               # %if.then1529
	movq	%rbx, %rdi
.LBB1_430:                              # %sw.epilog1611
	movq	%rax, %rsi
	callq	emit_move_insn
.LBB1_578:                              # %sw.epilog1611
	callq	get_insns
	movq	%rax, %r13
	callq	end_sequence
	cmpq	$0, 176(%rsp)           # 8-byte Folded Reload
	je	.LBB1_588
# BB#579:
	movq	248(%rsp), %r9          # 8-byte Reload
	movq	168(%rsp), %r14         # 8-byte Reload
	movq	240(%rsp), %r8          # 8-byte Reload
	movq	88(%rsp), %rbx          # 8-byte Reload
.LBB1_580:                              # %if.end1627
	movq	$4, %rcx
	movq	%r14, %r13
	shlq	%cl, %r13
	cmpq	$0, 16(%r9,%r13)
	je	.LBB1_596
# BB#581:                               # %if.end1627
	cmpq	$1, %rbx
	jne	.LBB1_596
# BB#582:                               # %if.then1638
	movabsq	$4294967295, %rax       # imm = 0xFFFFFFFF
	movq	216(%rsp), %rbx         # 8-byte Reload
	andq	%rax, %rbx
	callq	start_sequence
	cmpq	$4, %rbx
	movq	208(%rsp), %rsi         # 8-byte Reload
	movq	%rsi, %rcx
	movq	232(%rsp), %rbx         # 8-byte Reload
	movq	%rbx, %r14
	ja	.LBB1_584
# BB#583:                               # %if.then1645
	movl	word_mode(%rip), %r14d
	movq	$1, %rdx
	movq	%r14, %rdi
	callq	convert_to_mode
	movq	%rax, %rcx
.LBB1_584:                              # %if.end1647
	movq	%r14, 240(%rsp)         # 8-byte Spill
	movq	192(%rsp), %rax         # 8-byte Reload
	movzbl	2(%rax), %eax
	testq	%rax, %rax
	je	.LBB1_585
# BB#591:                               # %if.end1647
	movq	%rcx, %r12
	movabsq	$4294967295, %rcx       # imm = 0xFFFFFFFF
	andq	%rbx, %rcx
	cmpq	%rcx, %rax
	je	.LBB1_592
# BB#593:                               # %if.then1659
	movq	%rbx, %rdi
	movq	192(%rsp), %rsi         # 8-byte Reload
	movq	160(%rsp), %rdx         # 8-byte Reload
	movq	%rbx, %r14
	callq	convert_to_mode
	movq	%rax, %r15
	jmp	.LBB1_594
.LBB1_596:                              # %if.end1671
	movq	%r8, %r15
	movq	%r9, %rbx
	movq	184(%rsp), %rdi         # 8-byte Reload
	callq	delete_insns_since
	movq	304(%rsp), %rax
	movq	%rax, %rcx
	addq	$-2, %rcx
	movabsq	$4294967295, %rax       # imm = 0xFFFFFFFF
	andq	%rax, %rcx
	cmpq	$3, %rcx
	jae	.LBB1_608
# BB#597:                               # %if.end1681
	movq	232(%rsp), %r13         # 8-byte Reload
	cmpq	$3, 152(%rsp)           # 8-byte Folded Reload
	movq	%rbx, %r9
	jne	.LBB1_598
# BB#599:                               # %if.end1681
	movabsq	$1, %rax
	jmp	.LBB1_600
.LBB1_588:                              # %if.then1614
	movq	248(%rsp), %rax         # 8-byte Reload
	movl	(%rax), %r12d
	xorq	%r8, %r8
	testq	%r12, %r12
	movq	208(%rsp), %rbx         # 8-byte Reload
	movq	192(%rsp), %r14         # 8-byte Reload
	je	.LBB1_590
# BB#589:                               # %if.then1618
	movq	%r14, %rdi
	callq	copy_rtx
	movq	%rax, %r15
	movq	%rbx, %rdi
	callq	copy_rtx
	movq	%r12, %rdi
	movq	232(%rsp), %rsi         # 8-byte Reload
	movq	%r15, %rdx
	movq	%rax, %rcx
	callq	gen_rtx_fmt_ee
	movq	%rax, %r8
.LBB1_590:                              # %if.end1624
	movq	%r13, %rdi
	movq	200(%rsp), %r12         # 8-byte Reload
	movq	%r12, %rsi
	movq	%r14, %rdx
	movq	%rbx, %rcx
	callq	emit_no_conflict_block
	jmp	.LBB1_96
.LBB1_585:
	movq	%rbx, %r14
	movq	192(%rsp), %r15         # 8-byte Reload
	jmp	.LBB1_595
.LBB1_592:
	movq	%rbx, %r14
	movq	192(%rsp), %r15         # 8-byte Reload
.LBB1_594:                              # %if.end1661
	movq	%r12, %rcx
.LBB1_595:                              # %if.end1661
	movq	248(%rsp), %r12         # 8-byte Reload
	leaq	16(%r12,%r13), %rax
	movq	(%rax), %rdi
	movq	240(%rsp), %rax         # 8-byte Reload
	movq	%rax, 16(%rsp)
	movq	%rcx, 8(%rsp)
	xorq	%rsi, %rsi
	movq	$1, %rdx
	movq	$2, %r8
	xorq	%rax, %rax
	movq	%r14, (%rsp)
	movq	%r14, %rcx
	movq	%r15, %r9
	callq	emit_library_call_value
	movq	%rax, %r13
	callq	get_insns
	movq	%rax, %rbx
	callq	end_sequence
	movq	%r14, %rdi
	callq	gen_reg_rtx
	movl	(%r12), %edi
	movq	%rax, %r12
	movq	%r14, %rsi
	movq	%r15, %rdx
	movq	208(%rsp), %rcx         # 8-byte Reload
	callq	gen_rtx_fmt_ee
	movq	%rbx, %rdi
	movq	%r12, %rsi
	movq	%r13, %rdx
	movq	%rax, %rcx
	callq	emit_libcall_block
	jmp	.LBB1_96
.LBB1_598:
	movabsq	$0, %rax
.LBB1_600:                              # %if.end1681
	movq	%rax, 224(%rsp)         # 8-byte Spill
	movq	%r15, %rdx
	cmpq	$6, %rdx
	ja	.LBB1_608
# BB#601:                               # %if.end1681
	movq	$1, %rax
	movq	%rdx, %rcx
	shlq	%cl, %rax
	testq	$70, %rax
	je	.LBB1_608
# BB#602:                               # %for.cond1697.preheader
	movzbl	mode_wider_mode(%r14), %ebx
	jmp	.LBB1_603
.LBB1_627:                              # %if.else1769
                                        #   in Loop: Header=BB1_603 Depth=1
	movq	184(%rsp), %rdi         # 8-byte Reload
	callq	delete_insns_since
	movq	248(%rsp), %r9          # 8-byte Reload
	movq	240(%rsp), %rdx         # 8-byte Reload
	movzbl	mode_wider_mode(%rbx), %ebx
.LBB1_603:                              # %for.cond1697.preheader
                                        # =>This Inner Loop Header: Depth=1
	testq	%rbx, %rbx
	je	.LBB1_608
# BB#604:                               # %for.body1700
                                        #   in Loop: Header=BB1_603 Depth=1
	andq	$255, %rbx
	movq	$4, %rcx
	movq	%rbx, %rax
	shlq	%cl, %rax
	movl	8(%r9,%rax), %eax
	cmpq	$1317, %rax             # imm = 0x525
	jne	.LBB1_609
# BB#605:                               # %lor.lhs.false1707
                                        #   in Loop: Header=BB1_603 Depth=1
	cmpq	$3, 152(%rsp)           # 8-byte Folded Reload
	jne	.LBB1_607
# BB#606:                               # %land.lhs.true1710
                                        #   in Loop: Header=BB1_603 Depth=1
	movq	$4, %rcx
	movq	%rbx, %rax
	shlq	%cl, %rax
	cmpq	$0, 16(%r9,%rax)
	jne	.LBB1_609
.LBB1_607:                              # %for.cond1697.backedge
                                        #   in Loop: Header=BB1_603 Depth=1
	movzbl	mode_wider_mode(%rbx), %ebx
	jmp	.LBB1_603
.LBB1_609:                              # %if.then1716
                                        #   in Loop: Header=BB1_603 Depth=1
	movq	optab_table+152(%rip), %rax
	cmpq	%rax, %r9
	je	.LBB1_616
# BB#610:                               # %if.then1716
                                        #   in Loop: Header=BB1_603 Depth=1
	movq	optab_table+144(%rip), %rax
	cmpq	%rax, %r9
	je	.LBB1_616
# BB#611:                               # %if.then1716
                                        #   in Loop: Header=BB1_603 Depth=1
	movq	optab_table+160(%rip), %rax
	cmpq	%rax, %r9
	je	.LBB1_616
# BB#612:                               # %if.then1716
                                        #   in Loop: Header=BB1_603 Depth=1
	movq	optab_table(%rip), %rax
	cmpq	%rax, %r9
	je	.LBB1_616
# BB#613:                               # %if.then1716
                                        #   in Loop: Header=BB1_603 Depth=1
	movq	optab_table+16(%rip), %rax
	cmpq	%rax, %r9
	je	.LBB1_616
# BB#614:                               # %if.then1716
                                        #   in Loop: Header=BB1_603 Depth=1
	movq	optab_table+32(%rip), %rax
	cmpq	%rax, %r9
	je	.LBB1_616
# BB#615:                               # %lor.lhs.false1740
                                        #   in Loop: Header=BB1_603 Depth=1
	movq	optab_table+168(%rip), %rax
	cmpq	%rax, %r9
	jne	.LBB1_617
.LBB1_616:                              # %land.lhs.true1743
                                        #   in Loop: Header=BB1_603 Depth=1
	cmpq	$1, %rdx
	jne	.LBB1_617
# BB#618:                               # %land.rhs1750
                                        #   in Loop: Header=BB1_603 Depth=1
	movq	%rdx, 240(%rsp)         # 8-byte Spill
	movq	$1, %r8
	movq	192(%rsp), %rdi         # 8-byte Reload
	movq	%rbx, %rsi
	movq	%r13, %rdx
	movq	160(%rsp), %rcx         # 8-byte Reload
	movq	%r9, %r14
	callq	widen_operand
	movq	optab_table+168(%rip), %rcx
	cmpq	%rcx, %r14
	movabsq	$0, %r15
	je	.LBB1_620
# BB#619:                               # %land.rhs1750
                                        #   in Loop: Header=BB1_603 Depth=1
	movabsq	$1, %r15
.LBB1_620:                              # %land.rhs1750
                                        #   in Loop: Header=BB1_603 Depth=1
	movq	160(%rsp), %r14         # 8-byte Reload
	movq	208(%rsp), %rdi         # 8-byte Reload
	movq	%rax, %r12
	jmp	.LBB1_621
.LBB1_617:                              # %if.end1747.thread
                                        #   in Loop: Header=BB1_603 Depth=1
	movq	%rdx, 240(%rsp)         # 8-byte Spill
	xorq	%r8, %r8
	xorq	%r15, %r15
	movq	192(%rsp), %rdi         # 8-byte Reload
	movq	%rbx, %rsi
	movq	%r13, %rdx
	movq	160(%rsp), %r14         # 8-byte Reload
	movq	%r14, %rcx
	callq	widen_operand
	movq	%rax, %r12
	movq	208(%rsp), %rdi         # 8-byte Reload
.LBB1_621:                              # %land.end1753
                                        #   in Loop: Header=BB1_603 Depth=1
	movq	%rdi, 208(%rsp)         # 8-byte Spill
	movq	%rbx, %rsi
	movq	%r13, %rdx
	movq	%r14, %rcx
	movq	%r15, %r8
	callq	widen_operand
	xorq	%r8, %r8
	movq	224(%rsp), %rcx         # 8-byte Reload
	movq	%rcx, (%rsp)
	movq	%rbx, %rdi
	movq	248(%rsp), %rsi         # 8-byte Reload
	movq	%r12, %rdx
	movq	%rax, %rcx
	movq	%r14, %r9
	callq	expand_binop
	movq	%rax, %r14
	testq	%r14, %r14
	je	.LBB1_627
# BB#622:                               # %if.then1758
	cmpq	$1, 240(%rsp)           # 8-byte Folded Reload
	jne	.LBB1_623
# BB#626:                               # %if.else1767
	movq	%r13, %rdi
	movq	%r14, %rsi
	jmp	.LBB1_166
.LBB1_608:                              # %if.end1777
	movq	144(%rsp), %rdi         # 8-byte Reload
	callq	delete_insns_since
	xorq	%r12, %r12
.LBB1_96:                               # %return
	movq	%r12, %rax
	addq	$256, %rsp              # imm = 0x100
	popq	%rbx
	popq	%r12
	popq	%r13
	popq	%r14
	popq	%r15
	retq
.LBB1_512:
	movq	$1, 176(%rsp)           # 8-byte Folded Spill
	jmp	.LBB1_578
.LBB1_468:
	movq	$1, 176(%rsp)           # 8-byte Folded Spill
	jmp	.LBB1_578
.LBB1_470:
	movq	$1, 176(%rsp)           # 8-byte Folded Spill
	jmp	.LBB1_578
.LBB1_514:                              # %if.then34.i
	movq	%rbx, 48(%rsp)          # 8-byte Spill
	xorq	%r8, %r8
	movq	304(%rsp), %rax
	movq	%rax, (%rsp)
	movq	%r12, %rdi
	movq	%r15, %rsi
	movq	72(%rsp), %rbx          # 8-byte Reload
	movq	%rbx, %rdx
	movq	%r14, %r9
	callq	expand_binop
	testq	%rax, %rax
	je	.LBB1_515
# BB#516:                               # %if.end38.i
	xorq	%rcx, %rcx
	movq	%r12, %rdi
	movq	56(%rsp), %rsi          # 8-byte Reload
	movq	%rax, %rdx
	movq	%r14, %r8
	callq	expand_unop
	movq	%rax, %r13
	testq	%rbx, %rbx
	movq	%rbx, %rax
	je	.LBB1_517
# BB#518:                               # %if.end38.i
	movq	%r14, %rbx
	testq	%r13, %r13
	movq	%rax, %rcx
	movq	%rax, %r15
	je	.LBB1_519
.LBB1_528:                              # %if.end61.i2774
	cmpq	$6, 240(%rsp)           # 8-byte Folded Reload
	jne	.LBB1_530
# BB#529:                               # %if.then63.i2776
	movq	304(%rsp), %rax
	movq	%rax, (%rsp)
	movq	224(%rsp), %rdi         # 8-byte Reload
	movq	248(%rsp), %rsi         # 8-byte Reload
	movq	%rcx, %rdx
	movq	48(%rsp), %rcx          # 8-byte Reload
	movq	136(%rsp), %r14         # 8-byte Reload
	movq	%r14, %r8
	movq	%rbx, %r12
	movq	%r12, %r9
	callq	expand_binop
	jmp	.LBB1_531
.LBB1_482:                              # %if.else52.i
	xorq	%rdi, %rdi
	movq	$62, %rsi
	movq	%r12, (%rsp)
	movq	224(%rsp), %rdx         # 8-byte Reload
	movq	%r13, %r8
	movq	136(%rsp), %r9          # 8-byte Reload
	callq	expand_divmod
.LBB1_483:                              # %if.end54.i
	testq	%rax, %rax
	je	.LBB1_484
# BB#485:                               # %if.end57.i
	movq	136(%rsp), %rdi         # 8-byte Reload
	cmpq	%rdi, %rax
	movq	128(%rsp), %r15         # 8-byte Reload
	je	.LBB1_487
# BB#486:                               # %if.then59.i
	movq	%rax, %rsi
	callq	emit_move_insn
.LBB1_487:                              # %if.end61.i
	cmpq	$6, 240(%rsp)           # 8-byte Folded Reload
	jne	.LBB1_489
# BB#488:                               # %if.then63.i
	movq	304(%rsp), %rax
	movq	%rax, (%rsp)
	movq	224(%rsp), %rdi         # 8-byte Reload
	movq	248(%rsp), %rsi         # 8-byte Reload
	movq	%r14, %rdx
	movq	%r13, %rcx
	movq	%r15, %r8
	movq	%r12, %r9
	callq	expand_binop
	jmp	.LBB1_490
.LBB1_521:
	movq	$1, 176(%rsp)           # 8-byte Folded Spill
	jmp	.LBB1_578
.LBB1_464:
	movq	$1, 176(%rsp)           # 8-byte Folded Spill
	jmp	.LBB1_578
.LBB1_466:
	movq	$1, 176(%rsp)           # 8-byte Folded Spill
	jmp	.LBB1_578
.LBB1_623:                              # %if.then1761
	movq	200(%rsp), %r12         # 8-byte Reload
	testq	%r12, %r12
	movq	%r13, %rdi
	jne	.LBB1_625
# BB#624:                               # %if.then1764
	callq	gen_reg_rtx
	movq	%rax, %r12
.LBB1_625:                              # %if.end1766
	xorq	%rdx, %rdx
	movq	%r12, %rdi
	movq	%r14, %rsi
	callq	convert_move
	jmp	.LBB1_96
.LBB1_484:
	movq	$1, 176(%rsp)           # 8-byte Folded Spill
	jmp	.LBB1_578
.LBB1_472:
	movq	$1, 176(%rsp)           # 8-byte Folded Spill
	jmp	.LBB1_578
.LBB1_474:
	movq	$1, 176(%rsp)           # 8-byte Folded Spill
	jmp	.LBB1_578
.LBB1_368:                              # %if.then1345
	movq	%r14, %rdi
	movq	%r14, %rsi
	callq	emit_move_insn
	movq	%r14, %r15
	movq	%rax, %r14
	movq	192(%rsp), %rdi         # 8-byte Reload
	callq	copy_rtx
	movq	%rax, %rbx
	movq	208(%rsp), %rdi         # 8-byte Reload
	callq	copy_rtx
	movq	$78, %rdi
	movq	232(%rsp), %rsi         # 8-byte Reload
	movq	%rbx, %rdx
	movq	%rax, %rcx
	callq	gen_rtx_fmt_ee
	movq	$4, %rsi
	movq	%r14, %rdi
	movq	%rax, %rdx
	callq	set_unique_reg_note
	movq	%r15, %r12
	jmp	.LBB1_96
.LBB1_489:                              # %if.else65.i
	xorq	%rdi, %rdi
	movq	$62, %rsi
	movq	%r12, (%rsp)
	movq	224(%rsp), %rdx         # 8-byte Reload
	movq	%r14, %rcx
	movq	%r13, %r8
	movq	%r15, %r9
	callq	expand_divmod
.LBB1_490:                              # %if.end67.i
	testq	%rax, %rax
	movq	$1, 176(%rsp)           # 8-byte Folded Spill
	je	.LBB1_578
# BB#491:                               # %if.end70.i
	movq	$0, 176(%rsp)           # 8-byte Folded Spill
	cmpq	%r15, %rax
	je	.LBB1_578
# BB#492:                               # %if.then72.i
	movq	%r15, %rdi
	jmp	.LBB1_430
.LBB1_523:
	movq	$1, 176(%rsp)           # 8-byte Folded Spill
	jmp	.LBB1_578
.LBB1_515:
	movq	$1, 176(%rsp)           # 8-byte Folded Spill
	jmp	.LBB1_578
.LBB1_530:                              # %if.else65.i2778
	xorq	%rdi, %rdi
	movq	$62, %rsi
	movq	%rbx, (%rsp)
	movq	224(%rsp), %rdx         # 8-byte Reload
	movq	%rbx, %r12
	movq	48(%rsp), %r8           # 8-byte Reload
	movq	136(%rsp), %r14         # 8-byte Reload
	movq	%r14, %r9
	callq	expand_divmod
.LBB1_531:                              # %if.end67.i2781
	testq	%rax, %rax
	movq	48(%rsp), %rbx          # 8-byte Reload
	je	.LBB1_532
# BB#533:                               # %if.end70.i2783
	cmpq	%r14, %rax
	je	.LBB1_535
# BB#534:                               # %if.then72.i2785
	movq	%r14, %rdi
	movq	%rax, %rsi
	callq	emit_move_insn
.LBB1_535:                              # %if.end74.i
	cmpq	$6, 240(%rsp)           # 8-byte Folded Reload
	jne	.LBB1_537
# BB#536:                               # %if.then76.i
	movq	304(%rsp), %rax
	movq	%rax, (%rsp)
	movq	224(%rsp), %rdi         # 8-byte Reload
	movq	248(%rsp), %rsi         # 8-byte Reload
	movq	%r13, %rdx
	movq	%rbx, %rcx
	movq	128(%rsp), %rbx         # 8-byte Reload
	movq	%rbx, %r8
	movq	%r12, %r9
	callq	expand_binop
	jmp	.LBB1_538
.LBB1_476:
	movq	$1, 176(%rsp)           # 8-byte Folded Spill
	jmp	.LBB1_578
.LBB1_532:
	movq	$1, 176(%rsp)           # 8-byte Folded Spill
	jmp	.LBB1_578
.LBB1_525:
	movq	$1, 176(%rsp)           # 8-byte Folded Spill
	jmp	.LBB1_578
.LBB1_517:
	movq	$1, 176(%rsp)           # 8-byte Folded Spill
	jmp	.LBB1_578
.LBB1_519:
	movq	$1, 176(%rsp)           # 8-byte Folded Spill
	jmp	.LBB1_578
.LBB1_537:                              # %if.else78.i
	xorq	%rdi, %rdi
	movq	$62, %rsi
	movq	%r12, (%rsp)
	movq	224(%rsp), %rdx         # 8-byte Reload
	movq	%r13, %rcx
	movq	%rbx, %r8
	movq	128(%rsp), %rbx         # 8-byte Reload
	movq	%rbx, %r9
	callq	expand_divmod
.LBB1_538:                              # %if.end80.i
	testq	%rax, %rax
	je	.LBB1_539
# BB#540:                               # %if.end83.i
	cmpq	%rbx, %rax
	je	.LBB1_542
# BB#541:                               # %if.then85.i
	movq	%rbx, %rdi
	movq	%rax, %rsi
	callq	emit_move_insn
.LBB1_542:                              # %if.end87.i
	movq	%rbx, %r13
	callq	gen_label_rtx
	movq	%rax, %rbx
	movq	%rbx, %rdi
	callq	gen_jump
	movq	%rax, %rdi
	callq	emit_jump_insn
	callq	emit_barrier
	movq	120(%rsp), %rdi         # 8-byte Reload
	callq	emit_label
	cmpq	$6, 240(%rsp)           # 8-byte Folded Reload
	jne	.LBB1_544
# BB#543:                               # %if.then94.i
	xorq	%r8, %r8
	movq	304(%rsp), %rax
	movq	%rax, (%rsp)
	movq	224(%rsp), %rdi         # 8-byte Reload
	movq	248(%rsp), %rsi         # 8-byte Reload
	movq	112(%rsp), %rdx         # 8-byte Reload
	movq	176(%rsp), %rcx         # 8-byte Reload
	movq	%r12, %r9
	callq	expand_binop
	jmp	.LBB1_545
.LBB1_539:
	movq	$1, 176(%rsp)           # 8-byte Folded Spill
	jmp	.LBB1_578
.LBB1_375:                              # %if.then1383
	movabsq	$.L.str, %rax
	movabsq	$.L__FUNCTION__.expand_binop, %rcx
	movq	$1512, %rsi             # imm = 0x5E8
	jmp	.LBB1_376
.LBB1_386:                              # %if.then1422
	movabsq	$.L.str, %rax
	movabsq	$.L__FUNCTION__.expand_binop, %rcx
	movq	$1539, %rsi             # imm = 0x603
	jmp	.LBB1_376
.LBB1_587:                              # %sw.default1610
	movabsq	$.L.str, %rax
	movabsq	$.L__FUNCTION__.expand_binop, %rcx
	movq	$1719, %rsi             # imm = 0x6B7
	jmp	.LBB1_376
.LBB1_586:                              # %sw.default
	movabsq	$.L.str, %rax
	movabsq	$.L__FUNCTION__.expand_binop, %rcx
	movq	$1713, %rsi             # imm = 0x6B1
.LBB1_376:                              # %if.then1383
	movq	%rax, %rdi
	movq	%rcx, %rdx
	callq	fancy_abort
.LBB1_544:                              # %if.else96.i
	xorq	%rdi, %rdi
	movq	$62, %rsi
	xorq	%r9, %r9
	movq	%r12, (%rsp)
	movq	224(%rsp), %rdx         # 8-byte Reload
	movq	112(%rsp), %rcx         # 8-byte Reload
	movq	176(%rsp), %r8          # 8-byte Reload
	callq	expand_divmod
.LBB1_545:                              # %if.end98.i
	movq	%rax, 128(%rsp)         # 8-byte Spill
	cmpq	$0, 128(%rsp)           # 8-byte Folded Reload
	je	.LBB1_546
# BB#547:                               # %if.end101.i
	xorq	%r8, %r8
	movq	304(%rsp), %rax
	movq	%rax, (%rsp)
	movq	224(%rsp), %rdi         # 8-byte Reload
	movq	104(%rsp), %rsi         # 8-byte Reload
	movq	112(%rsp), %rdx         # 8-byte Reload
	movq	128(%rsp), %rcx         # 8-byte Reload
	movq	%r12, %r9
	callq	expand_binop
	testq	%rax, %rax
	je	.LBB1_548
# BB#549:                               # %if.end105.i
	xorq	%r8, %r8
	movq	304(%rsp), %rcx
	movq	%rcx, (%rsp)
	movq	224(%rsp), %rdi         # 8-byte Reload
	movq	96(%rsp), %rsi          # 8-byte Reload
	movq	%rax, %rdx
	movq	176(%rsp), %rcx         # 8-byte Reload
	movq	%r12, %r9
	callq	expand_binop
	movq	%rax, 176(%rsp)         # 8-byte Spill
	testq	%rax, %rax
	je	.LBB1_550
# BB#551:                               # %if.end109.i
	xorq	%r8, %r8
	movq	304(%rsp), %rax
	movq	%rax, (%rsp)
	movq	224(%rsp), %rdi         # 8-byte Reload
	movq	104(%rsp), %rsi         # 8-byte Reload
	movq	%r15, %rdx
	movq	128(%rsp), %rcx         # 8-byte Reload
	movq	%r12, %r9
	callq	expand_binop
	movq	%rax, 136(%rsp)         # 8-byte Spill
	cmpq	$0, 80(%rsp)            # 8-byte Folded Reload
	je	.LBB1_552
# BB#556:                               # %if.else119.i
	cmpq	$0, 136(%rsp)           # 8-byte Folded Reload
	je	.LBB1_557
# BB#558:                               # %if.end123.i
	xorq	%r8, %r8
	movq	304(%rsp), %rax
	movq	%rax, (%rsp)
	movq	224(%rsp), %rdi         # 8-byte Reload
	movq	96(%rsp), %rsi          # 8-byte Reload
	movq	136(%rsp), %rdx         # 8-byte Reload
	movq	80(%rsp), %rcx          # 8-byte Reload
	movq	%r12, %r9
	callq	expand_binop
	movq	%rax, 136(%rsp)         # 8-byte Spill
	xorq	%r8, %r8
	movq	304(%rsp), %rax
	movq	%rax, (%rsp)
	movq	224(%rsp), %rdi         # 8-byte Reload
	movq	104(%rsp), %rsi         # 8-byte Reload
	movq	80(%rsp), %rdx          # 8-byte Reload
	movq	128(%rsp), %rcx         # 8-byte Reload
	movq	%r12, %r9
	callq	expand_binop
	testq	%rax, %rax
	je	.LBB1_559
# BB#560:                               # %if.end128.i
	xorq	%r8, %r8
	movq	304(%rsp), %rcx
	movq	%rcx, (%rsp)
	movq	224(%rsp), %rdi         # 8-byte Reload
	movq	64(%rsp), %rsi          # 8-byte Reload
	movq	%rax, %rdx
	movq	%r15, %rcx
	movq	%r12, %r9
	callq	expand_binop
	movq	%rax, %r15
	cmpq	$0, 136(%rsp)           # 8-byte Folded Reload
	je	.LBB1_561
# BB#562:                               # %if.end128.i
	testq	%r15, %r15
	jne	.LBB1_564
# BB#563:
	movq	$1, 176(%rsp)           # 8-byte Folded Spill
	jmp	.LBB1_578
.LBB1_546:
	movq	$1, 176(%rsp)           # 8-byte Folded Spill
	jmp	.LBB1_578
.LBB1_548:
	movq	$1, 176(%rsp)           # 8-byte Folded Spill
	jmp	.LBB1_578
.LBB1_550:
	movq	$1, 176(%rsp)           # 8-byte Folded Spill
	jmp	.LBB1_578
.LBB1_552:                              # %if.then111.i
	xorq	%rcx, %rcx
	movq	224(%rsp), %rdi         # 8-byte Reload
	movq	56(%rsp), %rsi          # 8-byte Reload
	movq	%r15, %rdx
	movq	%r12, %r8
	callq	expand_unop
	movq	%rax, %r15
	cmpq	$0, 136(%rsp)           # 8-byte Folded Reload
	je	.LBB1_553
# BB#554:                               # %if.then111.i
	testq	%r15, %r15
	je	.LBB1_555
.LBB1_564:                              # %if.end135.i
	cmpq	$6, 240(%rsp)           # 8-byte Folded Reload
	jne	.LBB1_566
# BB#565:                               # %if.then137.i
	movq	304(%rsp), %rax
	movq	%rax, (%rsp)
	movq	224(%rsp), %rdi         # 8-byte Reload
	movq	248(%rsp), %rsi         # 8-byte Reload
	movq	136(%rsp), %rdx         # 8-byte Reload
	movq	176(%rsp), %rcx         # 8-byte Reload
	movq	%r14, %r8
	movq	%r12, %r9
	callq	expand_binop
	jmp	.LBB1_567
.LBB1_557:
	movq	$1, 176(%rsp)           # 8-byte Folded Spill
	jmp	.LBB1_578
.LBB1_559:
	movq	$1, 176(%rsp)           # 8-byte Folded Spill
	jmp	.LBB1_578
.LBB1_561:
	movq	$1, 176(%rsp)           # 8-byte Folded Spill
	jmp	.LBB1_578
.LBB1_553:
	movq	$1, 176(%rsp)           # 8-byte Folded Spill
	jmp	.LBB1_578
.LBB1_555:
	movq	$1, 176(%rsp)           # 8-byte Folded Spill
	jmp	.LBB1_578
.LBB1_566:                              # %if.else139.i
	xorq	%rdi, %rdi
	movq	$62, %rsi
	movq	%r12, (%rsp)
	movq	224(%rsp), %rdx         # 8-byte Reload
	movq	136(%rsp), %rcx         # 8-byte Reload
	movq	176(%rsp), %r8          # 8-byte Reload
	movq	%r14, %r9
	callq	expand_divmod
.LBB1_567:                              # %if.end141.i
	testq	%rax, %rax
	je	.LBB1_568
# BB#569:                               # %if.end144.i
	cmpq	%r14, %rax
	je	.LBB1_571
# BB#570:                               # %if.then146.i
	movq	%r14, %rdi
	movq	%rax, %rsi
	callq	emit_move_insn
.LBB1_571:                              # %if.end148.i
	cmpq	$6, 240(%rsp)           # 8-byte Folded Reload
	jne	.LBB1_573
# BB#572:                               # %if.then150.i
	movq	304(%rsp), %rax
	movq	%rax, (%rsp)
	movq	224(%rsp), %rdi         # 8-byte Reload
	movq	248(%rsp), %rsi         # 8-byte Reload
	movq	%r15, %rdx
	movq	176(%rsp), %rcx         # 8-byte Reload
	movq	%r13, %r8
	movq	%r12, %r9
	callq	expand_binop
	jmp	.LBB1_574
.LBB1_568:
	movq	$1, 176(%rsp)           # 8-byte Folded Spill
	jmp	.LBB1_578
.LBB1_573:                              # %if.else152.i
	xorq	%rdi, %rdi
	movq	$62, %rsi
	movq	%r12, (%rsp)
	movq	224(%rsp), %rdx         # 8-byte Reload
	movq	%r15, %rcx
	movq	176(%rsp), %r8          # 8-byte Reload
	movq	%r13, %r9
	callq	expand_divmod
.LBB1_574:                              # %if.end154.i
	testq	%rax, %rax
	movq	%r13, %rcx
	movq	$1, 176(%rsp)           # 8-byte Folded Spill
	je	.LBB1_578
# BB#575:                               # %if.end157.i
	cmpq	%rcx, %rax
	je	.LBB1_577
# BB#576:                               # %if.then159.i
	movq	%rcx, %rdi
	movq	%rax, %rsi
	callq	emit_move_insn
.LBB1_577:                              # %if.end161.i
	movq	%rbx, %rdi
	callq	emit_label
	movq	$0, 176(%rsp)           # 8-byte Folded Spill
	jmp	.LBB1_578
.Ltmp20:
	.size	expand_binop, .Ltmp20-expand_binop
	.cfi_endproc

	.align	16, 0x90
	.type	add_equal_note,@function
add_equal_note:                         # @add_equal_note
	.cfi_startproc
# BB#0:                                 # %entry
	pushq	%r15
.Ltmp27:
	.cfi_def_cfa_offset 16
	pushq	%r14
.Ltmp28:
	.cfi_def_cfa_offset 24
	pushq	%r13
.Ltmp29:
	.cfi_def_cfa_offset 32
	pushq	%r12
.Ltmp30:
	.cfi_def_cfa_offset 40
	pushq	%rbx
.Ltmp31:
	.cfi_def_cfa_offset 48
	subq	$32, %rsp
.Ltmp32:
	.cfi_def_cfa_offset 80
.Ltmp33:
	.cfi_offset %rbx, -48
.Ltmp34:
	.cfi_offset %r12, -40
.Ltmp35:
	.cfi_offset %r13, -32
.Ltmp36:
	.cfi_offset %r14, -24
.Ltmp37:
	.cfi_offset %r15, -16
	movq	%rcx, %rbx
	movq	%rdx, %r13
	movq	$32, %rcx
	movq	%r13, %rax
	shlq	%cl, %rax
	movq	$32, %rcx
	sarq	%cl, %rax
	movzbl	rtx_class(%rax), %r15d
	movq	%rdi, %r14
	movq	$1, %rax
	leaq	-49(%r15), %rcx
	andq	$255, %rcx
	cmpq	$50, %rcx
	ja	.LBB2_24
# BB#1:                                 # %entry
	movq	%rsi, %r12
	movq	%r8, 24(%rsp)           # 8-byte Spill
	movq	$1, %rdx
	shlq	%cl, %rdx
	movabsq	$1125899906844675, %rcx # imm = 0x4000000000803
	testq	%rcx, %rdx
	je	.LBB2_24
# BB#2:                                 # %lor.lhs.false
	movq	%rbx, 16(%rsp)          # 8-byte Spill
	movzbl	(%r14), %eax
	cmpq	$24, %rax
	jne	.LBB2_23
# BB#3:                                 # %lor.lhs.false21
	movq	8(%r14), %rax
	movl	(%rax), %edx
	decq	%rdx
	movq	$32, %rcx
	shlq	%cl, %rdx
	movq	$32, %rcx
	sarq	%cl, %rdx
	movq	8(%rax,%rdx,8), %rdi
	movzbl	(%rdi), %eax
	movzbl	rtx_class(%rax), %eax
	cmpq	$105, %rax
	jne	.LBB2_23
# BB#4:                                 # %cond.true
	movq	32(%rdi), %rbx
	movzbl	(%rbx), %eax
	cmpq	$47, %rax
	je	.LBB2_6
# BB#5:                                 # %cond.false
	movq	%rbx, %rsi
	callq	single_set_2
	movq	%rax, %rbx
.LBB2_6:                                # %cond.end93
	testq	%rbx, %rbx
	je	.LBB2_23
# BB#7:                                 # %lor.lhs.false97
	movzbl	(%r12), %eax
	cmpq	$133, %rax
	je	.LBB2_23
# BB#8:                                 # %lor.lhs.false102
	movq	8(%rbx), %rdi
	movq	%r12, %rsi
	callq	rtx_equal_p
	movabsq	$4294967295, %rcx       # imm = 0xFFFFFFFF
	testq	%rcx, %rax
	jne	.LBB2_11
# BB#9:                                 # %land.lhs.true107
	movq	%r12, %rax
	movq	%rcx, %r12
	movq	%rax, %rdx
	movq	8(%rbx), %rax
	movzbl	(%rax), %ecx
	cmpq	$64, %rcx
	jne	.LBB2_23
# BB#10:                                # %lor.lhs.false115
	movq	8(%rax), %rax
	movq	8(%rax), %rdi
	movq	%rdx, %rbx
	movq	%rbx, %rsi
	callq	rtx_equal_p
	movq	%r12, %rcx
	movq	%rbx, %r12
	testq	%rcx, %rax
	je	.LBB2_23
.LBB2_11:                               # %if.end
	movq	%r12, 8(%rsp)           # 8-byte Spill
	movq	%r12, %rdi
	movq	%rcx, %rbx
	movq	16(%rsp), %rsi          # 8-byte Reload
	callq	reg_overlap_mentioned_p
	movq	%rbx, %rsi
	testq	%rsi, %rax
	jne	.LBB2_14
# BB#12:                                # %lor.lhs.false129
	cmpq	$0, 24(%rsp)            # 8-byte Folded Reload
	je	.LBB2_19
# BB#13:                                # %land.lhs.true131
	movq	8(%rsp), %rdi           # 8-byte Reload
	movq	%rsi, %rbx
	movq	24(%rsp), %rsi          # 8-byte Reload
	callq	reg_overlap_mentioned_p
	movq	%rbx, %rsi
	testq	%rsi, %rax
	je	.LBB2_19
.LBB2_14:                               # %if.then134
	movq	8(%r14), %rax
	movl	(%rax), %ebx
	addq	$-2, %rbx
	movq	$32, %rcx
	movq	%rbx, %rdx
	shlq	%cl, %rdx
	movq	$32, %rcx
	sarq	%cl, %rdx
	testq	%rdx, %rdx
	js	.LBB2_19
# BB#15:                                # %for.body.lr.ph
	movq	%rsi, %r12
	movq	$32, %rcx
	shlq	%cl, %rbx
	movq	$32, %rcx
	sarq	%cl, %rbx
	jmp	.LBB2_18
.LBB2_17:                               # %for.cond.for.body_crit_edge
                                        #   in Loop: Header=BB2_18 Depth=1
	movq	8(%r14), %rax
	decq	%rbx
.LBB2_18:                               # %for.body
                                        # =>This Inner Loop Header: Depth=1
	movq	8(%rax,%rbx,8), %rsi
	movq	8(%rsp), %rdi           # 8-byte Reload
	callq	reg_set_p
	movq	%rax, %rcx
	xorq	%rax, %rax
	testq	%r12, %rcx
	jne	.LBB2_24
# BB#16:                                # %for.cond
                                        #   in Loop: Header=BB2_18 Depth=1
	movq	$32, %rcx
	movq	%rbx, %rax
	shlq	%cl, %rax
	movq	$32, %rcx
	sarq	%cl, %rax
	testq	%rax, %rax
	jg	.LBB2_17
.LBB2_19:                               # %if.end152
	movq	8(%rsp), %rax           # 8-byte Reload
	movzbl	2(%rax), %r12d
	andq	$255, %r15
	movq	16(%rsp), %rdi          # 8-byte Reload
	callq	copy_rtx
	movq	%rax, %rbx
	cmpq	$49, %r15
	jne	.LBB2_21
# BB#20:                                # %if.then158
	movq	%r13, %rdi
	movq	%r12, %rsi
	movq	%rbx, %rdx
	callq	gen_rtx_fmt_e
	jmp	.LBB2_22
.LBB2_21:                               # %if.else
	movq	24(%rsp), %rdi          # 8-byte Reload
	callq	copy_rtx
	movq	%r13, %rdi
	movq	%r12, %rsi
	movq	%rbx, %rdx
	movq	%rax, %rcx
	callq	gen_rtx_fmt_ee
.LBB2_22:                               # %if.end169
	movq	8(%r14), %rdx
	movl	(%rdx), %esi
	decq	%rsi
	movq	$32, %rcx
	shlq	%cl, %rsi
	movq	$32, %rcx
	sarq	%cl, %rsi
	movq	8(%rdx,%rsi,8), %rdi
	movq	$4, %rsi
	movq	%rax, %rdx
	callq	set_unique_reg_note
.LBB2_23:                               # %return
	movq	$1, %rax
.LBB2_24:                               # %return
	addq	$32, %rsp
	popq	%rbx
	popq	%r12
	popq	%r13
	popq	%r14
	popq	%r15
	retq
.Ltmp38:
	.size	add_equal_note, .Ltmp38-add_equal_note
	.cfi_endproc

	.align	16, 0x90
	.type	widen_operand,@function
widen_operand:                          # @widen_operand
	.cfi_startproc
# BB#0:                                 # %entry
	pushq	%r15
.Ltmp43:
	.cfi_def_cfa_offset 16
	pushq	%r14
.Ltmp44:
	.cfi_def_cfa_offset 24
	pushq	%rbx
.Ltmp45:
	.cfi_def_cfa_offset 32
.Ltmp46:
	.cfi_offset %rbx, -32
.Ltmp47:
	.cfi_offset %r14, -24
.Ltmp48:
	.cfi_offset %r15, -16
	movq	%rcx, %rax
	movq	%rsi, %r14
	movq	%rdi, %r15
	movabsq	$4294967295, %rsi       # imm = 0xFFFFFFFF
	testq	%rsi, %r8
	je	.LBB3_7
# BB#1:                                 # %land.lhs.true
	movl	(%r15), %edi
	testq	$16711680, %rdi         # imm = 0xFF0000
	je	.LBB3_6
# BB#2:                                 # %lor.lhs.false
	movq	%rdi, %rcx
	andq	$268500991, %rcx        # imm = 0x1000FFFF
	cmpq	$268435519, %rcx        # imm = 0x1000003F
	jne	.LBB3_4
# BB#3:                                 # %land.lhs.true10
	movq	$26, %rcx
	movq	%rdi, %rbx
	shrq	%cl, %rbx
	andq	$1, %rbx
	andq	%rax, %rsi
	cmpq	%rsi, %rbx
	jne	.LBB3_4
.LBB3_7:                                # %if.then15
	movq	%r14, %rdi
	movq	%rdx, %rsi
	movq	%r15, %rdx
	movq	%rax, %rcx
	popq	%rbx
	popq	%r14
	popq	%r15
	jmp	convert_modes  # TAILCALL
.LBB3_4:                                # %if.end16
	movq	$32, %rcx
	movq	%r14, %rax
	shlq	%cl, %rax
	movq	$32, %rcx
	sarq	%cl, %rax
	movl	target_flags(%rip), %edx
	movzbl	mode_size(%rax), %eax
	movq	$23, %rcx
	shrq	%cl, %rdx
	andq	$4, %rdx
	addq	$4, %rdx
	movabsq	$4294967292, %rcx       # imm = 0xFFFFFFFC
	andq	%rdx, %rcx
	cmpq	%rcx, %rax
	jbe	.LBB3_8
# BB#5:                                 # %if.end26
	movq	%r14, %rdi
	callq	gen_reg_rtx
	movq	%rax, %r14
	movq	$49, %rdi
	xorq	%rsi, %rsi
	movq	%r14, %rdx
	callq	gen_rtx_fmt_e
	movq	%rax, %rdi
	callq	emit_insn
	movzbl	2(%r15), %edi
	movq	%r14, %rsi
	callq	gen_lowpart
	movq	%rax, %rdi
	movq	%r15, %rsi
	callq	emit_move_insn
	movq	%r14, %r15
.LBB3_6:                                # %return
	movq	%r15, %rax
	popq	%rbx
	popq	%r14
	popq	%r15
	retq
.LBB3_8:                                # %if.then20
	movq	$16, %rcx
	shrq	%cl, %rdi
	andq	$255, %rdi
	movq	%r15, %rsi
	callq	force_reg
	xorq	%rdx, %rdx
	movq	%r14, %rdi
	movq	%rax, %rsi
	popq	%rbx
	popq	%r14
	popq	%r15
	jmp	gen_rtx_SUBREG  # TAILCALL
.Ltmp49:
	.size	widen_operand, .Ltmp49-widen_operand
	.cfi_endproc

	.globl	emit_no_conflict_block
	.align	16, 0x90
	.type	emit_no_conflict_block,@function
emit_no_conflict_block:                 # @emit_no_conflict_block
	.cfi_startproc
# BB#0:                                 # %entry
	pushq	%r15
.Ltmp56:
	.cfi_def_cfa_offset 16
	pushq	%r14
.Ltmp57:
	.cfi_def_cfa_offset 24
	pushq	%r13
.Ltmp58:
	.cfi_def_cfa_offset 32
	pushq	%r12
.Ltmp59:
	.cfi_def_cfa_offset 40
	pushq	%rbx
.Ltmp60:
	.cfi_def_cfa_offset 48
	subq	$32, %rsp
.Ltmp61:
	.cfi_def_cfa_offset 80
.Ltmp62:
	.cfi_offset %rbx, -48
.Ltmp63:
	.cfi_offset %r12, -40
.Ltmp64:
	.cfi_offset %r13, -32
.Ltmp65:
	.cfi_offset %r14, -24
.Ltmp66:
	.cfi_offset %r15, -16
	movq	%rsi, %r13
	movzbl	(%r13), %eax
	movq	%rcx, 24(%rsp)          # 8-byte Spill
	movq	%rdi, %r14
	cmpq	$61, %rax
	jne	.LBB4_53
# BB#1:                                 # %entry
	movl	reload_in_progress(%rip), %eax
	movabsq	$4294967295, %r12       # imm = 0xFFFFFFFF
	testq	%r12, %rax
	jne	.LBB4_53
# BB#2:                                 # %for.cond.preheader
	movq	%rdx, 16(%rsp)          # 8-byte Spill
	movq	%r8, 8(%rsp)            # 8-byte Spill
	xorq	%rbx, %rbx
	testq	%r14, %r14
	movabsq	$0, %r15
	je	.LBB4_8
# BB#3:
	movq	%r14, %rbx
	.align	16, 0x90
.LBB4_4:                                # %for.body
                                        # =>This Inner Loop Header: Depth=1
	movzbl	(%rbx), %eax
	cmpq	$32, %rax
	jne	.LBB4_53
# BB#5:                                 # %lor.lhs.false5
                                        #   in Loop: Header=BB4_4 Depth=1
	movq	$7, %rsi
	xorq	%rdx, %rdx
	movq	%rbx, %rdi
	callq	find_reg_note
	testq	%rax, %rax
	jne	.LBB4_53
# BB#6:                                 # %for.inc
                                        #   in Loop: Header=BB4_4 Depth=1
	movq	24(%rbx), %rbx
	testq	%rbx, %rbx
	jne	.LBB4_4
# BB#7:
	movq	%r14, %rbx
	movq	%r14, %r15
	jmp	.LBB4_8
.LBB4_53:                               # %if.then
	movq	%r14, %rdi
	addq	$32, %rsp
	popq	%rbx
	popq	%r12
	popq	%r13
	popq	%r14
	popq	%r15
	jmp	emit_insns  # TAILCALL
.LBB4_25:                               # %if.end120
                                        #   in Loop: Header=BB4_8 Depth=1
	movq	%r14, %rdi
	callq	add_insn
	.align	16, 0x90
.LBB4_8:                                # %for.cond11
                                        # =>This Loop Header: Depth=1
                                        #     Child Loop BB4_18 Depth 2
	movq	%r15, %r14
	testq	%r14, %r14
	je	.LBB4_26
# BB#9:                                 # %for.body13
                                        #   in Loop: Header=BB4_8 Depth=1
	movq	24(%r14), %r15
	movq	$7, %rsi
	xorq	%rdx, %rdx
	movq	%r14, %rdi
	callq	find_reg_note
	testq	%rax, %rax
	je	.LBB4_11
# BB#10:                                # %if.then19
                                        #   in Loop: Header=BB4_8 Depth=1
	movq	%r14, %rdi
	movq	%rax, %rsi
	callq	remove_note
.LBB4_11:                               # %if.end20
                                        #   in Loop: Header=BB4_8 Depth=1
	movq	$6, %rsi
	xorq	%rdx, %rdx
	movq	%r14, %rdi
	callq	find_reg_note
	testq	%rax, %rax
	je	.LBB4_13
# BB#12:                                # %if.then23
                                        #   in Loop: Header=BB4_8 Depth=1
	movq	%r14, %rdi
	movq	%rax, %rsi
	callq	remove_note
.LBB4_13:                               # %if.end24
                                        #   in Loop: Header=BB4_8 Depth=1
	movq	32(%r14), %rcx
	movzbl	(%rcx), %eax
	leaq	-47(%rax), %rdx
	andq	%r12, %rdx
	cmpq	$3, %rdx
	jb	.LBB4_19
# BB#14:                                # %if.end24
                                        #   in Loop: Header=BB4_8 Depth=1
	cmpq	$39, %rax
	jne	.LBB4_16
# BB#15:                                # %for.cond57.preheader
                                        #   in Loop: Header=BB4_8 Depth=1
	movq	8(%rcx), %rax
	movslq	(%rax), %rdx
	testq	%rdx, %rdx
	movq	$1, %rsi
	jle	.LBB4_16
	.align	16, 0x90
.LBB4_18:                               # %for.body64
                                        #   Parent Loop BB4_8 Depth=1
                                        # =>  This Inner Loop Header: Depth=2
	movq	(%rax,%rsi,8), %rcx
	movzbl	(%rcx), %edi
	cmpq	$47, %rdi
	je	.LBB4_19
# BB#17:                                # %for.cond57
                                        #   in Loop: Header=BB4_18 Depth=2
	movq	$32, %rcx
	movq	%rsi, %rdi
	shlq	%cl, %rdi
	movq	$32, %rcx
	sarq	%cl, %rdi
	incq	%rsi
	cmpq	%rdx, %rdi
	jl	.LBB4_18
	jmp	.LBB4_16
	.align	16, 0x90
.LBB4_19:                               # %if.end89
                                        #   in Loop: Header=BB4_8 Depth=1
	testq	%rcx, %rcx
	je	.LBB4_16
# BB#20:                                # %if.end92
                                        #   in Loop: Header=BB4_8 Depth=1
	movq	8(%rcx), %rsi
	movq	%r13, %rdi
	callq	reg_overlap_mentioned_p
	testq	%r12, %rax
	jne	.LBB4_8
# BB#21:                                # %if.then98
                                        #   in Loop: Header=BB4_8 Depth=1
	movq	16(%r14), %rax
	testq	%rax, %rax
	movq	%r15, %rcx
	je	.LBB4_23
# BB#22:                                # %if.then103
                                        #   in Loop: Header=BB4_8 Depth=1
	movq	%r15, 24(%rax)
	movq	%rbx, %rcx
.LBB4_23:                               # %if.end111
                                        #   in Loop: Header=BB4_8 Depth=1
	movq	%rcx, %rbx
	testq	%r15, %r15
	je	.LBB4_25
# BB#24:                                # %if.then113
                                        #   in Loop: Header=BB4_8 Depth=1
	movq	16(%r14), %rax
	movq	%rax, 16(%r15)
	jmp	.LBB4_25
.LBB4_26:                               # %for.end123
	callq	get_last_insn
	movq	%rax, (%rsp)            # 8-byte Spill
	movq	16(%rsp), %r15          # 8-byte Reload
	cmpq	%r15, %r13
	movq	24(%rsp), %r12          # 8-byte Reload
	je	.LBB4_29
# BB#27:                                # %for.end123
	cmpq	%r12, %r13
	je	.LBB4_29
# BB#28:                                # %if.then127
	movq	$49, %rdi
	xorq	%rsi, %rsi
	movq	%r13, %rdx
	callq	gen_rtx_fmt_e
	movq	%rax, %rdi
	callq	emit_insn
.LBB4_29:                               # %for.cond131.preheader
	testq	%rbx, %rbx
	je	.LBB4_45
# BB#30:                                # %for.body133.lr.ph
	testq	%r12, %r12
	je	.LBB4_35
# BB#31:                                # %for.body133.lr.ph.for.body133.lr.ph.split_crit_edge
	testq	%r15, %r15
	je	.LBB4_32
	.align	16, 0x90
.LBB4_40:                               # %land.lhs.true138
                                        # =>This Inner Loop Header: Depth=1
	movq	24(%rbx), %r14
	movq	%rbx, %rdi
	callq	add_insn
	movzbl	(%r12), %eax
	cmpq	$61, %rax
	jne	.LBB4_42
# BB#41:                                # %if.then142
                                        #   in Loop: Header=BB4_40 Depth=1
	movq	56(%rbx), %rcx
	movq	$3, %rdi
	movq	$9, %rsi
	movq	%r12, %rdx
	callq	gen_rtx_fmt_ee
	movq	%rax, 56(%rbx)
.LBB4_42:                               # %land.lhs.true152
                                        #   in Loop: Header=BB4_40 Depth=1
	movzbl	(%r15), %eax
	cmpq	$61, %rax
	jne	.LBB4_44
# BB#43:                                # %if.then156
                                        #   in Loop: Header=BB4_40 Depth=1
	movq	56(%rbx), %rcx
	movq	$3, %rdi
	movq	$9, %rsi
	movq	%r15, %rdx
	callq	gen_rtx_fmt_ee
	movq	%rax, 56(%rbx)
.LBB4_44:                               # %for.cond131.backedge
                                        #   in Loop: Header=BB4_40 Depth=1
	testq	%r14, %r14
	movq	%r14, %rbx
	jne	.LBB4_40
	jmp	.LBB4_45
	.align	16, 0x90
.LBB4_32:                               # %land.lhs.true138.us285
                                        # =>This Inner Loop Header: Depth=1
	movq	24(%rbx), %r14
	movq	%rbx, %rdi
	callq	add_insn
	movzbl	(%r12), %eax
	cmpq	$61, %rax
	jne	.LBB4_34
# BB#33:                                # %if.then142.us289
                                        #   in Loop: Header=BB4_32 Depth=1
	movq	56(%rbx), %rcx
	movq	$3, %rdi
	movq	$9, %rsi
	movq	%r12, %rdx
	callq	gen_rtx_fmt_ee
	movq	%rax, 56(%rbx)
.LBB4_34:                               # %for.cond131.backedge.us304
                                        #   in Loop: Header=BB4_32 Depth=1
	testq	%r14, %r14
	movq	%r14, %rbx
	jne	.LBB4_32
	jmp	.LBB4_45
.LBB4_35:                               # %for.body133.lr.ph.split.us
	testq	%r15, %r15
	je	.LBB4_36
	.align	16, 0x90
.LBB4_37:                               # %land.lhs.true152.us
                                        # =>This Inner Loop Header: Depth=1
	movq	24(%rbx), %r14
	movq	%rbx, %rdi
	callq	add_insn
	movzbl	(%r15), %eax
	cmpq	$61, %rax
	jne	.LBB4_39
# BB#38:                                # %if.then156.us
                                        #   in Loop: Header=BB4_37 Depth=1
	movq	56(%rbx), %rcx
	movq	$3, %rdi
	movq	$9, %rsi
	movq	%r15, %rdx
	callq	gen_rtx_fmt_ee
	movq	%rax, 56(%rbx)
.LBB4_39:                               # %for.cond131.backedge.us
                                        #   in Loop: Header=BB4_37 Depth=1
	testq	%r14, %r14
	movq	%r14, %rbx
	jne	.LBB4_37
	jmp	.LBB4_45
	.align	16, 0x90
.LBB4_36:                               # %for.cond131.backedge.us.us
                                        # =>This Inner Loop Header: Depth=1
	movq	24(%rbx), %r14
	movq	%rbx, %rdi
	callq	add_insn
	testq	%r14, %r14
	movq	%r14, %rbx
	jne	.LBB4_36
.LBB4_45:                               # %for.end166
	movzbl	2(%r13), %eax
	movq	optab_table+240(%rip), %rdx
	movq	$4, %rcx
	shlq	%cl, %rax
	movl	8(%rdx,%rax), %eax
	cmpq	$1317, %rax             # imm = 0x525
	jne	.LBB4_46
# BB#48:                                # %if.else178
	callq	get_last_insn
	movq	%rax, %r14
	movq	$4, %rsi
	xorq	%rdx, %rdx
	movq	%r14, %rdi
	callq	find_reg_note
	movq	%r14, %rdi
	movq	%rax, %rsi
	callq	remove_note
	jmp	.LBB4_49
.LBB4_46:                               # %if.then172
	movq	%r13, %rdi
	movq	%r13, %rsi
	callq	emit_move_insn
	movq	%rax, %r14
	movq	8(%rsp), %rdx           # 8-byte Reload
	testq	%rdx, %rdx
	je	.LBB4_49
# BB#47:                                # %if.then175
	movq	$4, %rsi
	movq	%r14, %rdi
	callq	set_unique_reg_note
.LBB4_49:                               # %if.end181
	movq	(%rsp), %rax            # 8-byte Reload
	testq	%rax, %rax
	je	.LBB4_50
# BB#51:                                # %if.else185
	movq	24(%rax), %rbx
	jmp	.LBB4_52
.LBB4_50:                               # %if.then183
	callq	get_insns
	movq	%rax, %rbx
.LBB4_52:                               # %return
	movq	56(%rbx), %rcx
	movq	$4, %rdi
	movq	$7, %rsi
	movq	%r14, %rdx
	callq	gen_rtx_fmt_ue
	movq	%rax, 56(%rbx)
	movq	56(%r14), %rcx
	movq	$4, %rdi
	movq	$6, %rsi
	movq	%rbx, %rdx
	callq	gen_rtx_fmt_ue
	movq	%rax, 56(%r14)
	movq	%r14, %rax
	addq	$32, %rsp
	popq	%rbx
	popq	%r12
	popq	%r13
	popq	%r14
	popq	%r15
	retq
.LBB4_16:                               # %if.then91
	movabsq	$.L.str, %rdi
	movabsq	$.L__FUNCTION__.emit_no_conflict_block, %rdx
	movq	$2768, %rsi             # imm = 0xAD0
	callq	fancy_abort
.Ltmp67:
	.size	emit_no_conflict_block, .Ltmp67-emit_no_conflict_block
	.cfi_endproc

	.globl	expand_unop
	.align	16, 0x90
	.type	expand_unop,@function
expand_unop:                            # @expand_unop
	.cfi_startproc
# BB#0:                                 # %entry
	pushq	%r15
.Ltmp74:
	.cfi_def_cfa_offset 16
	pushq	%r14
.Ltmp75:
	.cfi_def_cfa_offset 24
	pushq	%r13
.Ltmp76:
	.cfi_def_cfa_offset 32
	pushq	%r12
.Ltmp77:
	.cfi_def_cfa_offset 40
	pushq	%rbx
.Ltmp78:
	.cfi_def_cfa_offset 48
	subq	$80, %rsp
.Ltmp79:
	.cfi_def_cfa_offset 128
.Ltmp80:
	.cfi_offset %rbx, -48
.Ltmp81:
	.cfi_offset %r12, -40
.Ltmp82:
	.cfi_offset %r13, -32
.Ltmp83:
	.cfi_offset %r14, -24
.Ltmp84:
	.cfi_offset %r15, -16
	movq	%r8, 16(%rsp)           # 8-byte Spill
	movq	%rcx, %r14
	movq	%rdx, %rbx
	movq	%rsi, 40(%rsp)          # 8-byte Spill
	movq	%rdi, 72(%rsp)          # 8-byte Spill
	movq	$32, %rcx
	shlq	%cl, %rdi
	movq	$32, %rcx
	sarq	%cl, %rdi
	movq	%rdi, 8(%rsp)           # 8-byte Spill
	movq	$4, %rcx
	movq	%rdi, %rax
	shlq	%cl, %rax
	leaq	8(%rsi,%rax), %rax
	movq	%rax, 32(%rsp)          # 8-byte Spill
	jmp	.LBB5_1
	.align	16, 0x90
.LBB5_18:                               # %if.then61
                                        #   in Loop: Header=BB5_1 Depth=1
	movq	56(%rsp), %rdi          # 8-byte Reload
	callq	delete_insns_since
	xorq	%r14, %r14
	movq	64(%rsp), %rbx          # 8-byte Reload
.LBB5_1:                                # %tailrecurse
                                        # =>This Inner Loop Header: Depth=1
	callq	get_last_insn
	movq	%rax, 56(%rsp)          # 8-byte Spill
	xorq	%rsi, %rsi
	movq	%rbx, %rdi
	callq	protect_from_queue
	movl	flag_force_mem(%rip), %ecx
	movq	%rax, %rbx
	testq	%rcx, %rcx
	je	.LBB5_3
# BB#2:                                 # %if.then
                                        #   in Loop: Header=BB5_1 Depth=1
	movq	%rbx, %rdi
	callq	force_not_mem
	movq	%rax, %rbx
.LBB5_3:                                # %if.end
                                        #   in Loop: Header=BB5_1 Depth=1
	xorq	%rax, %rax
	testq	%r14, %r14
	je	.LBB5_5
# BB#4:                                 # %if.then4
                                        #   in Loop: Header=BB5_1 Depth=1
	movq	$1, %rsi
	movq	%r14, %rdi
	callq	protect_from_queue
.LBB5_5:                                # %if.end6
                                        #   in Loop: Header=BB5_1 Depth=1
	movq	32(%rsp), %rcx          # 8-byte Reload
	movslq	(%rcx), %rcx
	cmpq	$1317, %rcx             # imm = 0x525
	je	.LBB5_21
# BB#6:                                 # %if.then9
                                        #   in Loop: Header=BB5_1 Depth=1
	leaq	(%rcx,%rcx,4), %rcx
	movq	%rcx, 48(%rsp)          # 8-byte Spill
	movq	insn_data+24(,%rcx,8), %r14
	movzbl	40(%r14), %r13d
	testq	%rax, %rax
	movq	%rax, %r15
	movq	%rax, 24(%rsp)          # 8-byte Spill
	jne	.LBB5_8
# BB#7:                                 # %if.else
                                        #   in Loop: Header=BB5_1 Depth=1
	movq	72(%rsp), %rdi          # 8-byte Reload
	callq	gen_reg_rtx
	movq	%rax, %r15
.LBB5_8:                                # %if.end21
                                        #   in Loop: Header=BB5_1 Depth=1
	movzbl	2(%rbx), %eax
	testq	%rax, %rax
	movq	%rbx, %r12
	je	.LBB5_11
# BB#9:                                 # %if.end21
                                        #   in Loop: Header=BB5_1 Depth=1
	cmpq	%r13, %rax
	movq	%rbx, %r12
	je	.LBB5_11
# BB#10:                                # %if.then28
                                        #   in Loop: Header=BB5_1 Depth=1
	movq	%r13, %rdi
	movq	%rbx, %rsi
	movq	16(%rsp), %rdx          # 8-byte Reload
	callq	convert_to_mode
	movq	%rax, %r12
.LBB5_11:                               # %if.end30
                                        #   in Loop: Header=BB5_1 Depth=1
	movq	%rbx, 64(%rsp)          # 8-byte Spill
	movq	%r12, %rdi
	movq	%r13, %rsi
	callq	*24(%r14)
	movabsq	$4294967295, %rcx       # imm = 0xFFFFFFFF
	testq	%rcx, %rax
	jne	.LBB5_13
# BB#12:                                # %if.then37
                                        #   in Loop: Header=BB5_1 Depth=1
	movq	%r13, %rdi
	movq	%r12, %rsi
	callq	copy_to_mode_reg
	movq	%rax, %r12
.LBB5_13:                               # %if.end39
                                        #   in Loop: Header=BB5_1 Depth=1
	movq	%r15, %rdi
	movq	72(%rsp), %rsi          # 8-byte Reload
	callq	*(%r14)
	movabsq	$4294967295, %rcx       # imm = 0xFFFFFFFF
	testq	%rcx, %rax
	jne	.LBB5_15
# BB#14:                                # %if.then47
                                        #   in Loop: Header=BB5_1 Depth=1
	movq	72(%rsp), %rdi          # 8-byte Reload
	callq	gen_reg_rtx
	movq	%rax, %r15
.LBB5_15:                               # %if.end49
                                        #   in Loop: Header=BB5_1 Depth=1
	xorq	%rax, %rax
	movq	%r15, %rdi
	movq	%r12, %rsi
	movq	48(%rsp), %rcx          # 8-byte Reload
	callq	*insn_data+16(,%rcx,8)
	movq	%rax, %rbx
	testq	%rbx, %rbx
	movq	40(%rsp), %r14          # 8-byte Reload
	je	.LBB5_20
# BB#16:                                # %if.then54
                                        #   in Loop: Header=BB5_1 Depth=1
	movzbl	(%rbx), %eax
	cmpq	$24, %rax
	jne	.LBB5_19
# BB#17:                                # %land.lhs.true58
                                        #   in Loop: Header=BB5_1 Depth=1
	movl	(%r14), %edx
	xorq	%r8, %r8
	movq	%rbx, %rdi
	movq	%r15, %rsi
	movq	%r12, %rcx
	callq	add_equal_note
	movabsq	$4294967295, %rcx       # imm = 0xFFFFFFFF
	testq	%rcx, %rax
	je	.LBB5_18
.LBB5_19:                               # %if.end63
	movq	%rbx, %rdi
	callq	emit_insn
	jmp	.LBB5_97
.LBB5_21:                               # %if.end67.loopexit
	movq	%rax, 24(%rsp)          # 8-byte Spill
	movq	%rbx, 64(%rsp)          # 8-byte Spill
	movq	8(%rsp), %rax           # 8-byte Reload
	movl	mode_class(,%rax,4), %ebx
	movq	40(%rsp), %r14          # 8-byte Reload
	jmp	.LBB5_22
.LBB5_20:                               # %if.else65
	movq	8(%rsp), %rax           # 8-byte Reload
	movl	mode_class(,%rax,4), %ebx
	movq	56(%rsp), %rdi          # 8-byte Reload
	callq	delete_insns_since
.LBB5_22:                               # %if.end67
	movq	%rbx, 48(%rsp)          # 8-byte Spill
	movq	%rbx, %rsi
	movabsq	$4294967295, %rax       # imm = 0xFFFFFFFF
	andq	%rax, %rsi
	cmpq	$6, %rsi
	ja	.LBB5_28
# BB#23:                                # %if.end67
	movq	$1, %rax
	movq	%rsi, %rcx
	shlq	%cl, %rax
	testq	$70, %rax
	je	.LBB5_28
# BB#24:                                # %for.cond.preheader
	movq	8(%rsp), %rax           # 8-byte Reload
	movzbl	mode_wider_mode(%rax), %ebx
	testq	%rbx, %rbx
	je	.LBB5_28
# BB#25:
	movabsq	$0, %r13
	.align	16, 0x90
.LBB5_26:                               # %for.body
                                        # =>This Inner Loop Header: Depth=1
	andq	$255, %rbx
	movq	$4, %rcx
	movq	%rbx, %rax
	shlq	%cl, %rax
	movl	8(%r14,%rax), %eax
	cmpq	$1317, %rax             # imm = 0x525
	je	.LBB5_27
# BB#40:                                # %if.then83
                                        #   in Loop: Header=BB5_26 Depth=1
	cmpq	$1, %rsi
	movq	%r13, %rax
	jne	.LBB5_42
# BB#41:                                # %if.then83
                                        #   in Loop: Header=BB5_26 Depth=1
	movabsq	$1, %rax
.LBB5_42:                               # %if.then83
                                        #   in Loop: Header=BB5_26 Depth=1
	movq	optab_table+256(%rip), %rcx
	cmpq	%r14, %rcx
	movq	%r13, %r8
	jne	.LBB5_44
# BB#43:                                # %if.then83
                                        #   in Loop: Header=BB5_26 Depth=1
	movabsq	$1, %r8
.LBB5_44:                               # %if.then83
                                        #   in Loop: Header=BB5_26 Depth=1
	movq	%rsi, %r12
	movq	optab_table+288(%rip), %rcx
	cmpq	%r14, %rcx
	movq	%r13, %rcx
	jne	.LBB5_46
# BB#45:                                # %if.then83
                                        #   in Loop: Header=BB5_26 Depth=1
	movabsq	$1, %rcx
.LBB5_46:                               # %if.then83
                                        #   in Loop: Header=BB5_26 Depth=1
	orq	%rcx, %r8
	andq	%rax, %r8
	movq	64(%rsp), %rdi          # 8-byte Reload
	movq	%rbx, %rsi
	movq	72(%rsp), %rdx          # 8-byte Reload
	movq	16(%rsp), %r15          # 8-byte Reload
	movq	%r15, %rcx
	callq	widen_operand
	xorq	%rcx, %rcx
	movq	%rbx, %rdi
	movq	%r14, %rsi
	movq	%rax, %rdx
	movq	%r15, %r8
	callq	expand_unop
	movq	%rax, %r15
	testq	%r15, %r15
	jne	.LBB5_47
# BB#53:                                # %if.else106
                                        #   in Loop: Header=BB5_26 Depth=1
	movq	56(%rsp), %rdi          # 8-byte Reload
	callq	delete_insns_since
	movq	%r12, %rsi
.LBB5_27:                               # %for.cond.backedge
                                        #   in Loop: Header=BB5_26 Depth=1
	movzbl	mode_wider_mode(%rbx), %ebx
	testq	%rbx, %rbx
	jne	.LBB5_26
.LBB5_28:                               # %if.end112
	movq	optab_table+288(%rip), %rax
	cmpq	%r14, %rax
	movq	8(%rsp), %rdi           # 8-byte Reload
	jne	.LBB5_54
# BB#29:                                # %if.end112
	cmpq	$1, %rsi
	jne	.LBB5_54
# BB#30:                                # %land.lhs.true118
	movl	target_flags(%rip), %eax
	movzbl	mode_size(%rdi), %edx
	movq	$23, %rcx
	shrq	%cl, %rax
	andq	$4, %rax
	addq	$4, %rax
	movabsq	$4294967292, %rcx       # imm = 0xFFFFFFFC
	andq	%rax, %rcx
	cmpq	%rcx, %rdx
	jbe	.LBB5_54
# BB#31:                                # %land.lhs.true125
	movslq	word_mode(%rip), %rax
	movq	$4, %rcx
	shlq	%cl, %rax
	movl	8(%r14,%rax), %eax
	cmpq	$1317, %rax             # imm = 0x525
	jne	.LBB5_32
.LBB5_54:                               # %if.else166
	movl	(%r14), %eax
	cmpq	$77, %rax
	movq	48(%rsp), %rdx          # 8-byte Reload
	jne	.LBB5_68
# BB#55:                                # %if.else166
	addq	$-5, %rdx
	movabsq	$4294967295, %rcx       # imm = 0xFFFFFFFF
	andq	%rcx, %rdx
	cmpq	$1, %rdx
	ja	.LBB5_68
# BB#56:                                # %if.then176
	movq	%r14, %r12
	cmpq	$5, %rsi
	jne	.LBB5_57
# BB#58:                                # %if.then176
	movabsq	$1, %rsi
	jmp	.LBB5_59
.LBB5_68:                               # %if.end217
	movq	$4, %rcx
	movq	%rdi, %rdx
	shlq	%cl, %rdx
	cmpq	$0, 16(%r14,%rdx)
	je	.LBB5_70
# BB#69:                                # %if.then222
	leaq	16(%r14,%rdx), %rbx
	callq	start_sequence
	movq	(%rbx), %rdi
	xorq	%rsi, %rsi
	movq	$1, %rdx
	movq	$1, %r8
	xorq	%rax, %rax
	movq	72(%rsp), %rbx          # 8-byte Reload
	movq	%rbx, (%rsp)
	movq	%rbx, %rcx
	movq	64(%rsp), %r13          # 8-byte Reload
	movq	%r13, %r9
	callq	emit_library_call_value
	movq	%rax, %r12
	callq	get_insns
	movq	%r14, %r15
	movq	%rax, %r14
	callq	end_sequence
	movq	%rbx, %rdi
	callq	gen_reg_rtx
	movl	(%r15), %edi
	movq	%rax, %r15
	movq	%rbx, %rsi
	movq	%r13, %rdx
	callq	gen_rtx_fmt_e
	movq	%r14, %rdi
	movq	%r15, %rsi
	movq	%r12, %rdx
	movq	%rax, %rcx
	callq	emit_libcall_block
	jmp	.LBB5_97
.LBB5_57:
	movabsq	$0, %rsi
.LBB5_59:                               # %if.then176
	movzbl	mode_unit_size(%rdi), %edi
	movq	$3, %rcx
	shlq	%cl, %rdi
	xorq	$1, %rsi
	incq	%rsi
	xorq	%rdx, %rdx
	callq	mode_for_size
	movq	%rax, %r13
	movabsq	$4294967295, %rax       # imm = 0xFFFFFFFF
	andq	%r13, %rax
	cmpq	$51, %rax
	movq	64(%rsp), %r14          # 8-byte Reload
	je	.LBB5_98
# BB#60:                                # %if.end189
	movq	24(%rsp), %rbx          # 8-byte Reload
	testq	%rbx, %rbx
	jne	.LBB5_62
# BB#61:                                # %if.then192
	movq	72(%rsp), %rdi          # 8-byte Reload
	callq	gen_reg_rtx
	movq	%rax, %rbx
.LBB5_62:                               # %if.end194
	movq	%rbx, 24(%rsp)          # 8-byte Spill
	callq	start_sequence
	movq	%r13, %rdi
	movq	%rbx, %rsi
	callq	gen_imagpart
	movq	%rax, %r15
	movq	%r13, %rdi
	movq	%r14, %rsi
	callq	gen_imagpart
	movq	%r13, %rdi
	movq	%r12, %rsi
	movq	%rax, %rdx
	movq	%r15, %rcx
	movq	16(%rsp), %r8           # 8-byte Reload
	callq	expand_unop
	cmpq	%rax, %r15
	je	.LBB5_64
# BB#63:                                # %if.then200
	movq	%r15, %rdi
	movq	%rax, %rsi
	callq	emit_move_insn
.LBB5_64:                               # %if.end202
	movq	%r13, %rdi
	movq	24(%rsp), %rsi          # 8-byte Reload
	callq	gen_realpart
	movq	%rax, %r15
	movq	%r13, %rdi
	movq	%r14, %rsi
	callq	gen_realpart
	movq	%r13, %rdi
	movq	%r12, %rsi
	movq	%rax, %rdx
	movq	%r15, %rcx
	movq	16(%rsp), %r8           # 8-byte Reload
	callq	expand_unop
	cmpq	%rax, %r15
	je	.LBB5_66
# BB#65:                                # %if.then208
	movq	%r15, %rdi
	movq	%rax, %rsi
	callq	emit_move_insn
.LBB5_66:                               # %if.end210
	callq	get_insns
	movq	%rax, %rbx
	callq	end_sequence
	movl	(%r12), %r15d
	movq	%r14, %rdi
	callq	copy_rtx
	movq	%r15, %rdi
	movq	72(%rsp), %rsi          # 8-byte Reload
	movq	%rax, %rdx
	callq	gen_rtx_fmt_e
	xorq	%rcx, %rcx
	movq	%rbx, %rdi
	movq	24(%rsp), %rbx          # 8-byte Reload
	movq	%rbx, %rsi
	movq	%r14, %rdx
	jmp	.LBB5_67
.LBB5_70:                               # %if.end233
	cmpq	$6, %rsi
	movq	64(%rsp), %rbx          # 8-byte Reload
	movq	%r14, %r13
	ja	.LBB5_78
# BB#71:                                # %if.end233
	movq	$1, %rdx
	movq	%rsi, %rcx
	shlq	%cl, %rdx
	testq	$70, %rdx
	je	.LBB5_78
# BB#72:                                # %for.cond246.preheader
	movq	8(%rsp), %rcx           # 8-byte Reload
	movzbl	mode_wider_mode(%rcx), %r15d
	testq	%r15, %r15
	je	.LBB5_78
# BB#73:
	movabsq	$0, %r12
	.align	16, 0x90
.LBB5_74:                               # %for.body249
                                        # =>This Inner Loop Header: Depth=1
	andq	$255, %r15
	movq	$4, %rcx
	movq	%r15, %rax
	shlq	%cl, %rax
	movl	8(%r13,%rax), %eax
	cmpq	$1317, %rax             # imm = 0x525
	jne	.LBB5_81
# BB#75:                                # %lor.lhs.false256
                                        #   in Loop: Header=BB5_74 Depth=1
	movq	$4, %rcx
	movq	%r15, %rax
	shlq	%cl, %rax
	cmpq	$0, 16(%r13,%rax)
	je	.LBB5_76
.LBB5_81:                               # %if.then262
                                        #   in Loop: Header=BB5_74 Depth=1
	cmpq	$1, %rsi
	movq	%r12, %rax
	jne	.LBB5_83
# BB#82:                                # %if.then262
                                        #   in Loop: Header=BB5_74 Depth=1
	movabsq	$1, %rax
.LBB5_83:                               # %if.then262
                                        #   in Loop: Header=BB5_74 Depth=1
	movq	%rsi, %r14
	movq	optab_table+256(%rip), %rcx
	cmpq	%r13, %rcx
	movq	%r12, %r8
	jne	.LBB5_85
# BB#84:                                # %if.then262
                                        #   in Loop: Header=BB5_74 Depth=1
	movabsq	$1, %r8
.LBB5_85:                               # %if.then262
                                        #   in Loop: Header=BB5_74 Depth=1
	movq	optab_table+288(%rip), %rcx
	cmpq	%r13, %rcx
	movq	%r12, %rcx
	jne	.LBB5_87
# BB#86:                                # %if.then262
                                        #   in Loop: Header=BB5_74 Depth=1
	movabsq	$1, %rcx
.LBB5_87:                               # %if.then262
                                        #   in Loop: Header=BB5_74 Depth=1
	orq	%rcx, %r8
	andq	%rax, %r8
	movq	64(%rsp), %rdi          # 8-byte Reload
	movq	%r15, %rsi
	movq	72(%rsp), %rdx          # 8-byte Reload
	movq	16(%rsp), %rbx          # 8-byte Reload
	movq	%rbx, %rcx
	callq	widen_operand
	xorq	%rcx, %rcx
	movq	%r15, %rdi
	movq	%r13, %rsi
	movq	%rax, %rdx
	movq	%rbx, %r8
	callq	expand_unop
	movq	%rax, %rbx
	testq	%rbx, %rbx
	jne	.LBB5_88
# BB#93:                                # %if.else288
                                        #   in Loop: Header=BB5_74 Depth=1
	movq	56(%rsp), %rdi          # 8-byte Reload
	callq	delete_insns_since
	movq	%r14, %rsi
.LBB5_76:                               # %for.cond246.backedge
                                        #   in Loop: Header=BB5_74 Depth=1
	movzbl	mode_wider_mode(%r15), %r15d
	testq	%r15, %r15
	jne	.LBB5_74
# BB#77:                                # %for.cond246.if.end296.loopexit_crit_edge
	movl	(%r13), %eax
	movq	64(%rsp), %rbx          # 8-byte Reload
.LBB5_78:                               # %if.end296
	movabsq	$4294967295, %rcx       # imm = 0xFFFFFFFF
	andq	%rcx, %rax
	cmpq	$77, %rax
	movq	24(%rsp), %r8           # 8-byte Reload
	jne	.LBB5_96
# BB#79:                                # %if.then300
	movq	optab_table+264(%rip), %rax
	cmpq	%r13, %rax
	je	.LBB5_80
# BB#94:                                # %select.mid
	movq	optab_table+16(%rip), %rsi
	jmp	.LBB5_95
.LBB5_32:                               # %if.then132
	movq	%rdi, %r15
	movq	%r14, 40(%rsp)          # 8-byte Spill
	movq	24(%rsp), %rbx          # 8-byte Reload
	testq	%rbx, %rbx
	je	.LBB5_34
# BB#33:                                # %if.then132
	movq	64(%rsp), %rax          # 8-byte Reload
	cmpq	%rax, %rbx
	jne	.LBB5_35
.LBB5_34:                               # %if.then138
	movq	72(%rsp), %rdi          # 8-byte Reload
	callq	gen_reg_rtx
	movq	%rax, %rbx
.LBB5_35:                               # %if.end140
	callq	start_sequence
	movzbl	mode_bitsize(%r15,%r15), %eax
	movq	%rax, 56(%rsp)          # 8-byte Spill
	movl	target_flags(%rip), %esi
	movq	$20, %rcx
	shrq	%cl, %rsi
	andq	$32, %rsi
	addq	$32, %rsi
	xorq	%r14, %r14
	xorq	%rdx, %rdx
	idivq	%rsi
	movq	$32, %rcx
	shlq	%cl, %rax
	movq	$32, %rcx
	sarq	%cl, %rax
	testq	%rax, %rax
	jle	.LBB5_39
	.align	16, 0x90
.LBB5_36:                               # %for.body150
                                        # =>This Inner Loop Header: Depth=1
	movq	$1, %rdx
	movq	%rbx, %rdi
	movq	%rbx, %r15
	movq	%r14, %rsi
	movq	72(%rsp), %rbx          # 8-byte Reload
	movq	%rbx, %rcx
	callq	operand_subword
	movl	word_mode(%rip), %r13d
	movq	%rax, %r12
	movq	64(%rsp), %rdi          # 8-byte Reload
	movq	%r14, %rsi
	movq	%rbx, %rdx
	callq	operand_subword_force
	movq	%r13, %rdi
	movq	40(%rsp), %rsi          # 8-byte Reload
	movq	%rax, %rdx
	movq	%r12, %rcx
	movq	16(%rsp), %r8           # 8-byte Reload
	callq	expand_unop
	cmpq	%rax, %r12
	je	.LBB5_38
# BB#37:                                # %if.then156
                                        #   in Loop: Header=BB5_36 Depth=1
	movq	%r12, %rdi
	movq	%rax, %rsi
	callq	emit_move_insn
.LBB5_38:                               # %for.inc159
                                        #   in Loop: Header=BB5_36 Depth=1
	incq	%r14
	movq	$32, %rcx
	movq	%r14, %rsi
	shlq	%cl, %rsi
	movq	$32, %rcx
	sarq	%cl, %rsi
	movl	target_flags(%rip), %edi
	movq	$20, %rcx
	shrq	%cl, %rdi
	andq	$32, %rdi
	addq	$32, %rdi
	xorq	%rdx, %rdx
	movq	56(%rsp), %rax          # 8-byte Reload
	idivq	%rdi
	movq	$32, %rcx
	shlq	%cl, %rax
	movq	$32, %rcx
	sarq	%cl, %rax
	cmpq	%rax, %rsi
	movq	%r15, %rbx
	jl	.LBB5_36
.LBB5_39:                               # %for.end160
	callq	get_insns
	movq	%rax, %r14
	callq	end_sequence
	movq	40(%rsp), %rax          # 8-byte Reload
	movl	(%rax), %r15d
	movq	64(%rsp), %r12          # 8-byte Reload
	movq	%r12, %rdi
	callq	copy_rtx
	movq	%r15, %rdi
	movq	72(%rsp), %rsi          # 8-byte Reload
	movq	%rax, %rdx
	callq	gen_rtx_fmt_e
	xorq	%rcx, %rcx
	movq	%r14, %rdi
	movq	%rbx, %rsi
	movq	%r12, %rdx
.LBB5_67:                               # %return
	movq	%rax, %r8
	callq	emit_no_conflict_block
	movq	%rbx, %r15
.LBB5_97:                               # %return
	movq	%r15, %rax
	addq	$80, %rsp
	popq	%rbx
	popq	%r12
	popq	%r13
	popq	%r14
	popq	%r15
	retq
.LBB5_47:                               # %if.then95
	cmpq	$1, %r12
	jne	.LBB5_48
# BB#51:                                # %if.else104
	movq	72(%rsp), %rdi          # 8-byte Reload
	movq	%r15, %rsi
.LBB5_52:                               # %if.else104
	addq	$80, %rsp
	popq	%rbx
	popq	%r12
	popq	%r13
	popq	%r14
	popq	%r15
	jmp	gen_lowpart  # TAILCALL
.LBB5_48:                               # %if.then98
	movq	24(%rsp), %rbx          # 8-byte Reload
	testq	%rbx, %rbx
	jne	.LBB5_50
# BB#49:                                # %if.then101
	movq	72(%rsp), %rdi          # 8-byte Reload
	callq	gen_reg_rtx
	movq	%rax, %rbx
.LBB5_50:                               # %if.end103
	xorq	%rdx, %rdx
	movq	%rbx, %rdi
	movq	%r15, %rsi
	callq	convert_move
	movq	%rbx, %r15
	jmp	.LBB5_97
.LBB5_80:
	movq	optab_table+24(%rip), %rsi
.LBB5_95:                               # %select.end
	movq	8(%rsp), %rax           # 8-byte Reload
	movq	const_tiny_rtx(,%rax,8), %rdx
	movq	$3, (%rsp)
	movq	72(%rsp), %rdi          # 8-byte Reload
	movq	%rbx, %rcx
	movq	16(%rsp), %r9           # 8-byte Reload
	callq	expand_binop
	movq	%rax, %r15
	testq	%r15, %r15
	jne	.LBB5_97
.LBB5_96:                               # %if.end311
	xorq	%r15, %r15
	jmp	.LBB5_97
.LBB5_88:                               # %if.then277
	cmpq	$1, %r14
	jne	.LBB5_89
# BB#92:                                # %if.else286
	movq	72(%rsp), %rdi          # 8-byte Reload
	movq	%rbx, %rsi
	jmp	.LBB5_52
.LBB5_89:                               # %if.then280
	movq	24(%rsp), %r14          # 8-byte Reload
	testq	%r14, %r14
	jne	.LBB5_91
# BB#90:                                # %if.then283
	movq	72(%rsp), %rdi          # 8-byte Reload
	callq	gen_reg_rtx
	movq	%rax, %r14
.LBB5_91:                               # %if.end285
	xorq	%rdx, %rdx
	movq	%r14, %rdi
	movq	%rbx, %rsi
	callq	convert_move
	movq	%r14, %r15
	jmp	.LBB5_97
.LBB5_98:                               # %if.then188
	movabsq	$.L.str, %rax
	movabsq	$.L__FUNCTION__.expand_unop, %rcx
	movq	$2227, %rsi             # imm = 0x8B3
	movq	%rax, %rdi
	movq	%rcx, %rdx
	callq	fancy_abort
.Ltmp85:
	.size	expand_unop, .Ltmp85-expand_unop
	.cfi_endproc

	.globl	emit_libcall_block
	.align	16, 0x90
	.type	emit_libcall_block,@function
emit_libcall_block:                     # @emit_libcall_block
	.cfi_startproc
# BB#0:                                 # %entry
	pushq	%r15
.Ltmp92:
	.cfi_def_cfa_offset 16
	pushq	%r14
.Ltmp93:
	.cfi_def_cfa_offset 24
	pushq	%r13
.Ltmp94:
	.cfi_def_cfa_offset 32
	pushq	%r12
.Ltmp95:
	.cfi_def_cfa_offset 40
	pushq	%rbx
.Ltmp96:
	.cfi_def_cfa_offset 48
	subq	$32, %rsp
.Ltmp97:
	.cfi_def_cfa_offset 80
.Ltmp98:
	.cfi_offset %rbx, -48
.Ltmp99:
	.cfi_offset %r12, -40
.Ltmp100:
	.cfi_offset %r13, -32
.Ltmp101:
	.cfi_offset %r14, -24
.Ltmp102:
	.cfi_offset %r15, -16
	movq	%rsi, 16(%rsp)          # 8-byte Spill
	movl	(%rsi), %eax
	movq	%rcx, 24(%rsp)          # 8-byte Spill
	movq	%rdx, 8(%rsp)           # 8-byte Spill
	movq	%rdi, %r15
	movq	%rax, %rcx
	andq	$134283263, %rcx        # imm = 0x800FFFF
	cmpq	$61, %rcx
	movq	%rsi, %rbx
	je	.LBB6_2
# BB#1:                                 # %if.then
	movq	$16, %rcx
	shrq	%cl, %rax
	andq	$255, %rax
	movq	%rax, %rdi
	callq	gen_reg_rtx
	movq	%rax, %rbx
.LBB6_2:                                # %if.end
	movl	flag_non_call_exceptions(%rip), %eax
	testq	%rax, %rax
	je	.LBB6_3
# BB#8:                                 # %land.lhs.true
	movq	24(%rsp), %rdi          # 8-byte Reload
	callq	may_trap_p
	movabsq	$4294967295, %rcx       # imm = 0xFFFFFFFF
	testq	%rcx, %rax
	je	.LBB6_3
# BB#9:                                 # %for.cond.preheader
	testq	%r15, %r15
	je	.LBB6_60
# BB#10:
	movq	%rbx, %r12
	movq	%r15, %rbx
	.align	16, 0x90
.LBB6_11:                               # %for.body
                                        # =>This Inner Loop Header: Depth=1
	movzbl	(%rbx), %eax
	cmpq	$34, %rax
	jne	.LBB6_15
# BB#12:                                # %if.then14
                                        #   in Loop: Header=BB6_11 Depth=1
	movq	$23, %rsi
	xorq	%rdx, %rdx
	movq	%rbx, %rdi
	callq	find_reg_note
	testq	%rax, %rax
	je	.LBB6_15
# BB#13:                                # %land.lhs.true17
                                        #   in Loop: Header=BB6_11 Depth=1
	movq	8(%rax), %rcx
	cmpq	$0, 8(%rcx)
	jg	.LBB6_15
# BB#14:                                # %if.then21
                                        #   in Loop: Header=BB6_11 Depth=1
	movq	%rbx, %rdi
	movq	%rax, %rsi
	callq	remove_note
	.align	16, 0x90
.LBB6_15:                               # %for.inc
                                        #   in Loop: Header=BB6_11 Depth=1
	movq	24(%rbx), %rbx
	testq	%rbx, %rbx
	jne	.LBB6_11
	jmp	.LBB6_16
.LBB6_3:                                # %for.cond27.preheader
	testq	%r15, %r15
	je	.LBB6_60
# BB#4:
	movq	%rbx, %r12
	movq	%r15, %rbx
	.align	16, 0x90
.LBB6_5:                                # %for.body29
                                        # =>This Inner Loop Header: Depth=1
	movzbl	(%rbx), %eax
	cmpq	$34, %rax
	jne	.LBB6_35
# BB#6:                                 # %if.then33
                                        #   in Loop: Header=BB6_5 Depth=1
	movq	$23, %rsi
	xorq	%rdx, %rdx
	movq	%rbx, %rdi
	callq	find_reg_note
	movq	%rax, %r14
	xorq	%rdi, %rdi
	movq	$-1, %rsi
	callq	gen_rtx_CONST_INT
	testq	%r14, %r14
	jne	.LBB6_7
# BB#34:                                # %if.else42
                                        #   in Loop: Header=BB6_5 Depth=1
	movq	56(%rbx), %rcx
	movq	$3, %rdi
	movq	$23, %rsi
	movq	%rax, %rdx
	callq	gen_rtx_fmt_ee
	movq	%rax, 56(%rbx)
	jmp	.LBB6_35
	.align	16, 0x90
.LBB6_7:                                # %if.then37
                                        #   in Loop: Header=BB6_5 Depth=1
	movq	%rax, 8(%r14)
.LBB6_35:                               # %for.inc53
                                        #   in Loop: Header=BB6_5 Depth=1
	movq	24(%rbx), %rbx
	testq	%rbx, %rbx
	jne	.LBB6_5
.LBB6_16:                               # %for.cond59.preheader
	testq	%r15, %r15
	movq	%r12, %rbx
	je	.LBB6_60
# BB#17:
	movq	%rbx, (%rsp)            # 8-byte Spill
	movabsq	$4294967295, %r13       # imm = 0xFFFFFFFF
	movq	%r15, %rbx
	.align	16, 0x90
.LBB6_18:                               # %for.body61
                                        # =>This Inner Loop Header: Depth=1
	movq	%rbx, %r12
	movzbl	(%r12), %eax
	movzbl	rtx_class(%rax), %eax
	cmpq	$105, %rax
	movabsq	$0, %r14
	jne	.LBB6_21
# BB#19:                                # %cond.true
                                        #   in Loop: Header=BB6_18 Depth=1
	movq	32(%r12), %r14
	movzbl	(%r14), %eax
	cmpq	$47, %rax
	je	.LBB6_21
# BB#20:                                # %cond.false
                                        #   in Loop: Header=BB6_18 Depth=1
	movq	%r12, %rdi
	movq	%r14, %rsi
	callq	single_set_2
	movq	%rax, %r14
.LBB6_21:                               # %cond.end83
                                        #   in Loop: Header=BB6_18 Depth=1
	movq	$7, %rsi
	xorq	%rdx, %rdx
	movq	%r12, %rdi
	callq	find_reg_note
	testq	%rax, %rax
	je	.LBB6_23
# BB#22:                                # %if.then89
                                        #   in Loop: Header=BB6_18 Depth=1
	movq	%r12, %rdi
	movq	%rax, %rsi
	callq	remove_note
.LBB6_23:                               # %if.end90
                                        #   in Loop: Header=BB6_18 Depth=1
	movq	$6, %rsi
	xorq	%rdx, %rdx
	movq	%r12, %rdi
	callq	find_reg_note
	testq	%rax, %rax
	je	.LBB6_25
# BB#24:                                # %if.then94
                                        #   in Loop: Header=BB6_18 Depth=1
	movq	%r12, %rdi
	movq	%rax, %rsi
	callq	remove_note
.LBB6_25:                               # %if.end95
                                        #   in Loop: Header=BB6_18 Depth=1
	movq	24(%r12), %rbx
	testq	%r14, %r14
	je	.LBB6_44
# BB#26:                                # %land.lhs.true101
                                        #   in Loop: Header=BB6_18 Depth=1
	movq	8(%r14), %rdi
	movzbl	(%rdi), %eax
	cmpq	$61, %rax
	jne	.LBB6_44
# BB#27:                                # %land.lhs.true109
                                        #   in Loop: Header=BB6_18 Depth=1
	movl	8(%rdi), %eax
	cmpq	$53, %rax
	jb	.LBB6_44
# BB#28:                                # %land.lhs.true117
                                        #   in Loop: Header=BB6_18 Depth=1
	cmpq	%r15, %r12
	je	.LBB6_39
# BB#29:                                # %lor.lhs.false120
                                        #   in Loop: Header=BB6_18 Depth=1
	movzbl	(%r15), %eax
	movzbl	rtx_class(%rax), %eax
	cmpq	$105, %rax
	jne	.LBB6_32
# BB#30:                                # %lor.lhs.false128
                                        #   in Loop: Header=BB6_18 Depth=1
	movq	32(%r15), %rsi
	callq	reg_mentioned_p
	testq	%r13, %rax
	movq	%r13, %rax
                                        # kill: R13<def> RAX<kill>
	jne	.LBB6_44
# BB#31:                                # %lor.lhs.false128.land.lhs.true137_crit_edge
                                        #   in Loop: Header=BB6_18 Depth=1
	movq	8(%r14), %rdi
.LBB6_32:                               # %land.lhs.true137
                                        #   in Loop: Header=BB6_18 Depth=1
	movq	%r15, %rsi
	movq	%r12, %rdx
	callq	reg_used_between_p
	testq	%r13, %rax
	movq	%r13, %rax
	jne	.LBB6_33
# BB#36:                                # %land.lhs.true143
                                        #   in Loop: Header=BB6_18 Depth=1
	movq	16(%r14), %rdi
	movq	%r15, %rsi
	movq	%rax, %r13
	callq	modified_in_p
	testq	%r13, %rax
	movq	%r13, %rax
	jne	.LBB6_37
# BB#38:                                # %land.lhs.true149
                                        #   in Loop: Header=BB6_18 Depth=1
	movq	16(%r14), %rdi
	movq	%r15, %rsi
	movq	%r12, %rdx
	movq	%rax, %r14
	callq	modified_between_p
	testq	%r14, %rax
	movq	%r14, %r13
	jne	.LBB6_44
.LBB6_39:                               # %if.then155
                                        #   in Loop: Header=BB6_18 Depth=1
	movq	16(%r12), %rax
	testq	%rax, %rax
	movq	%rbx, %r14
	je	.LBB6_41
# BB#40:                                # %if.then160
                                        #   in Loop: Header=BB6_18 Depth=1
	movq	%rbx, 24(%rax)
	movq	%r15, %r14
.LBB6_41:                               # %if.end168
                                        #   in Loop: Header=BB6_18 Depth=1
	testq	%rbx, %rbx
	je	.LBB6_43
# BB#42:                                # %if.then170
                                        #   in Loop: Header=BB6_18 Depth=1
	movq	16(%r12), %rax
	movq	%rax, 16(%rbx)
.LBB6_43:                               # %if.end177
                                        #   in Loop: Header=BB6_18 Depth=1
	movq	%r12, %rdi
	callq	add_insn
	movq	%r14, %r15
	jmp	.LBB6_44
.LBB6_33:                               #   in Loop: Header=BB6_18 Depth=1
	movq	%rax, %r13
	jmp	.LBB6_44
.LBB6_37:                               #   in Loop: Header=BB6_18 Depth=1
	movq	%rax, %r13
	.align	16, 0x90
.LBB6_44:                               # %for.cond59.backedge
                                        #   in Loop: Header=BB6_18 Depth=1
	testq	%rbx, %rbx
	jne	.LBB6_18
# BB#45:                                # %for.end180
	callq	get_last_insn
	movq	%rax, %r14
	testq	%r15, %r15
	je	.LBB6_47
	.align	16, 0x90
.LBB6_46:                               # %for.body184
                                        # =>This Inner Loop Header: Depth=1
	movq	24(%r15), %rbx
	movq	%r15, %rdi
	callq	add_insn
	testq	%rbx, %rbx
	movq	%rbx, %r15
	jne	.LBB6_46
.LBB6_47:
	movq	(%rsp), %rbx            # 8-byte Reload
	jmp	.LBB6_48
.LBB6_60:                               # %for.end180.thread
	callq	get_last_insn
	movq	%rax, %r14
.LBB6_48:                               # %for.end189
	movq	%rbx, %rdi
	movq	8(%rsp), %rsi           # 8-byte Reload
	callq	emit_move_insn
	movzbl	2(%rbx), %edx
	movq	optab_table+240(%rip), %rsi
	movq	$4, %rcx
	shlq	%cl, %rdx
	movl	8(%rsi,%rdx), %ecx
	movq	%rax, %r15
	cmpq	$1317, %rcx             # imm = 0x525
	jne	.LBB6_49
# BB#50:                                # %if.else201
	movq	$4, %rsi
	xorq	%rdx, %rdx
	movq	%r15, %rdi
	callq	find_reg_note
	movq	%r15, %rdi
	movq	%rax, %rsi
	callq	remove_note
	jmp	.LBB6_51
.LBB6_49:                               # %if.then198
	movq	24(%rsp), %rdi          # 8-byte Reload
	callq	copy_rtx
	movq	$4, %rsi
	movq	%r15, %rdi
	movq	%rax, %rdx
	callq	set_unique_reg_note
.LBB6_51:                               # %if.end203
	movq	16(%rsp), %rdi          # 8-byte Reload
	cmpq	%rdi, %rbx
	je	.LBB6_53
# BB#52:                                # %if.then206
	movq	%rbx, %rsi
	callq	emit_move_insn
.LBB6_53:                               # %if.end208
	testq	%r14, %r14
	je	.LBB6_54
# BB#55:                                # %if.else213
	movq	24(%r14), %rbx
	jmp	.LBB6_56
.LBB6_54:                               # %if.then211
	callq	get_insns
	movq	%rax, %rbx
.LBB6_56:                               # %if.end217
	movl	flag_non_call_exceptions(%rip), %eax
	testq	%rax, %rax
	je	.LBB6_58
# BB#57:                                # %lor.lhs.false219
	movq	24(%rsp), %rdi          # 8-byte Reload
	callq	may_trap_p
	movabsq	$4294967295, %rcx       # imm = 0xFFFFFFFF
	testq	%rcx, %rax
	jne	.LBB6_59
.LBB6_58:                               # %if.then222
	movq	56(%rbx), %rcx
	movq	$4, %rdi
	movq	$7, %rsi
	movq	%r15, %rdx
	callq	gen_rtx_fmt_ue
	movq	%rax, 56(%rbx)
	movq	56(%r15), %rcx
	movq	$4, %rdi
	movq	$6, %rsi
	movq	%rbx, %rdx
	callq	gen_rtx_fmt_ue
	movq	%rax, 56(%r15)
.LBB6_59:                               # %if.end237
	addq	$32, %rsp
	popq	%rbx
	popq	%r12
	popq	%r13
	popq	%r14
	popq	%r15
	retq
.Ltmp103:
	.size	emit_libcall_block, .Ltmp103-emit_libcall_block
	.cfi_endproc

	.globl	sign_expand_binop
	.align	16, 0x90
	.type	sign_expand_binop,@function
sign_expand_binop:                      # @sign_expand_binop
	.cfi_startproc
# BB#0:                                 # %entry
	pushq	%r15
.Ltmp110:
	.cfi_def_cfa_offset 16
	pushq	%r14
.Ltmp111:
	.cfi_def_cfa_offset 24
	pushq	%r13
.Ltmp112:
	.cfi_def_cfa_offset 32
	pushq	%r12
.Ltmp113:
	.cfi_def_cfa_offset 40
	pushq	%rbx
.Ltmp114:
	.cfi_def_cfa_offset 48
	subq	$992, %rsp              # imm = 0x3E0
.Ltmp115:
	.cfi_def_cfa_offset 1040
.Ltmp116:
	.cfi_offset %rbx, -48
.Ltmp117:
	.cfi_offset %r12, -40
.Ltmp118:
	.cfi_offset %r13, -32
.Ltmp119:
	.cfi_offset %r14, -24
.Ltmp120:
	.cfi_offset %r15, -16
	movq	1040(%rsp), %r10
	movq	%r9, 32(%rsp)           # 8-byte Spill
	movq	%r8, 24(%rsp)           # 8-byte Spill
	movq	%rcx, %r14
	movq	%rdx, %r15
	movq	%rsi, 16(%rsp)          # 8-byte Spill
	movq	%rdi, %rbx
	movabsq	$4294967295, %rax       # imm = 0xFFFFFFFF
	testq	%rax, %r10
	movq	%rsi, %r13
	jne	.LBB7_2
# BB#1:                                 # %entry
	movq	%r15, %r13
.LBB7_2:                                # %entry
	movq	$0, (%rsp)
	movq	%rbx, %rdi
	movq	%r13, %rsi
	movq	%r14, %rdx
	movq	24(%rsp), %rcx          # 8-byte Reload
	movq	32(%rsp), %r8           # 8-byte Reload
	movq	%r10, %r9
	callq	expand_binop
	testq	%rax, %rax
	jne	.LBB7_17
# BB#3:                                 # %entry
	movq	1048(%rsp), %rcx
	movabsq	$4294967295, %rdx       # imm = 0xFFFFFFFF
	testq	%rdx, %rcx
	je	.LBB7_17
# BB#4:                                 # %if.end
	leaq	40(%rsp), %rdi
	movq	$952, %rdx              # imm = 0x3B8
	movq	%rdi, %r12
	movq	%r15, %rsi
	callq	memcpy
	movq	$32, %rcx
	movq	%rbx, %rdi
	movq	%rdi, 8(%rsp)           # 8-byte Spill
	movq	%rdi, %rax
	shlq	%cl, %rax
	movq	$32, %rcx
	sarq	%cl, %rax
	movq	$4, %rcx
	shlq	%cl, %rax
	movq	$1317, %rcx             # imm = 0x525
	movl	%ecx, 48(%rsp,%rax)
	movq	$0, 56(%rsp,%rax)
	movq	$2, (%rsp)
	movq	%r12, %rsi
	movq	%r14, %r15
	movq	%r15, %rdx
	movq	24(%rsp), %rcx          # 8-byte Reload
	movq	32(%rsp), %r8           # 8-byte Reload
	movq	1040(%rsp), %rbx
	movq	%rbx, %r9
	callq	expand_binop
	testq	%rax, %rax
	jne	.LBB7_7
# BB#5:                                 # %if.end
	movabsq	$4294967295, %rcx       # imm = 0xFFFFFFFF
	testq	%rcx, %rbx
	je	.LBB7_7
# BB#6:                                 # %if.then8
	movq	$2, (%rsp)
	movq	8(%rsp), %rdi           # 8-byte Reload
	movq	16(%rsp), %rsi          # 8-byte Reload
	movq	%r15, %rdx
	movq	24(%rsp), %rcx          # 8-byte Reload
	movq	32(%rsp), %r8           # 8-byte Reload
	movq	%rbx, %r9
	callq	expand_binop
.LBB7_7:                                # %if.end10
	testq	%rax, %rax
	jne	.LBB7_17
# BB#8:                                 # %if.end10
	movq	%r15, %rdx
	movq	%rbx, %r15
	movq	1048(%rsp), %rbx
	movabsq	$4294967295, %rcx       # imm = 0xFFFFFFFF
	andq	%rcx, %rbx
	cmpq	$2, %rbx
	je	.LBB7_17
# BB#9:                                 # %if.end15
	movq	$1, (%rsp)
	movq	8(%rsp), %r14           # 8-byte Reload
	movq	%r14, %rdi
	movq	%r13, %rsi
	movq	%rdx, %r12
                                        # kill: RDX<def> R12<kill>
	movq	24(%rsp), %rcx          # 8-byte Reload
	movq	32(%rsp), %r8           # 8-byte Reload
	movq	%r15, %r9
	callq	expand_binop
	testq	%rax, %rax
	jne	.LBB7_17
# BB#10:                                # %if.end15
	cmpq	$1, %rbx
	je	.LBB7_17
# BB#11:                                # %if.end21
	leaq	40(%rsp), %rsi
	movq	1048(%rsp), %rax
	movq	%rax, (%rsp)
	movq	%r14, %rdi
	movq	%r12, %rdx
	movq	24(%rsp), %rcx          # 8-byte Reload
	movq	32(%rsp), %r8           # 8-byte Reload
	movq	%r15, %rbx
	movq	%rbx, %r9
	callq	expand_binop
	movabsq	$4294967295, %rcx       # imm = 0xFFFFFFFF
	movq	%r14, %rdi
	movq	%r12, %rdx
	movq	%rbx, %r9
	testq	%rcx, %rbx
	jne	.LBB7_12
# BB#13:                                # %if.end21
	movabsq	$1, %rcx
	jmp	.LBB7_14
.LBB7_12:
	movabsq	$0, %rcx
.LBB7_14:                               # %if.end21
	testq	%rax, %rax
	jne	.LBB7_17
# BB#15:                                # %if.end21
	testq	%rcx, %rcx
	jne	.LBB7_17
# BB#16:                                # %if.then27
	movq	1048(%rsp), %rax
	movq	%rax, (%rsp)
	movq	16(%rsp), %rsi          # 8-byte Reload
	movq	24(%rsp), %rcx          # 8-byte Reload
	movq	32(%rsp), %r8           # 8-byte Reload
	callq	expand_binop
.LBB7_17:                               # %cleanup
	addq	$992, %rsp              # imm = 0x3E0
	popq	%rbx
	popq	%r12
	popq	%r13
	popq	%r14
	popq	%r15
	retq
.Ltmp121:
	.size	sign_expand_binop, .Ltmp121-sign_expand_binop
	.cfi_endproc

	.globl	expand_twoval_binop
	.align	16, 0x90
	.type	expand_twoval_binop,@function
expand_twoval_binop:                    # @expand_twoval_binop
	.cfi_startproc
# BB#0:                                 # %entry
	pushq	%r15
.Ltmp128:
	.cfi_def_cfa_offset 16
	pushq	%r14
.Ltmp129:
	.cfi_def_cfa_offset 24
	pushq	%r13
.Ltmp130:
	.cfi_def_cfa_offset 32
	pushq	%r12
.Ltmp131:
	.cfi_def_cfa_offset 40
	pushq	%rbx
.Ltmp132:
	.cfi_def_cfa_offset 48
	subq	$112, %rsp
.Ltmp133:
	.cfi_def_cfa_offset 160
.Ltmp134:
	.cfi_offset %rbx, -48
.Ltmp135:
	.cfi_offset %r12, -40
.Ltmp136:
	.cfi_offset %r13, -32
.Ltmp137:
	.cfi_offset %r14, -24
.Ltmp138:
	.cfi_offset %r15, -16
	movq	%r9, 72(%rsp)           # 8-byte Spill
	movq	%rcx, %r14
	movq	%rdx, %r12
	movq	%rsi, %rbx
	movq	%rdi, %r15
	movq	%r15, 64(%rsp)          # 8-byte Spill
	testq	%r14, %r14
	movq	%r14, %rax
	jne	.LBB8_2
# BB#1:                                 # %entry
	movq	%r8, %rax
.LBB8_2:                                # %entry
	movq	%r8, 80(%rsp)           # 8-byte Spill
	movzbl	2(%rax), %r13d
	callq	get_last_insn
	movq	%rax, 40(%rsp)          # 8-byte Spill
	xorq	%rsi, %rsi
	movq	%rbx, %rdi
	callq	protect_from_queue
	movq	%rax, %rbx
	xorq	%rsi, %rsi
	movq	%r12, %rdi
	callq	protect_from_queue
	movl	flag_force_mem(%rip), %ecx
	movq	%rax, %r12
	testq	%rcx, %rcx
	je	.LBB8_3
# BB#4:                                 # %if.then
	movq	%rbx, %rdi
	callq	force_not_mem
	movq	%rax, %rbx
	movq	%r12, %rdi
	callq	force_not_mem
	movq	%rax, 104(%rsp)         # 8-byte Spill
	jmp	.LBB8_5
.LBB8_3:
	movq	%r12, 104(%rsp)         # 8-byte Spill
.LBB8_5:                                # %if.end
	movq	%rbx, 96(%rsp)          # 8-byte Spill
	movzbl	(%rbx), %eax
	movq	%r13, %r12
	movl	mode_class(,%r12,4), %r13d
	cmpq	$133, %rax
	jg	.LBB8_8
# BB#6:                                 # %if.end
	addq	$-54, %rax
	movabsq	$4294967295, %rcx       # imm = 0xFFFFFFFF
	andq	%rax, %rcx
	cmpq	$14, %rcx
	ja	.LBB8_13
# BB#7:                                 # %if.end
	movq	$1, %rax
	shlq	%cl, %rax
	testq	$24599, %rax            # imm = 0x6017
	jne	.LBB8_10
	jmp	.LBB8_13
.LBB8_8:                                # %if.end
	cmpq	$134, %rax
	je	.LBB8_10
# BB#9:                                 # %if.end
	cmpq	$140, %rax
	jne	.LBB8_13
.LBB8_10:                               # %land.lhs.true
	callq	preserve_subexpressions_p
	movabsq	$4294967295, %rcx       # imm = 0xFFFFFFFF
	testq	%rcx, %rax
	je	.LBB8_13
# BB#11:                                # %land.lhs.true37
	movl	(%r15), %esi
	movq	96(%rsp), %rbx          # 8-byte Reload
	movq	%rbx, %rdi
	callq	rtx_cost
	movq	$32, %rcx
	shlq	%cl, %rax
	movq	$32, %rcx
	sarq	%cl, %rax
	cmpq	$5, %rax
	jl	.LBB8_13
# BB#12:                                # %if.then40
	movq	%r12, %rdi
	movq	%rbx, %rsi
	callq	force_reg
	movq	%rax, 96(%rsp)          # 8-byte Spill
.LBB8_13:                               # %if.end42
	movq	104(%rsp), %rax         # 8-byte Reload
	movzbl	(%rax), %eax
	cmpq	$133, %rax
	jg	.LBB8_16
# BB#14:                                # %if.end42
	addq	$-54, %rax
	movabsq	$4294967295, %rcx       # imm = 0xFFFFFFFF
	andq	%rax, %rcx
	cmpq	$14, %rcx
	ja	.LBB8_21
# BB#15:                                # %if.end42
	movq	$1, %rax
	shlq	%cl, %rax
	testq	$24599, %rax            # imm = 0x6017
	jne	.LBB8_18
	jmp	.LBB8_21
.LBB8_16:                               # %if.end42
	cmpq	$134, %rax
	je	.LBB8_18
# BB#17:                                # %if.end42
	cmpq	$140, %rax
	jne	.LBB8_21
.LBB8_18:                               # %land.lhs.true74
	callq	preserve_subexpressions_p
	movabsq	$4294967295, %rcx       # imm = 0xFFFFFFFF
	testq	%rcx, %rax
	je	.LBB8_21
# BB#19:                                # %land.lhs.true77
	movl	(%r15), %esi
	movq	104(%rsp), %rbx         # 8-byte Reload
	movq	%rbx, %rdi
	callq	rtx_cost
	movq	$32, %rcx
	shlq	%cl, %rax
	movq	$32, %rcx
	sarq	%cl, %rax
	cmpq	$5, %rax
	jl	.LBB8_21
# BB#20:                                # %if.then81
	movq	%r12, %rdi
	movq	%rbx, %rsi
	callq	force_reg
	movq	%rax, 104(%rsp)         # 8-byte Spill
.LBB8_21:                               # %if.end83
	testq	%r14, %r14
	je	.LBB8_23
# BB#22:                                # %if.then85
	movq	$1, %rsi
	movq	%r14, %rdi
	callq	protect_from_queue
	jmp	.LBB8_24
.LBB8_23:                               # %if.else
	movq	%r12, %rdi
	callq	gen_reg_rtx
.LBB8_24:                               # %if.end88
	movq	%rax, 48(%rsp)          # 8-byte Spill
	movq	80(%rsp), %rdi          # 8-byte Reload
	testq	%rdi, %rdi
	je	.LBB8_26
# BB#25:                                # %if.then90
	movq	$1, %rsi
	callq	protect_from_queue
	jmp	.LBB8_27
.LBB8_26:                               # %if.else92
	movq	%r12, %rdi
	callq	gen_reg_rtx
.LBB8_27:                               # %if.end94
	movq	%rax, 32(%rsp)          # 8-byte Spill
	callq	get_last_insn
	movq	$4, %rcx
	movq	%r12, %rdx
	movq	%r12, 88(%rsp)          # 8-byte Spill
	shlq	%cl, %rdx
	movslq	8(%r15,%rdx), %rcx
	movq	%rax, 56(%rsp)          # 8-byte Spill
	cmpq	$1317, %rcx             # imm = 0x525
	je	.LBB8_46
# BB#28:                                # %if.then99
	movq	%r13, 8(%rsp)           # 8-byte Spill
	leaq	(%rcx,%rcx,4), %rax
	movq	%rax, 24(%rsp)          # 8-byte Spill
	movq	insn_data+24(,%rax,8), %r15
	movzbl	40(%r15), %r12d
	movq	96(%rsp), %rsi          # 8-byte Reload
	movzbl	2(%rsi), %eax
	movzbl	64(%r15), %ecx
	movq	%rcx, 80(%rsp)          # 8-byte Spill
	testq	%rax, %rax
	movq	%rsi, %rbx
	je	.LBB8_31
# BB#29:                                # %if.then99
	cmpq	%r12, %rax
	movq	%rsi, %rbx
	je	.LBB8_31
# BB#30:                                # %if.then125
	movq	%r12, %rdi
	movq	72(%rsp), %rdx          # 8-byte Reload
	callq	convert_to_mode
	movq	%rax, %rbx
.LBB8_31:                               # %if.end127
	movq	104(%rsp), %rsi         # 8-byte Reload
	movzbl	2(%rsi), %eax
	testq	%rax, %rax
	movq	%rsi, %r13
	je	.LBB8_34
# BB#32:                                # %if.end127
	movq	80(%rsp), %rcx          # 8-byte Reload
	cmpq	%rcx, %rax
	movq	%rsi, %r13
	je	.LBB8_34
# BB#33:                                # %if.then137
	movq	80(%rsp), %rdi          # 8-byte Reload
	movq	72(%rsp), %rdx          # 8-byte Reload
	callq	convert_to_mode
	movq	%rax, %r13
.LBB8_34:                               # %if.end139
	movq	%rbx, %rdi
	movq	%r12, %rsi
	callq	*24(%r15)
	movq	%rbx, %rsi
	movq	%r12, %rdi
	movabsq	$4294967295, %r12       # imm = 0xFFFFFFFF
	testq	%r12, %rax
	je	.LBB8_36
# BB#35:
	movq	%rsi, 16(%rsp)          # 8-byte Spill
	jmp	.LBB8_37
.LBB8_36:                               # %if.then146
	callq	copy_to_mode_reg
	movq	%rax, 16(%rsp)          # 8-byte Spill
.LBB8_37:                               # %if.end148
	movq	80(%rsp), %rbx          # 8-byte Reload
	movq	%r13, %rdi
	movq	%rbx, %rsi
	callq	*48(%r15)
	testq	%r12, %rax
	jne	.LBB8_39
# BB#38:                                # %if.then156
	movq	%rbx, %rdi
	movq	%r13, %rsi
	callq	copy_to_mode_reg
	movq	%rax, %r13
.LBB8_39:                               # %if.end158
	movq	48(%rsp), %rdi          # 8-byte Reload
	movq	88(%rsp), %r14          # 8-byte Reload
	movq	%r14, %rsi
	callq	*(%r15)
	testq	%r12, %rax
	movq	32(%rsp), %rbx          # 8-byte Reload
	je	.LBB8_56
# BB#40:                                # %lor.lhs.false166
	movq	%rbx, %rdi
	movq	%r14, %rsi
	callq	*72(%r15)
	testq	%r12, %rax
	je	.LBB8_56
# BB#41:                                # %if.end175
	xorq	%rax, %rax
	movq	48(%rsp), %rdi          # 8-byte Reload
	movq	16(%rsp), %rsi          # 8-byte Reload
	movq	%r13, %rdx
	movq	%rbx, %rcx
	movq	24(%rsp), %rbx          # 8-byte Reload
	callq	*insn_data+16(,%rbx,8)
	testq	%rax, %rax
	je	.LBB8_45
# BB#42:                                # %if.then180
	movq	%rax, %rdi
	callq	emit_insn
.LBB8_43:                               # %return
	movq	$1, %rax
	jmp	.LBB8_44
.LBB8_45:                               # %if.else182
	movq	56(%rsp), %rdi          # 8-byte Reload
	callq	delete_insns_since
	movq	64(%rsp), %r15          # 8-byte Reload
	movq	8(%rsp), %r13           # 8-byte Reload
.LBB8_46:                               # %if.end184
	movabsq	$4294967295, %rax       # imm = 0xFFFFFFFF
	andq	%rax, %r13
	cmpq	$6, %r13
	ja	.LBB8_52
# BB#47:                                # %if.end184
	movq	$1, %rax
	movq	%r13, %rcx
	shlq	%cl, %rax
	testq	$70, %rax
	je	.LBB8_52
# BB#48:                                # %for.cond.preheader
	movq	88(%rsp), %rax          # 8-byte Reload
	movzbl	mode_wider_mode(%rax), %ebx
	jmp	.LBB8_49
	.align	16, 0x90
.LBB8_51:                               # %for.cond.backedge
                                        #   in Loop: Header=BB8_49 Depth=1
	movzbl	mode_wider_mode(%rbx), %ebx
.LBB8_49:                               # %for.cond.preheader
                                        # =>This Inner Loop Header: Depth=1
	testq	%rbx, %rbx
	je	.LBB8_52
# BB#50:                                # %for.body
                                        #   in Loop: Header=BB8_49 Depth=1
	andq	$255, %rbx
	movq	$4, %rcx
	movq	%rbx, %rax
	shlq	%cl, %rax
	movl	8(%r15,%rax), %eax
	cmpq	$1317, %rax             # imm = 0x525
	je	.LBB8_51
# BB#53:                                # %if.then201
                                        #   in Loop: Header=BB8_49 Depth=1
	movq	%rbx, %rdi
	callq	gen_reg_rtx
	movq	%rax, %r12
	movq	%rbx, %rdi
	callq	gen_reg_rtx
	movq	%rax, %r14
	movq	%rbx, %rdi
	movq	88(%rsp), %r13          # 8-byte Reload
	movq	%r13, %rsi
	movq	96(%rsp), %rdx          # 8-byte Reload
	movq	72(%rsp), %r15          # 8-byte Reload
	movq	%r15, %rcx
	callq	convert_modes
	movq	%rax, 80(%rsp)          # 8-byte Spill
	movq	%rbx, %rdi
	movq	%r13, %rsi
	movq	104(%rsp), %rdx         # 8-byte Reload
	movq	%r15, %rcx
	callq	convert_modes
	movq	64(%rsp), %rdi          # 8-byte Reload
	movq	%rdi, %r13
	movq	80(%rsp), %rsi          # 8-byte Reload
	movq	%rax, %rdx
	movq	%r12, %rcx
	movq	%r14, %r8
	movq	%r15, %r9
	callq	expand_twoval_binop
	movabsq	$4294967295, %rcx       # imm = 0xFFFFFFFF
	testq	%rcx, %rax
	jne	.LBB8_54
# BB#55:                                # %if.else209
                                        #   in Loop: Header=BB8_49 Depth=1
	movq	56(%rsp), %rdi          # 8-byte Reload
	callq	delete_insns_since
	movq	%r13, %r15
	movzbl	mode_wider_mode(%rbx), %ebx
	jmp	.LBB8_49
.LBB8_52:                               # %if.end215
	movq	40(%rsp), %rdi          # 8-byte Reload
	callq	delete_insns_since
	xorq	%rax, %rax
.LBB8_44:                               # %return
	addq	$112, %rsp
	popq	%rbx
	popq	%r12
	popq	%r13
	popq	%r14
	popq	%r15
	retq
.LBB8_54:                               # %if.then208
	movq	48(%rsp), %rdi          # 8-byte Reload
	movq	%r12, %rsi
	movq	72(%rsp), %rbx          # 8-byte Reload
	movq	%rbx, %rdx
	callq	convert_move
	movq	32(%rsp), %rdi          # 8-byte Reload
	movq	%r14, %rsi
	movq	%rbx, %rdx
	callq	convert_move
	jmp	.LBB8_43
.LBB8_56:                               # %if.then174
	movabsq	$.L.str, %rax
	movabsq	$.L__FUNCTION__.expand_twoval_binop, %rcx
	movq	$1998, %rsi             # imm = 0x7CE
	movq	%rax, %rdi
	movq	%rcx, %rdx
	callq	fancy_abort
.Ltmp139:
	.size	expand_twoval_binop, .Ltmp139-expand_twoval_binop
	.cfi_endproc

	.globl	expand_simple_unop
	.align	16, 0x90
	.type	expand_simple_unop,@function
expand_simple_unop:                     # @expand_simple_unop
	.cfi_startproc
# BB#0:                                 # %entry
	pushq	%rax
.Ltmp141:
	.cfi_def_cfa_offset 16
	movq	%rcx, %rax
	movq	$32, %rcx
	shlq	%cl, %rsi
	movq	$32, %rcx
	sarq	%cl, %rsi
	movq	code_to_optab(,%rsi,8), %rsi
	testq	%rsi, %rsi
	je	.LBB9_1
# BB#2:                                 # %if.end
	movq	%rax, %rcx
	popq	%rax
	jmp	expand_unop  # TAILCALL
.LBB9_1:                                # %if.then
	movabsq	$.L.str, %rax
	movabsq	$.L__FUNCTION__.expand_simple_unop, %rcx
	movq	$2055, %rsi             # imm = 0x807
	movq	%rax, %rdi
	movq	%rcx, %rdx
	callq	fancy_abort
.Ltmp142:
	.size	expand_simple_unop, .Ltmp142-expand_simple_unop
	.cfi_endproc

	.globl	expand_abs
	.align	16, 0x90
	.type	expand_abs,@function
expand_abs:                             # @expand_abs
	.cfi_startproc
# BB#0:                                 # %entry
	pushq	%r15
.Ltmp149:
	.cfi_def_cfa_offset 16
	pushq	%r14
.Ltmp150:
	.cfi_def_cfa_offset 24
	pushq	%r13
.Ltmp151:
	.cfi_def_cfa_offset 32
	pushq	%r12
.Ltmp152:
	.cfi_def_cfa_offset 40
	pushq	%rbx
.Ltmp153:
	.cfi_def_cfa_offset 48
	subq	$32, %rsp
.Ltmp154:
	.cfi_def_cfa_offset 80
.Ltmp155:
	.cfi_offset %rbx, -48
.Ltmp156:
	.cfi_offset %r12, -40
.Ltmp157:
	.cfi_offset %r13, -32
.Ltmp158:
	.cfi_offset %r14, -24
.Ltmp159:
	.cfi_offset %r15, -16
	movl	flag_trapv(%rip), %eax
	movq	%r8, 24(%rsp)           # 8-byte Spill
	movq	%rdx, %rbx
	movq	%rsi, %r15
	movq	%rdi, %r14
	testq	%rax, %rax
	movabsq	$0, %rax
	movabsq	$1, %rdx
	movq	%rax, %r12
	jne	.LBB10_2
# BB#1:                                 # %entry
	movq	%rdx, %r12
.LBB10_2:                               # %entry
	movabsq	$4294967295, %rsi       # imm = 0xFFFFFFFF
	testq	%rsi, %rcx
	je	.LBB10_4
# BB#3:                                 # %entry
	movq	%rdx, %rax
.LBB10_4:                               # %entry
	orq	%rax, %r12
	jne	.LBB10_5
# BB#6:                                 # %entry
	movabsq	$optab_table+280, %rax
	jmp	.LBB10_7
.LBB10_5:
	movabsq	$optab_table+272, %rax
.LBB10_7:                               # %entry
	movq	(%rax), %rsi
	xorq	%r8, %r8
	movq	%r14, %rdi
	movq	%r15, %rdx
	movq	%rbx, %rcx
	callq	expand_unop
	testq	%rax, %rax
	jne	.LBB10_45
# BB#8:                                 # %if.end3
	movq	$32, %rcx
	movq	%r14, %r13
	shlq	%cl, %r13
	movq	$32, %rcx
	movq	optab_table+216(%rip), %rax
	sarq	%cl, %r13
	movq	$4, %rcx
	movq	%r13, %rdx
	shlq	%cl, %rdx
	movl	8(%rax,%rdx), %eax
	cmpq	$1317, %rax             # imm = 0x525
	je	.LBB10_12
# BB#9:                                 # %if.then5
	callq	get_last_insn
	movq	optab_table+256(%rip), %rsi
	movq	%rax, 16(%rsp)          # 8-byte Spill
	xorq	%rcx, %rcx
	xorq	%r8, %r8
	movq	%r14, %rdi
	movq	%r15, %rdx
	callq	expand_unop
	testq	%rax, %rax
	je	.LBB10_11
# BB#10:                                # %if.end11
	movq	optab_table+216(%rip), %rsi
	xorq	%r9, %r9
	movq	$2, (%rsp)
	movq	%r14, %rdi
	movq	%r15, %rdx
	movq	%rax, %rcx
	movq	%rbx, %r8
	callq	expand_binop
	testq	%rax, %rax
	jne	.LBB10_45
.LBB10_11:                              # %if.end14
	movq	16(%rsp), %rdi          # 8-byte Reload
	callq	delete_insns_since
.LBB10_12:                              # %if.end15
	movl	mode_class(,%r13,4), %eax
	cmpq	$1, %rax
	jne	.LBB10_19
# BB#13:                                # %if.end15
	movl	ix86_branch_cost(%rip), %eax
	movq	$32, %rcx
	shlq	%cl, %rax
	movq	$32, %rcx
	sarq	%cl, %rax
	cmpq	$2, %rax
	jl	.LBB10_19
# BB#14:                                # %if.then20
	movzbl	mode_bitsize(%r13,%r13), %edi
	decq	%rdi
	xorq	%rsi, %rsi
	callq	size_int_wide
	movq	$83, %rdi
	xorq	%r8, %r8
	xorq	%r9, %r9
	movq	%r14, %rsi
	movq	%r15, %rdx
	movq	%rax, %rcx
	callq	expand_shift
	movq	optab_table+160(%rip), %rsi
	movq	%rax, 16(%rsp)          # 8-byte Spill
	xorq	%r9, %r9
	movq	$3, (%rsp)
	movq	%r14, %rdi
	movq	%rax, %rdx
	movq	%r15, %rcx
	movq	%rbx, %r8
	callq	expand_binop
	testq	%rax, %rax
	je	.LBB10_19
# BB#15:                                # %if.end36
	testq	$1, %r12
	jne	.LBB10_16
# BB#17:                                # %if.end36
	movabsq	$optab_table+24, %rcx
	jmp	.LBB10_18
.LBB10_16:
	movabsq	$optab_table+16, %rcx
.LBB10_18:                              # %if.end36
	movq	(%rcx), %rsi
	xorq	%r9, %r9
	movq	$3, (%rsp)
	movq	%r14, %rdi
	movq	%rax, %rdx
	movq	16(%rsp), %rcx          # 8-byte Reload
	movq	%rbx, %r8
	callq	expand_binop
	testq	%rax, %rax
	jne	.LBB10_45
.LBB10_19:                              # %if.end41
	cmpq	%rbx, %r15
	jne	.LBB10_24
# BB#20:                                # %land.lhs.true44
	movzbl	(%r15), %eax
	cmpq	$61, %rax
	jne	.LBB10_24
# BB#21:                                # %land.lhs.true47
	movl	8(%r15), %eax
	cmpq	$52, %rax
	movq	$1, %rax
	ja	.LBB10_23
# BB#22:                                # %select.mid
	movq	24(%rsp), %rax          # 8-byte Reload
.LBB10_23:                              # %select.end
	movq	%rax, 24(%rsp)          # 8-byte Spill
.LBB10_24:                              # %if.end52
	callq	gen_label_rtx
	movq	%rax, 16(%rsp)          # 8-byte Spill
	testq	%rbx, %rbx
	movabsq	$4294967295, %rsi       # imm = 0xFFFFFFFF
	je	.LBB10_30
# BB#25:                                # %if.end52
	movq	24(%rsp), %rax          # 8-byte Reload
	testq	%rsi, %rax
	je	.LBB10_30
# BB#26:                                # %lor.lhs.false57
	movl	(%rbx), %eax
	movq	$16, %rcx
	movq	%rax, %rdx
	shrq	%cl, %rdx
	andq	$255, %rdx
	movq	%r14, %rcx
	andq	%rsi, %rcx
	cmpq	%rcx, %rdx
	jne	.LBB10_30
# BB#27:                                # %lor.lhs.false57
	movq	%rax, %rcx
	andq	$134283263, %rcx        # imm = 0x800FFFF
	andq	%rsi, %rcx
	cmpq	$134217794, %rcx        # imm = 0x8000042
	je	.LBB10_30
# BB#28:                                # %lor.lhs.false72
	andq	$65535, %rax            # imm = 0xFFFF
	cmpq	$61, %rax
	jne	.LBB10_31
# BB#29:                                # %land.lhs.true77
	movl	8(%rbx), %eax
	cmpq	$52, %rax
	ja	.LBB10_31
.LBB10_30:                              # %if.then83
	movq	%r14, %rdi
	callq	gen_reg_rtx
	movq	%rax, %rbx
.LBB10_31:                              # %if.end85
	movq	%rbx, %rdi
	movq	%r15, %rsi
	callq	emit_move_insn
	movq	cfun(%rip), %rax
	movq	16(%rax), %rax
	movl	4(%rax), %ecx
	incq	%rcx
	movl	mode_class(,%r13,4), %edx
	cmpq	$1, %rdx
	movl	%ecx, 4(%rax)
	jne	.LBB10_38
# BB#32:                                # %land.lhs.true91
	movq	optab_table+328(%rip), %rax
	movq	optab_table+360(%rip), %rdx
	movq	%r14, %rsi
	.align	16, 0x90
.LBB10_33:                              # %do.body.i
                                        # =>This Inner Loop Header: Depth=1
	movq	$32, %rcx
	shlq	%cl, %rsi
	movq	$32, %rcx
	sarq	%cl, %rsi
	movq	$4, %rcx
	movq	%rsi, %rdi
	shlq	%cl, %rdi
	movl	8(%rax,%rdi), %ecx
	cmpq	$1317, %rcx             # imm = 0x525
	jne	.LBB10_36
# BB#34:                                # %if.end.i
                                        #   in Loop: Header=BB10_33 Depth=1
	movq	$4, %rcx
	movq	%rsi, %rdi
	shlq	%cl, %rdi
	movl	8(%rdx,%rdi), %ecx
	cmpq	$1317, %rcx             # imm = 0x525
	jne	.LBB10_38
# BB#35:                                # %if.end45.i
                                        #   in Loop: Header=BB10_33 Depth=1
	movzbl	mode_wider_mode(%rsi), %esi
	testq	%rsi, %rsi
	jne	.LBB10_33
	jmp	.LBB10_37
.LBB10_36:                              # %can_compare_p.exit
	cmpq	$0, bcc_gen_fctn+832(%rip)
	je	.LBB10_37
.LBB10_38:                              # %if.else
	movq	const_tiny_rtx(,%r13,8), %rsi
	movq	16(%rsp), %r15          # 8-byte Reload
	movq	%r15, 8(%rsp)
	movq	$104, %rdx
	xorq	%rcx, %rcx
	xorq	%r9, %r9
	movq	$0, (%rsp)
	movq	%rbx, %rdi
	movq	%r14, %r8
	callq	do_compare_rtx_and_jump
	jmp	.LBB10_39
.LBB10_37:                              # %if.then94
	movq	const_int_rtx+512(%rip), %rcx
	xorq	%rsi, %rsi
	xorq	%r8, %r8
	movq	%r14, %rdi
	movq	%rbx, %rdx
	movq	16(%rsp), %r15          # 8-byte Reload
	movq	%r15, %r9
	callq	do_jump_by_parts_greater_rtx
.LBB10_39:                              # %if.end97
	testq	$1, %r12
	jne	.LBB10_40
# BB#41:                                # %if.end97
	movabsq	$optab_table+264, %rax
	jmp	.LBB10_42
.LBB10_40:
	movabsq	$optab_table+256, %rax
.LBB10_42:                              # %if.end97
	movq	(%rax), %rsi
	xorq	%r8, %r8
	movq	%r14, %rdi
	movq	%rbx, %rdx
	movq	%rbx, %rcx
	callq	expand_unop
	cmpq	%rbx, %rax
	je	.LBB10_44
# BB#43:                                # %if.then106
	movq	%rbx, %rdi
	movq	%rax, %rsi
	callq	emit_move_insn
.LBB10_44:                              # %if.end108
	movq	%r15, %rdi
	callq	emit_label
	movq	cfun(%rip), %rax
	movq	16(%rax), %rax
	movl	4(%rax), %ecx
	decq	%rcx
	movl	%ecx, 4(%rax)
	movq	%rbx, %rax
.LBB10_45:                              # %return
	addq	$32, %rsp
	popq	%rbx
	popq	%r12
	popq	%r13
	popq	%r14
	popq	%r15
	retq
.Ltmp160:
	.size	expand_abs, .Ltmp160-expand_abs
	.cfi_endproc

	.globl	can_compare_p
	.align	16, 0x90
	.type	can_compare_p,@function
can_compare_p:                          # @can_compare_p
	.cfi_startproc
# BB#0:                                 # %entry
	pushq	%rbx
.Ltmp163:
	.cfi_def_cfa_offset 16
.Ltmp164:
	.cfi_offset %rbx, -16
	movq	optab_table+328(%rip), %r9
	movq	optab_table+360(%rip), %r10
	movq	optab_table+368(%rip), %r11
	movq	optab_table+376(%rip), %rbx
	movabsq	$4294967295, %r8        # imm = 0xFFFFFFFF
	.align	16, 0x90
.LBB11_1:                               # %do.body
                                        # =>This Inner Loop Header: Depth=1
	movq	$32, %rcx
	shlq	%cl, %rsi
	movq	$32, %rcx
	sarq	%cl, %rsi
	movq	$4, %rcx
	movq	%rsi, %rax
	shlq	%cl, %rax
	movl	8(%r9,%rax), %eax
	cmpq	$1317, %rax             # imm = 0x525
	jne	.LBB11_2
# BB#10:                                # %if.end
                                        #   in Loop: Header=BB11_1 Depth=1
	testq	%r8, %rdx
	jne	.LBB11_12
# BB#11:                                # %land.lhs.true
                                        #   in Loop: Header=BB11_1 Depth=1
	movq	$4, %rcx
	movq	%rsi, %rax
	shlq	%cl, %rax
	movl	8(%r10,%rax), %eax
	jmp	.LBB11_16
	.align	16, 0x90
.LBB11_12:                              # %if.end23
                                        #   in Loop: Header=BB11_1 Depth=1
	movq	%rdx, %rax
	andq	%r8, %rax
	cmpq	$2, %rax
	jne	.LBB11_13
# BB#15:                                # %land.lhs.true37
                                        #   in Loop: Header=BB11_1 Depth=1
	movq	$4, %rcx
	movq	%rsi, %rax
	shlq	%cl, %rax
	movl	8(%rbx,%rax), %eax
	jmp	.LBB11_16
	.align	16, 0x90
.LBB11_13:                              # %if.end23
                                        #   in Loop: Header=BB11_1 Depth=1
	cmpq	$1, %rax
	jne	.LBB11_17
# BB#14:                                # %land.lhs.true26
                                        #   in Loop: Header=BB11_1 Depth=1
	movq	$4, %rcx
	movq	%rsi, %rax
	shlq	%cl, %rax
	movl	8(%r11,%rax), %eax
	.align	16, 0x90
.LBB11_16:                              # %land.lhs.true37
                                        #   in Loop: Header=BB11_1 Depth=1
	cmpq	$1317, %rax             # imm = 0x525
	movq	$1, %rax
	jne	.LBB11_18
.LBB11_17:                              # %if.end45
                                        #   in Loop: Header=BB11_1 Depth=1
	movzbl	mode_wider_mode(%rsi), %esi
	xorq	%rax, %rax
	testq	%rsi, %rsi
	jne	.LBB11_1
	jmp	.LBB11_18
.LBB11_2:                               # %if.then
	testq	%r8, %rdx
	je	.LBB11_3
# BB#6:                                 # %if.else
	andq	%r8, %rdx
	movq	$1, %rax
	cmpq	$2, %rdx
	jne	.LBB11_18
# BB#7:                                 # %if.then8
	movq	$32, %rcx
	shlq	%cl, %rdi
	movq	$32, %rcx
	sarq	%cl, %rdi
	movl	setcc_gen_code(,%rdi,4), %eax
	cmpq	$1317, %rax             # imm = 0x525
	je	.LBB11_8
# BB#9:                                 # %if.then8
	movabsq	$1, %rax
	popq	%rbx
	retq
.LBB11_18:                              # %return
	popq	%rbx
	retq
.LBB11_3:                               # %if.then2
	movq	$32, %rcx
	shlq	%cl, %rdi
	movq	$32, %rcx
	sarq	%cl, %rdi
	cmpq	$0, bcc_gen_fctn(,%rdi,8)
	je	.LBB11_4
# BB#5:                                 # %if.then2
	movabsq	$1, %rax
	popq	%rbx
	retq
.LBB11_4:
	movabsq	$0, %rax
	popq	%rbx
	retq
.LBB11_8:
	movabsq	$0, %rax
	popq	%rbx
	retq
.Ltmp165:
	.size	can_compare_p, .Ltmp165-can_compare_p
	.cfi_endproc

	.globl	expand_complex_abs
	.align	16, 0x90
	.type	expand_complex_abs,@function
expand_complex_abs:                     # @expand_complex_abs
	.cfi_startproc
# BB#0:                                 # %entry
	pushq	%r15
.Ltmp172:
	.cfi_def_cfa_offset 16
	pushq	%r14
.Ltmp173:
	.cfi_def_cfa_offset 24
	pushq	%r13
.Ltmp174:
	.cfi_def_cfa_offset 32
	pushq	%r12
.Ltmp175:
	.cfi_def_cfa_offset 40
	pushq	%rbx
.Ltmp176:
	.cfi_def_cfa_offset 48
	subq	$96, %rsp
.Ltmp177:
	.cfi_def_cfa_offset 144
.Ltmp178:
	.cfi_offset %rbx, -48
.Ltmp179:
	.cfi_offset %r12, -40
.Ltmp180:
	.cfi_offset %r13, -32
.Ltmp181:
	.cfi_offset %r14, -24
.Ltmp182:
	.cfi_offset %r15, -16
	movq	%rcx, %r12
	movq	%rdi, 80(%rsp)          # 8-byte Spill
	movq	$32, %rcx
	movq	%rdi, %rbx
	shlq	%cl, %rbx
	movq	$32, %rcx
	sarq	%cl, %rbx
	movl	mode_class(,%rbx,4), %r15d
	movq	%rdx, %r14
	movq	%rsi, %r13
	callq	get_last_insn
	movzbl	mode_unit_size(%rbx), %edi
	movq	%rax, 24(%rsp)          # 8-byte Spill
	movq	$3, %rcx
	shlq	%cl, %rdi
	cmpq	$5, %r15
	jne	.LBB12_1
# BB#2:                                 # %entry
	movabsq	$1, %rsi
	jmp	.LBB12_3
.LBB12_1:
	movabsq	$0, %rsi
.LBB12_3:                               # %entry
	xorq	$1, %rsi
	incq	%rsi
	xorq	%rdx, %rdx
	callq	mode_for_size
	movq	%rax, 56(%rsp)          # 8-byte Spill
	movabsq	$4294967295, %rcx       # imm = 0xFFFFFFFF
	andq	%rcx, %rax
	cmpq	$51, %rax
	je	.LBB12_64
# BB#4:                                 # %if.end
	xorq	%rsi, %rsi
	movq	$0, 64(%rsp)            # 8-byte Folded Spill
	movq	%r13, %rdi
	callq	protect_from_queue
	movl	flag_force_mem(%rip), %ecx
	testq	%rcx, %rcx
	je	.LBB12_6
# BB#5:                                 # %if.then8
	movq	%rax, %rdi
	callq	force_not_mem
.LBB12_6:                               # %if.end10
	movq	%rax, 88(%rsp)          # 8-byte Spill
	callq	get_last_insn
	movq	%rax, 72(%rsp)          # 8-byte Spill
	testq	%r14, %r14
	je	.LBB12_8
# BB#7:                                 # %if.then13
	movq	$1, %rsi
	movq	%r14, %rdi
	callq	protect_from_queue
	movq	%rax, 64(%rsp)          # 8-byte Spill
.LBB12_8:                               # %if.end15
	movabsq	$4294967295, %rax       # imm = 0xFFFFFFFF
	testq	%rax, %r12
	movabsq	$0, %rax
	movabsq	$1, %rdx
	movq	%rax, %rcx
	jne	.LBB12_10
# BB#9:                                 # %if.end15
	movq	%rdx, %rcx
.LBB12_10:                              # %if.end15
	movl	flag_trapv(%rip), %esi
	testq	%rsi, %rsi
	movq	%rax, %rsi
	je	.LBB12_12
# BB#11:                                # %if.end15
	movq	%rdx, %rsi
.LBB12_12:                              # %if.end15
	andq	%rsi, %rcx
	cmpq	$1, %r15
	jne	.LBB12_14
# BB#13:                                # %if.end15
	movq	%rdx, %rax
.LBB12_14:                              # %if.end15
	testq	%rax, %rcx
	jne	.LBB12_15
# BB#16:                                # %if.end15
	movabsq	$optab_table+272, %rax
	jmp	.LBB12_17
.LBB12_15:
	movabsq	$optab_table+280, %rax
.LBB12_17:                              # %if.end15
	movq	%r15, 32(%rsp)          # 8-byte Spill
	movq	(%rax), %r15
	movq	$4, %rcx
	movq	%rbx, %rax
	shlq	%cl, %rax
	movslq	8(%r15,%rax), %rax
	cmpq	$1317, %rax             # imm = 0x525
	je	.LBB12_32
# BB#18:                                # %if.then28
	leaq	(%rax,%rax,4), %rax
	movq	%rax, 8(%rsp)           # 8-byte Spill
	movq	insn_data+24(,%rax,8), %rax
	movq	%rax, 40(%rsp)          # 8-byte Spill
	movzbl	40(%rax), %eax
	movq	%rax, 16(%rsp)          # 8-byte Spill
	movq	64(%rsp), %rax          # 8-byte Reload
	testq	%rax, %rax
	movq	%rax, %r13
	jne	.LBB12_20
# BB#19:                                # %if.else
	movq	56(%rsp), %rdi          # 8-byte Reload
	callq	gen_reg_rtx
	movq	%rax, %r13
.LBB12_20:                              # %if.end40
	movq	%rbx, 48(%rsp)          # 8-byte Spill
	movq	88(%rsp), %rcx          # 8-byte Reload
	movzbl	2(%rcx), %eax
	testq	%rax, %rax
	movq	%rcx, %r14
	movq	16(%rsp), %rbx          # 8-byte Reload
	je	.LBB12_23
# BB#21:                                # %if.end40
	cmpq	%rbx, %rax
	movq	%rcx, %r14
	je	.LBB12_23
# BB#22:                                # %if.then50
	movq	%rbx, %rdi
	movq	%rbx, %r14
	movq	%rcx, %rbx
	movq	%rbx, %rsi
	movq	%r12, %rdx
	callq	convert_to_mode
	movq	%rbx, %rcx
	movq	%r14, %rbx
	movq	%rax, %r14
.LBB12_23:                              # %if.end52
	movq	%rcx, 88(%rsp)          # 8-byte Spill
	movq	%r14, %rdi
	movq	%rbx, %rsi
	movq	40(%rsp), %rax          # 8-byte Reload
	callq	*24(%rax)
	movabsq	$4294967295, %rcx       # imm = 0xFFFFFFFF
	testq	%rcx, %rax
	jne	.LBB12_25
# BB#24:                                # %if.then59
	movq	%rbx, %rdi
	movq	%r14, %rsi
	callq	copy_to_mode_reg
	movq	%rax, %r14
.LBB12_25:                              # %if.end61
	movq	%r13, %rdi
	movq	56(%rsp), %rbx          # 8-byte Reload
	movq	%rbx, %rsi
	movq	40(%rsp), %rax          # 8-byte Reload
	callq	*(%rax)
	movabsq	$4294967295, %rcx       # imm = 0xFFFFFFFF
	testq	%rcx, %rax
	jne	.LBB12_27
# BB#26:                                # %if.then69
	movq	%rbx, %rdi
	callq	gen_reg_rtx
	movq	%rax, %r13
.LBB12_27:                              # %if.end71
	xorq	%rax, %rax
	movq	%r13, %rdi
	movq	%r14, %rsi
	movq	8(%rsp), %rcx           # 8-byte Reload
	callq	*insn_data+16(,%rcx,8)
	movq	%rax, %rbx
	testq	%rbx, %rbx
	je	.LBB12_31
# BB#28:                                # %if.then76
	movzbl	(%rbx), %eax
	cmpq	$24, %rax
	jne	.LBB12_30
# BB#29:                                # %land.lhs.true81
	movl	(%r15), %edx
	xorq	%r8, %r8
	movq	%rbx, %rdi
	movq	%r13, %rsi
	movq	%r14, %rcx
	callq	add_equal_note
	movabsq	$4294967295, %rcx       # imm = 0xFFFFFFFF
	testq	%rcx, %rax
	je	.LBB12_65
.LBB12_30:                              # %if.end86
	movq	%rbx, %rdi
	callq	emit_insn
	jmp	.LBB12_63
.LBB12_31:                              # %if.else88
	movq	72(%rsp), %rdi          # 8-byte Reload
	callq	delete_insns_since
	movq	48(%rsp), %rbx          # 8-byte Reload
.LBB12_32:                              # %if.end90
	movq	%rbx, 48(%rsp)          # 8-byte Spill
	movzbl	mode_wider_mode(%rbx), %r14d
	testq	%r14, %r14
	je	.LBB12_43
# BB#33:
	movq	%r14, %rbx
	.align	16, 0x90
.LBB12_34:                              # %for.body
                                        # =>This Inner Loop Header: Depth=1
	andq	$255, %rbx
	movq	$4, %rcx
	movq	%rbx, %rax
	shlq	%cl, %rax
	movl	8(%r15,%rax), %eax
	cmpq	$1317, %rax             # imm = 0x525
	je	.LBB12_42
# BB#35:                                # %if.then102
                                        #   in Loop: Header=BB12_34 Depth=1
	movq	%rbx, %rdi
	movq	80(%rsp), %rsi          # 8-byte Reload
	movq	88(%rsp), %rdx          # 8-byte Reload
	movq	%r12, %rcx
	callq	convert_modes
	xorq	%rdx, %rdx
	movq	%rbx, %rdi
	movq	%rax, %rsi
	movq	%r12, %rcx
	callq	expand_complex_abs
	movq	%rax, %r13
	testq	%r13, %r13
	jne	.LBB12_36
# BB#41:                                # %if.else118
                                        #   in Loop: Header=BB12_34 Depth=1
	movq	72(%rsp), %rdi          # 8-byte Reload
	callq	delete_insns_since
.LBB12_42:                              # %for.inc
                                        #   in Loop: Header=BB12_34 Depth=1
	movzbl	mode_wider_mode(%rbx), %ebx
	testq	%rbx, %rbx
	jne	.LBB12_34
.LBB12_43:                              # %for.end
	movq	$32, %rcx
	movq	56(%rsp), %rbx          # 8-byte Reload
	movq	%rbx, %rax
	shlq	%cl, %rax
	movq	$32, %rcx
	movq	optab_table+304(%rip), %rdx
	sarq	%cl, %rax
	movq	$4, %rcx
	shlq	%cl, %rax
	movl	8(%rdx,%rax), %eax
	cmpq	$1317, %rax             # imm = 0x525
	je	.LBB12_44
# BB#45:                                # %for.end
	movl	flag_trapv(%rip), %eax
	movabsq	$4294967295, %rcx       # imm = 0xFFFFFFFF
	testq	%rcx, %rax
	jne	.LBB12_46
# BB#47:                                # %if.then132
	movq	%rbx, %rdi
	movq	88(%rsp), %rsi          # 8-byte Reload
	callq	gen_realpart
	movq	%rbx, %r13
	movq	%rax, %rbx
	movq	%r13, %rdi
	movq	88(%rsp), %rsi          # 8-byte Reload
	callq	gen_imagpart
	movq	%rax, 40(%rsp)          # 8-byte Spill
	xorq	%rcx, %rcx
	xorq	%r8, %r8
	movq	%r13, %rdi
	movq	%rbx, %rsi
	movq	%rbx, %rdx
	callq	expand_mult
	movq	%rax, %rbx
	xorq	%rcx, %rcx
	xorq	%r8, %r8
	movq	%r13, %rdi
	movq	40(%rsp), %rsi          # 8-byte Reload
	movq	%rsi, %rdx
	callq	expand_mult
	movq	optab_table(%rip), %rsi
	xorq	%r8, %r8
	xorq	%r9, %r9
	movq	$3, (%rsp)
	movq	%r13, %rdi
	movq	%rbx, %rdx
	movq	%r13, %rbx
	movq	%rax, %rcx
	callq	expand_binop
	movq	optab_table+304(%rip), %rsi
	xorq	%r8, %r8
	movq	%rbx, %rdi
	movq	%rax, %rdx
	movq	64(%rsp), %rcx          # 8-byte Reload
	callq	expand_unop
	movq	%rax, %r13
	testq	%r13, %r13
	jne	.LBB12_63
# BB#48:                                # %if.then141
	movq	$0, 64(%rsp)            # 8-byte Folded Spill
	movq	%rbx, %r13
	movq	72(%rsp), %rdi          # 8-byte Reload
	callq	delete_insns_since
	jmp	.LBB12_49
.LBB12_36:                              # %if.then107
	cmpq	$5, 32(%rsp)            # 8-byte Folded Reload
	movq	64(%rsp), %rbx          # 8-byte Reload
	jne	.LBB12_37
# BB#40:                                # %if.else116
	movq	56(%rsp), %rdi          # 8-byte Reload
	movq	%r13, %rsi
.LBB12_59:                              # %if.else192
	addq	$96, %rsp
	popq	%rbx
	popq	%r12
	popq	%r13
	popq	%r14
	popq	%r15
	jmp	gen_lowpart  # TAILCALL
.LBB12_44:
	movq	%rbx, %r13
	jmp	.LBB12_49
.LBB12_46:
	movq	%rbx, %r13
.LBB12_49:                              # %if.end144
	movq	$4, %rcx
	movq	48(%rsp), %rbx          # 8-byte Reload
	movq	%rbx, %rax
	shlq	%cl, %rax
	cmpq	$0, 16(%r15,%rax)
	je	.LBB12_50
# BB#66:                                # %if.then149
	callq	start_sequence
	movq	optab_table+272(%rip), %rax
	movq	$4, %rcx
	shlq	%cl, %rbx
	movq	16(%rax,%rbx), %rdi
	xorq	%rsi, %rsi
	movq	$1, %rdx
	movq	$1, %r8
	xorq	%rax, %rax
	movq	80(%rsp), %r14          # 8-byte Reload
	movq	%r14, (%rsp)
	movq	%r13, %rbx
	movq	%rbx, %rcx
	movq	88(%rsp), %r12          # 8-byte Reload
	movq	%r12, %r9
	callq	emit_library_call_value
	movq	%rax, 72(%rsp)          # 8-byte Spill
	callq	get_insns
	movq	%rax, 64(%rsp)          # 8-byte Spill
	callq	end_sequence
	movq	%rbx, %rdi
	callq	gen_reg_rtx
	movl	(%r15), %edi
	movq	%rax, %r13
	movq	%r14, %rsi
	movq	%r12, %rdx
	callq	gen_rtx_fmt_e
	movq	64(%rsp), %rdi          # 8-byte Reload
	movq	%r13, %rsi
	movq	72(%rsp), %rdx          # 8-byte Reload
	movq	%rax, %rcx
	callq	emit_libcall_block
	jmp	.LBB12_63
	.align	16, 0x90
.LBB12_61:                              # %for.inc197
                                        #   in Loop: Header=BB12_50 Depth=1
	movzbl	mode_wider_mode(%r14), %r14d
.LBB12_50:                              # %for.cond163.preheader
                                        # =>This Inner Loop Header: Depth=1
	testq	%r14, %r14
	je	.LBB12_62
# BB#51:                                # %for.body166
                                        #   in Loop: Header=BB12_50 Depth=1
	andq	$255, %r14
	movq	$4, %rcx
	movq	%r14, %rax
	shlq	%cl, %rax
	movl	8(%r15,%rax), %eax
	cmpq	$1317, %rax             # imm = 0x525
	jne	.LBB12_53
# BB#52:                                # %lor.lhs.false
                                        #   in Loop: Header=BB12_50 Depth=1
	movq	$4, %rcx
	movq	%r14, %rax
	shlq	%cl, %rax
	cmpq	$0, 16(%r15,%rax)
	je	.LBB12_61
.LBB12_53:                              # %if.then178
                                        #   in Loop: Header=BB12_50 Depth=1
	movq	%r14, %rdi
	movq	80(%rsp), %rsi          # 8-byte Reload
	movq	88(%rsp), %rdx          # 8-byte Reload
	movq	%r12, %rcx
	callq	convert_modes
	xorq	%rdx, %rdx
	movq	%r14, %rdi
	movq	%rax, %rsi
	movq	%r12, %rcx
	callq	expand_complex_abs
	movq	%rax, %rbx
	testq	%rbx, %rbx
	jne	.LBB12_54
# BB#60:                                # %if.else194
                                        #   in Loop: Header=BB12_50 Depth=1
	movq	72(%rsp), %rdi          # 8-byte Reload
	callq	delete_insns_since
	jmp	.LBB12_61
.LBB12_62:                              # %for.end201
	movq	24(%rsp), %rdi          # 8-byte Reload
	callq	delete_insns_since
	xorq	%r13, %r13
	jmp	.LBB12_63
.LBB12_37:                              # %if.then110
	testq	%rbx, %rbx
	movq	56(%rsp), %rdi          # 8-byte Reload
	jne	.LBB12_39
# BB#38:                                # %if.then113
	callq	gen_reg_rtx
	movq	%rax, %rbx
.LBB12_39:                              # %if.end115
	xorq	%rdx, %rdx
	movq	%rbx, %rdi
	movq	%r13, %rsi
	callq	convert_move
	movq	%rbx, %r13
.LBB12_63:                              # %return
	movq	%r13, %rax
	addq	$96, %rsp
	popq	%rbx
	popq	%r12
	popq	%r13
	popq	%r14
	popq	%r15
	retq
.LBB12_65:                              # %if.then84
	movq	72(%rsp), %rdi          # 8-byte Reload
	callq	delete_insns_since
	xorq	%rcx, %rcx
	movq	80(%rsp), %rdi          # 8-byte Reload
	movq	%r15, %rsi
	movq	88(%rsp), %rdx          # 8-byte Reload
	movq	%r12, %r8
	addq	$96, %rsp
	popq	%rbx
	popq	%r12
	popq	%r13
	popq	%r14
	popq	%r15
	jmp	expand_unop  # TAILCALL
.LBB12_54:                              # %if.then183
	cmpq	$5, 32(%rsp)            # 8-byte Folded Reload
	movq	64(%rsp), %r14          # 8-byte Reload
	jne	.LBB12_55
# BB#58:                                # %if.else192
	movq	%r13, %rdi
	movq	%rbx, %rsi
	jmp	.LBB12_59
.LBB12_55:                              # %if.then186
	testq	%r14, %r14
	jne	.LBB12_57
# BB#56:                                # %if.then189
	movq	%r13, %rdi
	callq	gen_reg_rtx
	movq	%rax, %r14
.LBB12_57:                              # %if.end191
	xorq	%rdx, %rdx
	movq	%r14, %rdi
	movq	%rbx, %rsi
	callq	convert_move
	movq	%r14, %r13
	jmp	.LBB12_63
.LBB12_64:                              # %if.then
	movabsq	$.L.str, %rax
	movabsq	$.L__FUNCTION__.expand_complex_abs, %rcx
	movq	$2471, %rsi             # imm = 0x9A7
	movq	%rax, %rdi
	movq	%rcx, %rdx
	callq	fancy_abort
.Ltmp183:
	.size	expand_complex_abs, .Ltmp183-expand_complex_abs
	.cfi_endproc

	.globl	emit_unop_insn
	.align	16, 0x90
	.type	emit_unop_insn,@function
emit_unop_insn:                         # @emit_unop_insn
	.cfi_startproc
# BB#0:                                 # %entry
	pushq	%r15
.Ltmp190:
	.cfi_def_cfa_offset 16
	pushq	%r14
.Ltmp191:
	.cfi_def_cfa_offset 24
	pushq	%r13
.Ltmp192:
	.cfi_def_cfa_offset 32
	pushq	%r12
.Ltmp193:
	.cfi_def_cfa_offset 40
	pushq	%rbx
.Ltmp194:
	.cfi_def_cfa_offset 48
	subq	$32, %rsp
.Ltmp195:
	.cfi_def_cfa_offset 80
.Ltmp196:
	.cfi_offset %rbx, -48
.Ltmp197:
	.cfi_offset %r12, -40
.Ltmp198:
	.cfi_offset %r13, -32
.Ltmp199:
	.cfi_offset %r14, -24
.Ltmp200:
	.cfi_offset %r15, -16
	movq	%rcx, %r12
	movq	$32, %rcx
	shlq	%cl, %rdi
	movq	$32, %rcx
	sarq	%cl, %rdi
	leaq	(%rdi,%rdi,4), %rax
	movq	%rax, 16(%rsp)          # 8-byte Spill
	movq	insn_data+24(,%rax,8), %r14
	movzbl	40(%r14), %eax
	movq	%rax, 8(%rsp)           # 8-byte Spill
	movq	%rdx, %rbx
	movq	%rsi, %rax
	movq	$1, %rsi
	movq	%rax, %rdi
	callq	protect_from_queue
	movq	%rax, %r13
	xorq	%rsi, %rsi
	movq	%rbx, %rdi
	callq	protect_from_queue
	movl	flag_force_mem(%rip), %ecx
	movq	%rax, %r15
	testq	%rcx, %rcx
	je	.LBB13_1
# BB#2:                                 # %entry
	movabsq	$4294967295, %rax       # imm = 0xFFFFFFFF
	andq	%r12, %rax
	cmpq	$120, %rax
	je	.LBB13_3
# BB#4:                                 # %entry
	cmpq	$121, %rax
	je	.LBB13_5
# BB#6:                                 # %if.then
	movq	%r12, 24(%rsp)          # 8-byte Spill
	movq	%r15, %rdi
	callq	force_not_mem
	movq	%rax, %r15
	jmp	.LBB13_7
.LBB13_5:
	movq	%r12, 24(%rsp)          # 8-byte Spill
	jmp	.LBB13_7
.LBB13_1:
	movq	%r12, 24(%rsp)          # 8-byte Spill
	jmp	.LBB13_7
.LBB13_3:
	movq	%r12, 24(%rsp)          # 8-byte Spill
.LBB13_7:                               # %if.end
	movq	%r15, %rdi
	movq	8(%rsp), %rbx           # 8-byte Reload
	movq	%rbx, %rsi
	callq	*24(%r14)
	movabsq	$4294967295, %r12       # imm = 0xFFFFFFFF
	testq	%r12, %rax
	jne	.LBB13_9
# BB#8:                                 # %if.then12
	movq	%rbx, %rdi
	movq	%r15, %rsi
	callq	copy_to_mode_reg
	movq	%rax, %r15
.LBB13_9:                               # %if.end14
	movzbl	2(%r13), %esi
	movq	%r13, %rdi
	callq	*(%r14)
	movq	%r12, %r14
	testq	%r12, %rax
	je	.LBB13_10
# BB#11:                                # %lor.lhs.false
	movl	flag_force_mem(%rip), %eax
	testq	%rax, %rax
	movq	%r13, %r12
	je	.LBB13_14
# BB#12:                                # %land.lhs.true24
	movl	(%r13), %edi
	movq	%rdi, %rax
	andq	$65535, %rax            # imm = 0xFFFF
	cmpq	$66, %rax
	movq	%r13, %r12
	jne	.LBB13_14
	jmp	.LBB13_13
.LBB13_10:                              # %if.end14.if.then28_crit_edge
	movl	(%r13), %edi
.LBB13_13:                              # %if.then28
	movq	$16, %rcx
	shrq	%cl, %rdi
	andq	$255, %rdi
	callq	gen_reg_rtx
	movq	%rax, %r12
.LBB13_14:                              # %if.end33
	xorq	%rax, %rax
	movq	%r12, %rdi
	movq	%r15, %rsi
	movq	16(%rsp), %rcx          # 8-byte Reload
	callq	*insn_data+16(,%rcx,8)
	movq	%rax, %rbx
	movzbl	(%rbx), %eax
	cmpq	$24, %rax
	movq	24(%rsp), %rdx          # 8-byte Reload
	jne	.LBB13_17
# BB#15:                                # %if.end33
	testq	%r14, %rdx
	je	.LBB13_17
# BB#16:                                # %if.then42
	xorq	%r8, %r8
	movq	%rbx, %rdi
	movq	%r12, %rsi
	movq	%r15, %rcx
	callq	add_equal_note
.LBB13_17:                              # %if.end44
	movq	%rbx, %rdi
	callq	emit_insn
	cmpq	%r13, %r12
	je	.LBB13_18
# BB#19:                                # %if.then47
	movq	%r13, %rdi
	movq	%r12, %rsi
	addq	$32, %rsp
	popq	%rbx
	popq	%r12
	popq	%r13
	popq	%r14
	popq	%r15
	jmp	emit_move_insn  # TAILCALL
.LBB13_18:                              # %if.end49
	addq	$32, %rsp
	popq	%rbx
	popq	%r12
	popq	%r13
	popq	%r14
	popq	%r15
	retq
.Ltmp201:
	.size	emit_unop_insn, .Ltmp201-emit_unop_insn
	.cfi_endproc

	.globl	emit_clr_insn
	.align	16, 0x90
	.type	emit_clr_insn,@function
emit_clr_insn:                          # @emit_clr_insn
	.cfi_startproc
# BB#0:                                 # %entry
	movq	const_int_rtx+512(%rip), %rsi
	jmp	emit_move_insn  # TAILCALL
.Ltmp202:
	.size	emit_clr_insn, .Ltmp202-emit_clr_insn
	.cfi_endproc

	.globl	emit_0_to_1_insn
	.align	16, 0x90
	.type	emit_0_to_1_insn,@function
emit_0_to_1_insn:                       # @emit_0_to_1_insn
	.cfi_startproc
# BB#0:                                 # %entry
	movq	const_int_rtx+520(%rip), %rsi
	jmp	emit_move_insn  # TAILCALL
.Ltmp203:
	.size	emit_0_to_1_insn, .Ltmp203-emit_0_to_1_insn
	.cfi_endproc

	.globl	prepare_operand
	.align	16, 0x90
	.type	prepare_operand,@function
prepare_operand:                        # @prepare_operand
	.cfi_startproc
# BB#0:                                 # %entry
	pushq	%r15
.Ltmp210:
	.cfi_def_cfa_offset 16
	pushq	%r14
.Ltmp211:
	.cfi_def_cfa_offset 24
	pushq	%r13
.Ltmp212:
	.cfi_def_cfa_offset 32
	pushq	%r12
.Ltmp213:
	.cfi_def_cfa_offset 40
	pushq	%rbx
.Ltmp214:
	.cfi_def_cfa_offset 48
	subq	$32, %rsp
.Ltmp215:
	.cfi_def_cfa_offset 80
.Ltmp216:
	.cfi_offset %rbx, -48
.Ltmp217:
	.cfi_offset %r12, -40
.Ltmp218:
	.cfi_offset %r13, -32
.Ltmp219:
	.cfi_offset %r14, -24
.Ltmp220:
	.cfi_offset %r15, -16
	movq	%r9, 24(%rsp)           # 8-byte Spill
	movq	%r8, 8(%rsp)            # 8-byte Spill
	movq	%rcx, 16(%rsp)          # 8-byte Spill
	movq	%rdx, %r15
	movq	%rsi, %rax
	movq	%rdi, %rbx
	movabsq	$4294967295, %rdx       # imm = 0xFFFFFFFF
	movq	%r8, %r12
	andq	%rdx, %r12
	movq	%rcx, %r13
	andq	%rdx, %r13
	xorq	%rsi, %rsi
	movq	%rax, %rdi
	callq	protect_from_queue
	movq	%rax, %r14
	cmpq	%r12, %r13
	je	.LBB16_2
# BB#1:                                 # %if.then
	movq	8(%rsp), %rdi           # 8-byte Reload
	movq	16(%rsp), %rsi          # 8-byte Reload
	movq	%r14, %rdx
	movq	24(%rsp), %rcx          # 8-byte Reload
	callq	convert_modes
	movq	%rax, %r14
.LBB16_2:                               # %if.end
	movq	$32, %rcx
	shlq	%cl, %r15
	movq	$32, %rcx
	sarq	%cl, %r15
	movq	$32, %rcx
	shlq	%cl, %rbx
	movq	$32, %rcx
	sarq	%cl, %rbx
	leaq	(%rbx,%rbx,4), %rax
	movq	insn_data+24(,%rax,8), %r12
	leaq	(%r15,%r15,2), %rbx
	movzbl	16(%r12,%rbx,8), %esi
	movq	%r14, %rdi
	callq	*(%r12,%rbx,8)
	movabsq	$4294967295, %rcx       # imm = 0xFFFFFFFF
	testq	%rcx, %rax
	je	.LBB16_4
# BB#3:                                 # %if.end21
	movq	%r14, %rax
	addq	$32, %rsp
	popq	%rbx
	popq	%r12
	popq	%r13
	popq	%r14
	popq	%r15
	retq
.LBB16_4:                               # %if.then11
	leaq	16(%r12,%rbx,8), %rax
	movzbl	(%rax), %edi
	movq	%r14, %rsi
	addq	$32, %rsp
	popq	%rbx
	popq	%r12
	popq	%r13
	popq	%r14
	popq	%r15
	jmp	copy_to_mode_reg  # TAILCALL
.Ltmp221:
	.size	prepare_operand, .Ltmp221-prepare_operand
	.cfi_endproc

	.globl	emit_cmp_and_jump_insns
	.align	16, 0x90
	.type	emit_cmp_and_jump_insns,@function
emit_cmp_and_jump_insns:                # @emit_cmp_and_jump_insns
	.cfi_startproc
# BB#0:                                 # %entry
	pushq	%r15
.Ltmp228:
	.cfi_def_cfa_offset 16
	pushq	%r14
.Ltmp229:
	.cfi_def_cfa_offset 24
	pushq	%r13
.Ltmp230:
	.cfi_def_cfa_offset 32
	pushq	%r12
.Ltmp231:
	.cfi_def_cfa_offset 40
	pushq	%rbx
.Ltmp232:
	.cfi_def_cfa_offset 48
	subq	$80, %rsp
.Ltmp233:
	.cfi_def_cfa_offset 128
.Ltmp234:
	.cfi_offset %rbx, -48
.Ltmp235:
	.cfi_offset %r12, -40
.Ltmp236:
	.cfi_offset %r13, -32
.Ltmp237:
	.cfi_offset %r14, -24
.Ltmp238:
	.cfi_offset %r15, -16
	movq	128(%rsp), %r12
	movq	%r9, %r13
	movq	%r8, 56(%rsp)           # 8-byte Spill
	movq	%rcx, 48(%rsp)          # 8-byte Spill
	movq	%rdx, 64(%rsp)          # 8-byte Spill
	movq	%rsi, %r15
	movq	%rdi, %rbx
                                        # kill: RDI<def> RBX<kill>
                                        # kill: RSI<def> R15<kill>
	callq	swap_commutative_operands_p
	movabsq	$4294967295, %r14       # imm = 0xFFFFFFFF
	testq	%r14, %rax
	je	.LBB17_1
# BB#2:                                 # %if.then
	movq	%rbx, 72(%rsp)          # 8-byte Spill
	testq	%r12, %r12
	je	.LBB17_3
# BB#5:                                 # %if.end
	movq	64(%rsp), %rdi          # 8-byte Reload
	callq	swap_condition
	movq	%rax, 64(%rsp)          # 8-byte Spill
	movq	%r15, %r12
	jmp	.LBB17_6
.LBB17_1:
	movq	%rbx, %r12
	movq	%r15, 72(%rsp)          # 8-byte Spill
.LBB17_6:                               # %if.end4
	callq	emit_queue
	testq	%r14, %r13
	movq	56(%rsp), %rbx          # 8-byte Reload
	je	.LBB17_7
# BB#8:                                 # %if.then6
	movq	%r13, 40(%rsp)          # 8-byte Spill
	movq	64(%rsp), %rdi          # 8-byte Reload
	callq	unsigned_condition
	movq	%rax, 64(%rsp)          # 8-byte Spill
	jmp	.LBB17_9
.LBB17_7:
	movq	%r13, 40(%rsp)          # 8-byte Spill
.LBB17_9:                               # %if.end8
	movq	$32, %rcx
	movq	%rbx, %r13
	shlq	%cl, %r13
	movq	$32, %rcx
	sarq	%cl, %r13
	movq	%rbx, %r15
	andq	%r14, %r15
	cmpq	$51, %r15
	je	.LBB17_10
# BB#11:                                # %if.end8
	movl	flag_force_mem(%rip), %eax
	testq	%r14, %rax
	je	.LBB17_10
# BB#12:                                # %if.then.i
	movq	%r12, %rdi
	callq	force_not_mem
	movq	%rax, %rbx
	movq	72(%rsp), %rdi          # 8-byte Reload
	callq	force_not_mem
	movq	%rax, 72(%rsp)          # 8-byte Spill
	jmp	.LBB17_13
.LBB17_10:
	movq	%r12, %rbx
.LBB17_13:                              # %if.end.i
	movq	64(%rsp), %r14          # 8-byte Reload
	movzbl	(%rbx), %ecx
	movq	%rbx, %r12
	cmpq	$133, %rcx
	jg	.LBB17_16
# BB#14:                                # %if.end.i
	addq	$-54, %rcx
	movabsq	$4294967295, %rax       # imm = 0xFFFFFFFF
	andq	%rax, %rcx
	cmpq	$14, %rcx
	ja	.LBB17_22
# BB#15:                                # %if.end.i
	movq	$1, %rax
	shlq	%cl, %rax
	testq	$24599, %rax            # imm = 0x6017
	jne	.LBB17_18
	jmp	.LBB17_22
.LBB17_16:                              # %if.end.i
	cmpq	$134, %rcx
	je	.LBB17_18
# BB#17:                                # %if.end.i
	cmpq	$140, %rcx
	jne	.LBB17_22
.LBB17_18:                              # %land.lhs.true30.i
	callq	preserve_subexpressions_p
	movabsq	$4294967295, %rcx       # imm = 0xFFFFFFFF
	testq	%rcx, %rax
	je	.LBB17_22
# BB#19:                                # %land.lhs.true33.i
	movq	$74, %rsi
	movq	%r12, %rbx
	movq	%rbx, %rdi
	callq	rtx_cost
	movq	$32, %rcx
	shlq	%cl, %rax
	movq	$32, %rcx
	sarq	%cl, %rax
	cmpq	$5, %rax
	jl	.LBB17_20
# BB#21:                                # %if.then36.i
	movq	56(%rsp), %rdi          # 8-byte Reload
	movq	%rbx, %rsi
	callq	force_reg
	movq	%rax, %r12
	jmp	.LBB17_22
.LBB17_20:
	movq	%rbx, %r12
.LBB17_22:                              # %if.end38.i
	movq	72(%rsp), %rax          # 8-byte Reload
	movzbl	(%rax), %ecx
	cmpq	$133, %rcx
	jg	.LBB17_25
# BB#23:                                # %if.end38.i
	addq	$-54, %rcx
	movabsq	$4294967295, %rax       # imm = 0xFFFFFFFF
	andq	%rax, %rcx
	cmpq	$14, %rcx
	ja	.LBB17_30
# BB#24:                                # %if.end38.i
	movq	$1, %rax
	shlq	%cl, %rax
	testq	$24599, %rax            # imm = 0x6017
	jne	.LBB17_27
	jmp	.LBB17_30
.LBB17_25:                              # %if.end38.i
	cmpq	$134, %rcx
	je	.LBB17_27
# BB#26:                                # %if.end38.i
	cmpq	$140, %rcx
	jne	.LBB17_30
.LBB17_27:                              # %land.lhs.true70.i
	callq	preserve_subexpressions_p
	movabsq	$4294967295, %rcx       # imm = 0xFFFFFFFF
	testq	%rcx, %rax
	je	.LBB17_30
# BB#28:                                # %land.lhs.true73.i
	movq	$74, %rsi
	movq	72(%rsp), %rbx          # 8-byte Reload
	movq	%rbx, %rdi
	callq	rtx_cost
	movq	$32, %rcx
	shlq	%cl, %rax
	movq	$32, %rcx
	sarq	%cl, %rax
	cmpq	$5, %rax
	jl	.LBB17_30
# BB#29:                                # %if.then76.i
	movq	56(%rsp), %rdi          # 8-byte Reload
	movq	%rbx, %rsi
	callq	force_reg
	movq	%rax, 72(%rsp)          # 8-byte Spill
.LBB17_30:                              # %if.end78.i
	movzbl	2(%r12), %eax
	testq	%rax, %rax
	jne	.LBB17_33
# BB#31:                                # %land.lhs.true82.i
	movq	72(%rsp), %rax          # 8-byte Reload
	movzbl	2(%rax), %eax
	testq	%rax, %rax
	jne	.LBB17_33
# BB#32:                                # %if.then87.i
	movq	56(%rsp), %rdi          # 8-byte Reload
	movq	%r12, %rsi
	callq	force_reg
	movq	%rax, %r12
.LBB17_33:                              # %if.end89.i
	cmpq	$51, %r15
	jne	.LBB17_45
# BB#34:                                # %if.then91.i
	movq	%r12, %r14
	movq	16(%r14), %rax
	testq	%rax, %rax
	movq	$8, %rdx
	movq	$8, %rsi
	movabsq	$4294967295, %rdi       # imm = 0xFFFFFFFF
	movq	72(%rsp), %r15          # 8-byte Reload
	je	.LBB17_36
# BB#35:                                # %cond.true.i
	movl	32(%rax), %esi
.LBB17_36:                              # %cond.end.i
	movq	16(%r15), %rcx
	testq	%rcx, %rcx
	je	.LBB17_38
# BB#37:                                # %cond.true101.i
	movl	32(%rcx), %edx
.LBB17_38:                              # %cond.end107.i
	andq	%rdi, %rdx
	andq	%rdi, %rsi
	cmpq	%rdx, %rsi
	movq	48(%rsp), %rbx          # 8-byte Reload
	movq	$8, %rdx
	jae	.LBB17_41
# BB#39:                                # %cond.true110.i
	testq	%rax, %rax
	je	.LBB17_43
# BB#40:                                # %cond.true115.i
	movl	32(%rax), %edx
	jmp	.LBB17_43
.LBB17_45:                              # %if.end153.i
	movq	optab_table+328(%rip), %rax
	movq	optab_table+360(%rip), %rdx
	movq	56(%rsp), %r15          # 8-byte Reload
	movq	%r15, %rsi
	movq	72(%rsp), %rbx          # 8-byte Reload
	.align	16, 0x90
.LBB17_46:                              # %do.body.i.i
                                        # =>This Inner Loop Header: Depth=1
	movq	$32, %rcx
	shlq	%cl, %rsi
	movq	$32, %rcx
	sarq	%cl, %rsi
	movq	$4, %rcx
	movq	%rsi, %rdi
	shlq	%cl, %rdi
	movl	8(%rax,%rdi), %ecx
	cmpq	$1317, %rcx             # imm = 0x525
	jne	.LBB17_49
# BB#47:                                # %if.end.i.i
                                        #   in Loop: Header=BB17_46 Depth=1
	movq	$4, %rcx
	movq	%rsi, %rdi
	shlq	%cl, %rdi
	movl	8(%rdx,%rdi), %ecx
	cmpq	$1317, %rcx             # imm = 0x525
	jne	.LBB17_112
# BB#48:                                # %if.end45.i.i
                                        #   in Loop: Header=BB17_46 Depth=1
	movzbl	mode_wider_mode(%rsi), %esi
	testq	%rsi, %rsi
	jne	.LBB17_46
	jmp	.LBB17_50
.LBB17_41:                              # %cond.false123.i
	testq	%rcx, %rcx
	je	.LBB17_43
# BB#42:                                # %cond.true128.i
	movl	32(%rcx), %edx
.LBB17_43:                              # %cond.end136.i
	movabsq	$4294967288, %rsi       # imm = 0xFFFFFFF8
	andq	%rdx, %rsi
	movq	$3, %rcx
	shrq	%cl, %rsi
	xorq	%rdi, %rdi
	callq	gen_rtx_CONST_INT
	movq	%rax, 56(%rsp)          # 8-byte Spill
	callq	emit_queue
	xorq	%rsi, %rsi
	movq	%r14, %rdi
	callq	protect_from_queue
	movq	%rax, 32(%rsp)          # 8-byte Spill
	xorq	%rsi, %rsi
	movq	%r15, %rdi
	callq	protect_from_queue
	movq	%rax, %r14
	testq	%rbx, %rbx
	movq	%rbx, %r13
	je	.LBB17_44
# BB#111:                               # %if.end144.i
	movq	insn_data+48144(%rip), %rax
	movzbl	16(%rax), %r15d
	movq	%r15, %rdi
	callq	gen_reg_rtx
	movq	%rax, %r12
	xorq	%rsi, %rsi
	movq	%r13, %rdi
	callq	protect_from_queue
	movq	$4, %rdi
	movq	$1, %rdx
	movq	%rax, %rsi
	callq	convert_to_mode
	movq	%r12, %rdi
	movq	32(%rsp), %rsi          # 8-byte Reload
	movq	%r14, %rdx
	movq	%rax, %rcx
	movq	56(%rsp), %r8           # 8-byte Reload
	callq	gen_cmpstrsi
	movq	%rax, %rdi
	callq	emit_insn
	movq	const_int_rtx+512(%rip), %rbx
	movq	64(%rsp), %r14          # 8-byte Reload
	jmp	.LBB17_112
.LBB17_49:                              # %can_compare_p.exit.i
	movq	$32, %rcx
	movq	%r14, %rdx
	shlq	%cl, %rdx
	movq	$32, %rcx
	sarq	%cl, %rdx
	cmpq	$0, bcc_gen_fctn(,%rdx,8)
	jne	.LBB17_112
.LBB17_50:                              # %if.end157.i
	movq	$4, %rcx
	movq	%r13, %rdx
	shlq	%cl, %rdx
	movq	16(%rax,%rdx), %rdi
	testq	%rdi, %rdi
	movabsq	$4294967295, %rcx       # imm = 0xFFFFFFFF
	movl	mode_class(,%r13,4), %edx
	je	.LBB17_56
# BB#51:                                # %if.end157.i
	movq	%rdx, %rax
	andq	%rcx, %rax
	cmpq	$2, %rax
	je	.LBB17_56
# BB#52:                                # %if.then164.i
	movq	40(%rsp), %rax          # 8-byte Reload
	testq	%rcx, %rax
	movq	%r12, %r8
	je	.LBB17_55
# BB#53:                                # %land.lhs.true172.i
	movq	optab_table+336(%rip), %rax
	movq	$4, %rcx
	shlq	%cl, %r13
	movq	16(%rax,%r13), %rax
	testq	%rax, %rax
	je	.LBB17_55
# BB#54:                                # %land.lhs.true172.i
	movq	%rax, %rdi
.LBB17_55:                              # %if.end183.i
	movl	word_mode(%rip), %edx
	movq	%r15, 8(%rsp)
	movq	$3, %rsi
	movq	$2, %rcx
	xorq	%rax, %rax
	movq	%rbx, (%rsp)
	movq	%r15, %r9
	callq	emit_library_call
	movl	word_mode(%rip), %edi
	callq	gen_reg_rtx
	movl	word_mode(%rip), %edi
	movq	%rax, %r12
	callq	hard_libcall_value
	movq	%r12, %rdi
	movq	%rax, %rsi
	callq	emit_move_insn
	movq	const_int_rtx+520(%rip), %rbx
	movl	word_mode(%rip), %r15d
	jmp	.LBB17_112
.LBB17_56:                              # %if.end187.i
	movq	%r14, 64(%rsp)          # 8-byte Spill
	andq	%rcx, %rdx
	cmpq	$2, %rdx
	movq	%rcx, %r13
	movq	%r12, %r15
	je	.LBB17_57
# BB#110:                               # %if.else.i
	movabsq	$.L.str, %rax
	movabsq	$.L__FUNCTION__.prepare_cmp_insn, %rcx
	movq	$3238, %rsi             # imm = 0xCA6
	jmp	.LBB17_4
	.align	16, 0x90
.LBB17_102:                             # %if.then68.i.i
                                        #   in Loop: Header=BB17_57 Depth=1
	xorq	%rsi, %rsi
	movq	%r15, %rdi
	callq	protect_from_queue
	movq	%rax, %r15
	xorq	%rsi, %rsi
	movq	%r14, %rdi
	callq	protect_from_queue
	movq	%rax, %r14
	xorq	%rdx, %rdx
	movq	%rbx, %rdi
	movq	%r15, %rsi
	callq	convert_to_mode
	movq	%rax, %r15
	xorq	%rdx, %rdx
	movq	%rbx, %rdi
	movq	%r14, %rsi
	callq	convert_to_mode
	movq	%rax, %rbx
.LBB17_57:                              # %tailrecurse.i.i
                                        # =>This Loop Header: Depth=1
                                        #     Child Loop BB17_99 Depth 2
	xorq	%rsi, %rsi
	movq	%r15, %rdi
	callq	protect_from_queue
	movq	%rax, %r15
	xorq	%rsi, %rsi
	movq	%rbx, %rdi
	callq	protect_from_queue
	movzbl	2(%r15), %ebx
	movq	%rax, %r14
	leaq	-13(%rbx), %rax
	andq	%r13, %rax
	cmpq	$5, %rax
	jbe	.LBB17_58
.LBB17_98:                              # %if.else55.i.i
                                        #   in Loop: Header=BB17_57 Depth=1
	movq	optab_table+328(%rip), %rax
	.align	16, 0x90
.LBB17_99:                              # %for.cond.i.i
                                        #   Parent Loop BB17_57 Depth=1
                                        # =>  This Inner Loop Header: Depth=2
	movzbl	mode_wider_mode(%rbx), %ebx
	testq	%rbx, %rbx
	je	.LBB17_103
# BB#100:                               # %for.body.i.i
                                        #   in Loop: Header=BB17_99 Depth=2
	movq	$4, %rcx
	movq	%rbx, %rdx
	shlq	%cl, %rdx
	movl	8(%rax,%rdx), %ecx
	cmpq	$1317, %rcx             # imm = 0x525
	jne	.LBB17_102
# BB#101:                               # %lor.lhs.false.i.i
                                        #   in Loop: Header=BB17_99 Depth=2
	movq	$4, %rcx
	movq	%rbx, %rdx
	shlq	%cl, %rdx
	cmpq	$0, 16(%rax,%rdx)
	je	.LBB17_99
	jmp	.LBB17_102
.LBB17_58:                              # %tailrecurse.i.i
                                        #   in Loop: Header=BB17_57 Depth=1
	jmpq	*.LJTI17_0(,%rax,8)
.LBB17_59:                              # %if.then.i1.i
	movq	64(%rsp), %rax          # 8-byte Reload
	leaq	-102(%rax), %rcx
	andq	%r13, %rcx
	cmpq	$10, %rcx
	ja	.LBB17_152
# BB#60:                                # %if.then.i1.i
	movabsq	$libfunc_table+192, %rax
	movq	$103, %rbx
	movq	$13, %r9
	jmpq	*.LJTI17_5(,%rcx,8)
.LBB17_104:                             # %sw.bb2.i.i
	movabsq	$libfunc_table+200, %rax
	jmp	.LBB17_105
.LBB17_66:                              # %if.then9.i.i
	movq	64(%rsp), %rax          # 8-byte Reload
	leaq	-102(%rax), %rcx
	andq	%r13, %rcx
	cmpq	$10, %rcx
	ja	.LBB17_152
# BB#67:                                # %if.then9.i.i
	movabsq	$libfunc_table+248, %rax
	movq	$103, %rbx
	movq	$15, %r9
	jmpq	*.LJTI17_4(,%rcx,8)
.LBB17_68:                              # %sw.bb11.i.i
	movabsq	$libfunc_table+256, %rax
	jmp	.LBB17_105
.LBB17_74:                              # %if.then21.i.i
	movq	64(%rsp), %rax          # 8-byte Reload
	leaq	-102(%rax), %rcx
	andq	%r13, %rcx
	cmpq	$10, %rcx
	ja	.LBB17_152
# BB#75:                                # %if.then21.i.i
	movabsq	$libfunc_table+304, %rax
	movq	$103, %rbx
	movq	$16, %r9
	jmpq	*.LJTI17_3(,%rcx,8)
.LBB17_76:                              # %sw.bb23.i.i
	movabsq	$libfunc_table+312, %rax
	jmp	.LBB17_105
.LBB17_82:                              # %if.then33.i.i
	movq	64(%rsp), %rax          # 8-byte Reload
	leaq	-102(%rax), %rcx
	andq	%r13, %rcx
	cmpq	$10, %rcx
	ja	.LBB17_152
# BB#83:                                # %if.then33.i.i
	movabsq	$libfunc_table+360, %rax
	movq	$103, %rbx
	movq	$17, %r9
	jmpq	*.LJTI17_2(,%rcx,8)
.LBB17_84:                              # %sw.bb35.i.i
	movabsq	$libfunc_table+368, %rax
	jmp	.LBB17_105
.LBB17_90:                              # %if.then45.i.i
	movq	64(%rsp), %rax          # 8-byte Reload
	leaq	-102(%rax), %rcx
	andq	%r13, %rcx
	cmpq	$10, %rcx
	ja	.LBB17_152
# BB#91:                                # %if.then45.i.i
	movabsq	$libfunc_table+416, %rax
	movq	$103, %rbx
	movq	$18, %r9
	jmpq	*.LJTI17_1(,%rcx,8)
.LBB17_92:                              # %sw.bb47.i.i
	movabsq	$libfunc_table+424, %rax
	jmp	.LBB17_105
.LBB17_62:                              # %sw.bb4.i.i
	movabsq	$libfunc_table+216, %rax
	jmp	.LBB17_105
.LBB17_61:                              # %sw.bb3.i.i
	movabsq	$libfunc_table+208, %rax
	jmp	.LBB17_105
.LBB17_64:                              # %sw.bb6.i.i
	movabsq	$libfunc_table+232, %rax
	jmp	.LBB17_105
.LBB17_63:                              # %sw.bb5.i.i
	movabsq	$libfunc_table+224, %rax
	jmp	.LBB17_105
.LBB17_65:                              # %sw.bb7.i.i
	movabsq	$libfunc_table+240, %rax
	jmp	.LBB17_105
.LBB17_70:                              # %sw.bb13.i.i
	movabsq	$libfunc_table+272, %rax
	jmp	.LBB17_105
.LBB17_69:                              # %sw.bb12.i.i
	movabsq	$libfunc_table+264, %rax
	jmp	.LBB17_105
.LBB17_72:                              # %sw.bb15.i.i
	movabsq	$libfunc_table+288, %rax
	jmp	.LBB17_105
.LBB17_71:                              # %sw.bb14.i.i
	movabsq	$libfunc_table+280, %rax
	jmp	.LBB17_105
.LBB17_73:                              # %sw.bb16.i.i
	movabsq	$libfunc_table+296, %rax
	jmp	.LBB17_105
.LBB17_78:                              # %sw.bb25.i.i
	movabsq	$libfunc_table+328, %rax
	jmp	.LBB17_105
.LBB17_77:                              # %sw.bb24.i.i
	movabsq	$libfunc_table+320, %rax
	jmp	.LBB17_105
.LBB17_80:                              # %sw.bb27.i.i
	movabsq	$libfunc_table+344, %rax
	jmp	.LBB17_105
.LBB17_79:                              # %sw.bb26.i.i
	movabsq	$libfunc_table+336, %rax
	jmp	.LBB17_105
.LBB17_81:                              # %sw.bb28.i.i
	movabsq	$libfunc_table+352, %rax
	jmp	.LBB17_105
.LBB17_86:                              # %sw.bb37.i.i
	movabsq	$libfunc_table+384, %rax
	jmp	.LBB17_105
.LBB17_85:                              # %sw.bb36.i.i
	movabsq	$libfunc_table+376, %rax
	jmp	.LBB17_105
.LBB17_88:                              # %sw.bb39.i.i
	movabsq	$libfunc_table+400, %rax
	jmp	.LBB17_105
.LBB17_87:                              # %sw.bb38.i.i
	movabsq	$libfunc_table+392, %rax
	jmp	.LBB17_105
.LBB17_89:                              # %sw.bb40.i.i
	movabsq	$libfunc_table+408, %rax
	jmp	.LBB17_105
.LBB17_94:                              # %sw.bb49.i.i
	movabsq	$libfunc_table+440, %rax
	jmp	.LBB17_105
.LBB17_93:                              # %sw.bb48.i.i
	movabsq	$libfunc_table+432, %rax
	jmp	.LBB17_105
.LBB17_96:                              # %sw.bb51.i.i
	movabsq	$libfunc_table+456, %rax
	jmp	.LBB17_105
.LBB17_95:                              # %sw.bb50.i.i
	movabsq	$libfunc_table+448, %rax
	jmp	.LBB17_105
.LBB17_97:                              # %sw.bb52.i.i
	movabsq	$libfunc_table+464, %rax
.LBB17_105:                             # %if.end80.i.i
	movq	64(%rsp), %rbx          # 8-byte Reload
.LBB17_106:                             # %if.end80.i.i
	movq	(%rax), %rdi
	testq	%rdi, %rdi
	je	.LBB17_152
# BB#107:                               # %if.end84.i.i
	movl	word_mode(%rip), %edx
	movq	%r9, 8(%rsp)
	movq	%r14, (%rsp)
	movq	$3, %rsi
	movq	$2, %rcx
	xorq	%rax, %rax
	movq	$0, 40(%rsp)            # 8-byte Folded Spill
	movq	%r15, %r8
	callq	emit_library_call
	movl	word_mode(%rip), %edi
	callq	gen_reg_rtx
	movl	word_mode(%rip), %edi
	movq	%rax, %r12
	callq	hard_libcall_value
	movq	%r12, %rdi
	movq	%rax, %rsi
	callq	emit_move_insn
	movq	const_int_rtx+512(%rip), %rcx
	movl	word_mode(%rip), %r15d
	andq	%r13, %rbx
	cmpq	$112, %rbx
	movq	$102, %rax
	je	.LBB17_109
# BB#108:                               # %if.end84.i.i
	movq	64(%rsp), %rax          # 8-byte Reload
.LBB17_109:                             # %if.end84.i.i
	movq	%rax, %r14
	movq	%rcx, %rbx
.LBB17_112:                             # %prepare_cmp_insn.exit
	movq	%r12, 32(%rsp)          # 8-byte Spill
	movq	%r15, 56(%rsp)          # 8-byte Spill
	movq	%rbx, 72(%rsp)          # 8-byte Spill
	movq	%r14, 64(%rsp)          # 8-byte Spill
	movq	%r14, %rdi
	movq	%r15, %rsi
	movq	%r12, %rdx
	movq	%rbx, %rcx
	callq	gen_rtx_fmt_ee
	movq	$32, %rcx
	movq	%r15, %rdi
	shlq	%cl, %rdi
	movq	$32, %rcx
	sarq	%cl, %rdi
	movq	%rdi, 48(%rsp)          # 8-byte Spill
	movl	mode_class(,%rdi,4), %r8d
	movq	%rax, %r9
	movabsq	$4294967295, %rax       # imm = 0xFFFFFFFF
	andq	%rax, %r8
	movq	128(%rsp), %r14
	movq	%r14, %rsi
	.align	16, 0x90
.LBB17_113:                             # %do.body.i
                                        # =>This Inner Loop Header: Depth=1
	movq	$32, %rcx
	movq	%r15, %rbx
	shlq	%cl, %rbx
	movq	$32, %rcx
	sarq	%cl, %rbx
	testq	%rsi, %rsi
	movb	%r15b, 2(%r9)
	je	.LBB17_126
# BB#114:                               # %if.then.i21
                                        #   in Loop: Header=BB17_113 Depth=1
	movq	optab_table+360(%rip), %rax
	movq	$4, %rcx
	movq	%rbx, %rdx
	shlq	%cl, %rdx
	movl	8(%rax,%rdx), %eax
	movq	$32, %rcx
	movq	%rax, %r12
	shlq	%cl, %r12
	movq	$32, %rcx
	sarq	%cl, %r12
	cmpq	$1317, %rax             # imm = 0x525
	je	.LBB17_126
# BB#115:                               # %land.lhs.true.i
                                        #   in Loop: Header=BB17_113 Depth=1
	leaq	(%rax,%rax,4), %rax
	movq	insn_data+24(,%rax,8), %rax
	movq	%r9, %r13
	movq	%r13, %rdi
	movq	%r15, %rsi
	movq	%r8, %r14
	callq	*(%rax)
	movq	%r14, %r8
	movq	48(%rsp), %rdi          # 8-byte Reload
	movq	%r13, %r9
	movq	128(%rsp), %rsi
	movabsq	$4294967295, %rcx       # imm = 0xFFFFFFFF
	testq	%rcx, %rax
	jne	.LBB17_116
.LBB17_126:                             # %if.end15.i
                                        #   in Loop: Header=BB17_113 Depth=1
	movq	const_tiny_rtx(,%rdi,8), %rdx
	movq	$4, %rcx
	movq	%rbx, %rax
	shlq	%cl, %rax
	movq	72(%rsp), %rcx          # 8-byte Reload
	cmpq	%rcx, %rdx
	jne	.LBB17_135
# BB#127:                               # %if.end15.i
                                        #   in Loop: Header=BB17_113 Depth=1
	movq	optab_table+344(%rip), %rcx
	movslq	8(%rcx,%rax), %r12
	movq	%r12, %rax
	movabsq	$4294967295, %rcx       # imm = 0xFFFFFFFF
	andq	%rcx, %rax
	cmpq	$1317, %rax             # imm = 0x525
	jne	.LBB17_128
.LBB17_135:                             # %if.end39.i
                                        #   in Loop: Header=BB17_113 Depth=1
	movq	optab_table+328(%rip), %rax
	movq	$4, %rcx
	movq	%rbx, %rdx
	shlq	%cl, %rdx
	movslq	8(%rax,%rdx), %r12
	cmpq	$1317, %r12             # imm = 0x525
	jne	.LBB17_136
# BB#147:                               # %if.end60.i
                                        #   in Loop: Header=BB17_113 Depth=1
	cmpq	$6, %r8
	ja	.LBB17_150
