	.file	"reload.c.bc"
	.text
	.globl	get_secondary_mem
	.align	16, 0x90
	.type	get_secondary_mem,@function
get_secondary_mem:                      # @get_secondary_mem
	.cfi_startproc
# BB#0:                                 # %entry
	pushq	%r15
.Ltmp6:
	.cfi_def_cfa_offset 16
	pushq	%r14
.Ltmp7:
	.cfi_def_cfa_offset 24
	pushq	%r13
.Ltmp8:
	.cfi_def_cfa_offset 32
	pushq	%r12
.Ltmp9:
	.cfi_def_cfa_offset 40
	pushq	%rbx
.Ltmp10:
	.cfi_def_cfa_offset 48
	subq	$32, %rsp
.Ltmp11:
	.cfi_def_cfa_offset 80
.Ltmp12:
	.cfi_offset %rbx, -48
.Ltmp13:
	.cfi_offset %r12, -40
.Ltmp14:
	.cfi_offset %r13, -32
.Ltmp15:
	.cfi_offset %r14, -24
.Ltmp16:
	.cfi_offset %r15, -16
	movq	%rcx, 24(%rsp)          # 8-byte Spill
	movq	%rdx, %r8
	movq	%rsi, %r14
	movq	$32, %rcx
	movq	%r14, %rax
	shlq	%cl, %rax
	movq	$32, %rcx
	sarq	%cl, %rax
	movl	target_flags(%rip), %edi
	movzbl	mode_bitsize(%rax,%rax), %edx
	movq	$20, %rcx
	shrq	%cl, %rdi
	andq	$32, %rdi
	addq	$32, %rdi
	movabsq	$4294967264, %rcx       # imm = 0xFFFFFFE0
	andq	%rdi, %rcx
	cmpq	%rcx, %rdx
	jae	.LBB0_4
# BB#1:                                 # %land.lhs.true
	movl	mode_class(,%rax,4), %ecx
	cmpq	$7, %rcx
	ja	.LBB0_4
# BB#2:                                 # %land.lhs.true
	movq	$1, %rax
	shlq	%cl, %rax
	testq	$170, %rax
	je	.LBB0_4
# BB#3:                                 # %if.then
	xorq	%rdx, %rdx
	movq	%rcx, %rsi
	movq	%r8, %rbx
	callq	mode_for_size
	movq	%rbx, %r8
	movq	%rax, %r14
.LBB0_4:                                # %if.end
	movq	$32, %rcx
	movq	%r8, %rbx
	shlq	%cl, %rbx
	movq	$32, %rcx
	sarq	%cl, %rbx
	movq	$32, %rcx
	movq	%r14, %r12
	shlq	%cl, %r12
	movq	$32, %rcx
	sarq	%cl, %r12
	imulq	$240, %r12, %r15
	movq	secondary_memlocs_elim(%r15,%rbx,8), %r13
	testq	%r13, %r13
	jne	.LBB0_17
# BB#5:                                 # %if.end36
	movq	%r8, 16(%rsp)           # 8-byte Spill
	movq	secondary_memlocs(,%r12,8), %rdi
	testq	%rdi, %rdi
	jne	.LBB0_7
# BB#6:                                 # %if.then41
	movzbl	mode_size(%r12), %esi
	xorq	%rdx, %rdx
	movq	%r14, %rdi
	callq	assign_stack_local
	movq	%rax, %rdi
	movq	%rdi, secondary_memlocs(,%r12,8)
.LBB0_7:                                # %if.end48
	xorq	%rsi, %rsi
	xorq	%rdx, %rdx
	callq	eliminate_regs
	movq	%rax, %r13
	movq	8(%r13), %rsi
	movq	$1, %rdx
	movq	%r14, %rdi
	callq	legitimate_address_p
	movabsq	$4294967295, %rcx       # imm = 0xFFFFFFFF
	testq	%rcx, %rax
	jne	.LBB0_16
# BB#8:                                 # %land.lhs.true55
	movq	secondary_memlocs(,%r12,8), %rax
	cmpq	%rax, %r13
	jne	.LBB0_10
# BB#9:                                 # %if.end62
	movq	%r13, %rdi
	callq	copy_rtx
	movq	%rax, %r13
.LBB0_10:                               # %if.then64
	movq	24(%rsp), %rax          # 8-byte Reload
	movabsq	$4294967295, %rcx       # imm = 0xFFFFFFFF
	movq	$3, %r9
	testq	%rcx, %rax
	je	.LBB0_15
# BB#11:                                # %cond.false
	andq	%rcx, %rax
	cmpq	$1, %rax
	jne	.LBB0_12
# BB#13:                                # %cond.false
	movabsq	$1, %rax
	jmp	.LBB0_14
.LBB0_12:
	movabsq	$0, %rax
.LBB0_14:                               # %cond.false
	xorq	$1, %rax
	leaq	5(,%rax,4), %r9
.LBB0_15:                               # %cond.end
	movq	8(%r13), %rdx
	leaq	8(%r13), %rcx
	movq	$0, 8(%rsp)
	xorq	%rsi, %rsi
	movq	$0, (%rsp)
	movq	%r14, %rdi
	movq	16(%rsp), %r8           # 8-byte Reload
	callq	find_reloads_address
.LBB0_16:                               # %if.end78
	leaq	secondary_memlocs_elim(%r15,%rbx,8), %rax
	movq	%r13, (%rax)
.LBB0_17:                               # %return
	movq	%r13, %rax
	addq	$32, %rsp
	popq	%rbx
	popq	%r12
	popq	%r13
	popq	%r14
	popq	%r15
	retq
.Ltmp17:
	.size	get_secondary_mem, .Ltmp17-get_secondary_mem
	.cfi_endproc

	.globl	strict_memory_address_p
	.align	16, 0x90
	.type	strict_memory_address_p,@function
strict_memory_address_p:                # @strict_memory_address_p
	.cfi_startproc
# BB#0:                                 # %entry
	pushq	%rax
.Ltmp19:
	.cfi_def_cfa_offset 16
	movq	$1, %rdx
	callq	legitimate_address_p
	movabsq	$4294967295, %rcx       # imm = 0xFFFFFFFF
	testq	%rcx, %rax
	je	.LBB1_1
# BB#2:                                 # %entry
	movabsq	$1, %rax
	popq	%rdx
	retq
.LBB1_1:
	movabsq	$0, %rax
	popq	%rdx
	retq
.Ltmp20:
	.size	strict_memory_address_p, .Ltmp20-strict_memory_address_p
	.cfi_endproc

	.align	16, 0x90
	.type	find_reloads_address,@function
find_reloads_address:                   # @find_reloads_address
	.cfi_startproc
# BB#0:                                 # %entry
	pushq	%r15
.Ltmp27:
	.cfi_def_cfa_offset 16
	pushq	%r14
.Ltmp28:
	.cfi_def_cfa_offset 24
	pushq	%r13
.Ltmp29:
	.cfi_def_cfa_offset 32
	pushq	%r12
.Ltmp30:
	.cfi_def_cfa_offset 40
	pushq	%rbx
.Ltmp31:
	.cfi_def_cfa_offset 48
	subq	$96, %rsp
.Ltmp32:
	.cfi_def_cfa_offset 144
.Ltmp33:
	.cfi_offset %rbx, -48
.Ltmp34:
	.cfi_offset %r12, -40
.Ltmp35:
	.cfi_offset %r13, -32
.Ltmp36:
	.cfi_offset %r14, -24
.Ltmp37:
	.cfi_offset %r15, -16
	movq	%rdx, %r12
	movq	152(%rsp), %r13
	movzbl	(%r12), %eax
	movq	144(%rsp), %rbx
	movq	%r9, 56(%rsp)           # 8-byte Spill
	movq	%r8, 48(%rsp)           # 8-byte Spill
	movq	%rcx, 64(%rsp)          # 8-byte Spill
	movq	%rsi, %r15
	movq	%rdi, %r14
	cmpq	$61, %rax
	jne	.LBB2_36
# BB#1:                                 # %if.then
	movslq	8(%r12), %r15
	movq	reg_equiv_constant(%rip), %rax
	movq	(%rax,%r15,8), %rdi
	testq	%rdi, %rdi
	movq	%rdi, 72(%rsp)
	je	.LBB2_5
# BB#2:                                 # %land.lhs.true
	movq	%r14, %rsi
	movq	%r13, %rdx
	callq	eliminate_regs
	testq	%rax, %rax
	movq	%rax, 72(%rsp)
	je	.LBB2_5
# BB#3:                                 # %land.lhs.true3
	movq	$1, %rdx
	movq	%r14, %rdi
	movq	%rax, %rsi
	callq	legitimate_address_p
	movabsq	$4294967295, %rcx       # imm = 0xFFFFFFFF
	testq	%rcx, %rax
	je	.LBB2_5
# BB#4:                                 # %if.then6
	movq	72(%rsp), %rax
	movq	64(%rsp), %rcx          # 8-byte Reload
	movq	%rax, (%rcx)
	xorq	%r13, %r13
	jmp	.LBB2_127
.LBB2_36:                               # %if.end204
	movq	%r13, %rbx
	movq	$1, %rdx
	movq	%r14, %rdi
	movq	%r12, %rsi
	callq	legitimate_address_p
	movabsq	$4294967295, %rcx       # imm = 0xFFFFFFFF
	testq	%rcx, %rax
	je	.LBB2_43
# BB#37:                                # %if.then207
	movzbl	(%r12), %eax
	cmpq	$75, %rax
	jne	.LBB2_41
# BB#38:                                # %land.lhs.true212
	movq	16(%r12), %rax
	movzbl	(%rax), %eax
	cmpq	$54, %rax
	jne	.LBB2_41
# BB#39:                                # %land.lhs.true220
	movq	8(%r12), %rax
	movzbl	(%rax), %ecx
	cmpq	$61, %rcx
	jne	.LBB2_41
# BB#40:                                # %land.lhs.true228
	movl	8(%rax), %eax
	movq	reg_equiv_constant(%rip), %rcx
	xorq	%r13, %r13
	cmpq	$0, (%rcx,%rax,8)
	je	.LBB2_127
.LBB2_41:                               # %if.end240
	xorq	%r13, %r13
	movb	%r13b, subst_reg_equivs_changed(%rip)
	movq	%r12, %rdi
	movq	%rbx, %rsi
	callq	subst_reg_equivs
	movq	64(%rsp), %rcx          # 8-byte Reload
	movq	%rax, (%rcx)
	movzbl	subst_reg_equivs_changed(%rip), %eax
	testq	%rax, %rax
	je	.LBB2_127
# BB#42:                                # %if.end244
	movq	$1, %rdx
	movq	%r14, %rdi
	movq	%r12, %rsi
	callq	legitimate_address_p
	movabsq	$4294967295, %rcx       # imm = 0xFFFFFFFF
	testq	%rcx, %rax
	jne	.LBB2_127
.LBB2_43:                               # %if.end249
	movl	(%r12), %r13d
	movq	%r13, %rax
	andq	$65535, %rax            # imm = 0xFFFF
	xorq	%rsi, %rsi
	cmpq	$83, %rax
	jne	.LBB2_45
# BB#44:                                # %if.then254
	movq	8(%r12), %rax
	movl	(%rax), %r13d
	addq	$8, %r12
	movq	$1, %rsi
	movq	%r12, 64(%rsp)          # 8-byte Spill
	movq	%rax, %r12
.LBB2_45:                               # %if.end258
	movq	%r13, %rax
	andq	$65535, %rax            # imm = 0xFFFF
	cmpq	$75, %rax
	jne	.LBB2_46
# BB#70:                                # %land.lhs.true381
	movq	8(%r12), %rcx
	movzbl	(%rcx), %edx
	cmpq	$61, %rdx
	jne	.LBB2_96
# BB#71:                                # %land.lhs.true389
	movl	8(%rcx), %ecx
	cmpq	$52, %rcx
	ja	.LBB2_85
# BB#72:                                # %land.lhs.true398
	cmpq	$20, %rcx
	ja	.LBB2_74
# BB#73:                                # %land.lhs.true398
	movq	$1, %rdx
	shlq	%cl, %rdx
	testq	$1114367, %rdx          # imm = 0x1100FF
	jne	.LBB2_77
.LBB2_74:                               # %lor.lhs.false425
	leaq	-37(%rcx), %rdx
	movabsq	$4294967295, %rdi       # imm = 0xFFFFFFFF
	andq	%rdi, %rdx
	cmpq	$8, %rdx
	jb	.LBB2_77
# BB#75:                                # %lor.lhs.false443
	movq	reg_renumber(%rip), %rdx
	movzbl	(%rdx,%rcx,2), %ecx
	cmpq	$44, %rcx
	ja	.LBB2_85
# BB#76:                                # %lor.lhs.false443
	movq	$1, %rdx
	shlq	%cl, %rdx
	movabsq	$35046933135615, %rcx   # imm = 0x1FE0000000FF
	testq	%rcx, %rdx
	je	.LBB2_85
.LBB2_77:                               # %land.lhs.true479
	movq	16(%r12), %rcx
	movzbl	(%rcx), %ecx
	cmpq	$54, %rcx
	jne	.LBB2_85
# BB#78:                                # %if.then487
	movq	%rsi, %r14
	testq	%r15, %r15
	movq	144(%rsp), %rbx
	je	.LBB2_82
# BB#79:                                # %if.then489
	movq	(%r15), %rdi
	callq	copy_rtx
	movq	%rax, (%r15)
	addq	$8, %rax
	testq	%r14, %r14
	je	.LBB2_81
# BB#80:                                # %if.then495
	movq	(%rax), %rax
	addq	$8, %rax
.LBB2_81:                               # %if.end500
	movq	%rax, 64(%rsp)          # 8-byte Spill
.LBB2_82:                               # %if.end500
	movzbl	double_reg_address_ok(%rip), %eax
	testq	%rax, %rax
	je	.LBB2_84
# BB#83:                                # %if.then502
	movq	%r12, %rdi
	callq	copy_rtx
	movq	64(%rsp), %rcx          # 8-byte Reload
	movq	%rax, (%rcx)
	movq	16(%rax), %rdi
	movzbl	2(%rax), %ecx
	leaq	16(%rax), %rsi
	movq	$10, %rdx
	movq	%rbx, (%rsp)
	movq	48(%rsp), %r8           # 8-byte Reload
	movq	56(%rsp), %r9           # 8-byte Reload
	callq	find_reloads_address_part
	xorq	%r13, %r13
	jmp	.LBB2_127
.LBB2_5:                                # %if.end
	movq	reg_equiv_memory_loc(%rip), %rax
	movq	(%rax,%r15,8), %rax
	testq	%rax, %rax
	movq	%rax, 72(%rsp)
	je	.LBB2_28
# BB#6:                                 # %if.then10
	movq	reg_equiv_address(%rip), %rax
	cmpq	$0, (%rax,%r15,8)
	jne	.LBB2_8
# BB#7:                                 # %if.then10
	movl	num_not_at_initial_offset(%rip), %eax
	movabsq	$4294967295, %rcx       # imm = 0xFFFFFFFF
	testq	%rcx, %rax
	je	.LBB2_35
.LBB2_8:                                # %if.then15
	movq	%r12, %rdi
	movq	%r15, %rsi
	callq	make_memloc
	movq	%rax, 72(%rsp)
	movq	8(%rax), %rsi
	movzbl	2(%rax), %edi
	movq	$1, %rdx
	callq	legitimate_address_p
	movabsq	$4294967295, %rsi       # imm = 0xFFFFFFFF
	testq	%rsi, %rax
	jne	.LBB2_13
# BB#9:                                 # %if.then23
	movq	72(%rsp), %rcx
	movzbl	2(%rcx), %edi
	movq	8(%rcx), %rdx
	movq	56(%rsp), %rax          # 8-byte Reload
	andq	%rsi, %rax
	movq	$4, %r9
	cmpq	$3, %rax
	je	.LBB2_12
# BB#10:                                # %cond.false
	cmpq	$5, %rax
	movq	$6, %r9
	je	.LBB2_12
# BB#11:                                # %cond.false
	movq	56(%rsp), %r9           # 8-byte Reload
.LBB2_12:                               # %cond.end37
	addq	$8, %rcx
	movq	%r13, 8(%rsp)
	xorq	%rsi, %rsi
	movq	%rbx, (%rsp)
	movq	48(%rsp), %r8           # 8-byte Reload
	callq	find_reloads_address
	movabsq	$4294967295, %rsi       # imm = 0xFFFFFFFF
.LBB2_13:                               # %if.end40
	movq	$32, %rcx
	shlq	%cl, %rbx
	movq	$32, %rcx
	sarq	%cl, %rbx
	testq	%rbx, %rbx
	jle	.LBB2_21
# BB#14:                                # %land.lhs.true42
	movq	%rsi, %rbx
	movq	72(%rsp), %rsi
	movq	$1, %rdx
	movq	%r14, %rdi
	callq	legitimate_address_p
	movq	%rbx, %rdx
	testq	%rdx, %rax
	je	.LBB2_21
# BB#15:                                # %land.lhs.true45
	movq	72(%rsp), %rdi
	movq	8(%rdi), %rax
	movzbl	(%rax), %ecx
	cmpq	$61, %rcx
	je	.LBB2_24
# BB#16:                                # %land.lhs.true45
	cmpq	$75, %rcx
	jne	.LBB2_21
# BB#17:                                # %land.lhs.true59
	movq	8(%rax), %rcx
	movzbl	(%rcx), %ecx
	cmpq	$61, %rcx
	jne	.LBB2_21
# BB#18:                                # %land.lhs.true69
	movq	16(%rax), %rax
	movzbl	(%rax), %ecx
	cmpq	$133, %rcx
	jg	.LBB2_22
# BB#19:                                # %land.lhs.true69
	addq	$-54, %rcx
	andq	%rdx, %rcx
	cmpq	$14, %rcx
	ja	.LBB2_21
# BB#20:                                # %land.lhs.true69
	movq	$1, %rax
	shlq	%cl, %rax
	testq	$24599, %rax            # imm = 0x6017
	jne	.LBB2_24
	jmp	.LBB2_21
.LBB2_28:                               # %if.else
	cmpq	$52, %r15
	jg	.LBB2_35
# BB#29:                                # %land.lhs.true167
	cmpq	$8, %r15
	jl	.LBB2_34
# BB#30:                                # %switch.early.test
	movq	%r15, %rcx
	orq	$4, %rcx
	movabsq	$4294967295, %rax       # imm = 0xFFFFFFFF
	andq	%rax, %rcx
	cmpq	$20, %rcx
	je	.LBB2_34
# BB#31:                                # %lor.lhs.false173
	leaq	-37(%r15), %rcx
	andq	%rax, %rcx
	cmpq	$8, %rcx
	jb	.LBB2_34
# BB#32:                                # %lor.lhs.false177
	movq	reg_renumber(%rip), %rax
	movzbl	(%rax,%r15,2), %ecx
	cmpq	$44, %rcx
	ja	.LBB2_35
# BB#33:                                # %lor.lhs.false177
	movq	$1, %rax
	shlq	%cl, %rax
	movabsq	$35046933135615, %rcx   # imm = 0x1FE0000000FF
	testq	%rcx, %rax
	je	.LBB2_35
.LBB2_34:                               # %land.lhs.true194
	movq	this_insn(%rip), %rsi
	xorq	%rcx, %rcx
	xorq	%r13, %r13
	movq	%r15, %rdi
	movq	%r14, %rdx
	callq	regno_clobbered_p
	movabsq	$4294967295, %rcx       # imm = 0xFFFFFFFF
	testq	%rcx, %rax
	jne	.LBB2_35
	jmp	.LBB2_127
.LBB2_46:                               # %if.end258
	movq	%rsi, 40(%rsp)          # 8-byte Spill
	cmpq	$66, %rax
	jne	.LBB2_87
# BB#47:                                # %if.then263
	movq	%r12, 72(%rsp)
	movzbl	2(%r12), %edi
	movq	8(%r12), %rdx
	movq	56(%rsp), %rax          # 8-byte Reload
	movabsq	$4294967295, %rcx       # imm = 0xFFFFFFFF
	andq	%rcx, %rax
	movq	$4, %r9
	cmpq	$3, %rax
	movq	144(%rsp), %r14
	je	.LBB2_50
# BB#48:                                # %cond.false276
	cmpq	$5, %rax
	movq	$6, %r9
	je	.LBB2_50
# BB#49:                                # %cond.false276
	movq	56(%rsp), %r9           # 8-byte Reload
.LBB2_50:                               # %cond.end283
	leaq	8(%r12), %rcx
	movq	%r14, %rax
	movabsq	$4294967295, %rsi       # imm = 0xFFFFFFFF
	andq	%rsi, %rax
	je	.LBB2_52
# BB#51:                                # %cond.end283
	leaq	-1(%r14), %rax
.LBB2_52:                               # %cond.end283
	movq	%rbx, 8(%rsp)
	leaq	72(%rsp), %rsi
	movq	%rax, (%rsp)
	movq	48(%rsp), %r8           # 8-byte Reload
	callq	find_reloads_address
	movq	72(%rsp), %rax
	cmpq	%r12, %rax
	je	.LBB2_58
# BB#53:                                # %cond.end283
	testq	%r15, %r15
	je	.LBB2_58
# BB#54:                                # %if.then296
	movq	(%r15), %rdi
	callq	copy_rtx
	movq	%rax, (%r15)
	movq	72(%rsp), %rcx
	movq	8(%rax), %rax
	movq	%rcx, 88(%rsp)
	movq	%rax, 80(%rsp)
	movzbl	(%rcx), %eax
	cmpq	$63, %rax
	je	.LBB2_128
# BB#55:                                # %copy_replacements.exit
	movl	n_replacements(%rip), %edx
	leaq	88(%rsp), %rdi
	leaq	80(%rsp), %rsi
	callq	copy_replacements_1
	movq	(%r15), %rax
	addq	$8, %rax
	cmpq	$0, 40(%rsp)            # 8-byte Folded Reload
	je	.LBB2_57
# BB#56:                                # %if.then305
	movq	(%rax), %rax
	addq	$8, %rax
.LBB2_57:                               # %if.end310
	movq	%rax, 64(%rsp)          # 8-byte Spill
.LBB2_58:                               # %if.end310
	movq	72(%rsp), %rdi
	movabsq	$4294967295, %rax       # imm = 0xFFFFFFFF
	testq	%rax, %r14
	je	.LBB2_69
# BB#59:                                # %lor.lhs.false313
	movq	8(%rdi), %rax
	movzbl	(%rax), %ecx
	movzbl	indirect_symref_ok(%rip), %ebx
	cmpq	$68, %rcx
	movabsq	$0, %rdx
	movabsq	$1, %r8
	movq	%rdx, %rsi
	jne	.LBB2_61
# BB#60:                                # %lor.lhs.false313
	movq	%r8, %rsi
.LBB2_61:                               # %lor.lhs.false313
	testq	%rbx, %rbx
	jne	.LBB2_63
# BB#62:                                # %lor.lhs.false313
	movq	%r8, %rdx
.LBB2_63:                               # %lor.lhs.false313
	testq	%rsi, %rdx
	jne	.LBB2_69
# BB#64:                                # %lor.lhs.false313
	cmpq	$66, %rcx
	je	.LBB2_69
# BB#65:                                # %lor.lhs.false331
	xorq	%r13, %r13
	cmpq	$61, %rcx
	je	.LBB2_127
# BB#66:                                # %lor.lhs.false331
	cmpq	$75, %rcx
	jne	.LBB2_69
# BB#67:                                # %land.lhs.true347
	movq	8(%rax), %rcx
	movzbl	(%rcx), %ecx
	cmpq	$61, %rcx
	jne	.LBB2_69
# BB#68:                                # %land.lhs.true358
	movq	16(%rax), %rax
	movzbl	(%rax), %eax
	cmpq	$54, %rax
	je	.LBB2_127
.LBB2_69:                               # %if.then369
	movzbl	2(%rdi), %r9d
	movq	56(%rsp), %rax          # 8-byte Reload
	movq	%rax, 32(%rsp)
	movq	48(%rsp), %rax          # 8-byte Reload
	movq	%rax, 24(%rsp)
	movq	$0, 16(%rsp)
	movq	$0, 8(%rsp)
	xorq	%rsi, %rsi
	xorq	%rcx, %rcx
	movq	$12, %r8
	movq	$0, (%rsp)
	movq	64(%rsp), %rdx          # 8-byte Reload
	callq	push_reload
	jmp	.LBB2_125
.LBB2_85:                               # %if.else520
	cmpq	$75, %rax
	jne	.LBB2_86
.LBB2_96:                               # %land.lhs.true525
	movq	16(%r12), %rax
	movzbl	(%rax), %eax
	cmpq	$54, %rax
	jne	.LBB2_86
# BB#97:                                # %land.lhs.true533
	movq	%rsi, 40(%rsp)          # 8-byte Spill
	movq	8(%r12), %rax
	movzbl	(%rax), %ecx
	cmpq	$75, %rcx
	jne	.LBB2_87
# BB#98:                                # %land.lhs.true541
	movq	8(%rax), %rax
	movq	global_rtl+24(%rip), %rcx
	cmpq	%rcx, %rax
	je	.LBB2_102
# BB#99:                                # %land.lhs.true541
	movq	global_rtl+32(%rip), %rcx
	cmpq	%rcx, %rax
	je	.LBB2_102
# BB#100:                               # %land.lhs.true541
	movq	global_rtl+40(%rip), %rcx
	cmpq	%rcx, %rax
	je	.LBB2_102
# BB#101:                               # %land.lhs.true541
	movq	global_rtl+16(%rip), %rcx
	cmpq	%rcx, %rax
	jne	.LBB2_87
.LBB2_102:                              # %land.lhs.true577
	movq	%r14, %rdi
	movq	%r12, %rsi
	callq	memory_address_p
	movl	(%r12), %r13d
	movabsq	$4294967295, %rcx       # imm = 0xFFFFFFFF
	testq	%rcx, %rax
	jne	.LBB2_87
# BB#103:                               # %if.then580
	movq	8(%r12), %rax
	movq	16(%r12), %rcx
	movq	8(%rax), %rdi
	movq	8(%rcx), %rsi
	movq	$16, %rcx
	shrq	%cl, %r13
	andq	$255, %r13
	callq	plus_constant_wide
	movq	8(%r12), %rcx
	movq	16(%rcx), %rcx
	movq	$75, %rdi
	movq	%r13, %rsi
	movq	%rax, %rdx
	callq	gen_rtx_fmt_ee
	movq	%rax, %r12
	movq	64(%rsp), %rax          # 8-byte Reload
	movq	%r12, (%rax)
	movq	8(%r12), %rdi
	movzbl	2(%r12), %ecx
	leaq	8(%r12), %rsi
	movq	$12, %rdx
	movq	144(%rsp), %rax
	movq	%rax, (%rsp)
	movq	48(%rsp), %r15          # 8-byte Reload
	movq	%r15, %r8
	movq	56(%rsp), %r14          # 8-byte Reload
	movq	%r14, %r9
	callq	find_reloads_address_part
	movq	16(%r12), %rdi
	leaq	16(%r12), %rdx
	jmp	.LBB2_104
.LBB2_86:
	movq	%rsi, 40(%rsp)          # 8-byte Spill
.LBB2_87:                               # %if.else619
	andq	$65535, %r13            # imm = 0xFFFF
	cmpq	$75, %r13
	jne	.LBB2_105
# BB#88:                                # %land.lhs.true624
	movq	16(%r12), %rax
	movzbl	(%rax), %eax
	cmpq	$54, %rax
	jne	.LBB2_105
# BB#89:                                # %land.lhs.true632
	movq	8(%r12), %rax
	movzbl	(%rax), %ecx
	cmpq	$75, %rcx
	jne	.LBB2_105
# BB#90:                                # %land.lhs.true640
	movq	16(%rax), %rax
	movq	global_rtl+24(%rip), %rcx
	cmpq	%rcx, %rax
	je	.LBB2_94
# BB#91:                                # %land.lhs.true640
	movq	global_rtl+32(%rip), %rcx
	cmpq	%rcx, %rax
	je	.LBB2_94
# BB#92:                                # %land.lhs.true640
	movq	global_rtl+40(%rip), %rcx
	cmpq	%rcx, %rax
	je	.LBB2_94
# BB#93:                                # %land.lhs.true640
	movq	global_rtl+16(%rip), %rcx
	cmpq	%rcx, %rax
	jne	.LBB2_105
.LBB2_94:                               # %land.lhs.true676
	movq	%r14, %rdi
	movq	%r12, %rsi
	callq	memory_address_p
	movabsq	$4294967295, %rcx       # imm = 0xFFFFFFFF
	testq	%rcx, %rax
	je	.LBB2_95
.LBB2_105:                              # %if.end722
	movq	%r12, 72(%rsp)
	movzbl	(%r12), %eax
	cmpq	$75, %rax
	jne	.LBB2_112
# BB#106:                               # %if.end729
	movq	%r12, %rdi
	callq	subst_indexed_address
	cmpq	%r12, %rax
	movq	%rax, 72(%rsp)
	je	.LBB2_112
# BB#107:                               # %land.lhs.true732
	movq	$1, %rdx
	movq	%r14, %rdi
	movq	%rax, %rsi
	callq	legitimate_address_p
	movabsq	$4294967295, %rcx       # imm = 0xFFFFFFFF
	testq	%rcx, %rax
	je	.LBB2_112
# BB#108:                               # %if.then735
	movq	72(%rsp), %rdi
	xorq	%r13, %r13
	movb	%r13b, subst_reg_equivs_changed(%rip)
	movq	%rbx, %rsi
	callq	subst_reg_equivs
	movzbl	subst_reg_equivs_changed(%rip), %ecx
	movq	%rax, 72(%rsp)
	testq	%rcx, %rcx
	je	.LBB2_111
# BB#109:                               # %lor.lhs.false738
	movq	$1, %rdx
	movq	%r14, %rdi
	movq	%rax, %rsi
	callq	legitimate_address_p
	movabsq	$4294967295, %rcx       # imm = 0xFFFFFFFF
	testq	%rcx, %rax
	je	.LBB2_112
# BB#110:                               # %lor.lhs.false738.if.then741_crit_edge
	movq	72(%rsp), %rax
.LBB2_111:                              # %if.then741
	movq	64(%rsp), %rcx          # 8-byte Reload
	movq	%rax, (%rcx)
	jmp	.LBB2_127
.LBB2_112:                              # %if.end743
	movzbl	(%r12), %ecx
	cmpq	$133, %rcx
	jg	.LBB2_116
# BB#113:                               # %if.end743
	addq	$-54, %rcx
	movabsq	$4294967295, %rax       # imm = 0xFFFFFFFF
	andq	%rax, %rcx
	cmpq	$14, %rcx
	movq	144(%rsp), %r13
	ja	.LBB2_115
# BB#114:                               # %if.end743
	movq	$1, %rax
	shlq	%cl, %rax
	testq	$24599, %rax            # imm = 0x6017
	jne	.LBB2_118
	jmp	.LBB2_115
.LBB2_116:                              # %if.end743
	cmpq	$134, %rcx
	movq	144(%rsp), %r13
	je	.LBB2_118
# BB#117:                               # %if.end743
	cmpq	$140, %rcx
	jne	.LBB2_115
.LBB2_118:                              # %land.lhs.true783
	movq	$1, %rdx
	movq	%r14, %rdi
	movq	%r12, %rsi
	callq	legitimate_address_p
	movabsq	$4294967295, %rcx       # imm = 0xFFFFFFFF
	testq	%rcx, %rax
	je	.LBB2_119
.LBB2_115:                              # %if.end816
	xorq	%rsi, %rsi
	movq	%rbx, (%rsp)
	movq	%r12, %rdi
	movq	64(%rsp), %rdx          # 8-byte Reload
	movq	48(%rsp), %rcx          # 8-byte Reload
	movq	56(%rsp), %r8           # 8-byte Reload
	movq	%r13, %r9
	callq	find_reloads_address_1
	jmp	.LBB2_126
.LBB2_119:                              # %if.then786
	testq	%r15, %r15
	je	.LBB2_120
# BB#121:                               # %land.lhs.true788
	movl	(%r12), %eax
	andq	$67174399, %rax         # imm = 0x400FFFF
	cmpq	$67108932, %rax         # imm = 0x4000044
	movq	64(%rsp), %rsi          # 8-byte Reload
	jne	.LBB2_124
# BB#122:                               # %if.then798
	movq	(%r15), %rdi
	callq	copy_rtx
	movq	%rax, %rsi
	movq	%rsi, (%r15)
	addq	$8, %rsi
	cmpq	$0, 40(%rsp)            # 8-byte Folded Reload
	je	.LBB2_124
# BB#123:                               # %if.then804
	movq	(%rsi), %rsi
	addq	$8, %rsi
	jmp	.LBB2_124
.LBB2_120:
	movq	64(%rsp), %rsi          # 8-byte Reload
.LBB2_124:                              # %if.end809
	movl	target_flags(%rip), %eax
	movq	$25, %rcx
	shrq	%cl, %rax
	andq	$1, %rax
	orq	$4, %rax
	movq	$12, %rdx
	movq	%r13, (%rsp)
	movq	%r12, %rdi
	movq	%rax, %rcx
	movq	48(%rsp), %r8           # 8-byte Reload
	movq	56(%rsp), %r9           # 8-byte Reload
	callq	find_reloads_address_part
.LBB2_125:                              # %return
	movq	40(%rsp), %rax          # 8-byte Reload
	xorq	$1, %rax
.LBB2_126:                              # %return
	movq	%rax, %r13
	jmp	.LBB2_127
.LBB2_84:                               # %if.else513
	movl	target_flags(%rip), %eax
	movq	$25, %rcx
	shrq	%cl, %rax
	andq	$1, %rax
	orq	$4, %rax
	movq	$12, %rdx
	movq	%rbx, (%rsp)
	movq	%r12, %rdi
	movq	64(%rsp), %rsi          # 8-byte Reload
	movq	%rax, %rcx
	movq	48(%rsp), %r8           # 8-byte Reload
	movq	56(%rsp), %r9           # 8-byte Reload
	callq	find_reloads_address_part
	xorq	$1, %r14
	movq	%r14, %r13
	jmp	.LBB2_127
.LBB2_95:                               # %if.then679
	movq	8(%r12), %rax
	movq	16(%r12), %rcx
	movq	8(%rax), %r14
	movq	16(%rax), %rdi
	movq	8(%rcx), %rsi
	movzbl	2(%r12), %r15d
	callq	plus_constant_wide
	movq	$75, %rdi
	movq	%r15, %rsi
	movq	%r14, %rdx
	movq	%rax, %rcx
	callq	gen_rtx_fmt_ee
	movq	%rax, %r12
	movq	64(%rsp), %rax          # 8-byte Reload
	movq	%r12, (%rax)
	movq	16(%r12), %rdi
	movzbl	2(%r12), %ecx
	leaq	16(%r12), %rsi
	movq	$12, %rdx
	movq	144(%rsp), %rax
	movq	%rax, (%rsp)
	movq	48(%rsp), %r15          # 8-byte Reload
	movq	%r15, %r8
	movq	56(%rsp), %r14          # 8-byte Reload
	movq	%r14, %r9
	callq	find_reloads_address_part
	movq	8(%r12), %rdi
	leaq	8(%r12), %rdx
.LBB2_104:                              # %return
	movq	%rbx, (%rsp)
	movq	$1, %rsi
	xorq	%r9, %r9
	xorq	%r13, %r13
	movq	%r15, %rcx
	movq	%r14, %r8
	callq	find_reloads_address_1
	jmp	.LBB2_127
.LBB2_22:                               # %land.lhs.true69
	cmpq	$134, %rcx
	je	.LBB2_24
# BB#23:                                # %land.lhs.true69
	cmpq	$140, %rcx
	jne	.LBB2_21
.LBB2_24:                               # %if.then149
	movq	%r13, %r14
	movl	replace_reloads(%rip), %eax
	xorq	%r13, %r13
	testq	%rax, %rax
	je	.LBB2_127
# BB#25:                                # %if.then149
	movl	num_not_at_initial_offset(%rip), %eax
	testq	%rdx, %rax
	je	.LBB2_127
# BB#26:                                # %land.lhs.true153
	movq	reg_equiv_mem(%rip), %rax
	movq	%rdx, %rbx
	movq	(%rax,%r15,8), %rsi
	callq	rtx_equal_p
	testq	%rbx, %rax
	jne	.LBB2_127
# BB#27:                                # %if.then158
	movq	72(%rsp), %rax
	movq	64(%rsp), %rcx          # 8-byte Reload
	movq	%rax, (%rcx)
	movq	$48, %rdi
	xorq	%rsi, %rsi
	xorq	%r13, %r13
	movq	%r12, %rdx
	callq	gen_rtx_fmt_e
	movq	%rax, %rdi
	movq	%r14, %rsi
	callq	emit_insn_before
	movq	$2, %rcx
	movb	%cl, 2(%rax)
	jmp	.LBB2_127
.LBB2_21:                               # %if.end164
	movq	72(%rsp), %r12
.LBB2_35:                               # %if.end199
	movzbl	2(%r12), %r9d
	movq	56(%rsp), %rax          # 8-byte Reload
	movq	%rax, 32(%rsp)
	movq	48(%rsp), %rax          # 8-byte Reload
	movq	%rax, 24(%rsp)
	movq	$0, 16(%rsp)
	movq	$0, 8(%rsp)
	xorq	%rsi, %rsi
	xorq	%rcx, %rcx
	movq	$12, %r8
	movq	$0, (%rsp)
	movq	%r12, %rdi
	movq	64(%rsp), %rdx          # 8-byte Reload
	callq	push_reload
	movq	$1, %r13
.LBB2_127:                              # %return
	movq	%r13, %rax
	addq	$96, %rsp
	popq	%rbx
	popq	%r12
	popq	%r13
	popq	%r14
	popq	%r15
	retq
.LBB2_128:                              # %if.then.i
	movabsq	$.L.str, %rax
	movabsq	$.L__FUNCTION__.copy_replacements, %rcx
	movq	$5935, %rsi             # imm = 0x172F
	movq	%rax, %rdi
	movq	%rcx, %rdx
	callq	fancy_abort
.Ltmp38:
	.size	find_reloads_address, .Ltmp38-find_reloads_address
	.cfi_endproc

	.globl	clear_secondary_mem
	.align	16, 0x90
	.type	clear_secondary_mem,@function
clear_secondary_mem:                    # @clear_secondary_mem
	.cfi_startproc
# BB#0:                                 # %entry
	pushq	%rax
.Ltmp40:
	.cfi_def_cfa_offset 16
	movabsq	$secondary_memlocs, %rdi
	xorq	%rsi, %rsi
	movq	$472, %rdx              # imm = 0x1D8
	callq	memset
	popq	%rax
	retq
.Ltmp41:
	.size	clear_secondary_mem, .Ltmp41-clear_secondary_mem
	.cfi_endproc

	.globl	push_reload
	.align	16, 0x90
	.type	push_reload,@function
push_reload:                            # @push_reload
	.cfi_startproc
# BB#0:                                 # %entry
	pushq	%r15
.Ltmp48:
	.cfi_def_cfa_offset 16
	pushq	%r14
.Ltmp49:
	.cfi_def_cfa_offset 24
	pushq	%r13
.Ltmp50:
	.cfi_def_cfa_offset 32
	pushq	%r12
.Ltmp51:
	.cfi_def_cfa_offset 40
	pushq	%rbx
.Ltmp52:
	.cfi_def_cfa_offset 48
	subq	$176, %rsp
.Ltmp53:
	.cfi_def_cfa_offset 224
.Ltmp54:
	.cfi_offset %rbx, -48
.Ltmp55:
	.cfi_offset %r12, -40
.Ltmp56:
	.cfi_offset %r13, -32
.Ltmp57:
	.cfi_offset %r14, -24
.Ltmp58:
	.cfi_offset %r15, -16
	movq	%r9, %r12
	movq	%r8, 144(%rsp)          # 8-byte Spill
	movq	%rcx, 104(%rsp)         # 8-byte Spill
	movq	%rdx, 112(%rsp)         # 8-byte Spill
	movq	%rsi, %rbx
	movabsq	$4294967295, %rax       # imm = 0xFFFFFFFF
	testq	%rax, %r12
	jne	.LBB4_3
# BB#1:                                 # %entry
	testq	%rdi, %rdi
	je	.LBB4_3
# BB#2:                                 # %if.then
	movzbl	2(%rdi), %r12d
.LBB4_3:                                # %if.end
	movq	224(%rsp), %r13
	testq	%rax, %r13
	jne	.LBB4_6
# BB#4:                                 # %if.end
	testq	%rbx, %rbx
	je	.LBB4_6
# BB#5:                                 # %if.then5
	movzbl	2(%rbx), %r13d
.LBB4_6:                                # %if.end9
	testq	%rdi, %rdi
	movabsq	$0, %r15
	je	.LBB4_13
# BB#7:                                 # %land.lhs.true11
	movzbl	(%rdi), %eax
	cmpq	$61, %rax
	jne	.LBB4_12
# BB#8:                                 # %if.then15
	movslq	8(%rdi), %rax
	cmpq	$53, %rax
	jl	.LBB4_12
# BB#9:                                 # %land.lhs.true17
	movq	reg_renumber(%rip), %rcx
	movswq	(%rcx,%rax,2), %rcx
	testq	%rcx, %rcx
	jns	.LBB4_12
# BB#10:                                # %land.lhs.true21
	movq	reg_equiv_constant(%rip), %rcx
	movq	(%rcx,%rax,8), %rax
	testq	%rax, %rax
	je	.LBB4_12
# BB#11:                                # %land.lhs.true21
	movq	%rax, %rdi
.LBB4_12:                               # %land.lhs.true21
	movq	%rdi, %r15
.LBB4_13:                               # %if.end30
	testq	%rbx, %rbx
	je	.LBB4_14
# BB#15:                                # %land.lhs.true33
	movzbl	(%rbx), %eax
	cmpq	$61, %rax
	jne	.LBB4_20
# BB#16:                                # %if.then38
	movslq	8(%rbx), %rax
	cmpq	$53, %rax
	jl	.LBB4_20
# BB#17:                                # %land.lhs.true45
	movq	reg_renumber(%rip), %rcx
	movswq	(%rcx,%rax,2), %rcx
	testq	%rcx, %rcx
	jns	.LBB4_20
# BB#18:                                # %land.lhs.true51
	movq	reg_equiv_constant(%rip), %rcx
	movq	(%rcx,%rax,8), %rax
	testq	%rax, %rax
	je	.LBB4_20
# BB#19:                                # %land.lhs.true51
	movq	%rax, %rbx
.LBB4_20:                               # %if.end60
	testq	%r15, %r15
	je	.LBB4_29
# BB#21:                                # %if.end60
	testq	%rbx, %rbx
	je	.LBB4_29
# BB#22:                                # %land.lhs.true66
	movzbl	(%r15), %eax
	cmpq	$66, %rax
	jne	.LBB4_29
# BB#23:                                # %land.lhs.true71
	movq	%r15, %rdi
	movq	%rbx, %rsi
	callq	rtx_equal_p
	movabsq	$4294967295, %rdx       # imm = 0xFFFFFFFF
	testq	%rdx, %rax
	je	.LBB4_29
# BB#24:                                # %if.then72
	movq	8(%r15), %rax
	movzbl	(%rax), %ecx
	addq	$-96, %rcx
	andq	%rdx, %rcx
	cmpq	$5, %rcx
	ja	.LBB4_29
# BB#25:                                # %if.then72
	movq	$1, %rdx
	movq	$1, %rsi
	shlq	%cl, %rsi
	testq	$19, %rsi
	je	.LBB4_26
# BB#28:                                # %sw.bb84
	movq	8(%rbx), %rax
	movq	8(%rax), %rsi
	movq	%rbx, %rdi
	callq	replace_equiv_address_nv
	movq	%rax, %rbx
	jmp	.LBB4_29
.LBB4_14:
	xorq	%rbx, %rbx
.LBB4_29:                               # %if.end92
	movq	232(%rsp), %r14
	movq	$0, 120(%rsp)           # 8-byte Folded Spill
	testq	%r15, %r15
	je	.LBB4_30
# BB#31:                                # %land.lhs.true95
	movzbl	(%r15), %eax
	cmpq	$63, %rax
	jne	.LBB4_32
# BB#33:                                # %land.lhs.true100
	movq	$1, 160(%rsp)           # 8-byte Folded Spill
	movq	%r15, %rdi
	callq	subreg_lowpart_p
	orq	%r14, %rax
	movq	$0, 96(%rsp)            # 8-byte Folded Spill
	movabsq	$4294967295, %rdi       # imm = 0xFFFFFFFF
	testq	%rdi, %rax
	je	.LBB4_34
# BB#38:                                # %land.lhs.true104
	movq	%r13, 128(%rsp)         # 8-byte Spill
	movq	8(%r15), %rsi
	movl	(%rsi), %r8d
	leaq	8(%r15), %r13
	movq	%r8, %rax
	andq	$65535, %rax            # imm = 0xFFFF
	cmpq	$133, %rax
	jg	.LBB4_41
# BB#39:                                # %land.lhs.true104
	leaq	-54(%rax), %rcx
	andq	%rdi, %rcx
	cmpq	$14, %rcx
	ja	.LBB4_43
# BB#40:                                # %land.lhs.true104
	movq	$1, %rdx
	shlq	%cl, %rdx
	testq	$24599, %rdx            # imm = 0x6017
	jne	.LBB4_74
	jmp	.LBB4_43
.LBB4_30:
	movq	$1, 160(%rsp)           # 8-byte Folded Spill
	movq	$0, 80(%rsp)            # 8-byte Folded Spill
	xorq	%rdi, %rdi
	movq	$0, 96(%rsp)            # 8-byte Folded Spill
	jmp	.LBB4_83
.LBB4_32:
	movq	$0, 80(%rsp)            # 8-byte Folded Spill
	jmp	.LBB4_36
.LBB4_34:
	movq	%r15, %rsi
	movq	$0, 80(%rsp)            # 8-byte Folded Spill
	movq	%r12, %r8
	jmp	.LBB4_35
.LBB4_41:                               # %land.lhs.true104
	cmpq	$134, %rax
	je	.LBB4_74
# BB#42:                                # %land.lhs.true104
	cmpq	$140, %rax
	je	.LBB4_74
.LBB4_43:                               # %lor.lhs.false168
	cmpq	$75, %rax
	je	.LBB4_74
# BB#44:                                # %lor.lhs.false168
	testq	%rdi, %r14
	jne	.LBB4_74
# BB#45:                                # %lor.lhs.false178
	cmpq	$61, %rax
	jne	.LBB4_61
# BB#46:                                # %land.lhs.true186
	movl	8(%rsi), %ecx
	cmpq	$52, %rcx
	jbe	.LBB4_49
	jmp	.LBB4_47
.LBB4_26:                               # %if.then72
	shlq	%cl, %rdx
	testq	$44, %rdx
	je	.LBB4_29
# BB#27:                                # %sw.bb
	movq	8(%rax), %rsi
	movq	%r15, %rdi
	callq	replace_equiv_address_nv
	movq	%rax, %r15
	jmp	.LBB4_29
.LBB4_61:                               # %lor.lhs.false195
	cmpq	$66, %rax
	jne	.LBB4_62
.LBB4_47:                               # %land.lhs.true203
	movq	$32, %rcx
	movq	%r12, %rdx
	shlq	%cl, %rdx
	movq	$32, %rcx
	sarq	%cl, %rdx
	movzbl	mode_size(%rdx), %edx
	movq	$16, %rcx
	movq	%r8, %rdi
	shrq	%cl, %rdi
	andq	$255, %rdi
	movzbl	mode_size(%rdi), %ecx
	cmpq	%rcx, %rdx
	ja	.LBB4_74
# BB#48:                                # %lor.lhs.false218
	cmpq	$61, %rax
	jne	.LBB4_62
.LBB4_49:                               # %land.lhs.true226
	movl	8(%rsi), %eax
	cmpq	$52, %rax
	ja	.LBB4_62
# BB#50:                                # %land.lhs.true235
	testq	%rbx, %rbx
	je	.LBB4_52
# BB#51:                                # %lor.lhs.false238
	movq	%r15, %rdi
	callq	subreg_lowpart_p
	movabsq	$4294967295, %rcx       # imm = 0xFFFFFFFF
	testq	%rcx, %rax
	je	.LBB4_62
.LBB4_52:                               # %land.lhs.true241
	movq	$32, %rcx
	movq	%r12, %rax
	shlq	%cl, %rax
	movq	$32, %rcx
	movl	target_flags(%rip), %r9d
	sarq	%cl, %rax
	movzbl	mode_size(%rax), %eax
	movq	$23, %rcx
	movq	%r9, %r10
	shrq	%cl, %r10
	andq	$4, %r10
	leaq	4(%r10), %r11
	movabsq	$4294967292, %rcx       # imm = 0xFFFFFFFC
	andq	%r11, %rcx
	cmpq	%rcx, %rax
	ja	.LBB4_72
# BB#53:                                # %land.lhs.true248
	movq	(%r13), %rsi
	movl	(%rsi), %r8d
	movq	$16, %rcx
	movq	%r8, %rdi
	shrq	%cl, %rdi
	andq	$255, %rdi
	movzbl	mode_size(%rdi), %ecx
	movq	%r11, %rax
	movabsq	$4294967295, %rdx       # imm = 0xFFFFFFFF
	andq	%rdx, %rax
	cmpq	%rax, %rcx
	jbe	.LBB4_72
# BB#54:                                # %land.lhs.true263
	xorq	%rdx, %rdx
	movq	%rcx, %rax
	idivq	%r11
	movq	%rax, 168(%rsp)         # 8-byte Spill
	movl	8(%rsi), %eax
	movabsq	$4294967288, %rdx       # imm = 0xFFFFFFF8
	andq	%rax, %rdx
	cmpq	$8, %rdx
	movabsq	$4294967295, %r14       # imm = 0xFFFFFFFF
	je	.LBB4_58
# BB#55:                                # %land.lhs.true263
	leaq	-21(%rax), %rdx
	andq	%r14, %rdx
	cmpq	$8, %rdx
	jb	.LBB4_58
# BB#56:                                # %land.lhs.true263
	leaq	-45(%rax), %rdx
	andq	%r14, %rdx
	cmpq	$8, %rdx
	jb	.LBB4_58
# BB#57:                                # %land.lhs.true263
	addq	$-29, %rax
	andq	%r14, %rax
	cmpq	$7, %rax
	jbe	.LBB4_58
# BB#65:                                # %cond.false
	cmpq	$24, %rdi
	jne	.LBB4_66
# BB#68:                                # %cond.true389
	movq	$24, %rcx
	shrq	%cl, %r9
	andq	$2, %r9
	xorq	$6, %r9
	jmp	.LBB4_70
.LBB4_58:                               # %cond.true
	movl	mode_class(,%rdi,4), %eax
	cmpq	$5, %rax
	movq	$2, %r9
	movq	%r14, %rcx
	je	.LBB4_71
# BB#59:                                # %lor.rhs
	cmpq	$6, %rax
	jne	.LBB4_60
# BB#63:                                # %lor.rhs
	movabsq	$1, %r9
	incq	%r9
	jmp	.LBB4_71
.LBB4_66:                               # %cond.false
	cmpq	$18, %rdi
	jne	.LBB4_69
# BB#67:                                # %cond.true376
	movq	$25, %rcx
	shrq	%cl, %r9
	andq	$1, %r9
	xorq	$3, %r9
	jmp	.LBB4_70
.LBB4_60:
	movabsq	$0, %r9
	incq	%r9
	jmp	.LBB4_71
.LBB4_69:                               # %cond.false393
	orq	$3, %r10
	addq	%rcx, %r10
	movq	%r10, %rax
	cqto
	idivq	%r11
	movq	%rax, %r9
.LBB4_70:                               # %cond.end413
	movq	%r14, %rcx
.LBB4_71:                               # %cond.end413
	andq	%rcx, %r9
	movq	168(%rsp), %rax         # 8-byte Reload
	andq	%rcx, %rax
	cmpq	%r9, %rax
	movq	232(%rsp), %r14
	jne	.LBB4_74
.LBB4_72:                               # %lor.lhs.false417
	movq	%r15, %rdi
	callq	subreg_regno
	movq	%rax, %rdi
	movq	%r12, %rsi
	callq	ix86_hard_regno_mode_ok
	movabsq	$4294967295, %rcx       # imm = 0xFFFFFFFF
	testq	%rcx, %rax
	je	.LBB4_73
.LBB4_62:
	movq	%r15, %rsi
	movq	$0, 80(%rsp)            # 8-byte Folded Spill
	movq	%r12, %r8
	movq	128(%rsp), %r13         # 8-byte Reload
	jmp	.LBB4_35
.LBB4_73:                               # %lor.lhs.false417.if.then421_crit_edge
	movq	(%r13), %rsi
	movl	(%rsi), %r8d
.LBB4_74:                               # %if.then421
	movq	%r8, %rax
	andq	$65535, %rax            # imm = 0xFFFF
	movq	$16, %rcx
	shrq	%cl, %r8
	andq	$255, %r8
	cmpq	$66, %rax
	jne	.LBB4_75
# BB#76:                                # %if.then429
	movzbl	mode_size(%r8), %eax
	movq	$32, %rcx
	shlq	%cl, %r12
	movq	$32, %rcx
	sarq	%cl, %r12
	movzbl	mode_size(%r12), %ecx
	cmpq	%rcx, %rax
	movq	112(%rsp), %rax         # 8-byte Reload
	movq	%rax, 80(%rsp)          # 8-byte Spill
	movq	%r13, 112(%rsp)         # 8-byte Spill
	movq	128(%rsp), %r13         # 8-byte Reload
	jbe	.LBB4_35
# BB#77:                                # %if.then441
	movabsq	$.L.str, %rax
	movabsq	$.L__FUNCTION__.push_reload, %rcx
	movq	$1035, %rsi             # imm = 0x40B
	jmp	.LBB4_78
.LBB4_75:
	movq	112(%rsp), %rax         # 8-byte Reload
	movq	%rax, 80(%rsp)          # 8-byte Spill
	movq	%r13, 112(%rsp)         # 8-byte Spill
	movq	128(%rsp), %r13         # 8-byte Reload
.LBB4_35:                               # %if.end447
	testq	%rsi, %rsi
	movq	%r8, %r12
	movq	%rsi, %r15
	movabsq	$0, %rdi
	je	.LBB4_83
.LBB4_36:                               # %land.lhs.true450
	movq	%r15, %rdi
	movq	%r12, %rsi
	callq	reload_inner_reg_of_subreg
	movabsq	$4294967295, %rcx       # imm = 0xFFFFFFFF
	testq	%rcx, %rax
	je	.LBB4_37
# BB#79:                                # %if.then453
	movq	%r13, %r14
	movq	%r12, %r13
	movq	8(%r15), %rdi
	movl	(%rdi), %esi
	movq	%rsi, %rax
	andq	$65535, %rax            # imm = 0xFFFF
	cmpq	$61, %rax
	jne	.LBB4_80
# BB#81:                                # %if.then461
	movq	$16, %rcx
	movzbl	2(%r15), %eax
	movl	16(%r15), %edx
	movl	8(%rdi), %edi
	shrq	%cl, %rsi
	andq	$255, %rsi
	leaq	8(%r15), %r12
	movq	%rax, %rcx
	callq	subreg_regno_offset
	movq	8(%r15), %rcx
	movl	8(%rcx), %edx
	movq	%r13, %rdi
	movq	%rax, %rsi
	callq	find_valid_class
	movq	8(%r15), %rdi
	movq	%rax, %r8
	jmp	.LBB4_82
.LBB4_37:
	movq	$0, 160(%rsp)           # 8-byte Folded Spill
	movq	%r15, %rdi
	movq	$0, 96(%rsp)            # 8-byte Folded Spill
	jmp	.LBB4_83
.LBB4_80:                               # %if.then453.if.end488_crit_edge
	leaq	8(%r15), %r12
	movq	144(%rsp), %r8          # 8-byte Reload
.LBB4_82:                               # %if.end488
	movq	248(%rsp), %rax
	movq	256(%rsp), %rcx
	movq	%rcx, 32(%rsp)
	movq	%rax, 24(%rsp)
	movq	$0, 16(%rsp)
	movq	$0, 8(%rsp)
	movq	$0, (%rsp)
	xorq	%rsi, %rsi
	xorq	%rcx, %rcx
	xorq	%r9, %r9
	movq	$0, 160(%rsp)           # 8-byte Folded Spill
	movq	%r12, %rdx
	callq	push_reload
	movq	$1, 96(%rsp)            # 8-byte Folded Spill
	movq	%r15, %rdi
	movq	%r13, %r12
	movq	%r14, %r13
	movq	232(%rsp), %r14
.LBB4_83:                               # %if.end496
	testq	%rbx, %rbx
	je	.LBB4_84
# BB#85:                                # %land.lhs.true499
	movzbl	(%rbx), %eax
	movq	$0, 88(%rsp)            # 8-byte Folded Spill
	cmpq	$63, %rax
	jne	.LBB4_86
# BB#91:                                # %land.lhs.true504
	movq	%rdi, 168(%rsp)         # 8-byte Spill
	movq	%rbx, %rdi
	callq	subreg_lowpart_p
	orq	%r14, %rax
	movq	$0, 120(%rsp)           # 8-byte Folded Spill
	movabsq	$4294967295, %rsi       # imm = 0xFFFFFFFF
	testq	%rsi, %rax
	je	.LBB4_92
# BB#93:                                # %land.lhs.true509
	movq	%r14, %rdi
	movq	%r13, %r15
	movq	8(%rbx), %rax
	movl	(%rax), %r8d
	leaq	8(%rbx), %r13
	movq	%rbx, 152(%rsp)         # 8-byte Spill
	movq	%r8, %rdx
	andq	$65535, %rdx            # imm = 0xFFFF
	cmpq	$133, %rdx
	jg	.LBB4_100
# BB#94:                                # %land.lhs.true509
	leaq	-54(%rdx), %rcx
	andq	%rsi, %rcx
	movq	%rsi, %r14
	cmpq	$14, %rcx
	ja	.LBB4_101
# BB#95:                                # %land.lhs.true509
	movq	$1, %rsi
	shlq	%cl, %rsi
	testq	$24599, %rsi            # imm = 0x6017
	jne	.LBB4_96
	jmp	.LBB4_101
.LBB4_84:
	movq	$0, 88(%rsp)            # 8-byte Folded Spill
	xorq	%rdx, %rdx
	xorq	%r15, %r15
	movabsq	$4294967295, %rsi       # imm = 0xFFFFFFFF
	movq	160(%rsp), %rcx         # 8-byte Reload
	jmp	.LBB4_145
.LBB4_86:
	movq	%rdi, 168(%rsp)         # 8-byte Spill
	jmp	.LBB4_87
.LBB4_92:
	movq	$0, 88(%rsp)            # 8-byte Folded Spill
	movq	%r13, %rax
	movq	104(%rsp), %rcx         # 8-byte Reload
	jmp	.LBB4_98
.LBB4_100:                              # %land.lhs.true509
	movq	%rsi, %r14
	cmpq	$134, %rdx
	je	.LBB4_96
.LBB4_101:                              # %lor.lhs.false565
	cmpq	$140, %rdx
	je	.LBB4_96
# BB#102:                               # %lor.lhs.false565
	testq	%r14, %rdi
	jne	.LBB4_96
# BB#103:                               # %lor.lhs.false575
	cmpq	$61, %rdx
	jne	.LBB4_105
# BB#104:                               # %land.lhs.true583
	movl	8(%rax), %ecx
	cmpq	$52, %rcx
	ja	.LBB4_106
	jmp	.LBB4_108
.LBB4_105:                              # %lor.lhs.false592
	cmpq	$66, %rdx
	jne	.LBB4_127
.LBB4_106:                              # %land.lhs.true600
	movq	$32, %rcx
	movq	%r15, %rsi
	shlq	%cl, %rsi
	movq	$32, %rcx
	sarq	%cl, %rsi
	movzbl	mode_size(%rsi), %esi
	movq	$16, %rcx
	movq	%r8, %rdi
	shrq	%cl, %rdi
	andq	$255, %rdi
	movzbl	mode_size(%rdi), %ecx
	cmpq	%rcx, %rsi
	ja	.LBB4_96
# BB#107:                               # %lor.lhs.false615
	cmpq	$61, %rdx
	jne	.LBB4_127
.LBB4_108:                              # %land.lhs.true623
	movl	8(%rax), %r11d
	cmpq	$52, %r11
	ja	.LBB4_127
# BB#109:                               # %land.lhs.true632
	movq	$32, %rcx
	movq	%r15, %rax
	shlq	%cl, %rax
	movq	$32, %rcx
	movl	target_flags(%rip), %r10d
	sarq	%cl, %rax
	movzbl	mode_size(%rax), %eax
	movq	$23, %rcx
	movq	%r10, %rsi
	shrq	%cl, %rsi
	andq	$4, %rsi
	leaq	4(%rsi), %rdi
	movabsq	$4294967292, %rcx       # imm = 0xFFFFFFFC
	andq	%rdi, %rcx
	cmpq	%rcx, %rax
	ja	.LBB4_126
# BB#110:                               # %land.lhs.true641
	movq	$16, %rcx
	shrq	%cl, %r8
	andq	$255, %r8
	movzbl	mode_size(%r8), %r9d
	movq	%rdi, %rax
	andq	%r14, %rax
	cmpq	%rax, %r9
	jbe	.LBB4_126
# BB#111:                               # %land.lhs.true656
	xorq	%rdx, %rdx
	movq	%r9, %rax
	idivq	%rdi
	movq	%rax, %rbx
	movabsq	$4294967288, %rax       # imm = 0xFFFFFFF8
	andq	%r11, %rax
	cmpq	$8, %rax
	je	.LBB4_115
# BB#112:                               # %lor.lhs.false687
	cmpq	$52, %r11
	ja	.LBB4_114
# BB#113:                               # %lor.lhs.false687
	movq	$1, %rax
	movq	%r11, %rcx
	shlq	%cl, %rax
	movabsq	$8972015417425920, %rcx # imm = 0x1FE0001FE00000
	testq	%rcx, %rax
	jne	.LBB4_115
.LBB4_114:                              # %lor.lhs.false723
	addq	$-29, %r11
	andq	%r14, %r11
	cmpq	$7, %r11
	ja	.LBB4_120
.LBB4_115:                              # %cond.true741
	movl	mode_class(,%r8,4), %eax
	cmpq	$5, %rax
	movq	$2, %r10
	je	.LBB4_125
# BB#116:                               # %lor.rhs752
	cmpq	$6, %rax
	jne	.LBB4_117
# BB#118:                               # %lor.rhs752
	movabsq	$1, %r10
	incq	%r10
	jmp	.LBB4_125
.LBB4_117:
	movabsq	$0, %r10
	incq	%r10
	jmp	.LBB4_125
.LBB4_120:                              # %cond.false765
	cmpq	$24, %r8
	jne	.LBB4_121
# BB#123:                               # %cond.true787
	movq	$24, %rcx
	shrq	%cl, %r10
	andq	$2, %r10
	xorq	$6, %r10
	jmp	.LBB4_125
.LBB4_121:                              # %cond.false765
	cmpq	$18, %r8
	jne	.LBB4_124
# BB#122:                               # %cond.true774
	movq	$25, %rcx
	shrq	%cl, %r10
	andq	$1, %r10
	xorq	$3, %r10
	jmp	.LBB4_125
.LBB4_124:                              # %cond.false791
	orq	$3, %rsi
	addq	%r9, %rsi
	movq	%rsi, %rax
	cqto
	idivq	%rdi
	movq	%rax, %r10
.LBB4_125:                              # %cond.end814
	andq	%r14, %r10
	andq	%r14, %rbx
	cmpq	%r10, %rbx
	jne	.LBB4_96
.LBB4_126:                              # %lor.lhs.false818
	movq	152(%rsp), %rdi         # 8-byte Reload
	callq	subreg_regno
	movq	%rax, %rdi
	movq	%r15, %rsi
	callq	ix86_hard_regno_mode_ok
	testq	%r14, %rax
	je	.LBB4_96
.LBB4_127:                              # %lor.lhs.false822
	movq	144(%rsp), %rax         # 8-byte Reload
	leaq	-10(%rax), %rax
	movq	%r14, %rsi
	andq	%rsi, %rax
	cmpq	$2, %rax
	ja	.LBB4_128
# BB#129:                               # %land.lhs.true831
	movl	target_flags(%rip), %eax
	testq	$33554432, %rax         # imm = 0x2000000
	movq	152(%rsp), %rbx         # 8-byte Reload
	movq	104(%rsp), %rcx         # 8-byte Reload
	jne	.LBB4_130
# BB#131:                               # %land.lhs.true831
	movq	%r15, %rax
	andq	%rsi, %rax
	cmpq	$2, %rax
	jne	.LBB4_130
# BB#132:                               # %land.rhs851
	movq	%rsi, %r14
	movq	(%r13), %rax
	movl	(%rax), %eax
	andq	$16711680, %rax         # imm = 0xFF0000
	cmpq	$131072, %rax           # imm = 0x20000
	movq	$2, %rax
	jne	.LBB4_96
# BB#133:
	movq	$0, 88(%rsp)            # 8-byte Folded Spill
	movq	%r14, %rsi
	movq	104(%rsp), %rcx         # 8-byte Reload
	jmp	.LBB4_98
.LBB4_96:                               # %if.then864
	movq	(%r13), %rbx
	movl	(%rbx), %eax
	movq	%rax, %rdx
	andq	$65535, %rdx            # imm = 0xFFFF
	movq	$16, %rcx
	shrq	%cl, %rax
	andq	$255, %rax
	cmpq	$66, %rdx
	jne	.LBB4_97
# BB#134:                               # %land.lhs.true872
	movzbl	mode_size(%rax), %edx
	movq	$32, %rcx
	shlq	%cl, %r15
	movq	$32, %rcx
	sarq	%cl, %r15
	movzbl	mode_size(%r15), %ecx
	cmpq	%rcx, %rdx
	movq	104(%rsp), %rcx         # 8-byte Reload
	movq	%rcx, 88(%rsp)          # 8-byte Spill
	movq	%r13, %rcx
	movq	%r14, %rsi
	jbe	.LBB4_98
# BB#135:                               # %if.then884
	movabsq	$.L.str, %rax
	movabsq	$.L__FUNCTION__.push_reload, %rcx
	movq	$1135, %rsi             # imm = 0x46F
	jmp	.LBB4_78
.LBB4_97:
	movq	104(%rsp), %rcx         # 8-byte Reload
	movq	%rcx, 88(%rsp)          # 8-byte Spill
	movq	%r13, %rcx
	movq	%r14, %rsi
	jmp	.LBB4_98
.LBB4_128:
	movq	$0, 88(%rsp)            # 8-byte Folded Spill
	movq	%r15, %rax
	movq	152(%rsp), %rbx         # 8-byte Reload
	movq	104(%rsp), %rcx         # 8-byte Reload
	jmp	.LBB4_98
.LBB4_130:
	movq	$0, 88(%rsp)            # 8-byte Folded Spill
	movq	%r15, %rax
.LBB4_98:                               # %if.end889
	movq	%rcx, 104(%rsp)         # 8-byte Spill
	movq	%rax, %r13
	testq	%rbx, %rbx
	je	.LBB4_99
.LBB4_87:                               # %land.lhs.true892
	movq	%rbx, %rdi
	movq	%r13, %rsi
	callq	reload_inner_reg_of_subreg
	movabsq	$4294967295, %rcx       # imm = 0xFFFFFFFF
	testq	%rcx, %rax
	je	.LBB4_89
# BB#88:                                # %if.then895
	movq	8(%rbx), %r15
	movzbl	2(%rbx), %ecx
	movl	16(%rbx), %edx
	movzbl	2(%r15), %esi
	movl	8(%r15), %edi
	movq	%r12, %r14
	leaq	8(%rbx), %r12
	callq	subreg_regno_offset
	movq	8(%rbx), %rcx
	movl	8(%rcx), %edx
	movq	%r13, %rdi
	movq	%rax, %rsi
	callq	find_valid_class
	movq	248(%rsp), %rcx
	movq	%rcx, 24(%rsp)
	movq	$9, 32(%rsp)
	movq	$0, 16(%rsp)
	movq	$0, 8(%rsp)
	xorq	%r9, %r9
	movq	$0, (%rsp)
	movq	%r15, %rdi
	movq	%r15, %rsi
	movq	%r12, %rdx
	movq	%r12, %rcx
	movq	%r14, %r12
	movq	%rax, %r8
	callq	push_reload
	movq	$1, 96(%rsp)            # 8-byte Folded Spill
.LBB4_89:                               # %if.end935
	movq	$0, 120(%rsp)           # 8-byte Folded Spill
	movq	$1, %r15
	movq	168(%rsp), %rdi         # 8-byte Reload
	testq	%rdi, %rdi
	je	.LBB4_90
# BB#136:                               # %land.lhs.true941
	movq	%rbx, %rdx
	movzbl	(%rdx), %eax
	cmpq	$66, %rax
	movq	160(%rsp), %rcx         # 8-byte Reload
	jne	.LBB4_137
# BB#138:                               # %land.lhs.true946
	movzbl	(%rdi), %eax
	cmpq	$61, %rax
	je	.LBB4_141
# BB#139:                               # %land.lhs.true946
	cmpq	$66, %rax
	jne	.LBB4_140
.LBB4_141:                              # %land.lhs.true956
	movq	%rcx, %r14
	movq	8(%rdx), %rsi
	movq	%rdx, 152(%rsp)         # 8-byte Spill
	movq	%rdi, %rbx
	callq	reg_overlap_mentioned_for_reload_p
	movabsq	$4294967295, %rsi       # imm = 0xFFFFFFFF
	testq	%rsi, %rax
	je	.LBB4_142
# BB#143:                               # %land.lhs.true956
	movabsq	$1, %rax
	jmp	.LBB4_144
.LBB4_90:
	movabsq	$4294967295, %rsi       # imm = 0xFFFFFFFF
	movq	%rbx, %rdx
	movq	160(%rsp), %rcx         # 8-byte Reload
	jmp	.LBB4_145
.LBB4_137:
	movabsq	$4294967295, %rsi       # imm = 0xFFFFFFFF
	jmp	.LBB4_145
.LBB4_99:
	xorq	%rdx, %rdx
	xorq	%r15, %r15
	movq	168(%rsp), %rdi         # 8-byte Reload
	movq	160(%rsp), %rcx         # 8-byte Reload
	jmp	.LBB4_145
.LBB4_142:
	movabsq	$0, %rax
.LBB4_144:                              # %land.lhs.true956
	movq	%rax, 120(%rsp)         # 8-byte Spill
	movq	%r14, %rcx
	movq	152(%rsp), %rdx         # 8-byte Reload
	movq	%rbx, %rdi
	jmp	.LBB4_145
.LBB4_140:
	movabsq	$4294967295, %rsi       # imm = 0xFFFFFFFF
.LBB4_145:                              # %if.end963
	testq	%rcx, %rcx
	jne	.LBB4_151
# BB#146:                               # %land.lhs.true966
	movl	(%rdi), %ebx
	movq	%rbx, %rax
	andq	$65535, %rax            # imm = 0xFFFF
	cmpq	$63, %rax
	jne	.LBB4_151
# BB#147:                               # %land.lhs.true971
	movq	8(%rdi), %rax
	movzbl	(%rax), %ecx
	cmpq	$61, %rcx
	jne	.LBB4_151
# BB#148:                               # %land.lhs.true979
	movl	8(%rax), %eax
	cmpq	$52, %rax
	ja	.LBB4_151
# BB#149:                               # %land.lhs.true979
	cmpq	$0, 96(%rsp)            # 8-byte Folded Reload
	jne	.LBB4_151
# BB#150:                               # %if.then990
	movq	$16, %rcx
	shrq	%cl, %rbx
	andq	$255, %rbx
	movq	%rsi, %r14
	movq	%r13, 128(%rsp)         # 8-byte Spill
	movq	%r12, %r13
	movq	%rdx, %r12
	callq	subreg_regno
	movq	%rbx, %rdi
	movq	%rax, %rsi
	callq	gen_rtx_REG
	movq	%r12, %rdx
	movq	%r13, %r12
	movq	128(%rsp), %r13         # 8-byte Reload
	movq	%r14, %rsi
	movq	%rax, %rdi
.LBB4_151:                              # %if.end996
	testq	%r15, %r15
	je	.LBB4_152
# BB#153:                               # %land.lhs.true999
	movl	(%rdx), %ebx
	movq	%rbx, %rax
	andq	$65535, %rax            # imm = 0xFFFF
	cmpq	$63, %rax
	jne	.LBB4_154
# BB#155:                               # %land.lhs.true1004
	movq	%rdi, %r15
	movq	%rsi, %r14
	movq	8(%rdx), %rax
	movzbl	(%rax), %ecx
	cmpq	$61, %rcx
	jne	.LBB4_159
# BB#156:                               # %land.lhs.true1012
	movl	8(%rax), %eax
	cmpq	$52, %rax
	ja	.LBB4_159
# BB#157:                               # %land.lhs.true1012
	cmpq	$0, 96(%rsp)            # 8-byte Folded Reload
	jne	.LBB4_159
# BB#158:                               # %if.then1023
	movq	$16, %rcx
	shrq	%cl, %rbx
	andq	$255, %rbx
	movq	%rdx, %rdi
	callq	subreg_regno
	movq	%rbx, %rdi
	movq	%rax, %rsi
	callq	gen_rtx_REG
	movq	%rax, %rdx
.LBB4_159:                              # %if.end1029
	movq	%r15, %rdi
	jmp	.LBB4_160
.LBB4_152:
	movq	%rsi, %r14
	jmp	.LBB4_160
.LBB4_154:
	movq	%rsi, %r14
.LBB4_160:                              # %if.end1029
	movq	%rdx, %rbx
	testq	%rdi, %rdi
	je	.LBB4_161
# BB#162:                               # %if.then1032
	movq	%rdi, 168(%rsp)         # 8-byte Spill
	movq	144(%rsp), %rsi         # 8-byte Reload
	callq	ix86_preferred_reload_class
	jmp	.LBB4_163
.LBB4_161:
	movq	%rdi, 168(%rsp)         # 8-byte Spill
	movq	144(%rsp), %rax         # 8-byte Reload
.LBB4_163:                              # %if.end1034
	cmpq	$0, 80(%rsp)            # 8-byte Folded Reload
	movq	%r14, %r9
	je	.LBB4_167
# BB#164:                               # %if.then1036
	movq	%r12, %rcx
	andq	%r9, %rcx
	cmpq	$2, %rcx
	movq	%rbx, %r10
	jne	.LBB4_174
# BB#165:                               # %land.lhs.true1039
	movzbl	target_flags+3(%rip), %ecx
	testq	$2, %rcx
	jne	.LBB4_174
# BB#166:                               # %land.lhs.true1042
	movq	%rax, %rcx
	andq	%r9, %rcx
.LBB4_172:                              # %land.lhs.true1077
	cmpq	$24, %rcx
	ja	.LBB4_174
# BB#173:                               # %land.lhs.true1077
	movq	$8, %rdi
	movq	$1, %rdx
	shlq	%cl, %rdx
	testq	$16784384, %rdx         # imm = 0x1001C00
	jne	.LBB4_175
	jmp	.LBB4_174
.LBB4_167:                              # %if.else
	movq	168(%rsp), %rcx         # 8-byte Reload
	testq	%rcx, %rcx
	movq	%rbx, %r10
	je	.LBB4_174
# BB#168:                               # %land.lhs.true1060
	movzbl	(%rcx), %edx
	cmpq	$63, %rdx
	jne	.LBB4_174
# BB#169:                               # %if.then1065
	movq	8(%rcx), %rcx
	movl	(%rcx), %ecx
	andq	$16711680, %rcx         # imm = 0xFF0000
	cmpq	$131072, %rcx           # imm = 0x20000
	jne	.LBB4_174
# BB#170:                               # %land.lhs.true1074
	movzbl	target_flags+3(%rip), %ecx
	testq	$2, %rcx
	je	.LBB4_171
.LBB4_174:                              # %cond.false1090
	movq	%rax, %rdi
.LBB4_175:                              # %if.end1094
	cmpq	$0, 88(%rsp)            # 8-byte Folded Reload
	je	.LBB4_180
# BB#176:                               # %if.then1096
	movq	%r13, %rcx
	andq	%r9, %rcx
	cmpq	$2, %rcx
	jne	.LBB4_180
# BB#177:                               # %land.lhs.true1099
	movzbl	target_flags+3(%rip), %ecx
	testq	$2, %rcx
	jne	.LBB4_180
# BB#178:                               # %land.lhs.true1102
	movq	%rdi, %rcx
	andq	%r9, %rcx
	cmpq	$24, %rcx
	ja	.LBB4_180
# BB#179:                               # %land.lhs.true1102
	movq	$8, %rdx
	movq	$1, %rsi
	shlq	%cl, %rsi
	testq	$16784384, %rsi         # imm = 0x1001C00
	jne	.LBB4_181
.LBB4_180:                              # %cond.false1115
	movq	%rdi, %rdx
.LBB4_181:                              # %if.end1118
	testq	%r10, %r10
	je	.LBB4_187
# BB#182:                               # %land.lhs.true1121
	movzbl	(%r10), %eax
	cmpq	$63, %rax
	jne	.LBB4_187
# BB#183:                               # %if.then1126
	movq	8(%r10), %rax
	movl	(%rax), %eax
	andq	$16711680, %rax         # imm = 0xFF0000
	cmpq	$131072, %rax           # imm = 0x20000
	jne	.LBB4_187
# BB#184:                               # %land.lhs.true1135
	movzbl	target_flags+3(%rip), %eax
	testq	$2, %rax
	jne	.LBB4_187
# BB#185:                               # %land.lhs.true1138
	movabsq	$4294967295, %rcx       # imm = 0xFFFFFFFF
	andq	%rdx, %rcx
	cmpq	$24, %rcx
	ja	.LBB4_187
# BB#186:                               # %land.lhs.true1138
	movq	$8, %rsi
	movq	$1, %rax
	shlq	%cl, %rax
	testq	$16784384, %rax         # imm = 0x1001C00
	jne	.LBB4_188
.LBB4_187:                              # %cond.false1151
	movq	%rdx, %rsi
.LBB4_188:                              # %if.end1154
	movl	this_insn_is_asm(%rip), %eax
	testq	%rax, %rax
	je	.LBB4_232
# BB#189:                               # %if.then1156
	movq	%rsi, 160(%rsp)         # 8-byte Spill
	movq	$32, %rcx
	movq	%r12, %rax
	shlq	%cl, %rax
	movq	$32, %rcx
	sarq	%cl, %rax
	movzbl	mode_size(%rax), %eax
	movq	$32, %rcx
	movq	%r13, %rdx
	shlq	%cl, %rdx
	movq	$32, %rcx
	sarq	%cl, %rdx
	movzbl	mode_size(%rdx), %ecx
	cmpq	%rcx, %rax
	movq	%r12, 136(%rsp)         # 8-byte Spill
	ja	.LBB4_191
# BB#190:                               # %select.mid
	movq	%r13, %r12
.LBB4_191:                              # %select.end
	movq	%r10, %rbx
	testq	%r9, %r12
	je	.LBB4_193
# BB#192:
	movq	%r13, 128(%rsp)         # 8-byte Spill
	jmp	.LBB4_198
.LBB4_193:                              # %if.then1170
	movq	%r9, %r14
	movq	this_insn(%rip), %rdi
	movabsq	$.L.str1, %rsi
	xorq	%rax, %rax
	callq	error_for_asm
	movl	word_mode(%rip), %r12d
	movq	168(%rsp), %rax         # 8-byte Reload
	testq	%rax, %rax
	je	.LBB4_195
# BB#194:                               # %if.then1170
	movq	%r12, 136(%rsp)         # 8-byte Spill
.LBB4_195:                              # %if.then1170
	testq	%rbx, %rbx
	movq	%r12, %rax
	movq	%r14, %r9
	jne	.LBB4_197
# BB#196:                               # %if.then1170
	movq	%r13, %rax
.LBB4_197:                              # %if.then1170
	movq	%rax, 128(%rsp)         # 8-byte Spill
.LBB4_198:                              # %if.end1179
	movq	%rbx, 152(%rsp)         # 8-byte Spill
	movq	$32, %rcx
	movq	160(%rsp), %rax         # 8-byte Reload
	shlq	%cl, %rax
	movq	$32, %rcx
	sarq	%cl, %rax
	movq	%rax, 144(%rsp)         # 8-byte Spill
	movq	$32, %rcx
	movq	%r12, %rax
	shlq	%cl, %rax
	movq	$32, %rcx
	sarq	%cl, %rax
	movq	%rax, 96(%rsp)          # 8-byte Spill
	movq	%r12, %rbx
	andq	%r9, %rbx
	xorq	%r13, %r13
	cmpq	$18, %rbx
	jne	.LBB4_213
# BB#199:
	movabsq	$4294967288, %r14       # imm = 0xFFFFFFF8
	xorq	%r15, %r15
	.align	16, 0x90
.LBB4_200:                              # %for.body.us
                                        # =>This Loop Header: Depth=1
                                        #     Child Loop BB4_208 Depth 2
	movq	$18, %rsi
	movq	%r13, %rdi
	movq	%r9, %rbx
	callq	ix86_hard_regno_mode_ok
	movq	%rbx, %r9
	testq	%r9, %rax
	je	.LBB4_210
# BB#201:                               # %land.lhs.true1184.us
                                        #   in Loop: Header=BB4_200 Depth=1
	movq	144(%rsp), %rax         # 8-byte Reload
	movq	reg_class_contents(,%rax,8), %rax
	movq	$1, %rdx
	movq	%r13, %rcx
	shlq	%cl, %rdx
	testq	%rdx, %rax
	je	.LBB4_210
# BB#202:                               # %if.then1189.us
                                        #   in Loop: Header=BB4_200 Depth=1
	movq	%r13, %rcx
	andq	%r14, %rcx
	cmpq	$8, %rcx
	je	.LBB4_206
# BB#203:                               # %if.then1189.us
                                        #   in Loop: Header=BB4_200 Depth=1
	leaq	-21(%r13), %rcx
	andq	%r9, %rcx
	cmpq	$8, %rcx
	jb	.LBB4_206
# BB#204:                               # %if.then1189.us
                                        #   in Loop: Header=BB4_200 Depth=1
	leaq	-45(%r13), %rcx
	andq	%r9, %rcx
	cmpq	$8, %rcx
	jb	.LBB4_206
# BB#205:                               # %if.then1189.us
                                        #   in Loop: Header=BB4_200 Depth=1
	leaq	-29(%r13), %rcx
	andq	%r9, %rcx
	cmpq	$7, %rcx
	jbe	.LBB4_206
# BB#211:                               # %cond.end1256.us
                                        #   in Loop: Header=BB4_200 Depth=1
	movl	target_flags(%rip), %edx
	movq	$25, %rcx
	shrq	%cl, %rdx
	andq	$1, %rdx
	xorq	$3, %rdx
	jmp	.LBB4_212
.LBB4_206:                              # %cond.true1213.us
                                        #   in Loop: Header=BB4_200 Depth=1
	movq	96(%rsp), %rcx          # 8-byte Reload
	movl	mode_class(,%rcx,4), %ecx
	addq	$-5, %rcx
	andq	%r9, %rcx
	cmpq	$2, %rcx
	movq	$2, %rdx
	movq	%r13, %rcx
	jae	.LBB4_230
.LBB4_212:                              # %for.body1261.lr.ph.us
                                        #   in Loop: Header=BB4_200 Depth=1
	movq	$1, %rsi
	.align	16, 0x90
.LBB4_208:                              # %for.body1261.us
                                        #   Parent Loop BB4_200 Depth=1
                                        # =>  This Inner Loop Header: Depth=2
	leaq	(%r13,%rsi), %rcx
	movq	$1, %rdi
	shlq	%cl, %rdi
	testq	%rdi, %rax
	je	.LBB4_209
# BB#207:                               # %for.cond1258.us
                                        #   in Loop: Header=BB4_208 Depth=2
	incq	%rsi
	movq	$32, %rcx
	movq	%rsi, %rdi
	shlq	%cl, %rdi
	movq	$32, %rcx
	sarq	%cl, %rdi
	cmpq	%rdx, %rdi
	jl	.LBB4_208
.LBB4_209:                              # %for.end.us
                                        #   in Loop: Header=BB4_200 Depth=1
	andq	%r9, %rdx
	andq	%r9, %rsi
	cmpq	%rdx, %rsi
	movq	%r13, %rcx
	je	.LBB4_230
.LBB4_210:                              # %for.inc1276.us
                                        #   in Loop: Header=BB4_200 Depth=1
	incq	%r13
	incq	%r15
	movq	$32, %rcx
	movq	%r13, %rax
	shlq	%cl, %rax
	movq	$32, %rcx
	sarq	%cl, %rax
	cmpq	$53, %rax
	movq	%r15, %rcx
	jl	.LBB4_200
	jmp	.LBB4_230
.LBB4_213:
	xorq	%r14, %r14
	.align	16, 0x90
.LBB4_214:                              # %for.body
                                        # =>This Loop Header: Depth=1
                                        #     Child Loop BB4_227 Depth 2
	movq	%r13, %rdi
	movq	%r12, %rsi
	movq	%r9, %r15
	callq	ix86_hard_regno_mode_ok
	movq	%r15, %r9
	testq	%r9, %rax
	je	.LBB4_229
# BB#215:                               # %land.lhs.true1184
                                        #   in Loop: Header=BB4_214 Depth=1
	movq	144(%rsp), %rax         # 8-byte Reload
	movq	reg_class_contents(,%rax,8), %r8
	movq	$1, %rax
	movq	%r13, %rcx
	shlq	%cl, %rax
	testq	%rax, %r8
	je	.LBB4_229
# BB#216:                               # %if.then1189
                                        #   in Loop: Header=BB4_214 Depth=1
	movq	%r13, %rax
	movabsq	$4294967288, %rcx       # imm = 0xFFFFFFF8
	andq	%rcx, %rax
	cmpq	$8, %rax
	je	.LBB4_220
# BB#217:                               # %if.then1189
                                        #   in Loop: Header=BB4_214 Depth=1
	leaq	-21(%r13), %rax
	andq	%r9, %rax
	cmpq	$8, %rax
	jb	.LBB4_220
# BB#218:                               # %if.then1189
                                        #   in Loop: Header=BB4_214 Depth=1
	leaq	-45(%r13), %rax
	andq	%r9, %rax
	cmpq	$8, %rax
	jb	.LBB4_220
# BB#219:                               # %if.then1189
                                        #   in Loop: Header=BB4_214 Depth=1
	leaq	-29(%r13), %rax
	andq	%r9, %rax
	cmpq	$7, %rax
	jbe	.LBB4_220
# BB#221:                               # %cond.false1225
                                        #   in Loop: Header=BB4_214 Depth=1
	cmpq	$24, %rbx
	jne	.LBB4_223
# BB#222:                               # %cond.true1235
                                        #   in Loop: Header=BB4_214 Depth=1
	movzbl	target_flags+3(%rip), %eax
	andq	$2, %rax
	xorq	$6, %rax
	jmp	.LBB4_224
.LBB4_220:                              # %cond.true1213
                                        #   in Loop: Header=BB4_214 Depth=1
	movq	96(%rsp), %rax          # 8-byte Reload
	movl	mode_class(,%rax,4), %eax
	addq	$-5, %rax
	andq	%r9, %rax
	cmpq	$2, %rax
	movq	$2, %rax
	movq	%r13, %rcx
	jb	.LBB4_225
	jmp	.LBB4_230
.LBB4_223:                              # %cond.false1239
                                        #   in Loop: Header=BB4_214 Depth=1
	movl	target_flags(%rip), %edi
	movq	96(%rsp), %rax          # 8-byte Reload
	movzbl	mode_size(%rax), %eax
	movq	$23, %rcx
	shrq	%cl, %rdi
	andq	$4, %rdi
	leaq	3(%rax,%rdi), %rax
	addq	$4, %rdi
	cqto
	idivq	%rdi
.LBB4_224:                              # %cond.end1256
                                        #   in Loop: Header=BB4_214 Depth=1
	movq	$32, %rcx
	movq	%rax, %rdi
	shlq	%cl, %rdi
	movq	$32, %rcx
	sarq	%cl, %rdi
	movq	$1, %rdx
	cmpq	$2, %rdi
	jl	.LBB4_228
.LBB4_225:                              # %for.body1261.lr.ph
                                        #   in Loop: Header=BB4_214 Depth=1
	movq	$1, %rdx
	.align	16, 0x90
.LBB4_227:                              # %for.body1261
                                        #   Parent Loop BB4_214 Depth=1
                                        # =>  This Inner Loop Header: Depth=2
	leaq	(%r13,%rdx), %rcx
	movq	$1, %rsi
	shlq	%cl, %rsi
	testq	%rsi, %r8
	je	.LBB4_228
# BB#226:                               # %for.cond1258
                                        #   in Loop: Header=BB4_227 Depth=2
	incq	%rdx
	movq	$32, %rcx
	movq	%rdx, %rdi
	shlq	%cl, %rdi
	movq	$32, %rcx
	sarq	%cl, %rdi
	movq	$32, %rcx
	movq	%rax, %rsi
	shlq	%cl, %rsi
	movq	$32, %rcx
	sarq	%cl, %rsi
	cmpq	%rsi, %rdi
	jl	.LBB4_227
.LBB4_228:                              # %for.end
                                        #   in Loop: Header=BB4_214 Depth=1
	andq	%r9, %rax
	andq	%r9, %rdx
	cmpq	%rax, %rdx
	movq	%r13, %rcx
	je	.LBB4_230
.LBB4_229:                              # %for.inc1276
                                        #   in Loop: Header=BB4_214 Depth=1
	incq	%r13
	incq	%r14
	movq	$32, %rcx
	movq	%r13, %rax
	shlq	%cl, %rax
	movq	$32, %rcx
	sarq	%cl, %rax
	cmpq	$53, %rax
	movq	%r14, %rcx
	jl	.LBB4_214
.LBB4_230:                              # %for.end1278
	andq	%r9, %rcx
	cmpq	$53, %rcx
	jne	.LBB4_231
# BB#237:                               # %if.end1283.thread
	movq	%r9, %rbx
	movq	this_insn(%rip), %rdi
	movabsq	$.L.str2, %rsi
	xorq	%rax, %rax
	callq	error_for_asm
	movq	$24, 160(%rsp)          # 8-byte Folded Spill
	movq	152(%rsp), %r10         # 8-byte Reload
	movq	136(%rsp), %r12         # 8-byte Reload
	movq	128(%rsp), %r13         # 8-byte Reload
	jmp	.LBB4_238
.LBB4_231:
	movq	152(%rsp), %r10         # 8-byte Reload
	movq	136(%rsp), %r12         # 8-byte Reload
	movq	128(%rsp), %r13         # 8-byte Reload
	movq	160(%rsp), %rsi         # 8-byte Reload
.LBB4_232:                              # %if.end1283
	movabsq	$4294967295, %rax       # imm = 0xFFFFFFFF
	testq	%rax, %rsi
	je	.LBB4_234
# BB#233:
	movq	%rsi, 160(%rsp)         # 8-byte Spill
	movq	%r9, %rbx
	jmp	.LBB4_238
.LBB4_234:                              # %land.lhs.true1286
	movq	%r9, %rbx
	movq	240(%rsp), %rcx
	testq	%rax, %rcx
	je	.LBB4_236
# BB#235:                               # %land.lhs.true1286
	movq	$0, 160(%rsp)           # 8-byte Folded Spill
	movq	256(%rsp), %rcx
	andq	%rcx, %rax
	cmpq	$1, %rax
	jne	.LBB4_236
.LBB4_238:                              # %if.end1293
	movslq	n_earlyclobbers(%rip), %rax
	testq	%rax, %rax
	movq	%rbx, %r8
	jle	.LBB4_242
# BB#239:
	movq	$1, %rdx
	.align	16, 0x90
.LBB4_240:                              # %for.body.i.i
                                        # =>This Inner Loop Header: Depth=1
	movq	reload_earlyclobbers-8(,%rdx,8), %rcx
	cmpq	%r10, %rcx
	je	.LBB4_244
# BB#241:                               # %for.cond.i.i
                                        #   in Loop: Header=BB4_240 Depth=1
	movq	$32, %rcx
	movq	%rdx, %rsi
	shlq	%cl, %rsi
	movq	$32, %rcx
	sarq	%cl, %rsi
	incq	%rdx
	cmpq	%rax, %rsi
	jl	.LBB4_240
.LBB4_242:                              # %for.cond.preheader.i
	movq	%r12, 136(%rsp)         # 8-byte Spill
	movslq	n_reloads(%rip), %r12
	testq	%r12, %r12
	jle	.LBB4_243
# BB#247:                               # %for.body.lr.ph.i
	movq	%r13, 128(%rsp)         # 8-byte Spill
	movq	%r10, 152(%rsp)         # 8-byte Spill
	movq	%r8, %r15
	movq	$32, %rcx
	movq	160(%rsp), %rbx         # 8-byte Reload
	movq	%rbx, %rax
	shlq	%cl, %rax
	movq	$32, %rcx
	sarq	%cl, %rax
	movq	%rax, 144(%rsp)         # 8-byte Spill
	xorq	%r13, %r13
	.align	16, 0x90
.LBB4_248:                              # %for.body.i2891
                                        # =>This Loop Header: Depth=1
                                        #     Child Loop BB4_296 Depth 2
	imulq	$104, %r13, %r14
	movl	rld+16(%r14), %esi
	movq	%rbx, %rdi
	callq	reg_class_subset_p
	movq	%r15, %r8
	testq	%r8, %rax
	jne	.LBB4_250
# BB#249:                               # %lor.lhs.false.i
                                        #   in Loop: Header=BB4_248 Depth=1
	leaq	rld+16(%r14), %rax
	movl	(%rax), %edi
	movq	%rbx, %rsi
	movq	%rbx, %r15
	movq	%r8, %rbx
	callq	reg_class_subset_p
	movq	%rbx, %r8
	movq	%r15, %rbx
	testq	%r8, %rax
	je	.LBB4_298
.LBB4_250:                              # %land.lhs.true.i
                                        #   in Loop: Header=BB4_248 Depth=1
	movq	rld+64(%r14), %rdi
	testq	%rdi, %rdi
	je	.LBB4_252
# BB#251:                               # %lor.lhs.false12.i
                                        #   in Loop: Header=BB4_248 Depth=1
	movq	144(%rsp), %rax         # 8-byte Reload
	movq	reg_class_contents(,%rax,8), %r15
	movq	%rbx, %r12
	movq	%r8, %rbx
	callq	true_regnum
	movq	%rbx, %r8
	movq	%r12, %rbx
	movq	$1, %rdx
	movq	%rax, %rcx
	shlq	%cl, %rdx
	testq	%r15, %rdx
	je	.LBB4_298
.LBB4_252:                              # %land.lhs.true20.i
                                        #   in Loop: Header=BB4_248 Depth=1
	leaq	rld(%r14), %r15
	cmpq	$0, 168(%rsp)           # 8-byte Folded Reload
	je	.LBB4_269
# BB#253:                               # %land.lhs.true22.i
                                        #   in Loop: Header=BB4_248 Depth=1
	movq	(%r15), %rdi
	movq	168(%rsp), %rax         # 8-byte Reload
	cmpq	%rax, %rdi
	je	.LBB4_258
# BB#254:                               # %lor.lhs.false27.i
                                        #   in Loop: Header=BB4_248 Depth=1
	testq	%rdi, %rdi
	je	.LBB4_269
# BB#255:                               # %land.lhs.true32.i
                                        #   in Loop: Header=BB4_248 Depth=1
	movq	%rbx, %r12
	movq	%r8, %rbx
	movzbl	(%rdi), %eax
	cmpq	$61, %rax
	jne	.LBB4_259
# BB#256:                               # %cond.true.i
                                        #   in Loop: Header=BB4_248 Depth=1
	movq	168(%rsp), %rax         # 8-byte Reload
	movzbl	(%rax), %eax
	cmpq	$61, %rax
	movq	%rbx, %r8
	movq	%r12, %rbx
	jne	.LBB4_269
# BB#257:                               # %land.lhs.true40.i
                                        #   in Loop: Header=BB4_248 Depth=1
	movl	8(%rdi), %eax
	movq	168(%rsp), %rcx         # 8-byte Reload
	movl	8(%rcx), %ecx
	cmpq	%rcx, %rax
	jne	.LBB4_269
.LBB4_258:                              # %land.lhs.true60.i
                                        #   in Loop: Header=BB4_248 Depth=1
	cmpq	$0, 120(%rsp)           # 8-byte Folded Reload
	je	.LBB4_261
	jmp	.LBB4_269
.LBB4_259:                              # %cond.false.i
                                        #   in Loop: Header=BB4_248 Depth=1
	movq	168(%rsp), %rsi         # 8-byte Reload
	callq	rtx_equal_p
	movq	%rbx, %r8
	testq	%r8, %rax
	movq	%r12, %rbx
	je	.LBB4_269
# BB#260:                               # %land.lhs.true54.i
                                        #   in Loop: Header=BB4_248 Depth=1
	movq	(%r15), %rdi
	movq	%rbx, %r12
	movq	%r8, %rbx
	callq	side_effects_p
	movq	%rbx, %r8
	movq	%r12, %rbx
	movq	120(%rsp), %rcx         # 8-byte Reload
	orq	%rcx, %rax
	testq	%r8, %rax
	jne	.LBB4_269
.LBB4_261:                              # %land.lhs.true62.i
                                        #   in Loop: Header=BB4_248 Depth=1
	movq	152(%rsp), %rsi         # 8-byte Reload
	testq	%rsi, %rsi
	leaq	rld+8(%r14), %r12
	je	.LBB4_285
# BB#262:                               # %lor.lhs.false64.i
                                        #   in Loop: Header=BB4_248 Depth=1
	movq	(%r12), %rdi
	testq	%rdi, %rdi
	je	.LBB4_285
# BB#263:                               # %lor.lhs.false64.i
                                        #   in Loop: Header=BB4_248 Depth=1
	cmpq	%rsi, %rdi
	je	.LBB4_285
# BB#264:                               # %land.lhs.true79.i
                                        #   in Loop: Header=BB4_248 Depth=1
	movq	%r8, %rbx
	movzbl	(%rdi), %eax
	cmpq	$61, %rax
	jne	.LBB4_267
# BB#265:                               # %cond.true86.i
                                        #   in Loop: Header=BB4_248 Depth=1
	movzbl	(%rsi), %eax
	cmpq	$61, %rax
	movq	%rbx, %r8
	movq	160(%rsp), %rbx         # 8-byte Reload
	jne	.LBB4_269
# BB#266:                               # %land.lhs.true90.i
                                        #   in Loop: Header=BB4_248 Depth=1
	movl	8(%rdi), %eax
	movq	152(%rsp), %rcx         # 8-byte Reload
	movl	8(%rcx), %ecx
	cmpq	%rcx, %rax
	jne	.LBB4_269
	jmp	.LBB4_285
.LBB4_267:                              # %cond.false101.i
                                        #   in Loop: Header=BB4_248 Depth=1
	callq	rtx_equal_p
	movq	%rbx, %r8
	testq	%r8, %rax
	movq	160(%rsp), %rbx         # 8-byte Reload
	je	.LBB4_269
# BB#268:                               # %land.lhs.true107.i
                                        #   in Loop: Header=BB4_248 Depth=1
	movq	(%r12), %rdi
	movq	%r8, %rbx
	callq	side_effects_p
	movq	%rbx, %r8
	movq	160(%rsp), %rbx         # 8-byte Reload
	testq	%r8, %rax
	je	.LBB4_285
	.align	16, 0x90
.LBB4_269:                              # %lor.lhs.false113.i
                                        #   in Loop: Header=BB4_248 Depth=1
	cmpq	$0, 152(%rsp)           # 8-byte Folded Reload
	je	.LBB4_298
# BB#270:                               # %land.lhs.true115.i
                                        #   in Loop: Header=BB4_248 Depth=1
	movq	rld+8(%r14), %rdi
	leaq	rld+8(%r14), %r12
	movq	152(%rsp), %rax         # 8-byte Reload
	cmpq	%rax, %rdi
	je	.LBB4_277
# BB#271:                               # %lor.lhs.false120.i
                                        #   in Loop: Header=BB4_248 Depth=1
	testq	%rdi, %rdi
	je	.LBB4_298
# BB#272:                               # %land.lhs.true125.i
                                        #   in Loop: Header=BB4_248 Depth=1
	movq	%r8, %rbx
	movzbl	(%rdi), %eax
	cmpq	$61, %rax
	jne	.LBB4_275
# BB#273:                               # %cond.true132.i
                                        #   in Loop: Header=BB4_248 Depth=1
	movq	152(%rsp), %rax         # 8-byte Reload
	movzbl	(%rax), %eax
	cmpq	$61, %rax
	movq	%rbx, %r8
	movq	160(%rsp), %rbx         # 8-byte Reload
	jne	.LBB4_298
# BB#274:                               # %land.lhs.true136.i
                                        #   in Loop: Header=BB4_248 Depth=1
	movl	8(%rdi), %eax
	movq	152(%rsp), %rcx         # 8-byte Reload
	movl	8(%rcx), %ecx
	cmpq	%rcx, %rax
	je	.LBB4_277
	jmp	.LBB4_298
.LBB4_275:                              # %cond.false147.i
                                        #   in Loop: Header=BB4_248 Depth=1
	movq	152(%rsp), %rsi         # 8-byte Reload
	callq	rtx_equal_p
	movq	%rbx, %r8
	testq	%r8, %rax
	movq	160(%rsp), %rbx         # 8-byte Reload
	je	.LBB4_298
# BB#276:                               # %land.lhs.true153.i
                                        #   in Loop: Header=BB4_248 Depth=1
	movq	(%r12), %rdi
	movq	%r8, %rbx
	callq	side_effects_p
	movq	%rbx, %r8
	movq	160(%rsp), %rbx         # 8-byte Reload
	testq	%r8, %rax
	jne	.LBB4_298
.LBB4_277:                              # %land.lhs.true159.i
                                        #   in Loop: Header=BB4_248 Depth=1
	movq	168(%rsp), %rsi         # 8-byte Reload
	testq	%rsi, %rsi
	je	.LBB4_285
# BB#278:                               # %lor.lhs.false161.i
                                        #   in Loop: Header=BB4_248 Depth=1
	movq	(%r15), %rdi
	testq	%rdi, %rdi
	je	.LBB4_285
# BB#279:                               # %lor.lhs.false161.i
                                        #   in Loop: Header=BB4_248 Depth=1
	cmpq	%rsi, %rdi
	je	.LBB4_285
# BB#280:                               # %land.lhs.true176.i
                                        #   in Loop: Header=BB4_248 Depth=1
	movq	%r8, %rbx
	movzbl	(%rdi), %eax
	cmpq	$61, %rax
	jne	.LBB4_283
# BB#281:                               # %cond.true183.i
                                        #   in Loop: Header=BB4_248 Depth=1
	movzbl	(%rsi), %eax
	cmpq	$61, %rax
	movq	%rbx, %r8
	movq	160(%rsp), %rbx         # 8-byte Reload
	jne	.LBB4_298
# BB#282:                               # %land.lhs.true187.i
                                        #   in Loop: Header=BB4_248 Depth=1
	movl	8(%rdi), %eax
	movq	168(%rsp), %rcx         # 8-byte Reload
	movl	8(%rcx), %ecx
	cmpq	%rcx, %rax
	je	.LBB4_285
	jmp	.LBB4_298
.LBB4_283:                              # %cond.false198.i
                                        #   in Loop: Header=BB4_248 Depth=1
	callq	rtx_equal_p
	movq	%rbx, %r8
	testq	%r8, %rax
	movq	160(%rsp), %rbx         # 8-byte Reload
	je	.LBB4_298
# BB#284:                               # %land.lhs.true204.i
                                        #   in Loop: Header=BB4_248 Depth=1
	movq	(%r15), %rdi
	movq	%rbx, %r15
	movq	%r8, %rbx
	callq	side_effects_p
	movq	%rbx, %r8
	movq	%r15, %rbx
	testq	%r8, %rax
	jne	.LBB4_298
.LBB4_285:                              # %land.lhs.true210.i
                                        #   in Loop: Header=BB4_248 Depth=1
	movq	(%r12), %rax
	testq	%rax, %rax
	je	.LBB4_287
# BB#286:                               # %lor.lhs.false215.i
                                        #   in Loop: Header=BB4_248 Depth=1
	movslq	n_earlyclobbers(%rip), %rdx
	testq	%rdx, %rdx
	movq	$1, %rsi
	jle	.LBB4_287
	.align	16, 0x90
.LBB4_296:                              # %for.body.i691.i
                                        #   Parent Loop BB4_248 Depth=1
                                        # =>  This Inner Loop Header: Depth=2
	movq	reload_earlyclobbers-8(,%rsi,8), %rcx
	cmpq	%rax, %rcx
	je	.LBB4_298
# BB#295:                               # %for.cond.i686.i
                                        #   in Loop: Header=BB4_296 Depth=2
	movq	$32, %rcx
	movq	%rsi, %rdi
	shlq	%cl, %rdi
	movq	$32, %rcx
	sarq	%cl, %rdi
	incq	%rsi
	cmpq	%rdx, %rdi
	jl	.LBB4_296
.LBB4_287:                              # %land.lhs.true221.i
                                        #   in Loop: Header=BB4_248 Depth=1
	movq	256(%rsp), %rcx
	andq	%r8, %rcx
	cmpq	$9, %rcx
	je	.LBB4_342
# BB#288:                               # %lor.lhs.false228.i
                                        #   in Loop: Header=BB4_248 Depth=1
	movl	rld+92(%r14), %eax
	cmpq	$9, %rax
	je	.LBB4_342
# BB#289:                               # %lor.lhs.false232.i
                                        #   in Loop: Header=BB4_248 Depth=1
	cmpq	%rcx, %rax
	jne	.LBB4_291
# BB#290:                               # %land.lhs.true237.i
                                        #   in Loop: Header=BB4_248 Depth=1
	movl	rld+72(%r14), %edx
	movq	248(%rsp), %rsi
	andq	%r8, %rsi
	cmpq	%rsi, %rdx
	je	.LBB4_342
.LBB4_291:                              # %lor.lhs.false242.i
                                        #   in Loop: Header=BB4_248 Depth=1
	cmpq	$10, %rcx
	je	.LBB4_297
# BB#292:                               # %lor.lhs.false242.i
                                        #   in Loop: Header=BB4_248 Depth=1
	cmpq	$7, %rcx
	jne	.LBB4_293
# BB#341:                               # %land.lhs.true251.i
                                        #   in Loop: Header=BB4_248 Depth=1
	cmpq	$7, %rax
	jne	.LBB4_298
	jmp	.LBB4_342
.LBB4_297:                              # %land.lhs.true258.i
                                        #   in Loop: Header=BB4_248 Depth=1
	cmpq	$10, %rax
	jne	.LBB4_298
	jmp	.LBB4_342
.LBB4_293:                              # %lor.lhs.false242.i
                                        #   in Loop: Header=BB4_248 Depth=1
	movq	256(%rsp), %rcx
	testq	%r8, %rcx
	jne	.LBB4_298
# BB#294:                               # %land.lhs.true244.i
                                        #   in Loop: Header=BB4_248 Depth=1
	testq	%rax, %rax
	je	.LBB4_342
	.align	16, 0x90
.LBB4_298:                              # %for.inc.i
                                        #   in Loop: Header=BB4_248 Depth=1
	movq	%r8, %r15
	incq	%r13
	movslq	n_reloads(%rip), %r12
	movq	$32, %rcx
	movq	%r13, %rax
	shlq	%cl, %rax
	movq	$32, %rcx
	sarq	%cl, %rax
	cmpq	%r12, %rax
	jl	.LBB4_248
# BB#245:                               # %for.cond265.preheader.i
	movq	%rbx, 160(%rsp)         # 8-byte Spill
	testq	%r12, %r12
	movq	152(%rsp), %r10         # 8-byte Reload
	jle	.LBB4_246
# BB#299:                               # %for.body267.lr.ph.i
	movq	%r10, %r13
	xorq	%rbx, %rbx
	.align	16, 0x90
.LBB4_300:                              # %for.body267.i
                                        # =>This Loop Header: Depth=1
                                        #     Child Loop BB4_334 Depth 2
	imulq	$104, %rbx, %r12
	movl	rld+16(%r12), %esi
	movq	160(%rsp), %rdi         # 8-byte Reload
	callq	reg_class_subset_p
	testq	%r15, %rax
	jne	.LBB4_302
# BB#301:                               # %lor.lhs.false273.i
                                        #   in Loop: Header=BB4_300 Depth=1
	leaq	rld+16(%r12), %rax
	movl	(%rax), %edi
	movq	160(%rsp), %rsi         # 8-byte Reload
	callq	reg_class_subset_p
	testq	%r15, %rax
	je	.LBB4_339
.LBB4_302:                              # %land.lhs.true279.i
                                        #   in Loop: Header=BB4_300 Depth=1
	movq	rld+64(%r12), %rdi
	testq	%rdi, %rdi
	je	.LBB4_304
# BB#303:                               # %lor.lhs.false284.i
                                        #   in Loop: Header=BB4_300 Depth=1
	movq	144(%rsp), %rax         # 8-byte Reload
	movq	reg_class_contents(,%rax,8), %r14
	callq	true_regnum
	movq	$1, %rdx
	movq	%rax, %rcx
	shlq	%cl, %rdx
	testq	%r14, %rdx
	je	.LBB4_339
.LBB4_304:                              # %land.lhs.true295.i
                                        #   in Loop: Header=BB4_300 Depth=1
	testq	%r13, %r13
	jne	.LBB4_339
# BB#305:                               # %land.lhs.true297.i
                                        #   in Loop: Header=BB4_300 Depth=1
	cmpq	$0, rld+8(%r12)
	jne	.LBB4_339
# BB#306:                               # %land.lhs.true302.i
                                        #   in Loop: Header=BB4_300 Depth=1
	movq	rld(%r12), %rax
	testq	%rax, %rax
	je	.LBB4_339
# BB#307:                               # %land.lhs.true307.i
                                        #   in Loop: Header=BB4_300 Depth=1
	movq	168(%rsp), %rcx         # 8-byte Reload
	movzbl	(%rcx), %ecx
	leaq	rld+8(%r12), %r14
	leaq	rld(%r12), %r9
	cmpq	$61, %rcx
	jne	.LBB4_315
# BB#308:                               # %land.lhs.true311.i
                                        #   in Loop: Header=BB4_300 Depth=1
	movzbl	(%rax), %ecx
	movzbl	rtx_class(%rcx), %ecx
	cmpq	$97, %rcx
	jne	.LBB4_315
# BB#309:                               # %land.lhs.true321.i
                                        #   in Loop: Header=BB4_300 Depth=1
	movq	8(%rax), %rdi
	movq	168(%rsp), %rax         # 8-byte Reload
	cmpq	%rax, %rdi
	je	.LBB4_323
# BB#310:                               # %lor.lhs.false329.i
                                        #   in Loop: Header=BB4_300 Depth=1
	testq	%rdi, %rdi
	je	.LBB4_315
# BB#311:                               # %land.lhs.true338.i
                                        #   in Loop: Header=BB4_300 Depth=1
	movzbl	(%rdi), %eax
	cmpq	$61, %rax
	jne	.LBB4_313
# BB#312:                               # %land.lhs.true354.i
                                        #   in Loop: Header=BB4_300 Depth=1
	movl	8(%rdi), %eax
	movq	168(%rsp), %rcx         # 8-byte Reload
	movl	8(%rcx), %ecx
	cmpq	%rcx, %rax
	jne	.LBB4_315
	jmp	.LBB4_323
.LBB4_313:                              # %cond.false369.i
                                        #   in Loop: Header=BB4_300 Depth=1
	movq	168(%rsp), %rsi         # 8-byte Reload
	movq	%r9, 120(%rsp)          # 8-byte Spill
	callq	rtx_equal_p
	movq	120(%rsp), %r9          # 8-byte Reload
	testq	%r15, %rax
	je	.LBB4_315
# BB#314:                               # %land.lhs.true378.i
                                        #   in Loop: Header=BB4_300 Depth=1
	movq	(%r9), %rax
	movq	8(%rax), %rdi
	callq	side_effects_p
	movq	120(%rsp), %r9          # 8-byte Reload
	testq	%r15, %rax
	je	.LBB4_323
.LBB4_315:                              # %lor.lhs.false387.i
                                        #   in Loop: Header=BB4_300 Depth=1
	movq	(%r9), %rsi
	movzbl	(%rsi), %eax
	cmpq	$61, %rax
	jne	.LBB4_339
# BB#316:                               # %land.lhs.true395.i
                                        #   in Loop: Header=BB4_300 Depth=1
	movq	168(%rsp), %rax         # 8-byte Reload
	movzbl	(%rax), %eax
	movzbl	rtx_class(%rax), %eax
	cmpq	$97, %rax
	jne	.LBB4_339
# BB#317:                               # %land.lhs.true403.i
                                        #   in Loop: Header=BB4_300 Depth=1
	movq	168(%rsp), %rax         # 8-byte Reload
	movq	8(%rax), %rdi
	cmpq	%rsi, %rdi
	je	.LBB4_323
# BB#318:                               # %lor.lhs.false412.i
                                        #   in Loop: Header=BB4_300 Depth=1
	testq	%rdi, %rdi
	je	.LBB4_339
# BB#319:                               # %land.lhs.true418.i
                                        #   in Loop: Header=BB4_300 Depth=1
	movzbl	(%rdi), %eax
	cmpq	$61, %rax
	jne	.LBB4_321
# BB#320:                               # %land.lhs.true434.i
                                        #   in Loop: Header=BB4_300 Depth=1
	movl	8(%rdi), %eax
	movl	8(%rsi), %ecx
	cmpq	%rcx, %rax
	je	.LBB4_323
	jmp	.LBB4_339
.LBB4_321:                              # %cond.false449.i
                                        #   in Loop: Header=BB4_300 Depth=1
	movq	%r9, 120(%rsp)          # 8-byte Spill
	callq	rtx_equal_p
	testq	%r15, %rax
	je	.LBB4_339
# BB#322:                               # %land.lhs.true458.i
                                        #   in Loop: Header=BB4_300 Depth=1
	movq	168(%rsp), %rax         # 8-byte Reload
	movq	8(%rax), %rdi
	callq	side_effects_p
	movq	120(%rsp), %r9          # 8-byte Reload
	testq	%r15, %rax
	jne	.LBB4_339
.LBB4_323:                              # %land.lhs.true464.i
                                        #   in Loop: Header=BB4_300 Depth=1
	movq	(%r14), %rax
	testq	%rax, %rax
	je	.LBB4_325
# BB#324:                               # %lor.lhs.false470.i
                                        #   in Loop: Header=BB4_300 Depth=1
	movslq	n_earlyclobbers(%rip), %rdx
	testq	%rdx, %rdx
	movq	$1, %rsi
	jle	.LBB4_325
	.align	16, 0x90
.LBB4_334:                              # %for.body.i681.i
                                        #   Parent Loop BB4_300 Depth=1
                                        # =>  This Inner Loop Header: Depth=2
	movq	reload_earlyclobbers-8(,%rsi,8), %rcx
	cmpq	%rax, %rcx
	je	.LBB4_339
# BB#333:                               # %for.cond.i676.i
                                        #   in Loop: Header=BB4_334 Depth=2
	movq	$32, %rcx
	movq	%rsi, %rdi
	shlq	%cl, %rdi
	movq	$32, %rcx
	sarq	%cl, %rdi
	incq	%rsi
	cmpq	%rdx, %rdi
	jl	.LBB4_334
.LBB4_325:                              # %land.lhs.true476.i
                                        #   in Loop: Header=BB4_300 Depth=1
	movq	256(%rsp), %rcx
	andq	%r15, %rcx
	cmpq	$9, %rcx
	je	.LBB4_336
# BB#326:                               # %lor.lhs.false485.i
                                        #   in Loop: Header=BB4_300 Depth=1
	movl	rld+92(%r12), %eax
	cmpq	$9, %rax
	je	.LBB4_336
# BB#327:                               # %lor.lhs.false491.i
                                        #   in Loop: Header=BB4_300 Depth=1
	cmpq	%rcx, %rax
	jne	.LBB4_329
# BB#328:                               # %land.lhs.true497.i
                                        #   in Loop: Header=BB4_300 Depth=1
	movl	rld+72(%r12), %edx
	movq	248(%rsp), %rsi
	andq	%r15, %rsi
	cmpq	%rsi, %rdx
	je	.LBB4_336
.LBB4_329:                              # %lor.lhs.false503.i
                                        #   in Loop: Header=BB4_300 Depth=1
	cmpq	$10, %rcx
	je	.LBB4_335
# BB#330:                               # %lor.lhs.false503.i
                                        #   in Loop: Header=BB4_300 Depth=1
	cmpq	$7, %rcx
	jne	.LBB4_331
# BB#338:                               # %land.lhs.true515.i
                                        #   in Loop: Header=BB4_300 Depth=1
	cmpq	$7, %rax
	jne	.LBB4_339
	jmp	.LBB4_336
.LBB4_335:                              # %land.lhs.true524.i
                                        #   in Loop: Header=BB4_300 Depth=1
	cmpq	$10, %rax
	jne	.LBB4_339
	jmp	.LBB4_336
.LBB4_331:                              # %lor.lhs.false503.i
                                        #   in Loop: Header=BB4_300 Depth=1
	movq	256(%rsp), %rcx
	testq	%r15, %rcx
	jne	.LBB4_339
# BB#332:                               # %land.lhs.true506.i
                                        #   in Loop: Header=BB4_300 Depth=1
	testq	%rax, %rax
	je	.LBB4_336
	.align	16, 0x90
.LBB4_339:                              # %for.inc541.i
                                        #   in Loop: Header=BB4_300 Depth=1
	incq	%rbx
	movslq	n_reloads(%rip), %r12
	movq	$32, %rcx
	movq	%rbx, %rax
	shlq	%cl, %rax
	movq	$32, %rcx
	sarq	%cl, %rax
	cmpq	%r12, %rax
	jl	.LBB4_300
# BB#340:
	movq	%r15, %r8
	movq	%r13, %r10
	jmp	.LBB4_343
.LBB4_244:                              # %if.then.i
	movq	%r13, 128(%rsp)         # 8-byte Spill
	movq	%r12, 136(%rsp)         # 8-byte Spill
	movl	n_reloads(%rip), %r12d
	jmp	.LBB4_343
.LBB4_243:
	movq	%r13, 128(%rsp)         # 8-byte Spill
	jmp	.LBB4_343
.LBB4_342:                              # %find_reusable_reload.exit.loopexit3072
	movq	%rbx, 160(%rsp)         # 8-byte Spill
	movq	%r13, %r12
	movq	152(%rsp), %r10         # 8-byte Reload
	jmp	.LBB4_343
.LBB4_246:
	movq	%r15, %r8
.LBB4_343:                              # %find_reusable_reload.exit
	movl	n_reloads(%rip), %eax
	movq	%r12, %rcx
	andq	%r8, %rcx
	cmpq	%rax, %rcx
	jne	.LBB4_519
# BB#344:                               # %if.then1297
	testq	%r10, %r10
	movq	168(%rsp), %rcx         # 8-byte Reload
	je	.LBB4_345
# BB#346:                               # %land.lhs.true1300
	movq	$1317, 144(%rsp)        # 8-byte Folded Spill
                                        # imm = 0x525
	movl	(%r10), %edx
	movq	%rdx, %rax
	andq	$65535, %rax            # imm = 0xFFFF
	cmpq	$62, %rax
	movq	160(%rsp), %rbx         # 8-byte Reload
	jne	.LBB4_348
# BB#347:
	movq	%r8, %r15
	jmp	.LBB4_502
.LBB4_519:                              # %if.else1421
	movq	136(%rsp), %rsi         # 8-byte Reload
	testq	%r8, %rsi
	movq	112(%rsp), %rbx         # 8-byte Reload
	je	.LBB4_522
# BB#520:                               # %land.lhs.true1424
	movq	$32, %rcx
	movq	%rsi, %rdx
	shlq	%cl, %rdx
	movq	$32, %rcx
	sarq	%cl, %rdx
	movq	$32, %rcx
	movq	%r12, %rax
	shlq	%cl, %rax
	movq	$32, %rcx
	sarq	%cl, %rax
	imulq	$104, %rax, %rax
	movslq	rld+20(%rax), %rcx
	movzbl	mode_size(%rdx), %edx
	movzbl	mode_size(%rcx), %ecx
	cmpq	%rcx, %rdx
	jbe	.LBB4_522
# BB#521:                               # %if.then1436
	leaq	rld+20(%rax), %rax
	movl	%esi, (%rax)
.LBB4_522:                              # %if.end1440
	movq	128(%rsp), %rsi         # 8-byte Reload
	testq	%r8, %rsi
	je	.LBB4_525
# BB#523:                               # %land.lhs.true1443
	movq	$32, %rcx
	movq	%rsi, %rdx
	shlq	%cl, %rdx
	movq	$32, %rcx
	sarq	%cl, %rdx
	movq	$32, %rcx
	movq	%r12, %rax
	shlq	%cl, %rax
	movq	$32, %rcx
	sarq	%cl, %rax
	imulq	$104, %rax, %rax
	movslq	rld+24(%rax), %rcx
	movzbl	mode_size(%rdx), %edx
	movzbl	mode_size(%rcx), %ecx
	cmpq	%rcx, %rdx
	jbe	.LBB4_525
# BB#524:                               # %if.then1455
	leaq	rld+24(%rax), %rax
	movl	%esi, (%rax)
.LBB4_525:                              # %if.end1459
	xorq	%rcx, %rcx
	movq	168(%rsp), %rax         # 8-byte Reload
	testq	%rax, %rax
	je	.LBB4_539
# BB#526:                               # %if.then1462
	movq	%rax, %rdi
	movq	%r8, %r15
	xorq	%rdx, %rdx
	testq	%rbx, %rbx
	je	.LBB4_528
# BB#527:                               # %cond.true1465
	movq	(%rbx), %rdx
.LBB4_528:                              # %cond.end1467
	movq	$32, %rcx
	movq	%r12, %rax
	shlq	%cl, %rax
	movq	$32, %rcx
	sarq	%cl, %rax
	imulq	$104, %rax, %rbx
	movq	rld(%rbx), %rsi
	leaq	rld(%rbx), %r13
	cmpq	%rdi, %rsi
	je	.LBB4_529
# BB#530:                               # %land.lhs.true1474
	movq	%rdx, 144(%rsp)         # 8-byte Spill
	movq	%r10, %r14
	callq	rtx_equal_p
	movq	%r15, %r8
	testq	%r8, %rax
	je	.LBB4_531
# BB#532:                               # %land.lhs.true1480
	movzbl	rld+96(%rbx), %eax
	testq	$1, %rax
	movq	%r14, %r10
	je	.LBB4_534
# BB#533:                               # %land.lhs.true1480
	movq	240(%rsp), %rax
	testq	%r8, %rax
	jne	.LBB4_537
.LBB4_534:                              # %if.then1489
	movq	%r10, 152(%rsp)         # 8-byte Spill
	movq	%r8, %r15
	movslq	rld+72(%rbx), %rax
	movq	$32, %rcx
	movq	248(%rsp), %rdx
	shlq	%cl, %rdx
	movq	$32, %rcx
	sarq	%cl, %rdx
	cmpq	%rdx, %rax
	jge	.LBB4_536
# BB#535:                               # %if.then1495
	movq	168(%rsp), %rdi         # 8-byte Reload
	callq	remove_address_replacements
	movq	(%r13), %rdi
	movq	rld+40(%rbx), %rdx
	movq	%r15, %r8
	movq	152(%rsp), %r10         # 8-byte Reload
	jmp	.LBB4_538
.LBB4_345:
	movq	$1317, 144(%rsp)        # 8-byte Folded Spill
                                        # imm = 0x525
	movq	%r8, %r15
	movq	160(%rsp), %rbx         # 8-byte Reload
	jmp	.LBB4_502
.LBB4_348:                              # %if.then1305
	movq	%rcx, %r9
	movq	256(%rsp), %rsi
	leaq	-3(%rsi), %rcx
	movabsq	$4294967295, %r15       # imm = 0xFFFFFFFF
	andq	%r15, %rcx
	cmpq	$4, %rcx
	movq	%rsi, %r13
	jb	.LBB4_350
# BB#349:                               # %if.then1305
	movq	$5, %r13
.LBB4_350:                              # %if.then1305
	cmpq	$63, %rax
	jne	.LBB4_351
# BB#352:                               # %land.lhs.true.i2901
	movq	8(%r10), %rdi
	movq	$16, %rcx
	movzbl	2(%rdi), %eax
	shrq	%cl, %rdx
	andq	$255, %rdx
	movzbl	mode_size(%rdx), %ecx
	movzbl	mode_size(%rax), %edx
	cmpq	%rdx, %rcx
	ja	.LBB4_354
# BB#353:                               # %land.lhs.true.i2901
	movq	128(%rsp), %rax         # 8-byte Reload
.LBB4_354:                              # %land.lhs.true.i2901
	ja	.LBB4_356
# BB#355:                               # %land.lhs.true.i2901
	movq	%r10, %rdi
.LBB4_356:                              # %land.lhs.true.i2901
	movl	(%rdi), %edx
	jmp	.LBB4_357
.LBB4_529:
	movq	%r15, %r8
	jmp	.LBB4_538
.LBB4_351:
	movq	128(%rsp), %rax         # 8-byte Reload
	movq	%r10, %rdi
.LBB4_357:                              # %if.end25.i
	andq	$65535, %rdx            # imm = 0xFFFF
	cmpq	$61, %rdx
	jne	.LBB4_361
# BB#358:                               # %land.lhs.true30.i
	movl	8(%rdi), %ecx
	cmpq	$53, %rcx
	jb	.LBB4_361
# BB#359:                               # %land.lhs.true35.i
	movq	reg_equiv_mem(%rip), %rdx
	movq	(%rdx,%rcx,8), %rcx
	testq	%rcx, %rcx
	je	.LBB4_361
# BB#360:                               # %land.lhs.true35.i
	movq	%rcx, %rdi
.LBB4_361:                              # %if.then51.i
	leaq	-10(%rbx), %rcx
	andq	%r15, %rcx
	cmpq	$2, %rcx
	ja	.LBB4_362
# BB#363:                               # %land.lhs.true60.i2904
	movl	target_flags(%rip), %ecx
	testq	$33554432, %rcx         # imm = 0x2000000
	jne	.LBB4_364
# BB#365:                               # %land.lhs.true60.i2904
	movabsq	$4294967295, %rdx       # imm = 0xFFFFFFFF
	andq	%rdx, %rax
	cmpq	$2, %rax
	movq	%r9, %rcx
	jne	.LBB4_502
# BB#366:                               # %cond.false.i2905
	movl	reload_out_optab+8(%rip), %esi
	movq	$32, %rcx
	movq	%rsi, %rax
	shlq	%cl, %rax
	movq	$32, %rcx
	sarq	%cl, %rax
	cmpq	$1317, %rsi             # imm = 0x525
	movq	$8, %r12
	jne	.LBB4_368
# BB#367:
	movq	$1317, %rax             # imm = 0x525
	movq	$1317, %rsi             # imm = 0x525
	movq	128(%rsp), %rdi         # 8-byte Reload
	jmp	.LBB4_407
.LBB4_362:
	movq	%r9, %rcx
	jmp	.LBB4_502
.LBB4_531:
	movq	%r14, %r10
	jmp	.LBB4_537
.LBB4_536:                              # %if.else1503
	movq	(%r13), %rdi
	callq	remove_address_replacements
	movq	%r15, %r8
	movq	152(%rsp), %r10         # 8-byte Reload
.LBB4_537:                              # %if.end1509
	movq	168(%rsp), %rdi         # 8-byte Reload
	movq	144(%rsp), %rdx         # 8-byte Reload
.LBB4_538:                              # %if.end1509
	movq	%rdi, (%r13)
	movq	%rdx, rld+40(%rbx)
	movq	%rdi, %rcx
.LBB4_539:                              # %if.end1516
	movq	%rcx, 168(%rsp)         # 8-byte Spill
	movq	%r8, %r14
	movq	$32, %rcx
	movq	%r12, %rax
	shlq	%cl, %rax
	movq	$32, %rcx
	sarq	%cl, %rax
	testq	%r10, %r10
	je	.LBB4_543
# BB#540:                               # %if.then1519
	imulq	$104, %rax, %rcx
	movq	%r10, rld+8(%rcx)
	xorq	%rdx, %rdx
	movq	104(%rsp), %rsi         # 8-byte Reload
	testq	%rsi, %rsi
	je	.LBB4_542
# BB#541:                               # %cond.true1524
	movq	(%rsi), %rdx
.LBB4_542:                              # %cond.end1526
	movq	%rdx, rld+48(%rcx)
.LBB4_543:                              # %if.end1531
	movq	%r10, %r15
	imulq	$104, %rax, %rbx
	movl	rld+16(%rbx), %esi
	movq	160(%rsp), %r13         # 8-byte Reload
	movq	%r13, %rdi
	callq	reg_class_subset_p
	movq	%r14, %r8
	testq	%r8, %rax
	je	.LBB4_545
# BB#544:                               # %if.then1537
	leaq	rld+16(%rbx), %rax
	movl	%r13d, (%rax)
.LBB4_545:                              # %if.end1541
	movzbl	rld+96(%rbx), %eax
	movq	240(%rsp), %rcx
	andq	%rax, %rcx
	andq	$1, %rcx
	andq	$254, %rax
	orq	%rcx, %rax
	movb	%al, rld+96(%rbx)
	movl	rld+92(%rbx), %edx
	movl	rld+72(%rbx), %r9d
	movq	256(%rsp), %rcx
	andq	%r8, %rcx
	cmpq	%rcx, %rdx
	movq	%r15, %r10
	movq	248(%rsp), %rdi
	movq	%rdi, %r14
	movq	168(%rsp), %r11         # 8-byte Reload
	movq	112(%rsp), %rdx         # 8-byte Reload
	jne	.LBB4_549
# BB#546:                               # %lor.lhs.false1559
	movq	%r14, %rsi
	andq	%r8, %rsi
	movq	%r9, %rax
	andq	%r8, %rax
	cmpq	%rsi, %rax
	movq	%r14, %rdi
	je	.LBB4_551
# BB#547:                               # %switch.early.test
	cmpq	$10, %rcx
	ja	.LBB4_549
# BB#548:                               # %switch.early.test
	movq	$1, %rax
	shlq	%cl, %rax
	testq	$1153, %rax             # imm = 0x481
	jne	.LBB4_550
.LBB4_549:                              # %if.then1574
	leaq	rld+92(%rbx), %rcx
	movq	$9, %rax
	movl	%eax, (%rcx)
.LBB4_550:                              # %if.end1578
	movq	%r9, %rdi
.LBB4_551:                              # %if.end1578
	movq	$32, %rcx
	movq	%r14, %rax
	shlq	%cl, %rax
	movq	$32, %rcx
	sarq	%cl, %rax
	movq	$32, %rcx
	movq	%rdi, %rsi
	shlq	%cl, %rsi
	movq	$32, %rcx
	sarq	%cl, %rsi
	cmpq	%rax, %rsi
	jle	.LBB4_553
# BB#552:                               # %if.end1578
	movq	%r14, %rdi
.LBB4_553:                              # %if.end1578
	movl	%edi, rld+72(%rbx)
	movq	104(%rsp), %r9          # 8-byte Reload
	jmp	.LBB4_554
.LBB4_171:                              # %land.lhs.true1077
	movabsq	$4294967295, %rcx       # imm = 0xFFFFFFFF
	andq	%rax, %rcx
	jmp	.LBB4_172
.LBB4_364:
	movq	%r9, %rcx
	jmp	.LBB4_502
.LBB4_368:                              # %land.lhs.true78.i
	movq	%rsi, 72(%rsp)          # 8-byte Spill
	movq	%rbx, %r14
	movq	%r10, 152(%rsp)         # 8-byte Spill
	leaq	(%rax,%rax,4), %rax
	movq	insn_data+24(,%rax,8), %rbx
	movq	(%rbx), %rax
	testq	%rax, %rax
	je	.LBB4_372
# BB#369:                               # %land.lhs.true84.i
	movq	$2, %rsi
	callq	*%rax
	movabsq	$4294967295, %rdx       # imm = 0xFFFFFFFF
	testq	%rdx, %rax
	je	.LBB4_370
.LBB4_372:                              # %if.then96.i
	movq	32(%rbx), %rax
	movzbl	(%rax), %eax
	testq	%rax, %rax
	movq	$24, %r15
	je	.LBB4_377
# BB#373:                               # %if.else108.i
	movq	$12, %r15
	cmpq	$114, %rax
	je	.LBB4_377
# BB#374:                               # %cond.false129.i
	movq	$11, %r15
	cmpq	$82, %rax
	je	.LBB4_377
# BB#375:                               # %cond.false129.i
	cmpq	$113, %rax
	jne	.LBB4_380
# BB#376:                               # %cond.true138.i
	movl	target_flags(%rip), %r15d
	movq	$23, %rcx
	shrq	%cl, %r15
	andq	$4, %r15
	orq	$8, %r15
	jmp	.LBB4_377
.LBB4_336:                              # %if.then530.i
	movq	168(%rsp), %rax         # 8-byte Reload
	movzbl	(%rax), %eax
	cmpq	$61, %rax
	movq	%rbx, %r12
	movq	%r15, %r8
	movq	%r13, %r10
	jne	.LBB4_343
# BB#337:                               # %if.then535.i
	movq	(%r9), %rax
	movq	%rax, 168(%rsp)         # 8-byte Spill
	movq	%rbx, %r12
	jmp	.LBB4_343
.LBB4_370:
	movq	$1317, %rax             # imm = 0x525
	movq	$1317, %rsi             # imm = 0x525
	movq	128(%rsp), %rdi         # 8-byte Reload
	jmp	.LBB4_371
.LBB4_380:                              # %cond.false142.i
	movq	$56, %rcx
	movq	%rax, %rdx
	shlq	%cl, %rdx
	movq	$56, %rcx
	sarq	%cl, %rdx
	cmpq	$101, %rdx
	jg	.LBB4_391
# BB#381:                               # %cond.false142.i
	movq	$8, %r15
	cmpq	$81, %rax
	je	.LBB4_377
	jmp	.LBB4_382
.LBB4_391:                              # %cond.false142.i
	cmpq	$117, %rax
	je	.LBB4_397
# BB#392:                               # %cond.false142.i
	cmpq	$116, %rax
	jne	.LBB4_393
# BB#396:                               # %cond.true161.i
	movzbl	target_flags(%rip), %eax
	movq	$13, %r15
	jmp	.LBB4_395
.LBB4_397:                              # %cond.true173.i
	movzbl	target_flags(%rip), %eax
	movq	$14, %r15
	jmp	.LBB4_395
.LBB4_393:                              # %cond.false142.i
	cmpq	$102, %rax
	jne	.LBB4_382
# BB#394:                               # %cond.true151.i
	movzbl	target_flags(%rip), %eax
	movq	$15, %r15
.LBB4_395:                              # %cond.true151.i
	testq	$33, %rax
	jne	.LBB4_377
	jmp	.LBB4_404
.LBB4_382:                              # %cond.false181.i
	movq	$1, %r15
	cmpq	$97, %rax
	je	.LBB4_377
# BB#383:                               # %cond.false186.i
	movq	$4, %r15
	cmpq	$98, %rax
	je	.LBB4_377
# BB#384:                               # %cond.false191.i
	movq	$3, %r15
	cmpq	$99, %rax
	je	.LBB4_377
# BB#385:                               # %cond.false196.i
	movq	%r13, %rsi
	movq	$56, %rcx
	movq	%rax, %rdx
	shlq	%cl, %rdx
	movq	$56, %rcx
	sarq	%cl, %rdx
	cmpq	$119, %rdx
	jg	.LBB4_398
# BB#386:                               # %cond.false196.i
	cmpq	$89, %rax
	jne	.LBB4_387
# BB#402:                               # %cond.end275.i
	movl	target_flags(%rip), %r15d
	movq	$14, %rcx
	shrq	%cl, %r15
	andq	$16, %r15
	jmp	.LBB4_403
.LBB4_236:                              # %if.then1292
	movabsq	$.L.str, %rax
	movabsq	$.L__FUNCTION__.push_reload, %rcx
	movq	$1258, %rsi             # imm = 0x4EA
	jmp	.LBB4_78
.LBB4_398:                              # %cond.false196.i
	cmpq	$121, %rax
	jne	.LBB4_399
# BB#401:                               # %cond.true223.i
	movzbl	target_flags+1(%rip), %eax
	movq	$17, %r15
	testq	$64, %rax
.LBB4_403:                              # %cond.end275.i
	movq	%rsi, %r13
	jne	.LBB4_377
	jmp	.LBB4_404
.LBB4_387:                              # %cond.false196.i
	movq	$2, %r15
	cmpq	$100, %rax
	movq	%rsi, %r13
	je	.LBB4_377
	jmp	.LBB4_388
.LBB4_399:                              # %cond.false196.i
	cmpq	$120, %rax
	movq	%rsi, %r13
	jne	.LBB4_388
# BB#400:                               # %cond.true205.i
	movzbl	target_flags+2(%rip), %eax
	movq	$16, %r15
	testq	$5, %rax
	jne	.LBB4_377
	jmp	.LBB4_404
.LBB4_388:                              # %cond.false228.i
	movq	$7, %r15
	cmpq	$65, %rax
	je	.LBB4_377
# BB#389:                               # %cond.false233.i
	movq	$6, %r15
	cmpq	$68, %rax
	je	.LBB4_377
# BB#390:                               # %cond.false238.i
	movq	$5, %r15
	cmpq	$83, %rax
	jne	.LBB4_404
.LBB4_377:                              # %if.end298.i
	movq	56(%rbx), %rax
	movzbl	(%rax), %ecx
	cmpq	$61, %rcx
	jne	.LBB4_379
# BB#378:                               # %lor.lhs.false308.i
	movzbl	1(%rax), %eax
	cmpq	$38, %rax
	jne	.LBB4_379
# BB#405:                               # %if.end319.i
	movq	%r14, %rdi
	movq	%r15, %rsi
	callq	reg_class_subset_p
	movabsq	$4294967295, %rdx       # imm = 0xFFFFFFFF
	testq	%rdx, %rax
	je	.LBB4_408
# BB#406:                               # %if.then322.i
	movzbl	64(%rbx), %edi
	movq	$1317, %rax             # imm = 0x525
	movabsq	$4294967295, %r8        # imm = 0xFFFFFFFF
	movq	152(%rsp), %r10         # 8-byte Reload
	movl	reload_out_optab+8(%rip), %esi
	jmp	.LBB4_407
.LBB4_408:                              # %if.else329.i
	movq	56(%rbx), %rax
	movzbl	2(%rax), %eax
	movzbl	64(%rbx), %ecx
	movq	%rcx, 96(%rsp)          # 8-byte Spill
	cmpq	$114, %rax
	movq	$12, 144(%rsp)          # 8-byte Folded Spill
	je	.LBB4_436
# BB#409:                               # %cond.false352.i
	movq	$11, 144(%rsp)          # 8-byte Folded Spill
	cmpq	$82, %rax
	je	.LBB4_436
# BB#410:                               # %cond.false352.i
	cmpq	$113, %rax
	jne	.LBB4_412
# BB#411:                               # %cond.true361.i
	movl	target_flags(%rip), %eax
	movq	$23, %rcx
	shrq	%cl, %rax
	andq	$4, %rax
	orq	$8, %rax
	movq	%rax, 144(%rsp)         # 8-byte Spill
	jmp	.LBB4_436
.LBB4_412:                              # %cond.false365.i
	movq	$56, %rcx
	movq	%rax, %rsi
	shlq	%cl, %rsi
	movq	$56, %rcx
	sarq	%cl, %rsi
	cmpq	$101, %rsi
	jg	.LBB4_423
# BB#413:                               # %cond.false365.i
	movq	$8, 144(%rsp)           # 8-byte Folded Spill
	cmpq	$81, %rax
	je	.LBB4_436
	jmp	.LBB4_414
.LBB4_423:                              # %cond.false365.i
	cmpq	$117, %rax
	je	.LBB4_428
# BB#424:                               # %cond.false365.i
	cmpq	$116, %rax
	jne	.LBB4_425
# BB#427:                               # %cond.true386.i
	movzbl	target_flags(%rip), %eax
	movq	$13, 144(%rsp)          # 8-byte Folded Spill
	jmp	.LBB4_429
.LBB4_428:                              # %cond.true398.i
	movzbl	target_flags(%rip), %eax
	movq	$14, 144(%rsp)          # 8-byte Folded Spill
	jmp	.LBB4_429
.LBB4_425:                              # %cond.false365.i
	cmpq	$102, %rax
	jne	.LBB4_414
# BB#426:                               # %cond.true374.i
	movzbl	target_flags(%rip), %eax
	movq	$15, 144(%rsp)          # 8-byte Folded Spill
.LBB4_429:                              # %cond.true398.i
	testq	$33, %rax
	jne	.LBB4_436
	jmp	.LBB4_430
.LBB4_414:                              # %cond.false406.i
	movq	$1, 144(%rsp)           # 8-byte Folded Spill
	cmpq	$97, %rax
	je	.LBB4_436
# BB#415:                               # %cond.false411.i
	movq	$4, 144(%rsp)           # 8-byte Folded Spill
	cmpq	$98, %rax
	je	.LBB4_436
# BB#416:                               # %cond.false416.i
	movq	$3, 144(%rsp)           # 8-byte Folded Spill
	cmpq	$99, %rax
	je	.LBB4_436
# BB#417:                               # %cond.false421.i
	movq	%r15, %rbx
	movq	%r13, %rdi
	movq	$56, %rcx
	movq	%rax, %rsi
	shlq	%cl, %rsi
	movq	$56, %rcx
	sarq	%cl, %rsi
	cmpq	$119, %rsi
	jg	.LBB4_431
# BB#418:                               # %cond.false421.i
	cmpq	$89, %rax
	jne	.LBB4_419
# BB#680:                               # %if.end515.i
	movl	target_flags(%rip), %eax
	movq	$14, %rcx
	shrq	%cl, %rax
	andq	$16, %rax
	movq	%rax, 144(%rsp)         # 8-byte Spill
	jmp	.LBB4_435
.LBB4_404:                              # %if.then279.i
	movabsq	$.L.str, %rax
	movabsq	$.L__FUNCTION__.push_secondary_reload, %rcx
	movq	$388, %rsi              # imm = 0x184
	jmp	.LBB4_78
.LBB4_379:                              # %if.then318.i
	movabsq	$.L.str, %rax
	movabsq	$.L__FUNCTION__.push_secondary_reload, %rcx
	movq	$397, %rsi              # imm = 0x18D
.LBB4_78:                               # %if.then441
	movq	%rax, %rdi
	movq	%rcx, %rdx
	callq	fancy_abort
.LBB4_431:                              # %cond.false421.i
	cmpq	$121, %rax
	jne	.LBB4_432
# BB#434:                               # %cond.true448.i
	movzbl	target_flags+1(%rip), %eax
	movq	$17, 144(%rsp)          # 8-byte Folded Spill
	testq	$64, %rax
.LBB4_435:                              # %cond.true448.i
	movq	%rdi, %r13
	movq	%rbx, %r15
	jne	.LBB4_436
	jmp	.LBB4_430
.LBB4_419:                              # %cond.false421.i
	movq	$2, 144(%rsp)           # 8-byte Folded Spill
	cmpq	$100, %rax
	movq	%rdi, %r13
	movq	%rbx, %r15
	je	.LBB4_436
	jmp	.LBB4_420
.LBB4_432:                              # %cond.false421.i
	cmpq	$120, %rax
	movq	%rdi, %r13
	movq	%rbx, %r15
	jne	.LBB4_420
# BB#433:                               # %cond.true430.i
	movzbl	target_flags+2(%rip), %eax
	movq	$16, 144(%rsp)          # 8-byte Folded Spill
	testq	$5, %rax
	jne	.LBB4_436
	jmp	.LBB4_430
.LBB4_420:                              # %cond.false453.i
	movq	$7, 144(%rsp)           # 8-byte Folded Spill
	cmpq	$65, %rax
	je	.LBB4_436
# BB#421:                               # %cond.false458.i
	movq	$6, 144(%rsp)           # 8-byte Folded Spill
	cmpq	$68, %rax
	je	.LBB4_436
# BB#422:                               # %cond.false463.i
	movq	$5, 144(%rsp)           # 8-byte Folded Spill
	cmpq	$83, %rax
	jne	.LBB4_430
.LBB4_436:                              # %for.cond.i2908.preheader
	movq	%r15, 120(%rsp)         # 8-byte Spill
	movslq	n_reloads(%rip), %rbx
	xorq	%rdx, %rdx
	testq	%rbx, %rbx
	jle	.LBB4_463
# BB#437:                               # %for.body.i2909.lr.ph
	movq	$1, %r15
	movabsq	$rld+96, %r12
	movabsq	$4294967295, %r14       # imm = 0xFFFFFFFF
.LBB4_438:                              # %for.body.i2909
                                        # =>This Inner Loop Header: Depth=1
	movzbl	(%r12), %eax
	testq	$4, %rax
	je	.LBB4_462
# BB#439:                               # %land.lhs.true528.i
                                        #   in Loop: Header=BB4_438 Depth=1
	movl	-80(%r12), %esi
	movq	144(%rsp), %rdi         # 8-byte Reload
	callq	reg_class_subset_p
	testq	%r14, %rax
	jne	.LBB4_441
# BB#440:                               # %lor.lhs.false534.i
                                        #   in Loop: Header=BB4_438 Depth=1
	movl	-80(%r12), %edi
	movq	144(%rsp), %rsi         # 8-byte Reload
	callq	reg_class_subset_p
	testq	%r14, %rax
	je	.LBB4_462
.LBB4_441:                              # %land.lhs.true549.i
                                        #   in Loop: Header=BB4_438 Depth=1
	movl	-72(%r12), %eax
	movq	96(%rsp), %rcx          # 8-byte Reload
	cmpq	%rcx, %rax
	jne	.LBB4_462
# BB#442:                               # %land.lhs.true563.i
                                        #   in Loop: Header=BB4_438 Depth=1
	movl	-8(%r12), %eax
	cmpq	$1317, %rax             # imm = 0x525
	jne	.LBB4_462
# BB#443:                               # %land.lhs.true568.i
                                        #   in Loop: Header=BB4_438 Depth=1
	movq	%r13, %rbx
	andq	%r14, %rbx
	cmpq	$9, %rbx
	je	.LBB4_453
# BB#444:                               # %lor.lhs.false577.i
                                        #   in Loop: Header=BB4_438 Depth=1
	movl	-4(%r12), %eax
	cmpq	$9, %rax
	je	.LBB4_453
# BB#445:                               # %lor.lhs.false582.i
                                        #   in Loop: Header=BB4_438 Depth=1
	cmpq	%rax, %rbx
	jne	.LBB4_447
# BB#446:                               # %land.lhs.true588.i
                                        #   in Loop: Header=BB4_438 Depth=1
	movl	-24(%r12), %ecx
	movq	248(%rsp), %rdx
	andq	%r14, %rdx
	cmpq	%rdx, %rcx
	je	.LBB4_453
.LBB4_447:                              # %lor.lhs.false594.i
                                        #   in Loop: Header=BB4_438 Depth=1
	cmpq	$10, %rbx
	je	.LBB4_452
# BB#448:                               # %lor.lhs.false594.i
                                        #   in Loop: Header=BB4_438 Depth=1
	cmpq	$7, %rbx
	jne	.LBB4_449
# BB#451:                               # %land.lhs.true606.i
                                        #   in Loop: Header=BB4_438 Depth=1
	cmpq	$7, %rax
	je	.LBB4_453
	jmp	.LBB4_462
.LBB4_452:                              # %land.lhs.true615.i
                                        #   in Loop: Header=BB4_438 Depth=1
	cmpq	$10, %rax
	jne	.LBB4_462
	jmp	.LBB4_453
.LBB4_449:                              # %lor.lhs.false594.i
                                        #   in Loop: Header=BB4_438 Depth=1
	testq	%r14, %r13
	jne	.LBB4_462
# BB#450:                               # %land.lhs.true597.i
                                        #   in Loop: Header=BB4_438 Depth=1
	testq	%rax, %rax
	jne	.LBB4_462
.LBB4_453:                              # %if.then629.i
                                        #   in Loop: Header=BB4_438 Depth=1
	movq	96(%rsp), %rax          # 8-byte Reload
	movl	%eax, -72(%r12)
	movl	-80(%r12), %esi
	movq	144(%rsp), %rdi         # 8-byte Reload
	callq	reg_class_subset_p
	testq	%r14, %rax
	je	.LBB4_455
# BB#454:                               # %if.then639.i
                                        #   in Loop: Header=BB4_438 Depth=1
	movq	144(%rsp), %rax         # 8-byte Reload
	movl	%eax, -80(%r12)
.LBB4_455:                              # %if.end643.i
                                        #   in Loop: Header=BB4_438 Depth=1
	movslq	-24(%r12), %rax
	movq	$32, %rcx
	movq	248(%rsp), %rsi
	movq	%rsi, %rdx
	shlq	%cl, %rdx
	movq	$32, %rcx
	sarq	%cl, %rdx
	cmpq	%rdx, %rax
	jle	.LBB4_457
# BB#456:                               # %if.end643.i
                                        #   in Loop: Header=BB4_438 Depth=1
	movq	%rsi, %rax
.LBB4_457:                              # %if.end643.i
                                        #   in Loop: Header=BB4_438 Depth=1
	movl	%eax, -24(%r12)
	movzbl	(%r12), %ecx
	movq	%rcx, %rdx
	movq	240(%rsp), %rsi
	andq	%rsi, %rdx
	andq	$1, %rdx
	andq	$250, %rcx
	orq	%rdx, %rcx
	orq	$4, %rcx
	movb	%cl, (%r12)
	movl	-4(%r12), %ecx
	cmpq	%rcx, %rbx
	jne	.LBB4_461
# BB#458:                               # %lor.lhs.false679.i
                                        #   in Loop: Header=BB4_438 Depth=1
	movq	248(%rsp), %rcx
	andq	%r14, %rcx
	andq	%r14, %rax
	cmpq	%rcx, %rax
	je	.LBB4_462
# BB#459:                               # %switch.early.test.i
                                        #   in Loop: Header=BB4_438 Depth=1
	cmpq	$10, %rbx
	ja	.LBB4_461
# BB#460:                               # %switch.early.test.i
                                        #   in Loop: Header=BB4_438 Depth=1
	movq	$1, %rax
	movq	%rbx, %rcx
	shlq	%cl, %rax
	testq	$1153, %rax             # imm = 0x481
	jne	.LBB4_462
.LBB4_461:                              # %if.then694.i
                                        #   in Loop: Header=BB4_438 Depth=1
	movq	$9, %rax
	movl	%eax, -4(%r12)
.LBB4_462:                              # %for.inc.i2911
                                        #   in Loop: Header=BB4_438 Depth=1
	movslq	n_reloads(%rip), %rbx
	movq	$32, %rcx
	movq	%r15, %rax
	shlq	%cl, %rax
	movq	$32, %rcx
	sarq	%cl, %rax
	movq	%r15, %rdx
	incq	%r15
	addq	$104, %r12
	cmpq	%rbx, %rax
	jl	.LBB4_438
.LBB4_463:                              # %for.end.i
	movabsq	$4294967295, %rax       # imm = 0xFFFFFFFF
	movq	%rbx, %rcx
	andq	%rax, %rcx
	movq	%rdx, %rsi
	andq	%rax, %rsi
	cmpq	%rcx, %rsi
	jne	.LBB4_464
# BB#465:                               # %if.then702.i
	imulq	$104, %rbx, %rcx
	movq	$0, rld+8(%rcx)
	movq	$0, rld(%rcx)
	movq	144(%rsp), %rdx         # 8-byte Reload
	movl	%edx, rld+16(%rcx)
	xorq	%rdx, %rdx
	movl	%edx, rld+20(%rcx)
	movq	96(%rsp), %rsi          # 8-byte Reload
	movl	%esi, rld+24(%rcx)
	movq	$0, rld+64(%rcx)
	movzbl	rld+96(%rcx), %esi
	movq	240(%rsp), %rdi
	andq	$1, %rdi
	andq	$248, %rsi
	orq	%rdi, %rsi
	movl	%edx, rld+36(%rcx)
	movq	$0, rld+48(%rcx)
	movq	$0, rld+40(%rcx)
	movq	248(%rsp), %rdx
	movl	%edx, rld+72(%rcx)
	movl	%r13d, rld+92(%rcx)
	movq	%r13, 64(%rsp)          # 8-byte Spill
	movl	%eax, rld+76(%rcx)
	movl	%eax, rld+80(%rcx)
	movq	$1317, %rax             # imm = 0x525
	movl	%eax, rld+84(%rcx)
	movl	%eax, rld+88(%rcx)
	movq	$1317, 56(%rsp)         # 8-byte Folded Spill
                                        # imm = 0x525
	orq	$6, %rsi
	movb	%sil, rld+96(%rcx)
	leaq	1(%rbx), %r15
	movq	%rbx, 144(%rsp)         # 8-byte Spill
	movl	%r15d, n_reloads(%rip)
	movq	128(%rsp), %rax         # 8-byte Reload
	movq	%rax, 96(%rsp)          # 8-byte Spill
	movabsq	$4294967295, %r8        # imm = 0xFFFFFFFF
	movq	152(%rsp), %r10         # 8-byte Reload
	jmp	.LBB4_466
.LBB4_464:
	movl	reload_out_optab+8(%rip), %eax
	movq	$1317, %rsi             # imm = 0x525
	movq	128(%rsp), %rdi         # 8-byte Reload
	movq	120(%rsp), %r12         # 8-byte Reload
.LBB4_371:                              # %if.end772.ithread-pre-split
	movabsq	$4294967295, %r8        # imm = 0xFFFFFFFF
	movq	152(%rsp), %r10         # 8-byte Reload
.LBB4_407:                              # %if.end772.ithread-pre-split
	movq	%rdi, 96(%rsp)          # 8-byte Spill
	movq	%r13, 64(%rsp)          # 8-byte Spill
	movl	n_reloads(%rip), %r15d
	movq	%rsi, 56(%rsp)          # 8-byte Spill
	movq	%rax, 72(%rsp)          # 8-byte Spill
	movq	%r12, 120(%rsp)         # 8-byte Spill
	movq	%rdx, 144(%rsp)         # 8-byte Spill
.LBB4_466:                              # %if.end772.i
	movq	$32, %rcx
	movq	%r15, %rdx
	shlq	%cl, %rdx
	movq	$32, %rcx
	sarq	%cl, %rdx
	xorq	%rax, %rax
	testq	%rdx, %rdx
	jle	.LBB4_494
# BB#467:                               # %for.body776.i.lr.ph
	movq	$1, %r13
	movabsq	$rld+96, %r14
	movabsq	$4294967295, %r12       # imm = 0xFFFFFFFF
	.align	16, 0x90
.LBB4_468:                              # %for.body776.i
                                        # =>This Inner Loop Header: Depth=1
	movzbl	(%r14), %eax
	testq	$4, %rax
	je	.LBB4_493
# BB#469:                               # %land.lhs.true785.i
                                        #   in Loop: Header=BB4_468 Depth=1
	movl	-80(%r14), %esi
	movq	120(%rsp), %rdi         # 8-byte Reload
	movq	%r8, %r15
	movq	%r10, %rbx
	callq	reg_class_subset_p
	movq	%rbx, %r10
	movq	%r15, %r8
	testq	%r12, %rax
	jne	.LBB4_471
# BB#470:                               # %lor.lhs.false791.i
                                        #   in Loop: Header=BB4_468 Depth=1
	movl	-80(%r14), %edi
	movq	120(%rsp), %rsi         # 8-byte Reload
	movq	%r8, %r15
	movq	%r10, %rbx
	callq	reg_class_subset_p
	movq	%rbx, %r10
	movq	%r15, %r8
	testq	%r12, %rax
	je	.LBB4_493
.LBB4_471:                              # %land.lhs.true807.i
                                        #   in Loop: Header=BB4_468 Depth=1
	movl	-72(%r14), %eax
	movq	96(%rsp), %rcx          # 8-byte Reload
	andq	%r12, %rcx
	cmpq	%rcx, %rax
	jne	.LBB4_493
# BB#472:                               # %land.lhs.true823.i
                                        #   in Loop: Header=BB4_468 Depth=1
	movl	-16(%r14), %eax
	movq	144(%rsp), %rcx         # 8-byte Reload
	andq	%r12, %rcx
	cmpq	%rcx, %rax
	jne	.LBB4_493
# BB#473:                               # %land.lhs.true839.i
                                        #   in Loop: Header=BB4_468 Depth=1
	movl	-8(%r14), %eax
	movq	72(%rsp), %rcx          # 8-byte Reload
	cmpq	%rcx, %rax
	jne	.LBB4_493
# BB#474:                               # %land.lhs.true845.i
                                        #   in Loop: Header=BB4_468 Depth=1
	movq	64(%rsp), %r15          # 8-byte Reload
	andq	%r12, %r15
	cmpq	$9, %r15
	je	.LBB4_484
# BB#475:                               # %lor.lhs.false854.i
                                        #   in Loop: Header=BB4_468 Depth=1
	movl	-4(%r14), %eax
	cmpq	$9, %rax
	je	.LBB4_484
# BB#476:                               # %lor.lhs.false860.i
                                        #   in Loop: Header=BB4_468 Depth=1
	cmpq	%rax, %r15
	jne	.LBB4_478
# BB#477:                               # %land.lhs.true866.i
                                        #   in Loop: Header=BB4_468 Depth=1
	movl	-24(%r14), %ecx
	movq	248(%rsp), %rdx
	andq	%r12, %rdx
	cmpq	%rdx, %rcx
	je	.LBB4_484
.LBB4_478:                              # %lor.lhs.false872.i
                                        #   in Loop: Header=BB4_468 Depth=1
	cmpq	$10, %r15
	je	.LBB4_483
# BB#479:                               # %lor.lhs.false872.i
                                        #   in Loop: Header=BB4_468 Depth=1
	cmpq	$7, %r15
	jne	.LBB4_480
# BB#482:                               # %land.lhs.true884.i
                                        #   in Loop: Header=BB4_468 Depth=1
	cmpq	$7, %rax
	je	.LBB4_484
	jmp	.LBB4_493
.LBB4_483:                              # %land.lhs.true893.i
                                        #   in Loop: Header=BB4_468 Depth=1
	cmpq	$10, %rax
	jne	.LBB4_493
	jmp	.LBB4_484
.LBB4_480:                              # %lor.lhs.false872.i
                                        #   in Loop: Header=BB4_468 Depth=1
	movq	64(%rsp), %rcx          # 8-byte Reload
	testq	%r12, %rcx
	jne	.LBB4_493
# BB#481:                               # %land.lhs.true875.i
                                        #   in Loop: Header=BB4_468 Depth=1
	testq	%rax, %rax
	jne	.LBB4_493
.LBB4_484:                              # %if.then907.i
                                        #   in Loop: Header=BB4_468 Depth=1
	movq	%r10, %rbx
	movq	96(%rsp), %rax          # 8-byte Reload
	movl	%eax, -72(%r14)
	movl	-80(%r14), %esi
	movq	120(%rsp), %rdi         # 8-byte Reload
	callq	reg_class_subset_p
	testq	%r12, %rax
	je	.LBB4_486
# BB#485:                               # %if.then917.i
                                        #   in Loop: Header=BB4_468 Depth=1
	movq	120(%rsp), %rax         # 8-byte Reload
	movl	%eax, -80(%r14)
.LBB4_486:                              # %if.end921.i
                                        #   in Loop: Header=BB4_468 Depth=1
	movslq	-24(%r14), %rax
	movq	$32, %rcx
	movq	248(%rsp), %rsi
	movq	%rsi, %rdx
	shlq	%cl, %rdx
	movq	$32, %rcx
	sarq	%cl, %rdx
	cmpq	%rdx, %rax
	movabsq	$4294967295, %r8        # imm = 0xFFFFFFFF
	movq	%rbx, %r10
	jle	.LBB4_488
# BB#487:                               # %if.end921.i
                                        #   in Loop: Header=BB4_468 Depth=1
	movq	%rsi, %rax
.LBB4_488:                              # %if.end921.i
                                        #   in Loop: Header=BB4_468 Depth=1
	movl	%eax, -24(%r14)
	movzbl	(%r14), %ecx
	movq	%rcx, %rdx
	movq	240(%rsp), %rsi
	andq	%rsi, %rdx
	andq	$1, %rdx
	andq	$250, %rcx
	orq	%rdx, %rcx
	orq	$4, %rcx
	movb	%cl, (%r14)
	movl	-4(%r14), %ecx
	cmpq	%rcx, %r15
	jne	.LBB4_492
# BB#489:                               # %lor.lhs.false960.i
                                        #   in Loop: Header=BB4_468 Depth=1
	movq	248(%rsp), %rcx
	andq	%r12, %rcx
	andq	%r12, %rax
	cmpq	%rcx, %rax
	je	.LBB4_493
# BB#490:                               # %switch.early.test10.i
                                        #   in Loop: Header=BB4_468 Depth=1
	cmpq	$10, %r15
	ja	.LBB4_492
# BB#491:                               # %switch.early.test10.i
                                        #   in Loop: Header=BB4_468 Depth=1
	movq	$1, %rax
	movq	%r15, %rcx
	shlq	%cl, %rax
	testq	$1153, %rax             # imm = 0x481
	jne	.LBB4_493
.LBB4_492:                              # %if.then975.i
                                        #   in Loop: Header=BB4_468 Depth=1
	movq	$9, %rax
	movl	%eax, -4(%r14)
	.align	16, 0x90
.LBB4_493:                              # %for.inc981.i
                                        #   in Loop: Header=BB4_468 Depth=1
	movslq	n_reloads(%rip), %r15
	movq	$32, %rcx
	movq	%r13, %rdx
	shlq	%cl, %rdx
	movq	$32, %rcx
	sarq	%cl, %rdx
	movq	%r13, %rax
	incq	%r13
	addq	$104, %r14
	cmpq	%r15, %rdx
	jl	.LBB4_468
.LBB4_494:                              # %for.end983.i
	movabsq	$4294967295, %r12       # imm = 0xFFFFFFFF
	movq	%r15, %rcx
	andq	%r12, %rcx
	movq	%rax, %rdx
	andq	%r12, %rdx
	cmpq	%rcx, %rdx
	jne	.LBB4_495
# BB#496:                               # %if.end996.i
	movq	$32, %rcx
	movq	%r15, %rax
	shlq	%cl, %rax
	movq	$32, %rcx
	sarq	%cl, %rax
	imulq	$104, %rax, %rax
	movq	$0, rld+8(%rax)
	movq	$0, rld(%rax)
	movq	120(%rsp), %r9          # 8-byte Reload
	movl	%r9d, rld+16(%rax)
	xorq	%rcx, %rcx
	movl	%ecx, rld+20(%rax)
	movq	96(%rsp), %rdx          # 8-byte Reload
	movl	%edx, rld+24(%rax)
	movq	$0, rld+64(%rax)
	movzbl	rld+96(%rax), %edi
	movq	240(%rsp), %rsi
	andq	$1, %rsi
	andq	$248, %rdi
	orq	%rsi, %rdi
	orq	$6, %rdi
	leaq	1(%r15), %rsi
	movq	56(%rsp), %rbx          # 8-byte Reload
	cmpq	$1317, %rbx             # imm = 0x525
	movl	%ecx, rld+36(%rax)
	movq	$0, rld+48(%rax)
	movq	$0, rld+40(%rax)
	movq	248(%rsp), %rcx
	movl	%ecx, rld+72(%rax)
	movq	64(%rsp), %rcx          # 8-byte Reload
	movl	%ecx, rld+92(%rax)
	movl	%r12d, rld+76(%rax)
	movq	144(%rsp), %rcx         # 8-byte Reload
	movl	%ecx, rld+80(%rax)
	movq	$1317, %rcx             # imm = 0x525
	movl	%ecx, rld+84(%rax)
	movq	72(%rsp), %rcx          # 8-byte Reload
	movl	%ecx, rld+88(%rax)
	movb	%dil, rld+96(%rax)
	movl	%esi, n_reloads(%rip)
	jne	.LBB4_497
# BB#498:                               # %land.lhs.true1097.i
	movq	$1317, 144(%rsp)        # 8-byte Folded Spill
                                        # imm = 0x525
	movq	%r10, %rbx
	movq	%r8, %r14
	movq	$1, %rcx
	movq	160(%rsp), %rdi         # 8-byte Reload
	movq	%r9, %rsi
	movq	%rdx, %r13
	callq	ix86_secondary_memory_needed
	testq	%r12, %rax
	je	.LBB4_500
# BB#499:                               # %if.then1100.i
	movq	%r13, %rsi
	movq	248(%rsp), %rdx
	movq	256(%rsp), %rcx
	callq	get_secondary_mem
.LBB4_500:                              # %if.end1307
	movq	%r14, %r8
	movq	%rbx, %r10
	jmp	.LBB4_501
.LBB4_495:
	movq	56(%rsp), %rcx          # 8-byte Reload
	movq	%rcx, 144(%rsp)         # 8-byte Spill
	movq	%rax, %r15
	jmp	.LBB4_501
.LBB4_497:
	movq	%rbx, 144(%rsp)         # 8-byte Spill
.LBB4_501:                              # %if.end1307
	movq	160(%rsp), %rbx         # 8-byte Reload
	movq	168(%rsp), %rcx         # 8-byte Reload
.LBB4_502:                              # %if.end1307
	testq	%rcx, %rcx
	je	.LBB4_507
# BB#503:                               # %land.lhs.true1310
	movzbl	(%rcx), %eax
	cmpq	$61, %rax
	jne	.LBB4_507
# BB#504:                               # %land.lhs.true1315
	movl	8(%rcx), %eax
	cmpq	$52, %rax
	ja	.LBB4_507
# BB#505:                               # %land.lhs.true1321
	movl	regclass_map(,%rax,4), %edi
	movq	%rcx, %r13
	movq	$1, %rcx
	movq	%rbx, %rsi
	movq	136(%rsp), %rdx         # 8-byte Reload
	movq	%rbx, %r12
	movq	%r8, %rbx
	movq	%r10, %r14
	callq	ix86_secondary_memory_needed
	movq	%r14, %r10
	movq	%rbx, %r8
	movq	%r12, %rbx
	movabsq	$4294967295, %rcx       # imm = 0xFFFFFFFF
	testq	%rcx, %rax
	movq	%r13, %rcx
	je	.LBB4_507
# BB#506:                               # %if.then1329
	movq	136(%rsp), %rsi         # 8-byte Reload
	movq	248(%rsp), %rdx
	movq	%rcx, %r13
	movq	256(%rsp), %rcx
	movq	%r8, %r14
	movq	%rbx, %r12
	movq	%r10, %rbx
	callq	get_secondary_mem
	movq	%r13, %rcx
	movq	%rbx, %r10
	movq	%r12, %rbx
	movq	%r14, %r8
.LBB4_507:                              # %if.end1331
	movslq	n_reloads(%rip), %r12
	imulq	$104, %r12, %rdx
	movq	%rcx, rld(%rdx)
	movq	%rcx, %r13
	movq	%r10, rld+8(%rdx)
	movl	%ebx, rld+16(%rdx)
	movq	136(%rsp), %rax         # 8-byte Reload
	movl	%eax, rld+20(%rdx)
	movq	128(%rsp), %rax         # 8-byte Reload
	movl	%eax, rld+24(%rdx)
	movq	$0, rld+64(%rdx)
	movzbl	rld+96(%rdx), %eax
	movq	240(%rsp), %rcx
	andq	$1, %rcx
	andq	$-2, %rax
	orq	%rcx, %rax
	xorq	%rcx, %rcx
	movl	%ecx, rld+36(%rdx)
	movq	%rax, %rsi
	andq	$253, %rsi
	movb	%sil, rld+96(%rdx)
	movq	112(%rsp), %rsi         # 8-byte Reload
	testq	%rsi, %rsi
	movabsq	$0, %rdi
	je	.LBB4_509
# BB#508:                               # %cond.true1362
	movq	(%rsi), %rdi
.LBB4_509:                              # %cond.end1364
	movq	%rsi, %r9
	leaq	rld+96(%rdx), %r11
	imulq	$104, %r12, %rsi
	movq	%rdi, rld+40(%rsi)
	movq	104(%rsp), %rdi         # 8-byte Reload
	testq	%rdi, %rdi
	movq	248(%rsp), %rdx
	je	.LBB4_511
# BB#510:                               # %cond.true1369
	movq	(%rdi), %rcx
.LBB4_511:                              # %cond.end1371
	movq	%rdi, %rbx
	andq	$249, %rax
	leaq	1(%r12), %rdi
	testq	%r10, %r10
	movq	%rcx, rld+48(%rsi)
	movl	%edx, rld+72(%rsi)
	movq	256(%rsp), %rcx
	movl	%ecx, rld+92(%rsi)
	movabsq	$4294967295, %r14       # imm = 0xFFFFFFFF
	movl	%r14d, rld+76(%rsi)
	movl	%r15d, rld+80(%rsi)
	movq	$1317, %rcx             # imm = 0x525
	movl	%ecx, rld+84(%rsi)
	movq	144(%rsp), %rcx         # 8-byte Reload
	movl	%ecx, rld+88(%rsi)
	movb	%al, (%r11)
	movl	%edi, n_reloads(%rip)
	je	.LBB4_512
# BB#513:                               # %land.lhs.true1399
	movzbl	(%r10), %eax
	cmpq	$61, %rax
	movq	%r9, %r15
	movq	%rbx, %r9
	jne	.LBB4_514
# BB#515:                               # %land.lhs.true1404
	movl	8(%r10), %eax
	cmpq	$52, %rax
	ja	.LBB4_514
# BB#516:                               # %land.lhs.true1410
	movq	%r10, 152(%rsp)         # 8-byte Spill
	movl	regclass_map(,%rax,4), %esi
	movq	$1, %rcx
	movq	160(%rsp), %rdi         # 8-byte Reload
	movq	128(%rsp), %rbx         # 8-byte Reload
	movq	%rbx, %rdx
	callq	ix86_secondary_memory_needed
	testq	%r14, %rax
	je	.LBB4_517
# BB#518:                               # %if.then1418
	movq	%rbx, %rsi
	movq	248(%rsp), %rdx
	movq	256(%rsp), %rcx
	callq	get_secondary_mem
.LBB4_517:
	movq	%r13, %r11
	movabsq	$4294967295, %r8        # imm = 0xFFFFFFFF
	movq	152(%rsp), %r10         # 8-byte Reload
	movq	104(%rsp), %r9          # 8-byte Reload
	movq	%r15, %rdx
	jmp	.LBB4_554
.LBB4_514:
	movq	%r13, %r11
	movq	%r15, %rdx
	jmp	.LBB4_554
.LBB4_512:
	movq	%r13, %r11
	movq	%r9, %rdx
	movq	%rbx, %r9
.LBB4_554:                              # %if.end1594
	movq	%r12, 144(%rsp)         # 8-byte Spill
	movq	%r11, 168(%rsp)         # 8-byte Spill
	testq	%r11, %r11
	je	.LBB4_557
# BB#555:                               # %land.lhs.true1597
	movq	(%rdx), %rax
	cmpq	%rax, %r11
	je	.LBB4_557
# BB#556:                               # %if.then1600
	movq	$32, %rcx
	movq	%r12, %rax
	shlq	%cl, %rax
	movq	$32, %rcx
	sarq	%cl, %rax
	imulq	$104, %rax, %rax
	movzbl	rld+96(%rax), %ecx
	orq	$2, %rcx
	movb	%cl, rld+96(%rax)
.LBB4_557:                              # %if.end1607
	movl	replace_reloads(%rip), %eax
	testq	%rax, %rax
	je	.LBB4_563
# BB#558:                               # %if.then1609
	testq	%rdx, %rdx
	je	.LBB4_560
# BB#559:                               # %if.then1612
	movslq	n_replacements(%rip), %rax
	leaq	1(%rax), %rcx
	movl	%ecx, n_replacements(%rip)
	leaq	(%rax,%rax,2), %rax
	movl	%r12d, replacements+16(,%rax,8)
	movq	80(%rsp), %rcx          # 8-byte Reload
	movq	%rcx, replacements+8(,%rax,8)
	movq	%rdx, replacements(,%rax,8)
	movq	136(%rsp), %rcx         # 8-byte Reload
	movl	%ecx, replacements+20(,%rax,8)
.LBB4_560:                              # %if.end1617
	testq	%r9, %r9
	je	.LBB4_563
# BB#561:                               # %if.end1617
	cmpq	%rdx, %r9
	je	.LBB4_563
# BB#562:                               # %if.then1623
	movslq	n_replacements(%rip), %rax
	leaq	1(%rax), %rcx
	movl	%ecx, n_replacements(%rip)
	leaq	(%rax,%rax,2), %rax
	movl	%r12d, replacements+16(,%rax,8)
	movq	%r9, replacements(,%rax,8)
	movq	88(%rsp), %rcx          # 8-byte Reload
	movq	%rcx, replacements+8(,%rax,8)
	movq	128(%rsp), %rcx         # 8-byte Reload
	movl	%ecx, replacements+20(,%rax,8)
.LBB4_563:                              # %if.end1633
	movq	%r8, %r15
	testq	%r10, %r10
	movabsq	$0, %rax
	movabsq	$1, %rcx
	movq	%rax, %rdi
	jne	.LBB4_565
# BB#564:                               # %if.end1633
	movq	%rcx, %rdi
.LBB4_565:                              # %if.end1633
	testq	%r11, %r11
	jne	.LBB4_567
# BB#566:                               # %if.end1633
	movq	%rcx, %rax
.LBB4_567:                              # %if.end1633
	movq	$32, %rcx
	movq	%r12, %rsi
	shlq	%cl, %rsi
	movq	$32, %rcx
	sarq	%cl, %rsi
	imulq	$104, %rsi, %rbx
	cmpq	%r10, %r11
	leaq	rld+64(%rbx), %rsi
	je	.LBB4_584
# BB#568:                               # %if.end1633
	orq	%rdi, %rax
	jne	.LBB4_584
# BB#569:                               # %land.lhs.true1642
	cmpq	$0, (%rsi)
	jne	.LBB4_584
# BB#570:                               # %if.then1648
	movq	%rsi, 96(%rsp)          # 8-byte Spill
	movslq	n_earlyclobbers(%rip), %rax
	movl	rld+16(%rbx), %r8d
	testq	%rax, %rax
	jle	.LBB4_571
# BB#574:
	movq	$1, %rsi
	.align	16, 0x90
.LBB4_575:                              # %for.body.i
                                        # =>This Inner Loop Header: Depth=1
	movq	reload_earlyclobbers-8(,%rsi,8), %rcx
	cmpq	%r10, %rcx
	movq	$1, %rcx
	je	.LBB4_576
# BB#572:                               # %for.cond.i
                                        #   in Loop: Header=BB4_575 Depth=1
	movq	$32, %rcx
	movq	%rsi, %rdi
	shlq	%cl, %rdi
	movq	$32, %rcx
	sarq	%cl, %rdi
	incq	%rsi
	cmpq	%rax, %rdi
	jl	.LBB4_575
# BB#573:
	xorq	%rcx, %rcx
	jmp	.LBB4_576
.LBB4_571:
	xorq	%rcx, %rcx
.LBB4_576:                              # %earlyclobber_operand_p.exit
	movq	%rcx, 16(%rsp)
	movq	%r12, 8(%rsp)
	movq	%r8, (%rsp)
	movq	%r11, %rdi
	movq	%r10, %rsi
	movq	%r9, %rcx
	movq	136(%rsp), %r8          # 8-byte Reload
	movq	128(%rsp), %r9          # 8-byte Reload
	movq	%r11, %r13
	movq	%r10, %r14
	callq	find_dummy_reload
	movq	%r14, %r10
	movq	%r13, %r11
	cmpq	%r10, %rax
	movq	96(%rsp), %rsi          # 8-byte Reload
	movq	%rax, (%rsi)
	jne	.LBB4_584
# BB#577:                               # %land.lhs.true1662
	movzbl	(%r11), %ecx
	cmpq	$133, %rcx
	jg	.LBB4_580
# BB#578:                               # %land.lhs.true1662
	addq	$-54, %rcx
	andq	%r15, %rcx
	cmpq	$14, %rcx
	ja	.LBB4_584
# BB#579:                               # %land.lhs.true1662
	movq	$1, %rax
	shlq	%cl, %rax
	testq	$24727, %rax            # imm = 0x6097
	jne	.LBB4_582
	jmp	.LBB4_584
.LBB4_580:                              # %land.lhs.true1662
	cmpq	$134, %rcx
	je	.LBB4_582
# BB#581:                               # %land.lhs.true1662
	cmpq	$140, %rcx
	jne	.LBB4_584
.LBB4_582:                              # %land.lhs.true1707
	movq	this_insn(%rip), %rsi
	movq	static_reload_reg_p(%rip), %r8
	movl	8(%r10), %ecx
	xorq	%rdx, %rdx
	movq	136(%rsp), %rax         # 8-byte Reload
	movq	%rax, (%rsp)
	movq	%r11, %rdi
	movq	%r12, %r9
	movq	%r11, %r13
	movq	%r10, %r14
	callq	find_equiv_reg
	movq	96(%rsp), %rsi          # 8-byte Reload
	movq	%r14, %r10
	movq	%r13, %r11
	testq	%rax, %rax
	je	.LBB4_584
# BB#583:                               # %if.then1714
	movq	%r10, rld(%rbx)
.LBB4_584:                              # %if.end1719
	movq	%rsi, 96(%rsp)          # 8-byte Spill
	cmpq	$0, (%rsi)
	movq	%r15, %r9
	jne	.LBB4_676
# BB#585:                               # %if.end1719
	testq	%r11, %r11
	je	.LBB4_676
# BB#586:                               # %if.then1728
	testq	%r10, %r10
	movq	136(%rsp), %rax         # 8-byte Reload
	movq	%rax, 120(%rsp)         # 8-byte Spill
	je	.LBB4_589
# BB#587:                               # %land.lhs.true1731
	movq	$32, %rcx
	movq	128(%rsp), %rsi         # 8-byte Reload
	movq	%rsi, %rax
	shlq	%cl, %rax
	movq	$32, %rcx
	sarq	%cl, %rax
	movzbl	mode_size(%rax), %eax
	movq	$32, %rcx
	movq	136(%rsp), %rdx         # 8-byte Reload
	shlq	%cl, %rdx
	movq	$32, %rcx
	sarq	%cl, %rdx
	movzbl	mode_size(%rdx), %ecx
	cmpq	%rcx, %rax
	movq	%rsi, 120(%rsp)         # 8-byte Spill
	ja	.LBB4_589
# BB#588:                               # %select.mid129
	movq	136(%rsp), %rax         # 8-byte Reload
	movq	%rax, 120(%rsp)         # 8-byte Spill
.LBB4_589:                              # %if.end1741
	movq	this_insn(%rip), %rax
	movq	56(%rax), %rbx
	testq	%rbx, %rbx
	je	.LBB4_676
# BB#590:                               # %for.body1747.lr.ph
	cmpq	%r10, %r11
	movabsq	$0, %rax
	jne	.LBB4_592
# BB#591:                               # %for.body1747.lr.ph
	movabsq	$1, %rax
.LBB4_592:                              # %for.body1747.lr.ph
	movq	$32, %rcx
	movq	120(%rsp), %rdx         # 8-byte Reload
	shlq	%cl, %rdx
	movq	$32, %rcx
	sarq	%cl, %rdx
	movq	%rdx, 104(%rsp)         # 8-byte Spill
	testq	%r10, %r10
	movabsq	$0, %rcx
	movq	128(%rsp), %rdx         # 8-byte Reload
	jne	.LBB4_594
# BB#593:                               # %for.body1747.lr.ph
	movabsq	$1, %rcx
.LBB4_594:                              # %for.body1747.lr.ph
	orq	%rax, %rcx
	movq	%rcx, 80(%rsp)          # 8-byte Spill
	movq	$32, %rcx
	movq	136(%rsp), %rax         # 8-byte Reload
	shlq	%cl, %rax
	movq	$32, %rcx
	sarq	%cl, %rax
	movq	%rax, 72(%rsp)          # 8-byte Spill
	movq	$32, %rcx
	shlq	%cl, %rdx
	movq	$32, %rcx
	sarq	%cl, %rdx
	movq	%rdx, 64(%rsp)          # 8-byte Spill
	movq	$32, %rcx
	movq	160(%rsp), %rax         # 8-byte Reload
	shlq	%cl, %rax
	movq	$32, %rcx
	sarq	%cl, %rax
	movq	%rax, 160(%rsp)         # 8-byte Spill
	.align	16, 0x90
.LBB4_595:                              # %for.body1747
                                        # =>This Loop Header: Depth=1
                                        #     Child Loop BB4_670 Depth 2
	movl	(%rbx), %eax
	andq	$16711680, %rax         # imm = 0xFF0000
	cmpq	$65536, %rax            # imm = 0x10000
	jne	.LBB4_675
# BB#596:                               # %land.lhs.true1753
                                        #   in Loop: Header=BB4_595 Depth=1
	movq	8(%rbx), %rdi
	movzbl	(%rdi), %eax
	cmpq	$61, %rax
	jne	.LBB4_675
# BB#597:                               # %land.lhs.true1761
                                        #   in Loop: Header=BB4_595 Depth=1
	movslq	8(%rdi), %rax
	cmpq	$52, %rax
	jg	.LBB4_675
# BB#598:                               # %land.lhs.true1770
                                        #   in Loop: Header=BB4_595 Depth=1
	movq	%r11, %rsi
	movq	%r9, %r15
	movq	%rax, %r12
	movq	%r11, %r13
	movq	%r10, %r14
	callq	reg_mentioned_p
	movq	%r14, %r10
	movq	%r13, %r11
	movq	%r12, %r13
	movq	144(%rsp), %r12         # 8-byte Reload
	movq	%r15, %r9
	testq	%r9, %rax
	je	.LBB4_675
# BB#599:                               # %land.lhs.true1776
                                        #   in Loop: Header=BB4_595 Depth=1
	movq	%r13, %rax
	movabsq	$4294967288, %rcx       # imm = 0xFFFFFFF8
	andq	%rcx, %rax
	cmpq	$8, %rax
	movabsq	$0, %rax
	jne	.LBB4_601
# BB#600:                               # %land.lhs.true1776
                                        #   in Loop: Header=BB4_595 Depth=1
	movabsq	$1, %rax
.LBB4_601:                              # %land.lhs.true1776
                                        #   in Loop: Header=BB4_595 Depth=1
	leaq	-21(%r13), %rcx
	andq	%r9, %rcx
	cmpq	$8, %rcx
	sbbq	%rcx, %rcx
	andq	$1, %rcx
	orq	%rax, %rcx
	leaq	-45(%r13), %rax
	andq	%r9, %rax
	cmpq	$8, %rax
	sbbq	%rax, %rax
	andq	$1, %rax
	orq	%rcx, %rax
	leaq	-29(%r13), %rcx
	andq	%r9, %rcx
	cmpq	$8, %rcx
	sbbq	%rcx, %rcx
	andq	$1, %rcx
	orq	%rax, %rcx
	movq	%rcx, 88(%rsp)          # 8-byte Spill
	je	.LBB4_606
# BB#602:                               # %cond.true1800
                                        #   in Loop: Header=BB4_595 Depth=1
	movq	%r10, %r14
	movq	%r9, %r15
	movq	104(%rsp), %rax         # 8-byte Reload
	movl	mode_class(,%rax,4), %eax
	cmpq	$5, %rax
	movq	$2, %rsi
	je	.LBB4_611
# BB#603:                               # %lor.rhs1805
                                        #   in Loop: Header=BB4_595 Depth=1
	cmpq	$6, %rax
	movabsq	$0, %rsi
	jne	.LBB4_605
# BB#604:                               # %lor.rhs1805
                                        #   in Loop: Header=BB4_595 Depth=1
	movabsq	$1, %rsi
.LBB4_605:                              # %lor.rhs1805
                                        #   in Loop: Header=BB4_595 Depth=1
	incq	%rsi
	jmp	.LBB4_611
.LBB4_606:                              # %cond.false1812
                                        #   in Loop: Header=BB4_595 Depth=1
	movq	120(%rsp), %rax         # 8-byte Reload
	andq	%r9, %rax
	cmpq	$24, %rax
	jne	.LBB4_607
# BB#609:                               # %cond.true1822
                                        #   in Loop: Header=BB4_595 Depth=1
	movq	%r10, %r14
	movq	%r9, %r15
	movzbl	target_flags+3(%rip), %esi
	andq	$2, %rsi
	xorq	$6, %rsi
	jmp	.LBB4_611
.LBB4_607:                              # %cond.false1812
                                        #   in Loop: Header=BB4_595 Depth=1
	movq	%r9, %r15
	movq	%r10, %r14
	cmpq	$18, %rax
	jne	.LBB4_610
# BB#608:                               # %cond.true1815
                                        #   in Loop: Header=BB4_595 Depth=1
	movl	target_flags(%rip), %esi
	movq	$25, %rcx
	shrq	%cl, %rsi
	andq	$1, %rsi
	xorq	$3, %rsi
	jmp	.LBB4_611
.LBB4_610:                              # %cond.false1826
                                        #   in Loop: Header=BB4_595 Depth=1
	movl	target_flags(%rip), %esi
	movq	104(%rsp), %rax         # 8-byte Reload
	movzbl	mode_size(%rax), %eax
	movq	$23, %rcx
	shrq	%cl, %rsi
	andq	$4, %rsi
	leaq	3(%rax,%rsi), %rax
	addq	$4, %rsi
	cqto
	idivq	%rsi
	movq	%rax, %rsi
.LBB4_611:                              # %cond.end1843
                                        #   in Loop: Header=BB4_595 Depth=1
	movq	this_insn(%rip), %rax
	movq	32(%rax), %rdx
	addq	%r13, %rsi
	movq	%r13, %rdi
	movq	112(%rsp), %rcx         # 8-byte Reload
	callq	refers_to_regno_for_reload_p
	movq	%r15, %r9
	testq	%r9, %rax
	movq	%r14, %r10
	movq	168(%rsp), %r11         # 8-byte Reload
	jne	.LBB4_675
# BB#612:                               # %land.lhs.true1851
                                        #   in Loop: Header=BB4_595 Depth=1
	cmpq	$0, 80(%rsp)            # 8-byte Folded Reload
	jne	.LBB4_624
# BB#613:                               # %lor.lhs.false1857
                                        #   in Loop: Header=BB4_595 Depth=1
	testq	$1, 88(%rsp)            # 8-byte Folded Reload
	je	.LBB4_618
# BB#614:                               # %cond.true1881
                                        #   in Loop: Header=BB4_595 Depth=1
	movq	%r10, %r14
	movq	%r9, %r15
	movq	104(%rsp), %rax         # 8-byte Reload
	movl	mode_class(,%rax,4), %eax
	cmpq	$5, %rax
	movq	$2, %rsi
	je	.LBB4_623
# BB#615:                               # %lor.rhs1886
                                        #   in Loop: Header=BB4_595 Depth=1
	cmpq	$6, %rax
	movabsq	$0, %rsi
	jne	.LBB4_617
# BB#616:                               # %lor.rhs1886
                                        #   in Loop: Header=BB4_595 Depth=1
	movabsq	$1, %rsi
.LBB4_617:                              # %lor.rhs1886
                                        #   in Loop: Header=BB4_595 Depth=1
	incq	%rsi
	jmp	.LBB4_623
.LBB4_618:                              # %cond.false1893
                                        #   in Loop: Header=BB4_595 Depth=1
	movq	120(%rsp), %rax         # 8-byte Reload
	andq	%r9, %rax
	cmpq	$24, %rax
	jne	.LBB4_619
# BB#621:                               # %cond.true1903
                                        #   in Loop: Header=BB4_595 Depth=1
	movq	%r10, %r14
	movq	%r9, %r15
	movzbl	target_flags+3(%rip), %esi
	andq	$2, %rsi
	xorq	$6, %rsi
	jmp	.LBB4_623
.LBB4_619:                              # %cond.false1893
                                        #   in Loop: Header=BB4_595 Depth=1
	movq	%r9, %r15
	movq	%r10, %r14
	cmpq	$18, %rax
	jne	.LBB4_622
# BB#620:                               # %cond.true1896
                                        #   in Loop: Header=BB4_595 Depth=1
	movl	target_flags(%rip), %esi
	movq	$25, %rcx
	shrq	%cl, %rsi
	andq	$1, %rsi
	xorq	$3, %rsi
	jmp	.LBB4_623
.LBB4_622:                              # %cond.false1907
                                        #   in Loop: Header=BB4_595 Depth=1
	movl	target_flags(%rip), %esi
	movq	104(%rsp), %rax         # 8-byte Reload
	movzbl	mode_size(%rax), %eax
	movq	$23, %rcx
	shrq	%cl, %rsi
	andq	$4, %rsi
	leaq	3(%rax,%rsi), %rax
	addq	$4, %rsi
	cqto
	idivq	%rsi
	movq	%rax, %rsi
.LBB4_623:                              # %cond.end1924
                                        #   in Loop: Header=BB4_595 Depth=1
	movq	this_insn(%rip), %rax
	movq	32(%rax), %rdx
	addq	%r13, %rsi
	movq	%r13, %rdi
	callq	hard_reg_set_here_p
	movq	%r15, %r9
	testq	%r9, %rax
	movq	%r14, %r10
	movq	168(%rsp), %r11         # 8-byte Reload
	jne	.LBB4_675
.LBB4_624:                              # %land.lhs.true1932
                                        #   in Loop: Header=BB4_595 Depth=1
	cmpq	%r10, %r11
	jne	.LBB4_627
# BB#625:                               # %lor.lhs.false1935
                                        #   in Loop: Header=BB4_595 Depth=1
	movl	(%r11), %eax
	movq	%rax, %rcx
	andq	$65535, %rcx            # imm = 0xFFFF
	cmpq	$63, %rcx
	jne	.LBB4_675
# BB#626:                               # %land.lhs.true1940
                                        #   in Loop: Header=BB4_595 Depth=1
	movq	$16, %rcx
	shrq	%cl, %rax
	andq	$255, %rax
	movl	target_flags(%rip), %esi
	movzbl	mode_size(%rax), %eax
	movq	$23, %rcx
	shrq	%cl, %rsi
	andq	$4, %rsi
	leaq	4(%rsi), %rdi
	leaq	3(%rsi,%rax), %rax
	cqto
	idivq	%rdi
	movq	%rax, %rcx
	movq	8(%r11), %rax
	movzbl	2(%rax), %eax
	movzbl	mode_size(%rax), %eax
	leaq	3(%rax,%rsi), %rax
	cqto
	idivq	%rdi
	andq	%r9, %rcx
	andq	%r9, %rax
	cmpq	%rax, %rcx
	jne	.LBB4_675
.LBB4_627:                              # %land.lhs.true1976
                                        #   in Loop: Header=BB4_595 Depth=1
	movq	8(%rbx), %rax
	movzbl	2(%rax), %eax
	movq	104(%rsp), %rcx         # 8-byte Reload
	movzbl	mode_size(%rcx), %ecx
	movzbl	mode_size(%rax), %eax
	cmpq	%rax, %rcx
	ja	.LBB4_675
# BB#628:                               # %land.lhs.true1991
                                        #   in Loop: Header=BB4_595 Depth=1
	movq	%r13, %rdi
	movq	136(%rsp), %rsi         # 8-byte Reload
	movq	%r9, %r15
	movq	%r13, %r12
	movq	%r11, %r13
	movq	%r10, %r14
	callq	ix86_hard_regno_mode_ok
	movq	%r14, %r10
	movq	%r13, %r11
	movq	%r12, %rdi
	movq	144(%rsp), %r12         # 8-byte Reload
	movq	%r15, %r9
	testq	%r9, %rax
	je	.LBB4_675
# BB#629:                               # %land.lhs.true1994
                                        #   in Loop: Header=BB4_595 Depth=1
	movq	128(%rsp), %rsi         # 8-byte Reload
	movq	%r9, %r15
	movq	%rdi, %r12
	movq	%r11, %r13
	movq	%r10, %r14
	callq	ix86_hard_regno_mode_ok
	movq	%r14, %r10
	movq	%r13, %r11
	movq	%r12, %r14
	movq	144(%rsp), %r12         # 8-byte Reload
	movq	%r15, %r9
	testq	%r9, %rax
	je	.LBB4_675
# BB#630:                               # %if.then1997
                                        #   in Loop: Header=BB4_595 Depth=1
	testq	$1, 88(%rsp)            # 8-byte Folded Reload
	je	.LBB4_639
# BB#631:                               # %cond.true2022
                                        #   in Loop: Header=BB4_595 Depth=1
	movq	72(%rsp), %rax          # 8-byte Reload
	movl	mode_class(,%rax,4), %ecx
	cmpq	$5, %rcx
	movq	$2, %rax
	movq	$2, %rsi
	je	.LBB4_635
# BB#632:                               # %lor.rhs2027
                                        #   in Loop: Header=BB4_595 Depth=1
	cmpq	$6, %rcx
	movabsq	$0, %rsi
	jne	.LBB4_634
# BB#633:                               # %lor.rhs2027
                                        #   in Loop: Header=BB4_595 Depth=1
	movabsq	$1, %rsi
.LBB4_634:                              # %lor.rhs2027
                                        #   in Loop: Header=BB4_595 Depth=1
	incq	%rsi
.LBB4_635:                              # %cond.true2090
                                        #   in Loop: Header=BB4_595 Depth=1
	movq	64(%rsp), %rcx          # 8-byte Reload
	movl	mode_class(,%rcx,4), %ecx
	cmpq	$5, %rcx
	je	.LBB4_668
# BB#636:                               # %lor.rhs2095
                                        #   in Loop: Header=BB4_595 Depth=1
	cmpq	$6, %rcx
	movabsq	$0, %rdi
	jne	.LBB4_638
# BB#637:                               # %lor.rhs2095
                                        #   in Loop: Header=BB4_595 Depth=1
	movabsq	$1, %rdi
.LBB4_638:                              # %lor.rhs2095
                                        #   in Loop: Header=BB4_595 Depth=1
	incq	%rdi
	jmp	.LBB4_649
.LBB4_639:                              # %cond.false2034
                                        #   in Loop: Header=BB4_595 Depth=1
	movq	136(%rsp), %rax         # 8-byte Reload
	andq	%r9, %rax
	cmpq	$24, %rax
	jne	.LBB4_640
# BB#643:                               # %cond.true2044
                                        #   in Loop: Header=BB4_595 Depth=1
	movl	target_flags(%rip), %edi
	movq	$24, %rcx
	movq	%rdi, %rsi
	shrq	%cl, %rsi
	andq	$2, %rsi
	xorq	$6, %rsi
	jmp	.LBB4_644
.LBB4_640:                              # %cond.false2034
                                        #   in Loop: Header=BB4_595 Depth=1
	cmpq	$18, %rax
	jne	.LBB4_642
# BB#641:                               # %cond.end2065.thread3046
                                        #   in Loop: Header=BB4_595 Depth=1
	movl	target_flags(%rip), %edi
	movq	$25, %rcx
	movq	%rdi, %rsi
	shrq	%cl, %rsi
	andq	$1, %rsi
	xorq	$3, %rsi
	jmp	.LBB4_644
.LBB4_642:                              # %cond.false2048
                                        #   in Loop: Header=BB4_595 Depth=1
	movl	target_flags(%rip), %edi
	movq	72(%rsp), %rax          # 8-byte Reload
	movzbl	mode_size(%rax), %eax
	movq	$23, %rcx
	movq	%rdi, %rsi
	shrq	%cl, %rsi
	andq	$4, %rsi
	leaq	3(%rax,%rsi), %rax
	addq	$4, %rsi
	cqto
	idivq	%rsi
	movq	%rax, %rsi
.LBB4_644:                              # %cond.false2102
                                        #   in Loop: Header=BB4_595 Depth=1
	movq	128(%rsp), %rax         # 8-byte Reload
	andq	%r9, %rax
	cmpq	$24, %rax
	jne	.LBB4_645
# BB#647:                               # %cond.true2112
                                        #   in Loop: Header=BB4_595 Depth=1
	movq	$24, %rcx
	shrq	%cl, %rdi
	andq	$2, %rdi
	xorq	$6, %rdi
	jmp	.LBB4_649
.LBB4_645:                              # %cond.false2102
                                        #   in Loop: Header=BB4_595 Depth=1
	cmpq	$18, %rax
	jne	.LBB4_648
# BB#646:                               # %cond.true2105
                                        #   in Loop: Header=BB4_595 Depth=1
	movq	$25, %rcx
	shrq	%cl, %rdi
	andq	$1, %rdi
	xorq	$3, %rdi
	jmp	.LBB4_649
.LBB4_648:                              # %cond.false2116
                                        #   in Loop: Header=BB4_595 Depth=1
	movq	64(%rsp), %rax          # 8-byte Reload
	movzbl	mode_size(%rax), %eax
	movq	$23, %rcx
	shrq	%cl, %rdi
	andq	$4, %rdi
	leaq	3(%rax,%rdi), %rax
	addq	$4, %rdi
	cqto
	idivq	%rdi
	movq	%rax, %rdi
.LBB4_649:                              # %cond.end2133
                                        #   in Loop: Header=BB4_595 Depth=1
	movq	$32, %rcx
	shlq	%cl, %rdi
	movq	$32, %rcx
	sarq	%cl, %rdi
	movq	$32, %rcx
	shlq	%cl, %rsi
	movq	$32, %rcx
	sarq	%cl, %rsi
	cmpq	%rdi, %rsi
	jle	.LBB4_659
# BB#650:                               # %cond.true2137
                                        #   in Loop: Header=BB4_595 Depth=1
	testq	$1, 88(%rsp)            # 8-byte Folded Reload
	je	.LBB4_655
# BB#651:                               # %cond.true2161
                                        #   in Loop: Header=BB4_595 Depth=1
	movq	72(%rsp), %rax          # 8-byte Reload
	movl	mode_class(,%rax,4), %ecx
	cmpq	$5, %rcx
	movq	$2, %rax
	je	.LBB4_668
# BB#652:                               # %lor.rhs2166
                                        #   in Loop: Header=BB4_595 Depth=1
	cmpq	$6, %rcx
	movabsq	$0, %rax
	jne	.LBB4_654
# BB#653:                               # %lor.rhs2166
                                        #   in Loop: Header=BB4_595 Depth=1
	movabsq	$1, %rax
.LBB4_654:                              # %lor.rhs2166
                                        #   in Loop: Header=BB4_595 Depth=1
	incq	%rax
	movq	$1, %rsi
	jmp	.LBB4_670
.LBB4_659:                              # %cond.false2206
                                        #   in Loop: Header=BB4_595 Depth=1
	testq	$1, 88(%rsp)            # 8-byte Folded Reload
	je	.LBB4_664
# BB#660:                               # %cond.true2230
                                        #   in Loop: Header=BB4_595 Depth=1
	movq	64(%rsp), %rax          # 8-byte Reload
	movl	mode_class(,%rax,4), %ecx
	cmpq	$5, %rcx
	movq	$2, %rax
	je	.LBB4_668
# BB#661:                               # %lor.rhs2235
                                        #   in Loop: Header=BB4_595 Depth=1
	cmpq	$6, %rcx
	movabsq	$0, %rax
	jne	.LBB4_663
# BB#662:                               # %lor.rhs2235
                                        #   in Loop: Header=BB4_595 Depth=1
	movabsq	$1, %rax
.LBB4_663:                              # %lor.rhs2235
                                        #   in Loop: Header=BB4_595 Depth=1
	incq	%rax
	movq	$1, %rsi
	jmp	.LBB4_670
.LBB4_655:                              # %cond.false2173
                                        #   in Loop: Header=BB4_595 Depth=1
	movq	136(%rsp), %rax         # 8-byte Reload
	andq	%r9, %rax
	cmpq	$24, %rax
	je	.LBB4_679
# BB#656:                               # %cond.false2173
                                        #   in Loop: Header=BB4_595 Depth=1
	cmpq	$18, %rax
	je	.LBB4_657
# BB#658:                               # %cond.false2187
                                        #   in Loop: Header=BB4_595 Depth=1
	movl	target_flags(%rip), %esi
	movq	72(%rsp), %rax          # 8-byte Reload
	jmp	.LBB4_667
.LBB4_664:                              # %cond.false2242
                                        #   in Loop: Header=BB4_595 Depth=1
	movq	128(%rsp), %rax         # 8-byte Reload
	andq	%r9, %rax
	cmpq	$24, %rax
	jne	.LBB4_665
.LBB4_679:                              # %cond.true2183
                                        #   in Loop: Header=BB4_595 Depth=1
	movzbl	target_flags+3(%rip), %eax
	andq	$2, %rax
	xorq	$6, %rax
	movq	$1, %rsi
	jmp	.LBB4_670
.LBB4_665:                              # %cond.false2242
                                        #   in Loop: Header=BB4_595 Depth=1
	cmpq	$18, %rax
	jne	.LBB4_666
.LBB4_657:                              # %cond.true2176
                                        #   in Loop: Header=BB4_595 Depth=1
	movl	target_flags(%rip), %eax
	movq	$25, %rcx
	shrq	%cl, %rax
	andq	$1, %rax
	xorq	$3, %rax
	movq	$1, %rsi
	jmp	.LBB4_670
.LBB4_666:                              # %cond.false2256
                                        #   in Loop: Header=BB4_595 Depth=1
	movl	target_flags(%rip), %esi
	movq	64(%rsp), %rax          # 8-byte Reload
.LBB4_667:                              # %cond.end2275
                                        #   in Loop: Header=BB4_595 Depth=1
	movzbl	mode_size(%rax), %eax
	movq	$23, %rcx
	shrq	%cl, %rsi
	andq	$4, %rsi
	leaq	3(%rax,%rsi), %rax
	addq	$4, %rsi
	cqto
	idivq	%rsi
	xorq	%rcx, %rcx
	testq	%r9, %rax
	movabsq	$0, %rdx
	je	.LBB4_673
.LBB4_668:                              # %for.body2280.lr.ph
                                        #   in Loop: Header=BB4_595 Depth=1
	movq	$1, %rsi
.LBB4_670:                              # %for.body2280
                                        #   Parent Loop BB4_595 Depth=1
                                        # =>  This Inner Loop Header: Depth=2
	leaq	-1(%rsi,%r14), %rcx
	andq	%r9, %rcx
	movzbl	fixed_regs(%rcx), %edi
	leaq	-1(%rsi), %rdx
	testq	%rdi, %rdi
	jne	.LBB4_672
# BB#671:                               # %lor.lhs.false2286
                                        #   in Loop: Header=BB4_670 Depth=2
	movq	160(%rsp), %rdi         # 8-byte Reload
	movq	reg_class_contents(,%rdi,8), %r8
	movq	$1, %rdi
	shlq	%cl, %rdi
	testq	%rdi, %r8
	je	.LBB4_672
# BB#669:                               # %for.cond2277
                                        #   in Loop: Header=BB4_670 Depth=2
	movq	%rsi, %rcx
	andq	%r9, %rcx
	movq	%rsi, %rdx
	movq	%rax, %rdi
	andq	%r9, %rdi
	incq	%rsi
	cmpq	%rdi, %rcx
	jb	.LBB4_670
.LBB4_672:                              #   in Loop: Header=BB4_595 Depth=1
	movq	%rax, %rcx
.LBB4_673:                              # %for.end2298
                                        #   in Loop: Header=BB4_595 Depth=1
	andq	%r9, %rcx
	andq	%r9, %rdx
	cmpq	%rcx, %rdx
	je	.LBB4_674
	.align	16, 0x90
.LBB4_675:                              # %for.inc2308
                                        #   in Loop: Header=BB4_595 Depth=1
	movq	16(%rbx), %rbx
	testq	%rbx, %rbx
	jne	.LBB4_595
	jmp	.LBB4_676
.LBB4_674:                              # %if.then2301
	movq	120(%rsp), %rdi         # 8-byte Reload
	movq	%r14, %rsi
	movq	%r10, %rbx
	callq	gen_rtx_REG
	movq	%rbx, %r10
	movq	96(%rsp), %rcx          # 8-byte Reload
	movq	%rax, (%rcx)
.LBB4_676:                              # %if.end2313
	testq	%r10, %r10
	je	.LBB4_678
# BB#677:                               # %if.then2315
	movl	%r12d, output_reloadnum(%rip)
.LBB4_678:                              # %if.end2316
	movq	%r12, %rax
	addq	$176, %rsp
	popq	%rbx
	popq	%r12
	popq	%r13
	popq	%r14
	popq	%r15
	retq
.LBB4_430:
	movl	reload_out_optab+8(%rip), %eax
	movq	$1317, %rsi             # imm = 0x525
	movq	128(%rsp), %rdi         # 8-byte Reload
	movq	%r15, %r12
	movabsq	$4294967295, %rcx       # imm = 0xFFFFFFFF
	movq	%rcx, %r8
	movq	152(%rsp), %r10         # 8-byte Reload
	jmp	.LBB4_407
.Ltmp59:
	.size	push_reload, .Ltmp59-push_reload
	.cfi_endproc

	.align	16, 0x90
	.type	reload_inner_reg_of_subreg,@function
reload_inner_reg_of_subreg:             # @reload_inner_reg_of_subreg
	.cfi_startproc
# BB#0:                                 # %entry
	pushq	%r15
.Ltmp64:
	.cfi_def_cfa_offset 16
	pushq	%r14
.Ltmp65:
	.cfi_def_cfa_offset 24
	pushq	%rbx
.Ltmp66:
	.cfi_def_cfa_offset 32
.Ltmp67:
	.cfi_offset %rbx, -32
.Ltmp68:
	.cfi_offset %r14, -24
.Ltmp69:
	.cfi_offset %r15, -16
	movzbl	(%rdi), %ecx
	movq	%rsi, %rbx
	xorq	%rax, %rax
	cmpq	$63, %rcx
	jne	.LBB5_29
# BB#1:                                 # %if.end
	movq	8(%rdi), %r15
	movzbl	(%r15), %ecx
	cmpq	$133, %rcx
	movq	$1, %rax
	jg	.LBB5_16
# BB#2:                                 # %if.end
	addq	$-54, %rcx
	movabsq	$4294967295, %r14       # imm = 0xFFFFFFFF
	andq	%r14, %rcx
	cmpq	$21, %rcx
	ja	.LBB5_18
# BB#3:                                 # %if.end
	movq	$1, %rdx
	shlq	%cl, %rdx
	testq	$2121751, %rdx          # imm = 0x206017
	jne	.LBB5_29
# BB#4:                                 # %if.end
	cmpq	$7, %rcx
	jne	.LBB5_18
# BB#5:                                 # %lor.lhs.false40
	movl	8(%r15), %eax
	cmpq	$53, %rax
	jae	.LBB5_18
# BB#6:                                 # %if.end45
	callq	subreg_regno
	movq	%rax, %rdi
	movq	%rbx, %rsi
	callq	ix86_hard_regno_mode_ok
	testq	%r14, %rax
	movq	$1, %rax
	je	.LBB5_29
# BB#7:                                 # %if.end48
	movq	$32, %rcx
	shlq	%cl, %rbx
	movq	$32, %rcx
	sarq	%cl, %rbx
	movl	target_flags(%rip), %esi
	movzbl	mode_size(%rbx), %edx
	movq	$23, %rcx
	movq	%rsi, %rdi
	shrq	%cl, %rdi
	andq	$4, %rdi
	leaq	4(%rdi), %rbx
	movabsq	$4294967292, %rcx       # imm = 0xFFFFFFFC
	andq	%rbx, %rcx
	xorq	%rax, %rax
	cmpq	%rcx, %rdx
	ja	.LBB5_29
# BB#8:                                 # %land.lhs.true
	movzbl	2(%r15), %ecx
	movzbl	mode_size(%rcx), %r9d
	movq	%rbx, %rdx
	andq	%r14, %rdx
	cmpq	%rdx, %r9
	jbe	.LBB5_29
# BB#9:                                 # %land.rhs
	xorq	%rdx, %rdx
	movq	%r9, %rax
	idivq	%rbx
	movq	%rax, %r8
	movl	8(%r15), %eax
	movabsq	$4294967288, %rdx       # imm = 0xFFFFFFF8
	andq	%rax, %rdx
	cmpq	$8, %rdx
	je	.LBB5_13
# BB#10:                                # %land.rhs
	leaq	-21(%rax), %rdx
	andq	%r14, %rdx
	cmpq	$8, %rdx
	jb	.LBB5_13
# BB#11:                                # %land.rhs
	leaq	-45(%rax), %rdx
	andq	%r14, %rdx
	cmpq	$8, %rdx
	jb	.LBB5_13
# BB#12:                                # %land.rhs
	addq	$-29, %rax
	andq	%r14, %rax
	cmpq	$7, %rax
	jbe	.LBB5_13
# BB#21:                                # %cond.false
	cmpq	$24, %rcx
	jne	.LBB5_22
# BB#24:                                # %cond.true149
	movq	$24, %rcx
	shrq	%cl, %rsi
	andq	$2, %rsi
	xorq	$6, %rsi
	jmp	.LBB5_26
.LBB5_16:                               # %if.end
	cmpq	$134, %rcx
	je	.LBB5_29
# BB#17:                                # %if.end
	cmpq	$140, %rcx
	je	.LBB5_29
.LBB5_18:                               # %if.then44
	xorq	%rax, %rax
.LBB5_29:                               # %return
	popq	%rbx
	popq	%r14
	popq	%r15
	retq
.LBB5_13:                               # %cond.true
	movl	mode_class(,%rcx,4), %eax
	cmpq	$5, %rax
	movq	$2, %rsi
	je	.LBB5_26
# BB#14:                                # %lor.rhs
	cmpq	$6, %rax
	jne	.LBB5_15
# BB#19:                                # %lor.rhs
	movabsq	$1, %rsi
	incq	%rsi
	jmp	.LBB5_26
.LBB5_22:                               # %cond.false
	cmpq	$18, %rcx
	jne	.LBB5_25
# BB#23:                                # %cond.true139
	movq	$25, %rcx
	shrq	%cl, %rsi
	andq	$1, %rsi
	xorq	$3, %rsi
	jmp	.LBB5_26
.LBB5_25:                               # %cond.false153
	orq	$3, %rdi
	addq	%r9, %rdi
	movq	%rdi, %rax
	cqto
	idivq	%rbx
	movq	%rax, %rsi
	jmp	.LBB5_26
.LBB5_15:
	movabsq	$0, %rsi
	incq	%rsi
.LBB5_26:                               # %cond.end170
	andq	%r14, %rsi
	andq	%r14, %r8
	cmpq	%rsi, %r8
	je	.LBB5_27
# BB#28:                                # %cond.end170
	movabsq	$1, %rax
	jmp	.LBB5_29
.LBB5_27:
	movabsq	$0, %rax
	jmp	.LBB5_29
.Ltmp70:
	.size	reload_inner_reg_of_subreg, .Ltmp70-reload_inner_reg_of_subreg
	.cfi_endproc

	.align	16, 0x90
	.type	find_valid_class,@function
find_valid_class:                       # @find_valid_class
	.cfi_startproc
# BB#0:                                 # %entry
	pushq	%r15
.Ltmp77:
	.cfi_def_cfa_offset 16
	pushq	%r14
.Ltmp78:
	.cfi_def_cfa_offset 24
	pushq	%r13
.Ltmp79:
	.cfi_def_cfa_offset 32
	pushq	%r12
.Ltmp80:
	.cfi_def_cfa_offset 40
	pushq	%rbx
.Ltmp81:
	.cfi_def_cfa_offset 48
	subq	$32, %rsp
.Ltmp82:
	.cfi_def_cfa_offset 80
.Ltmp83:
	.cfi_offset %rbx, -48
.Ltmp84:
	.cfi_offset %r12, -40
.Ltmp85:
	.cfi_offset %r13, -32
.Ltmp86:
	.cfi_offset %r14, -24
.Ltmp87:
	.cfi_offset %r15, -16
	movq	%rsi, %r12
	movq	%rdi, %r14
	movabsq	$4294967295, %r13       # imm = 0xFFFFFFFF
	andq	%r13, %rdx
	movl	regclass_map(,%rdx,4), %eax
	movq	%rax, 8(%rsp)           # 8-byte Spill
	movq	$0, 16(%rsp)            # 8-byte Folded Spill
	movq	$1, %rbx
	movq	%r13, 24(%rsp)          # 8-byte Spill
	movq	$0, (%rsp)              # 8-byte Folded Spill
	.align	16, 0x90
.LBB6_1:                                # %for.cond1.preheader
                                        # =>This Loop Header: Depth=1
                                        #     Child Loop BB6_2 Depth 2
	movq	$1, %r15
	.align	16, 0x90
.LBB6_2:                                # %for.body3
                                        #   Parent Loop BB6_1 Depth=1
                                        # =>  This Inner Loop Header: Depth=2
	leaq	-1(%r15), %rcx
	movq	reg_class_contents(,%rbx,8), %rdx
	movq	$1, %rax
	movq	$1, %rsi
	shlq	%cl, %rsi
	testq	%rsi, %rdx
	je	.LBB6_6
# BB#3:                                 # %land.lhs.true
                                        #   in Loop: Header=BB6_2 Depth=2
	addq	%r12, %rcx
	movq	$1, %rax
	movq	$1, %rsi
	shlq	%cl, %rsi
	testq	%rsi, %rdx
	je	.LBB6_6
# BB#4:                                 # %land.lhs.true13
                                        #   in Loop: Header=BB6_2 Depth=2
	movq	%rcx, %rdi
	movq	%r14, %rsi
	callq	ix86_hard_regno_mode_ok
	testq	%r13, %rax
	movabsq	$0, %rax
	je	.LBB6_6
# BB#5:                                 # %land.lhs.true13
                                        #   in Loop: Header=BB6_2 Depth=2
	movabsq	$1, %rax
	.align	16, 0x90
.LBB6_6:                                # %for.inc
                                        #   in Loop: Header=BB6_2 Depth=2
	movq	$32, %rcx
	movq	%r15, %rdx
	shlq	%cl, %rdx
	movq	$32, %rcx
	sarq	%cl, %rdx
	cmpq	$52, %rdx
	jg	.LBB6_8
# BB#7:                                 # %for.inc
                                        #   in Loop: Header=BB6_2 Depth=2
	incq	%r15
	testq	%rax, %rax
	jne	.LBB6_2
.LBB6_8:                                # %for.end
                                        #   in Loop: Header=BB6_1 Depth=1
	testq	%rax, %rax
	je	.LBB6_14
# BB#9:                                 # %if.end18
                                        #   in Loop: Header=BB6_1 Depth=1
	movq	%r14, %rdi
	movq	%rbx, %rsi
	movq	8(%rsp), %rdx           # 8-byte Reload
	callq	ix86_register_move_cost
	movl	reg_class_size(,%rbx,4), %r15d
	movq	16(%rsp), %rcx          # 8-byte Reload
	andq	%r13, %rcx
	cmpq	%rcx, %r15
	jbe	.LBB6_12
# BB#10:                                # %land.lhs.true23
                                        #   in Loop: Header=BB6_1 Depth=1
	movq	$32, %rcx
	movq	24(%rsp), %rdx          # 8-byte Reload
	shlq	%cl, %rdx
	movq	$32, %rcx
	sarq	%cl, %rdx
	movq	$32, %rcx
	movq	%rax, %rsi
	shlq	%cl, %rsi
	movq	$32, %rcx
	sarq	%cl, %rsi
	cmpq	%rsi, %rdx
	jge	.LBB6_13
# BB#11:                                # %land.lhs.true23
                                        #   in Loop: Header=BB6_1 Depth=1
	movq	$32, %rcx
	movq	24(%rsp), %rdx          # 8-byte Reload
	shlq	%cl, %rdx
	movq	$32, %rcx
	sarq	%cl, %rdx
	testq	%rdx, %rdx
	js	.LBB6_13
.LBB6_12:                               # %lor.lhs.false26
                                        #   in Loop: Header=BB6_1 Depth=1
	movq	$32, %rcx
	shlq	%cl, %rax
	movq	$32, %rcx
	sarq	%cl, %rax
	movq	$32, %rcx
	movq	24(%rsp), %rdx          # 8-byte Reload
	shlq	%cl, %rdx
	movq	$32, %rcx
	sarq	%cl, %rdx
	cmpq	%rax, %rdx
	jle	.LBB6_14
.LBB6_13:                               # %if.then28
                                        #   in Loop: Header=BB6_1 Depth=1
	movq	%r14, %rdi
	movq	%rbx, %rsi
	movq	8(%rsp), %rdx           # 8-byte Reload
	callq	ix86_register_move_cost
	movq	%rax, 24(%rsp)          # 8-byte Spill
	movq	%rbx, (%rsp)            # 8-byte Spill
	movq	%r15, 16(%rsp)          # 8-byte Spill
.LBB6_14:                               # %for.inc33
                                        #   in Loop: Header=BB6_1 Depth=1
	incq	%rbx
	cmpq	$25, %rbx
	jne	.LBB6_1
# BB#15:                                # %for.end35
	movabsq	$4294967295, %rax       # imm = 0xFFFFFFFF
	movq	16(%rsp), %rcx          # 8-byte Reload
	testq	%rax, %rcx
	je	.LBB6_17
# BB#16:                                # %if.end38
	movq	(%rsp), %rax            # 8-byte Reload
	addq	$32, %rsp
	popq	%rbx
	popq	%r12
	popq	%r13
	popq	%r14
	popq	%r15
	retq
.LBB6_17:                               # %if.then37
	movabsq	$.L.str, %rax
	movabsq	$.L__FUNCTION__.find_valid_class, %rcx
	movq	$706, %rsi              # imm = 0x2C2
	movq	%rax, %rdi
	movq	%rcx, %rdx
	callq	fancy_abort
.Ltmp88:
	.size	find_valid_class, .Ltmp88-find_valid_class
	.cfi_endproc

	.globl	reg_overlap_mentioned_for_reload_p
	.align	16, 0x90
	.type	reg_overlap_mentioned_for_reload_p,@function
reg_overlap_mentioned_for_reload_p:     # @reg_overlap_mentioned_for_reload_p
	.cfi_startproc
# BB#0:                                 # %entry
	pushq	%r15
.Ltmp95:
	.cfi_def_cfa_offset 16
	pushq	%r14
.Ltmp96:
	.cfi_def_cfa_offset 24
	pushq	%r13
.Ltmp97:
	.cfi_def_cfa_offset 32
	pushq	%r12
.Ltmp98:
	.cfi_def_cfa_offset 40
	pushq	%rbx
.Ltmp99:
	.cfi_def_cfa_offset 48
.Ltmp100:
	.cfi_offset %rbx, -48
.Ltmp101:
	.cfi_offset %r12, -40
.Ltmp102:
	.cfi_offset %r13, -32
.Ltmp103:
	.cfi_offset %r14, -24
.Ltmp104:
	.cfi_offset %r15, -16
	movq	%rdi, %rbx
	movl	(%rbx), %r8d
	movq	%rsi, %r14
	movq	%r8, %rax
	andq	$65535, %rax            # imm = 0xFFFF
	cmpq	$64, %rax
	je	.LBB7_2
# BB#1:                                 # %lor.lhs.false
	movzbl	rtx_class(%rax), %eax
	cmpq	$97, %rax
	jne	.LBB7_3
.LBB7_2:                                # %if.then
	movq	8(%rbx), %rbx
	movl	(%rbx), %r8d
.LBB7_3:                                # %if.end
	movq	%r8, %rdx
	andq	$65535, %rdx            # imm = 0xFFFF
	xorq	%rax, %rax
	cmpq	$133, %rdx
	jg	.LBB7_7
# BB#4:                                 # %if.end
	leaq	-54(%rdx), %rsi
	movabsq	$4294967295, %rcx       # imm = 0xFFFFFFFF
	andq	%rsi, %rcx
	cmpq	$14, %rcx
	ja	.LBB7_9
# BB#5:                                 # %if.end
	movq	$1, %rsi
	shlq	%cl, %rsi
	testq	$24599, %rsi            # imm = 0x6017
	jne	.LBB7_6
	jmp	.LBB7_9
.LBB7_7:                                # %if.end
	cmpq	$134, %rdx
	je	.LBB7_6
# BB#8:                                 # %if.end
	cmpq	$140, %rdx
	je	.LBB7_6
.LBB7_9:                                # %lor.lhs.false45
	movzbl	(%r14), %esi
	cmpq	$133, %rsi
	jg	.LBB7_12
# BB#10:                                # %lor.lhs.false45
	addq	$-54, %rsi
	movabsq	$4294967295, %rcx       # imm = 0xFFFFFFFF
	andq	%rsi, %rcx
	cmpq	$14, %rcx
	ja	.LBB7_14
# BB#11:                                # %lor.lhs.false45
	movq	$1, %rsi
	shlq	%cl, %rsi
	testq	$24599, %rsi            # imm = 0x6017
	jne	.LBB7_6
	jmp	.LBB7_14
.LBB7_12:                               # %lor.lhs.false45
	cmpq	$134, %rsi
	je	.LBB7_6
# BB#13:                                # %lor.lhs.false45
	cmpq	$140, %rsi
	je	.LBB7_6
.LBB7_14:                               # %if.else
	addq	$-59, %rdx
	movabsq	$4294967295, %r13       # imm = 0xFFFFFFFF
	andq	%r13, %rdx
	cmpq	$16, %rdx
	ja	.LBB7_27
# BB#15:                                # %if.else
	jmpq	*.LJTI7_0(,%rdx,8)
.LBB7_22:                               # %if.then163
	movq	%rbx, %rdi
	movq	%r14, %rsi
	popq	%rbx
	popq	%r12
	popq	%r13
	popq	%r14
	popq	%r15
	jmp	reg_mentioned_p  # TAILCALL
.LBB7_18:                               # %if.then122
	movslq	8(%rbx), %rdi
	cmpq	$53, %rdi
	jl	.LBB7_30
# BB#19:                                # %if.then128
	movq	reg_equiv_memory_loc(%rip), %rcx
	cmpq	$0, (%rcx,%rdi,8)
	je	.LBB7_20
.LBB7_45:                               # %if.then131
	movq	%r14, %rdi
	popq	%rbx
	popq	%r12
	popq	%r13
	popq	%r14
	popq	%r15
	jmp	refers_to_mem_for_reload_p  # TAILCALL
.LBB7_16:                               # %if.then90
	movq	8(%rbx), %rax
	movslq	8(%rax), %r12
	cmpq	$53, %r12
	movq	$1, %r15
	jge	.LBB7_17
# BB#28:                                # %if.end184
	movl	16(%rbx), %edx
	movzbl	2(%rax), %esi
	movq	$16, %rcx
	shrq	%cl, %r8
	andq	$255, %r8
	movq	%r12, %rdi
	movq	%r8, %rcx
	callq	subreg_regno_offset
	movq	%rax, %rdi
	addq	%r12, %rdi
	movq	$32, %rcx
	movq	%rdi, %rax
	shlq	%cl, %rax
	movq	$32, %rcx
	sarq	%cl, %rax
	cmpq	$52, %rax
	jg	.LBB7_44
# BB#29:                                # %if.end184.cond.true_crit_edge
	movl	(%rbx), %r8d
.LBB7_30:                               # %cond.true
	movabsq	$4294967288, %rax       # imm = 0xFFFFFFF8
	andq	%rdi, %rax
	movq	$16, %rcx
	shrq	%cl, %r8
	andq	$255, %r8
	cmpq	$8, %rax
	je	.LBB7_34
# BB#31:                                # %cond.true
	leaq	-21(%rdi), %rax
	andq	%r13, %rax
	cmpq	$8, %rax
	jb	.LBB7_34
# BB#32:                                # %cond.true
	leaq	-45(%rdi), %rax
	andq	%r13, %rax
	cmpq	$8, %rax
	jb	.LBB7_34
# BB#33:                                # %cond.true
	leaq	-29(%rdi), %rax
	andq	%r13, %rax
	cmpq	$7, %rax
	jbe	.LBB7_34
# BB#39:                                # %cond.false
	cmpq	$24, %r8
	jne	.LBB7_40
# BB#42:                                # %cond.true241
	movzbl	target_flags+3(%rip), %r15d
	andq	$2, %r15
	xorq	$6, %r15
	jmp	.LBB7_44
.LBB7_23:                               # %if.then170
	movq	8(%rbx), %rdi
	movq	%r14, %rsi
	callq	reg_overlap_mentioned_for_reload_p
	testq	%r13, %rax
	movq	$1, %rax
	jne	.LBB7_6
# BB#24:                                # %lor.rhs
	movq	16(%rbx), %rdi
	movq	%r14, %rsi
	callq	reg_overlap_mentioned_for_reload_p
	testq	%r13, %rax
	je	.LBB7_25
# BB#26:                                # %lor.rhs
	movabsq	$1, %rax
	jmp	.LBB7_6
.LBB7_17:
	movq	%r12, %rdi
	jmp	.LBB7_44
.LBB7_27:                               # %if.else181
	movabsq	$.L.str, %rdi
	movabsq	$.L__FUNCTION__.reg_overlap_mentioned_for_reload_p, %rdx
	movq	$6255, %rsi             # imm = 0x186F
	callq	fancy_abort
.LBB7_34:                               # %cond.true209
	movl	mode_class(,%r8,4), %eax
	cmpq	$5, %rax
	movq	$2, %r15
	je	.LBB7_44
# BB#35:                                # %lor.rhs217
	cmpq	$6, %rax
	jne	.LBB7_36
# BB#37:                                # %lor.rhs217
	movabsq	$1, %r15
	incq	%r15
	jmp	.LBB7_44
.LBB7_20:                               # %if.else133
	movq	reg_equiv_constant(%rip), %rcx
	cmpq	$0, (%rcx,%rdi,8)
	jne	.LBB7_6
# BB#21:                                # %if.end139
	movabsq	$.L.str, %rax
	movabsq	$.L__FUNCTION__.reg_overlap_mentioned_for_reload_p, %rcx
	movq	$6243, %rsi             # imm = 0x1863
	movq	%rax, %rdi
	movq	%rcx, %rdx
	callq	fancy_abort
.LBB7_25:
	movabsq	$0, %rax
.LBB7_6:                                # %return
	popq	%rbx
	popq	%r12
	popq	%r13
	popq	%r14
	popq	%r15
	retq
.LBB7_40:                               # %cond.false
	cmpq	$18, %r8
	jne	.LBB7_43
# BB#41:                                # %cond.true232
	movl	target_flags(%rip), %r15d
	movq	$25, %rcx
	shrq	%cl, %r15
	andq	$1, %r15
	xorq	$3, %r15
	jmp	.LBB7_44
.LBB7_36:
	movabsq	$0, %r15
	incq	%r15
	jmp	.LBB7_44
.LBB7_43:                               # %cond.false245
	movl	target_flags(%rip), %esi
	movzbl	mode_size(%r8), %eax
	movq	$23, %rcx
	shrq	%cl, %rsi
	andq	$4, %rsi
	leaq	3(%rax,%rsi), %rax
	addq	$4, %rsi
	cqto
	idivq	%rsi
	movq	%rax, %r15
.LBB7_44:                               # %cond.end265
	addq	%rdi, %r15
	xorq	%rcx, %rcx
	movq	%r15, %rsi
	movq	%r14, %rdx
	popq	%rbx
	popq	%r12
	popq	%r13
	popq	%r14
	popq	%r15
	jmp	refers_to_regno_for_reload_p  # TAILCALL
.Ltmp105:
	.size	reg_overlap_mentioned_for_reload_p, .Ltmp105-reg_overlap_mentioned_for_reload_p
	.cfi_endproc
	.section	.rodata,"a",@progbits
	.align	8
.LJTI7_0:
	.quad	.LBB7_22
	.quad	.LBB7_27
	.quad	.LBB7_18
	.quad	.LBB7_22
	.quad	.LBB7_16
	.quad	.LBB7_27
	.quad	.LBB7_27
	.quad	.LBB7_45
	.quad	.LBB7_27
	.quad	.LBB7_27
	.quad	.LBB7_22
	.quad	.LBB7_27
	.quad	.LBB7_27
	.quad	.LBB7_27
	.quad	.LBB7_27
	.quad	.LBB7_27
	.quad	.LBB7_23

	.text
	.globl	remove_address_replacements
	.align	16, 0x90
	.type	remove_address_replacements,@function
remove_address_replacements:            # @remove_address_replacements
	.cfi_startproc
# BB#0:                                 # %entry
	pushq	%r15
.Ltmp112:
	.cfi_def_cfa_offset 16
	pushq	%r14
.Ltmp113:
	.cfi_def_cfa_offset 24
	pushq	%r13
.Ltmp114:
	.cfi_def_cfa_offset 32
	pushq	%r12
.Ltmp115:
	.cfi_def_cfa_offset 40
	pushq	%rbx
.Ltmp116:
	.cfi_def_cfa_offset 48
	subq	$192, %rsp
.Ltmp117:
	.cfi_def_cfa_offset 240
.Ltmp118:
	.cfi_offset %rbx, -48
.Ltmp119:
	.cfi_offset %r12, -40
.Ltmp120:
	.cfi_offset %r13, -32
.Ltmp121:
	.cfi_offset %r14, -24
.Ltmp122:
	.cfi_offset %r15, -16
	movq	%rdi, %r15
	leaq	(%rsp), %rdi
	xorq	%rsi, %rsi
	movq	$180, %rdx
	callq	memset
	movslq	n_replacements(%rip), %rax
	testq	%rax, %rax
	movabsq	$0, %r14
	jle	.LBB8_6
# BB#1:
	movq	$1, %r12
	movabsq	$replacements, %rbx
	movabsq	$4294967295, %r13       # imm = 0xFFFFFFFF
	xorq	%r14, %r14
	.align	16, 0x90
.LBB8_2:                                # %for.body
                                        # =>This Inner Loop Header: Depth=1
	movq	(%rbx), %rdi
	movq	%r15, %rsi
	callq	loc_mentioned_in_p
	testq	%r13, %rax
	jne	.LBB8_3
# BB#4:                                 # %if.else
                                        #   in Loop: Header=BB8_2 Depth=1
	movq	$32, %rcx
	leaq	1(%r14), %rax
	shlq	%cl, %r14
	movq	$32, %rcx
	movq	16(%rbx), %rdx
	sarq	%cl, %r14
	leaq	(%r14,%r14,2), %rcx
	movq	%rdx, replacements+16(,%rcx,8)
	movq	(%rbx), %rdx
	movq	8(%rbx), %rsi
	movq	%rsi, replacements+8(,%rcx,8)
	movq	%rdx, replacements(,%rcx,8)
	movslq	16(%rbx), %rcx
	movzbl	(%rsp,%rcx), %edx
	orq	$2, %rdx
	movb	%dl, (%rsp,%rcx)
	movq	%rax, %r14
	jmp	.LBB8_5
	.align	16, 0x90
.LBB8_3:                                # %if.then
                                        #   in Loop: Header=BB8_2 Depth=1
	movslq	16(%rbx), %rax
	movzbl	(%rsp,%rax), %ecx
	orq	$1, %rcx
	movb	%cl, (%rsp,%rax)
.LBB8_5:                                # %for.inc
                                        #   in Loop: Header=BB8_2 Depth=1
	movslq	n_replacements(%rip), %rax
	movq	$32, %rcx
	movq	%r12, %rdx
	shlq	%cl, %rdx
	movq	$32, %rcx
	sarq	%cl, %rdx
	incq	%r12
	addq	$24, %rbx
	cmpq	%rax, %rdx
	jl	.LBB8_2
.LBB8_6:                                # %for.end
	movl	n_reloads(%rip), %ebx
	movl	%r14d, n_replacements(%rip)
	xorq	%rax, %rax
	jmp	.LBB8_7
	.align	16, 0x90
.LBB8_10:                               # %if.then28
                                        #   in Loop: Header=BB8_7 Depth=1
	movq	%rbx, %rdi
	callq	deallocate_reload_reg
	movq	(%r14), %rdi
	callq	remove_address_replacements
	movq	$0, (%r14)
	movq	$1, %rax
.LBB8_7:                                # %for.cond19.outer
                                        # =>This Loop Header: Depth=1
                                        #     Child Loop BB8_8 Depth 2
	movq	$32, %rcx
	shlq	%cl, %rbx
	movq	$32, %rcx
	sarq	%cl, %rbx
	imulq	$104, %rbx, %rcx
	leaq	rld(%rcx), %r14
	.align	16, 0x90
.LBB8_8:                                # %for.cond19
                                        #   Parent Loop BB8_7 Depth=1
                                        # =>  This Inner Loop Header: Depth=2
	movq	$32, %rcx
	movq	%rbx, %rdx
	shlq	%cl, %rdx
	movq	$32, %rcx
	sarq	%cl, %rdx
	testq	%rdx, %rdx
	jle	.LBB8_11
# BB#9:                                 # %for.body22
                                        #   in Loop: Header=BB8_8 Depth=2
	movzbl	-1(%rsp,%rbx), %ecx
	decq	%rbx
	addq	$-104, %r14
	cmpq	$1, %rcx
	jne	.LBB8_8
	jmp	.LBB8_10
.LBB8_11:                               # %for.end37
	addq	$192, %rsp
	popq	%rbx
	popq	%r12
	popq	%r13
	popq	%r14
	popq	%r15
	retq
.Ltmp123:
	.size	remove_address_replacements, .Ltmp123-remove_address_replacements
	.cfi_endproc

	.align	16, 0x90
	.type	find_dummy_reload,@function
find_dummy_reload:                      # @find_dummy_reload
	.cfi_startproc
# BB#0:                                 # %entry
	pushq	%r15
.Ltmp130:
	.cfi_def_cfa_offset 16
	pushq	%r14
.Ltmp131:
	.cfi_def_cfa_offset 24
	pushq	%r13
.Ltmp132:
	.cfi_def_cfa_offset 32
	pushq	%r12
.Ltmp133:
	.cfi_def_cfa_offset 40
	pushq	%rbx
.Ltmp134:
	.cfi_def_cfa_offset 48
	subq	$96, %rsp
.Ltmp135:
	.cfi_def_cfa_offset 144
.Ltmp136:
	.cfi_offset %rbx, -48
.Ltmp137:
	.cfi_offset %r12, -40
.Ltmp138:
	.cfi_offset %r13, -32
.Ltmp139:
	.cfi_offset %r14, -24
.Ltmp140:
	.cfi_offset %r15, -16
	movq	%rcx, %r11
	movq	$32, %rcx
	movq	%r9, %r14
	shlq	%cl, %r14
	movq	$32, %rcx
	sarq	%cl, %r14
	movzbl	mode_size(%r14), %r15d
	movq	$32, %rcx
	movq	%r8, %rbx
	shlq	%cl, %rbx
	movq	$32, %rcx
	sarq	%cl, %rbx
	movzbl	mode_size(%rbx), %r10d
	movq	%rdx, 88(%rsp)          # 8-byte Spill
	cmpq	%r10, %r15
	je	.LBB9_3
# BB#1:                                 # %land.lhs.true
	movl	target_flags(%rip), %eax
	movq	$23, %rcx
	shrq	%cl, %rax
	andq	$4, %rax
	addq	$4, %rax
	movabsq	$4294967292, %rcx       # imm = 0xFFFFFFFC
	andq	%rax, %rcx
	xorq	%rdx, %rdx
	cmpq	%rcx, %r15
	ja	.LBB9_95
# BB#2:                                 # %land.lhs.true
	movabsq	$4294967295, %rcx       # imm = 0xFFFFFFFF
	andq	%rcx, %rax
	cmpq	%rax, %r10
	ja	.LBB9_95
.LBB9_3:                                # %while.cond.preheader
	movq	%r15, 48(%rsp)          # 8-byte Spill
	movq	%r11, 56(%rsp)          # 8-byte Spill
	movq	%r9, 72(%rsp)           # 8-byte Spill
	movq	%rbx, 32(%rsp)          # 8-byte Spill
	movq	%r10, 24(%rsp)          # 8-byte Spill
	movq	%r8, 40(%rsp)           # 8-byte Spill
	movl	(%rsi), %eax
	movq	%rax, %rcx
	andq	$65535, %rcx            # imm = 0xFFFF
	xorq	%r12, %r12
	cmpq	$63, %rcx
	movq	%rsi, %rbx
	movq	%rsi, 80(%rsp)          # 8-byte Spill
	movabsq	$0, %r13
	jne	.LBB9_8
# BB#4:
	movq	%rdi, %r15
	movq	80(%rsp), %rbx          # 8-byte Reload
	xorq	%r13, %r13
	.align	16, 0x90
.LBB9_5:                                # %while.body
                                        # =>This Inner Loop Header: Depth=1
	movq	8(%rbx), %rcx
	movl	(%rcx), %esi
	movq	%rsi, %rdx
	andq	$65535, %rdx            # imm = 0xFFFF
	cmpq	$61, %rdx
	jne	.LBB9_6
# BB#10:                                # %land.lhs.true25
                                        #   in Loop: Header=BB9_5 Depth=1
	movl	8(%rcx), %edi
	cmpq	$52, %rdi
	ja	.LBB9_11
# BB#12:                                # %if.then33
                                        #   in Loop: Header=BB9_5 Depth=1
	movq	$16, %rcx
	shrq	%cl, %rsi
	movq	$16, %rcx
	movl	16(%rbx), %edx
	shrq	%cl, %rax
	andq	$255, %rsi
	andq	$255, %rax
	movq	%rax, %rcx
	callq	subreg_regno_offset
	movq	8(%rbx), %rbx
	movl	(%rbx), %esi
	addq	%rax, %r13
	jmp	.LBB9_13
	.align	16, 0x90
.LBB9_6:                                #   in Loop: Header=BB9_5 Depth=1
	movq	%rcx, %rbx
	jmp	.LBB9_13
	.align	16, 0x90
.LBB9_11:                               #   in Loop: Header=BB9_5 Depth=1
	movq	%rcx, %rbx
.LBB9_13:                               # %if.end51
                                        #   in Loop: Header=BB9_5 Depth=1
	movq	%rsi, %rax
	andq	$65535, %rax            # imm = 0xFFFF
	cmpq	$63, %rax
	movq	%rsi, %rax
	je	.LBB9_5
# BB#7:                                 # %while.cond.while.cond55.preheader_crit_edge
	movq	%r15, %rdi
.LBB9_8:                                # %while.cond55.preheader
	movl	(%rdi), %eax
	movq	%rax, %rcx
	andq	$65535, %rcx            # imm = 0xFFFF
	movq	%rdi, %r15
	cmpq	$63, %rcx
	jne	.LBB9_9
# BB#14:
	movq	%rdi, 64(%rsp)          # 8-byte Spill
	.align	16, 0x90
.LBB9_15:                               # %while.body60
                                        # =>This Inner Loop Header: Depth=1
	movq	8(%r15), %rcx
	movl	(%rcx), %esi
	movq	%rsi, %rdx
	andq	$65535, %rdx            # imm = 0xFFFF
	cmpq	$61, %rdx
	jne	.LBB9_16
# BB#17:                                # %land.lhs.true68
                                        #   in Loop: Header=BB9_15 Depth=1
	movl	8(%rcx), %edi
	cmpq	$52, %rdi
	ja	.LBB9_18
# BB#19:                                # %if.then77
                                        #   in Loop: Header=BB9_15 Depth=1
	movq	$16, %rcx
	shrq	%cl, %rsi
	movq	$16, %rcx
	movl	16(%r15), %edx
	shrq	%cl, %rax
	andq	$255, %rsi
	andq	$255, %rax
	movq	%rax, %rcx
	callq	subreg_regno_offset
	movq	8(%r15), %r15
	movl	(%r15), %esi
	addq	%rax, %r12
	jmp	.LBB9_20
	.align	16, 0x90
.LBB9_16:                               #   in Loop: Header=BB9_15 Depth=1
	movq	%rcx, %r15
	jmp	.LBB9_20
	.align	16, 0x90
.LBB9_18:                               #   in Loop: Header=BB9_15 Depth=1
	movq	%rcx, %r15
.LBB9_20:                               # %if.end98
                                        #   in Loop: Header=BB9_15 Depth=1
	movq	%rsi, %rax
	andq	$65535, %rax            # imm = 0xFFFF
	cmpq	$63, %rax
	movq	%rsi, %rax
	je	.LBB9_15
	jmp	.LBB9_21
.LBB9_9:
	movq	%rdi, 64(%rsp)          # 8-byte Spill
.LBB9_21:                               # %while.end102
	movq	144(%rsp), %rsi
	movq	%r15, %rdi
	callq	ix86_preferred_reload_class
	movzbl	(%rbx), %ecx
	xorq	%rdx, %rdx
	cmpq	$61, %rcx
	jne	.LBB9_50
# BB#22:                                # %land.lhs.true108
	movl	8(%rbx), %esi
	cmpq	$52, %rsi
	ja	.LBB9_50
# BB#23:                                # %if.then114
	movq	%rax, 16(%rsp)          # 8-byte Spill
	leaq	(%rsi,%r13), %rdi
	movabsq	$4294967288, %rcx       # imm = 0xFFFFFFF8
	andq	%rdi, %rcx
	cmpq	$8, %rcx
	je	.LBB9_27
# BB#24:                                # %if.then114
	leaq	-21(%rsi,%r13), %rdx
	movabsq	$4294967295, %rcx       # imm = 0xFFFFFFFF
	andq	%rcx, %rdx
	cmpq	$8, %rdx
	jb	.LBB9_27
# BB#25:                                # %if.then114
	leaq	-45(%rsi,%r13), %rdx
	andq	%rcx, %rdx
	cmpq	$8, %rdx
	jb	.LBB9_27
# BB#26:                                # %if.then114
	leaq	-29(%rsi,%r13), %rax
	andq	%rcx, %rax
	cmpq	$7, %rax
	jbe	.LBB9_27
# BB#32:                                # %cond.false
	movq	72(%rsp), %rax          # 8-byte Reload
	andq	%rax, %rcx
	cmpq	$24, %rcx
	jne	.LBB9_33
# BB#35:                                # %cond.true160
	movzbl	target_flags+3(%rip), %eax
	andq	$2, %rax
	xorq	$6, %rax
	jmp	.LBB9_37
.LBB9_27:                               # %cond.true
	movl	mode_class(,%r14,4), %ecx
	cmpq	$5, %rcx
	movq	$2, %rax
	je	.LBB9_37
# BB#28:                                # %lor.rhs
	cmpq	$6, %rcx
	jne	.LBB9_29
# BB#30:                                # %lor.rhs
	movabsq	$1, %rax
	incq	%rax
	jmp	.LBB9_37
.LBB9_33:                               # %cond.false
	cmpq	$18, %rcx
	jne	.LBB9_36
# BB#34:                                # %cond.true153
	movl	target_flags(%rip), %eax
	movq	$25, %rcx
	shrq	%cl, %rax
	andq	$1, %rax
	xorq	$3, %rax
	jmp	.LBB9_37
.LBB9_29:
	movabsq	$0, %rax
	incq	%rax
	jmp	.LBB9_37
.LBB9_36:                               # %cond.false164
	movl	target_flags(%rip), %esi
	movq	$23, %rcx
	shrq	%cl, %rsi
	andq	$4, %rsi
	movq	48(%rsp), %rax          # 8-byte Reload
	leaq	3(%rax,%rsi), %rax
	addq	$4, %rsi
	cqto
	idivq	%rsi
.LBB9_37:                               # %cond.end178
	movq	88(%rsp), %rcx          # 8-byte Reload
	movq	(%rcx), %r13
	movq	const_int_rtx+512(%rip), %rdx
	movq	%rdx, (%rcx)
	movabsq	$4294967295, %r8        # imm = 0xFFFFFFFF
	movq	%rdi, %rcx
	andq	%r8, %rcx
	xorq	%rdx, %rdx
	cmpq	$52, %rcx
	ja	.LBB9_49
# BB#38:                                # %land.lhs.true182
	movq	%r13, 48(%rsp)          # 8-byte Spill
	movq	%rax, 8(%rsp)           # 8-byte Spill
	movq	72(%rsp), %rsi          # 8-byte Reload
	movq	%r8, %r13
	movq	%rdi, %r14
	callq	ix86_hard_regno_mode_ok
	testq	%r13, %rax
	je	.LBB9_39
# BB#40:                                # %land.lhs.true185
	movq	this_insn(%rip), %rax
	movq	32(%rax), %rdx
	movq	8(%rsp), %rax           # 8-byte Reload
	leaq	(%rax,%r14), %rsi
	movq	%r14, %rdi
	movq	56(%rsp), %rcx          # 8-byte Reload
	callq	refers_to_regno_for_reload_p
	movabsq	$4294967295, %rcx       # imm = 0xFFFFFFFF
	testq	%rcx, %rax
	movabsq	$0, %rdx
	movq	48(%rsp), %r13          # 8-byte Reload
	jne	.LBB9_49
# BB#41:                                # %for.cond.preheader
	movq	%r13, %r11
	xorq	%rdx, %rdx
	movabsq	$4294967295, %rax       # imm = 0xFFFFFFFF
	movq	8(%rsp), %rsi           # 8-byte Reload
	testq	%rax, %rsi
	movabsq	$0, %rcx
	movq	%r14, %r9
	movq	%rsi, %r10
	movq	%rax, %r14
	je	.LBB9_46
# BB#42:                                # %for.body.lr.ph
	movq	$32, %rcx
	movq	16(%rsp), %rax          # 8-byte Reload
	shlq	%cl, %rax
	movq	$32, %rcx
	sarq	%cl, %rax
	movq	reg_class_contents(,%rax,8), %r8
	movq	$1, %rax
	movq	%r10, %rsi
	andq	%r14, %rsi
	.align	16, 0x90
.LBB9_44:                               # %for.body
                                        # =>This Inner Loop Header: Depth=1
	leaq	-1(%rax,%r9), %rcx
	movq	$1, %rdi
	shlq	%cl, %rdi
	testq	%rdi, %r8
	je	.LBB9_45
# BB#43:                                # %for.cond
                                        #   in Loop: Header=BB9_44 Depth=1
	movq	%rax, %rdi
	andq	%r14, %rdi
	movq	%rax, %rcx
	incq	%rax
	cmpq	%rsi, %rdi
	jb	.LBB9_44
	jmp	.LBB9_46
.LBB9_39:
	xorq	%rdx, %rdx
	movq	48(%rsp), %r13          # 8-byte Reload
	jmp	.LBB9_49
.LBB9_45:
	decq	%rax
	movq	%rax, %rcx
.LBB9_46:                               # %for.end
	movq	%r9, %rsi
	andq	%r14, %r10
	andq	%r14, %rcx
	cmpq	%r10, %rcx
	movq	%r11, %r13
	jne	.LBB9_49
# BB#47:                                # %if.then204
	movq	80(%rsp), %rcx          # 8-byte Reload
	movzbl	(%rcx), %eax
	cmpq	$61, %rax
	movq	%rcx, %rdx
	je	.LBB9_49
# BB#48:                                # %if.else
	movq	72(%rsp), %rdi          # 8-byte Reload
	callq	gen_rtx_REG
	movq	%rax, %rdx
.LBB9_49:                               # %if.end213
	movq	88(%rsp), %rax          # 8-byte Reload
	movq	%r13, (%rax)
	movq	16(%rsp), %rax          # 8-byte Reload
.LBB9_50:                               # %if.end214
	movl	hard_regs_live_known(%rip), %ecx
	testq	%rcx, %rcx
	je	.LBB9_95
# BB#51:                                # %land.lhs.true216
	movzbl	(%r15), %ecx
	cmpq	$61, %rcx
	jne	.LBB9_95
# BB#52:                                # %land.lhs.true221
	movq	%rax, %r14
	movl	8(%r15), %eax
	cmpq	$52, %rax
	ja	.LBB9_95
# BB#53:                                # %land.lhs.true227
	testq	%rdx, %rdx
	movq	%rdx, %r13
	movq	80(%rsp), %rdx          # 8-byte Reload
	je	.LBB9_56
# BB#54:                                # %lor.lhs.false230
	movq	this_insn(%rip), %rdi
	movq	$10, %rsi
	callq	find_reg_note
	testq	%rax, %rax
	je	.LBB9_55
.LBB9_56:                               # %land.lhs.true233
	movq	this_insn(%rip), %rdi
	movq	$1, %rsi
	movq	64(%rsp), %rdx          # 8-byte Reload
	callq	find_reg_note
	testq	%rax, %rax
	je	.LBB9_57
# BB#58:                                # %land.lhs.true236
	movl	8(%r15), %edi
	movzbl	fixed_regs(%rdi), %eax
	testq	%rax, %rax
	je	.LBB9_60
# BB#59:
	movq	%r13, %rdx
	jmp	.LBB9_95
.LBB9_57:
	movq	%r13, %rdx
	jmp	.LBB9_95
.LBB9_55:
	movq	%r13, %rdx
	jmp	.LBB9_95
.LBB9_60:                               # %land.lhs.true243
	movzbl	2(%rbx), %eax
	testq	%rax, %rax
	je	.LBB9_62
# BB#61:                                # %land.lhs.true243
	movq	%rax, 72(%rsp)          # 8-byte Spill
.LBB9_62:                               # %land.lhs.true243
	movq	72(%rsp), %rsi          # 8-byte Reload
	callq	ix86_hard_regno_mode_ok
	movabsq	$4294967295, %rdx       # imm = 0xFFFFFFFF
	testq	%rdx, %rax
	je	.LBB9_63
# BB#64:                                # %if.then261
	movl	8(%r15), %eax
	leaq	(%rax,%r12), %rdi
	movabsq	$4294967288, %rcx       # imm = 0xFFFFFFF8
	andq	%rdi, %rcx
	cmpq	$8, %rcx
	je	.LBB9_68
# BB#65:                                # %if.then261
	leaq	-21(%rax,%r12), %rcx
	andq	%rdx, %rcx
	cmpq	$8, %rcx
	jb	.LBB9_68
# BB#66:                                # %if.then261
	leaq	-45(%rax,%r12), %rcx
	andq	%rdx, %rcx
	cmpq	$8, %rcx
	jb	.LBB9_68
# BB#67:                                # %if.then261
	leaq	-29(%rax,%r12), %rax
	andq	%rdx, %rax
	cmpq	$7, %rax
	jbe	.LBB9_68
# BB#73:                                # %cond.false303
	movq	40(%rsp), %rax          # 8-byte Reload
	andq	%rdx, %rax
	cmpq	$24, %rax
	jne	.LBB9_74
# BB#76:                                # %cond.true313
	movzbl	target_flags+3(%rip), %r12d
	andq	$2, %r12
	xorq	$6, %r12
	jmp	.LBB9_78
.LBB9_63:
	movq	%r13, %rdx
	jmp	.LBB9_95
.LBB9_68:                               # %cond.true291
	movq	32(%rsp), %rax          # 8-byte Reload
	movl	mode_class(,%rax,4), %eax
	cmpq	$5, %rax
	movq	$2, %r12
	je	.LBB9_78
# BB#69:                                # %lor.rhs296
	cmpq	$6, %rax
	jne	.LBB9_70
# BB#71:                                # %lor.rhs296
	movabsq	$1, %r12
	incq	%r12
	jmp	.LBB9_78
.LBB9_74:                               # %cond.false303
	cmpq	$18, %rax
	jne	.LBB9_77
# BB#75:                                # %cond.true306
	movl	target_flags(%rip), %r12d
	movq	$25, %rcx
	shrq	%cl, %r12
	andq	$1, %r12
	xorq	$3, %r12
	jmp	.LBB9_78
.LBB9_70:
	movabsq	$0, %r12
	incq	%r12
	jmp	.LBB9_78
.LBB9_77:                               # %cond.false317
	movl	target_flags(%rip), %esi
	movq	$23, %rcx
	shrq	%cl, %rsi
	andq	$4, %rsi
	movq	24(%rsp), %rax          # 8-byte Reload
	leaq	3(%rax,%rsi), %rax
	addq	$4, %rsi
	cqto
	idivq	%rsi
	movq	%rax, %r12
.LBB9_78:                               # %cond.end334
	leaq	(%r12,%rdi), %r15
	xorq	%rcx, %rcx
	movq	%r15, %rsi
	movq	%rbx, %rdx
	movq	%rdi, %rbx
	callq	refers_to_regno_for_reload_p
	movabsq	$4294967295, %rcx       # imm = 0xFFFFFFFF
	testq	%rcx, %rax
	je	.LBB9_80
# BB#79:
	movq	%r13, %rdx
	jmp	.LBB9_95
.LBB9_80:                               # %land.lhs.true339
	movq	this_insn(%rip), %rax
	movq	32(%rax), %rdx
	movq	%rdx, 72(%rsp)          # 8-byte Spill
	movq	%rbx, %rdi
	movq	%r15, %rsi
	callq	hard_reg_set_here_p
	movabsq	$4294967295, %r9        # imm = 0xFFFFFFFF
	testq	%r9, %rax
	je	.LBB9_82
# BB#81:
	movq	%r13, %rdx
	jmp	.LBB9_95
.LBB9_82:                               # %land.lhs.true346
	movq	72(%rsp), %rdx          # 8-byte Reload
	movq	%rbx, 56(%rsp)          # 8-byte Spill
	movq	160(%rsp), %rax
	testq	%r9, %rax
	je	.LBB9_85
# BB#83:                                # %lor.lhs.false348
	movq	56(%rsp), %rdi          # 8-byte Reload
	movq	%r15, %rsi
	movq	88(%rsp), %rcx          # 8-byte Reload
	movq	%r9, %rbx
	callq	refers_to_regno_for_reload_p
	movq	%rbx, %r9
	testq	%r9, %rax
	je	.LBB9_85
# BB#84:
	movq	%r13, %rdx
	jmp	.LBB9_95
.LBB9_85:                               # %for.cond357.preheader
	xorq	%rcx, %rcx
	testq	%r9, %r12
	movq	80(%rsp), %r8           # 8-byte Reload
	movq	56(%rsp), %rbx          # 8-byte Reload
	je	.LBB9_90
# BB#86:                                # %for.body360.lr.ph
	movq	$32, %rcx
	shlq	%cl, %r14
	movq	$32, %rcx
	sarq	%cl, %r14
	movq	reg_class_contents(,%r14,8), %rdx
	movq	$1, %rax
	movq	%r12, %rsi
	andq	%r9, %rsi
.LBB9_88:                               # %for.body360
                                        # =>This Inner Loop Header: Depth=1
	leaq	-1(%rax,%rbx), %rcx
	movq	$1, %rdi
	shlq	%cl, %rdi
	testq	%rdi, %rdx
	je	.LBB9_89
# BB#87:                                # %for.cond357
                                        #   in Loop: Header=BB9_88 Depth=1
	movq	%rax, %rdi
	andq	%r9, %rdi
	movq	%rax, %rcx
	incq	%rax
	cmpq	%rsi, %rdi
	jb	.LBB9_88
	jmp	.LBB9_90
.LBB9_89:
	decq	%rax
	movq	%rax, %rcx
.LBB9_90:                               # %for.end372
	andq	%r9, %r12
	andq	%r9, %rcx
	cmpq	%r12, %rcx
	movq	%r13, %rdx
	jne	.LBB9_95
# BB#91:                                # %if.then375
	movq	$32, %rcx
	movq	152(%rsp), %rdi
	movq	%rdi, %rax
	shlq	%cl, %rax
	movq	$32, %rcx
	sarq	%cl, %rax
	testq	%rax, %rax
	movq	%rbx, %rsi
	js	.LBB9_94
# BB#92:                                # %if.then375
	cmpq	%r8, %rdx
	jne	.LBB9_94
# BB#93:                                # %if.then381
	movq	$32, %rcx
	shlq	%cl, %rdi
	movq	$32, %rcx
	sarq	%cl, %rdi
	imulq	$104, %rdi, %rax
	movq	$0, rld+8(%rax)
.LBB9_94:                               # %if.end385
	movq	64(%rsp), %rcx          # 8-byte Reload
	movzbl	(%rcx), %eax
	cmpq	$61, %rax
	movq	%rcx, %rdx
	movq	40(%rsp), %rdi          # 8-byte Reload
	jne	.LBB9_96
.LBB9_95:                               # %return
	movq	%rdx, %rax
	addq	$96, %rsp
	popq	%rbx
	popq	%r12
	popq	%r13
	popq	%r14
	popq	%r15
	retq
.LBB9_96:                               # %if.else391
	addq	$96, %rsp
	popq	%rbx
	popq	%r12
	popq	%r13
	popq	%r14
	popq	%r15
	jmp	gen_rtx_REG  # TAILCALL
.Ltmp141:
	.size	find_dummy_reload, .Ltmp141-find_dummy_reload
	.cfi_endproc

	.globl	earlyclobber_operand_p
	.align	16, 0x90
	.type	earlyclobber_operand_p,@function
earlyclobber_operand_p:                 # @earlyclobber_operand_p
	.cfi_startproc
# BB#0:                                 # %entry
	movslq	n_earlyclobbers(%rip), %rdx
	testq	%rdx, %rdx
	jle	.LBB10_1
# BB#4:
	movq	$1, %rsi
	.align	16, 0x90
.LBB10_5:                               # %for.body
                                        # =>This Inner Loop Header: Depth=1
	movq	reload_earlyclobbers-8(,%rsi,8), %rax
	cmpq	%rdi, %rax
	movq	$1, %rax
	je	.LBB10_6
# BB#2:                                 # %for.cond
                                        #   in Loop: Header=BB10_5 Depth=1
	movq	$32, %rcx
	movq	%rsi, %rax
	shlq	%cl, %rax
	movq	$32, %rcx
	sarq	%cl, %rax
	incq	%rsi
	cmpq	%rdx, %rax
	jl	.LBB10_5
# BB#3:
	xorq	%rax, %rax
	retq
.LBB10_1:
	xorq	%rax, %rax
	retq
.LBB10_6:                               # %return
	retq
.Ltmp142:
	.size	earlyclobber_operand_p, .Ltmp142-earlyclobber_operand_p
	.cfi_endproc

	.globl	find_equiv_reg
	.align	16, 0x90
	.type	find_equiv_reg,@function
find_equiv_reg:                         # @find_equiv_reg
	.cfi_startproc
# BB#0:                                 # %entry
	pushq	%r15
.Ltmp149:
	.cfi_def_cfa_offset 16
	pushq	%r14
.Ltmp150:
	.cfi_def_cfa_offset 24
	pushq	%r13
.Ltmp151:
	.cfi_def_cfa_offset 32
	pushq	%r12
.Ltmp152:
	.cfi_def_cfa_offset 40
	pushq	%rbx
.Ltmp153:
	.cfi_def_cfa_offset 48
	subq	$144, %rsp
.Ltmp154:
	.cfi_def_cfa_offset 192
.Ltmp155:
	.cfi_offset %rbx, -48
.Ltmp156:
	.cfi_offset %r12, -40
.Ltmp157:
	.cfi_offset %r13, -32
.Ltmp158:
	.cfi_offset %r14, -24
.Ltmp159:
	.cfi_offset %r15, -16
	movq	%r8, %r10
	movq	%r10, 136(%rsp)         # 8-byte Spill
	movq	%rcx, 104(%rsp)         # 8-byte Spill
	movq	%rsi, 128(%rsp)         # 8-byte Spill
	testq	%rdi, %rdi
	je	.LBB11_1
# BB#3:                                 # %if.else
	movl	(%rdi), %esi
	movq	%rsi, %rbx
	andq	$65535, %rbx            # imm = 0xFFFF
	movabsq	$4294967295, %rax       # imm = 0xFFFFFFFF
	movq	$1, %r14
	xorq	%r9, %r9
	cmpq	$133, %rbx
	jg	.LBB11_7
# BB#4:                                 # %if.else
	leaq	-54(%rbx), %rcx
	movabsq	$4294967295, %r8        # imm = 0xFFFFFFFF
	andq	%r8, %rcx
	cmpq	$21, %rcx
	jbe	.LBB11_6
# BB#5:
	xorq	%rax, %rax
	jmp	.LBB11_388
.LBB11_1:
	movq	%r9, 120(%rsp)          # 8-byte Spill
.LBB11_2:                               # %while.body.preheader
	movq	$0, 88(%rsp)            # 8-byte Folded Spill
	xorq	%r14, %r14
	xorq	%r9, %r9
	jmp	.LBB11_34
.LBB11_7:                               # %if.else
	movq	%rax, 120(%rsp)         # 8-byte Spill
	cmpq	$134, %rbx
	jne	.LBB11_9
# BB#8:
	movq	$0, 88(%rsp)            # 8-byte Folded Spill
	jmp	.LBB11_34
.LBB11_6:                               # %if.else
	movq	%rax, 120(%rsp)         # 8-byte Spill
	movq	$0, 88(%rsp)            # 8-byte Folded Spill
	xorq	%rax, %rax
	jmpq	*.LJTI11_0(,%rcx,8)
.LBB11_10:                              # %if.then2
	movl	8(%rdi), %eax
	movq	%rax, 120(%rsp)         # 8-byte Spill
	jmp	.LBB11_2
.LBB11_9:                               # %if.else
	cmpq	$140, %rbx
	movabsq	$0, %rax
	movq	%rax, 88(%rsp)          # 8-byte Spill
.LBB11_33:                              # %land.lhs.true130
	movabsq	$0, %rax
	jne	.LBB11_388
	jmp	.LBB11_34
.LBB11_11:                              # %if.then7
	xorq	%rax, %rax
	testq	$134217728, %rsi        # imm = 0x8000000
	jne	.LBB11_388
# BB#12:                                # %if.end
	movq	8(%rdi), %rcx
	movl	flag_float_store(%rip), %ebx
	movzbl	(%rcx), %eax
	testq	%rbx, %rbx
	je	.LBB11_17
# BB#13:                                # %land.lhs.true
	movq	$14, %rcx
	shrq	%cl, %rsi
	andq	$1020, %rsi             # imm = 0x3FC
	movl	mode_class(%rsi), %ecx
	cmpq	$2, %rcx
	je	.LBB11_14
# BB#15:                                # %land.lhs.true
	movq	$0, 88(%rsp)            # 8-byte Folded Spill
	addq	$-96, %rax
	movq	$1, %r9
	movabsq	$4294967295, %rcx       # imm = 0xFFFFFFFF
	andq	%rax, %rcx
	cmpq	$6, %rcx
	movabsq	$0, %r14
	movq	%r8, 120(%rsp)          # 8-byte Spill
	jmp	.LBB11_16
.LBB11_18:                              # %land.lhs.true59
	movq	8(%rdi), %rcx
	movq	global_rtl+16(%rip), %rsi
	cmpq	%rsi, %rcx
	jne	.LBB11_26
# BB#19:                                # %land.lhs.true64
	movq	16(%rdi), %rcx
	movzbl	(%rcx), %esi
	cmpq	$133, %rsi
	jg	.LBB11_22
# BB#20:                                # %land.lhs.true64
	addq	$-54, %rsi
	movabsq	$4294967295, %rcx       # imm = 0xFFFFFFFF
	andq	%rsi, %rcx
	cmpq	$14, %rcx
	ja	.LBB11_25
# BB#21:                                # %land.lhs.true64
	movq	$1, %rsi
	shlq	%cl, %rsi
	testq	$24599, %rsi            # imm = 0x6017
	jne	.LBB11_23
	jmp	.LBB11_25
.LBB11_22:                              # %land.lhs.true64
	cmpq	$134, %rsi
	je	.LBB11_23
# BB#24:                                # %land.lhs.true64
	cmpq	$140, %rsi
	jne	.LBB11_25
.LBB11_23:
	movq	$1, 88(%rsp)            # 8-byte Folded Spill
	movq	$1, %r14
	movq	%r8, 120(%rsp)          # 8-byte Spill
	jmp	.LBB11_34
.LBB11_25:                              # %if.else121
	xorq	%rax, %rax
	cmpq	$75, %rbx
	jne	.LBB11_388
.LBB11_26:                              # %land.lhs.true125
	movq	8(%rdi), %rcx
	movq	global_rtl+24(%rip), %rsi
	xorq	%rax, %rax
	cmpq	%rsi, %rcx
	jne	.LBB11_388
# BB#27:                                # %land.lhs.true130
	movq	16(%rdi), %rcx
	movzbl	(%rcx), %eax
	cmpq	$133, %rax
	jg	.LBB11_30
# BB#28:                                # %land.lhs.true130
	addq	$-54, %rax
	movabsq	$4294967295, %rcx       # imm = 0xFFFFFFFF
	andq	%rax, %rcx
	cmpq	$14, %rcx
	jbe	.LBB11_387
# BB#29:
	xorq	%rax, %rax
	jmp	.LBB11_388
.LBB11_17:                              # %if.end22
	addq	$-96, %rax
	movabsq	$4294967295, %rcx       # imm = 0xFFFFFFFF
	movq	%rcx, 120(%rsp)         # 8-byte Spill
	andq	%rcx, %rax
	movq	$0, 88(%rsp)            # 8-byte Folded Spill
	cmpq	$6, %rax
	movq	$1, %r9
	movabsq	$0, %r14
.LBB11_16:                              # %land.lhs.true
	movabsq	$0, %rax
	jae	.LBB11_34
	jmp	.LBB11_388
.LBB11_30:                              # %land.lhs.true130
	movq	$0, 88(%rsp)            # 8-byte Folded Spill
	cmpq	$134, %rax
	jne	.LBB11_32
# BB#31:
	xorq	%r9, %r9
	movq	%r8, 120(%rsp)          # 8-byte Spill
	jmp	.LBB11_34
.LBB11_387:                             # %land.lhs.true130
	movq	$0, 88(%rsp)            # 8-byte Folded Spill
	movq	$1, %rax
	shlq	%cl, %rax
	testq	$24599, %rax            # imm = 0x6017
	movabsq	$0, %r9
	movq	%r8, 120(%rsp)          # 8-byte Spill
	movabsq	$0, %rax
	je	.LBB11_388
.LBB11_34:                              # %while.body.preheader
	movq	128(%rsp), %rax         # 8-byte Reload
	movq	16(%rax), %r12
	testq	%r12, %r12
	movabsq	$0, %rax
	je	.LBB11_388
# BB#35:                                # %lor.lhs.false198.lr.ph
	movq	%r9, 80(%rsp)           # 8-byte Spill
	movq	%rdi, 96(%rsp)          # 8-byte Spill
	movq	$32, %rcx
	movq	192(%rsp), %rax
	shlq	%cl, %rax
	movq	$32, %rcx
	sarq	%cl, %rax
	movq	%rax, 64(%rsp)          # 8-byte Spill
	movq	$32, %rcx
	shlq	%cl, %rdx
	movq	$32, %rcx
	sarq	%cl, %rdx
	movq	%rdx, 112(%rsp)         # 8-byte Spill
	movabsq	$4294967295, %r13       # imm = 0xFFFFFFFF
	.align	16, 0x90
.LBB11_36:                              # %lor.lhs.false198
                                        # =>This Loop Header: Depth=1
                                        #     Child Loop BB11_107 Depth 2
	movzbl	(%r12), %eax
	cmpq	$36, %rax
	je	.LBB11_37
# BB#38:                                # %lor.lhs.false198
                                        #   in Loop: Header=BB11_36 Depth=1
	cmpq	$32, %rax
	jne	.LBB11_91
# BB#39:                                # %land.lhs.true207
                                        #   in Loop: Header=BB11_36 Depth=1
	cmpq	$2, %r10
	jae	.LBB11_40
# BB#42:                                # %if.then215
                                        #   in Loop: Header=BB11_36 Depth=1
	movzbl	rtx_class+32(%rip), %eax
	jmp	.LBB11_43
	.align	16, 0x90
.LBB11_40:                              # %lor.lhs.false211
                                        #   in Loop: Header=BB11_36 Depth=1
	movslq	8(%r12), %rax
	movslq	reload_first_uid(%rip), %rcx
	cmpq	%rcx, %rax
	jge	.LBB11_91
# BB#41:                                # %lor.lhs.false211
                                        #   in Loop: Header=BB11_36 Depth=1
	movzbl	rtx_class+32(%rip), %eax
	andq	$255, %rax
.LBB11_43:                              # %if.then215
                                        #   in Loop: Header=BB11_36 Depth=1
	cmpq	$105, %rax
	jne	.LBB11_91
# BB#44:                                # %cond.true
                                        #   in Loop: Header=BB11_36 Depth=1
	movq	32(%r12), %r15
	movzbl	(%r15), %eax
	cmpq	$47, %rax
	je	.LBB11_46
# BB#45:                                # %cond.false
                                        #   in Loop: Header=BB11_36 Depth=1
	movq	%r12, %rdi
	movq	%r15, %rsi
	callq	single_set_2
	movq	%rax, %r15
.LBB11_46:                              # %cond.end237
                                        #   in Loop: Header=BB11_36 Depth=1
	testq	%r15, %r15
	je	.LBB11_47
# BB#48:                                # %land.lhs.true241
                                        #   in Loop: Header=BB11_36 Depth=1
	movq	$32, %rcx
	movq	120(%rsp), %rax         # 8-byte Reload
	shlq	%cl, %rax
	movq	$32, %rcx
	sarq	%cl, %rax
	testq	%rax, %rax
	js	.LBB11_53
# BB#49:                                # %land.lhs.true244
                                        #   in Loop: Header=BB11_36 Depth=1
	movq	16(%r15), %rdi
	callq	true_regnum
	andq	%r13, %rax
	movq	120(%rsp), %rbx         # 8-byte Reload
	andq	%r13, %rbx
	cmpq	%rbx, %rax
	jne	.LBB11_51
# BB#50:                                # %land.lhs.true251
                                        #   in Loop: Header=BB11_36 Depth=1
	movq	8(%r15), %rdi
	movq	%rdi, 72(%rsp)          # 8-byte Spill
	callq	true_regnum
	movq	%rax, %r11
	movq	$32, %rcx
                                        # kill: RAX<def> R11<kill>
	shlq	%cl, %rax
	movq	$32, %rcx
	sarq	%cl, %rax
	testq	%rax, %rax
	jns	.LBB11_84
.LBB11_51:                              # %land.lhs.true261
                                        #   in Loop: Header=BB11_36 Depth=1
	movq	8(%r15), %rdi
	callq	true_regnum
	andq	%r13, %rax
	cmpq	%rbx, %rax
	jne	.LBB11_53
# BB#52:                                # %land.lhs.true268
                                        #   in Loop: Header=BB11_36 Depth=1
	movq	16(%r15), %rdi
	movq	%rdi, 72(%rsp)          # 8-byte Spill
	callq	true_regnum
	movq	%rax, %r11
	movq	$32, %rcx
                                        # kill: RAX<def> R11<kill>
	shlq	%cl, %rax
	movq	$32, %rcx
	sarq	%cl, %rax
	testq	%rax, %rax
	jns	.LBB11_84
.LBB11_53:                              # %lor.lhs.false275
                                        #   in Loop: Header=BB11_36 Depth=1
	testq	%r13, %r14
	je	.LBB11_57
# BB#54:                                # %land.lhs.true277
                                        #   in Loop: Header=BB11_36 Depth=1
	movq	16(%r15), %rdi
	movq	96(%rsp), %rsi          # 8-byte Reload
	callq	rtx_equal_p
	testq	%r13, %rax
	je	.LBB11_57
# BB#55:                                # %land.lhs.true283
                                        #   in Loop: Header=BB11_36 Depth=1
	movq	8(%r15), %rdi
	movq	96(%rsp), %rsi          # 8-byte Reload
	callq	reg_overlap_mentioned_for_reload_p
	testq	%r13, %rax
	jne	.LBB11_57
# BB#56:                                # %land.lhs.true289
                                        #   in Loop: Header=BB11_36 Depth=1
	movq	8(%r15), %rdi
	movq	%rdi, 72(%rsp)          # 8-byte Spill
	callq	true_regnum
	movq	%rax, %r11
	movq	$32, %rcx
                                        # kill: RAX<def> R11<kill>
	shlq	%cl, %rax
	movq	$32, %rcx
	sarq	%cl, %rax
	testq	%rax, %rax
	jns	.LBB11_84
.LBB11_57:                              # %lor.lhs.false296
                                        #   in Loop: Header=BB11_36 Depth=1
	cmpq	$0, 80(%rsp)            # 8-byte Folded Reload
	je	.LBB11_62
# BB#58:                                # %land.lhs.true298
                                        #   in Loop: Header=BB11_36 Depth=1
	movq	8(%r15), %rdi
	movq	%rdi, 72(%rsp)          # 8-byte Spill
	callq	true_regnum
	movq	$32, %rcx
	movq	%rax, %rdx
	shlq	%cl, %rdx
	movq	$32, %rcx
	sarq	%cl, %rdx
	testq	%rdx, %rdx
	js	.LBB11_60
# BB#59:                                # %land.lhs.true305
                                        #   in Loop: Header=BB11_36 Depth=1
	movq	16(%r15), %rsi
	movq	96(%rsp), %rdi          # 8-byte Reload
	movq	%rax, %rbx
	callq	rtx_renumbered_equal_p
	movq	%rbx, %r11
	testq	%r13, %rax
	jne	.LBB11_84
.LBB11_60:                              # %land.lhs.true313
                                        #   in Loop: Header=BB11_36 Depth=1
	movq	16(%r15), %rdi
	movq	%rdi, 72(%rsp)          # 8-byte Spill
	callq	true_regnum
	movq	$32, %rcx
	movq	%rax, %rdx
	shlq	%cl, %rdx
	movq	$32, %rcx
	sarq	%cl, %rdx
	testq	%rdx, %rdx
	js	.LBB11_62
# BB#61:                                # %land.lhs.true320
                                        #   in Loop: Header=BB11_36 Depth=1
	movq	8(%r15), %rsi
	movq	96(%rsp), %rdi          # 8-byte Reload
	movq	%rax, %rbx
	callq	rtx_renumbered_equal_p
	movq	%rbx, %r11
	testq	%r13, %rax
	jne	.LBB11_84
.LBB11_62:                              # %lor.lhs.false326
                                        #   in Loop: Header=BB11_36 Depth=1
	xorq	%rax, %rax
	testq	%r13, %r14
	movq	136(%rsp), %r10         # 8-byte Reload
	je	.LBB11_92
# BB#63:                                # %land.lhs.true328
                                        #   in Loop: Header=BB11_36 Depth=1
	cmpq	$0, 56(%r12)
	je	.LBB11_75
# BB#64:                                # %land.lhs.true334
                                        #   in Loop: Header=BB11_36 Depth=1
	movq	$3, %rsi
	xorq	%rdx, %rdx
	movq	%r12, %rdi
	callq	find_reg_note
	movq	%rax, %rbx
	testq	%rbx, %rbx
	je	.LBB11_75
# BB#65:                                # %land.lhs.true337
                                        #   in Loop: Header=BB11_36 Depth=1
	movq	8(%rbx), %rdi
	movq	96(%rsp), %rsi          # 8-byte Reload
	callq	rtx_equal_p
	testq	%r13, %rax
	je	.LBB11_67
# BB#66:                                # %land.lhs.true343
                                        #   in Loop: Header=BB11_36 Depth=1
	movq	8(%r15), %rdi
	movq	%rdi, 72(%rsp)          # 8-byte Spill
	callq	true_regnum
	movq	%rax, %r11
	movq	$32, %rcx
                                        # kill: RAX<def> R11<kill>
	shlq	%cl, %rax
	movq	$32, %rcx
	sarq	%cl, %rax
	testq	%rax, %rax
	jns	.LBB11_84
.LBB11_67:                              # %lor.lhs.false350
                                        #   in Loop: Header=BB11_36 Depth=1
	movq	8(%r15), %rax
	movzbl	(%rax), %eax
	cmpq	$61, %rax
	jne	.LBB11_75
# BB#68:                                # %land.lhs.true358
                                        #   in Loop: Header=BB11_36 Depth=1
	movq	8(%rbx), %rdi
	movl	(%rdi), %eax
	movq	%rax, %rcx
	andq	$65535, %rcx            # imm = 0xFFFF
	cmpq	$55, %rcx
	jne	.LBB11_75
# BB#69:                                # %land.lhs.true366
                                        #   in Loop: Header=BB11_36 Depth=1
	movq	$14, %rcx
	shrq	%cl, %rax
	andq	$1020, %rax             # imm = 0x3FC
	movl	mode_class(%rax), %eax
	cmpq	$2, %rax
	jne	.LBB11_75
# BB#70:                                # %land.lhs.true377
                                        #   in Loop: Header=BB11_36 Depth=1
	movq	96(%rsp), %rax          # 8-byte Reload
	movzbl	(%rax), %eax
	cmpq	$54, %rax
	jne	.LBB11_75
# BB#71:                                # %land.lhs.true382
                                        #   in Loop: Header=BB11_36 Depth=1
	xorq	%rsi, %rsi
	xorq	%rdx, %rdx
	xorq	%rcx, %rcx
	callq	operand_subword
	testq	%rax, %rax
	je	.LBB11_75
# BB#72:                                # %land.lhs.true389
                                        #   in Loop: Header=BB11_36 Depth=1
	movq	96(%rsp), %rdi          # 8-byte Reload
	movq	%rax, %rsi
	callq	rtx_equal_p
	testq	%r13, %rax
	je	.LBB11_75
# BB#73:                                # %land.lhs.true392
                                        #   in Loop: Header=BB11_36 Depth=1
	movq	8(%r15), %rdi
	xorq	%rsi, %rsi
	xorq	%rdx, %rdx
	xorq	%rcx, %rcx
	callq	operand_subword
	movq	%rax, 72(%rsp)          # 8-byte Spill
	testq	%rax, %rax
	je	.LBB11_75
# BB#74:                                # %land.lhs.true398
                                        #   in Loop: Header=BB11_36 Depth=1
	movq	72(%rsp), %rdi          # 8-byte Reload
	callq	true_regnum
	movq	%rax, %r11
	movq	$32, %rcx
                                        # kill: RAX<def> R11<kill>
	shlq	%cl, %rax
	movq	$32, %rcx
	sarq	%cl, %rax
	testq	%rax, %rax
	jns	.LBB11_84
.LBB11_75:                              # %land.lhs.true404
                                        #   in Loop: Header=BB11_36 Depth=1
	movq	$3, %rsi
	xorq	%rdx, %rdx
	movq	%r12, %rdi
	callq	find_reg_note
	testq	%rax, %rax
	je	.LBB11_47
# BB#76:                                # %land.lhs.true407
                                        #   in Loop: Header=BB11_36 Depth=1
	movq	8(%r15), %rcx
	movzbl	(%rcx), %ecx
	cmpq	$61, %rcx
	movq	136(%rsp), %r10         # 8-byte Reload
	jne	.LBB11_91
# BB#77:                                # %land.lhs.true415
                                        #   in Loop: Header=BB11_36 Depth=1
	movq	8(%rax), %rdi
	movl	(%rdi), %eax
	movq	%rax, %rcx
	andq	$65535, %rcx            # imm = 0xFFFF
	cmpq	$55, %rcx
	jne	.LBB11_91
# BB#78:                                # %land.lhs.true423
                                        #   in Loop: Header=BB11_36 Depth=1
	movq	$14, %rcx
	shrq	%cl, %rax
	andq	$1020, %rax             # imm = 0x3FC
	movl	mode_class(%rax), %eax
	cmpq	$2, %rax
	jne	.LBB11_91
# BB#79:                                # %land.lhs.true434
                                        #   in Loop: Header=BB11_36 Depth=1
	movq	96(%rsp), %rax          # 8-byte Reload
	movzbl	(%rax), %eax
	cmpq	$54, %rax
	jne	.LBB11_91
# BB#80:                                # %land.lhs.true439
                                        #   in Loop: Header=BB11_36 Depth=1
	movq	$1, %rsi
	xorq	%rdx, %rdx
	xorq	%rcx, %rcx
	callq	operand_subword
	testq	%rax, %rax
	je	.LBB11_47
# BB#81:                                # %land.lhs.true446
                                        #   in Loop: Header=BB11_36 Depth=1
	movq	96(%rsp), %rdi          # 8-byte Reload
	movq	%rax, %rsi
	callq	rtx_equal_p
	testq	%r13, %rax
	je	.LBB11_47
# BB#82:                                # %land.lhs.true449
                                        #   in Loop: Header=BB11_36 Depth=1
	movq	8(%r15), %rdi
	movq	$1, %rsi
	xorq	%rdx, %rdx
	xorq	%rcx, %rcx
	callq	operand_subword
	testq	%rax, %rax
	je	.LBB11_47
# BB#83:                                # %land.lhs.true455
                                        #   in Loop: Header=BB11_36 Depth=1
	movq	%rax, %rdi
	movq	%rdi, 72(%rsp)          # 8-byte Spill
	callq	true_regnum
	movq	%rax, %r11
	movq	$32, %rcx
                                        # kill: RAX<def> R11<kill>
	shlq	%cl, %rax
	movq	$32, %rcx
	sarq	%cl, %rax
	testq	%rax, %rax
	js	.LBB11_47
.LBB11_84:                              # %if.then459
                                        #   in Loop: Header=BB11_36 Depth=1
	movq	$32, %rcx
	movq	104(%rsp), %rdx         # 8-byte Reload
	movq	%rdx, %rax
	shlq	%cl, %rax
	movq	$32, %rcx
	sarq	%cl, %rax
	testq	%rax, %rax
	js	.LBB11_90
# BB#85:                                # %if.then462
                                        #   in Loop: Header=BB11_36 Depth=1
	movq	%rdx, %rax
	andq	%r13, %rax
	andq	%r13, %r11
	cmpq	%rax, %r11
	movq	136(%rsp), %r10         # 8-byte Reload
	jne	.LBB11_91
	jmp	.LBB11_86
.LBB11_47:                              #   in Loop: Header=BB11_36 Depth=1
	movq	%r14, %rax
	movq	136(%rsp), %r10         # 8-byte Reload
	jmp	.LBB11_92
.LBB11_90:                              # %if.else467
                                        #   in Loop: Header=BB11_36 Depth=1
	movq	%r11, %rax
	andq	%r13, %rax
	cmpq	$53, %rax
	movq	136(%rsp), %r10         # 8-byte Reload
	jae	.LBB11_91
# BB#94:                                # %if.else471
                                        #   in Loop: Header=BB11_36 Depth=1
	movq	%r11, %rax
	movabsq	$4294967288, %rcx       # imm = 0xFFFFFFF8
	andq	%rcx, %rax
	cmpq	$8, %rax
	je	.LBB11_98
# BB#95:                                # %if.else471
                                        #   in Loop: Header=BB11_36 Depth=1
	leaq	-21(%r11), %rax
	andq	%r13, %rax
	cmpq	$8, %rax
	jb	.LBB11_98
# BB#96:                                # %if.else471
                                        #   in Loop: Header=BB11_36 Depth=1
	leaq	-45(%r11), %rax
	andq	%r13, %rax
	cmpq	$8, %rax
	jb	.LBB11_98
# BB#97:                                # %if.else471
                                        #   in Loop: Header=BB11_36 Depth=1
	leaq	-29(%r11), %rax
	andq	%r13, %rax
	cmpq	$7, %rax
	jbe	.LBB11_98
# BB#102:                               # %cond.false505
                                        #   in Loop: Header=BB11_36 Depth=1
	movq	192(%rsp), %rax
	andq	%r13, %rax
	cmpq	$24, %rax
	jne	.LBB11_103
# BB#105:                               # %cond.true514
                                        #   in Loop: Header=BB11_36 Depth=1
	movzbl	target_flags+3(%rip), %eax
	andq	$2, %rax
	xorq	$6, %rax
	jmp	.LBB11_107
.LBB11_98:                              # %cond.true495
                                        #   in Loop: Header=BB11_36 Depth=1
	movq	64(%rsp), %rax          # 8-byte Reload
	movl	mode_class(,%rax,4), %ecx
	cmpq	$5, %rcx
	movq	$2, %rax
	je	.LBB11_107
# BB#99:                                # %lor.rhs
                                        #   in Loop: Header=BB11_36 Depth=1
	cmpq	$6, %rcx
	movabsq	$0, %rax
	jne	.LBB11_101
# BB#100:                               # %lor.rhs
                                        #   in Loop: Header=BB11_36 Depth=1
	movabsq	$1, %rax
.LBB11_101:                             # %lor.rhs
                                        #   in Loop: Header=BB11_36 Depth=1
	incq	%rax
	jmp	.LBB11_107
.LBB11_103:                             # %cond.false505
                                        #   in Loop: Header=BB11_36 Depth=1
	cmpq	$18, %rax
	jne	.LBB11_106
# BB#104:                               # %cond.true508
                                        #   in Loop: Header=BB11_36 Depth=1
	movl	target_flags(%rip), %eax
	movq	$25, %rcx
	shrq	%cl, %rax
	andq	$1, %rax
	xorq	$3, %rax
	jmp	.LBB11_107
.LBB11_106:                             # %cond.false518
                                        #   in Loop: Header=BB11_36 Depth=1
	movl	target_flags(%rip), %esi
	movq	64(%rsp), %rax          # 8-byte Reload
	movzbl	mode_size(%rax), %eax
	movq	$23, %rcx
	shrq	%cl, %rsi
	andq	$4, %rsi
	leaq	3(%rax,%rsi), %rax
	addq	$4, %rsi
	cqto
	idivq	%rsi
	.align	16, 0x90
.LBB11_107:                             # %for.cond
                                        #   Parent Loop BB11_36 Depth=1
                                        # =>  This Inner Loop Header: Depth=2
	movq	$32, %rcx
	movq	%rax, %rdx
	shlq	%cl, %rdx
	movq	$32, %rcx
	sarq	%cl, %rdx
	testq	%rdx, %rdx
	jle	.LBB11_87
# BB#108:                               # %for.body
                                        #   in Loop: Header=BB11_107 Depth=2
	decq	%rax
	movq	112(%rsp), %rcx         # 8-byte Reload
	movq	reg_class_contents(,%rcx,8), %rdx
	leaq	(%rax,%r11), %rcx
	movq	$1, %rsi
	shlq	%cl, %rsi
	testq	%rsi, %rdx
	jne	.LBB11_107
	.align	16, 0x90
.LBB11_91:                              #   in Loop: Header=BB11_36 Depth=1
	movq	%r14, %rax
.LBB11_92:                              # %while.body.backedge
                                        #   in Loop: Header=BB11_36 Depth=1
	movq	16(%r12), %r12
	testq	%r12, %r12
	movq	%rax, %r14
	jne	.LBB11_36
# BB#93:
	xorq	%rax, %rax
	jmp	.LBB11_388
.LBB11_37:
	xorq	%rax, %rax
.LBB11_388:                             # %return
	addq	$144, %rsp
	popq	%rbx
	popq	%r12
	popq	%r13
	popq	%r14
	popq	%r15
	retq
.LBB11_86:
	movq	%rdx, %r11
.LBB11_87:                              # %if.end549
	cmpq	$0, 56(%r12)
	je	.LBB11_109
# BB#88:                                # %land.lhs.true557
	movq	$10, %rsi
	movq	%r12, %rdi
	movq	72(%rsp), %rdx          # 8-byte Reload
	movq	%r11, %r15
	movq	%r10, %rbx
	callq	find_reg_note
	movq	%rbx, %r10
	movq	%r15, %r11
	testq	%rax, %rax
	je	.LBB11_109
# BB#89:
	xorq	%rax, %rax
	jmp	.LBB11_388
.LBB11_109:                             # %if.end561
	movq	%r11, %rax
	andq	%r13, %rax
	movq	%rax, 104(%rsp)         # 8-byte Spill
	cmpq	$7, %rax
	movq	80(%rsp), %rdx          # 8-byte Reload
	je	.LBB11_114
# BB#110:                               # %if.end561
	movq	120(%rsp), %rax         # 8-byte Reload
	andq	%r13, %rax
	cmpq	$7, %rax
	je	.LBB11_114
# BB#111:                               # %lor.lhs.false567
	movq	%r13, %rbx
	testq	%rdx, %rdx
	je	.LBB11_112
# BB#113:                               # %land.lhs.true569
	movq	global_rtl+16(%rip), %rdi
	movq	96(%rsp), %rsi          # 8-byte Reload
	movq	%rdx, %r15
	movq	%r11, %r13
	movq	%r10, 136(%rsp)         # 8-byte Spill
	callq	reg_overlap_mentioned_for_reload_p
	movq	136(%rsp), %r10         # 8-byte Reload
	movq	%r13, %r11
	movq	%r15, %rdx
	movq	%rbx, %r13
	testq	%r13, %rax
	je	.LBB11_115
.LBB11_114:                             # %if.then572
	movq	$1, 88(%rsp)            # 8-byte Folded Spill
	jmp	.LBB11_115
.LBB11_112:
	movq	%rbx, %r13
.LBB11_115:                             # %if.end573
	movq	72(%rsp), %rsi          # 8-byte Reload
	movzbl	2(%rsi), %eax
	movq	192(%rsp), %rcx
	andq	%r13, %rcx
	movq	%rcx, 112(%rsp)         # 8-byte Spill
	cmpq	%rcx, %rax
	jne	.LBB11_116
# BB#117:                               # %if.end580
	testq	%rdx, %rdx
	movq	96(%rsp), %r8           # 8-byte Reload
	je	.LBB11_136
# BB#118:                               # %land.lhs.true582
	movq	32(%r12), %rax
	movzbl	(%rax), %ecx
	cmpq	$47, %rcx
	je	.LBB11_120
# BB#119:                               # %cond.false602
	movq	%r12, %rdi
	movq	%rax, %rsi
	movq	%r8, %r15
	movq	%rdx, %rbx
	movq	%r11, %r13
	movq	%r10, 136(%rsp)         # 8-byte Spill
	callq	single_set_2
	movq	136(%rsp), %r10         # 8-byte Reload
	movq	%r13, %r11
	movq	72(%rsp), %rsi          # 8-byte Reload
	movq	%rbx, %rdx
	movabsq	$4294967295, %r13       # imm = 0xFFFFFFFF
	movq	%r15, %r8
.LBB11_120:                             # %cond.end610
	movq	8(%rax), %rax
	cmpq	%rax, %rsi
	jne	.LBB11_136
# BB#121:                               # %land.lhs.true617
	movq	%r11, %rax
	movabsq	$4294967288, %rcx       # imm = 0xFFFFFFF8
	andq	%rcx, %rax
	cmpq	$8, %rax
	je	.LBB11_125
# BB#122:                               # %land.lhs.true617
	leaq	-21(%r11), %rax
	andq	%r13, %rax
	cmpq	$8, %rax
	jb	.LBB11_125
# BB#123:                               # %land.lhs.true617
	leaq	-45(%r11), %rax
	andq	%r13, %rax
	cmpq	$8, %rax
	jb	.LBB11_125
# BB#124:                               # %land.lhs.true617
	leaq	-29(%r11), %rax
	andq	%r13, %rax
	cmpq	$7, %rax
	jbe	.LBB11_125
# BB#130:                               # %cond.false653
	movq	112(%rsp), %rax         # 8-byte Reload
	cmpq	$24, %rax
	jne	.LBB11_131
# BB#133:                               # %cond.true663
	movq	%r10, 136(%rsp)         # 8-byte Spill
	movq	%r13, %rbx
	movq	%rdx, %r15
	movzbl	target_flags+3(%rip), %esi
	andq	$2, %rsi
	xorq	$6, %rsi
	jmp	.LBB11_135
.LBB11_116:
	xorq	%rax, %rax
	jmp	.LBB11_388
.LBB11_32:                              # %land.lhs.true130
	cmpq	$140, %rax
	movabsq	$0, %r9
	movq	%r8, 120(%rsp)          # 8-byte Spill
	jmp	.LBB11_33
.LBB11_125:                             # %cond.true641
	movq	%r10, 136(%rsp)         # 8-byte Spill
	movq	%r13, %rbx
	movq	%rdx, %r15
	movq	64(%rsp), %rax          # 8-byte Reload
	movl	mode_class(,%rax,4), %eax
	cmpq	$5, %rax
	movq	$2, %rsi
	je	.LBB11_135
# BB#126:                               # %lor.rhs646
	cmpq	$6, %rax
	jne	.LBB11_127
# BB#128:                               # %lor.rhs646
	movabsq	$1, %rsi
	incq	%rsi
	jmp	.LBB11_135
.LBB11_14:
	xorq	%rax, %rax
	jmp	.LBB11_388
.LBB11_131:                             # %cond.false653
	movq	%r13, %rbx
	cmpq	$18, %rax
	jne	.LBB11_134
# BB#132:                               # %cond.true656
	movq	%r10, 136(%rsp)         # 8-byte Spill
	movq	%rdx, %r15
	movl	target_flags(%rip), %esi
	movq	$25, %rcx
	shrq	%cl, %rsi
	andq	$1, %rsi
	xorq	$3, %rsi
	jmp	.LBB11_135
.LBB11_127:
	movabsq	$0, %rsi
	incq	%rsi
	jmp	.LBB11_135
.LBB11_134:                             # %cond.false667
	movq	%r10, 136(%rsp)         # 8-byte Spill
	movq	%rdx, %r15
	movl	target_flags(%rip), %esi
	movq	64(%rsp), %rax          # 8-byte Reload
	movzbl	mode_size(%rax), %eax
	movq	$23, %rcx
	shrq	%cl, %rsi
	andq	$4, %rsi
	leaq	3(%rax,%rsi), %rax
	addq	$4, %rsi
	cqto
	idivq	%rsi
	movq	%rax, %rsi
.LBB11_135:                             # %cond.end684
	addq	%r11, %rsi
	xorq	%rcx, %rcx
	movq	%r11, %rdi
	movq	%r8, %rdx
	movq	%r11, %r13
	callq	refers_to_regno_for_reload_p
	movq	%r13, %r11
	movq	%rbx, %r13
	testq	%r13, %rax
	movabsq	$0, %rax
	movq	%r15, %rdx
	movq	136(%rsp), %r10         # 8-byte Reload
	jne	.LBB11_388
.LBB11_136:                             # %if.end690
	orq	%rdx, %r14
	movq	120(%rsp), %rax         # 8-byte Reload
	movq	%rax, %rsi
	movabsq	$4294967288, %rcx       # imm = 0xFFFFFFF8
	andq	%rcx, %rsi
	leaq	-21(%rax), %rdi
	leaq	-45(%rax), %r9
	leaq	-29(%rax), %r8
	testq	%r13, %r14
	je	.LBB11_145
# BB#137:                               # %if.end690.if.end839_crit_edge
	movq	112(%rsp), %rbx         # 8-byte Reload
	jmp	.LBB11_138
.LBB11_145:                             # %land.lhs.true694
	cmpq	$8, %rsi
	movq	112(%rsp), %rbx         # 8-byte Reload
	je	.LBB11_149
# BB#146:                               # %land.lhs.true694
	movq	%rdi, %rax
	andq	%r13, %rax
	cmpq	$8, %rax
	jb	.LBB11_149
# BB#147:                               # %land.lhs.true694
	movq	%r9, %rax
	andq	%r13, %rax
	cmpq	$8, %rax
	jb	.LBB11_149
# BB#148:                               # %land.lhs.true694
	movq	%r8, %rax
	andq	%r13, %rax
	cmpq	$7, %rax
	jbe	.LBB11_149
# BB#154:                               # %cond.false730
	cmpq	$24, %rbx
	jne	.LBB11_155
# BB#157:                               # %cond.true740
	movzbl	target_flags+3(%rip), %eax
	andq	$2, %rax
	xorq	$6, %rax
	jmp	.LBB11_159
.LBB11_149:                             # %cond.true718
	movq	64(%rsp), %rax          # 8-byte Reload
	movl	mode_class(,%rax,4), %ecx
	cmpq	$5, %rcx
	movq	$2, %rax
	je	.LBB11_159
# BB#150:                               # %lor.rhs723
	cmpq	$6, %rcx
	jne	.LBB11_151
# BB#152:                               # %lor.rhs723
	movabsq	$1, %rax
	incq	%rax
	jmp	.LBB11_159
.LBB11_155:                             # %cond.false730
	cmpq	$18, %rbx
	jne	.LBB11_158
# BB#156:                               # %cond.true733
	movl	target_flags(%rip), %eax
	movq	$25, %rcx
	shrq	%cl, %rax
	andq	$1, %rax
	xorq	$3, %rax
	jmp	.LBB11_159
.LBB11_151:
	movabsq	$0, %rax
	incq	%rax
	jmp	.LBB11_159
.LBB11_158:                             # %cond.false744
	movq	%rbx, %r15
	movq	%r10, %r14
	movq	%r13, %r10
	movl	target_flags(%rip), %ebx
	movq	64(%rsp), %rax          # 8-byte Reload
	movzbl	mode_size(%rax), %eax
	movq	$23, %rcx
	shrq	%cl, %rbx
	andq	$4, %rbx
	leaq	3(%rax,%rbx), %rax
	addq	$4, %rbx
	cqto
	idivq	%rbx
                                        # kill: R13<def> R10<kill>
	movq	%r14, %r10
	movq	%r15, %rbx
.LBB11_159:                             # %cond.end761
	movq	120(%rsp), %rcx         # 8-byte Reload
	addq	%rcx, %rax
	movq	$32, %rcx
	shlq	%cl, %rax
	movq	$32, %rcx
	sarq	%cl, %rax
	movq	$32, %rcx
	movq	%r11, %rdx
	shlq	%cl, %rdx
	movq	$32, %rcx
	sarq	%cl, %rdx
	cmpq	%rdx, %rax
	jle	.LBB11_138
# BB#160:                               # %land.lhs.true766
	movq	%r11, %rax
	movabsq	$4294967288, %rcx       # imm = 0xFFFFFFF8
	andq	%rcx, %rax
	cmpq	$8, %rax
	je	.LBB11_164
# BB#161:                               # %land.lhs.true766
	leaq	-21(%r11), %rax
	andq	%r13, %rax
	cmpq	$8, %rax
	jb	.LBB11_164
# BB#162:                               # %land.lhs.true766
	leaq	-45(%r11), %rax
	andq	%r13, %rax
	cmpq	$8, %rax
	jb	.LBB11_164
# BB#163:                               # %land.lhs.true766
	leaq	-29(%r11), %rax
	andq	%r13, %rax
	cmpq	$7, %rax
	jbe	.LBB11_164
# BB#169:                               # %cond.false802
	cmpq	$24, %rbx
	jne	.LBB11_170
# BB#172:                               # %cond.true812
	movzbl	target_flags+3(%rip), %eax
	andq	$2, %rax
	xorq	$6, %rax
	jmp	.LBB11_174
.LBB11_164:                             # %cond.true790
	movq	64(%rsp), %rax          # 8-byte Reload
	movl	mode_class(,%rax,4), %ecx
	cmpq	$5, %rcx
	movq	$2, %rax
	je	.LBB11_174
# BB#165:                               # %lor.rhs795
	cmpq	$6, %rcx
	jne	.LBB11_166
# BB#167:                               # %lor.rhs795
	movabsq	$1, %rax
	incq	%rax
	jmp	.LBB11_174
.LBB11_170:                             # %cond.false802
	cmpq	$18, %rbx
	jne	.LBB11_173
# BB#171:                               # %cond.true805
	movl	target_flags(%rip), %eax
	movq	$25, %rcx
	shrq	%cl, %rax
	andq	$1, %rax
	xorq	$3, %rax
	jmp	.LBB11_174
.LBB11_166:
	movabsq	$0, %rax
	incq	%rax
	jmp	.LBB11_174
.LBB11_173:                             # %cond.false816
	movq	%rbx, %r15
	movq	%r10, %r14
	movq	%r13, %r10
	movl	target_flags(%rip), %ebx
	movq	64(%rsp), %rax          # 8-byte Reload
	movzbl	mode_size(%rax), %eax
	movq	$23, %rcx
	shrq	%cl, %rbx
	andq	$4, %rbx
	leaq	3(%rax,%rbx), %rax
	addq	$4, %rbx
	cqto
	idivq	%rbx
                                        # kill: R13<def> R10<kill>
	movq	%r14, %r10
	movq	%r15, %rbx
.LBB11_174:                             # %cond.end833
	addq	%r11, %rax
	movq	$32, %rcx
	shlq	%cl, %rax
	movq	$32, %rcx
	sarq	%cl, %rax
	movq	$32, %rcx
	movq	120(%rsp), %rdx         # 8-byte Reload
	shlq	%cl, %rdx
	movq	$32, %rcx
	sarq	%cl, %rdx
	cmpq	%rax, %rdx
	jge	.LBB11_138
# BB#175:
	xorq	%rax, %rax
	jmp	.LBB11_388
.LBB11_138:                             # %if.end839
	cmpq	$8, %rsi
	je	.LBB11_142
# BB#139:                               # %if.end839
	andq	%r13, %rdi
	cmpq	$8, %rdi
	jb	.LBB11_142
# BB#140:                               # %if.end839
	andq	%r13, %r9
	cmpq	$8, %r9
	jb	.LBB11_142
# BB#141:                               # %if.end839
	andq	%r13, %r8
	cmpq	$7, %r8
	jbe	.LBB11_142
# BB#178:                               # %cond.false875
	cmpq	$24, %rbx
	jne	.LBB11_179
# BB#181:                               # %cond.true885
	movzbl	target_flags+3(%rip), %eax
	andq	$2, %rax
	xorq	$6, %rax
	jmp	.LBB11_183
.LBB11_142:                             # %cond.true863
	movq	64(%rsp), %rax          # 8-byte Reload
	movl	mode_class(,%rax,4), %ecx
	cmpq	$5, %rcx
	movq	$2, %rax
	je	.LBB11_183
# BB#143:                               # %lor.rhs868
	cmpq	$6, %rcx
	jne	.LBB11_144
# BB#176:                               # %lor.rhs868
	movabsq	$1, %rax
	incq	%rax
	jmp	.LBB11_183
.LBB11_179:                             # %cond.false875
	cmpq	$18, %rbx
	jne	.LBB11_182
# BB#180:                               # %cond.true878
	movl	target_flags(%rip), %eax
	movq	$25, %rcx
	shrq	%cl, %rax
	andq	$1, %rax
	xorq	$3, %rax
	jmp	.LBB11_183
.LBB11_182:                             # %cond.false889
	movl	target_flags(%rip), %esi
	movq	64(%rsp), %rax          # 8-byte Reload
	movzbl	mode_size(%rax), %eax
	movq	$23, %rcx
	shrq	%cl, %rsi
	andq	$4, %rsi
	leaq	3(%rax,%rsi), %rax
	addq	$4, %rsi
	cqto
	idivq	%rsi
	jmp	.LBB11_183
.LBB11_144:
	movabsq	$0, %rax
	incq	%rax
.LBB11_183:                             # %cond.end906
	movq	%r11, %rdx
	movabsq	$4294967288, %rcx       # imm = 0xFFFFFFF8
	andq	%rcx, %rdx
	cmpq	$8, %rdx
	je	.LBB11_187
# BB#184:                               # %cond.end906
	leaq	-21(%r11), %rcx
	andq	%r13, %rcx
	cmpq	$8, %rcx
	jb	.LBB11_187
# BB#185:                               # %cond.end906
	leaq	-45(%r11), %rcx
	andq	%r13, %rcx
	cmpq	$8, %rcx
	jb	.LBB11_187
# BB#186:                               # %cond.end906
	leaq	-29(%r11), %rcx
	andq	%r13, %rcx
	cmpq	$7, %rcx
	jbe	.LBB11_187
# BB#192:                               # %cond.false943
	movq	%rax, 48(%rsp)          # 8-byte Spill
	cmpq	$24, %rbx
	jne	.LBB11_193
# BB#195:                               # %cond.true953
	movq	%r11, 56(%rsp)          # 8-byte Spill
	movzbl	target_flags+3(%rip), %eax
	andq	$2, %rax
	xorq	$6, %rax
	jmp	.LBB11_197
.LBB11_187:                             # %cond.true931
	movq	%rax, 48(%rsp)          # 8-byte Spill
	movq	%r11, 56(%rsp)          # 8-byte Spill
	movq	64(%rsp), %rax          # 8-byte Reload
	movl	mode_class(,%rax,4), %ecx
	cmpq	$5, %rcx
	movq	$2, %rax
	je	.LBB11_197
# BB#188:                               # %lor.rhs936
	cmpq	$6, %rcx
	jne	.LBB11_189
# BB#190:                               # %lor.rhs936
	movabsq	$1, %rax
	incq	%rax
	jmp	.LBB11_197
.LBB11_193:                             # %cond.false943
	movq	%r11, 56(%rsp)          # 8-byte Spill
	cmpq	$18, %rbx
	jne	.LBB11_196
# BB#194:                               # %cond.true946
	movl	target_flags(%rip), %eax
	movq	$25, %rcx
	shrq	%cl, %rax
	andq	$1, %rax
	xorq	$3, %rax
	jmp	.LBB11_197
.LBB11_189:
	movabsq	$0, %rax
	incq	%rax
	jmp	.LBB11_197
.LBB11_196:                             # %cond.false957
	movl	target_flags(%rip), %esi
	movq	64(%rsp), %rax          # 8-byte Reload
	movzbl	mode_size(%rax), %eax
	movq	$23, %rcx
	shrq	%cl, %rsi
	andq	$4, %rsi
	leaq	3(%rax,%rsi), %rax
	addq	$4, %rsi
	cqto
	idivq	%rsi
.LBB11_197:                             # %cond.end974
	movq	%rax, %r15
	movq	%r13, %r8
	testq	%r10, %r10
	je	.LBB11_224
# BB#198:                               # %cond.end974
	cmpq	$1, %r10
	je	.LBB11_205
# BB#199:                               # %for.cond983.preheader
	movq	$32, %rcx
	movq	%r15, %rbx
	movq	%rbx, %rax
	shlq	%cl, %rax
	movq	$32, %rcx
	sarq	%cl, %rax
	testq	%rax, %rax
	jle	.LBB11_204
# BB#200:                               # %for.body986.lr.ph
	movq	$32, %rcx
	movq	56(%rsp), %rax          # 8-byte Reload
	shlq	%cl, %rax
	movq	$32, %rcx
	sarq	%cl, %rax
	leaq	(%r10,%rax,2), %rax
	movq	$1, %rdx
.LBB11_202:                             # %for.body986
                                        # =>This Inner Loop Header: Depth=1
	movswq	-2(%rax,%rdx,2), %rcx
	testq	%rcx, %rcx
	jns	.LBB11_203
# BB#201:                               # %for.cond983
                                        #   in Loop: Header=BB11_202 Depth=1
	movq	$32, %rcx
	movq	%rdx, %rsi
	shlq	%cl, %rsi
	movq	$32, %rcx
	sarq	%cl, %rsi
	movq	$32, %rcx
	movq	%rbx, %rdi
	shlq	%cl, %rdi
	movq	$32, %rcx
	sarq	%cl, %rdi
	incq	%rdx
	cmpq	%rdi, %rsi
	jl	.LBB11_202
.LBB11_204:                             # %if.end997
	movq	%rbx, %r15
	testq	%r10, %r10
	je	.LBB11_224
.LBB11_205:                             # %for.cond1002.preheader
	movslq	n_reloads(%rip), %r14
	testq	%r14, %r14
	jle	.LBB11_224
# BB#206:                               # %for.body1005.lr.ph
	movq	56(%rsp), %rax          # 8-byte Reload
	leaq	(%r15,%rax), %rax
	movq	%rax, 136(%rsp)         # 8-byte Spill
	movl	target_flags(%rip), %r10d
	movq	$23, %rcx
	movq	%r10, %r9
	shrq	%cl, %r9
	andq	$4, %r9
	addq	$4, %r9
	movq	$25, %rcx
	movq	%r10, %r11
	shrq	%cl, %r11
	andq	$1, %r11
	xorq	$3, %r11
	movq	$24, %rcx
	shrq	%cl, %r10
	andq	$2, %r10
	xorq	$6, %r10
	movq	$1, %rdi
	movabsq	$rld+64, %rsi
.LBB11_207:                             # %for.body1005
                                        # =>This Inner Loop Header: Depth=1
	movq	(%rsi), %rax
	testq	%rax, %rax
	je	.LBB11_223
# BB#208:                               # %land.lhs.true1010
                                        #   in Loop: Header=BB11_207 Depth=1
	cmpq	$0, -64(%rsi)
	je	.LBB11_223
# BB#209:                               # %if.then1014
                                        #   in Loop: Header=BB11_207 Depth=1
	movl	8(%rax), %ebx
	movzbl	2(%rax), %ecx
	movq	%rbx, %rax
	movabsq	$4294967288, %rdx       # imm = 0xFFFFFFF8
	andq	%rdx, %rax
	cmpq	$8, %rax
	je	.LBB11_213
# BB#210:                               # %if.then1014
                                        #   in Loop: Header=BB11_207 Depth=1
	leaq	-21(%rbx), %rax
	andq	%r8, %rax
	cmpq	$8, %rax
	jb	.LBB11_213
# BB#211:                               # %if.then1014
                                        #   in Loop: Header=BB11_207 Depth=1
	leaq	-45(%rbx), %rax
	andq	%r8, %rax
	cmpq	$8, %rax
	jb	.LBB11_213
# BB#212:                               # %if.then1014
                                        #   in Loop: Header=BB11_207 Depth=1
	leaq	-29(%rbx), %rax
	andq	%r8, %rax
	cmpq	$7, %rax
	jbe	.LBB11_213
# BB#217:                               # %cond.false1068
                                        #   in Loop: Header=BB11_207 Depth=1
	cmpq	$18, %rcx
	movq	%r11, %rax
	je	.LBB11_220
# BB#218:                               # %cond.false1068
                                        #   in Loop: Header=BB11_207 Depth=1
	cmpq	$24, %rcx
	movq	%r10, %rax
	je	.LBB11_220
# BB#219:                               # %cond.false1094
                                        #   in Loop: Header=BB11_207 Depth=1
	movzbl	mode_size(%rcx), %eax
	leaq	-1(%rax,%r9), %rax
	cqto
	idivq	%r9
	jmp	.LBB11_220
.LBB11_213:                             # %cond.true1044
                                        #   in Loop: Header=BB11_207 Depth=1
	movl	mode_class(,%rcx,4), %ecx
	cmpq	$5, %rcx
	movq	$2, %rax
	je	.LBB11_220
# BB#214:                               # %lor.rhs1055
                                        #   in Loop: Header=BB11_207 Depth=1
	cmpq	$6, %rcx
	movabsq	$0, %rax
	jne	.LBB11_216
# BB#215:                               # %lor.rhs1055
                                        #   in Loop: Header=BB11_207 Depth=1
	movabsq	$1, %rax
.LBB11_216:                             # %lor.rhs1055
                                        #   in Loop: Header=BB11_207 Depth=1
	incq	%rax
.LBB11_220:                             # %cond.end1117
                                        #   in Loop: Header=BB11_207 Depth=1
	movq	$32, %rcx
	movq	136(%rsp), %rdx         # 8-byte Reload
	shlq	%cl, %rdx
	movq	$32, %rcx
	sarq	%cl, %rdx
	movq	$32, %rcx
	movq	%rbx, %r13
	shlq	%cl, %r13
	movq	$32, %rcx
	sarq	%cl, %r13
	cmpq	%rdx, %r13
	jge	.LBB11_223
# BB#221:                               # %cond.end1117
                                        #   in Loop: Header=BB11_207 Depth=1
	addq	%rbx, %rax
	movq	$32, %rcx
	movq	56(%rsp), %rdx          # 8-byte Reload
	shlq	%cl, %rdx
	movq	$32, %rcx
	sarq	%cl, %rdx
	movq	$32, %rcx
	shlq	%cl, %rax
	movq	$32, %rcx
	sarq	%cl, %rax
	cmpq	%rdx, %rax
	jg	.LBB11_222
.LBB11_223:                             # %for.inc1129
                                        #   in Loop: Header=BB11_207 Depth=1
	movq	$32, %rcx
	movq	%rdi, %rax
	shlq	%cl, %rax
	movq	$32, %rcx
	sarq	%cl, %rax
	incq	%rdi
	addq	$104, %rsi
	cmpq	%r14, %rax
	jl	.LBB11_207
.LBB11_224:                             # %if.end1132
	xorq	%rdx, %rdx
	movq	80(%rsp), %r9           # 8-byte Reload
	testq	%r9, %r9
	movq	96(%rsp), %rax          # 8-byte Reload
	je	.LBB11_227
# BB#225:                               # %if.then1134
	movq	8(%rax), %rax
	movzbl	(%rax), %ecx
	addq	$-54, %rcx
	movq	%rcx, %rax
	andq	%r8, %rax
	cmpq	$14, %rax
	movq	$1, %rdx
	ja	.LBB11_227
# BB#226:                               # %switch.lookup
	andq	$32767, %rcx            # imm = 0x7FFF
	movq	$8172, %rdx             # imm = 0x1FEC
	shrq	%cl, %rdx
	andq	$1, %rdx
.LBB11_227:                             # %if.end1175
	movq	128(%rsp), %rax         # 8-byte Reload
	movq	16(%rax), %r14
	cmpq	%r12, %r14
	movq	56(%rsp), %rsi          # 8-byte Reload
	movq	48(%rsp), %r10          # 8-byte Reload
	movq	%r15, %r11
	movq	%r11, 32(%rsp)          # 8-byte Spill
	je	.LBB11_228
# BB#229:                               # %if.end1183.lr.ph
	movq	%rdx, 8(%rsp)           # 8-byte Spill
	movq	88(%rsp), %rax          # 8-byte Reload
	orq	%r9, %rax
	movq	%rax, 112(%rsp)         # 8-byte Spill
	movq	120(%rsp), %rdx         # 8-byte Reload
	leaq	(%r10,%rdx), %rcx
	movq	%rcx, 24(%rsp)          # 8-byte Spill
	leaq	(%r11,%rsi), %rcx
	movq	%rcx, 16(%rsp)          # 8-byte Spill
	movq	$32, %rcx
	movq	%rdx, %rbx
	shlq	%cl, %rbx
	movq	$32, %rcx
	sarq	%cl, %rbx
	movq	%rbx, 136(%rsp)         # 8-byte Spill
	movq	$32, %rcx
	movq	%rsi, %rax
	shlq	%cl, %rax
	movq	$32, %rcx
	sarq	%cl, %rax
	movq	%rax, 128(%rsp)         # 8-byte Spill
	andq	%r8, %rdx
	movq	%rdx, 64(%rsp)          # 8-byte Spill
	movq	%r8, %r13
.LBB11_230:                             # %if.end1183
                                        # =>This Loop Header: Depth=1
                                        #     Child Loop BB11_241 Depth 2
                                        #     Child Loop BB11_244 Depth 2
                                        #     Child Loop BB11_251 Depth 2
                                        #     Child Loop BB11_298 Depth 2
                                        #       Child Loop BB11_304 Depth 3
                                        #     Child Loop BB11_355 Depth 2
	movzbl	(%r14), %r8d
	cmpq	$34, %r8
	jne	.LBB11_237
# BB#231:                               # %if.then1188
                                        #   in Loop: Header=BB11_230 Depth=1
	cmpq	$0, 112(%rsp)           # 8-byte Folded Reload
	jne	.LBB11_232
# BB#233:                               # %if.end1194
                                        #   in Loop: Header=BB11_230 Depth=1
	cmpq	$52, 64(%rsp)           # 8-byte Folded Reload
	ja	.LBB11_235
# BB#234:                               # %if.end1194
                                        #   in Loop: Header=BB11_230 Depth=1
	movq	$1, %rdx
	movq	$32, %rcx
	movq	%r10, %rsi
	shlq	%cl, %rsi
	movq	$32, %rcx
	sarq	%cl, %rsi
	testq	%rsi, %rsi
	jle	.LBB11_235
.LBB11_241:                             # %for.body1204
                                        #   Parent Loop BB11_230 Depth=1
                                        # =>  This Inner Loop Header: Depth=2
	movzbl	call_used_regs-1(%rbx,%rdx), %ecx
	testq	%rcx, %rcx
	jne	.LBB11_242
# BB#240:                               # %for.cond1201
                                        #   in Loop: Header=BB11_241 Depth=2
	movq	$32, %rcx
	movq	%rdx, %rsi
	shlq	%cl, %rsi
	movq	$32, %rcx
	sarq	%cl, %rsi
	movq	$32, %rcx
	movq	%r10, %rdi
	shlq	%cl, %rdi
	movq	$32, %rcx
	sarq	%cl, %rdi
	incq	%rdx
	cmpq	%rdi, %rsi
	jl	.LBB11_241
.LBB11_235:                             # %if.end1214
                                        #   in Loop: Header=BB11_230 Depth=1
	cmpq	$52, 104(%rsp)          # 8-byte Folded Reload
	ja	.LBB11_237
# BB#236:                               # %if.end1214
                                        #   in Loop: Header=BB11_230 Depth=1
	movq	$1, %rdx
	movq	$32, %rcx
	movq	%r11, %rsi
	shlq	%cl, %rsi
	movq	$32, %rcx
	sarq	%cl, %rsi
	testq	%rsi, %rsi
	jle	.LBB11_237
.LBB11_244:                             # %for.body1224
                                        #   Parent Loop BB11_230 Depth=1
                                        # =>  This Inner Loop Header: Depth=2
	movzbl	call_used_regs-1(%rax,%rdx), %ecx
	testq	%rcx, %rcx
	jne	.LBB11_245
# BB#243:                               # %for.cond1221
                                        #   in Loop: Header=BB11_244 Depth=2
	movq	$32, %rcx
	movq	%rdx, %rsi
	shlq	%cl, %rsi
	movq	$32, %rcx
	sarq	%cl, %rsi
	movq	$32, %rcx
	movq	%r11, %rdi
	shlq	%cl, %rdi
	movq	$32, %rcx
	sarq	%cl, %rdi
	incq	%rdx
	cmpq	%rdi, %rsi
	jl	.LBB11_244
.LBB11_237:                             # %if.end1235
                                        #   in Loop: Header=BB11_230 Depth=1
	movzbl	rtx_class(%r8), %eax
	cmpq	$105, %rax
	jne	.LBB11_350
# BB#238:                               # %if.then1243
                                        #   in Loop: Header=BB11_230 Depth=1
	movq	%r9, %rbx
	movq	%r14, 40(%rsp)          # 8-byte Spill
	movq	32(%r14), %r14
	movq	%r14, %rdi
	callq	volatile_insn_p
	testq	%r13, %rax
	jne	.LBB11_239
# BB#246:                               # %if.end1250
                                        #   in Loop: Header=BB11_230 Depth=1
	movl	(%r14), %eax
	movq	%rax, %rcx
	andq	$65535, %rcx            # imm = 0xFFFF
	cmpq	$38, %rcx
	movq	%rbx, %r9
	jne	.LBB11_248
# BB#247:                               # %if.then1255
                                        #   in Loop: Header=BB11_230 Depth=1
	movq	16(%r14), %r14
	movl	(%r14), %eax
.LBB11_248:                             # %if.end1259
                                        #   in Loop: Header=BB11_230 Depth=1
	movq	%r13, %rbx
	andq	$65535, %rax            # imm = 0xFFFF
	cmpq	$39, %rax
	je	.LBB11_297
# BB#249:                               # %if.end1259
                                        #   in Loop: Header=BB11_230 Depth=1
	cmpq	$47, %rax
	je	.LBB11_251
# BB#250:                               # %if.end1259
                                        #   in Loop: Header=BB11_230 Depth=1
	cmpq	$49, %rax
	jne	.LBB11_349
.LBB11_251:                             # %while.cond1273
                                        #   Parent Loop BB11_230 Depth=1
                                        # =>  This Inner Loop Header: Depth=2
	movq	8(%r14), %r14
	movl	(%r14), %esi
	movq	%rsi, %rax
	andq	$65535, %rax            # imm = 0xFFFF
	leaq	-63(%rax), %rcx
	andq	%rbx, %rcx
	cmpq	$2, %rcx
	jb	.LBB11_251
# BB#252:                               # %while.cond1273
                                        #   in Loop: Header=BB11_251 Depth=2
	leaq	-132(%rax), %rcx
	andq	%rbx, %rcx
	cmpq	$2, %rcx
	jb	.LBB11_251
# BB#253:                               # %while.cond1273
                                        #   in Loop: Header=BB11_230 Depth=1
	cmpq	$61, %rax
	jne	.LBB11_284
# BB#254:                               # %if.then1303
                                        #   in Loop: Header=BB11_230 Depth=1
	movl	8(%r14), %r15d
	cmpq	$52, %r15
	movq	$1, %rax
	ja	.LBB11_268
# BB#255:                               # %if.then1312
                                        #   in Loop: Header=BB11_230 Depth=1
	movq	%r15, %rax
	movabsq	$4294967288, %rcx       # imm = 0xFFFFFFF8
	andq	%rcx, %rax
	movq	$16, %rcx
	shrq	%cl, %rsi
	andq	$255, %rsi
	cmpq	$8, %rax
	je	.LBB11_259
# BB#256:                               # %if.then1312
                                        #   in Loop: Header=BB11_230 Depth=1
	leaq	-21(%r15), %rax
	andq	%rbx, %rax
	cmpq	$8, %rax
	jb	.LBB11_259
# BB#257:                               # %if.then1312
                                        #   in Loop: Header=BB11_230 Depth=1
	leaq	-45(%r15), %rax
	andq	%rbx, %rax
	cmpq	$8, %rax
	jb	.LBB11_259
# BB#258:                               # %if.then1312
                                        #   in Loop: Header=BB11_230 Depth=1
	leaq	-29(%r15), %rax
	andq	%rbx, %rax
	cmpq	$7, %rax
	jbe	.LBB11_259
# BB#263:                               # %cond.false1354
                                        #   in Loop: Header=BB11_230 Depth=1
	cmpq	$24, %rsi
	jne	.LBB11_264
# BB#266:                               # %cond.true1370
                                        #   in Loop: Header=BB11_230 Depth=1
	movzbl	target_flags+3(%rip), %eax
	andq	$2, %rax
	xorq	$6, %rax
	jmp	.LBB11_268
.LBB11_297:                             # %if.then1474
                                        #   in Loop: Header=BB11_230 Depth=1
	movq	8(%r14), %rax
	movslq	(%rax), %r10
	testq	%r10, %r10
	jle	.LBB11_349
	jmp	.LBB11_298
.LBB11_303:                             # %for.cond1479.backedge.for.body1482_crit_edge
                                        #   in Loop: Header=BB11_298 Depth=2
	movq	8(%r14), %rax
.LBB11_298:                             # %for.body1482
                                        #   Parent Loop BB11_230 Depth=1
                                        # =>  This Loop Header: Depth=2
                                        #       Child Loop BB11_304 Depth 3
	movq	(%rax,%r10,8), %r15
	movl	(%r15), %eax
	movq	%rax, %rcx
	andq	$65535, %rcx            # imm = 0xFFFF
	cmpq	$38, %rcx
	jne	.LBB11_300
# BB#299:                               # %if.then1492
                                        #   in Loop: Header=BB11_298 Depth=2
	movq	16(%r15), %r15
	movl	(%r15), %eax
.LBB11_300:                             # %if.end1496
                                        #   in Loop: Header=BB11_298 Depth=2
	decq	%r10
	andq	$65535, %rax            # imm = 0xFFFF
	cmpq	$47, %rax
	je	.LBB11_304
# BB#301:                               # %if.end1496
                                        #   in Loop: Header=BB11_298 Depth=2
	cmpq	$49, %rax
	jne	.LBB11_302
	.align	16, 0x90
.LBB11_304:                             # %while.cond1511
                                        #   Parent Loop BB11_230 Depth=1
                                        #     Parent Loop BB11_298 Depth=2
                                        # =>    This Inner Loop Header: Depth=3
	movq	8(%r15), %r15
	movl	(%r15), %esi
	movq	%rsi, %rax
	andq	$65535, %rax            # imm = 0xFFFF
	leaq	-63(%rax), %rcx
	andq	%rbx, %rcx
	cmpq	$2, %rcx
	jb	.LBB11_304
# BB#305:                               # %while.cond1511
                                        #   in Loop: Header=BB11_304 Depth=3
	leaq	-132(%rax), %rcx
	andq	%rbx, %rcx
	cmpq	$2, %rcx
	jb	.LBB11_304
# BB#306:                               # %while.cond1511
                                        #   in Loop: Header=BB11_298 Depth=2
	cmpq	$61, %rax
	jne	.LBB11_337
# BB#307:                               # %if.then1541
                                        #   in Loop: Header=BB11_298 Depth=2
	movl	8(%r15), %edi
	cmpq	$52, %rdi
	movq	$1, %rax
	movq	96(%rsp), %r8           # 8-byte Reload
	ja	.LBB11_321
# BB#308:                               # %if.then1552
                                        #   in Loop: Header=BB11_298 Depth=2
	movq	%rdi, %rax
	movabsq	$4294967288, %rcx       # imm = 0xFFFFFFF8
	andq	%rcx, %rax
	movq	$16, %rcx
	shrq	%cl, %rsi
	andq	$255, %rsi
	cmpq	$8, %rax
	je	.LBB11_312
# BB#309:                               # %if.then1552
                                        #   in Loop: Header=BB11_298 Depth=2
	leaq	-21(%rdi), %rax
	andq	%rbx, %rax
	cmpq	$8, %rax
	jb	.LBB11_312
# BB#310:                               # %if.then1552
                                        #   in Loop: Header=BB11_298 Depth=2
	leaq	-45(%rdi), %rax
	andq	%rbx, %rax
	cmpq	$8, %rax
	jb	.LBB11_312
# BB#311:                               # %if.then1552
                                        #   in Loop: Header=BB11_298 Depth=2
	leaq	-29(%rdi), %rax
	andq	%rbx, %rax
	cmpq	$7, %rax
	jbe	.LBB11_312
# BB#316:                               # %cond.false1594
                                        #   in Loop: Header=BB11_298 Depth=2
	cmpq	$24, %rsi
	jne	.LBB11_317
# BB#319:                               # %cond.true1610
                                        #   in Loop: Header=BB11_298 Depth=2
	movzbl	target_flags+3(%rip), %eax
	andq	$2, %rax
	xorq	$6, %rax
	jmp	.LBB11_321
.LBB11_337:                             # %if.else1668
                                        #   in Loop: Header=BB11_298 Depth=2
	testq	%r9, %r9
	je	.LBB11_342
# BB#338:                               # %if.else1668
                                        #   in Loop: Header=BB11_298 Depth=2
	cmpq	$66, %rax
	jne	.LBB11_342
# BB#339:                               # %land.lhs.true1675
                                        #   in Loop: Header=BB11_298 Depth=2
	movq	%r10, (%rsp)            # 8-byte Spill
	movq	%r9, %r13
	movq	$16, %rcx
	shrq	%cl, %rsi
	andq	$255, %rsi
	movq	%r15, %rdi
	callq	push_operand
	testq	%rbx, %rax
	je	.LBB11_340
# BB#341:                               # %land.lhs.true1675.if.else1682_crit_edge
                                        #   in Loop: Header=BB11_298 Depth=2
	movl	(%r15), %esi
	movq	%r13, %r9
	movq	(%rsp), %r10            # 8-byte Reload
.LBB11_342:                             # %if.else1682
                                        #   in Loop: Header=BB11_298 Depth=2
	movq	%rsi, %rax
	andq	$65535, %rax            # imm = 0xFFFF
	cmpq	$66, %rax
	jne	.LBB11_346
# BB#343:                               # %if.else1682
                                        #   in Loop: Header=BB11_298 Depth=2
	movq	$32, %rcx
	movq	120(%rsp), %rax         # 8-byte Reload
	shlq	%cl, %rax
	movq	$32, %rcx
	sarq	%cl, %rax
	cmpq	$53, %rax
	jl	.LBB11_346
# BB#344:                               # %land.lhs.true1690
                                        #   in Loop: Header=BB11_298 Depth=2
	movq	reg_equiv_memory_loc(%rip), %rax
	movq	136(%rsp), %rcx         # 8-byte Reload
	cmpq	$0, (%rax,%rcx,8)
	jne	.LBB11_345
.LBB11_346:                             # %if.else1696
                                        #   in Loop: Header=BB11_298 Depth=2
	cmpq	$0, 88(%rsp)            # 8-byte Folded Reload
	je	.LBB11_302
# BB#347:                               # %land.lhs.true1698
                                        #   in Loop: Header=BB11_298 Depth=2
	movq	$16, %rcx
	shrq	%cl, %rsi
	andq	$255, %rsi
	movq	%r15, %rdi
	movq	%rbx, %r15
	movq	%r9, %r13
	movq	%r10, %rbx
	callq	push_operand
	movq	%rbx, %r10
	movq	%r13, %r9
	movq	%r15, %rbx
	testq	%rbx, %rax
	je	.LBB11_302
	jmp	.LBB11_348
.LBB11_312:                             # %cond.true1576
                                        #   in Loop: Header=BB11_298 Depth=2
	movl	mode_class(,%rsi,4), %ecx
	cmpq	$5, %rcx
	movq	$2, %rax
	je	.LBB11_321
# BB#313:                               # %lor.rhs1584
                                        #   in Loop: Header=BB11_298 Depth=2
	cmpq	$6, %rcx
	movabsq	$0, %rax
	jne	.LBB11_315
# BB#314:                               # %lor.rhs1584
                                        #   in Loop: Header=BB11_298 Depth=2
	movabsq	$1, %rax
.LBB11_315:                             # %lor.rhs1584
                                        #   in Loop: Header=BB11_298 Depth=2
	incq	%rax
	jmp	.LBB11_321
.LBB11_317:                             # %cond.false1594
