	.file	"reload1.c.bc"
	.text
	.globl	init_reload
	.align	16, 0x90
	.type	init_reload,@function
init_reload:                            # @init_reload
	.cfi_startproc
# BB#0:                                 # %entry
	pushq	%r15
.Ltmp5:
	.cfi_def_cfa_offset 16
	pushq	%r14
.Ltmp6:
	.cfi_def_cfa_offset 24
	pushq	%r12
.Ltmp7:
	.cfi_def_cfa_offset 32
	pushq	%rbx
.Ltmp8:
	.cfi_def_cfa_offset 40
	pushq	%rax
.Ltmp9:
	.cfi_def_cfa_offset 48
.Ltmp10:
	.cfi_offset %rbx, -40
.Ltmp11:
	.cfi_offset %r12, -32
.Ltmp12:
	.cfi_offset %r14, -24
.Ltmp13:
	.cfi_offset %r15, -16
	movl	target_flags(%rip), %ebx
	movq	$25, %rcx
	shrq	%cl, %rbx
	andq	$1, %rbx
	orq	$4, %rbx
	movq	$58, %rsi
	movq	%rbx, %rdi
	callq	gen_rtx_REG
	movq	%rax, %r15
	xorq	%rdi, %rdi
	movq	$4, %rsi
	xorq	%r14, %r14
	callq	gen_rtx_CONST_INT
	movq	$75, %rdi
	movq	%rbx, %rsi
	movq	%r15, %rdx
	movq	%rax, %rcx
	callq	gen_rtx_fmt_ee
	movq	%rbx, %rdi
	movq	%rax, %rsi
	callq	gen_rtx_MEM
	movq	%rax, %rbx
	movb	%r14b, spill_indirect_levels(%rip)
	movq	$2, %rdi
	movq	%rbx, %rsi
	callq	memory_address_p
	movabsq	$4294967295, %r12       # imm = 0xFFFFFFFF
	jmp	.LBB0_2
	.align	16, 0x90
.LBB0_1:                                # %while.body
                                        #   in Loop: Header=BB0_2 Depth=1
	movzbl	spill_indirect_levels(%rip), %eax
	movl	target_flags(%rip), %edi
	incq	%rax
	movb	%al, spill_indirect_levels(%rip)
	movq	$25, %rcx
	shrq	%cl, %rdi
	andq	$1, %rdi
	orq	$4, %rdi
	movq	%rbx, %rsi
	callq	gen_rtx_MEM
	movq	%rax, %rbx
	movq	$2, %rdi
	movq	%rbx, %rsi
	callq	memory_address_p
.LBB0_2:                                # %while.body
                                        # =>This Inner Loop Header: Depth=1
	testq	%r12, %rax
	jne	.LBB0_1
# BB#3:                                 # %while.end
	movl	target_flags(%rip), %ebx
	movq	$25, %rcx
	shrq	%cl, %rbx
	andq	$1, %rbx
	orq	$4, %rbx
	movabsq	$.L.str, %rdx
	movq	$68, %rdi
	movq	%rbx, %rsi
	callq	gen_rtx_fmt_s
	movq	%rbx, %rdi
	movq	%rax, %rsi
	callq	gen_rtx_MEM
	movq	$2, %rdi
	movq	%rax, %rsi
	callq	memory_address_p
	movb	%al, indirect_symref_ok(%rip)
	.align	16, 0x90
.LBB0_5:                                # %for.body
                                        # =>This Inner Loop Header: Depth=1
	movl	target_flags(%rip), %ebx
	movq	$25, %rcx
	shrq	%cl, %rbx
	andq	$1, %rbx
	orq	$4, %rbx
	movq	$6, %rsi
	movq	%rbx, %rdi
	callq	gen_rtx_REG
	movl	target_flags(%rip), %edi
	movq	%rax, %r15
	movq	$25, %rcx
	shrq	%cl, %rdi
	andq	$1, %rdi
	orq	$4, %rdi
	movq	%r14, %rsi
	callq	gen_rtx_REG
	movq	$75, %rdi
	movq	%rbx, %rsi
	movq	%r15, %rdx
	movq	%rax, %rcx
	callq	gen_rtx_fmt_ee
	movq	$4, %rsi
	movq	%rax, %rdi
	callq	plus_constant_wide
	movq	$2, %rdi
	movq	%rax, %rsi
	callq	memory_address_p
	testq	%r12, %rax
	jne	.LBB0_6
# BB#4:                                 # %for.cond
                                        #   in Loop: Header=BB0_5 Depth=1
	incq	%r14
	movq	$32, %rcx
	movq	%r14, %rax
	shlq	%cl, %rax
	movq	$32, %rcx
	sarq	%cl, %rax
	cmpq	$52, %rax
	jle	.LBB0_5
	jmp	.LBB0_7
.LBB0_6:                                # %if.then
	movq	$1, %rax
	movb	%al, double_reg_address_ok(%rip)
.LBB0_7:                                # %for.end
	movabsq	$reload_obstack, %rdi
	callq	gcc_obstack_init
	movq	reload_obstack+32(%rip), %rax
	movq	reload_obstack+24(%rip), %rcx
	cmpq	%rcx, %rax
	jns	.LBB0_9
# BB#8:                                 # %if.then45
	movabsq	$reload_obstack, %rdi
	xorq	%rsi, %rsi
	callq	_obstack_newchunk
	movq	reload_obstack+24(%rip), %rcx
.LBB0_9:                                # %if.end46
	movq	reload_obstack+16(%rip), %rax
	cmpq	%rax, %rcx
	jne	.LBB0_11
# BB#10:                                # %if.then53
	movzbl	reload_obstack+80(%rip), %edx
	orq	$2, %rdx
	movb	%dl, reload_obstack+80(%rip)
.LBB0_11:                               # %if.end54
	movslq	reload_obstack+48(%rip), %rdx
	addq	%rdx, %rcx
	notq	%rdx
	andq	%rcx, %rdx
	movq	%rdx, reload_obstack+24(%rip)
	movq	reload_obstack+32(%rip), %rbx
	movq	reload_obstack+8(%rip), %rsi
	movq	%rdx, %rdi
	subq	%rsi, %rdi
	movq	%rbx, %rcx
	subq	%rsi, %rcx
	cmpq	%rcx, %rdi
	jle	.LBB0_13
# BB#12:                                # %if.then75
	movq	%rbx, reload_obstack+24(%rip)
	movq	%rbx, %rdx
.LBB0_13:                               # %if.end78
	movq	%rdx, reload_obstack+16(%rip)
	movq	%rax, reload_startobj(%rip)
	movabsq	$spilled_pseudos, %rdi
	callq	bitmap_initialize
	movabsq	$pseudos_counted, %rdi
	addq	$8, %rsp
	popq	%rbx
	popq	%r12
	popq	%r14
	popq	%r15
	jmp	bitmap_initialize  # TAILCALL
.Ltmp14:
	.size	init_reload, .Ltmp14-init_reload
	.cfi_endproc

	.globl	new_insn_chain
	.align	16, 0x90
	.type	new_insn_chain,@function
new_insn_chain:                         # @new_insn_chain
	.cfi_startproc
# BB#0:                                 # %entry
	pushq	%rbx
.Ltmp17:
	.cfi_def_cfa_offset 16
.Ltmp18:
	.cfi_offset %rbx, -16
	movq	unused_insn_chains(%rip), %rbx
	testq	%rbx, %rbx
	je	.LBB1_1
# BB#8:                                 # %if.else
	movq	(%rbx), %rax
	movq	%rax, unused_insn_chains(%rip)
	jmp	.LBB1_9
.LBB1_1:                                # %if.then
	movq	reload_obstack+32(%rip), %rcx
	movq	reload_obstack+24(%rip), %rax
	subq	%rax, %rcx
	cmpq	$263, %rcx              # imm = 0x107
	jg	.LBB1_3
# BB#2:                                 # %if.then3
	movabsq	$reload_obstack, %rdi
	movq	$264, %rsi              # imm = 0x108
	callq	_obstack_newchunk
	movq	reload_obstack+24(%rip), %rax
.LBB1_3:                                # %if.end
	addq	$264, %rax              # imm = 0x108
	movq	%rax, reload_obstack+24(%rip)
	movq	reload_obstack+16(%rip), %rbx
	cmpq	%rbx, %rax
	jne	.LBB1_5
# BB#4:                                 # %if.then10
	movzbl	reload_obstack+80(%rip), %ecx
	orq	$2, %rcx
	movb	%cl, reload_obstack+80(%rip)
.LBB1_5:                                # %if.end11
	movslq	reload_obstack+48(%rip), %rcx
	addq	%rcx, %rax
	notq	%rcx
	andq	%rax, %rcx
	movq	%rcx, reload_obstack+24(%rip)
	movq	reload_obstack+32(%rip), %rax
	movq	reload_obstack+8(%rip), %rdx
	movq	%rcx, %rsi
	subq	%rdx, %rsi
	movq	%rax, %rdi
	subq	%rdx, %rdi
	cmpq	%rdi, %rsi
	jle	.LBB1_7
# BB#6:                                 # %if.then31
	movq	%rax, reload_obstack+24(%rip)
	movq	%rax, %rcx
.LBB1_7:                                # %if.end34
	movq	%rcx, reload_obstack+16(%rip)
	leaq	40(%rbx), %rdi
	callq	bitmap_initialize
	movq	%rbx, %rdi
	addq	$64, %rdi
	callq	bitmap_initialize
.LBB1_9:                                # %if.end39
	movzbl	262(%rbx), %eax
	andq	$240, %rax
	movb	%al, 262(%rbx)
	movq	%rbx, %rax
	popq	%rbx
	retq
.Ltmp19:
	.size	new_insn_chain, .Ltmp19-new_insn_chain
	.cfi_endproc

	.globl	compute_use_by_pseudos
	.align	16, 0x90
	.type	compute_use_by_pseudos,@function
compute_use_by_pseudos:                 # @compute_use_by_pseudos
	.cfi_startproc
# BB#0:                                 # %entry
	pushq	%r15
.Ltmp26:
	.cfi_def_cfa_offset 16
	pushq	%r14
.Ltmp27:
	.cfi_def_cfa_offset 24
	pushq	%r13
.Ltmp28:
	.cfi_def_cfa_offset 32
	pushq	%r12
.Ltmp29:
	.cfi_def_cfa_offset 40
	pushq	%rbx
.Ltmp30:
	.cfi_def_cfa_offset 48
	subq	$16, %rsp
.Ltmp31:
	.cfi_def_cfa_offset 64
.Ltmp32:
	.cfi_offset %rbx, -48
.Ltmp33:
	.cfi_offset %r12, -40
.Ltmp34:
	.cfi_offset %r13, -32
.Ltmp35:
	.cfi_offset %r14, -24
.Ltmp36:
	.cfi_offset %r15, -16
	movq	(%rsi), %r8
	movq	%rdi, 8(%rsp)           # 8-byte Spill
	testq	%r8, %r8
	je	.LBB2_31
# BB#1:                                 # %for.cond6.preheader.lr.ph
	movl	16(%r8), %eax
	testq	%rax, %rax
	movq	$53, %r9
	je	.LBB2_3
# BB#2:                                 # %select.mid
	xorq	%r9, %r9
.LBB2_3:                                # %select.end
	movabsq	$4294967295, %r10       # imm = 0xFFFFFFFF
	.align	16, 0x90
.LBB2_4:                                # %for.cond6.preheader
                                        # =>This Loop Header: Depth=1
                                        #     Child Loop BB2_5 Depth 2
                                        #       Child Loop BB2_7 Depth 3
                                        #         Child Loop BB2_25 Depth 4
	xorq	%r15, %r15
	.align	16, 0x90
.LBB2_5:                                # %for.body8
                                        #   Parent Loop BB2_4 Depth=1
                                        # =>  This Loop Header: Depth=2
                                        #       Child Loop BB2_7 Depth 3
                                        #         Child Loop BB2_25 Depth 4
	movq	24(%r8,%r15,8), %r13
	testq	%r13, %r13
	je	.LBB2_29
# BB#6:                                 # %for.body13.preheader
                                        #   in Loop: Header=BB2_5 Depth=2
	movq	$6, %rcx
	movq	%r15, %rdi
	shlq	%cl, %rdi
	movq	%r9, %rsi
	andq	%r10, %rsi
	.align	16, 0x90
.LBB2_7:                                # %for.body13
                                        #   Parent Loop BB2_4 Depth=1
                                        #     Parent Loop BB2_5 Depth=2
                                        # =>    This Loop Header: Depth=3
                                        #         Child Loop BB2_25 Depth 4
	movq	$1, %rax
	movq	%rsi, %rcx
	shlq	%cl, %rax
	testq	%r13, %rax
	je	.LBB2_28
# BB#8:                                 # %if.then15
                                        #   in Loop: Header=BB2_7 Depth=3
	movl	16(%r8), %edx
	movq	$7, %rcx
	shlq	%cl, %rdx
	movq	reg_renumber(%rip), %rbx
	leaq	(%rsi,%rdi), %rcx
	addq	%rdx, %rcx
	andq	%r10, %rcx
	movswq	(%rbx,%rcx,2), %rbx
	notq	%rax
	andq	%rax, %r13
	testq	%rbx, %rbx
	jns	.LBB2_11
# BB#9:                                 # %if.then24
                                        #   in Loop: Header=BB2_7 Depth=3
	movl	reload_completed(%rip), %eax
	testq	%rax, %rax
	jne	.LBB2_27
	jmp	.LBB2_10
	.align	16, 0x90
.LBB2_11:                               # %if.else
                                        #   in Loop: Header=BB2_7 Depth=3
	movq	cfun(%rip), %rax
	movq	24(%rax), %rax
	movq	80(%rax), %rax
	movq	(%rax,%rcx,8), %rax
	movzbl	2(%rax), %eax
	movq	%rbx, %rcx
	andq	$65528, %rcx            # imm = 0xFFF8
	cmpq	$8, %rcx
	je	.LBB2_15
# BB#12:                                # %if.else
                                        #   in Loop: Header=BB2_7 Depth=3
	leaq	-21(%rbx), %rcx
	andq	$65535, %rcx            # imm = 0xFFFF
	cmpq	$8, %rcx
	jb	.LBB2_15
# BB#13:                                # %if.else
                                        #   in Loop: Header=BB2_7 Depth=3
	leaq	-45(%rbx), %rcx
	andq	$65535, %rcx            # imm = 0xFFFF
	cmpq	$8, %rcx
	jb	.LBB2_15
# BB#14:                                # %if.else
                                        #   in Loop: Header=BB2_7 Depth=3
	leaq	-29(%rbx), %rcx
	andq	$65535, %rcx            # imm = 0xFFFF
	cmpq	$7, %rcx
	jbe	.LBB2_15
# BB#19:                                # %cond.false
                                        #   in Loop: Header=BB2_7 Depth=3
	cmpq	$24, %rax
	jne	.LBB2_20
# BB#22:                                # %cond.true89
                                        #   in Loop: Header=BB2_7 Depth=3
	movzbl	target_flags+3(%rip), %eax
	andq	$2, %rax
	xorq	$6, %rax
	jmp	.LBB2_24
.LBB2_15:                               # %cond.true
                                        #   in Loop: Header=BB2_7 Depth=3
	movl	mode_class(,%rax,4), %ecx
	cmpq	$5, %rcx
	movq	$2, %rax
	je	.LBB2_24
# BB#16:                                # %lor.rhs
                                        #   in Loop: Header=BB2_7 Depth=3
	cmpq	$6, %rcx
	movabsq	$0, %rax
	jne	.LBB2_18
# BB#17:                                # %lor.rhs
                                        #   in Loop: Header=BB2_7 Depth=3
	movabsq	$1, %rax
.LBB2_18:                               # %lor.rhs
                                        #   in Loop: Header=BB2_7 Depth=3
	incq	%rax
	jmp	.LBB2_24
.LBB2_20:                               # %cond.false
                                        #   in Loop: Header=BB2_7 Depth=3
	cmpq	$18, %rax
	jne	.LBB2_23
# BB#21:                                # %cond.true75
                                        #   in Loop: Header=BB2_7 Depth=3
	movl	target_flags(%rip), %eax
	movq	$25, %rcx
	shrq	%cl, %rax
	andq	$1, %rax
	xorq	$3, %rax
	jmp	.LBB2_24
.LBB2_23:                               # %while.cond116.preheader
                                        #   in Loop: Header=BB2_7 Depth=3
	movl	target_flags(%rip), %r14d
	movzbl	mode_size(%rax), %eax
	movq	$23, %rcx
	shrq	%cl, %r14
	andq	$4, %r14
	leaq	3(%rax,%r14), %rax
	addq	$4, %r14
	cqto
	idivq	%r14
	movq	$32, %rcx
	movq	%rax, %rdx
	shlq	%cl, %rdx
	movq	$32, %rcx
	sarq	%cl, %rdx
	testq	%rdx, %rdx
	jle	.LBB2_27
	.align	16, 0x90
.LBB2_24:                               # %while.body119.lr.ph
                                        #   in Loop: Header=BB2_7 Depth=3
	movq	%r8, %r12
	movq	8(%rsp), %rcx           # 8-byte Reload
	movq	(%rcx), %r14
	.align	16, 0x90
.LBB2_25:                               # %while.body119
                                        #   Parent Loop BB2_4 Depth=1
                                        #     Parent Loop BB2_5 Depth=2
                                        #       Parent Loop BB2_7 Depth=3
                                        # =>      This Inner Loop Header: Depth=4
	movq	%r14, %r11
	leaq	-1(%rax,%rbx), %rdx
	leaq	-1(%rax), %r8
	movq	$32, %rcx
	movq	%r8, %rax
	shlq	%cl, %rax
	movq	$32, %rcx
	sarq	%cl, %rax
	movq	$1, %r14
	movq	%rdx, %rcx
	shlq	%cl, %r14
	orq	%r11, %r14
	testq	%rax, %rax
	movq	%r8, %rax
	jg	.LBB2_25
# BB#26:                                # %while.cond116.if.end124.loopexit_crit_edge
                                        #   in Loop: Header=BB2_7 Depth=3
	movq	8(%rsp), %rax           # 8-byte Reload
	movq	%r14, (%rax)
	movq	%r12, %r8
.LBB2_27:                               # %if.end124
                                        #   in Loop: Header=BB2_7 Depth=3
	testq	%r13, %r13
	je	.LBB2_29
.LBB2_28:                               # %for.inc
                                        #   in Loop: Header=BB2_7 Depth=3
	incq	%r9
	movq	%r9, %rax
	andq	%r10, %rax
	incq	%rsi
	cmpq	$64, %rax
	jb	.LBB2_7
.LBB2_29:                               # %if.end130
                                        #   in Loop: Header=BB2_5 Depth=2
	incq	%r15
	movq	%r15, %rax
	andq	%r10, %rax
	xorq	%r9, %r9
	cmpq	$2, %rax
	jb	.LBB2_5
# BB#30:                                # %for.end133
                                        #   in Loop: Header=BB2_4 Depth=1
	movq	(%r8), %r8
	xorq	%r9, %r9
	testq	%r8, %r8
	jne	.LBB2_4
.LBB2_31:                               # %do.end
	addq	$16, %rsp
	popq	%rbx
	popq	%r12
	popq	%r13
	popq	%r14
	popq	%r15
	retq
.LBB2_10:                               # %if.then25
	movabsq	$.L.str1, %rdi
	movabsq	$.L__FUNCTION__.compute_use_by_pseudos, %rdx
	movq	$573, %rsi              # imm = 0x23D
	callq	fancy_abort
.Ltmp37:
	.size	compute_use_by_pseudos, .Ltmp37-compute_use_by_pseudos
	.cfi_endproc

	.globl	reload
	.align	16, 0x90
	.type	reload,@function
reload:                                 # @reload
	.cfi_startproc
# BB#0:                                 # %entry
	pushq	%r15
.Ltmp44:
	.cfi_def_cfa_offset 16
	pushq	%r14
.Ltmp45:
	.cfi_def_cfa_offset 24
	pushq	%r13
.Ltmp46:
	.cfi_def_cfa_offset 32
	pushq	%r12
.Ltmp47:
	.cfi_def_cfa_offset 40
	pushq	%rbx
.Ltmp48:
	.cfi_def_cfa_offset 48
	subq	$528, %rsp              # imm = 0x210
.Ltmp49:
	.cfi_def_cfa_offset 576
.Ltmp50:
	.cfi_offset %rbx, -48
.Ltmp51:
	.cfi_offset %r12, -40
.Ltmp52:
	.cfi_offset %r13, -32
.Ltmp53:
	.cfi_offset %r14, -24
.Ltmp54:
	.cfi_offset %r15, -16
	movq	%rsi, 64(%rsp)          # 8-byte Spill
	movq	%rdi, 56(%rsp)          # 8-byte Spill
	callq	init_recog
	movq	reload_obstack+32(%rip), %rax
	movq	reload_obstack+24(%rip), %rcx
	xorq	%rdx, %rdx
	movb	%dl, failure(%rip)
	cmpq	%rcx, %rax
	jns	.LBB3_2
# BB#1:                                 # %if.then
	movabsq	$reload_obstack, %rdi
	xorq	%rsi, %rsi
	callq	_obstack_newchunk
	movq	reload_obstack+24(%rip), %rcx
.LBB3_2:                                # %if.end
	movq	reload_obstack+16(%rip), %rax
	cmpq	%rax, %rcx
	jne	.LBB3_4
# BB#3:                                 # %if.then8
	movzbl	reload_obstack+80(%rip), %edx
	orq	$2, %rdx
	movb	%dl, reload_obstack+80(%rip)
.LBB3_4:                                # %if.end9
	movslq	reload_obstack+48(%rip), %rdx
	addq	%rdx, %rcx
	notq	%rdx
	andq	%rcx, %rdx
	movq	%rdx, reload_obstack+24(%rip)
	movq	reload_obstack+32(%rip), %rbx
	movq	reload_obstack+8(%rip), %rsi
	movq	%rdx, %rdi
	subq	%rsi, %rdi
	movq	%rbx, %rcx
	subq	%rsi, %rcx
	cmpq	%rcx, %rdi
	jle	.LBB3_6
# BB#5:                                 # %if.then29
	movq	%rbx, reload_obstack+24(%rip)
	movq	%rbx, %rdx
.LBB3_6:                                # %if.end32
	movq	%rdx, reload_obstack+16(%rip)
	movq	%rax, reload_firstobj(%rip)
	movabsq	$4294967197, %rsi       # imm = 0xFFFFFF9D
	xorq	%rdi, %rdi
	callq	emit_note
	callq	get_max_uid
	movl	%eax, reload_first_uid(%rip)
	callq	clear_secondary_mem
	movabsq	$spill_stack_slot, %rdi
	xorq	%rsi, %rsi
	movq	$424, %rdx              # imm = 0x1A8
	callq	memset
	movabsq	$spill_stack_slot_width, %rdi
	xorq	%rsi, %rsi
	movq	$212, %rdx
	callq	memset
	callq	init_save_areas
	movslq	max_regno(%rip), %rdi
	cmpq	$54, %rdi
	jl	.LBB3_9
# BB#7:
	movq	$53, %rbx
	.align	16, 0x90
.LBB3_8:                                # %for.body
                                        # =>This Inner Loop Header: Depth=1
	movq	%rbx, %rdi
	callq	mark_home_live
	incq	%rbx
	movq	$32, %rcx
	movq	%rbx, %rax
	movslq	max_regno(%rip), %rdi
	shlq	%cl, %rax
	movq	$32, %rcx
	sarq	%cl, %rax
	cmpq	%rdi, %rax
	jl	.LBB3_8
.LBB3_9:                                # %for.end
	movq	cfun(%rip), %rax
	movzbl	425(%rax), %eax
	testq	$1, %rax
	je	.LBB3_15
# BB#10:
	movq	$-53, %rax
	movq	$1, %rcx
	.align	16, 0x90
.LBB3_11:                               # %for.body45
                                        # =>This Inner Loop Header: Depth=1
	movzbl	call_used_regs+53(%rax), %edx
	testq	%rdx, %rdx
	jne	.LBB3_14
# BB#12:                                # %land.lhs.true
                                        #   in Loop: Header=BB3_11 Depth=1
	movzbl	fixed_regs+53(%rax), %edx
	testq	%rdx, %rdx
	jne	.LBB3_14
# BB#13:                                # %if.then50
                                        #   in Loop: Header=BB3_11 Depth=1
	movb	%cl, regs_ever_live+53(%rax)
.LBB3_14:                               # %for.inc54
                                        #   in Loop: Header=BB3_11 Depth=1
	incq	%rax
	jne	.LBB3_11
.LBB3_15:                               # %if.end57
	movq	$8, %rsi
	callq	xcalloc
	movslq	max_regno(%rip), %rdi
	movq	%rax, reg_equiv_constant(%rip)
	movq	$8, %rsi
	callq	xcalloc
	movslq	max_regno(%rip), %rdi
	movq	%rax, reg_equiv_mem(%rip)
	movq	$8, %rsi
	callq	xcalloc
	movslq	max_regno(%rip), %rdi
	movq	%rax, reg_equiv_init(%rip)
	movq	$8, %rsi
	callq	xcalloc
	movslq	max_regno(%rip), %rdi
	movq	%rax, reg_equiv_address(%rip)
	movq	$4, %rsi
	callq	xcalloc
	movslq	max_regno(%rip), %rdi
	movq	%rax, reg_max_ref_width(%rip)
	movq	$2, %rsi
	callq	xcalloc
	movslq	max_regno(%rip), %rbx
	movq	reg_renumber(%rip), %rsi
	movq	%rax, reg_old_renumber(%rip)
	leaq	(%rbx,%rbx), %rdx
	movq	%rax, %rdi
	callq	memcpy
	movq	$3, %rcx
	shlq	%cl, %rbx
	movq	%rbx, %rdi
	callq	xmalloc
	movslq	max_regno(%rip), %rdi
	movq	%rax, pseudo_forbidden_regs(%rip)
	movq	$8, %rsi
	callq	xcalloc
	movq	%rax, pseudo_previous_regs(%rip)
	movq	$0, bad_spill_regs_global(%rip)
	xorq	%rax, %rax
	movl	%eax, num_eliminable_invariants(%rip)
	cmpq	$0, 56(%rsp)            # 8-byte Folded Reload
	je	.LBB3_64
# BB#16:
	movabsq	$4294967295, %r12       # imm = 0xFFFFFFFF
	movq	$1, %r13
	movq	56(%rsp), %rbx          # 8-byte Reload
	.align	16, 0x90
.LBB3_17:                               # %for.body78
                                        # =>This Loop Header: Depth=1
                                        #     Child Loop BB3_27 Depth 2
	movl	(%rbx), %ecx
	movq	%rcx, %rax
	andq	$65535, %rax            # imm = 0xFFFF
	movzbl	rtx_class(%rax), %eax
	cmpq	$105, %rax
	jne	.LBB3_18
# BB#19:                                # %cond.true
                                        #   in Loop: Header=BB3_17 Depth=1
	movq	32(%rbx), %r14
	movzbl	(%r14), %eax
	cmpq	$47, %rax
	je	.LBB3_21
# BB#20:                                # %cond.false
                                        #   in Loop: Header=BB3_17 Depth=1
	movq	%rbx, %rdi
	movq	%r14, %rsi
	callq	single_set_2
	movl	(%rbx), %ecx
	movq	%rax, %r14
	jmp	.LBB3_21
	.align	16, 0x90
.LBB3_18:                               #   in Loop: Header=BB3_17 Depth=1
	xorq	%r14, %r14
.LBB3_21:                               # %cond.end101
                                        #   in Loop: Header=BB3_17 Depth=1
	movq	%rcx, %rax
	andq	$65535, %rax            # imm = 0xFFFF
	movzbl	rtx_class(%rax), %eax
	cmpq	$105, %rax
	jne	.LBB3_25
# BB#22:                                # %land.lhs.true110
                                        #   in Loop: Header=BB3_17 Depth=1
	movq	32(%rbx), %rax
	movzbl	(%rax), %eax
	cmpq	$48, %rax
	jne	.LBB3_25
# BB#23:                                # %land.lhs.true110
                                        #   in Loop: Header=BB3_17 Depth=1
	movq	%rcx, %rax
	andq	$16711680, %rax         # imm = 0xFF0000
	testq	%r12, %rax
	movq	%r12, %rax
                                        # kill: R12<def> RAX<kill>
	je	.LBB3_25
# BB#24:                                # %if.then124
                                        #   in Loop: Header=BB3_17 Depth=1
	movabsq	$4278255615, %rax       # imm = 0xFF00FFFF
	andq	%rax, %rcx
	movl	%ecx, (%rbx)
.LBB3_25:                               # %if.end127
                                        #   in Loop: Header=BB3_17 Depth=1
	andq	$65535, %rcx            # imm = 0xFFFF
	cmpq	$34, %rcx
	jne	.LBB3_30
# BB#26:                                # %land.lhs.true132
                                        #   in Loop: Header=BB3_17 Depth=1
	movq	$28, %rsi
	xorq	%rdx, %rdx
	movq	%rbx, %rdi
	callq	find_reg_note
	testq	%rax, %rax
	movq	$-53, %rax
	je	.LBB3_30
	.align	16, 0x90
.LBB3_27:                               # %for.body139
                                        #   Parent Loop BB3_17 Depth=1
                                        # =>  This Inner Loop Header: Depth=2
	movzbl	call_used_regs+53(%rax), %ecx
	testq	%rcx, %rcx
	jne	.LBB3_29
# BB#28:                                # %if.then143
                                        #   in Loop: Header=BB3_27 Depth=2
	movb	%r13b, regs_ever_live+53(%rax)
.LBB3_29:                               # %for.inc147
                                        #   in Loop: Header=BB3_27 Depth=2
	incq	%rax
	jne	.LBB3_27
.LBB3_30:                               # %if.end150
                                        #   in Loop: Header=BB3_17 Depth=1
	testq	%r14, %r14
	je	.LBB3_61
# BB#31:                                # %land.lhs.true153
                                        #   in Loop: Header=BB3_17 Depth=1
	movq	8(%r14), %rdi
	movzbl	(%rdi), %eax
	cmpq	$66, %rax
	jne	.LBB3_32
# BB#57:                                # %land.lhs.true350
                                        #   in Loop: Header=BB3_17 Depth=1
	movq	16(%r14), %rax
	movzbl	(%rax), %ecx
	cmpq	$61, %rcx
	jne	.LBB3_61
# BB#58:                                # %land.lhs.true358
                                        #   in Loop: Header=BB3_17 Depth=1
	movl	8(%rax), %eax
	movq	reg_equiv_memory_loc(%rip), %rcx
	movq	(%rcx,%rax,8), %rsi
	testq	%rsi, %rsi
	je	.LBB3_61
# BB#59:                                # %land.lhs.true368
                                        #   in Loop: Header=BB3_17 Depth=1
	callq	rtx_equal_p
	testq	%r12, %rax
	je	.LBB3_61
# BB#60:                                # %if.then382
                                        #   in Loop: Header=BB3_17 Depth=1
	movq	16(%r14), %rax
	movl	8(%rax), %eax
	movq	reg_equiv_init(%rip), %rcx
	movq	(%rcx,%rax,8), %rcx
	movq	$4, %rdi
	xorq	%rsi, %rsi
	movq	%rbx, %rdx
	callq	gen_rtx_fmt_ue
	movq	16(%r14), %rcx
	movl	8(%rcx), %ecx
	movq	reg_equiv_init(%rip), %rdx
	movq	%rax, (%rdx,%rcx,8)
	jmp	.LBB3_61
	.align	16, 0x90
.LBB3_32:                               # %land.lhs.true153
                                        #   in Loop: Header=BB3_17 Depth=1
	cmpq	$61, %rax
	jne	.LBB3_61
# BB#33:                                # %if.then161
                                        #   in Loop: Header=BB3_17 Depth=1
	movq	$3, %rsi
	xorq	%rdx, %rdx
	movq	%rbx, %rdi
	callq	find_reg_note
	movq	%rax, %r15
	testq	%r15, %r15
	je	.LBB3_61
# BB#34:                                # %land.lhs.true165
                                        #   in Loop: Header=BB3_17 Depth=1
	movq	8(%r15), %rdi
	callq	function_invariant_p
	testq	%r12, %rax
	je	.LBB3_45
# BB#35:                                # %land.lhs.true165
                                        #   in Loop: Header=BB3_17 Depth=1
	movl	flag_pic(%rip), %eax
	testq	%r12, %rax
	je	.LBB3_45
# BB#36:                                # %lor.lhs.false172
                                        #   in Loop: Header=BB3_17 Depth=1
	movq	8(%r15), %rdi
	movzbl	(%rdi), %eax
	cmpq	$133, %rax
	jg	.LBB3_43
# BB#37:                                # %lor.lhs.false172
                                        #   in Loop: Header=BB3_17 Depth=1
	leaq	-54(%rax), %rcx
	andq	%r12, %rcx
	cmpq	$3, %rcx
	jb	.LBB3_45
# BB#38:                                # %lor.lhs.false172
                                        #   in Loop: Header=BB3_17 Depth=1
	leaq	-67(%rax), %rcx
	andq	%r12, %rcx
	cmpq	$2, %rcx
	jb	.LBB3_42
# BB#39:                                # %lor.lhs.false172
                                        #   in Loop: Header=BB3_17 Depth=1
	cmpq	$58, %rax
	jne	.LBB3_61
# BB#40:                                # %land.lhs.true260
                                        #   in Loop: Header=BB3_17 Depth=1
	callq	symbolic_reference_mentioned_p
	testq	%r12, %rax
	je	.LBB3_45
# BB#41:                                # %land.lhs.true260.lor.lhs.false266_crit_edge
                                        #   in Loop: Header=BB3_17 Depth=1
	movq	8(%r15), %rdi
.LBB3_42:                               # %lor.lhs.false266
                                        #   in Loop: Header=BB3_17 Depth=1
	callq	legitimate_pic_address_disp_p
	testq	%r12, %rax
	jne	.LBB3_45
	jmp	.LBB3_61
.LBB3_43:                               # %lor.lhs.false172
                                        #   in Loop: Header=BB3_17 Depth=1
	cmpq	$134, %rax
	je	.LBB3_45
# BB#44:                                # %lor.lhs.false172
                                        #   in Loop: Header=BB3_17 Depth=1
	cmpq	$140, %rax
	jne	.LBB3_61
.LBB3_45:                               # %if.then272
                                        #   in Loop: Header=BB3_17 Depth=1
	movq	8(%r14), %rax
	movslq	8(%rax), %rax
	cmpq	$58, %rax
	jl	.LBB3_61
# BB#46:                                # %if.then284
                                        #   in Loop: Header=BB3_17 Depth=1
	movq	%rax, 152(%rsp)         # 8-byte Spill
	movq	8(%r15), %r15
	xorq	%rsi, %rsi
	movq	%r15, %rdi
	callq	memory_operand
	movq	%r15, %rdi
	testq	%r12, %rax
	jne	.LBB3_47
# BB#48:                                # %if.else
                                        #   in Loop: Header=BB3_17 Depth=1
	callq	function_invariant_p
	testq	%r12, %rax
	je	.LBB3_63
# BB#49:                                # %if.then293
                                        #   in Loop: Header=BB3_17 Depth=1
	movzbl	(%r15), %eax
	cmpq	$75, %rax
	jne	.LBB3_51
# BB#50:                                # %if.then298
                                        #   in Loop: Header=BB3_17 Depth=1
	movq	%r15, %rdi
	callq	copy_rtx
	movq	reg_equiv_constant(%rip), %rcx
	movq	152(%rsp), %rdx         # 8-byte Reload
	movq	%rax, (%rcx,%rdx,8)
	movq	%rdx, %rcx
	jmp	.LBB3_53
.LBB3_47:                               # %if.then287
                                        #   in Loop: Header=BB3_17 Depth=1
	callq	copy_rtx
	movq	reg_equiv_memory_loc(%rip), %rcx
	movq	152(%rsp), %rdx         # 8-byte Reload
	movq	%rax, (%rcx,%rdx,8)
	movq	%rdx, %rcx
	jmp	.LBB3_54
.LBB3_51:                               # %if.else303
                                        #   in Loop: Header=BB3_17 Depth=1
	movq	global_rtl+24(%rip), %rcx
	movq	reg_equiv_constant(%rip), %rdx
	movq	global_rtl+40(%rip), %rax
	cmpq	%rcx, %r15
	movq	152(%rsp), %rcx         # 8-byte Reload
	movq	%r15, (%rdx,%rcx,8)
	je	.LBB3_53
# BB#52:                                # %if.else303
                                        #   in Loop: Header=BB3_17 Depth=1
	cmpq	%rax, %r15
	jne	.LBB3_54
.LBB3_53:                               # %if.then309
                                        #   in Loop: Header=BB3_17 Depth=1
	movl	num_eliminable_invariants(%rip), %eax
	incq	%rax
	movl	%eax, num_eliminable_invariants(%rip)
.LBB3_54:                               # %if.end320
                                        #   in Loop: Header=BB3_17 Depth=1
	movzbl	(%r15), %eax
	cmpq	$66, %rax
	jne	.LBB3_56
# BB#55:                                # %lor.lhs.false325
                                        #   in Loop: Header=BB3_17 Depth=1
	movq	16(%r14), %rdi
	movq	%r15, %rsi
	movq	%rcx, %r14
	callq	rtx_equal_p
	movq	%r14, %rcx
	testq	%r12, %rax
	je	.LBB3_61
.LBB3_56:                               # %if.then331
                                        #   in Loop: Header=BB3_17 Depth=1
	movq	reg_equiv_init(%rip), %rax
	movq	%rcx, %r14
	movq	(%rax,%r14,8), %rcx
	movq	$4, %rdi
	xorq	%rsi, %rsi
	movq	%rbx, %rdx
	callq	gen_rtx_fmt_ue
	movq	reg_equiv_init(%rip), %rcx
	movq	%rax, (%rcx,%r14,8)
	.align	16, 0x90
.LBB3_61:                               # %if.end401
                                        #   in Loop: Header=BB3_17 Depth=1
	movzbl	(%rbx), %eax
	movzbl	rtx_class(%rax), %eax
	cmpq	$105, %rax
	jne	.LBB3_63
# BB#62:                                # %if.then409
                                        #   in Loop: Header=BB3_17 Depth=1
	movq	32(%rbx), %rdi
	callq	scan_paradoxical_subregs
.LBB3_63:                               # %for.inc414
                                        #   in Loop: Header=BB3_17 Depth=1
	movq	24(%rbx), %rbx
	testq	%rbx, %rbx
	jne	.LBB3_17
.LBB3_64:                               # %for.end418
	movq	reg_eliminate(%rip), %rbx
	testq	%rbx, %rbx
	jne	.LBB3_66
# BB#65:                                # %if.then.i
	movq	$48, %rdi
	movq	$4, %rsi
	callq	xcalloc
	movq	%rax, %rbx
	movq	%rbx, reg_eliminate(%rip)
.LBB3_66:                               # %if.end.i
	movl	flag_omit_frame_pointer(%rip), %eax
	testq	%rax, %rax
	movq	$1, %rax
	je	.LBB3_72
# BB#67:                                # %lor.lhs.false.i
	movq	cfun(%rip), %rcx
	movzbl	424(%rcx), %ecx
	testq	$64, %rcx
	jne	.LBB3_72
# BB#68:                                # %lor.rhs.i
	callq	ix86_frame_pointer_required
	movabsq	$4294967295, %rcx       # imm = 0xFFFFFFFF
	testq	%rcx, %rax
	je	.LBB3_69
# BB#70:                                # %lor.rhs.i
	movabsq	$1, %rax
	jmp	.LBB3_71
.LBB3_69:
	movabsq	$0, %rax
.LBB3_71:                               # %lor.rhs.i
	movq	reg_eliminate(%rip), %rbx
.LBB3_72:                               # %for.body.lr.ph.i
	movl	%eax, frame_pointer_needed(%rip)
	xorq	%rax, %rax
	movl	%eax, num_eliminable(%rip)
	leaq	192(%rbx), %r9
	movabsq	$reg_eliminate_1, %rcx
	movabsq	$0, %rax
	movabsq	$1, %r8
	movq	%rbx, %rdi
	.align	16, 0x90
.LBB3_73:                               # %for.body.i
                                        # =>This Inner Loop Header: Depth=1
	movl	(%rcx), %edx
	movl	%edx, (%rdi)
	movl	4(%rcx), %edx
	cmpq	$7, %rdx
	movl	%edx, 4(%rdi)
	movq	%rax, %rdx
	jne	.LBB3_75
# BB#74:                                # %for.body.i
                                        #   in Loop: Header=BB3_73 Depth=1
	movq	%r8, %rdx
.LBB3_75:                               # %for.body.i
                                        #   in Loop: Header=BB3_73 Depth=1
	movl	frame_pointer_needed(%rip), %esi
	testq	%rsi, %rsi
	movq	%rax, %rsi
	je	.LBB3_77
# BB#76:                                # %for.body.i
                                        #   in Loop: Header=BB3_73 Depth=1
	movq	%r8, %rsi
.LBB3_77:                               # %for.body.i
                                        #   in Loop: Header=BB3_73 Depth=1
	andq	%rsi, %rdx
	xorq	$1, %rdx
	movl	%edx, 16(%rdi)
	movl	%edx, 12(%rdi)
	addq	$48, %rdi
	addq	$8, %rcx
	cmpq	%r9, %rdi
	jb	.LBB3_73
	.align	16, 0x90
.LBB3_78:                               # %for.body19.i
                                        # =>This Inner Loop Header: Depth=1
	movl	12(%rbx), %eax
	movl	num_eliminable(%rip), %ecx
	addq	%rax, %rcx
	movl	target_flags(%rip), %edi
	movl	%ecx, num_eliminable(%rip)
	movq	$25, %rcx
	movl	(%rbx), %esi
	shrq	%cl, %rdi
	andq	$1, %rdi
	orq	$4, %rdi
	callq	gen_rtx_REG
	movq	%rax, 32(%rbx)
	movl	target_flags(%rip), %edi
	movq	$25, %rcx
	movl	4(%rbx), %esi
	shrq	%cl, %rdi
	andq	$1, %rdi
	orq	$4, %rdi
	callq	gen_rtx_REG
	movq	%rax, 40(%rbx)
	movq	reg_eliminate(%rip), %rax
	addq	$48, %rbx
	addq	$192, %rax
	cmpq	%rax, %rbx
	jb	.LBB3_78
# BB#79:                                # %init_elim_table.exit
	callq	max_label_num
	movq	%rax, %rbx
	callq	get_first_label_num
	subq	%rax, %rbx
	movl	%ebx, num_labels(%rip)
	movq	$32, %rcx
	shlq	%cl, %rbx
	movq	$32, %rcx
	sarq	%cl, %rbx
	movq	%rbx, %rdi
	callq	xmalloc
	movslq	num_labels(%rip), %rdi
	movq	%rax, %rbx
	movq	%rbx, 32(%rsp)          # 8-byte Spill
	movq	$4, %rcx
	shlq	%cl, %rdi
	callq	xmalloc
	movq	%rax, %r14
	movq	%r14, 24(%rsp)          # 8-byte Spill
	callq	get_first_label_num
	movq	$32, %rcx
	shlq	%cl, %rax
	movq	$32, %rcx
	sarq	%cl, %rax
	movq	%rbx, %rcx
	subq	%rax, %rcx
	movq	%rcx, offsets_known_at(%rip)
	callq	get_first_label_num
	movq	$32, %rcx
	shlq	%cl, %rax
	movq	$32, %rcx
	sarq	%cl, %rax
	movq	$4, %rcx
	movslq	max_regno(%rip), %rdx
	shlq	%cl, %rax
	movq	%r14, %rcx
	subq	%rax, %rcx
	movq	%rcx, offsets_at(%rip)
	cmpq	$58, %rdx
	jle	.LBB3_82
# BB#80:
	movq	$58, %rbx
	movabsq	$4294967295, %r14       # imm = 0xFFFFFFFF
	.align	16, 0x90
.LBB3_81:                               # %for.body437
                                        # =>This Inner Loop Header: Depth=1
	movq	%rbx, %rdi
	movq	%r14, %rsi
	callq	alter_reg
	incq	%rbx
	movq	$32, %rcx
	movq	%rbx, %rax
	movslq	max_regno(%rip), %rdx
	shlq	%cl, %rax
	movq	$32, %rcx
	sarq	%cl, %rax
	cmpq	%rdx, %rax
	jl	.LBB3_81
.LBB3_82:                               # %for.cond441.preheader
	cmpq	$0, 56(%rsp)            # 8-byte Folded Reload
	je	.LBB3_89
# BB#83:                                # %for.cond441.preheader
	movl	num_eliminable(%rip), %eax
	movabsq	$4294967295, %r15       # imm = 0xFFFFFFFF
	testq	%r15, %rax
	je	.LBB3_89
# BB#84:
	movabsq	$mark_not_eliminable, %r14
	movq	56(%rsp), %rbx          # 8-byte Reload
	.align	16, 0x90
.LBB3_85:                               # %for.body444
                                        # =>This Inner Loop Header: Depth=1
	movzbl	(%rbx), %ecx
	addq	$-32, %rcx
	andq	%r15, %rcx
	cmpq	$2, %rcx
	ja	.LBB3_87
# BB#86:                                # %if.then459
                                        #   in Loop: Header=BB3_85 Depth=1
	movq	32(%rbx), %rdi
	xorq	%rdx, %rdx
	movq	%r14, %rsi
	callq	note_stores
	movl	num_eliminable(%rip), %eax
.LBB3_87:                               # %for.inc464
                                        #   in Loop: Header=BB3_85 Depth=1
	movq	24(%rbx), %rbx
	testq	%rbx, %rbx
	je	.LBB3_89
# BB#88:                                # %for.inc464
                                        #   in Loop: Header=BB3_85 Depth=1
	testq	%r15, %rax
	jne	.LBB3_85
.LBB3_89:                               # %for.end468
	movq	reload_insn_chain(%rip), %rax
	testq	%rax, %rax
	je	.LBB3_157
# BB#90:                                # %for.body.lr.ph.i1612
	movabsq	$4294967295, %r13       # imm = 0xFFFFFFFF
	.align	16, 0x90
.LBB3_91:                               # %for.body.i1616
                                        # =>This Loop Header: Depth=1
                                        #     Child Loop BB3_95 Depth 2
                                        #     Child Loop BB3_112 Depth 2
                                        #       Child Loop BB3_145 Depth 3
                                        #         Child Loop BB3_148 Depth 4
                                        #       Child Loop BB3_113 Depth 3
                                        #         Child Loop BB3_116 Depth 4
                                        #     Child Loop BB3_153 Depth 2
	movq	%rax, 152(%rsp)         # 8-byte Spill
	movq	32(%rax), %rax
	movzbl	(%rax), %ecx
	movzbl	rtx_class(%rcx), %ecx
	cmpq	$105, %rcx
	jne	.LBB3_156
# BB#92:                                # %lor.lhs.false.i1618
                                        #   in Loop: Header=BB3_91 Depth=1
	movq	32(%rax), %rdi
	callq	asm_noperands
	movq	%rax, %r14
	movq	$32, %rcx
                                        # kill: RAX<def> R14<kill>
	shlq	%cl, %rax
	movq	$32, %rcx
	sarq	%cl, %rax
	testq	%rax, %rax
	js	.LBB3_156
# BB#93:                                # %if.end.i1619
                                        #   in Loop: Header=BB3_91 Depth=1
	movq	152(%rsp), %rax         # 8-byte Reload
	movq	32(%rax), %rax
	movq	32(%rax), %rdi
	movzbl	(%rdi), %eax
	cmpq	$39, %rax
	jne	.LBB3_156
# BB#94:                                # %for.cond17.preheader.i
                                        #   in Loop: Header=BB3_91 Depth=1
	movq	8(%rdi), %r8
	movslq	(%r8), %rax
	xorq	%r12, %r12
	testq	%rax, %rax
	movq	$1, %rsi
	movabsq	$0, %r10
	movabsq	$4294967288, %r9        # imm = 0xFFFFFFF8
	jle	.LBB3_100
	.align	16, 0x90
.LBB3_95:                               # %for.body22.i
                                        #   Parent Loop BB3_91 Depth=1
                                        # =>  This Inner Loop Header: Depth=2
	movq	(%r8,%rsi,8), %rcx
	movzbl	(%rcx), %ebx
	cmpq	$49, %rbx
	jne	.LBB3_99
# BB#96:                                # %land.lhs.true.i
                                        #   in Loop: Header=BB3_95 Depth=2
	movq	8(%rcx), %rcx
	movzbl	(%rcx), %ebx
	cmpq	$61, %rbx
	jne	.LBB3_99
# BB#97:                                # %land.lhs.true39.i
                                        #   in Loop: Header=BB3_95 Depth=2
	movl	8(%rcx), %ecx
	movq	%rcx, %rbx
	andq	%r9, %rbx
	cmpq	$8, %rbx
	jne	.LBB3_99
# BB#98:                                # %if.then56.i
                                        #   in Loop: Header=BB3_95 Depth=2
	movq	$1, %rbx
	shlq	%cl, %rbx
	orq	%rbx, %r10
	.align	16, 0x90
.LBB3_99:                               # %for.inc.i
                                        #   in Loop: Header=BB3_95 Depth=2
	movq	%rsi, %rcx
	andq	%r13, %rcx
	movq	%rax, %rdx
	andq	%r13, %rdx
	incq	%rsi
	cmpq	%rdx, %rcx
	jne	.LBB3_95
.LBB3_100:                              # %for.end.i
                                        #   in Loop: Header=BB3_91 Depth=1
	movq	%r10, 128(%rsp)         # 8-byte Spill
	movabsq	$recog_data, %rsi
	movabsq	$recog_data+240, %rdx
	leaq	288(%rsp), %rcx
	leaq	160(%rsp), %r8
	callq	decode_asm_operands
	movq	$32, %rcx
	movq	%r14, %rax
	shlq	%cl, %rax
	movq	$32, %rcx
	sarq	%cl, %rax
	testq	%rax, %rax
	movabsq	$17626545782785, %rdx   # imm = 0x100800000001
	jle	.LBB3_152
# BB#101:                               # %for.body69.lr.ph.i
                                        #   in Loop: Header=BB3_91 Depth=1
	movl	target_flags(%rip), %r15d
	testq	$327680, %r15           # imm = 0x50000
	movabsq	$0, %rax
	je	.LBB3_103
# BB#102:                               # %for.body69.lr.ph.i
                                        #   in Loop: Header=BB3_91 Depth=1
	movabsq	$1, %rax
.LBB3_103:                              # %for.body69.lr.ph.i
                                        #   in Loop: Header=BB3_91 Depth=1
	movq	$4, %rcx
	shlq	%cl, %rax
	movq	%r15, %rsi
	andq	$262144, %rsi           # imm = 0x40000
	movq	$14, %rcx
	shrq	%cl, %rsi
	movq	%rsi, 112(%rsp)         # 8-byte Spill
	movq	%r15, %rsi
	andq	$16384, %rsi            # imm = 0x4000
	movq	$14, %rcx
	shrq	%cl, %rsi
	movq	%rsi, 120(%rsp)         # 8-byte Spill
	testq	%rsi, %rsi
	je	.LBB3_105
# BB#104:                               # %for.body69.lr.ph.i
                                        #   in Loop: Header=BB3_91 Depth=1
	movq	$17, 120(%rsp)          # 8-byte Folded Spill
.LBB3_105:                              # %for.body69.lr.ph.i
                                        #   in Loop: Header=BB3_91 Depth=1
	movq	%rax, 104(%rsp)         # 8-byte Spill
	movq	%r15, %rax
	andq	$1, %rax
	movq	%rax, 136(%rsp)         # 8-byte Spill
	movq	%r15, %rsi
	andq	$32, %rsi
	movq	$5, %rcx
	shrq	%cl, %rsi
	testq	%rsi, %rsi
	movq	%rsi, %rdi
	je	.LBB3_107
# BB#106:                               # %for.body69.lr.ph.i
                                        #   in Loop: Header=BB3_91 Depth=1
	movq	$15, %rdi
.LBB3_107:                              # %for.body69.lr.ph.i
                                        #   in Loop: Header=BB3_91 Depth=1
	movq	%rsi, 144(%rsp)         # 8-byte Spill
	movq	%rdx, %rbx
	movq	%r14, %r11
	je	.LBB3_109
# BB#108:                               # %for.body69.lr.ph.i
                                        #   in Loop: Header=BB3_91 Depth=1
	movq	$13, 144(%rsp)          # 8-byte Folded Spill
.LBB3_109:                              # %for.body69.lr.ph.i
                                        #   in Loop: Header=BB3_91 Depth=1
	je	.LBB3_111
# BB#110:                               # %for.body69.lr.ph.i
                                        #   in Loop: Header=BB3_91 Depth=1
	movq	$14, %rsi
.LBB3_111:                              # %for.body69.lr.ph.i
                                        #   in Loop: Header=BB3_91 Depth=1
	andq	$33554432, %r15         # imm = 0x2000000
	movq	$23, %rcx
	shrq	%cl, %r15
	orq	$8, %r15
	xorq	%r8, %r8
	xorq	%r12, %r12
	.align	16, 0x90
.LBB3_112:                              # %for.body69.i
                                        #   Parent Loop BB3_91 Depth=1
                                        # =>  This Loop Header: Depth=2
                                        #       Child Loop BB3_145 Depth 3
                                        #         Child Loop BB3_148 Depth 4
                                        #       Child Loop BB3_113 Depth 3
                                        #         Child Loop BB3_116 Depth 4
	movq	288(%rsp,%r8,8), %r9
	cmpq	$0, 136(%rsp)           # 8-byte Folded Reload
	movabsq	$0, %r14
	movabsq	$0, %r10
	jne	.LBB3_145
	jmp	.LBB3_113
	.align	16, 0x90
.LBB3_143:                              # %cond.end257.us.i
                                        #   in Loop: Header=BB3_113 Depth=3
	movq	$32, %rcx
	shlq	%cl, %r14
	movq	$32, %rcx
	sarq	%cl, %r14
	imulq	$100, %r14, %rax
	movl	reg_class_subunion(%rax,%rdx,4), %r14d
.LBB3_113:                              # %for.cond72.us.i
                                        #   Parent Loop BB3_91 Depth=1
                                        #     Parent Loop BB3_112 Depth=2
                                        # =>    This Loop Header: Depth=3
                                        #         Child Loop BB3_116 Depth 4
	movzbl	(%r9), %eax
	incq	%r9
	cmpq	$44, %rax
	ja	.LBB3_119
# BB#114:                               # %for.cond72.us.i
                                        #   in Loop: Header=BB3_113 Depth=3
	movq	$1, %rdx
	movq	%rax, %rcx
	shlq	%cl, %rdx
	testq	%rbx, %rdx
	je	.LBB3_119
# BB#115:                               # %if.then84.us.i
                                        #   in Loop: Header=BB3_113 Depth=3
	movq	$32, %rcx
	shlq	%cl, %r14
	movq	$32, %rcx
	sarq	%cl, %r14
	movq	reg_class_contents(,%r14,8), %rcx
	cmpq	$35, %rax
	jne	.LBB3_118
.LBB3_116:                              # %do.body.us.i
                                        #   Parent Loop BB3_91 Depth=1
                                        #     Parent Loop BB3_112 Depth=2
                                        #       Parent Loop BB3_113 Depth=3
                                        # =>      This Inner Loop Header: Depth=4
	movzbl	(%r9), %eax
	incq	%r9
	testq	%rax, %rax
	je	.LBB3_118
# BB#117:                               # %do.body.us.i
                                        #   in Loop: Header=BB3_116 Depth=4
	cmpq	$44, %rax
	jne	.LBB3_116
	.align	16, 0x90
.LBB3_118:                              # %if.end99.us.i
                                        #   in Loop: Header=BB3_113 Depth=3
	orq	%rcx, %r12
	testq	%rax, %rax
	movabsq	$0, %r14
	jne	.LBB3_113
	jmp	.LBB3_151
	.align	16, 0x90
.LBB3_119:                              # %if.end105.us.i
                                        #   in Loop: Header=BB3_113 Depth=3
	movq	$56, %rcx
	movq	%rax, %rdx
	shlq	%cl, %rdx
	movq	$56, %rcx
	sarq	%cl, %rdx
	addq	$-33, %rdx
	andq	%r13, %rdx
	cmpq	$82, %rdx
	ja	.LBB3_122
# BB#120:                               # %if.end105.us.i
                                        #   in Loop: Header=BB3_113 Depth=3
	jmpq	*.LJTI3_1(,%rdx,8)
.LBB3_121:                              # %sw.bb107.us.i
                                        #   in Loop: Header=BB3_113 Depth=3
	movq	$32, %rcx
	shlq	%cl, %r14
	movq	$32, %rcx
	sarq	%cl, %r14
	imulq	$100, %r14, %rax
	movl	reg_class_subunion+48(%rax), %r14d
	jmp	.LBB3_113
	.align	16, 0x90
.LBB3_122:                              # %sw.default.us.i
                                        #   in Loop: Header=BB3_113 Depth=3
	movq	$12, %rdx
	cmpq	$114, %rax
	je	.LBB3_143
# BB#123:                               # %cond.false.us.i
                                        #   in Loop: Header=BB3_113 Depth=3
	movq	$11, %rdx
	cmpq	$82, %rax
	je	.LBB3_143
# BB#124:                               # %cond.false.us.i
                                        #   in Loop: Header=BB3_113 Depth=3
	cmpq	$113, %rax
	movq	%r15, %rdx
	je	.LBB3_143
# BB#125:                               # %cond.false127.us.i
                                        #   in Loop: Header=BB3_113 Depth=3
	movq	$56, %rcx
	movq	%rax, %rdx
	shlq	%cl, %rdx
	movq	$56, %rcx
	sarq	%cl, %rdx
	cmpq	$101, %rdx
	jg	.LBB3_127
# BB#126:                               # %cond.false127.us.i
                                        #   in Loop: Header=BB3_113 Depth=3
	movq	$8, %rdx
	cmpq	$81, %rax
	jne	.LBB3_130
	jmp	.LBB3_143
.LBB3_127:                              # %cond.false127.us.i
                                        #   in Loop: Header=BB3_113 Depth=3
	cmpq	$102, %rax
	movq	%rdi, %rdx
	je	.LBB3_143
# BB#128:                               # %cond.false127.us.i
                                        #   in Loop: Header=BB3_113 Depth=3
	cmpq	$116, %rax
	movq	144(%rsp), %rdx         # 8-byte Reload
	je	.LBB3_143
# BB#129:                               # %cond.false127.us.i
                                        #   in Loop: Header=BB3_113 Depth=3
	cmpq	$117, %rax
	movq	%rsi, %rdx
	je	.LBB3_143
.LBB3_130:                              # %cond.false166.us.i
                                        #   in Loop: Header=BB3_113 Depth=3
	movq	$1, %rdx
	cmpq	$97, %rax
	je	.LBB3_143
# BB#131:                               # %cond.false171.us.i
                                        #   in Loop: Header=BB3_113 Depth=3
	movq	$4, %rdx
	cmpq	$98, %rax
	je	.LBB3_143
# BB#132:                               # %cond.false176.us.i
                                        #   in Loop: Header=BB3_113 Depth=3
	movq	$3, %rdx
	cmpq	$99, %rax
	je	.LBB3_143
# BB#133:                               # %cond.false181.us.i
                                        #   in Loop: Header=BB3_113 Depth=3
	movq	$56, %rcx
	movq	%rax, %rdx
	shlq	%cl, %rdx
	movq	$56, %rcx
	sarq	%cl, %rdx
	cmpq	$119, %rdx
	jg	.LBB3_136
# BB#134:                               # %cond.false181.us.i
                                        #   in Loop: Header=BB3_113 Depth=3
	cmpq	$89, %rax
	movq	112(%rsp), %rdx         # 8-byte Reload
	je	.LBB3_143
# BB#135:                               # %cond.false181.us.i
                                        #   in Loop: Header=BB3_113 Depth=3
	movq	$2, %rdx
	cmpq	$100, %rax
	jne	.LBB3_138
	jmp	.LBB3_143
.LBB3_136:                              # %cond.false181.us.i
                                        #   in Loop: Header=BB3_113 Depth=3
	cmpq	$120, %rax
	movq	104(%rsp), %rdx         # 8-byte Reload
	je	.LBB3_143
# BB#137:                               # %cond.false181.us.i
                                        #   in Loop: Header=BB3_113 Depth=3
	cmpq	$121, %rax
	movq	120(%rsp), %rdx         # 8-byte Reload
	je	.LBB3_143
.LBB3_138:                              # %cond.false213.us.i
                                        #   in Loop: Header=BB3_113 Depth=3
	movq	$7, %rdx
	cmpq	$65, %rax
	je	.LBB3_143
# BB#139:                               # %cond.false218.us.i
                                        #   in Loop: Header=BB3_113 Depth=3
	movq	$6, %rdx
	cmpq	$68, %rax
	je	.LBB3_143
# BB#140:                               # %cond.false223.us.i
                                        #   in Loop: Header=BB3_113 Depth=3
	cmpq	$83, %rax
	movabsq	$0, %rax
	jne	.LBB3_142
# BB#141:                               # %cond.false223.us.i
                                        #   in Loop: Header=BB3_113 Depth=3
	movabsq	$1, %rax
.LBB3_142:                              # %cond.false223.us.i
                                        #   in Loop: Header=BB3_113 Depth=3
	leaq	(%rax,%rax,4), %rdx
	jmp	.LBB3_143
	.align	16, 0x90
.LBB3_199:                              # %cond.end257.i
                                        #   in Loop: Header=BB3_145 Depth=3
	movq	$32, %rcx
	shlq	%cl, %r10
	movq	$32, %rcx
	sarq	%cl, %r10
	imulq	$100, %r10, %rax
	movl	reg_class_subunion(%rax,%rdx,4), %r10d
	jmp	.LBB3_145
.LBB3_144:                              # %sw.bb111.i
                                        #   in Loop: Header=BB3_145 Depth=3
	movq	$32, %rcx
	shlq	%cl, %r10
	movq	$32, %rcx
	sarq	%cl, %r10
	imulq	$100, %r10, %rax
	movl	reg_class_subunion+48(%rax), %r10d
	.align	16, 0x90
.LBB3_145:                              # %for.cond72.i
                                        #   Parent Loop BB3_91 Depth=1
                                        #     Parent Loop BB3_112 Depth=2
                                        # =>    This Loop Header: Depth=3
                                        #         Child Loop BB3_148 Depth 4
	movzbl	(%r9), %eax
	incq	%r9
	cmpq	$44, %rax
	ja	.LBB3_173
# BB#146:                               # %for.cond72.i
                                        #   in Loop: Header=BB3_145 Depth=3
	movq	$1, %rdx
	movq	%rax, %rcx
	shlq	%cl, %rdx
	testq	%rbx, %rdx
	je	.LBB3_173
# BB#147:                               # %if.then84.i
                                        #   in Loop: Header=BB3_145 Depth=3
	movq	$32, %rcx
	shlq	%cl, %r10
	movq	$32, %rcx
	sarq	%cl, %r10
	movq	reg_class_contents(,%r10,8), %rcx
	cmpq	$35, %rax
	jne	.LBB3_150
.LBB3_148:                              # %do.body.i
                                        #   Parent Loop BB3_91 Depth=1
                                        #     Parent Loop BB3_112 Depth=2
                                        #       Parent Loop BB3_145 Depth=3
                                        # =>      This Inner Loop Header: Depth=4
	movzbl	(%r9), %eax
	incq	%r9
	testq	%rax, %rax
	je	.LBB3_150
# BB#149:                               # %do.body.i
                                        #   in Loop: Header=BB3_148 Depth=4
	cmpq	$44, %rax
	jne	.LBB3_148
	.align	16, 0x90
.LBB3_150:                              # %if.end99.i
                                        #   in Loop: Header=BB3_145 Depth=3
	orq	%rcx, %r12
	testq	%rax, %rax
	movabsq	$0, %r10
	jne	.LBB3_145
	jmp	.LBB3_151
	.align	16, 0x90
.LBB3_173:                              # %if.end105.i
                                        #   in Loop: Header=BB3_145 Depth=3
	movq	$56, %rcx
	movq	%rax, %rdx
	shlq	%cl, %rdx
	movq	$56, %rcx
	sarq	%cl, %rdx
	addq	$-33, %rdx
	andq	%r13, %rdx
	cmpq	$82, %rdx
	ja	.LBB3_175
# BB#174:                               # %if.end105.i
                                        #   in Loop: Header=BB3_145 Depth=3
	jmpq	*.LJTI3_0(,%rdx,8)
	.align	16, 0x90
.LBB3_175:                              # %sw.default.i
                                        #   in Loop: Header=BB3_145 Depth=3
	movq	$12, %rdx
	cmpq	$114, %rax
	je	.LBB3_199
# BB#176:                               # %cond.false.i
                                        #   in Loop: Header=BB3_145 Depth=3
	movq	$11, %rdx
	cmpq	$82, %rax
	je	.LBB3_199
# BB#177:                               # %cond.false.i
                                        #   in Loop: Header=BB3_145 Depth=3
	cmpq	$113, %rax
	movq	%r15, %rdx
	je	.LBB3_199
# BB#178:                               # %cond.false127.i
                                        #   in Loop: Header=BB3_145 Depth=3
	movq	$56, %rcx
	movq	%rax, %rdx
	shlq	%cl, %rdx
	movq	$56, %rcx
	sarq	%cl, %rdx
	cmpq	$101, %rdx
	jg	.LBB3_186
# BB#179:                               # %cond.false127.i
                                        #   in Loop: Header=BB3_145 Depth=3
	movq	$8, %rdx
	cmpq	$81, %rax
	je	.LBB3_199
	jmp	.LBB3_180
.LBB3_186:                              # %cond.false127.i
                                        #   in Loop: Header=BB3_145 Depth=3
	cmpq	$117, %rax
	je	.LBB3_191
# BB#187:                               # %cond.false127.i
                                        #   in Loop: Header=BB3_145 Depth=3
	cmpq	$116, %rax
	jne	.LBB3_188
# BB#190:                               # %cond.true146.i
                                        #   in Loop: Header=BB3_145 Depth=3
	movq	$13, %rdx
	jmp	.LBB3_199
.LBB3_191:                              # %cond.true158.i
                                        #   in Loop: Header=BB3_145 Depth=3
	movq	$14, %rdx
	jmp	.LBB3_199
.LBB3_188:                              # %cond.false127.i
                                        #   in Loop: Header=BB3_145 Depth=3
	cmpq	$102, %rax
	jne	.LBB3_180
# BB#189:                               # %cond.true136.i
                                        #   in Loop: Header=BB3_145 Depth=3
	movq	$15, %rdx
	jmp	.LBB3_199
.LBB3_180:                              # %cond.false166.i
                                        #   in Loop: Header=BB3_145 Depth=3
	movq	$1, %rdx
	cmpq	$97, %rax
	je	.LBB3_199
# BB#181:                               # %cond.false171.i
                                        #   in Loop: Header=BB3_145 Depth=3
	movq	$4, %rdx
	cmpq	$98, %rax
	je	.LBB3_199
# BB#182:                               # %cond.false176.i
                                        #   in Loop: Header=BB3_145 Depth=3
	movq	$3, %rdx
	cmpq	$99, %rax
	je	.LBB3_199
# BB#183:                               # %cond.false181.i
                                        #   in Loop: Header=BB3_145 Depth=3
	movq	$56, %rcx
	movq	%rax, %rdx
	shlq	%cl, %rdx
	movq	$56, %rcx
	sarq	%cl, %rdx
	cmpq	$119, %rdx
	jg	.LBB3_192
# BB#184:                               # %cond.false181.i
                                        #   in Loop: Header=BB3_145 Depth=3
	cmpq	$89, %rax
	movq	112(%rsp), %rdx         # 8-byte Reload
	je	.LBB3_199
# BB#185:                               # %cond.false181.i
                                        #   in Loop: Header=BB3_145 Depth=3
	movq	$2, %rdx
	cmpq	$100, %rax
	jne	.LBB3_194
	jmp	.LBB3_199
.LBB3_192:                              # %cond.false181.i
                                        #   in Loop: Header=BB3_145 Depth=3
	cmpq	$121, %rax
	movq	120(%rsp), %rdx         # 8-byte Reload
	je	.LBB3_199
# BB#193:                               # %cond.false181.i
                                        #   in Loop: Header=BB3_145 Depth=3
	cmpq	$120, %rax
	movq	104(%rsp), %rdx         # 8-byte Reload
	je	.LBB3_199
.LBB3_194:                              # %cond.false213.i
                                        #   in Loop: Header=BB3_145 Depth=3
	movq	$7, %rdx
	cmpq	$65, %rax
	je	.LBB3_199
# BB#195:                               # %cond.false218.i
                                        #   in Loop: Header=BB3_145 Depth=3
	movq	$6, %rdx
	cmpq	$68, %rax
	je	.LBB3_199
# BB#196:                               # %cond.false223.i
                                        #   in Loop: Header=BB3_145 Depth=3
	cmpq	$83, %rax
	movabsq	$0, %rax
	jne	.LBB3_198
# BB#197:                               # %cond.false223.i
                                        #   in Loop: Header=BB3_145 Depth=3
	movabsq	$1, %rax
.LBB3_198:                              # %cond.false223.i
                                        #   in Loop: Header=BB3_145 Depth=3
	leaq	(%rax,%rax,4), %rdx
	jmp	.LBB3_199
	.align	16, 0x90
.LBB3_151:                              # %for.inc264.i
                                        #   in Loop: Header=BB3_112 Depth=2
	incq	%r8
	movq	%r8, %rax
	andq	%r13, %rax
	movq	%r11, %rcx
	andq	%r13, %rcx
	cmpq	%rcx, %rax
	jne	.LBB3_112
.LBB3_152:                              # %for.end266.i
                                        #   in Loop: Header=BB3_91 Depth=1
	movq	128(%rsp), %rax         # 8-byte Reload
	andq	%rax, %r12
	movq	152(%rsp), %rax         # 8-byte Reload
	leaq	40(%rax), %rbx
	leaq	64(%rax), %r14
	xorq	%r15, %r15
	.align	16, 0x90
.LBB3_153:                              # %for.body271.i
                                        #   Parent Loop BB3_91 Depth=1
                                        # =>  This Inner Loop Header: Depth=2
	movq	$1, %rax
	movq	%r15, %rcx
	shlq	%cl, %rax
	testq	%rax, %r12
	je	.LBB3_155
# BB#154:                               # %if.then276.i
                                        #   in Loop: Header=BB3_153 Depth=2
	movq	%rbx, %rdi
	movq	%r15, %rsi
	callq	bitmap_clear_bit
	movq	%r14, %rdi
	movq	%r15, %rsi
	callq	bitmap_clear_bit
.LBB3_155:                              # %for.inc278.i
                                        #   in Loop: Header=BB3_153 Depth=2
	incq	%r15
	cmpq	$53, %r15
	jne	.LBB3_153
	.align	16, 0x90
.LBB3_156:                              # %for.inc281.i
                                        #   in Loop: Header=BB3_91 Depth=1
	movq	152(%rsp), %rax         # 8-byte Reload
	movq	(%rax), %rax
	testq	%rax, %rax
	jne	.LBB3_91
.LBB3_157:                              # %for.body473.lr.ph
	movq	$0, insns_need_reload(%rip)
	xorq	%rcx, %rcx
	movq	reg_eliminate(%rip), %rax
	movb	%cl, something_needs_elimination(%rip)
	movabsq	$4294967295, %rdx       # imm = 0xFFFFFFFF
	movl	%edx, last_spill_reg(%rip)
	movq	$0, used_spill_regs(%rip)
	movq	%rax, %rbx
	.align	16, 0x90
.LBB3_158:                              # %for.body473
                                        # =>This Inner Loop Header: Depth=1
	movl	12(%rbx), %ecx
	testq	%rcx, %rcx
	jne	.LBB3_160
# BB#159:                               # %if.then475
                                        #   in Loop: Header=BB3_158 Depth=1
	movl	(%rbx), %edi
	movq	%rdx, %r14
	callq	spill_hard_reg
	movq	%r14, %rdx
	movq	reg_eliminate(%rip), %rax
.LBB3_160:                              # %for.inc477
                                        #   in Loop: Header=BB3_158 Depth=1
	addq	$48, %rbx
	leaq	192(%rax), %rcx
	cmpq	%rcx, %rbx
	jb	.LBB3_158
# BB#161:                               # %for.end478
	movq	%rdx, %r12
	movl	frame_pointer_needed(%rip), %eax
	testq	%rax, %rax
	je	.LBB3_163
# BB#162:                               # %if.then480
	movq	$6, %rdi
	callq	spill_hard_reg
.LBB3_163:                              # %if.end481
	movq	64(%rsp), %rdi          # 8-byte Reload
	callq	finish_spills
	movq	$1, %rax
	xorq	%r13, %r13
	movl	%eax, reload_in_progress(%rip)
	jmp	.LBB3_164
.LBB3_516:                              # %if.else868
                                        #   in Loop: Header=BB3_164 Depth=1
	movq	%r10, %r12
	movabsq	$reload_obstack, %rdi
	callq	obstack_free
	.align	16, 0x90
.LBB3_164:                              # %for.cond483
                                        # =>This Loop Header: Depth=1
                                        #     Child Loop BB3_167 Depth 2
                                        #     Child Loop BB3_169 Depth 2
                                        #     Child Loop BB3_201 Depth 2
                                        #     Child Loop BB3_240 Depth 2
                                        #       Child Loop BB3_241 Depth 3
                                        #         Child Loop BB3_274 Depth 4
                                        #     Child Loop BB3_301 Depth 2
                                        #     Child Loop BB3_308 Depth 2
                                        #       Child Loop BB3_311 Depth 3
                                        #       Child Loop BB3_317 Depth 3
                                        #     Child Loop BB3_323 Depth 2
                                        #     Child Loop BB3_340 Depth 2
                                        #     Child Loop BB3_344 Depth 2
                                        #       Child Loop BB3_346 Depth 3
                                        #       Child Loop BB3_368 Depth 3
                                        #         Child Loop BB3_370 Depth 4
                                        #         Child Loop BB3_374 Depth 4
                                        #       Child Loop BB3_381 Depth 3
                                        #         Child Loop BB3_383 Depth 4
                                        #         Child Loop BB3_387 Depth 4
                                        #       Child Loop BB3_393 Depth 3
                                        #         Child Loop BB3_402 Depth 4
                                        #           Child Loop BB3_408 Depth 5
                                        #         Child Loop BB3_400 Depth 4
                                        #           Child Loop BB3_424 Depth 5
                                        #         Child Loop BB3_462 Depth 4
                                        #           Child Loop BB3_464 Depth 5
                                        #           Child Loop BB3_468 Depth 5
                                        #         Child Loop BB3_475 Depth 4
                                        #           Child Loop BB3_477 Depth 5
                                        #           Child Loop BB3_481 Depth 5
                                        #         Child Loop BB3_486 Depth 4
                                        #     Child Loop BB3_503 Depth 2
                                        #       Child Loop BB3_505 Depth 3
	movq	cfun(%rip), %rax
	movl	400(%rax), %edx
	testq	%rdx, %rdx
	je	.LBB3_166
# BB#165:                               # %if.then488
                                        #   in Loop: Header=BB3_164 Depth=1
	movq	$51, %rdi
	xorq	%rsi, %rsi
	callq	assign_stack_local
.LBB3_166:                              # %if.end491
                                        #   in Loop: Header=BB3_164 Depth=1
	callq	get_frame_size
	movq	reg_eliminate(%rip), %rbx
	movq	%rax, %r15
	.align	16, 0x90
.LBB3_167:                              # %for.body.i1630
                                        #   Parent Loop BB3_164 Depth=1
                                        # =>  This Inner Loop Header: Depth=2
	movl	4(%rbx), %esi
	movl	(%rbx), %edi
	callq	ix86_initial_elimination_offset
	movl	%eax, 8(%rbx)
	movl	%eax, 20(%rbx)
	movl	%eax, 24(%rbx)
	movq	reg_eliminate(%rip), %rax
	addq	$192, %rax
	addq	$48, %rbx
	cmpq	%rax, %rbx
	jb	.LBB3_167
# BB#168:                               # %set_initial_elim_offsets.exit
                                        #   in Loop: Header=BB3_164 Depth=1
	movl	%r13d, num_not_at_initial_offset(%rip)
	callq	get_first_label_num
	movq	$32, %rcx
	shlq	%cl, %rax
	movq	offsets_known_at(%rip), %rdi
	movslq	num_labels(%rip), %rdx
	movq	$32, %rcx
	sarq	%cl, %rax
	addq	%rax, %rdi
	xorq	%rsi, %rsi
	callq	memset
	movq	cfun(%rip), %rax
	movq	16(%rax), %rax
	movq	32(%rax), %rbx
	jmp	.LBB3_169
	.align	16, 0x90
.LBB3_172:                              # %for.inc.i1640
                                        #   in Loop: Header=BB3_169 Depth=2
	movq	16(%rbx), %rbx
.LBB3_169:                              # %set_initial_elim_offsets.exit
                                        #   Parent Loop BB3_164 Depth=1
                                        # =>  This Inner Loop Header: Depth=2
	testq	%rbx, %rbx
	je	.LBB3_200
# BB#170:                               # %for.body.i1637
                                        #   in Loop: Header=BB3_169 Depth=2
	movq	8(%rbx), %rdi
	testq	%rdi, %rdi
	je	.LBB3_172
# BB#171:                               # %if.then.i1638
                                        #   in Loop: Header=BB3_169 Depth=2
	xorq	%rsi, %rsi
	movq	$1, %rdx
	callq	set_label_offsets
	jmp	.LBB3_172
	.align	16, 0x90
.LBB3_200:                              # %for.cond493.preheader
                                        #   in Loop: Header=BB3_164 Depth=1
	movslq	max_regno(%rip), %rax
	cmpq	$54, %rax
	movq	$53, %rbx
	jl	.LBB3_221
	.align	16, 0x90
.LBB3_201:                              # %for.body496
                                        #   Parent Loop BB3_164 Depth=1
                                        # =>  This Inner Loop Header: Depth=2
	movq	reg_renumber(%rip), %rax
	movswq	(%rax,%rbx,2), %rax
	testq	%rax, %rax
	jns	.LBB3_220
# BB#202:                               # %land.lhs.true502
                                        #   in Loop: Header=BB3_201 Depth=2
	movq	reg_equiv_memory_loc(%rip), %rax
	movq	(%rax,%rbx,8), %rdi
	testq	%rdi, %rdi
	je	.LBB3_220
# BB#203:                               # %if.then506
                                        #   in Loop: Header=BB3_201 Depth=2
	xorq	%rsi, %rsi
	xorq	%rdx, %rdx
	callq	eliminate_regs
	movq	cfun(%rip), %rcx
	movq	24(%rcx), %rcx
	movq	80(%rcx), %rcx
	movq	(%rcx,%rbx,8), %rcx
	movq	%rax, %r14
	movq	8(%r14), %rsi
	movzbl	2(%rcx), %edi
	callq	strict_memory_address_p
	movq	%r12, %rsi
	testq	%rsi, %rax
	jne	.LBB3_204
# BB#205:                               # %if.else527
                                        #   in Loop: Header=BB3_201 Depth=2
	movq	8(%r14), %rax
	movzbl	(%rax), %ecx
	cmpq	$133, %rcx
	jg	.LBB3_215
# BB#206:                               # %if.else527
                                        #   in Loop: Header=BB3_201 Depth=2
	addq	$-54, %rcx
	andq	%rsi, %rcx
	cmpq	$21, %rcx
	ja	.LBB3_219
# BB#207:                               # %if.else527
                                        #   in Loop: Header=BB3_201 Depth=2
	movq	$1, %rdx
	shlq	%cl, %rdx
	testq	$24599, %rdx            # imm = 0x6017
	jne	.LBB3_217
# BB#208:                               # %if.else527
                                        #   in Loop: Header=BB3_201 Depth=2
	cmpq	$7, %rcx
	jne	.LBB3_209
# BB#218:                               # %land.lhs.true599
                                        #   in Loop: Header=BB3_201 Depth=2
	movl	8(%rax), %ecx
	cmpq	$53, %rcx
	jb	.LBB3_217
	jmp	.LBB3_219
.LBB3_204:                              # %if.then522
                                        #   in Loop: Header=BB3_201 Depth=2
	movq	%rsi, %r12
	movq	reg_equiv_mem(%rip), %rax
	movq	%r14, (%rax,%rbx,8)
	movq	reg_equiv_address(%rip), %rax
	movq	$0, (%rax,%rbx,8)
	jmp	.LBB3_220
.LBB3_209:                              # %if.else527
                                        #   in Loop: Header=BB3_201 Depth=2
	cmpq	$21, %rcx
	jne	.LBB3_219
# BB#210:                               # %land.lhs.true616
                                        #   in Loop: Header=BB3_201 Depth=2
	movq	8(%rax), %rcx
	movzbl	(%rcx), %edx
	cmpq	$61, %rdx
	jne	.LBB3_219
# BB#211:                               # %land.lhs.true627
                                        #   in Loop: Header=BB3_201 Depth=2
	movl	8(%rcx), %ecx
	cmpq	$52, %rcx
	ja	.LBB3_219
# BB#212:                               # %land.lhs.true639
                                        #   in Loop: Header=BB3_201 Depth=2
	movq	16(%rax), %rcx
	movzbl	(%rcx), %ecx
	cmpq	$133, %rcx
	jg	.LBB3_215
# BB#213:                               # %land.lhs.true639
                                        #   in Loop: Header=BB3_201 Depth=2
	addq	$-54, %rcx
	andq	%rsi, %rcx
	cmpq	$14, %rcx
	ja	.LBB3_219
# BB#214:                               # %land.lhs.true639
                                        #   in Loop: Header=BB3_201 Depth=2
	movq	$1, %rdx
	shlq	%cl, %rdx
	testq	$24599, %rdx            # imm = 0x6017
	jne	.LBB3_217
	jmp	.LBB3_219
.LBB3_215:                              # %land.lhs.true639
                                        #   in Loop: Header=BB3_201 Depth=2
	cmpq	$134, %rcx
	je	.LBB3_217
# BB#216:                               # %land.lhs.true639
                                        #   in Loop: Header=BB3_201 Depth=2
	cmpq	$140, %rcx
	jne	.LBB3_219
.LBB3_217:                              # %if.then727
                                        #   in Loop: Header=BB3_201 Depth=2
	movq	%rsi, %r12
	movq	reg_equiv_address(%rip), %rcx
	movq	%rax, (%rcx,%rbx,8)
	movq	reg_equiv_mem(%rip), %rax
	movq	$0, (%rax,%rbx,8)
	jmp	.LBB3_220
.LBB3_219:                              # %if.else735
                                        #   in Loop: Header=BB3_201 Depth=2
	movq	reg_equiv_memory_loc(%rip), %rax
	movq	$0, (%rax,%rbx,8)
	movq	reg_equiv_init(%rip), %rax
	movq	$0, (%rax,%rbx,8)
	movq	%rbx, %rdi
	movq	%rsi, %r12
	callq	alter_reg
	.align	16, 0x90
.LBB3_220:                              # %for.inc743
                                        #   in Loop: Header=BB3_201 Depth=2
	incq	%rbx
	movslq	max_regno(%rip), %rax
	movq	$32, %rcx
	movq	%rbx, %rdx
	shlq	%cl, %rdx
	movq	$32, %rcx
	sarq	%cl, %rdx
	cmpq	%rax, %rdx
	jl	.LBB3_201
.LBB3_221:                              # %for.end745
                                        #   in Loop: Header=BB3_164 Depth=1
	movl	caller_save_needed(%rip), %eax
	testq	%rax, %rax
	je	.LBB3_223
# BB#222:                               # %if.then747
                                        #   in Loop: Header=BB3_164 Depth=1
	callq	setup_save_areas
.LBB3_223:                              # %if.end748
                                        #   in Loop: Header=BB3_164 Depth=1
	callq	get_frame_size
	cmpq	%rax, %r15
	jne	.LBB3_164
# BB#224:                               # %if.end753
                                        #   in Loop: Header=BB3_164 Depth=1
	movl	caller_save_needed(%rip), %eax
	testq	%rax, %rax
	jne	.LBB3_226
# BB#225:                               # %if.end753.if.end821_crit_edge
                                        #   in Loop: Header=BB3_164 Depth=1
	movq	reload_obstack+32(%rip), %rbx
	movq	reload_obstack+24(%rip), %rax
	jmp	.LBB3_233
	.align	16, 0x90
.LBB3_226:                              # %if.then755
                                        #   in Loop: Header=BB3_164 Depth=1
	callq	save_call_clobbered_regs
	movq	reload_obstack+32(%rip), %rax
	movq	reload_obstack+24(%rip), %rdx
	cmpq	%rdx, %rax
	jns	.LBB3_228
# BB#227:                               # %if.then770
                                        #   in Loop: Header=BB3_164 Depth=1
	xorq	%rsi, %rsi
	movabsq	$reload_obstack, %rdi
	callq	_obstack_newchunk
	movq	reload_obstack+24(%rip), %rdx
.LBB3_228:                              # %if.end771
                                        #   in Loop: Header=BB3_164 Depth=1
	movq	reload_obstack+16(%rip), %rcx
	cmpq	%rcx, %rdx
	jne	.LBB3_230
# BB#229:                               # %if.then784
                                        #   in Loop: Header=BB3_164 Depth=1
	movzbl	reload_obstack+80(%rip), %eax
	orq	$2, %rax
	movb	%al, reload_obstack+80(%rip)
.LBB3_230:                              # %if.end789
                                        #   in Loop: Header=BB3_164 Depth=1
	movslq	reload_obstack+48(%rip), %rax
	addq	%rax, %rdx
	notq	%rax
	andq	%rdx, %rax
	movq	%rax, reload_obstack+24(%rip)
	movq	reload_obstack+32(%rip), %rbx
	movq	reload_obstack+8(%rip), %rsi
	movq	%rax, %rdi
	subq	%rsi, %rdi
	movq	%rbx, %rdx
	subq	%rsi, %rdx
	cmpq	%rdx, %rdi
	jle	.LBB3_232
# BB#231:                               # %if.then814
                                        #   in Loop: Header=BB3_164 Depth=1
	movq	%rbx, reload_obstack+24(%rip)
	movq	%rbx, %rax
.LBB3_232:                              # %if.end817
                                        #   in Loop: Header=BB3_164 Depth=1
	movq	%rax, reload_obstack+16(%rip)
	movq	%rcx, reload_firstobj(%rip)
.LBB3_233:                              # %if.end821
                                        #   in Loop: Header=BB3_164 Depth=1
	movb	%r13b, something_needs_elimination(%rip)
	cmpq	%rax, %rbx
	jns	.LBB3_235
# BB#234:                               # %if.then.i1644
                                        #   in Loop: Header=BB3_164 Depth=1
	xorq	%rsi, %rsi
	movabsq	$reload_obstack, %rdi
	callq	_obstack_newchunk
	movq	reload_obstack+24(%rip), %rax
.LBB3_235:                              # %if.end.i1645
                                        #   in Loop: Header=BB3_164 Depth=1
	movq	reload_obstack+16(%rip), %rcx
	cmpq	%rcx, %rax
	jne	.LBB3_237
# BB#236:                               # %if.then8.i
                                        #   in Loop: Header=BB3_164 Depth=1
	movzbl	reload_obstack+80(%rip), %edx
	orq	$2, %rdx
	movb	%dl, reload_obstack+80(%rip)
.LBB3_237:                              # %if.end9.i
                                        #   in Loop: Header=BB3_164 Depth=1
	movslq	reload_obstack+48(%rip), %rdx
	addq	%rdx, %rax
	notq	%rdx
	andq	%rax, %rdx
	movq	%rdx, reload_obstack+24(%rip)
	movq	reload_obstack+32(%rip), %rbx
	movq	reload_obstack+8(%rip), %rsi
	movq	%rdx, %rdi
	subq	%rsi, %rdi
	movq	%rbx, %rax
	subq	%rsi, %rax
	cmpq	%rax, %rdi
	jle	.LBB3_239
# BB#238:                               # %if.then29.i
                                        #   in Loop: Header=BB3_164 Depth=1
	movq	%rbx, reload_obstack+24(%rip)
	movq	%rbx, %rdx
.LBB3_239:                              # %if.end32.i
                                        #   in Loop: Header=BB3_164 Depth=1
	movq	%r15, 136(%rsp)         # 8-byte Spill
	movq	reload_insn_chain(%rip), %r15
	movq	%rdx, reload_obstack+16(%rip)
	movq	%rcx, reload_insn_firstobj(%rip)
	testq	%r15, %r15
	movabsq	$insns_need_reload, %rax
	movq	%rax, %rcx
	movq	%rax, %r14
	je	.LBB3_300
.LBB3_240:                              # %for.body.lr.ph.i1649
                                        #   Parent Loop BB3_164 Depth=1
                                        # =>  This Loop Header: Depth=2
                                        #       Child Loop BB3_241 Depth 3
                                        #         Child Loop BB3_274 Depth 4
	movq	%rcx, 120(%rsp)         # 8-byte Spill
	movq	%r12, %rbx
	movq	%r15, %r12
	jmp	.LBB3_241
.LBB3_267:                              # %if.then217.i
                                        #   in Loop: Header=BB3_241 Depth=3
	movq	152(%rsp), %r12         # 8-byte Reload
	movq	%r12, (%rax)
.LBB3_269:                              # %if.end220.i
                                        #   in Loop: Header=BB3_241 Depth=3
	testq	%r12, %r12
	je	.LBB3_271
# BB#270:                               # %if.then222.i
                                        #   in Loop: Header=BB3_241 Depth=3
	movq	8(%r14), %rax
	movq	%rax, 8(%r12)
.LBB3_271:                              # %if.end225.i
                                        #   in Loop: Header=BB3_241 Depth=3
	movq	unused_insn_chains(%rip), %rax
	movq	%rax, (%r14)
	movq	%r14, unused_insn_chains(%rip)
	jmp	.LBB3_253
	.align	16, 0x90
.LBB3_241:                              # %for.body.i1650
                                        #   Parent Loop BB3_164 Depth=1
                                        #     Parent Loop BB3_240 Depth=2
                                        # =>    This Loop Header: Depth=3
                                        #         Child Loop BB3_274 Depth 4
	movq	%r12, %r14
	movq	(%r14), %r12
	movq	32(%r14), %r15
	movl	%r13d, 96(%r14)
	movzbl	262(%r14), %eax
	andq	$248, %rax
	movb	%al, 262(%r14)
	movl	(%r15), %eax
	movq	%rax, %rcx
	andq	$65535, %rcx            # imm = 0xFFFF
	cmpq	$33, %rcx
	je	.LBB3_245
# BB#242:                               # %for.body.i1650
                                        #   in Loop: Header=BB3_241 Depth=3
	cmpq	$36, %rcx
	je	.LBB3_245
# BB#243:                               # %lor.lhs.false55.i
                                        #   in Loop: Header=BB3_241 Depth=3
	movzbl	rtx_class(%rcx), %ecx
	cmpq	$105, %rcx
	jne	.LBB3_246
# BB#244:                               # %land.lhs.true.i1653
                                        #   in Loop: Header=BB3_241 Depth=3
	cmpq	$0, 56(%r15)
	je	.LBB3_246
	.align	16, 0x90
.LBB3_245:                              # %if.then64.i
                                        #   in Loop: Header=BB3_241 Depth=3
	xorq	%rdx, %rdx
	movq	%r15, %rdi
	movq	%r15, %rsi
	callq	set_label_offsets
	movl	(%r15), %eax
.LBB3_246:                              # %if.end65.i
                                        #   in Loop: Header=BB3_241 Depth=3
	andq	$65535, %rax            # imm = 0xFFFF
	movzbl	rtx_class(%rax), %eax
	cmpq	$105, %rax
	jne	.LBB3_253
# BB#247:                               # %if.then73.i
                                        #   in Loop: Header=BB3_241 Depth=3
	movq	32(%r15), %r13
	movq	56(%r15), %rax
	movq	%rax, 144(%rsp)         # 8-byte Spill
	movzbl	(%r13), %eax
	cmpq	$47, %rax
	movq	%r13, %rax
	je	.LBB3_249
# BB#248:                               # %cond.false.i1655
                                        #   in Loop: Header=BB3_241 Depth=3
	movq	%r15, %rdi
	movq	%r13, %rsi
	callq	single_set_2
.LBB3_249:                              # %cond.end110.i
                                        #   in Loop: Header=BB3_241 Depth=3
	testq	%rax, %rax
	je	.LBB3_255
# BB#250:                               # %land.lhs.true112.i
                                        #   in Loop: Header=BB3_241 Depth=3
	movq	8(%rax), %rax
	movzbl	(%rax), %ecx
	cmpq	$61, %rcx
	jne	.LBB3_255
# BB#251:                               # %land.lhs.true120.i
                                        #   in Loop: Header=BB3_241 Depth=3
	movl	8(%rax), %eax
	movq	reg_renumber(%rip), %rcx
	movswq	(%rcx,%rax,2), %rcx
	testq	%rcx, %rcx
	jns	.LBB3_255
# BB#252:                               # %land.lhs.true131.i
                                        #   in Loop: Header=BB3_241 Depth=3
	movq	reg_equiv_constant(%rip), %rcx
	cmpq	$0, (%rcx,%rax,8)
	jne	.LBB3_253
	.align	16, 0x90
.LBB3_255:                              # %if.end142.i
                                        #   in Loop: Header=BB3_241 Depth=3
	movq	%r12, 152(%rsp)         # 8-byte Spill
	movl	num_eliminable(%rip), %eax
	movl	num_eliminable_invariants(%rip), %ecx
	orq	%rax, %rcx
	xorq	%r12, %r12
	testq	%rbx, %rcx
	je	.LBB3_257
# BB#256:                               # %if.then146.i
                                        #   in Loop: Header=BB3_241 Depth=3
	xorq	%rsi, %rsi
	movq	%r15, %rdi
	callq	eliminate_regs_in_insn
	movq	%rax, %r12
.LBB3_257:                              # %if.end148.i
                                        #   in Loop: Header=BB3_241 Depth=3
	movsbq	spill_indirect_levels(%rip), %rdx
	xorq	%rsi, %rsi
	movq	%r15, %rdi
	movq	64(%rsp), %rcx          # 8-byte Reload
	movabsq	$spill_reg_order, %r8
	callq	find_reloads
	movl	flag_expensive_optimizations(%rip), %ecx
	movq	%rax, %rdx
	testq	%rcx, %rcx
	je	.LBB3_272
# BB#258:                               # %if.end148.i
                                        #   in Loop: Header=BB3_241 Depth=3
	movl	n_reloads(%rip), %eax
	movq	$32, %rcx
	shlq	%cl, %rax
	movq	$32, %rcx
	sarq	%cl, %rax
	cmpq	$2, %rax
	jl	.LBB3_272
# BB#259:                               # %if.then155.i
                                        #   in Loop: Header=BB3_241 Depth=3
	movzbl	(%r15), %eax
	movzbl	rtx_class(%rax), %eax
	cmpq	$105, %rax
	jne	.LBB3_272
# BB#260:                               # %cond.true165.i
                                        #   in Loop: Header=BB3_241 Depth=3
	movq	32(%r15), %rax
	movzbl	(%rax), %ecx
	cmpq	$47, %rcx
	je	.LBB3_262
# BB#261:                               # %cond.false177.i
                                        #   in Loop: Header=BB3_241 Depth=3
	movq	%r15, %rdi
	movq	%rdx, 128(%rsp)         # 8-byte Spill
	movq	%rax, %rsi
	callq	single_set_2
	movq	128(%rsp), %rdx         # 8-byte Reload
.LBB3_262:                              # %cond.end185.i
                                        #   in Loop: Header=BB3_241 Depth=3
	testq	%rax, %rax
	je	.LBB3_272
# BB#263:                               # %land.lhs.true188.i
                                        #   in Loop: Header=BB3_241 Depth=3
	movq	8(%rax), %rcx
	movq	16(%rax), %rax
	cmpq	%rcx, %rax
	jne	.LBB3_272
# BB#264:                               # %land.lhs.true197.i
                                        #   in Loop: Header=BB3_241 Depth=3
	movzbl	(%rax), %ecx
	cmpq	$61, %rcx
	jne	.LBB3_272
# BB#265:                               # %land.lhs.true205.i
                                        #   in Loop: Header=BB3_241 Depth=3
	movl	8(%rax), %eax
	cmpq	$53, %rax
	jb	.LBB3_272
# BB#266:                               # %if.then214.i
                                        #   in Loop: Header=BB3_241 Depth=3
	movq	%r15, %rdi
	callq	delete_insn
	movq	8(%r14), %rax
	testq	%rax, %rax
	jne	.LBB3_267
# BB#268:                               # %if.else.i
                                        #   in Loop: Header=BB3_241 Depth=3
	movq	152(%rsp), %r12         # 8-byte Reload
	movq	%r12, reload_insn_chain(%rip)
	jmp	.LBB3_269
	.align	16, 0x90
.LBB3_272:                              # %if.end228.i
                                        #   in Loop: Header=BB3_241 Depth=3
	movq	%rdx, %rdi
	movl	num_eliminable(%rip), %eax
	testq	%rax, %rax
	je	.LBB3_278
# BB#273:                               # %if.then230.i
                                        #   in Loop: Header=BB3_241 Depth=3
	movq	reg_eliminate(%rip), %rax
	xorq	%rcx, %rcx
	movl	%ecx, num_not_at_initial_offset(%rip)
	leaq	192(%rax), %rcx
	.align	16, 0x90
.LBB3_274:                              # %for.body.i.i
                                        #   Parent Loop BB3_164 Depth=1
                                        #     Parent Loop BB3_240 Depth=2
                                        #       Parent Loop BB3_241 Depth=3
                                        # =>      This Inner Loop Header: Depth=4
	movl	20(%rax), %edx
	movl	%edx, 24(%rax)
	movl	12(%rax), %esi
	testq	%rsi, %rsi
	je	.LBB3_277
# BB#275:                               # %land.lhs.true.i.i
                                        #   in Loop: Header=BB3_274 Depth=4
	movl	8(%rax), %esi
	andq	%rbx, %rdx
	cmpq	%rsi, %rdx
	je	.LBB3_277
# BB#276:                               # %if.then.i.i
                                        #   in Loop: Header=BB3_274 Depth=4
	movl	num_not_at_initial_offset(%rip), %edx
	incq	%rdx
	movl	%edx, num_not_at_initial_offset(%rip)
.LBB3_277:                              # %for.inc.i.i
                                        #   in Loop: Header=BB3_274 Depth=4
	addq	$48, %rax
	cmpq	%rcx, %rax
	jb	.LBB3_274
.LBB3_278:                              # %if.end231.i
                                        #   in Loop: Header=BB3_241 Depth=3
	movzbl	262(%r14), %eax
	movq	$2, %rcx
	movq	%r12, %rdx
	shlq	%cl, %rdx
	andq	$4, %rdx
	andq	$-5, %rax
	orq	%rdx, %rax
	movb	%al, 262(%r14)
	movslq	n_reloads(%rip), %rcx
	testq	%rcx, %rcx
	movabsq	$0, %rcx
	jle	.LBB3_280
# BB#279:                               # %if.end231.i
                                        #   in Loop: Header=BB3_241 Depth=3
	movabsq	$1, %rcx
.LBB3_280:                              # %if.end231.i
                                        #   in Loop: Header=BB3_241 Depth=3
	andq	$252, %rax
	leaq	(%rdi,%rdi), %rdx
	andq	$2, %rdx
	orq	%rcx, %rdx
	orq	%rax, %rdx
	testq	%rbx, %r12
	movb	%dl, 262(%r14)
	je	.LBB3_286
# BB#281:                               # %if.then252.i
                                        #   in Loop: Header=BB3_241 Depth=3
	movq	%rdi, %r12
	movq	reload_insn_firstobj(%rip), %rsi
	movq	reload_obstack+8(%rip), %rax
	cmpq	%rax, %rsi
	jbe	.LBB3_284
# BB#282:                               # %if.then252.i
                                        #   in Loop: Header=BB3_241 Depth=3
	movq	reload_obstack+32(%rip), %rax
	cmpq	%rax, %rsi
	jae	.LBB3_284
# BB#283:                               # %if.then263.i
                                        #   in Loop: Header=BB3_241 Depth=3
	movq	%rsi, reload_obstack+16(%rip)
	movq	%rsi, reload_obstack+24(%rip)
	jmp	.LBB3_285
.LBB3_284:                              # %if.else266.i
                                        #   in Loop: Header=BB3_241 Depth=3
	movabsq	$reload_obstack, %rdi
	callq	obstack_free
.LBB3_285:                              # %if.end267.i
                                        #   in Loop: Header=BB3_241 Depth=3
	movq	%r13, 32(%r15)
	movl	40(%r15), %eax
	movl	%eax, 40(%r15)
	movq	144(%rsp), %rax         # 8-byte Reload
	movq	%rax, 56(%r15)
	movq	$1, %rax
	movb	%al, something_needs_elimination(%rip)
	movq	%r12, %rdi
.LBB3_286:                              # %if.end277.i
                                        #   in Loop: Header=BB3_241 Depth=3
	movl	something_needs_operands_changed(%rip), %ecx
	movl	n_reloads(%rip), %eax
	orq	%rdi, %rcx
	movl	%ecx, something_needs_operands_changed(%rip)
	testq	%rax, %rax
	movq	152(%rsp), %r12         # 8-byte Reload
	jne	.LBB3_287
.LBB3_253:                              # %for.cond.backedge.i
                                        #   in Loop: Header=BB3_241 Depth=3
	testq	%r12, %r12
	movabsq	$0, %r13
	jne	.LBB3_241
	jmp	.LBB3_254
	.align	16, 0x90
.LBB3_287:                              # %if.then280.i
                                        #   in Loop: Header=BB3_240 Depth=2
	movq	%r12, %r15
	movq	%rbx, %r12
	movl	%eax, 96(%r14)
	movl	n_reloads(%rip), %eax
	imulq	$104, %rax, %rsi
	movq	reload_obstack+32(%rip), %rdx
	movq	reload_obstack+24(%rip), %rax
	subq	%rax, %rdx
	movq	$32, %rcx
	movq	%rsi, %rbx
	shlq	%cl, %rbx
	movq	$32, %rcx
	sarq	%cl, %rbx
	cmpq	%rbx, %rdx
	jge	.LBB3_289
# BB#288:                               # %if.then.i370.i
                                        #   in Loop: Header=BB3_240 Depth=2
	movabsq	$reload_obstack, %rdi
	callq	_obstack_newchunk
	movq	reload_obstack+24(%rip), %rax
.LBB3_289:                              # %if.end.i.i
                                        #   in Loop: Header=BB3_240 Depth=2
	addq	%rbx, %rax
	movq	%rax, reload_obstack+24(%rip)
	movq	reload_obstack+16(%rip), %rdi
	cmpq	%rdi, %rax
	jne	.LBB3_291
# BB#290:                               # %if.then10.i.i
                                        #   in Loop: Header=BB3_240 Depth=2
	movzbl	reload_obstack+80(%rip), %ecx
	orq	$2, %rcx
	movb	%cl, reload_obstack+80(%rip)
.LBB3_291:                              # %if.end11.i.i
                                        #   in Loop: Header=BB3_240 Depth=2
	movslq	reload_obstack+48(%rip), %rcx
	addq	%rcx, %rax
	notq	%rcx
	andq	%rax, %rcx
	movq	%rcx, reload_obstack+24(%rip)
	movq	reload_obstack+32(%rip), %rbx
	movq	reload_obstack+8(%rip), %rdx
	movq	%rcx, %rsi
	subq	%rdx, %rsi
	movq	%rbx, %rax
	subq	%rdx, %rax
	cmpq	%rax, %rsi
	movabsq	$0, %r13
	jle	.LBB3_293
# BB#292:                               # %if.then31.i.i
                                        #   in Loop: Header=BB3_240 Depth=2
	movq	%rbx, reload_obstack+24(%rip)
	movq	%rbx, %rcx
.LBB3_293:                              # %if.end34.i.i
                                        #   in Loop: Header=BB3_240 Depth=2
	movq	%rcx, reload_obstack+16(%rip)
	movq	%rdi, 88(%r14)
	movslq	n_reloads(%rip), %rax
	imulq	$104, %rax, %rdx
	movabsq	$rld, %rsi
	callq	memcpy
	movq	reload_obstack+32(%rip), %rax
	movq	reload_obstack+24(%rip), %rcx
	cmpq	%rcx, %rax
	jns	.LBB3_295
# BB#294:                               # %if.then55.i.i
                                        #   in Loop: Header=BB3_240 Depth=2
	xorq	%rsi, %rsi
	movabsq	$reload_obstack, %rdi
	callq	_obstack_newchunk
	movq	reload_obstack+24(%rip), %rcx
.LBB3_295:                              # %if.end56.i.i
                                        #   in Loop: Header=BB3_240 Depth=2
	movq	reload_obstack+16(%rip), %rax
	cmpq	%rax, %rcx
	jne	.LBB3_297
# BB#296:                               # %if.then69.i.i
                                        #   in Loop: Header=BB3_240 Depth=2
	movzbl	reload_obstack+80(%rip), %edx
	orq	$2, %rdx
	movb	%dl, reload_obstack+80(%rip)
.LBB3_297:                              # %if.end74.i.i
                                        #   in Loop: Header=BB3_240 Depth=2
	movslq	reload_obstack+48(%rip), %rdx
	addq	%rdx, %rcx
	notq	%rdx
	andq	%rcx, %rdx
	movq	%rdx, reload_obstack+24(%rip)
	movq	reload_obstack+32(%rip), %rbx
	movq	reload_obstack+8(%rip), %rsi
	movq	%rdx, %rdi
	subq	%rsi, %rdi
	movq	%rbx, %rcx
	subq	%rsi, %rcx
	cmpq	%rcx, %rdi
	jle	.LBB3_299
# BB#298:                               # %if.then99.i.i
                                        #   in Loop: Header=BB3_240 Depth=2
	movq	%rbx, reload_obstack+24(%rip)
	movq	%rbx, %rdx
.LBB3_299:                              # %copy_reloads.exit.i
                                        #   in Loop: Header=BB3_240 Depth=2
	movq	%rdx, reload_obstack+16(%rip)
	movq	%rax, reload_insn_firstobj(%rip)
	movq	120(%rsp), %rax         # 8-byte Reload
	movq	%r14, (%rax)
	addq	$16, %r14
	testq	%r15, %r15
	movq	%r14, %rcx
	jne	.LBB3_240
	jmp	.LBB3_300
	.align	16, 0x90
.LBB3_254:                              #   in Loop: Header=BB3_164 Depth=1
	movq	%rbx, %r12
	movq	120(%rsp), %r14         # 8-byte Reload
.LBB3_300:                              # %calculate_needs_all_insns.exit
                                        #   in Loop: Header=BB3_164 Depth=1
	movq	$0, (%r14)
	movabsq	$spilled_pseudos, %rdi
	callq	bitmap_clear
	callq	get_frame_size
	movl	frame_pointer_needed(%rip), %r14d
	movq	reg_eliminate(%rip), %rbx
	movq	%rax, %r15
	movq	%r12, %r10
	.align	16, 0x90
.LBB3_301:                              # %for.body.i1666
                                        #   Parent Loop BB3_164 Depth=1
                                        # =>  This Inner Loop Header: Depth=2
	movl	(%rbx), %eax
	cmpq	$6, %rax
	jne	.LBB3_303
# BB#302:                               # %land.lhs.true.i1669
                                        #   in Loop: Header=BB3_301 Depth=2
	movq	%r10, %r12
	callq	ix86_frame_pointer_required
	movq	%r12, %r10
	testq	%r10, %rax
	jne	.LBB3_305
.LBB3_303:                              # %lor.lhs.false.i1671
                                        #   in Loop: Header=BB3_301 Depth=2
	movl	4(%rbx), %eax
	cmpq	$7, %rax
	jne	.LBB3_306
# BB#304:                               # %lor.lhs.false.i1671
                                        #   in Loop: Header=BB3_301 Depth=2
	movl	frame_pointer_needed(%rip), %eax
	testq	%r10, %rax
	je	.LBB3_306
.LBB3_305:                              # %if.then.i1673
                                        #   in Loop: Header=BB3_301 Depth=2
	movl	%r13d, 12(%rbx)
.LBB3_306:                              # %for.inc.i1677
                                        #   in Loop: Header=BB3_301 Depth=2
	movq	reg_eliminate(%rip), %r9
	addq	$48, %rbx
	leaq	192(%r9), %rdx
	cmpq	%rdx, %rbx
	jb	.LBB3_301
# BB#307:                               #   in Loop: Header=BB3_164 Depth=1
	movq	%r9, %rcx
	.align	16, 0x90
.LBB3_308:                              # %for.body7.i
                                        #   Parent Loop BB3_164 Depth=1
                                        # =>  This Loop Header: Depth=2
                                        #       Child Loop BB3_311 Depth 3
                                        #       Child Loop BB3_317 Depth 3
	movl	12(%rcx), %esi
	testq	%rsi, %rsi
	jne	.LBB3_321
# BB#309:                               # %land.lhs.true10.i
                                        #   in Loop: Header=BB3_308 Depth=2
	movl	16(%rcx), %esi
	testq	%rsi, %rsi
	je	.LBB3_321
# BB#310:                               # %for.body16.lr.ph.i
                                        #   in Loop: Header=BB3_308 Depth=2
	movl	(%rcx), %r8d
	movq	%r9, %rsi
	.align	16, 0x90
.LBB3_311:                              # %for.body16.i
                                        #   Parent Loop BB3_164 Depth=1
                                        #     Parent Loop BB3_308 Depth=2
                                        # =>    This Inner Loop Header: Depth=3
	movl	(%rsi), %ebx
	movq	%r8, %rdi
	andq	%r10, %rdi
	cmpq	%rdi, %rbx
	jne	.LBB3_314
# BB#312:                               # %land.lhs.true20.i
                                        #   in Loop: Header=BB3_311 Depth=3
	movl	12(%rsi), %edi
	testq	%rdi, %rdi
	jne	.LBB3_313
.LBB3_314:                              # %for.inc26.i
                                        #   in Loop: Header=BB3_311 Depth=3
	addq	$48, %rsi
	cmpq	%rdx, %rsi
	jb	.LBB3_311
# BB#315:                               #   in Loop: Header=BB3_308 Depth=2
	movq	%r10, %rax
	jmp	.LBB3_316
.LBB3_313:                              # %if.then23.i
                                        #   in Loop: Header=BB3_308 Depth=2
	movl	4(%rsi), %eax
.LBB3_316:                              # %for.body32.lr.ph.i
                                        #   in Loop: Header=BB3_308 Depth=2
	movq	%r9, %rdi
	.align	16, 0x90
.LBB3_317:                              # %for.body32.i
                                        #   Parent Loop BB3_164 Depth=1
                                        #     Parent Loop BB3_308 Depth=2
                                        # =>    This Inner Loop Header: Depth=3
	movl	(%rdi), %ebx
	movq	%rax, %rsi
	andq	%r10, %rsi
	cmpq	%rsi, %rbx
	jne	.LBB3_320
# BB#318:                               # %land.lhs.true35.i
                                        #   in Loop: Header=BB3_317 Depth=3
	movl	4(%rdi), %esi
	movl	4(%rcx), %ebx
	cmpq	%rbx, %rsi
	jne	.LBB3_320
# BB#319:                               # %if.then39.i
                                        #   in Loop: Header=BB3_317 Depth=3
	movl	%r13d, 12(%rdi)
.LBB3_320:                              # %for.inc42.i
                                        #   in Loop: Header=BB3_317 Depth=3
	addq	$48, %rdi
	cmpq	%rdx, %rdi
	jb	.LBB3_317
.LBB3_321:                              # %for.inc46.i
                                        #   in Loop: Header=BB3_308 Depth=2
	addq	$48, %rcx
	cmpq	%rdx, %rcx
	jb	.LBB3_308
# BB#322:                               # %for.body52.lr.ph.i
                                        #   in Loop: Header=BB3_164 Depth=1
	movq	$1, %rax
	movl	%eax, frame_pointer_needed(%rip)
	xorq	%r12, %r12
	.align	16, 0x90
.LBB3_323:                              # %for.body52.i
                                        #   Parent Loop BB3_164 Depth=1
                                        # =>  This Inner Loop Header: Depth=2
	movl	12(%r9), %ecx
	testq	%rcx, %rcx
	je	.LBB3_328
# BB#324:                               # %land.lhs.true55.i
                                        #   in Loop: Header=BB3_323 Depth=2
	movl	(%r9), %eax
	cmpq	$20, %rax
	jne	.LBB3_327
# BB#325:                               # %land.lhs.true58.i
                                        #   in Loop: Header=BB3_323 Depth=2
	movl	4(%r9), %eax
	cmpq	$6, %rax
	je	.LBB3_327
# BB#326:                               # %if.then61.i
                                        #   in Loop: Header=BB3_323 Depth=2
	movl	%r13d, frame_pointer_needed(%rip)
	movl	12(%r9), %ecx
.LBB3_327:                              # %if.end62.i
                                        #   in Loop: Header=BB3_323 Depth=2
	testq	%r10, %rcx
	jne	.LBB3_330
.LBB3_328:                              # %land.lhs.true65.i
                                        #   in Loop: Header=BB3_323 Depth=2
	movl	16(%r9), %eax
	testq	%rax, %rax
	je	.LBB3_330
# BB#329:                               # %if.then68.i
                                        #   in Loop: Header=BB3_323 Depth=2
	movl	%r13d, 16(%r9)
	movl	(%r9), %ecx
	movl	num_eliminable(%rip), %eax
	movq	$1, %rsi
	shlq	%cl, %rsi
	orq	%rsi, %r12
	decq	%rax
	movl	%eax, num_eliminable(%rip)
.LBB3_330:                              # %for.inc72.i
                                        #   in Loop: Header=BB3_323 Depth=2
	addq	$48, %r9
	cmpq	%rdx, %r9
	jb	.LBB3_323
# BB#331:                               # %for.end74.i
                                        #   in Loop: Header=BB3_164 Depth=1
	cmpq	%r15, 136(%rsp)         # 8-byte Folded Reload
	movabsq	$0, %r15
	movq	%r15, %rdx
	je	.LBB3_333
# BB#332:                               # %for.end74.i
                                        #   in Loop: Header=BB3_164 Depth=1
	movabsq	$1, %rax
	movq	%rax, %rdx
.LBB3_333:                              # %for.end74.i
                                        #   in Loop: Header=BB3_164 Depth=1
	movl	frame_pointer_needed(%rip), %eax
	testq	%rax, %rax
	movq	%r15, %rax
	jne	.LBB3_335
# BB#334:                               # %for.end74.i
                                        #   in Loop: Header=BB3_164 Depth=1
	movabsq	$1, %rax
.LBB3_335:                              # %for.end74.i
                                        #   in Loop: Header=BB3_164 Depth=1
	testq	%r10, %r14
	movq	%r15, %rcx
	je	.LBB3_337
# BB#336:                               # %for.end74.i
                                        #   in Loop: Header=BB3_164 Depth=1
	movabsq	$1, %rcx
.LBB3_337:                              # %for.end74.i
                                        #   in Loop: Header=BB3_164 Depth=1
	orq	%rcx, %rax
	jne	.LBB3_339
# BB#338:                               # %for.end74.i
                                        #   in Loop: Header=BB3_164 Depth=1
	orq	$64, %r12
.LBB3_339:                              # %for.end74.i
                                        #   in Loop: Header=BB3_164 Depth=1
	xorq	%rbx, %rbx
	xorq	%rsi, %rsi
	.align	16, 0x90
.LBB3_340:                              # %for.body831
                                        #   Parent Loop BB3_164 Depth=1
                                        # =>  This Inner Loop Header: Depth=2
	movq	$1, %rax
	movq	%rbx, %rcx
	shlq	%cl, %rax
	testq	%r12, %rax
	je	.LBB3_342
# BB#341:                               # %if.then834
                                        #   in Loop: Header=BB3_340 Depth=2
	movq	%rbx, %rdi
	movq	%r10, %r14
	callq	spill_hard_reg
	movq	%r14, %r10
	movq	$1, %rsi
	movq	$1, %rdx
.LBB3_342:                              # %for.inc836
                                        #   in Loop: Header=BB3_340 Depth=2
	incq	%rbx
	cmpq	$53, %rbx
	jne	.LBB3_340
# BB#343:                               # %for.end838
                                        #   in Loop: Header=BB3_164 Depth=1
	movq	%rsi, 40(%rsp)          # 8-byte Spill
	movq	%rdx, 48(%rsp)          # 8-byte Spill
	movq	insns_need_reload(%rip), %rbx
	testq	%rbx, %rbx
	je	.LBB3_495
	jmp	.LBB3_344
.LBB3_489:                              # %if.then142.i.i
                                        #   in Loop: Header=BB3_344 Depth=2
	movq	%r9, %r12
	movq	96(%rsp), %rax          # 8-byte Reload
	movq	32(%rax), %r15
	movq	32(%r15), %rdi
	movq	88(%rsp), %rax          # 8-byte Reload
	movl	(%rax), %r14d
	callq	asm_noperands
	movq	$32, %rcx
	shlq	%cl, %rax
	movq	spill_failure.reg_class_names(,%r14,8), %rdx
	movq	$32, %rcx
	sarq	%cl, %rax
	testq	%rax, %rax
	js	.LBB3_612
# BB#490:                               # %spill_failure.exit.i.i
                                        #   in Loop: Header=BB3_344 Depth=2
	xorq	%rax, %rax
	movq	%r15, %rdi
	movabsq	$.L.str38, %rsi
	callq	error_for_asm
	movq	$1, %rax
	movb	%al, failure(%rip)
	xorq	%r13, %r13
	movq	96(%rsp), %rbx          # 8-byte Reload
	jmp	.LBB3_494
	.align	16, 0x90
.LBB3_344:                              # %for.body.i1689
                                        #   Parent Loop BB3_164 Depth=1
                                        # =>  This Loop Header: Depth=2
                                        #       Child Loop BB3_346 Depth 3
                                        #       Child Loop BB3_368 Depth 3
                                        #         Child Loop BB3_370 Depth 4
                                        #         Child Loop BB3_374 Depth 4
                                        #       Child Loop BB3_381 Depth 3
                                        #         Child Loop BB3_383 Depth 4
                                        #         Child Loop BB3_387 Depth 4
                                        #       Child Loop BB3_393 Depth 3
                                        #         Child Loop BB3_402 Depth 4
                                        #           Child Loop BB3_408 Depth 5
                                        #         Child Loop BB3_400 Depth 4
                                        #           Child Loop BB3_424 Depth 5
                                        #         Child Loop BB3_462 Depth 4
                                        #           Child Loop BB3_464 Depth 5
                                        #           Child Loop BB3_468 Depth 5
                                        #         Child Loop BB3_475 Depth 4
                                        #           Child Loop BB3_477 Depth 5
                                        #           Child Loop BB3_481 Depth 5
                                        #         Child Loop BB3_486 Depth 4
	movslq	96(%rbx), %r14
	movq	88(%rbx), %rsi
	movq	%rbx, %r12
	testq	%r14, %r14
	jle	.LBB3_363
# BB#345:                               # %for.body.i.i1691.preheader
                                        #   in Loop: Header=BB3_344 Depth=2
	leaq	64(%rsi), %rdi
	movq	$1, %rbx
	.align	16, 0x90
.LBB3_346:                              # %for.body.i.i1691
                                        #   Parent Loop BB3_164 Depth=1
                                        #     Parent Loop BB3_344 Depth=2
                                        # =>    This Inner Loop Header: Depth=3
	movq	(%rdi), %rax
	leaq	-1(%rbx), %r8
	testq	%rax, %rax
	jne	.LBB3_347
# BB#361:                               # %if.else.i.i
                                        #   in Loop: Header=BB3_346 Depth=3
	movl	%r10d, -8(%rdi)
	jmp	.LBB3_362
	.align	16, 0x90
.LBB3_347:                              # %if.then.i.i1693
                                        #   in Loop: Header=BB3_346 Depth=3
	movl	8(%rax), %ecx
	movl	%ecx, -8(%rdi)
	movzbl	2(%rax), %r11d
	movq	%rcx, %rdx
	movabsq	$4294967288, %rax       # imm = 0xFFFFFFF8
	andq	%rax, %rdx
	cmpq	$8, %rdx
	je	.LBB3_351
# BB#348:                               # %if.then.i.i1693
                                        #   in Loop: Header=BB3_346 Depth=3
	leaq	-21(%rcx), %rdx
	andq	%r10, %rdx
	cmpq	$8, %rdx
	jb	.LBB3_351
# BB#349:                               # %if.then.i.i1693
                                        #   in Loop: Header=BB3_346 Depth=3
	leaq	-45(%rcx), %rdx
	andq	%r10, %rdx
	cmpq	$8, %rdx
	jb	.LBB3_351
# BB#350:                               # %if.then.i.i1693
                                        #   in Loop: Header=BB3_346 Depth=3
	addq	$-29, %rcx
	andq	%r10, %rcx
	cmpq	$7, %rcx
	jbe	.LBB3_351
# BB#355:                               # %cond.false.i.i
                                        #   in Loop: Header=BB3_346 Depth=3
	cmpq	$24, %r11
	jne	.LBB3_356
# BB#358:                               # %cond.true60.i.i
                                        #   in Loop: Header=BB3_346 Depth=3
	movzbl	target_flags+3(%rip), %eax
	andq	$2, %rax
	xorq	$6, %rax
	movl	%eax, -32(%rdi)
	jmp	.LBB3_362
	.align	16, 0x90
.LBB3_351:                              # %cond.true.i.i
                                        #   in Loop: Header=BB3_346 Depth=3
	movl	mode_class(,%r11,4), %ecx
	cmpq	$5, %rcx
	movq	$2, %rax
	je	.LBB3_360
# BB#352:                               # %lor.rhs.i.i
                                        #   in Loop: Header=BB3_346 Depth=3
	cmpq	$6, %rcx
	movq	%r15, %rax
	jne	.LBB3_354
# BB#353:                               # %lor.rhs.i.i
                                        #   in Loop: Header=BB3_346 Depth=3
	movabsq	$1, %rax
.LBB3_354:                              # %lor.rhs.i.i
                                        #   in Loop: Header=BB3_346 Depth=3
	incq	%rax
	movl	%eax, -32(%rdi)
	jmp	.LBB3_362
.LBB3_356:                              # %cond.false.i.i
                                        #   in Loop: Header=BB3_346 Depth=3
	cmpq	$18, %r11
	jne	.LBB3_359
# BB#357:                               # %cond.true48.i.i
                                        #   in Loop: Header=BB3_346 Depth=3
	movl	target_flags(%rip), %eax
	movq	$25, %rcx
	shrq	%cl, %rax
	andq	$1, %rax
	xorq	$3, %rax
	movl	%eax, -32(%rdi)
	jmp	.LBB3_362
.LBB3_359:                              # %cond.false64.i.i
                                        #   in Loop: Header=BB3_346 Depth=3
	movl	target_flags(%rip), %r9d
	movzbl	mode_size(%r11), %eax
	movq	$23, %rcx
	shrq	%cl, %r9
	andq	$4, %r9
	leaq	3(%rax,%r9), %rax
	addq	$4, %r9
	cqto
	idivq	%r9
.LBB3_360:                              # %cond.end83.i.i
                                        #   in Loop: Header=BB3_346 Depth=3
	movl	%eax, -32(%rdi)
	.align	16, 0x90
.LBB3_362:                              # %if.end.i.i1699
                                        #   in Loop: Header=BB3_346 Depth=3
	movw	%r8w, reload_order-2(%rbx,%rbx)
	movq	%rbx, %rax
	andq	%r10, %rax
	movq	%r14, %rcx
	andq	%r10, %rcx
	incq	%rbx
	addq	$104, %rdi
	cmpq	%rcx, %rax
	jne	.LBB3_346
.LBB3_363:                              # %for.end.i.i
                                        #   in Loop: Header=BB3_344 Depth=2
	movq	%r10, %rbx
	movl	%r14d, n_reloads(%rip)
	imulq	$104, %r14, %rdx
	movabsq	$rld, %rdi
	callq	memcpy
	movq	rtl_dump_file(%rip), %rdi
	movq	$0, used_spill_regs_local(%rip)
	testq	%rdi, %rdi
	je	.LBB3_365
# BB#364:                               # %if.then99.i.i1701
                                        #   in Loop: Header=BB3_344 Depth=2
	movq	32(%r12), %rax
	movl	8(%rax), %edx
	xorq	%rax, %rax
	movabsq	$.L.str12, %rsi
	callq	fprintf
	movl	n_reloads(%rip), %r14d
.LBB3_365:                              # %if.end102.i.i
                                        #   in Loop: Header=BB3_344 Depth=2
	movq	$2, %rdx
	movabsq	$reload_order, %rdi
	movq	%r14, %rsi
	movabsq	$reload_reg_class_lower, %rcx
	callq	specqsort
	movq	fixed_reg_set(%rip), %rax
	movq	%rax, bad_spill_regs(%rip)
	xorq	%rsi, %rsi
	movq	$212, %rdx
	movabsq	$spill_cost, %rdi
	callq	memset
	xorq	%rsi, %rsi
	movq	$212, %rdx
	movabsq	$spill_add_cost, %rdi
	callq	memset
	movq	$0, 288(%rsp)
	movq	%r12, 96(%rsp)          # 8-byte Spill
	leaq	40(%r12), %rsi
	leaq	288(%rsp), %rdi
	callq	reg_set_to_hard_reg_set
	movq	$0, 160(%rsp)
	leaq	64(%r12), %rsi
	movq	%rsi, 144(%rsp)         # 8-byte Spill
	leaq	160(%rsp), %rdi
	callq	reg_set_to_hard_reg_set
	movq	288(%rsp), %rax
	movq	bad_spill_regs(%rip), %rcx
	movq	160(%rsp), %rdx
	orq	%rax, %rcx
	orq	%rcx, %rdx
	movq	%rdx, bad_spill_regs(%rip)
	movabsq	$pseudos_counted, %rdi
	callq	bitmap_clear
	movq	40(%r12), %rcx
	testq	%rcx, %rcx
	movq	%rbx, %rdx
	je	.LBB3_378
# BB#366:                               # %for.cond11.preheader.lr.ph.i.i.i
                                        #   in Loop: Header=BB3_344 Depth=2
	movl	16(%rcx), %eax
	testq	%rax, %rax
	movq	$53, %r15
	je	.LBB3_368
# BB#367:                               # %select.mid
                                        #   in Loop: Header=BB3_344 Depth=2
	xorq	%r15, %r15
	.align	16, 0x90
.LBB3_368:                              # %for.cond11.preheader.i.i.i
                                        #   Parent Loop BB3_164 Depth=1
                                        #     Parent Loop BB3_344 Depth=2
                                        # =>    This Loop Header: Depth=3
                                        #         Child Loop BB3_370 Depth 4
                                        #         Child Loop BB3_374 Depth 4
	movq	%rcx, 152(%rsp)         # 8-byte Spill
	movq	24(%rcx), %r13
	testq	%r13, %r13
	je	.LBB3_373
# BB#369:                               # %for.body18.preheader.i.i.i
                                        #   in Loop: Header=BB3_368 Depth=3
	movq	%r15, %rbx
	andq	%rdx, %rbx
	.align	16, 0x90
.LBB3_370:                              # %for.body18.i.i.i
                                        #   Parent Loop BB3_164 Depth=1
                                        #     Parent Loop BB3_344 Depth=2
                                        #       Parent Loop BB3_368 Depth=3
                                        # =>      This Inner Loop Header: Depth=4
	movq	$1, %r14
	movq	%rbx, %rcx
	shlq	%cl, %r14
	testq	%r13, %r14
	je	.LBB3_372
# BB#371:                               # %if.then20.i.i.i
                                        #   in Loop: Header=BB3_370 Depth=4
	movq	152(%rsp), %rax         # 8-byte Reload
	movl	16(%rax), %edi
	notq	%r14
	movq	$7, %rcx
	shlq	%cl, %rdi
	addq	%rbx, %rdi
	movq	%rdx, %r12
	callq	count_pseudo
	movq	%r12, %rdx
	andq	%r14, %r13
	je	.LBB3_373
.LBB3_372:                              # %for.inc.i.i.i
                                        #   in Loop: Header=BB3_370 Depth=4
	incq	%r15
	movq	%r15, %rax
	andq	%rdx, %rax
	incq	%rbx
	cmpq	$64, %rax
	jb	.LBB3_370
.LBB3_373:                              # %if.end29.i.i.i
                                        #   in Loop: Header=BB3_368 Depth=3
	movq	152(%rsp), %rax         # 8-byte Reload
	movq	32(%rax), %r15
	xorq	%r14, %r14
	testq	%r15, %r15
	movabsq	$0, %r13
	je	.LBB3_377
	.align	16, 0x90
.LBB3_374:                              # %for.body18.1.i.i.i
                                        #   Parent Loop BB3_164 Depth=1
                                        #     Parent Loop BB3_344 Depth=2
                                        #       Parent Loop BB3_368 Depth=3
                                        # =>      This Inner Loop Header: Depth=4
	movq	$1, %rbx
	movq	%r14, %rcx
	shlq	%cl, %rbx
	testq	%r15, %rbx
	je	.LBB3_376
# BB#375:                               # %if.then20.1.i.i.i
                                        #   in Loop: Header=BB3_374 Depth=4
	movq	152(%rsp), %rax         # 8-byte Reload
	movl	16(%rax), %eax
	notq	%rbx
	movq	$7, %rcx
	shlq	%cl, %rax
	leaq	64(%r14,%rax), %rdi
	movq	%rdx, %r12
	callq	count_pseudo
	movq	%r12, %rdx
	andq	%rbx, %r15
	je	.LBB3_377
.LBB3_376:                              # %for.inc.1.i.i.i
                                        #   in Loop: Header=BB3_374 Depth=4
	incq	%r13
	movq	%r13, %rax
	andq	%rdx, %rax
	incq	%r14
	cmpq	$64, %rax
	jb	.LBB3_374
.LBB3_377:                              # %if.end29.1.i.i.i
                                        #   in Loop: Header=BB3_368 Depth=3
	movq	152(%rsp), %rcx         # 8-byte Reload
	movq	(%rcx), %rcx
	xorq	%r15, %r15
	testq	%rcx, %rcx
	jne	.LBB3_368
.LBB3_378:                              # %do.body37.i.i.i
                                        #   in Loop: Header=BB3_344 Depth=2
	movq	144(%rsp), %rax         # 8-byte Reload
	movq	(%rax), %rcx
	testq	%rcx, %rcx
	je	.LBB3_391
# BB#379:                               # %for.cond62.preheader.lr.ph.i.i.i
                                        #   in Loop: Header=BB3_344 Depth=2
	movl	16(%rcx), %eax
	testq	%rax, %rax
	movq	$53, %r15
	je	.LBB3_381
# BB#380:                               # %select.mid212
                                        #   in Loop: Header=BB3_344 Depth=2
	xorq	%r15, %r15
	.align	16, 0x90
.LBB3_381:                              # %for.cond62.preheader.i.i.i
                                        #   Parent Loop BB3_164 Depth=1
                                        #     Parent Loop BB3_344 Depth=2
                                        # =>    This Loop Header: Depth=3
                                        #         Child Loop BB3_383 Depth 4
                                        #         Child Loop BB3_387 Depth 4
	movq	%rcx, 152(%rsp)         # 8-byte Spill
	movq	24(%rcx), %r12
	testq	%r12, %r12
	je	.LBB3_386
# BB#382:                               # %for.body73.preheader.i.i.i
                                        #   in Loop: Header=BB3_381 Depth=3
	movq	%r15, %r13
	andq	%rdx, %r13
	.align	16, 0x90
.LBB3_383:                              # %for.body73.i.i.i
                                        #   Parent Loop BB3_164 Depth=1
                                        #     Parent Loop BB3_344 Depth=2
                                        #       Parent Loop BB3_381 Depth=3
                                        # =>      This Inner Loop Header: Depth=4
	movq	$1, %rbx
	movq	%r13, %rcx
	shlq	%cl, %rbx
	testq	%rbx, %r12
	je	.LBB3_385
# BB#384:                               # %if.then79.i.i.i
                                        #   in Loop: Header=BB3_383 Depth=4
	movq	152(%rsp), %rax         # 8-byte Reload
	movl	16(%rax), %edi
	notq	%rbx
	movq	$7, %rcx
	shlq	%cl, %rdi
	addq	%r13, %rdi
	movq	%rdx, %r14
	callq	count_pseudo
	movq	%r14, %rdx
	andq	%rbx, %r12
	je	.LBB3_386
.LBB3_385:                              # %for.inc91.i.i.i
                                        #   in Loop: Header=BB3_383 Depth=4
	incq	%r15
	movq	%r15, %rax
	andq	%rdx, %rax
	incq	%r13
	cmpq	$64, %rax
	jb	.LBB3_383
.LBB3_386:                              # %if.end94.i.i.i
                                        #   in Loop: Header=BB3_381 Depth=3
	movq	152(%rsp), %rax         # 8-byte Reload
	movq	32(%rax), %r15
	xorq	%r13, %r13
	testq	%r15, %r15
	movabsq	$0, %r12
	je	.LBB3_390
	.align	16, 0x90
.LBB3_387:                              # %for.body73.1.i.i.i
                                        #   Parent Loop BB3_164 Depth=1
                                        #     Parent Loop BB3_344 Depth=2
                                        #       Parent Loop BB3_381 Depth=3
                                        # =>      This Inner Loop Header: Depth=4
	movq	$1, %rbx
	movq	%r13, %rcx
	shlq	%cl, %rbx
	testq	%rbx, %r15
	je	.LBB3_389
# BB#388:                               # %if.then79.1.i.i.i
                                        #   in Loop: Header=BB3_387 Depth=4
	movq	152(%rsp), %rax         # 8-byte Reload
	movl	16(%rax), %eax
	notq	%rbx
	movq	$7, %rcx
	shlq	%cl, %rax
	leaq	64(%r13,%rax), %rdi
	movq	%rdx, %r14
	callq	count_pseudo
	movq	%r14, %rdx
	andq	%rbx, %r15
	je	.LBB3_390
.LBB3_389:                              # %for.inc91.1.i.i.i
                                        #   in Loop: Header=BB3_387 Depth=4
	incq	%r12
	movq	%r12, %rax
	andq	%rdx, %rax
	incq	%r13
	cmpq	$64, %rax
	jb	.LBB3_387
.LBB3_390:                              # %if.end94.1.i.i.i
                                        #   in Loop: Header=BB3_381 Depth=3
	movq	152(%rsp), %rcx         # 8-byte Reload
	movq	(%rcx), %rcx
	xorq	%r15, %r15
	testq	%rcx, %rcx
	jne	.LBB3_381
.LBB3_391:                              # %order_regs_for_reload.exit.i.i
                                        #   in Loop: Header=BB3_344 Depth=2
	movabsq	$pseudos_counted, %rdi
	movq	%rdx, %rbx
	callq	bitmap_clear
	movq	%rbx, %r9
	movslq	n_reloads(%rip), %rax
	testq	%rax, %rax
	jle	.LBB3_493
# BB#392:                               # %for.body106.lr.ph.i.i
                                        #   in Loop: Header=BB3_344 Depth=2
	movq	$0, 128(%rsp)           # 8-byte Folded Spill
	xorq	%rdi, %rdi
	.align	16, 0x90
.LBB3_393:                              # %for.body106.i.i
                                        #   Parent Loop BB3_164 Depth=1
                                        #     Parent Loop BB3_344 Depth=2
                                        # =>    This Loop Header: Depth=3
                                        #         Child Loop BB3_402 Depth 4
                                        #           Child Loop BB3_408 Depth 5
                                        #         Child Loop BB3_400 Depth 4
                                        #           Child Loop BB3_424 Depth 5
                                        #         Child Loop BB3_462 Depth 4
                                        #           Child Loop BB3_464 Depth 5
                                        #           Child Loop BB3_468 Depth 5
                                        #         Child Loop BB3_475 Depth 4
                                        #           Child Loop BB3_477 Depth 5
                                        #           Child Loop BB3_481 Depth 5
                                        #         Child Loop BB3_486 Depth 4
	movswq	reload_order(%rdi,%rdi), %rdx
	imulq	$104, %rdx, %rsi
	cmpq	$0, rld+8(%rsi)
	jne	.LBB3_396
# BB#394:                               # %lor.lhs.false114.i.i
                                        #   in Loop: Header=BB3_393 Depth=3
	imulq	$104, %rdx, %rax
	cmpq	$0, rld(%rax)
	jne	.LBB3_396
# BB#395:                               # %lor.lhs.false119.i.i
                                        #   in Loop: Header=BB3_393 Depth=3
	movzbl	rld+96(%rax), %eax
	testq	$4, %rax
	je	.LBB3_492
	.align	16, 0x90
.LBB3_396:                              # %land.lhs.true126.i.i
                                        #   in Loop: Header=BB3_393 Depth=3
	imulq	$104, %rdx, %rcx
	movzbl	rld+96(%rcx), %eax
	testq	$1, %rax
	jne	.LBB3_492
# BB#397:                               # %land.lhs.true133.i.i
                                        #   in Loop: Header=BB3_393 Depth=3
	movl	rld+56(%rcx), %eax
	cmpq	%r9, %rax
	jne	.LBB3_492
# BB#398:                               # %if.then139.i.i
                                        #   in Loop: Header=BB3_393 Depth=3
	movq	%rsi, 144(%rsp)         # 8-byte Spill
	movq	%rdx, 136(%rsp)         # 8-byte Spill
	movq	bad_spill_regs(%rip), %rax
	movq	%rax, 88(%rsp)          # 8-byte Spill
	movq	bad_spill_regs_global(%rip), %rax
	movq	%rax, 112(%rsp)         # 8-byte Spill
	movl	rld+16(%rcx), %eax
	movq	%rcx, 104(%rsp)         # 8-byte Spill
	movq	reg_class_contents(,%rax,8), %r10
	movq	%r10, 152(%rsp)         # 8-byte Spill
	movq	$32, %rcx
	movq	%rdi, %rax
	movq	%rdi, 72(%rsp)          # 8-byte Spill
	shlq	%cl, %rax
	movq	$32, %rcx
	sarq	%cl, %rax
	xorq	%r13, %r13
	testq	%rax, %rax
	movabsq	$0, %r12
	movabsq	$0, %rbx
	jle	.LBB3_399
	.align	16, 0x90
.LBB3_402:                              # %for.body.i.i.i
                                        #   Parent Loop BB3_164 Depth=1
                                        #     Parent Loop BB3_344 Depth=2
                                        #       Parent Loop BB3_393 Depth=3
                                        # =>      This Loop Header: Depth=4
                                        #           Child Loop BB3_408 Depth 5
	movq	%r9, %r15
	movswq	reload_order(%rbx,%rbx), %rdi
	imulq	$104, %rdi, %r14
	movslq	rld+56(%r14), %rax
	testq	%rax, %rax
	js	.LBB3_403
# BB#404:                               # %land.lhs.true.i.i.i
                                        #   in Loop: Header=BB3_402 Depth=4
	movq	136(%rsp), %rsi         # 8-byte Reload
	callq	reloads_conflict
	movq	%r15, %r9
	testq	%r9, %rax
	jne	.LBB3_406
# BB#405:                               #   in Loop: Header=BB3_402 Depth=4
	movq	152(%rsp), %r10         # 8-byte Reload
	jmp	.LBB3_409
	.align	16, 0x90
.LBB3_403:                              #   in Loop: Header=BB3_402 Depth=4
	movq	%r15, %r9
	jmp	.LBB3_409
	.align	16, 0x90
.LBB3_406:                              # %for.cond12.preheader.i.i.i
                                        #   in Loop: Header=BB3_402 Depth=4
	movl	rld+32(%r14), %eax
	testq	%rax, %rax
	movq	152(%rsp), %r10         # 8-byte Reload
	je	.LBB3_409
# BB#407:                               # %for.body17.lr.ph.i.i.i
                                        #   in Loop: Header=BB3_402 Depth=4
	leaq	rld+56(%r14), %rcx
	movl	(%rcx), %edx
	movq	$1, %rsi
	.align	16, 0x90
.LBB3_408:                              # %for.body17.i.i.i
                                        #   Parent Loop BB3_164 Depth=1
                                        #     Parent Loop BB3_344 Depth=2
                                        #       Parent Loop BB3_393 Depth=3
                                        #         Parent Loop BB3_402 Depth=4
                                        # =>        This Inner Loop Header: Depth=5
	leaq	-1(%rsi,%rdx), %rcx
	movq	$1, %rdi
	shlq	%cl, %rdi
	orq	%rdi, %r12
	movq	%rsi, %rcx
	andq	%r9, %rcx
	incq	%rsi
	cmpq	%rax, %rcx
	jne	.LBB3_408
	.align	16, 0x90
.LBB3_409:                              # %for.inc22.i.i.i
                                        #   in Loop: Header=BB3_402 Depth=4
	incq	%rbx
	movq	%rbx, %rax
	andq	%r9, %rax
	movq	128(%rsp), %rcx         # 8-byte Reload
	andq	%r9, %rcx
	cmpq	%rcx, %rax
	jne	.LBB3_402
.LBB3_399:                              # %for.cond25.preheader.i.i.i
                                        #   in Loop: Header=BB3_393 Depth=3
	movq	144(%rsp), %rax         # 8-byte Reload
	leaq	rld+8(%rax), %rax
	movq	%rax, 120(%rsp)         # 8-byte Spill
	movq	104(%rsp), %rax         # 8-byte Reload
	leaq	rld+56(%rax), %rcx
	movq	%rcx, 80(%rsp)          # 8-byte Spill
	movq	112(%rsp), %rdx         # 8-byte Reload
	movq	88(%rsp), %rcx          # 8-byte Reload
	orq	%rcx, %rdx
	leaq	rld+16(%rax), %rcx
	movq	%rcx, 88(%rsp)          # 8-byte Spill
	notq	%r10
	orq	%rdx, %r10
	orq	%r12, %r10
	leaq	rld+28(%rax), %r12
	leaq	rld(%rax), %rax
	movq	%rax, 112(%rsp)         # 8-byte Spill
	movq	$2147483647, 144(%rsp)  # 8-byte Folded Spill
                                        # imm = 0x7FFFFFFF
	movq	%r9, 152(%rsp)          # 8-byte Spill
	movabsq	$4294967288, %r15       # imm = 0xFFFFFFF8
	.align	16, 0x90
.LBB3_400:                              # %for.body28.i.i.i
                                        #   Parent Loop BB3_164 Depth=1
                                        #     Parent Loop BB3_344 Depth=2
                                        #       Parent Loop BB3_393 Depth=3
                                        # =>      This Loop Header: Depth=4
                                        #           Child Loop BB3_424 Depth 5
	movq	%r9, %rbx
	movq	$1, %rax
	movq	%r13, %rcx
	shlq	%cl, %rax
	testq	%r10, %rax
	jne	.LBB3_401
# BB#410:                               # %land.lhs.true38.i.i.i
                                        #   in Loop: Header=BB3_400 Depth=4
	movq	%r10, %r14
	movl	(%r12), %esi
	movq	%r13, %rdi
	callq	ix86_hard_regno_mode_ok
	movq	%rbx, %r9
	testq	%r9, %rax
	jne	.LBB3_412
# BB#411:                               #   in Loop: Header=BB3_400 Depth=4
	movq	%r14, %r10
	jmp	.LBB3_442
	.align	16, 0x90
.LBB3_401:                              #   in Loop: Header=BB3_400 Depth=4
	movq	%rbx, %r9
	jmp	.LBB3_442
	.align	16, 0x90
.LBB3_412:                              # %if.then41.i.i.i
                                        #   in Loop: Header=BB3_400 Depth=4
	movl	spill_cost(,%r13,4), %esi
	movslq	(%r12), %rax
	movq	%r13, %rcx
	andq	%r15, %rcx
	cmpq	$8, %rcx
	movq	%r14, %r10
	je	.LBB3_416
# BB#413:                               # %if.then41.i.i.i
                                        #   in Loop: Header=BB3_400 Depth=4
	leaq	-21(%r13), %rcx
	andq	%r9, %rcx
	cmpq	$8, %rcx
	jb	.LBB3_416
# BB#414:                               # %if.then41.i.i.i
                                        #   in Loop: Header=BB3_400 Depth=4
	leaq	-45(%r13), %rcx
	andq	%r9, %rcx
	cmpq	$8, %rcx
	jb	.LBB3_416
# BB#415:                               # %if.then41.i.i.i
                                        #   in Loop: Header=BB3_400 Depth=4
	leaq	-29(%r13), %rcx
	andq	%r9, %rcx
	cmpq	$7, %rcx
	jbe	.LBB3_416
# BB#417:                               # %cond.false.i.i.i
                                        #   in Loop: Header=BB3_400 Depth=4
	movq	%rax, %rcx
	andq	%r9, %rcx
	cmpq	$24, %rcx
	jne	.LBB3_418
# BB#420:                               # %cond.true87.i.i.i
                                        #   in Loop: Header=BB3_400 Depth=4
	movzbl	target_flags+3(%rip), %eax
	andq	$2, %rax
	xorq	$6, %rax
	jmp	.LBB3_422
.LBB3_416:                              # %cond.true.i.i.i
                                        #   in Loop: Header=BB3_400 Depth=4
	movl	mode_class(,%rax,4), %eax
	addq	$-5, %rax
	andq	%r9, %rax
	cmpq	$2, %rax
	movq	$2, %rax
	jb	.LBB3_423
	jmp	.LBB3_428
.LBB3_418:                              # %cond.false.i.i.i
                                        #   in Loop: Header=BB3_400 Depth=4
	cmpq	$18, %rcx
	jne	.LBB3_421
# BB#419:                               # %cond.true79.i.i.i
                                        #   in Loop: Header=BB3_400 Depth=4
	movl	target_flags(%rip), %eax
	movq	$25, %rcx
	shrq	%cl, %rax
	andq	$1, %rax
	xorq	$3, %rax
	jmp	.LBB3_422
.LBB3_421:                              # %cond.false91.i.i.i
                                        #   in Loop: Header=BB3_400 Depth=4
	movl	target_flags(%rip), %edi
	movzbl	mode_size(%rax), %eax
	movq	$23, %rcx
	shrq	%cl, %rdi
	andq	$4, %rdi
	leaq	3(%rax,%rdi), %rax
	addq	$4, %rdi
	cqto
	idivq	%rdi
.LBB3_422:                              # %cond.end106.i.i.i
                                        #   in Loop: Header=BB3_400 Depth=4
	movq	%rax, %rcx
	andq	%r9, %rcx
	cmpq	$2, %rcx
	jb	.LBB3_428
.LBB3_423:                              # %for.body111.lr.ph.i.i.i
                                        #   in Loop: Header=BB3_400 Depth=4
	movq	$1, %r8
	movq	$2, %rdi
	.align	16, 0x90
.LBB3_424:                              # %for.body111.i.i.i
                                        #   Parent Loop BB3_164 Depth=1
                                        #     Parent Loop BB3_344 Depth=2
                                        #       Parent Loop BB3_393 Depth=3
                                        #         Parent Loop BB3_400 Depth=4
                                        # =>        This Inner Loop Header: Depth=5
	leaq	-1(%r13,%rdi), %rcx
	movq	%rcx, %rbx
	andq	%r9, %rbx
	movl	spill_add_cost(,%rbx,4), %ebx
	movq	$1, %rdx
	shlq	%cl, %rdx
	testq	%r10, %rdx
	je	.LBB3_426
# BB#425:                               # %for.body111.i.i.i
                                        #   in Loop: Header=BB3_424 Depth=5
	xorq	%r8, %r8
.LBB3_426:                              # %for.body111.i.i.i
                                        #   in Loop: Header=BB3_424 Depth=5
	addq	%rbx, %rsi
	movq	%rdi, %rcx
	andq	%r9, %rcx
	movq	%rax, %rdx
	andq	%r9, %rdx
	incq	%rdi
	cmpq	%rdx, %rcx
	jne	.LBB3_424
# BB#427:                               # %for.end131.i.i.i
                                        #   in Loop: Header=BB3_400 Depth=4
	testq	%r9, %r8
	je	.LBB3_442
.LBB3_428:                              # %if.end134.i.i.i
                                        #   in Loop: Header=BB3_400 Depth=4
	movq	112(%rsp), %rax         # 8-byte Reload
	movq	(%rax), %rax
	testq	%rax, %rax
	je	.LBB3_433
# BB#429:                               # %land.lhs.true136.i.i.i
                                        #   in Loop: Header=BB3_400 Depth=4
	movzbl	(%rax), %ecx
	cmpq	$61, %rcx
	jne	.LBB3_433
# BB#430:                               # %land.lhs.true140.i.i.i
                                        #   in Loop: Header=BB3_400 Depth=4
	movl	8(%rax), %eax
	movq	%r13, %rcx
	andq	%r9, %rcx
	cmpq	%rcx, %rax
	movabsq	$0, %rax
	jne	.LBB3_432
# BB#431:                               # %land.lhs.true140.i.i.i
                                        #   in Loop: Header=BB3_400 Depth=4
	movabsq	$1, %rax
.LBB3_432:                              # %land.lhs.true140.i.i.i
                                        #   in Loop: Header=BB3_400 Depth=4
	subq	%rax, %rsi
.LBB3_433:                              # %if.end146.i.i.i
                                        #   in Loop: Header=BB3_400 Depth=4
	movq	120(%rsp), %rax         # 8-byte Reload
	movq	(%rax), %rax
	testq	%rax, %rax
	je	.LBB3_438
# BB#434:                               # %land.lhs.true148.i.i.i
                                        #   in Loop: Header=BB3_400 Depth=4
	movzbl	(%rax), %ecx
	cmpq	$61, %rcx
	jne	.LBB3_438
# BB#435:                               # %land.lhs.true154.i.i.i
                                        #   in Loop: Header=BB3_400 Depth=4
	movl	8(%rax), %eax
	movq	%r13, %rcx
	andq	%r9, %rcx
	cmpq	%rcx, %rax
	movabsq	$0, %rax
	jne	.LBB3_437
# BB#436:                               # %land.lhs.true154.i.i.i
                                        #   in Loop: Header=BB3_400 Depth=4
	movabsq	$1, %rax
.LBB3_437:                              # %land.lhs.true154.i.i.i
                                        #   in Loop: Header=BB3_400 Depth=4
	subq	%rax, %rsi
.LBB3_438:                              # %if.end163.i.i.i
                                        #   in Loop: Header=BB3_400 Depth=4
	movq	$32, %rcx
	movq	144(%rsp), %rax         # 8-byte Reload
	shlq	%cl, %rax
	movq	$32, %rcx
	sarq	%cl, %rax
	movq	$32, %rcx
	movq	%rsi, %rdx
	shlq	%cl, %rdx
	movq	$32, %rcx
	sarq	%cl, %rdx
	cmpq	%rax, %rdx
	jl	.LBB3_441
# BB#439:                               # %lor.lhs.false166.i.i.i
                                        #   in Loop: Header=BB3_400 Depth=4
	movq	144(%rsp), %rax         # 8-byte Reload
	andq	%r9, %rax
	movq	%rsi, %rcx
	andq	%r9, %rcx
	cmpq	%rax, %rcx
	jne	.LBB3_442
# BB#440:                               # %land.lhs.true169.i.i.i
                                        #   in Loop: Header=BB3_400 Depth=4
	movslq	inv_reg_alloc_order(,%r13,4), %rax
	movq	$32, %rcx
	movq	152(%rsp), %rdx         # 8-byte Reload
	shlq	%cl, %rdx
	movq	$32, %rcx
	sarq	%cl, %rdx
	movslq	inv_reg_alloc_order(,%rdx,4), %rcx
	cmpq	%rcx, %rax
	jge	.LBB3_442
.LBB3_441:                              # %if.then176.i.i.i
                                        #   in Loop: Header=BB3_400 Depth=4
	movq	%r13, 152(%rsp)         # 8-byte Spill
	movq	%rsi, 144(%rsp)         # 8-byte Spill
	.align	16, 0x90
.LBB3_442:                              # %for.inc179.i.i.i
                                        #   in Loop: Header=BB3_400 Depth=4
	incq	%r13
	cmpq	$53, %r13
	jne	.LBB3_400
# BB#443:                               # %for.end181.i.i.i
                                        #   in Loop: Header=BB3_393 Depth=3
	movq	152(%rsp), %rbx         # 8-byte Reload
	movq	%rbx, %rax
	andq	%r9, %rax
	cmpq	%r9, %rax
	je	.LBB3_489
# BB#444:                               # %if.end185.i.i.i
                                        #   in Loop: Header=BB3_393 Depth=3
	movq	rtl_dump_file(%rip), %rdi
	testq	%rdi, %rdi
	je	.LBB3_446
# BB#445:                               # %if.then187.i.i.i
                                        #   in Loop: Header=BB3_393 Depth=3
	xorq	%rax, %rax
	movabsq	$.L.str41, %rsi
	movq	%rbx, %rdx
	movq	136(%rsp), %rcx         # 8-byte Reload
	movq	%r9, %r13
	callq	fprintf
	movq	%r13, %r9
.LBB3_446:                              # %if.end189.i.i.i
                                        #   in Loop: Header=BB3_393 Depth=3
	movslq	(%r12), %rax
	movq	%rbx, %rcx
	andq	%r15, %rcx
	cmpq	$8, %rcx
	je	.LBB3_450
# BB#447:                               # %if.end189.i.i.i
                                        #   in Loop: Header=BB3_393 Depth=3
	leaq	-21(%rbx), %rcx
	andq	%r9, %rcx
	cmpq	$8, %rcx
	jb	.LBB3_450
# BB#448:                               # %if.end189.i.i.i
                                        #   in Loop: Header=BB3_393 Depth=3
	leaq	-45(%rbx), %rcx
	andq	%r9, %rcx
	cmpq	$8, %rcx
	jb	.LBB3_450
# BB#449:                               # %if.end189.i.i.i
                                        #   in Loop: Header=BB3_393 Depth=3
	leaq	-29(%rbx), %rcx
	andq	%r9, %rcx
	cmpq	$7, %rcx
	jbe	.LBB3_450
# BB#454:                               # %cond.false227.i.i.i
                                        #   in Loop: Header=BB3_393 Depth=3
	movq	%rax, %rcx
	andq	%r9, %rcx
	cmpq	$24, %rcx
	jne	.LBB3_455
# BB#457:                               # %cond.true239.i.i.i
                                        #   in Loop: Header=BB3_393 Depth=3
	movzbl	target_flags+3(%rip), %eax
	andq	$2, %rax
	xorq	$6, %rax
	jmp	.LBB3_459
.LBB3_450:                              # %cond.true213.i.i.i
                                        #   in Loop: Header=BB3_393 Depth=3
	movl	mode_class(,%rax,4), %ecx
	cmpq	$5, %rcx
	movq	$2, %rax
	je	.LBB3_459
# BB#451:                               # %lor.rhs219.i.i.i
                                        #   in Loop: Header=BB3_393 Depth=3
	cmpq	$6, %rcx
	movabsq	$0, %rax
	jne	.LBB3_453
# BB#452:                               # %lor.rhs219.i.i.i
                                        #   in Loop: Header=BB3_393 Depth=3
	movabsq	$1, %rax
.LBB3_453:                              # %lor.rhs219.i.i.i
                                        #   in Loop: Header=BB3_393 Depth=3
	incq	%rax
	jmp	.LBB3_459
.LBB3_455:                              # %cond.false227.i.i.i
                                        #   in Loop: Header=BB3_393 Depth=3
	cmpq	$18, %rcx
	jne	.LBB3_458
# BB#456:                               # %cond.true231.i.i.i
                                        #   in Loop: Header=BB3_393 Depth=3
	movl	target_flags(%rip), %eax
	movq	$25, %rcx
	shrq	%cl, %rax
	andq	$1, %rax
	xorq	$3, %rax
	jmp	.LBB3_459
.LBB3_458:                              # %cond.false243.i.i.i
                                        #   in Loop: Header=BB3_393 Depth=3
	movl	target_flags(%rip), %esi
	movzbl	mode_size(%rax), %eax
	movq	$23, %rcx
	shrq	%cl, %rsi
	andq	$4, %rsi
	leaq	3(%rax,%rsi), %rax
	addq	$4, %rsi
	cqto
	idivq	%rsi
	.align	16, 0x90
.LBB3_459:                              # %cond.end261.i.i.i
                                        #   in Loop: Header=BB3_393 Depth=3
	movq	104(%rsp), %rcx         # 8-byte Reload
	movl	%eax, rld+32(%rcx)
	movq	80(%rsp), %rax          # 8-byte Reload
	movl	%ebx, (%rax)
	movq	96(%rsp), %rax          # 8-byte Reload
	movq	40(%rax), %rdx
	leaq	rld+32(%rcx), %rax
	movq	%rax, 144(%rsp)         # 8-byte Spill
	testq	%rdx, %rdx
	je	.LBB3_472
# BB#460:                               # %for.cond281.preheader.lr.ph.i.i.i
                                        #   in Loop: Header=BB3_393 Depth=3
	movl	16(%rdx), %eax
	testq	%rax, %rax
	movq	$53, %r15
	je	.LBB3_462
# BB#461:                               # %select.mid228
                                        #   in Loop: Header=BB3_393 Depth=3
	xorq	%r15, %r15
	.align	16, 0x90
.LBB3_462:                              # %for.cond281.preheader.i.i.i
                                        #   Parent Loop BB3_164 Depth=1
                                        #     Parent Loop BB3_344 Depth=2
                                        #       Parent Loop BB3_393 Depth=3
                                        # =>      This Loop Header: Depth=4
                                        #           Child Loop BB3_464 Depth 5
                                        #           Child Loop BB3_468 Depth 5
	movq	%rdx, 136(%rsp)         # 8-byte Spill
	movq	24(%rdx), %r14
	testq	%r14, %r14
	je	.LBB3_467
# BB#463:                               # %for.body293.preheader.i.i.i
                                        #   in Loop: Header=BB3_462 Depth=4
	movq	%r15, %rbx
	andq	%r9, %rbx
	.align	16, 0x90
.LBB3_464:                              # %for.body293.i.i.i
                                        #   Parent Loop BB3_164 Depth=1
                                        #     Parent Loop BB3_344 Depth=2
                                        #       Parent Loop BB3_393 Depth=3
                                        #         Parent Loop BB3_462 Depth=4
                                        # =>        This Inner Loop Header: Depth=5
	movq	$1, %r12
	movq	%rbx, %rcx
	shlq	%cl, %r12
	testq	%r12, %r14
	je	.LBB3_466
# BB#465:                               # %if.then299.i.i.i
                                        #   in Loop: Header=BB3_464 Depth=5
	movq	136(%rsp), %rax         # 8-byte Reload
	movl	16(%rax), %edx
	movq	$7, %rcx
	movq	144(%rsp), %rax         # 8-byte Reload
	movl	(%rax), %esi
	shlq	%cl, %rdx
	notq	%r12
	addq	%rbx, %rdx
	movq	152(%rsp), %rdi         # 8-byte Reload
	movq	%r9, %r13
	callq	count_spilled_pseudo
	movq	%r13, %r9
	andq	%r12, %r14
	je	.LBB3_467
.LBB3_466:                              # %for.inc312.i.i.i
                                        #   in Loop: Header=BB3_464 Depth=5
	incq	%r15
	movq	%r15, %rax
	andq	%r9, %rax
	incq	%rbx
	cmpq	$64, %rax
	jb	.LBB3_464
.LBB3_467:                              # %if.end315.i.i.i
                                        #   in Loop: Header=BB3_462 Depth=4
	movq	136(%rsp), %rax         # 8-byte Reload
	movq	32(%rax), %r14
	xorq	%r12, %r12
	testq	%r14, %r14
	movabsq	$0, %r15
	je	.LBB3_471
	.align	16, 0x90
.LBB3_468:                              # %for.body293.1.i.i.i
                                        #   Parent Loop BB3_164 Depth=1
                                        #     Parent Loop BB3_344 Depth=2
                                        #       Parent Loop BB3_393 Depth=3
                                        #         Parent Loop BB3_462 Depth=4
                                        # =>        This Inner Loop Header: Depth=5
	movq	$1, %rbx
	movq	%r12, %rcx
	shlq	%cl, %rbx
	testq	%rbx, %r14
	je	.LBB3_470
# BB#469:                               # %if.then299.1.i.i.i
                                        #   in Loop: Header=BB3_468 Depth=5
	movq	136(%rsp), %rax         # 8-byte Reload
	movl	16(%rax), %eax
	movq	$7, %rcx
	movq	144(%rsp), %rdx         # 8-byte Reload
	movl	(%rdx), %esi
	shlq	%cl, %rax
	notq	%rbx
	leaq	64(%r12,%rax), %rdx
	movq	152(%rsp), %rdi         # 8-byte Reload
	movq	%r9, %r13
	callq	count_spilled_pseudo
	movq	%r13, %r9
	andq	%rbx, %r14
	je	.LBB3_471
.LBB3_470:                              # %for.inc312.1.i.i.i
                                        #   in Loop: Header=BB3_468 Depth=5
	incq	%r15
	movq	%r15, %rax
	andq	%r9, %rax
	incq	%r12
	cmpq	$64, %rax
	jb	.LBB3_468
.LBB3_471:                              # %if.end315.1.i.i.i
                                        #   in Loop: Header=BB3_462 Depth=4
	movq	136(%rsp), %rdx         # 8-byte Reload
	movq	(%rdx), %rdx
	xorq	%r15, %r15
	testq	%rdx, %rdx
	jne	.LBB3_462
.LBB3_472:                              # %do.body322.i.i.i
                                        #   in Loop: Header=BB3_393 Depth=3
	movq	96(%rsp), %rax          # 8-byte Reload
	movq	64(%rax), %rcx
	testq	%rcx, %rcx
	je	.LBB3_485
# BB#473:                               # %for.cond351.preheader.lr.ph.i.i.i
                                        #   in Loop: Header=BB3_393 Depth=3
	movl	16(%rcx), %eax
	testq	%rax, %rax
	movq	$53, %r15
	je	.LBB3_475
# BB#474:                               # %select.mid236
                                        #   in Loop: Header=BB3_393 Depth=3
	xorq	%r15, %r15
	.align	16, 0x90
.LBB3_475:                              # %for.cond351.preheader.i.i.i
                                        #   Parent Loop BB3_164 Depth=1
                                        #     Parent Loop BB3_344 Depth=2
                                        #       Parent Loop BB3_393 Depth=3
                                        # =>      This Loop Header: Depth=4
                                        #           Child Loop BB3_477 Depth 5
                                        #           Child Loop BB3_481 Depth 5
	movq	%rcx, 136(%rsp)         # 8-byte Spill
	movq	24(%rcx), %r14
	testq	%r14, %r14
	je	.LBB3_480
# BB#476:                               # %for.body365.preheader.i.i.i
                                        #   in Loop: Header=BB3_475 Depth=4
	movq	%r15, %r12
	andq	%r9, %r12
	.align	16, 0x90
.LBB3_477:                              # %for.body365.i.i.i
                                        #   Parent Loop BB3_164 Depth=1
                                        #     Parent Loop BB3_344 Depth=2
                                        #       Parent Loop BB3_393 Depth=3
                                        #         Parent Loop BB3_475 Depth=4
                                        # =>        This Inner Loop Header: Depth=5
	movq	$1, %rbx
	movq	%r12, %rcx
	shlq	%cl, %rbx
	testq	%rbx, %r14
	je	.LBB3_479
# BB#478:                               # %if.then372.i.i.i
                                        #   in Loop: Header=BB3_477 Depth=5
	movq	136(%rsp), %rax         # 8-byte Reload
	movl	16(%rax), %edx
	movq	$7, %rcx
	movq	144(%rsp), %rax         # 8-byte Reload
	movl	(%rax), %esi
	shlq	%cl, %rdx
	notq	%rbx
	addq	%r12, %rdx
	movq	152(%rsp), %rdi         # 8-byte Reload
	movq	%r9, %r13
	callq	count_spilled_pseudo
	movq	%r13, %r9
	andq	%rbx, %r14
	je	.LBB3_480
.LBB3_479:                              # %for.inc386.i.i.i
                                        #   in Loop: Header=BB3_477 Depth=5
	incq	%r15
	movq	%r15, %rax
	andq	%r9, %rax
	incq	%r12
	cmpq	$64, %rax
	jb	.LBB3_477
.LBB3_480:                              # %if.end389.i.i.i
                                        #   in Loop: Header=BB3_475 Depth=4
	movq	136(%rsp), %rax         # 8-byte Reload
	movq	32(%rax), %r14
	xorq	%r12, %r12
	testq	%r14, %r14
	movabsq	$0, %r15
	je	.LBB3_484
	.align	16, 0x90
.LBB3_481:                              # %for.body365.1.i.i.i
                                        #   Parent Loop BB3_164 Depth=1
                                        #     Parent Loop BB3_344 Depth=2
                                        #       Parent Loop BB3_393 Depth=3
                                        #         Parent Loop BB3_475 Depth=4
                                        # =>        This Inner Loop Header: Depth=5
	movq	$1, %rbx
	movq	%r12, %rcx
	shlq	%cl, %rbx
	testq	%rbx, %r14
	je	.LBB3_483
# BB#482:                               # %if.then372.1.i.i.i
                                        #   in Loop: Header=BB3_481 Depth=5
	movq	136(%rsp), %rax         # 8-byte Reload
	movl	16(%rax), %eax
	movq	$7, %rcx
	movq	144(%rsp), %rdx         # 8-byte Reload
	movl	(%rdx), %esi
	shlq	%cl, %rax
	notq	%rbx
	leaq	64(%r12,%rax), %rdx
	movq	152(%rsp), %rdi         # 8-byte Reload
	movq	%r9, %r13
	callq	count_spilled_pseudo
	movq	%r13, %r9
	andq	%rbx, %r14
	je	.LBB3_484
.LBB3_483:                              # %for.inc386.1.i.i.i
                                        #   in Loop: Header=BB3_481 Depth=5
	incq	%r15
	movq	%r15, %rax
	andq	%r9, %rax
	incq	%r12
	cmpq	$64, %rax
	jb	.LBB3_481
.LBB3_484:                              # %if.end389.1.i.i.i
                                        #   in Loop: Header=BB3_475 Depth=4
	movq	136(%rsp), %rcx         # 8-byte Reload
	movq	(%rcx), %rcx
	xorq	%r15, %r15
	testq	%rcx, %rcx
	jne	.LBB3_475
.LBB3_485:                              # %for.cond397.preheader.i.i.i
                                        #   in Loop: Header=BB3_393 Depth=3
	movq	144(%rsp), %rax         # 8-byte Reload
	movl	(%rax), %eax
	testq	%rax, %rax
	movq	$1, %rdx
	movq	72(%rsp), %rdi          # 8-byte Reload
	movq	152(%rsp), %rbx         # 8-byte Reload
	je	.LBB3_492
	.align	16, 0x90
.LBB3_486:                              # %for.body401.i.i.i
                                        #   Parent Loop BB3_164 Depth=1
                                        #     Parent Loop BB3_344 Depth=2
                                        #       Parent Loop BB3_393 Depth=3
                                        # =>      This Inner Loop Header: Depth=4
	leaq	-1(%rdx,%rbx), %rcx
	andq	%r9, %rcx
	movl	spill_cost(,%rcx,4), %esi
	testq	%rsi, %rsi
	jne	.LBB3_488
# BB#487:                               # %lor.lhs.false407.i.i.i
                                        #   in Loop: Header=BB3_486 Depth=4
	movl	spill_add_cost(,%rcx,4), %esi
	testq	%rsi, %rsi
	jne	.LBB3_488
# BB#491:                               # %if.end414.i.i.i
                                        #   in Loop: Header=BB3_486 Depth=4
	movq	$1, %rsi
	shlq	%cl, %rsi
	orq	%rsi, used_spill_regs_local(%rip)
	movq	%rdx, %rcx
	andq	%r9, %rcx
	incq	%rdx
	cmpq	%rax, %rcx
	jb	.LBB3_486
	.align	16, 0x90
.LBB3_492:                              # %for.inc148.i.i
                                        #   in Loop: Header=BB3_393 Depth=3
	incq	%rdi
	incq	128(%rsp)               # 8-byte Folded Spill
	movslq	n_reloads(%rip), %rax
	movq	$32, %rcx
	movq	%rdi, %rdx
	shlq	%cl, %rdx
	movq	$32, %rcx
	sarq	%cl, %rdx
	cmpq	%rax, %rdx
	jl	.LBB3_393
.LBB3_493:                              # %for.end150.i.i
                                        #   in Loop: Header=BB3_344 Depth=2
	movq	%r9, %r12
	movq	used_spill_regs_local(%rip), %rcx
	movq	96(%rsp), %rbx          # 8-byte Reload
	movq	%rcx, 104(%rbx)
	movq	used_spill_regs_local(%rip), %rcx
	orq	%rcx, used_spill_regs(%rip)
	movq	88(%rbx), %rdi
	imulq	$104, %rax, %rdx
	movabsq	$rld, %rsi
	callq	memcpy
	xorq	%r13, %r13
.LBB3_494:                              # %find_reload_regs.exit.i
                                        #   in Loop: Header=BB3_344 Depth=2
	movq	16(%rbx), %rbx
	testq	%rbx, %rbx
	movq	%r12, %r10
	movabsq	$0, %r15
	jne	.LBB3_344
.LBB3_495:                              # %select_reload_regs.exit
                                        #   in Loop: Header=BB3_164 Depth=1
	movzbl	failure(%rip), %eax
	testq	%rax, %rax
	jne	.LBB3_549
# BB#496:                               # %if.end841
                                        #   in Loop: Header=BB3_164 Depth=1
	cmpq	$0, insns_need_reload(%rip)
	jne	.LBB3_499
# BB#497:                               # %if.end841
                                        #   in Loop: Header=BB3_164 Depth=1
	movq	40(%rsp), %rax          # 8-byte Reload
	testq	%r10, %rax
	jne	.LBB3_499
# BB#498:                               #   in Loop: Header=BB3_164 Depth=1
	movq	48(%rsp), %rcx          # 8-byte Reload
	jmp	.LBB3_500
.LBB3_499:                              # %if.then846
                                        #   in Loop: Header=BB3_164 Depth=1
	movq	64(%rsp), %rdi          # 8-byte Reload
	movq	%r10, %rbx
	callq	finish_spills
	movq	%rbx, %r10
	movq	48(%rsp), %rcx          # 8-byte Reload
	orq	%rax, %rcx
.LBB3_500:                              # %if.end848
                                        #   in Loop: Header=BB3_164 Depth=1
	testq	%r10, %rcx
	je	.LBB3_517
# BB#501:                               # %if.end851
                                        #   in Loop: Header=BB3_164 Depth=1
	movl	caller_save_needed(%rip), %eax
	testq	%rax, %rax
	je	.LBB3_513
# BB#502:                               # %if.then853
                                        #   in Loop: Header=BB3_164 Depth=1
	movq	reload_insn_chain(%rip), %r14
.LBB3_503:                              # %while.cond.loopexit.i
                                        #   Parent Loop BB3_164 Depth=1
                                        # =>  This Loop Header: Depth=2
                                        #       Child Loop BB3_505 Depth 3
	testq	%r14, %r14
	je	.LBB3_513
# BB#504:                               # %while.cond1.preheader.i
                                        #   in Loop: Header=BB3_503 Depth=2
	testq	%r14, %r14
	movq	%r14, %rbx
	je	.LBB3_513
	.align	16, 0x90
.LBB3_505:                              # %land.rhs.i
                                        #   Parent Loop BB3_164 Depth=1
                                        #     Parent Loop BB3_503 Depth=2
                                        # =>    This Inner Loop Header: Depth=3
	movzbl	262(%rbx), %eax
	movq	(%rbx), %r14
	testq	$8, %rax
	je	.LBB3_503
# BB#506:                               # %while.body3.i
                                        #   in Loop: Header=BB3_505 Depth=3
	movq	%r15, %r12
	movq	%r10, %r15
	movq	reload_insn_chain(%rip), %rax
	movq	32(%rbx), %rdi
	cmpq	%rax, %rbx
	jne	.LBB3_508
# BB#507:                               # %if.then.i1713
                                        #   in Loop: Header=BB3_505 Depth=3
	movq	%r14, reload_insn_chain(%rip)
.LBB3_508:                              # %if.end.i1715
                                        #   in Loop: Header=BB3_505 Depth=3
	callq	delete_insn
	testq	%r14, %r14
	je	.LBB3_510
# BB#509:                               # %if.then8.i1716
                                        #   in Loop: Header=BB3_505 Depth=3
	movq	8(%rbx), %rax
	movq	%rax, 8(%r14)
.LBB3_510:                              # %if.end10.i
                                        #   in Loop: Header=BB3_505 Depth=3
	movq	8(%rbx), %rax
	testq	%rax, %rax
	movq	%r15, %r10
	je	.LBB3_512
# BB#511:                               # %if.then13.i
                                        #   in Loop: Header=BB3_505 Depth=3
	movq	%r14, (%rax)
.LBB3_512:                              # %if.end16.i
                                        #   in Loop: Header=BB3_505 Depth=3
	movq	unused_insn_chains(%rip), %rax
	testq	%r14, %r14
	movq	%rax, (%rbx)
	movq	%rbx, unused_insn_chains(%rip)
	movq	%r14, %rbx
	movq	%r12, %r15
	jne	.LBB3_505
.LBB3_513:                              # %if.end854
                                        #   in Loop: Header=BB3_164 Depth=1
	movq	reload_firstobj(%rip), %rsi
	movq	reload_obstack+8(%rip), %rax
	cmpq	%rax, %rsi
	jbe	.LBB3_516
# BB#514:                               # %if.end854
                                        #   in Loop: Header=BB3_164 Depth=1
	movq	reload_obstack+32(%rip), %rax
	cmpq	%rax, %rsi
	jae	.LBB3_516
# BB#515:                               # %if.then865
                                        #   in Loop: Header=BB3_164 Depth=1
	movq	%r10, %r12
	movq	%rsi, reload_obstack+16(%rip)
	movq	%rsi, reload_obstack+24(%rip)
	jmp	.LBB3_164
.LBB3_517:                              # %for.end870
	movabsq	$4294967295, %r14       # imm = 0xFFFFFFFF
	movq	64(%rsp), %rax          # 8-byte Reload
	testq	%r14, %rax
	je	.LBB3_522
# BB#518:                               # %for.body877.lr.ph
	movq	reg_eliminate(%rip), %rax
	movq	%rax, %rbx
	.align	16, 0x90
.LBB3_519:                              # %for.body877
                                        # =>This Inner Loop Header: Depth=1
	movl	12(%rbx), %ecx
	testq	%rcx, %rcx
	je	.LBB3_521
# BB#520:                               # %if.then880
                                        #   in Loop: Header=BB3_519 Depth=1
	movl	4(%rbx), %esi
	movl	(%rbx), %edi
	callq	mark_elimination
	movq	reg_eliminate(%rip), %rax
.LBB3_521:                              # %for.inc883
                                        #   in Loop: Header=BB3_519 Depth=1
	addq	$48, %rbx
	leaq	192(%rax), %rcx
	cmpq	%rcx, %rbx
	jb	.LBB3_519
.LBB3_522:                              # %for.cond887.preheader
	movslq	max_regno(%rip), %rax
	cmpq	$53, %rax
	jle	.LBB3_534
# BB#523:
	movq	$53, %r15
	movq	$37, %r12
	.align	16, 0x90
.LBB3_524:                              # %for.body890
                                        # =>This Loop Header: Depth=1
                                        #     Child Loop BB3_526 Depth 2
	movq	reg_renumber(%rip), %rcx
	movswq	(%rcx,%r15,2), %rcx
	testq	%rcx, %rcx
	jns	.LBB3_533
# BB#525:                               # %land.lhs.true896
                                        #   in Loop: Header=BB3_524 Depth=1
	movq	reg_equiv_init(%rip), %rcx
	movq	(%rcx,%r15,8), %rbx
	testq	%rbx, %rbx
	je	.LBB3_533
	.align	16, 0x90
.LBB3_526:                              # %for.body907
                                        #   Parent Loop BB3_524 Depth=1
                                        # =>  This Inner Loop Header: Depth=2
	movq	8(%rbx), %r13
	movzbl	(%r13), %eax
	cmpq	$37, %rax
	je	.LBB3_531
# BB#527:                               # %lor.lhs.false916
                                        #   in Loop: Header=BB3_526 Depth=2
	movq	%r13, %rdi
	callq	can_throw_internal
	testq	%rax, %rax
	jne	.LBB3_531
# BB#528:                               # %if.else920
                                        #   in Loop: Header=BB3_526 Depth=2
	movq	cfun(%rip), %rax
	movq	24(%rax), %rax
	movq	80(%rax), %rax
	movq	(%rax,%r15,8), %rdi
	movq	32(%r13), %rsi
	callq	reg_set_p
	testq	%r14, %rax
	jne	.LBB3_529
# BB#530:                               # %if.else931
                                        #   in Loop: Header=BB3_526 Depth=2
	movw	%r12w, (%r13)
	movq	$0, 32(%r13)
	movabsq	$4294967197, %rax       # imm = 0xFFFFFF9D
	movl	%eax, 40(%r13)
	jmp	.LBB3_531
.LBB3_529:                              # %if.then930
                                        #   in Loop: Header=BB3_526 Depth=2
	movq	%r13, %rdi
	callq	delete_dead_insn
	.align	16, 0x90
.LBB3_531:                              # %for.inc941
                                        #   in Loop: Header=BB3_526 Depth=2
	movq	16(%rbx), %rbx
	testq	%rbx, %rbx
	jne	.LBB3_526
# BB#532:                               # %for.inc947.loopexit
                                        #   in Loop: Header=BB3_524 Depth=1
	movl	max_regno(%rip), %eax
.LBB3_533:                              # %for.inc947
                                        #   in Loop: Header=BB3_524 Depth=1
	incq	%r15
	movq	$32, %rcx
	movq	%r15, %rdx
	shlq	%cl, %rdx
	movq	$32, %rcx
	sarq	%cl, %rdx
	movq	$32, %rcx
	movq	%rax, %rsi
	shlq	%cl, %rsi
	movq	$32, %rcx
	sarq	%cl, %rsi
	cmpq	%rsi, %rdx
	jl	.LBB3_524
.LBB3_534:                              # %for.end949
	cmpq	$0, insns_need_reload(%rip)
	jne	.LBB3_537
# BB#535:                               # %for.end949
	movzbl	something_needs_elimination(%rip), %eax
	testq	$1, %rax
	jne	.LBB3_537
# BB#536:                               # %for.end949
	movl	something_needs_operands_changed(%rip), %eax
	testq	%r14, %rax
	je	.LBB3_545
.LBB3_537:                              # %if.then956
	callq	get_frame_size
	movq	%rax, %rbx
	movq	64(%rsp), %rdi          # 8-byte Reload
	callq	reload_as_needed
	callq	get_frame_size
	cmpq	%rax, %rbx
	jne	.LBB3_538
# BB#540:                               # %if.end963
	movl	num_eliminable(%rip), %eax
	testq	%rax, %rax
	je	.LBB3_545
# BB#541:                               # %if.then965
	movq	reg_eliminate(%rip), %rbx
	.align	16, 0x90
.LBB3_543:                              # %for.body.i1727
                                        # =>This Inner Loop Header: Depth=1
	movl	4(%rbx), %esi
	movl	(%rbx), %edi
	callq	ix86_initial_elimination_offset
	movl	8(%rbx), %ecx
	andq	%r14, %rax
	cmpq	%rcx, %rax
	jne	.LBB3_544
# BB#542:                               # %for.cond.i
                                        #   in Loop: Header=BB3_543 Depth=1
	movq	reg_eliminate(%rip), %rax
	addq	$192, %rax
	addq	$48, %rbx
	cmpq	%rax, %rbx
	jb	.LBB3_543
.LBB3_545:                              # %if.end967
	movl	frame_pointer_needed(%rip), %eax
	testq	%rax, %rax
	jne	.LBB3_549
# BB#546:                               # %if.end967
	movl	n_basic_blocks(%rip), %eax
	movq	$32, %rcx
	shlq	%cl, %rax
	movq	$32, %rcx
	sarq	%cl, %rax
	testq	%rax, %rax
	jle	.LBB3_549
# BB#547:
	movq	$4, %rbx
	.align	16, 0x90
.LBB3_548:                              # %for.body973
                                        # =>This Inner Loop Header: Depth=1
	movq	basic_block_info(%rip), %rax
	movq	(%rax,%rbx,8), %rax
	movq	64(%rax), %rdi
	movq	$6, %rsi
	callq	bitmap_clear_bit
	movslq	n_basic_blocks(%rip), %rax
	leaq	-3(%rbx), %rdx
	movq	$32, %rcx
	shlq	%cl, %rdx
	movq	$32, %rcx
	sarq	%cl, %rdx
	incq	%rbx
	cmpq	%rax, %rdx
	jl	.LBB3_548
.LBB3_549:                              # %failed
	movabsq	$spilled_pseudos, %rdi
	callq	bitmap_clear
	movslq	max_regno(%rip), %rcx
	xorq	%rax, %rax
	movl	%eax, reload_in_progress(%rip)
	cmpq	$54, %rcx
	jl	.LBB3_563
# BB#550:
	movabsq	$4278124610, %rdx       # imm = 0xFEFF0042
	.align	16, 0x90
.LBB3_551:                              # %for.body983
                                        # =>This Inner Loop Header: Depth=1
	movq	reg_equiv_mem(%rip), %rcx
	movq	424(%rcx,%rax,8), %rcx
	xorq	%rsi, %rsi
	testq	%rcx, %rcx
	je	.LBB3_553
# BB#552:                               # %if.then988
                                        #   in Loop: Header=BB3_551 Depth=1
	movq	8(%rcx), %rsi
.LBB3_553:                              # %if.end994
                                        #   in Loop: Header=BB3_551 Depth=1
	movq	reg_equiv_address(%rip), %rdi
	movq	424(%rdi,%rax,8), %rdi
	testq	%rdi, %rdi
	je	.LBB3_555
# BB#554:                               # %if.end994
                                        #   in Loop: Header=BB3_551 Depth=1
	movq	%rdi, %rsi
.LBB3_555:                              # %if.end994
                                        #   in Loop: Header=BB3_551 Depth=1
	testq	%rsi, %rsi
	je	.LBB3_562
# BB#556:                               # %if.then1003
                                        #   in Loop: Header=BB3_551 Depth=1
	movq	reg_renumber(%rip), %rdi
	movswq	106(%rdi,%rax,2), %rdi
	testq	%rdi, %rdi
	jns	.LBB3_560
# BB#557:                               # %if.then1009
                                        #   in Loop: Header=BB3_551 Depth=1
	movq	cfun(%rip), %rcx
	movq	24(%rcx), %rcx
	movq	80(%rcx), %rcx
	movq	424(%rcx,%rax,8), %rcx
	movl	(%rcx), %edi
	andq	$-65536, %rdi           # imm = 0xFFFFFFFFFFFF0000
	orq	$66, %rdi
	movq	%rsi, 8(%rcx)
	movq	%rdi, %rbx
	andq	$-134283198, %rbx       # imm = 0xFFFFFFFFF7FF0042
	movl	%ebx, (%rcx)
	movq	reg_equiv_memory_loc(%rip), %rsi
	movq	424(%rsi,%rax,8), %rsi
	testq	%rsi, %rsi
	jne	.LBB3_558
# BB#559:                               # %if.else1081
                                        #   in Loop: Header=BB3_551 Depth=1
	andq	$1677656130, %rdi       # imm = 0x63FF0042
	movl	%edi, (%rcx)
	movq	$0, 16(%rcx)
	jmp	.LBB3_562
	.align	16, 0x90
.LBB3_560:                              # %if.else1092
                                        #   in Loop: Header=BB3_551 Depth=1
	testq	%rcx, %rcx
	je	.LBB3_562
# BB#561:                               # %if.then1096
                                        #   in Loop: Header=BB3_551 Depth=1
	movq	%rsi, 8(%rcx)
	jmp	.LBB3_562
.LBB3_558:                              # %if.then1026
                                        #   in Loop: Header=BB3_551 Depth=1
	movl	(%rsi), %esi
	andq	$134217728, %rsi        # imm = 0x8000000
	orq	%rbx, %rsi
	movl	%esi, (%rcx)
	movq	reg_equiv_memory_loc(%rip), %rdi
	movq	424(%rdi,%rax,8), %rdi
	movl	(%rdi), %edi
	andq	$268435456, %rdi        # imm = 0x10000000
	andq	$-268500926, %rsi       # imm = 0xFFFFFFFFEFFF0042
	orq	%rdi, %rsi
	movl	%esi, (%rcx)
	movq	reg_equiv_memory_loc(%rip), %rdi
	movq	424(%rdi,%rax,8), %rdi
	movl	(%rdi), %edi
	andq	$-2147483648, %rdi      # imm = 0xFFFFFFFF80000000
	andq	$2147418178, %rsi       # imm = 0x7FFF0042
	orq	%rdi, %rsi
	movl	%esi, (%rcx)
	movq	reg_equiv_memory_loc(%rip), %rdi
	movq	424(%rdi,%rax,8), %rdi
	movl	(%rdi), %edi
	andq	$67108864, %rdi         # imm = 0x4000000
	andq	$-67174334, %rsi        # imm = 0xFFFFFFFFFBFF0042
	orq	%rdi, %rsi
	movl	%esi, (%rcx)
	movq	reg_equiv_memory_loc(%rip), %rdi
	movq	424(%rdi,%rax,8), %rdi
	movl	(%rdi), %edi
	andq	$16777216, %rdi         # imm = 0x1000000
	andq	%rdx, %rsi
	orq	%rdi, %rsi
	movl	%esi, (%rcx)
	movq	reg_equiv_memory_loc(%rip), %rsi
	movq	424(%rsi,%rax,8), %rsi
	movq	16(%rsi), %rsi
	movq	%rsi, 16(%rcx)
	.align	16, 0x90
.LBB3_562:                              # %for.inc1105
                                        #   in Loop: Header=BB3_551 Depth=1
	movslq	max_regno(%rip), %rsi
	leaq	54(%rax), %rdi
	movq	$32, %rcx
	shlq	%cl, %rdi
	movq	$32, %rcx
	sarq	%cl, %rdi
	incq	%rax
	cmpq	%rsi, %rdi
	jl	.LBB3_551
.LBB3_563:                              # %for.end1107
	cmpq	$0, 56(%rsp)            # 8-byte Folded Reload
	movq	$1, %rax
	movl	%eax, reload_completed(%rip)
	je	.LBB3_584
# BB#564:
	movq	56(%rsp), %rbx          # 8-byte Reload
	.align	16, 0x90
.LBB3_565:                              # %for.body1110
                                        # =>This Loop Header: Depth=1
                                        #     Child Loop BB3_577 Depth 2
                                        #       Child Loop BB3_578 Depth 3
	movzbl	(%rbx), %eax
	movzbl	rtx_class(%rax), %ecx
	cmpq	$105, %rcx
	jne	.LBB3_583
# BB#566:                               # %if.then1118
                                        #   in Loop: Header=BB3_565 Depth=1
	cmpq	$34, %rax
	jne	.LBB3_568
# BB#567:                               # %if.then1124
                                        #   in Loop: Header=BB3_565 Depth=1
	movq	64(%rbx), %rdx
	leaq	64(%rbx), %rdi
	xorq	%rsi, %rsi
	callq	replace_pseudos_in_call_usage
.LBB3_568:                              # %if.end1131
                                        #   in Loop: Header=BB3_565 Depth=1
	movq	32(%rbx), %rax
	movl	(%rax), %ecx
	movq	%rcx, %rdx
	andq	$65535, %rdx            # imm = 0xFFFF
	cmpq	$48, %rdx
	jne	.LBB3_572
# BB#569:                               # %land.lhs.true1139
                                        #   in Loop: Header=BB3_565 Depth=1
	movl	(%rbx), %eax
	andq	$16711680, %rax         # imm = 0xFF0000
	cmpq	$131072, %rax           # imm = 0x20000
	je	.LBB3_574
# BB#570:                               # %lor.lhs.false1145
                                        #   in Loop: Header=BB3_565 Depth=1
	movq	$4, %rsi
	xorq	%rdx, %rdx
	movq	%rbx, %rdi
	callq	find_reg_note
	testq	%rax, %rax
	jne	.LBB3_574
# BB#571:                               # %lor.lhs.false1145.lor.lhs.false1148_crit_edge
                                        #   in Loop: Header=BB3_565 Depth=1
	movq	32(%rbx), %rax
	movl	(%rax), %ecx
	.align	16, 0x90
.LBB3_572:                              # %lor.lhs.false1148
                                        #   in Loop: Header=BB3_565 Depth=1
	andq	$65535, %rcx            # imm = 0xFFFF
	cmpq	$49, %rcx
	jne	.LBB3_575
# BB#573:                               # %land.lhs.true1156
                                        #   in Loop: Header=BB3_565 Depth=1
	movq	8(%rax), %rax
	movl	(%rax), %eax
	andq	$1073807359, %rax       # imm = 0x4000FFFF
	cmpq	$1073741885, %rax       # imm = 0x4000003D
	jne	.LBB3_574
.LBB3_575:                              # %if.end1180
                                        #   in Loop: Header=BB3_565 Depth=1
	movq	56(%rbx), %rcx
	testq	%rcx, %rcx
	je	.LBB3_582
# BB#576:                               #   in Loop: Header=BB3_565 Depth=1
	leaq	56(%rbx), %rax
	.align	16, 0x90
.LBB3_577:                              # %while.body.lr.ph
                                        #   Parent Loop BB3_565 Depth=1
                                        # =>  This Loop Header: Depth=2
                                        #       Child Loop BB3_578 Depth 3
	movq	%rcx, %rdx
.LBB3_578:                              # %while.body
                                        #   Parent Loop BB3_565 Depth=1
                                        #     Parent Loop BB3_577 Depth=2
                                        # =>    This Inner Loop Header: Depth=3
	movzbl	2(%rdx), %ecx
	cmpq	$10, %rcx
	ja	.LBB3_581
# BB#579:                               # %while.body
                                        #   in Loop: Header=BB3_578 Depth=3
	movq	$1, %rsi
	shlq	%cl, %rsi
	testq	$1222, %rsi             # imm = 0x4C6
	je	.LBB3_581
# BB#580:                               # %if.then1215
                                        #   in Loop: Header=BB3_578 Depth=3
	movq	16(%rdx), %rdx
	testq	%rdx, %rdx
	movq	%rdx, (%rax)
	jne	.LBB3_578
	jmp	.LBB3_582
	.align	16, 0x90
.LBB3_581:                              # %if.else1219
                                        #   in Loop: Header=BB3_577 Depth=2
	movq	16(%rdx), %rcx
	addq	$16, %rdx
	testq	%rcx, %rcx
	movq	%rdx, %rax
	jne	.LBB3_577
	.align	16, 0x90
.LBB3_582:                              # %while.end
                                        #   in Loop: Header=BB3_565 Depth=1
	movq	%rbx, %rdi
	callq	cleanup_subreg_operands
	jmp	.LBB3_583
	.align	16, 0x90
.LBB3_574:                              # %if.then1178
                                        #   in Loop: Header=BB3_565 Depth=1
	movq	%rbx, %rdi
	callq	delete_insn
.LBB3_583:                              # %for.inc1225
                                        #   in Loop: Header=BB3_565 Depth=1
	movq	24(%rbx), %rbx
	testq	%rbx, %rbx
	jne	.LBB3_565
.LBB3_584:                              # %for.end1229
	movl	flag_stack_check(%rip), %eax
	testq	%rax, %rax
	je	.LBB3_595
# BB#585:                               # %if.then1231
	callq	get_frame_size
	movl	target_flags(%rip), %edx
	movq	$21, %rcx
	movq	%rdx, %rdi
	shrq	%cl, %rdi
	andq	$16, %rdi
	addq	$16, %rdi
	movabsq	$4294967280, %rsi       # imm = 0xFFFFFFF0
	andq	%rdi, %rsi
	addq	%rax, %rsi
	movq	$23, %rcx
	shrq	%cl, %rdx
	andq	$4, %rdx
	leaq	4(%rdx), %rcx
	movabsq	$4294967292, %rax       # imm = 0xFFFFFFFC
	andq	%rcx, %rax
	movq	$-53, %rcx
	.align	16, 0x90
.LBB3_586:                              # %for.body1243
                                        # =>This Inner Loop Header: Depth=1
	movzbl	regs_ever_live+53(%rcx), %edi
	testq	%rdi, %rdi
	je	.LBB3_591
# BB#587:                               # %land.lhs.true1248
                                        #   in Loop: Header=BB3_586 Depth=1
	movzbl	fixed_regs+53(%rcx), %edi
	testq	%rdi, %rdi
	jne	.LBB3_591
# BB#588:                               # %land.lhs.true1252
                                        #   in Loop: Header=BB3_586 Depth=1
	movzbl	call_used_regs+53(%rcx), %ebx
	xorq	%rdi, %rdi
	testq	%rbx, %rbx
	je	.LBB3_590
# BB#589:                               # %select.mid267
                                        #   in Loop: Header=BB3_586 Depth=1
	movq	%rax, %rdi
.LBB3_590:                              # %select.end266
                                        #   in Loop: Header=BB3_586 Depth=1
	addq	%rdi, %rsi
.LBB3_591:                              # %for.inc1264
                                        #   in Loop: Header=BB3_586 Depth=1
	incq	%rcx
	jne	.LBB3_586
# BB#592:                               # %for.end1266
	movq	$4092, %rax             # imm = 0xFFC
	subq	%rdx, %rax
	movabsq	$4294967295, %rcx       # imm = 0xFFFFFFFF
	andq	%rax, %rcx
	cmpq	%rcx, %rsi
	jle	.LBB3_595
# BB#593:                               # %if.then1274
	movabsq	$.L.str2, %rdi
	xorq	%rax, %rax
	callq	warning
	movzbl	reload.verbose_warned(%rip), %eax
	testq	%rax, %rax
	jne	.LBB3_595
# BB#594:                               # %if.then1276
	movabsq	$.L.str3, %rdi
	xorq	%rax, %rax
	callq	warning
	movq	$1, %rax
	movb	%al, reload.verbose_warned(%rip)
.LBB3_595:                              # %if.end1279
	movq	reg_equiv_constant(%rip), %rdi
	testq	%rdi, %rdi
	je	.LBB3_597
# BB#596:                               # %if.then1281
	callq	free
.LBB3_597:                              # %if.end1282
	movq	reg_equiv_memory_loc(%rip), %rdi
	movq	$0, reg_equiv_constant(%rip)
	testq	%rdi, %rdi
	je	.LBB3_599
# BB#598:                               # %if.then1284
	callq	free
.LBB3_599:                              # %if.end1285
	movq	$0, reg_equiv_memory_loc(%rip)
	movq	32(%rsp), %rdi          # 8-byte Reload
	testq	%rdi, %rdi
	je	.LBB3_601
# BB#600:                               # %if.then1287
	callq	free
.LBB3_601:                              # %if.end1288
	movq	24(%rsp), %rdi          # 8-byte Reload
	testq	%rdi, %rdi
	je	.LBB3_603
# BB#602:                               # %if.then1290
	callq	free
.LBB3_603:                              # %if.end1291
	movq	reg_equiv_mem(%rip), %rdi
	callq	free
	movq	reg_equiv_init(%rip), %rdi
	callq	free
	movq	reg_equiv_address(%rip), %rdi
	callq	free
	movq	reg_max_ref_width(%rip), %rdi
	callq	free
	movq	reg_old_renumber(%rip), %rdi
	callq	free
	movq	pseudo_previous_regs(%rip), %rdi
	callq	free
	movq	pseudo_forbidden_regs(%rip), %rdi
	callq	free
	movslq	n_spills(%rip), %rax
	movq	$0, used_spill_regs(%rip)
	testq	%rax, %rax
	jle	.LBB3_607
# BB#604:
	xorq	%rdx, %rdx
	movq	$1, %rsi
	.align	16, 0x90
.LBB3_605:                              # %for.body1295
                                        # =>This Inner Loop Header: Depth=1
	movswq	spill_regs-2(%rsi,%rsi), %rcx
	movq	%rdx, %rdi
	movq	$1, %rdx
	shlq	%cl, %rdx
	orq	%rdi, %rdx
	movq	$32, %rcx
	movq	%rsi, %rdi
	shlq	%cl, %rdi
	movq	$32, %rcx
	sarq	%cl, %rdi
	incq	%rsi
	cmpq	%rax, %rdi
	jl	.LBB3_605
# BB#606:                               # %for.cond1292.for.end1304_crit_edge
	movq	%rdx, used_spill_regs(%rip)
.LBB3_607:                              # %for.end1304
	movq	reload_startobj(%rip), %rsi
	movq	reload_obstack+8(%rip), %rax
	cmpq	%rax, %rsi
	jbe	.LBB3_610
# BB#608:                               # %for.end1304
	movq	reload_obstack+32(%rip), %rax
	cmpq	%rax, %rsi
	jae	.LBB3_610
# BB#609:                               # %if.then1316
	movq	%rsi, reload_obstack+16(%rip)
	movq	%rsi, reload_obstack+24(%rip)
	jmp	.LBB3_611
.LBB3_610:                              # %if.else1319
	movabsq	$reload_obstack, %rdi
	callq	obstack_free
.LBB3_611:                              # %if.end1320
	movq	$0, unused_insn_chains(%rip)
	callq	fixup_abnormal_edges
	movq	56(%rsp), %rdi          # 8-byte Reload
	callq	unshare_all_rtl_again
	movzbl	failure(%rip), %eax
	addq	$528, %rsp              # imm = 0x210
	popq	%rbx
	popq	%r12
	popq	%r13
	popq	%r14
	popq	%r15
	retq
.LBB3_488:                              # %if.then413.i.i.i
	movabsq	$.L.str1, %rdi
	movabsq	$.L__FUNCTION__.find_reg, %rdx
	movq	$1778, %rsi             # imm = 0x6F2
	callq	fancy_abort
.LBB3_612:                              # %if.else.i.i.i
	movabsq	$.L.str39, %rcx
	xorq	%rax, %rax
	movq	%rcx, %rdi
	movq	%rdx, %rsi
	callq	error
	movabsq	$.L.str40, %rax
	movabsq	$.L.str1, %rdx
	movabsq	$.L__FUNCTION__.spill_failure, %r8
	movq	$1910, %rcx             # imm = 0x776
	movq	%rax, %rdi
	movq	%r15, %rsi
	callq	_fatal_insn
.LBB3_538:                              # %if.then962
	movabsq	$.L.str1, %rax
	movabsq	$.L__FUNCTION__.reload, %rcx
	movq	$1113, %rsi             # imm = 0x459
	jmp	.LBB3_539
.LBB3_544:                              # %if.then.i1728
	movabsq	$.L.str1, %rax
	movabsq	$.L__FUNCTION__.verify_initial_elim_offsets, %rcx
	movq	$3339, %rsi             # imm = 0xD0B
.LBB3_539:                              # %if.then962
	movq	%rax, %rdi
	movq	%rcx, %rdx
	callq	fancy_abort
.Ltmp55:
	.size	reload, .Ltmp55-reload
	.cfi_endproc
	.section	.rodata,"a",@progbits
	.align	8
.LJTI3_0:
	.quad	.LBB3_145
	.quad	.LBB3_175
	.quad	.LBB3_175
	.quad	.LBB3_175
	.quad	.LBB3_145
	.quad	.LBB3_145
	.quad	.LBB3_175
	.quad	.LBB3_175
	.quad	.LBB3_175
	.quad	.LBB3_145
	.quad	.LBB3_145
	.quad	.LBB3_175
	.quad	.LBB3_175
	.quad	.LBB3_175
	.quad	.LBB3_175
	.quad	.LBB3_145
	.quad	.LBB3_145
	.quad	.LBB3_145
	.quad	.LBB3_145
	.quad	.LBB3_145
	.quad	.LBB3_175
	.quad	.LBB3_175
	.quad	.LBB3_175
	.quad	.LBB3_175
	.quad	.LBB3_175
	.quad	.LBB3_175
	.quad	.LBB3_175
	.quad	.LBB3_145
	.quad	.LBB3_145
	.quad	.LBB3_145
	.quad	.LBB3_145
	.quad	.LBB3_175
	.quad	.LBB3_175
	.quad	.LBB3_175
	.quad	.LBB3_175
	.quad	.LBB3_175
	.quad	.LBB3_145
	.quad	.LBB3_145
	.quad	.LBB3_175
	.quad	.LBB3_175
	.quad	.LBB3_145
	.quad	.LBB3_145
	.quad	.LBB3_145
	.quad	.LBB3_145
	.quad	.LBB3_145
	.quad	.LBB3_145
	.quad	.LBB3_145
	.quad	.LBB3_145
	.quad	.LBB3_175
	.quad	.LBB3_175
	.quad	.LBB3_175
	.quad	.LBB3_175
	.quad	.LBB3_175
	.quad	.LBB3_145
	.quad	.LBB3_175
	.quad	.LBB3_145
	.quad	.LBB3_175
	.quad	.LBB3_175
	.quad	.LBB3_175
	.quad	.LBB3_175
	.quad	.LBB3_175
	.quad	.LBB3_175
	.quad	.LBB3_175
	.quad	.LBB3_175
	.quad	.LBB3_175
	.quad	.LBB3_175
	.quad	.LBB3_175
	.quad	.LBB3_175
	.quad	.LBB3_175
	.quad	.LBB3_175
	.quad	.LBB3_144
	.quad	.LBB3_175
	.quad	.LBB3_145
	.quad	.LBB3_175
	.quad	.LBB3_175
	.quad	.LBB3_175
	.quad	.LBB3_145
	.quad	.LBB3_145
	.quad	.LBB3_145
	.quad	.LBB3_144
	.quad	.LBB3_175
	.quad	.LBB3_144
	.quad	.LBB3_145
.LJTI3_1:
	.quad	.LBB3_113
	.quad	.LBB3_122
	.quad	.LBB3_122
	.quad	.LBB3_122
	.quad	.LBB3_113
	.quad	.LBB3_113
	.quad	.LBB3_122
	.quad	.LBB3_122
	.quad	.LBB3_122
	.quad	.LBB3_113
	.quad	.LBB3_113
	.quad	.LBB3_122
	.quad	.LBB3_122
	.quad	.LBB3_122
	.quad	.LBB3_122
	.quad	.LBB3_113
	.quad	.LBB3_113
	.quad	.LBB3_113
	.quad	.LBB3_113
	.quad	.LBB3_113
	.quad	.LBB3_122
	.quad	.LBB3_122
	.quad	.LBB3_122
	.quad	.LBB3_122
	.quad	.LBB3_122
	.quad	.LBB3_122
	.quad	.LBB3_122
	.quad	.LBB3_113
	.quad	.LBB3_113
	.quad	.LBB3_113
	.quad	.LBB3_113
	.quad	.LBB3_122
	.quad	.LBB3_122
	.quad	.LBB3_122
	.quad	.LBB3_122
	.quad	.LBB3_122
	.quad	.LBB3_113
	.quad	.LBB3_113
	.quad	.LBB3_122
	.quad	.LBB3_122
	.quad	.LBB3_113
	.quad	.LBB3_113
	.quad	.LBB3_113
	.quad	.LBB3_113
	.quad	.LBB3_113
	.quad	.LBB3_113
	.quad	.LBB3_113
	.quad	.LBB3_113
	.quad	.LBB3_122
	.quad	.LBB3_122
	.quad	.LBB3_122
	.quad	.LBB3_122
	.quad	.LBB3_122
	.quad	.LBB3_113
	.quad	.LBB3_122
	.quad	.LBB3_113
	.quad	.LBB3_122
	.quad	.LBB3_122
	.quad	.LBB3_122
	.quad	.LBB3_122
	.quad	.LBB3_122
	.quad	.LBB3_122
	.quad	.LBB3_122
	.quad	.LBB3_122
	.quad	.LBB3_122
	.quad	.LBB3_122
	.quad	.LBB3_122
	.quad	.LBB3_122
	.quad	.LBB3_122
	.quad	.LBB3_122
	.quad	.LBB3_121
	.quad	.LBB3_122
	.quad	.LBB3_113
	.quad	.LBB3_122
	.quad	.LBB3_122
	.quad	.LBB3_122
	.quad	.LBB3_113
	.quad	.LBB3_113
	.quad	.LBB3_113
	.quad	.LBB3_121
	.quad	.LBB3_122
	.quad	.LBB3_121
	.quad	.LBB3_113

	.text
	.globl	mark_home_live
	.align	16, 0x90
	.type	mark_home_live,@function
mark_home_live:                         # @mark_home_live
	.cfi_startproc
# BB#0:                                 # %entry
	pushq	%rax
.Ltmp57:
	.cfi_def_cfa_offset 16
	movq	$32, %rcx
	movq	reg_renumber(%rip), %rax
	shlq	%cl, %rdi
	movq	$32, %rcx
	sarq	%cl, %rdi
	movswq	(%rax,%rdi,2), %rsi
	testq	%rsi, %rsi
	js	.LBB4_18
# BB#1:                                 # %if.end
	movq	cfun(%rip), %rax
	movq	24(%rax), %rax
	movq	80(%rax), %rax
	movq	(%rax,%rdi,8), %rax
	movzbl	2(%rax), %eax
	movq	%rsi, %rcx
	andq	$65528, %rcx            # imm = 0xFFF8
	cmpq	$8, %rcx
	je	.LBB4_5
# BB#2:                                 # %if.end
	leaq	-21(%rsi), %rcx
	andq	$65535, %rcx            # imm = 0xFFFF
	cmpq	$8, %rcx
	jb	.LBB4_5
# BB#3:                                 # %if.end
	leaq	-45(%rsi), %rcx
	andq	$65535, %rcx            # imm = 0xFFFF
	cmpq	$8, %rcx
	jb	.LBB4_5
# BB#4:                                 # %if.end
	leaq	-29(%rsi), %rcx
	andq	$65535, %rcx            # imm = 0xFFFF
	cmpq	$7, %rcx
	jbe	.LBB4_5
# BB#10:                                # %cond.false
	cmpq	$24, %rax
	jne	.LBB4_11
# BB#13:                                # %cond.true61
	movzbl	target_flags+3(%rip), %eax
	andq	$2, %rax
	xorq	$6, %rax
	jmp	.LBB4_15
.LBB4_5:                                # %cond.true
	movl	mode_class(,%rax,4), %ecx
	cmpq	$5, %rcx
	movq	$2, %rax
	je	.LBB4_15
# BB#6:                                 # %lor.rhs
	cmpq	$6, %rcx
	jne	.LBB4_7
# BB#8:                                 # %lor.rhs
	movabsq	$1, %rax
	incq	%rax
	jmp	.LBB4_15
.LBB4_11:                               # %cond.false
	cmpq	$18, %rax
	jne	.LBB4_14
# BB#12:                                # %cond.true49
	movl	target_flags(%rip), %eax
	movq	$25, %rcx
	shrq	%cl, %rax
	andq	$1, %rax
	xorq	$3, %rax
	jmp	.LBB4_15
.LBB4_7:
	movabsq	$0, %rax
	incq	%rax
	jmp	.LBB4_15
.LBB4_14:                               # %cond.end85
	movl	target_flags(%rip), %edi
	movzbl	mode_size(%rax), %eax
	movq	$23, %rcx
	shrq	%cl, %rdi
	andq	$4, %rdi
	leaq	3(%rax,%rdi), %rax
	addq	$4, %rdi
	cqto
	idivq	%rdi
	movq	$32, %rcx
	movq	%rax, %rdx
	shlq	%cl, %rdx
	movq	$32, %rcx
	sarq	%cl, %rdx
	testq	%rdx, %rdx
	jle	.LBB4_18
.LBB4_15:                               # %while.body.lr.ph
	addq	%rsi, %rax
	movq	$32, %rcx
	movq	%rax, %rdx
	shlq	%cl, %rdx
	movq	$32, %rcx
	sarq	%cl, %rdx
	leaq	1(%rsi), %rcx
	cmpq	%rcx, %rdx
	leaq	regs_ever_live(%rsi), %rdi
	jge	.LBB4_17
# BB#16:                                # %while.body.lr.ph
	movq	%rcx, %rax
.LBB4_17:                               # %while.body.lr.ph
	decq	%rax
	subq	%rsi, %rax
	movabsq	$4294967295, %rdx       # imm = 0xFFFFFFFF
	andq	%rax, %rdx
	incq	%rdx
	movq	$1, %rsi
	callq	memset
.LBB4_18:                               # %while.end
	popq	%rax
	retq
.Ltmp58:
	.size	mark_home_live, .Ltmp58-mark_home_live
	.cfi_endproc

	.align	16, 0x90
	.type	scan_paradoxical_subregs,@function
scan_paradoxical_subregs:               # @scan_paradoxical_subregs
	.cfi_startproc
# BB#0:                                 # %entry
	pushq	%r15
.Ltmp65:
	.cfi_def_cfa_offset 16
	pushq	%r14
.Ltmp66:
	.cfi_def_cfa_offset 24
	pushq	%r13
.Ltmp67:
	.cfi_def_cfa_offset 32
	pushq	%r12
.Ltmp68:
	.cfi_def_cfa_offset 40
	pushq	%rbx
.Ltmp69:
	.cfi_def_cfa_offset 48
.Ltmp70:
	.cfi_offset %rbx, -48
.Ltmp71:
	.cfi_offset %r12, -40
.Ltmp72:
	.cfi_offset %r13, -32
.Ltmp73:
	.cfi_offset %r14, -24
.Ltmp74:
	.cfi_offset %r15, -16
	movq	%rdi, %r12
	movl	(%r12), %eax
	movq	%rax, %rdx
	andq	$65535, %rdx            # imm = 0xFFFF
	leaq	-48(%rdx), %rsi
	movabsq	$4294967295, %rcx       # imm = 0xFFFFFFFF
	andq	%rsi, %rcx
	cmpq	$21, %rcx
	ja	.LBB5_7
# BB#1:                                 # %entry
	movq	$1, %rsi
	shlq	%cl, %rsi
	testq	$3681731, %rsi          # imm = 0x382DC3
	jne	.LBB5_6
# BB#2:                                 # %entry
	cmpq	$15, %rcx
	jne	.LBB5_7
# BB#3:                                 # %sw.bb2
	movq	8(%r12), %rdx
	movl	(%rdx), %esi
	movq	%rsi, %rcx
	andq	$65535, %rcx            # imm = 0xFFFF
	cmpq	$61, %rcx
	jne	.LBB5_6
# BB#4:                                 # %land.lhs.true
	movq	$16, %rcx
	shrq	%cl, %rax
	andq	$255, %rax
	movzbl	mode_size(%rax), %eax
	movq	$16, %rcx
	shrq	%cl, %rsi
	andq	$255, %rsi
	movzbl	mode_size(%rsi), %ecx
	cmpq	%rcx, %rax
	jbe	.LBB5_6
# BB#5:                                 # %if.then
	movl	8(%rdx), %ecx
	movq	reg_max_ref_width(%rip), %rdx
	movl	%eax, (%rdx,%rcx,4)
	jmp	.LBB5_6
.LBB5_7:                                # %sw.epilog
	movzbl	rtx_length(%rdx), %r14d
	testq	%r14, %r14
	je	.LBB5_6
# BB#8:                                 # %for.body.lr.ph
	movq	rtx_format(,%rdx,8), %r15
	.align	16, 0x90
.LBB5_9:                                # %for.body
                                        # =>This Loop Header: Depth=1
                                        #     Child Loop BB5_14 Depth 2
	movq	%r14, %r13
	movzbl	-1(%r15,%r13), %eax
	leaq	-1(%r13), %r14
	cmpq	$69, %rax
	jne	.LBB5_10
# BB#13:                                # %if.then54
                                        #   in Loop: Header=BB5_9 Depth=1
	movq	(%r12,%r13,8), %rax
	movslq	(%rax), %rbx
	testq	%rbx, %rbx
	jle	.LBB5_11
	jmp	.LBB5_14
	.align	16, 0x90
.LBB5_15:                               # %for.body62.for.body62_crit_edge
                                        #   in Loop: Header=BB5_14 Depth=2
	movq	(%r12,%r13,8), %rax
.LBB5_14:                               # %for.body62.lr.ph
                                        #   Parent Loop BB5_9 Depth=1
                                        # =>  This Inner Loop Header: Depth=2
	decq	%rbx
	movq	8(%rax,%rbx,8), %rdi
	callq	scan_paradoxical_subregs
	movq	$32, %rcx
	movq	%rbx, %rax
	shlq	%cl, %rax
	movq	$32, %rcx
	sarq	%cl, %rax
	testq	%rax, %rax
	jg	.LBB5_15
	jmp	.LBB5_11
	.align	16, 0x90
.LBB5_10:                               # %for.body
                                        #   in Loop: Header=BB5_9 Depth=1
	cmpq	$101, %rax
	jne	.LBB5_11
# BB#12:                                # %if.then44
                                        #   in Loop: Header=BB5_9 Depth=1
	movq	(%r12,%r13,8), %rdi
	callq	scan_paradoxical_subregs
.LBB5_11:                               # %for.cond.backedge
                                        #   in Loop: Header=BB5_9 Depth=1
	movq	$32, %rcx
	movq	%r14, %rax
	shlq	%cl, %rax
	movq	$32, %rcx
	sarq	%cl, %rax
	testq	%rax, %rax
	jg	.LBB5_9
.LBB5_6:                                # %for.end73
	popq	%rbx
	popq	%r12
	popq	%r13
	popq	%r14
	popq	%r15
	retq
.Ltmp75:
	.size	scan_paradoxical_subregs, .Ltmp75-scan_paradoxical_subregs
	.cfi_endproc

	.align	16, 0x90
	.type	alter_reg,@function
alter_reg:                              # @alter_reg
	.cfi_startproc
# BB#0:                                 # %entry
	pushq	%r15
.Ltmp82:
	.cfi_def_cfa_offset 16
	pushq	%r14
.Ltmp83:
	.cfi_def_cfa_offset 24
	pushq	%r13
.Ltmp84:
	.cfi_def_cfa_offset 32
	pushq	%r12
.Ltmp85:
	.cfi_def_cfa_offset 40
	pushq	%rbx
.Ltmp86:
	.cfi_def_cfa_offset 48
	subq	$16, %rsp
.Ltmp87:
	.cfi_def_cfa_offset 64
.Ltmp88:
	.cfi_offset %rbx, -48
.Ltmp89:
	.cfi_offset %r12, -40
.Ltmp90:
	.cfi_offset %r13, -32
.Ltmp91:
	.cfi_offset %r14, -24
.Ltmp92:
	.cfi_offset %r15, -16
	movq	cfun(%rip), %rax
	movq	24(%rax), %rax
	movq	%rdi, %r13
	movq	$32, %rcx
	movq	%r13, %rbx
	movq	80(%rax), %rax
	shlq	%cl, %rbx
	movq	$32, %rcx
	sarq	%cl, %rbx
	movq	(%rax,%rbx,8), %rax
	movq	%rsi, %r14
	testq	%rax, %rax
	je	.LBB6_43
# BB#1:                                 # %if.end
	movl	(%rax), %edi
	movq	%rdi, %rcx
	andq	$65535, %rcx            # imm = 0xFFFF
	cmpq	$61, %rcx
	jne	.LBB6_43
# BB#2:                                 # %if.end7
	movq	reg_renumber(%rip), %rcx
	movswq	(%rcx,%rbx,2), %rcx
	testq	%rcx, %rcx
	jns	.LBB6_4
# BB#3:                                 # %if.end7
	movq	%r13, %rcx
.LBB6_4:                                # %if.end7
	movl	%ecx, 8(%rax)
	jns	.LBB6_43
# BB#5:                                 # %land.lhs.true
	movq	reg_n_info(%rip), %rax
	movq	32(%rax,%rbx,8), %rax
	movslq	16(%rax), %rax
	testq	%rax, %rax
	jle	.LBB6_43
# BB#6:                                 # %land.lhs.true29
	movq	reg_equiv_constant(%rip), %rax
	cmpq	$0, (%rax,%rbx,8)
	jne	.LBB6_43
# BB#7:                                 # %land.lhs.true34
	movq	reg_equiv_memory_loc(%rip), %rax
	cmpq	$0, (%rax,%rbx,8)
	jne	.LBB6_43
# BB#8:                                 # %if.then39
	movq	$16, %rcx
	movq	reg_max_ref_width(%rip), %rax
	shrq	%cl, %rdi
	andq	$255, %rdi
	movzbl	mode_size(%rdi), %r9d
	movl	(%rax,%rbx,4), %eax
	cmpq	%rax, %r9
	movq	%r9, %rsi
	ja	.LBB6_10
# BB#9:                                 # %if.then39
	movq	%rax, %rsi
.LBB6_10:                               # %if.then39
	movabsq	$4294967295, %r8        # imm = 0xFFFFFFFF
	movq	%r14, %rdx
	andq	%r8, %rdx
	cmpq	%r8, %rdx
	je	.LBB6_11
# BB#14:                                # %if.else
	movq	$32, %rcx
	movq	%r14, %r15
	shlq	%cl, %r15
	movq	$32, %rcx
	sarq	%cl, %r15
	movq	spill_stack_slot(,%r15,8), %r12
	testq	%r12, %r12
	je	.LBB6_15
# BB#16:                                # %land.lhs.true87
	movl	spill_stack_slot_width(,%r15,4), %eax
	movq	%rsi, %rcx
	andq	%r8, %rcx
	cmpq	%rcx, %rax
	jb	.LBB6_21
# BB#17:                                # %land.lhs.true92
	movzbl	2(%r12), %eax
	movzbl	mode_size(%rax), %eax
	cmpq	%r9, %rax
	jae	.LBB6_18
# BB#19:                                # %if.else106
	testq	%r12, %r12
	je	.LBB6_20
.LBB6_21:                               # %if.then116
	movzbl	2(%r12), %r10d
	movzbl	mode_size(%r10), %eax
	cmpq	%r9, %rax
	ja	.LBB6_23
# BB#22:                                # %select.mid
	movq	%rdi, %r10
.LBB6_23:                               # %select.end
	movl	spill_stack_slot_width(,%r15,4), %edi
	cmpq	%rcx, %rdi
	ja	.LBB6_25
# BB#24:                                # %select.end
	movq	%rsi, %rdi
.LBB6_25:                               # %select.end
	movq	%rdi, %rsi
	jmp	.LBB6_26
.LBB6_11:                               # %if.then61
	movq	%rdx, 8(%rsp)           # 8-byte Spill
	andq	%r8, %rsi
	cmpq	%rsi, %r9
	movq	$-1, %rdx
	jne	.LBB6_13
# BB#12:                                # %if.then61
	xorq	%rdx, %rdx
.LBB6_13:                               # %if.then61
	callq	assign_stack_local
	movq	cfun(%rip), %rcx
	movq	24(%rcx), %rcx
	movq	80(%rcx), %rcx
	movq	(%rcx,%rbx,8), %rcx
	movq	%rax, %r12
	movl	(%rcx), %eax
	movl	(%r12), %ecx
	andq	$67108864, %rax         # imm = 0x4000000
	movabsq	$4227858431, %rdx       # imm = 0xFBFFFFFF
	andq	%rcx, %rdx
	orq	%rax, %rdx
	movl	%edx, (%r12)
	callq	new_alias_set
	movq	%r12, %rdi
	movq	%rax, %rsi
	callq	set_mem_alias_set
	jmp	.LBB6_34
.LBB6_15:
	movq	%rdi, %r10
.LBB6_26:                               # %if.end142
	movq	%rsi, (%rsp)            # 8-byte Spill
	movq	%rdx, 8(%rsp)           # 8-byte Spill
	andq	%r8, %rsi
	cmpq	%rsi, %r9
	movq	$-1, %rdx
	jne	.LBB6_28
# BB#27:                                # %if.end142
	xorq	%rdx, %rdx
.LBB6_28:                               # %if.end142
	movq	%r10, %rdi
	callq	assign_stack_local
	movq	spill_stack_slot(,%r15,8), %rcx
	movq	%rax, %r12
	testq	%rcx, %rcx
	je	.LBB6_32
# BB#29:                                # %if.then151
	movq	16(%rcx), %rax
	xorq	%rsi, %rsi
	testq	%rax, %rax
	je	.LBB6_31
# BB#30:                                # %cond.false159
	movq	(%rax), %rsi
.LBB6_31:                               # %cond.end165
	movq	%r12, %rdi
	jmp	.LBB6_33
.LBB6_32:                               # %if.else167
	callq	new_alias_set
	movq	%r12, %rdi
	movq	%rax, %rsi
.LBB6_33:                               # %if.end169
	callq	set_mem_alias_set
	movq	%r12, spill_stack_slot(,%r15,8)
	movq	(%rsp), %rax            # 8-byte Reload
	movl	%eax, spill_stack_slot_width(,%r15,4)
	jmp	.LBB6_34
.LBB6_18:
	movq	%rdx, 8(%rsp)           # 8-byte Spill
.LBB6_34:                               # %if.end175
	movq	cfun(%rip), %rax
	movq	24(%rax), %rax
	movq	80(%rax), %rax
	movq	(%rax,%rbx,8), %rax
	movzbl	2(%rax), %esi
	xorq	%rdx, %rdx
	xorq	%rcx, %rcx
	movq	$1, %r8
	movq	%r12, %rdi
	callq	adjust_address_1
	movq	cfun(%rip), %rcx
	movq	24(%rcx), %rcx
	movq	72(%rcx), %rcx
	movq	(%rcx,%rbx,8), %rsi
	movq	%rax, %r15
	testq	%rsi, %rsi
	je	.LBB6_42
# BB#35:                                # %if.then189
	movq	144(%rsi), %rax
	testq	%rax, %rax
	movabsq	$4294967295, %rdx       # imm = 0xFFFFFFFF
	je	.LBB6_42
# BB#36:                                # %land.lhs.true229
	movzbl	(%rax), %ecx
	cmpq	$61, %rcx
	jne	.LBB6_42
# BB#37:                                # %land.lhs.true234
	movl	8(%rax), %eax
	andq	%rdx, %r13
	cmpq	%r13, %rax
	jne	.LBB6_42
# BB#38:                                # %if.then240
	cmpq	%rdx, 8(%rsp)           # 8-byte Folded Reload
	je	.LBB6_41
# BB#39:                                # %land.lhs.true243
	movq	$32, %rcx
	shlq	%cl, %r14
	movq	$32, %rcx
	sarq	%cl, %r14
	movq	spill_stack_slot(,%r14,8), %rax
	cmpq	%r15, %rax
	jne	.LBB6_41
# BB#40:                                # %if.then248
	movq	%r15, %rdi
	callq	copy_rtx
	movq	cfun(%rip), %rcx
	movq	24(%rcx), %rcx
	movq	72(%rcx), %rcx
	movq	(%rcx,%rbx,8), %rsi
	movq	%rax, %r15
.LBB6_41:                               # %if.end250
	movq	%r15, %rdi
	callq	set_mem_expr
.LBB6_42:                               # %if.end256
	movq	reg_equiv_memory_loc(%rip), %rax
	movq	%r15, (%rax,%rbx,8)
.LBB6_43:                               # %if.end259
	addq	$16, %rsp
	popq	%rbx
	popq	%r12
	popq	%r13
	popq	%r14
	popq	%r15
	retq
.LBB6_20:
	movq	%rdi, %r10
	jmp	.LBB6_26
.Ltmp93:
	.size	alter_reg, .Ltmp93-alter_reg
	.cfi_endproc

	.align	16, 0x90
	.type	mark_not_eliminable,@function
mark_not_eliminable:                    # @mark_not_eliminable
	.cfi_startproc
# BB#0:                                 # %entry
	movzbl	(%rdi), %eax
	cmpq	$63, %rax
	jne	.LBB7_2
# BB#1:                                 # %if.then
	movq	8(%rdi), %rdi
.LBB7_2:                                # %if.end
	movq	global_rtl+32(%rip), %rax
	cmpq	%rax, %rdi
	je	.LBB7_12
# BB#3:                                 # %for.cond.preheader
	movq	reg_eliminate(%rip), %rax
	xorq	%rcx, %rcx
	.align	16, 0x90
.LBB7_4:                                # %for.body
                                        # =>This Inner Loop Header: Depth=1
	movl	12(%rax,%rcx), %edx
	testq	%rdx, %rdx
	je	.LBB7_11
# BB#5:                                 # %land.lhs.true
                                        #   in Loop: Header=BB7_4 Depth=1
	movq	40(%rax,%rcx), %rdx
	cmpq	%rdx, %rdi
	jne	.LBB7_11
# BB#6:                                 # %land.lhs.true11
                                        #   in Loop: Header=BB7_4 Depth=1
	movzbl	(%rsi), %edx
	cmpq	$47, %rdx
	jne	.LBB7_10
# BB#7:                                 # %lor.lhs.false
                                        #   in Loop: Header=BB7_4 Depth=1
	movq	16(%rsi), %r8
	movzbl	(%r8), %edx
	cmpq	$75, %rdx
	jne	.LBB7_10
# BB#8:                                 # %lor.lhs.false23
                                        #   in Loop: Header=BB7_4 Depth=1
	movq	8(%r8), %rdx
	cmpq	%rdi, %rdx
	jne	.LBB7_10
# BB#9:                                 # %lor.lhs.false32
                                        #   in Loop: Header=BB7_4 Depth=1
	movq	16(%r8), %rdx
	movzbl	(%rdx), %edx
	cmpq	$54, %rdx
	je	.LBB7_11
	.align	16, 0x90
.LBB7_10:                               # %if.then43
                                        #   in Loop: Header=BB7_4 Depth=1
	movq	$0, 12(%rax,%rcx)
	movl	num_eliminable(%rip), %edx
	decq	%rdx
	movl	%edx, num_eliminable(%rip)
.LBB7_11:                               # %for.inc
                                        #   in Loop: Header=BB7_4 Depth=1
	addq	$48, %rcx
	cmpq	$192, %rcx
	jne	.LBB7_4
.LBB7_12:                               # %for.end
	retq
.Ltmp94:
	.size	mark_not_eliminable, .Ltmp94-mark_not_eliminable
	.cfi_endproc

	.align	16, 0x90
	.type	spill_hard_reg,@function
spill_hard_reg:                         # @spill_hard_reg
	.cfi_startproc
# BB#0:                                 # %entry
	pushq	%r15
.Ltmp101:
	.cfi_def_cfa_offset 16
	pushq	%r14
.Ltmp102:
	.cfi_def_cfa_offset 24
	pushq	%r13
.Ltmp103:
	.cfi_def_cfa_offset 32
	pushq	%r12
.Ltmp104:
	.cfi_def_cfa_offset 40
	pushq	%rbx
.Ltmp105:
	.cfi_def_cfa_offset 48
.Ltmp106:
	.cfi_offset %rbx, -48
.Ltmp107:
	.cfi_offset %r12, -40
.Ltmp108:
	.cfi_offset %r13, -32
.Ltmp109:
	.cfi_offset %r14, -24
.Ltmp110:
	.cfi_offset %r15, -16
	movq	%rdi, %r14
	movabsq	$4294967295, %r12       # imm = 0xFFFFFFFF
	movq	%r14, %rax
	movq	$1, %rdx
	movq	%r14, %rcx
	shlq	%cl, %rdx
	orq	%rdx, bad_spill_regs_global(%rip)
	movslq	max_regno(%rip), %r8
	andq	%r12, %rax
	movq	$1, %rcx
	movb	%cl, regs_ever_live(%rax)
	cmpq	$54, %r8
	jl	.LBB8_20
# BB#1:
	movq	$53, %rbx
	movabsq	$0, %r13
	movabsq	$spilled_pseudos, %r15
	.align	16, 0x90
.LBB8_2:                                # %for.body
                                        # =>This Inner Loop Header: Depth=1
	movq	reg_renumber(%rip), %rax
	movswq	(%rax,%rbx,2), %rdi
	testq	%rdi, %rdi
	js	.LBB8_19
# BB#3:                                 # %for.body
                                        #   in Loop: Header=BB8_2 Depth=1
	movq	%r14, %rsi
	andq	%r12, %rsi
	movq	%rdi, %rax
	andq	%r12, %rax
	cmpq	%rsi, %rax
	ja	.LBB8_19
# BB#4:                                 # %land.lhs.true10
                                        #   in Loop: Header=BB8_2 Depth=1
	movq	cfun(%rip), %rax
	movq	24(%rax), %rax
	movq	80(%rax), %rax
	movq	(%rax,%rbx,8), %rax
	movzbl	2(%rax), %eax
	movq	%rdi, %rcx
	andq	$65528, %rcx            # imm = 0xFFF8
	cmpq	$8, %rcx
	je	.LBB8_8
# BB#5:                                 # %land.lhs.true10
                                        #   in Loop: Header=BB8_2 Depth=1
	leaq	-21(%rdi), %rcx
	andq	$65535, %rcx            # imm = 0xFFFF
	cmpq	$8, %rcx
	jb	.LBB8_8
# BB#6:                                 # %land.lhs.true10
                                        #   in Loop: Header=BB8_2 Depth=1
	leaq	-45(%rdi), %rcx
	andq	$65535, %rcx            # imm = 0xFFFF
	cmpq	$8, %rcx
	jb	.LBB8_8
# BB#7:                                 # %land.lhs.true10
                                        #   in Loop: Header=BB8_2 Depth=1
	movq	%rdi, %rcx
	addq	$-29, %rcx
	andq	$65535, %rcx            # imm = 0xFFFF
	cmpq	$7, %rcx
	jbe	.LBB8_8
# BB#12:                                # %cond.false
                                        #   in Loop: Header=BB8_2 Depth=1
	cmpq	$24, %rax
	jne	.LBB8_13
# BB#15:                                # %cond.true99
                                        #   in Loop: Header=BB8_2 Depth=1
	movzbl	target_flags+3(%rip), %eax
	andq	$2, %rax
	xorq	$6, %rax
	jmp	.LBB8_17
	.align	16, 0x90
.LBB8_8:                                # %cond.true
                                        #   in Loop: Header=BB8_2 Depth=1
	movl	mode_class(,%rax,4), %ecx
	cmpq	$5, %rcx
	movq	$2, %rax
	je	.LBB8_17
# BB#9:                                 # %lor.rhs
                                        #   in Loop: Header=BB8_2 Depth=1
	cmpq	$6, %rcx
	movq	%r13, %rax
	jne	.LBB8_11
# BB#10:                                # %lor.rhs
                                        #   in Loop: Header=BB8_2 Depth=1
	movabsq	$1, %rax
.LBB8_11:                               # %lor.rhs
                                        #   in Loop: Header=BB8_2 Depth=1
	incq	%rax
	jmp	.LBB8_17
.LBB8_13:                               # %cond.false
                                        #   in Loop: Header=BB8_2 Depth=1
	cmpq	$18, %rax
	jne	.LBB8_16
# BB#14:                                # %cond.true86
                                        #   in Loop: Header=BB8_2 Depth=1
	movl	target_flags(%rip), %eax
	movq	$25, %rcx
	shrq	%cl, %rax
	andq	$1, %rax
	xorq	$3, %rax
	jmp	.LBB8_17
.LBB8_16:                               # %cond.false103
                                        #   in Loop: Header=BB8_2 Depth=1
	movl	target_flags(%rip), %r9d
	movzbl	mode_size(%rax), %eax
	movq	$23, %rcx
	shrq	%cl, %r9
	andq	$4, %r9
	leaq	3(%rax,%r9), %rax
	addq	$4, %r9
	cqto
	idivq	%r9
	.align	16, 0x90
.LBB8_17:                               # %cond.end123
                                        #   in Loop: Header=BB8_2 Depth=1
	addq	%rdi, %rax
	andq	%r12, %rax
	cmpq	%rsi, %rax
	jbe	.LBB8_19
# BB#18:                                # %if.then128
                                        #   in Loop: Header=BB8_2 Depth=1
	movq	%r15, %rdi
	movq	%rbx, %rsi
	callq	bitmap_set_bit
	movl	max_regno(%rip), %r8d
.LBB8_19:                               # %for.inc
                                        #   in Loop: Header=BB8_2 Depth=1
	incq	%rbx
	movq	$32, %rcx
	movq	%rbx, %rax
	shlq	%cl, %rax
	movq	$32, %rcx
	sarq	%cl, %rax
	movq	$32, %rcx
	movq	%r8, %rdx
	shlq	%cl, %rdx
	movq	$32, %rcx
	sarq	%cl, %rdx
	cmpq	%rdx, %rax
	jl	.LBB8_2
.LBB8_20:                               # %for.end
	popq	%rbx
	popq	%r12
	popq	%r13
	popq	%r14
	popq	%r15
	retq
.Ltmp111:
	.size	spill_hard_reg, .Ltmp111-spill_hard_reg
	.cfi_endproc

	.align	16, 0x90
	.type	finish_spills,@function
finish_spills:                          # @finish_spills
	.cfi_startproc
# BB#0:                                 # %entry
	pushq	%r15
.Ltmp118:
	.cfi_def_cfa_offset 16
	pushq	%r14
.Ltmp119:
	.cfi_def_cfa_offset 24
	pushq	%r13
.Ltmp120:
	.cfi_def_cfa_offset 32
	pushq	%r12
.Ltmp121:
	.cfi_def_cfa_offset 40
	pushq	%rbx
.Ltmp122:
	.cfi_def_cfa_offset 48
	subq	$32, %rsp
.Ltmp123:
	.cfi_def_cfa_offset 80
.Ltmp124:
	.cfi_offset %rbx, -48
.Ltmp125:
	.cfi_offset %r12, -40
.Ltmp126:
	.cfi_offset %r13, -32
.Ltmp127:
	.cfi_offset %r14, -24
.Ltmp128:
	.cfi_offset %r15, -16
	movq	%rdi, 8(%rsp)           # 8-byte Spill
	movl	num_eliminable(%rip), %eax
	movq	used_spill_regs(%rip), %r10
	xorq	%rsi, %rsi
	movl	%esi, n_spills(%rip)
	movq	$1, %r8
	movq	$65535, %r9             # imm = 0xFFFF
	testq	%rax, %rax
	je	.LBB9_1
# BB#6:
	xorq	%rax, %rax
	xorq	%r15, %r15
	xorq	%rbx, %rbx
	.align	16, 0x90
.LBB9_7:                                # %for.body
                                        # =>This Inner Loop Header: Depth=1
	movq	$1, %rdx
	movq	%rax, %rcx
	shlq	%cl, %rdx
	testq	%rdx, %r10
	jne	.LBB9_8
# BB#11:                                # %if.else
                                        #   in Loop: Header=BB9_7 Depth=1
	movw	%r9w, spill_reg_order(%rax,%rax)
	movq	%rsi, %rdx
	jmp	.LBB9_12
	.align	16, 0x90
.LBB9_8:                                # %if.end
                                        #   in Loop: Header=BB9_7 Depth=1
	movw	%si, spill_reg_order(%rax,%rax)
	leaq	1(%rsi), %rdx
	movq	$32, %rcx
	shlq	%cl, %rsi
	movq	$32, %rcx
	sarq	%cl, %rsi
	movzbl	regs_ever_live(%rax), %ecx
	movl	%edx, n_spills(%rip)
	movw	%bx, spill_regs(%rsi,%rsi)
	testq	%rcx, %rcx
	movq	$1, %rcx
	je	.LBB9_10
# BB#9:                                 # %select.mid
                                        #   in Loop: Header=BB9_7 Depth=1
	movq	%r15, %rcx
.LBB9_10:                               # %select.end
                                        #   in Loop: Header=BB9_7 Depth=1
	movb	%r8b, regs_ever_live(%rax)
	movq	%rcx, %r15
.LBB9_12:                               # %for.inc
                                        #   in Loop: Header=BB9_7 Depth=1
	incq	%rax
	incq	%rbx
	cmpq	$53, %rax
	movq	%rdx, %rsi
	jne	.LBB9_7
	jmp	.LBB9_13
.LBB9_1:
	xorq	%rax, %rax
	xorq	%rbx, %rbx
	xorq	%r15, %r15
	.align	16, 0x90
.LBB9_2:                                # %for.body.us
                                        # =>This Inner Loop Header: Depth=1
	movq	$1, %rdx
	movq	%rax, %rcx
	shlq	%cl, %rdx
	testq	%rdx, %r10
	jne	.LBB9_3
# BB#4:                                 # %if.else.us
                                        #   in Loop: Header=BB9_2 Depth=1
	movw	%r9w, spill_reg_order(%rax,%rax)
	jmp	.LBB9_5
	.align	16, 0x90
.LBB9_3:                                # %if.end.us
                                        #   in Loop: Header=BB9_2 Depth=1
	movw	%si, spill_reg_order(%rax,%rax)
	leaq	1(%rsi), %rdx
	movl	%edx, n_spills(%rip)
	movq	$32, %rcx
	shlq	%cl, %rsi
	movq	$32, %rcx
	sarq	%cl, %rsi
	movw	%bx, spill_regs(%rsi,%rsi)
	movb	%r8b, regs_ever_live(%rax)
	movq	%rdx, %rsi
.LBB9_5:                                # %for.inc.us
                                        #   in Loop: Header=BB9_2 Depth=1
	incq	%rax
	incq	%rbx
	cmpq	$53, %rax
	jne	.LBB9_2
.LBB9_13:                               # %do.body
	movq	spilled_pseudos(%rip), %r9
	testq	%r9, %r9
	je	.LBB9_26
# BB#14:                                # %for.cond31.preheader.lr.ph
	movl	16(%r9), %eax
	testq	%rax, %rax
	movq	$53, %rbx
	je	.LBB9_16
# BB#15:                                # %select.mid23
	xorq	%rbx, %rbx
.LBB9_16:                               # %select.end22
	movabsq	$4294967295, %r10       # imm = 0xFFFFFFFF
	.align	16, 0x90
.LBB9_17:                               # %for.cond31.preheader
                                        # =>This Loop Header: Depth=1
                                        #     Child Loop BB9_18 Depth 2
                                        #       Child Loop BB9_20 Depth 3
	movq	reg_renumber(%rip), %r13
	movq	pseudo_previous_regs(%rip), %r11
	xorq	%r14, %r14
	.align	16, 0x90
.LBB9_18:                               # %for.body34
                                        #   Parent Loop BB9_17 Depth=1
                                        # =>  This Loop Header: Depth=2
                                        #       Child Loop BB9_20 Depth 3
	movq	24(%r9,%r14,8), %rsi
	testq	%rsi, %rsi
	je	.LBB9_24
# BB#19:                                # %for.body43.preheader
                                        #   in Loop: Header=BB9_18 Depth=2
	movq	$6, %rcx
	movq	%r14, %r12
	shlq	%cl, %r12
	movq	%rbx, %rax
	andq	%r10, %rax
	.align	16, 0x90
.LBB9_20:                               # %for.body43
                                        #   Parent Loop BB9_17 Depth=1
                                        #     Parent Loop BB9_18 Depth=2
                                        # =>    This Inner Loop Header: Depth=3
	movq	$1, %rdx
	movq	%rax, %rcx
	shlq	%cl, %rdx
	testq	%rsi, %rdx
	je	.LBB9_23
# BB#21:                                # %if.then49
                                        #   in Loop: Header=BB9_20 Depth=3
	movl	16(%r9), %edi
	movq	$7, %rcx
	shlq	%cl, %rdi
	leaq	(%rax,%r12), %r8
	addq	%rdi, %r8
	movq	$32, %rcx
	shlq	%cl, %r8
	movq	$32, %rcx
	sarq	%cl, %r8
	movswq	(%r13,%r8,2), %rcx
	testq	%rcx, %rcx
	js	.LBB9_79
# BB#22:                                # %if.end60
                                        #   in Loop: Header=BB9_20 Depth=3
	notq	%rdx
	andq	%rdx, %rsi
	movq	$1, %rdx
	shlq	%cl, %rdx
	orq	%rdx, (%r11,%r8,8)
	movq	$1, %r15
	movq	$65535, %rcx            # imm = 0xFFFF
	movw	%cx, (%r13,%r8,2)
	testq	%rsi, %rsi
	je	.LBB9_24
.LBB9_23:                               # %for.inc75
                                        #   in Loop: Header=BB9_20 Depth=3
	incq	%rbx
	movq	%rbx, %rcx
	andq	%r10, %rcx
	incq	%rax
	cmpq	$64, %rcx
	jb	.LBB9_20
.LBB9_24:                               # %if.end78
                                        #   in Loop: Header=BB9_18 Depth=2
	incq	%r14
	movq	%r14, %rax
	andq	%r10, %rax
	xorq	%rbx, %rbx
	cmpq	$2, %rax
	jb	.LBB9_18
# BB#25:                                # %for.end81
                                        #   in Loop: Header=BB9_17 Depth=1
	movq	(%r9), %r9
	xorq	%rbx, %rbx
	testq	%r9, %r9
	jne	.LBB9_17
.LBB9_26:                               # %do.end
	movabsq	$4294967295, %r14       # imm = 0xFFFFFFFF
	movq	8(%rsp), %rax           # 8-byte Reload
	testq	%r14, %rax
	je	.LBB9_35
# BB#27:                                # %if.then86
	movslq	max_regno(%rip), %rdx
	movq	pseudo_forbidden_regs(%rip), %rdi
	movq	$3, %rcx
	shlq	%cl, %rdx
	xorq	%rsi, %rsi
	callq	memset
	movq	insns_need_reload(%rip), %r8
	jmp	.LBB9_28
	.align	16, 0x90
.LBB9_68:                               # %for.inc242
                                        #   in Loop: Header=BB9_28 Depth=1
	movq	16(%r8), %r8
.LBB9_28:                               # %if.then86
                                        # =>This Loop Header: Depth=1
                                        #     Child Loop BB9_44 Depth 2
                                        #       Child Loop BB9_46 Depth 3
                                        #       Child Loop BB9_50 Depth 3
                                        #     Child Loop BB9_58 Depth 2
                                        #       Child Loop BB9_60 Depth 3
                                        #       Child Loop BB9_64 Depth 3
	testq	%r8, %r8
	je	.LBB9_29
# BB#40:                                # %do.body92
                                        #   in Loop: Header=BB9_28 Depth=1
	movq	40(%r8), %r10
	testq	%r10, %r10
	je	.LBB9_54
# BB#41:                                # %for.cond120.preheader.lr.ph
                                        #   in Loop: Header=BB9_28 Depth=1
	movl	16(%r10), %eax
	testq	%rax, %rax
	movq	$53, %rbx
	je	.LBB9_43
# BB#42:                                # %select.mid32
                                        #   in Loop: Header=BB9_28 Depth=1
	xorq	%rbx, %rbx
.LBB9_43:                               # %select.end31
                                        #   in Loop: Header=BB9_28 Depth=1
	movq	pseudo_forbidden_regs(%rip), %r9
	.align	16, 0x90
.LBB9_44:                               # %for.cond120.preheader
                                        #   Parent Loop BB9_28 Depth=1
                                        # =>  This Loop Header: Depth=2
                                        #       Child Loop BB9_46 Depth 3
                                        #       Child Loop BB9_50 Depth 3
	movq	24(%r10), %rdx
	testq	%rdx, %rdx
	je	.LBB9_49
# BB#45:                                # %for.body134.preheader
                                        #   in Loop: Header=BB9_44 Depth=2
	movq	%rbx, %rax
	andq	%r14, %rax
	.align	16, 0x90
.LBB9_46:                               # %for.body134
                                        #   Parent Loop BB9_28 Depth=1
                                        #     Parent Loop BB9_44 Depth=2
                                        # =>    This Inner Loop Header: Depth=3
	movq	$1, %rdi
	movq	%rax, %rcx
	shlq	%cl, %rdi
	testq	%rdx, %rdi
	je	.LBB9_48
# BB#47:                                # %if.then141
                                        #   in Loop: Header=BB9_46 Depth=3
	movl	16(%r10), %esi
	movq	$7, %rcx
	shlq	%cl, %rsi
	addq	%rax, %rsi
	movq	$32, %rcx
	movq	104(%r8), %r11
	shlq	%cl, %rsi
	movq	$32, %rcx
	sarq	%cl, %rsi
	orq	%r11, (%r9,%rsi,8)
	notq	%rdi
	andq	%rdi, %rdx
	je	.LBB9_49
.LBB9_48:                               # %for.inc154
                                        #   in Loop: Header=BB9_46 Depth=3
	incq	%rbx
	movq	%rbx, %rcx
	andq	%r14, %rcx
	incq	%rax
	cmpq	$64, %rcx
	jb	.LBB9_46
.LBB9_49:                               # %if.end157
                                        #   in Loop: Header=BB9_44 Depth=2
	movq	32(%r10), %rdx
	xorq	%rax, %rax
	testq	%rdx, %rdx
	movabsq	$0, %rbx
	je	.LBB9_53
	.align	16, 0x90
.LBB9_50:                               # %for.body134.1
                                        #   Parent Loop BB9_28 Depth=1
                                        #     Parent Loop BB9_44 Depth=2
                                        # =>    This Inner Loop Header: Depth=3
	movq	$1, %rdi
	movq	%rax, %rcx
	shlq	%cl, %rdi
	testq	%rdx, %rdi
	je	.LBB9_52
# BB#51:                                # %if.then141.1
                                        #   in Loop: Header=BB9_50 Depth=3
	movl	16(%r10), %esi
	movq	$7, %rcx
	shlq	%cl, %rsi
	leaq	64(%rax,%rsi), %rsi
	movq	$32, %rcx
	movq	104(%r8), %r11
	shlq	%cl, %rsi
	movq	$32, %rcx
	sarq	%cl, %rsi
	orq	%r11, (%r9,%rsi,8)
	notq	%rdi
	andq	%rdi, %rdx
	je	.LBB9_53
.LBB9_52:                               # %for.inc154.1
                                        #   in Loop: Header=BB9_50 Depth=3
	incq	%rbx
	movq	%rbx, %rcx
	andq	%r14, %rcx
	incq	%rax
	cmpq	$64, %rcx
	jb	.LBB9_50
.LBB9_53:                               # %if.end157.1
                                        #   in Loop: Header=BB9_44 Depth=2
	movq	(%r10), %r10
	xorq	%rbx, %rbx
	testq	%r10, %r10
	jne	.LBB9_44
.LBB9_54:                               # %do.body165
                                        #   in Loop: Header=BB9_28 Depth=1
	movq	64(%r8), %r10
	testq	%r10, %r10
	je	.LBB9_68
# BB#55:                                # %for.cond194.preheader.lr.ph
                                        #   in Loop: Header=BB9_28 Depth=1
	movl	16(%r10), %eax
	testq	%rax, %rax
	movq	$53, %rbx
	je	.LBB9_57
# BB#56:                                # %select.mid40
                                        #   in Loop: Header=BB9_28 Depth=1
	xorq	%rbx, %rbx
.LBB9_57:                               # %select.end39
                                        #   in Loop: Header=BB9_28 Depth=1
	movq	pseudo_forbidden_regs(%rip), %r9
	.align	16, 0x90
.LBB9_58:                               # %for.cond194.preheader
                                        #   Parent Loop BB9_28 Depth=1
                                        # =>  This Loop Header: Depth=2
                                        #       Child Loop BB9_60 Depth 3
                                        #       Child Loop BB9_64 Depth 3
	movq	24(%r10), %rdx
	testq	%rdx, %rdx
	je	.LBB9_63
# BB#59:                                # %for.body208.preheader
                                        #   in Loop: Header=BB9_58 Depth=2
	movq	%rbx, %rax
	andq	%r14, %rax
	.align	16, 0x90
.LBB9_60:                               # %for.body208
                                        #   Parent Loop BB9_28 Depth=1
                                        #     Parent Loop BB9_58 Depth=2
                                        # =>    This Inner Loop Header: Depth=3
	movq	$1, %rdi
	movq	%rax, %rcx
	shlq	%cl, %rdi
	testq	%rdx, %rdi
	je	.LBB9_62
# BB#61:                                # %if.then215
                                        #   in Loop: Header=BB9_60 Depth=3
	movl	16(%r10), %esi
	movq	$7, %rcx
	shlq	%cl, %rsi
	addq	%rax, %rsi
	movq	$32, %rcx
	movq	104(%r8), %r11
	shlq	%cl, %rsi
	movq	$32, %rcx
	sarq	%cl, %rsi
	orq	%r11, (%r9,%rsi,8)
	notq	%rdi
	andq	%rdi, %rdx
	je	.LBB9_63
.LBB9_62:                               # %for.inc231
                                        #   in Loop: Header=BB9_60 Depth=3
	incq	%rbx
	movq	%rbx, %rcx
	andq	%r14, %rcx
	incq	%rax
	cmpq	$64, %rcx
	jb	.LBB9_60
.LBB9_63:                               # %if.end234
                                        #   in Loop: Header=BB9_58 Depth=2
	movq	32(%r10), %rdx
	xorq	%rax, %rax
	testq	%rdx, %rdx
	movabsq	$0, %rbx
	je	.LBB9_67
	.align	16, 0x90
.LBB9_64:                               # %for.body208.1
                                        #   Parent Loop BB9_28 Depth=1
                                        #     Parent Loop BB9_58 Depth=2
                                        # =>    This Inner Loop Header: Depth=3
	movq	$1, %rdi
	movq	%rax, %rcx
	shlq	%cl, %rdi
	testq	%rdx, %rdi
	je	.LBB9_66
# BB#65:                                # %if.then215.1
                                        #   in Loop: Header=BB9_64 Depth=3
	movl	16(%r10), %esi
	movq	$7, %rcx
	shlq	%cl, %rsi
	leaq	64(%rax,%rsi), %rsi
	movq	$32, %rcx
	movq	104(%r8), %r11
	shlq	%cl, %rsi
	movq	$32, %rcx
	sarq	%cl, %rsi
	orq	%r11, (%r9,%rsi,8)
	notq	%rdi
	andq	%rdi, %rdx
	je	.LBB9_67
.LBB9_66:                               # %for.inc231.1
                                        #   in Loop: Header=BB9_64 Depth=3
	incq	%rbx
	movq	%rbx, %rcx
	andq	%r14, %rcx
	incq	%rax
	cmpq	$64, %rcx
	jb	.LBB9_64
.LBB9_67:                               # %if.end234.1
                                        #   in Loop: Header=BB9_58 Depth=2
	movq	(%r10), %r10
	xorq	%rbx, %rbx
	testq	%r10, %r10
	jne	.LBB9_58
	jmp	.LBB9_68
.LBB9_29:                               # %for.cond244.preheader
	movslq	max_regno(%rip), %rax
	cmpq	$53, %rax
	jle	.LBB9_35
# BB#30:
	movq	$53, %r14
	movabsq	$spilled_pseudos, %rbx
	.align	16, 0x90
.LBB9_31:                               # %for.body247
                                        # =>This Inner Loop Header: Depth=1
	movq	reg_old_renumber(%rip), %rax
	movq	reg_renumber(%rip), %rcx
	movzbl	(%rax,%r14,2), %eax
	movzbl	(%rcx,%r14,2), %ecx
	cmpq	%rcx, %rax
	je	.LBB9_34
# BB#32:                                # %if.then256
                                        #   in Loop: Header=BB9_31 Depth=1
	movq	pseudo_forbidden_regs(%rip), %rax
	movq	pseudo_previous_regs(%rip), %rcx
	movq	bad_spill_regs_global(%rip), %rdx
	movq	(%rax,%r14,8), %rax
	movq	(%rcx,%r14,8), %rsi
	orq	%rdx, %rax
	orq	%rax, %rsi
	movq	%r14, %rdi
	callq	retry_global_alloc
	movq	reg_renumber(%rip), %rax
	movswq	(%rax,%r14,2), %rax
	testq	%rax, %rax
	js	.LBB9_34
# BB#33:                                # %if.then268
                                        #   in Loop: Header=BB9_31 Depth=1
	movq	%rbx, %rdi
	movq	%r14, %rsi
	callq	bitmap_clear_bit
.LBB9_34:                               # %for.inc271
                                        #   in Loop: Header=BB9_31 Depth=1
	incq	%r14
	movslq	max_regno(%rip), %rax
	movq	$32, %rcx
	movq	%r14, %rdx
	shlq	%cl, %rdx
	movq	$32, %rcx
	sarq	%cl, %rdx
	cmpq	%rax, %rdx
	jl	.LBB9_31
.LBB9_35:                               # %for.cond275.preheader
	movq	reload_insn_chain(%rip), %r12
	testq	%r12, %r12
	je	.LBB9_70
# BB#36:
	leaq	24(%rsp), %r13
	.align	16, 0x90
.LBB9_37:                               # %for.body277
                                        # =>This Inner Loop Header: Depth=1
	leaq	40(%r12), %r14
	movq	$1, %rcx
	movq	%r14, %rdi
	movq	%r14, %rsi
	movabsq	$spilled_pseudos, %rbx
	movq	%rbx, %rdx
	callq	bitmap_operation
	leaq	64(%r12), %rdi
	movq	%rdi, 8(%rsp)           # 8-byte Spill
	movq	$1, %rcx
	movq	%rdi, %rsi
	movq	%rbx, %rdx
	callq	bitmap_operation
	movzbl	262(%r12), %eax
	testq	$1, %rax
	je	.LBB9_69
# BB#38:                                # %do.body285
                                        #   in Loop: Header=BB9_37 Depth=1
	movq	$0, 24(%rsp)
	movq	%r13, %rdi
	movq	%r14, %rsi
	callq	reg_set_to_hard_reg_set
	movq	$0, 16(%rsp)
	leaq	16(%rsp), %rdi
	movq	8(%rsp), %rbx           # 8-byte Reload
	movq	%rbx, %rsi
	callq	reg_set_to_hard_reg_set
	movq	16(%rsp), %rax
	orq	%rax, 24(%rsp)
	movq	104(%r12), %rax
	movq	%rax, 16(%rsp)
	movq	%r13, %rdi
	movq	%r14, %rsi
	callq	compute_use_by_pseudos
	movq	%r13, %rdi
	movq	%rbx, %rsi
	callq	compute_use_by_pseudos
	movq	24(%rsp), %rax
	movq	%rax, %rcx
	notq	%rcx
	movq	%rcx, 104(%r12)
	movq	used_spill_regs(%rip), %rdx
	andq	%rdx, %rcx
	movq	%rcx, 104(%r12)
	movq	16(%rsp), %rcx
	notq	%rdx
	orq	%rax, %rdx
	testq	%rdx, %rcx
	jne	.LBB9_39
.LBB9_69:                               # %for.inc307
                                        #   in Loop: Header=BB9_37 Depth=1
	movq	(%r12), %r12
	testq	%r12, %r12
	jne	.LBB9_37
.LBB9_70:                               # %for.cond310.preheader
	movslq	max_regno(%rip), %rax
	cmpq	$53, %rax
	jle	.LBB9_78
# BB#71:
	movq	$53, %r14
	movabsq	$.L.str10, %r13
	movabsq	$.L.str11, %r12
	.align	16, 0x90
.LBB9_72:                               # %for.body313
                                        # =>This Inner Loop Header: Depth=1
	movq	reg_renumber(%rip), %rax
	movq	reg_old_renumber(%rip), %rcx
	movzbl	(%rax,%r14,2), %ebx
	movzbl	(%rcx,%r14,2), %esi
	cmpq	%rbx, %rsi
	je	.LBB9_77
# BB#73:                                # %if.end323
                                        #   in Loop: Header=BB9_72 Depth=1
	movq	$48, %rcx
	shlq	%cl, %rsi
	movq	$48, %rcx
	sarq	%cl, %rsi
	movq	%r14, %rdi
	callq	alter_reg
	movq	reg_old_renumber(%rip), %rax
	movw	%bx, (%rax,%r14,2)
	movq	rtl_dump_file(%rip), %rdi
	testq	%rdi, %rdi
	je	.LBB9_77
# BB#74:                                # %if.then331
                                        #   in Loop: Header=BB9_72 Depth=1
	cmpq	$65535, %rbx            # imm = 0xFFFF
	jne	.LBB9_76
# BB#75:                                # %if.then334
                                        #   in Loop: Header=BB9_72 Depth=1
	xorq	%rax, %rax
	movq	%r13, %rsi
	movq	%r14, %rdx
	callq	fprintf
	jmp	.LBB9_77
.LBB9_76:                               # %if.else336
                                        #   in Loop: Header=BB9_72 Depth=1
	movq	reg_renumber(%rip), %rax
	movswq	(%rax,%r14,2), %rcx
	xorq	%rax, %rax
	movq	%r12, %rsi
	movq	%r14, %rdx
	callq	fprintf
	.align	16, 0x90
.LBB9_77:                               # %for.inc343
                                        #   in Loop: Header=BB9_72 Depth=1
	incq	%r14
	movslq	max_regno(%rip), %rax
	movq	$32, %rcx
	movq	%r14, %rdx
	shlq	%cl, %rdx
	movq	$32, %rcx
	sarq	%cl, %rdx
	cmpq	%rax, %rdx
	jl	.LBB9_72
.LBB9_78:                               # %for.end345
	movq	%r15, %rax
	addq	$32, %rsp
	popq	%rbx
	popq	%r12
	popq	%r13
	popq	%r14
	popq	%r15
	retq
.LBB9_79:                               # %if.then59
	movabsq	$.L.str1, %rdi
	movabsq	$.L__FUNCTION__.finish_spills, %rdx
	movq	$3642, %rsi             # imm = 0xE3A
	callq	fancy_abort
.LBB9_39:                               # %if.end305
	movabsq	$.L.str1, %rax
	movabsq	$.L__FUNCTION__.finish_spills, %rcx
	movq	$3721, %rsi             # imm = 0xE89
	movq	%rax, %rdi
	movq	%rcx, %rdx
	callq	fancy_abort
.Ltmp129:
	.size	finish_spills, .Ltmp129-finish_spills
	.cfi_endproc

	.globl	eliminate_regs
	.align	16, 0x90
	.type	eliminate_regs,@function
eliminate_regs:                         # @eliminate_regs
	.cfi_startproc
# BB#0:                                 # %entry
	pushq	%r15
.Ltmp136:
	.cfi_def_cfa_offset 16
	pushq	%r14
.Ltmp137:
	.cfi_def_cfa_offset 24
	pushq	%r13
.Ltmp138:
	.cfi_def_cfa_offset 32
	pushq	%r12
.Ltmp139:
	.cfi_def_cfa_offset 40
	pushq	%rbx
.Ltmp140:
	.cfi_def_cfa_offset 48
	subq	$80, %rsp
.Ltmp141:
	.cfi_def_cfa_offset 128
.Ltmp142:
	.cfi_offset %rbx, -48
.Ltmp143:
	.cfi_offset %r12, -40
.Ltmp144:
	.cfi_offset %r13, -32
.Ltmp145:
	.cfi_offset %r14, -24
.Ltmp146:
	.cfi_offset %r15, -16
	movq	current_function_decl(%rip), %rax
	movq	%rdx, 48(%rsp)          # 8-byte Spill
	movq	%rsi, %r12
	movq	%rdi, %r8
	testq	%rax, %rax
	je	.LBB10_143
# BB#1:
	movq	%r8, %rbx
.LBB10_2:                               # %if.end.lr.ph
                                        # =>This Loop Header: Depth=1
                                        #     Child Loop BB10_3 Depth 2
	movq	%r12, 64(%rsp)          # 8-byte Spill
.LBB10_3:                               # %if.end
                                        #   Parent Loop BB10_2 Depth=1
                                        # =>  This Inner Loop Header: Depth=2
	movl	(%rbx), %esi
	movq	%rsi, %rdi
	andq	$65535, %rdi            # imm = 0xFFFF
	leaq	-3(%rdi), %rcx
	movq	%rdi, %r13
	movabsq	$4294967295, %rdi       # imm = 0xFFFFFFFF
	andq	%rdi, %rcx
	cmpq	$128, %rcx
	ja	.LBB10_121
# BB#4:                                 # %if.end
                                        #   in Loop: Header=BB10_3 Depth=2
	jmpq	*.LJTI10_0(,%rcx,8)
.LBB10_90:                              # %sw.bb458
                                        #   in Loop: Header=BB10_3 Depth=2
	movq	%rdx, %r13
	movq	%r12, %r15
	movq	8(%r8), %rax
	movq	%r8, %r14
	testq	%rax, %rax
	je	.LBB10_91
# BB#92:                                # %if.then463
                                        #   in Loop: Header=BB10_3 Depth=2
	movq	%rax, %rdi
	movq	%r15, %rsi
	movq	%r13, %rdx
	callq	eliminate_regs
	movq	8(%r14), %rcx
	cmpq	%rcx, %rax
	je	.LBB10_91
# BB#93:                                # %if.then473
                                        #   in Loop: Header=BB10_3 Depth=2
	movzbl	2(%rbx), %ecx
	movq	16(%r14), %rbx
	cmpq	$1, %rcx
	jne	.LBB10_95
# BB#94:                                # %if.then479
                                        #   in Loop: Header=BB10_3 Depth=2
	xorq	%r8, %r8
	testq	%rbx, %rbx
	movq	%r15, %r12
	movq	%r13, %rdx
	jne	.LBB10_30
	jmp	.LBB10_143
.LBB10_7:                               # %sw.bb9
                                        #   in Loop: Header=BB10_3 Depth=2
	movq	%rdx, %rdi
	movq	%r12, %rdx
	movslq	8(%r8), %rax
	movq	%r8, %rsi
	cmpq	$52, %rax
	jle	.LBB10_8
# BB#15:                                # %if.else
                                        #   in Loop: Header=BB10_3 Depth=2
	movq	reg_renumber(%rip), %rcx
	testq	%rcx, %rcx
	je	.LBB10_16
# BB#17:                                # %land.lhs.true22
                                        #   in Loop: Header=BB10_3 Depth=2
	movswq	(%rcx,%rax,2), %rcx
	testq	%rcx, %rcx
	jns	.LBB10_18
# BB#19:                                # %land.lhs.true22
                                        #   in Loop: Header=BB10_3 Depth=2
	movq	reg_equiv_constant(%rip), %rcx
	testq	%rcx, %rcx
	je	.LBB10_20
# BB#21:                                # %land.lhs.true29
                                        #   in Loop: Header=BB10_3 Depth=2
	movq	(%rcx,%rax,8), %rax
	testq	%rax, %rax
	je	.LBB10_22
# BB#23:                                # %land.lhs.true33
                                        #   in Loop: Header=BB10_3 Depth=2
	movzbl	(%rax), %ecx
	cmpq	$133, %rcx
	jg	.LBB10_26
# BB#24:                                # %land.lhs.true33
                                        #   in Loop: Header=BB10_3 Depth=2
	addq	$-54, %rcx
	movabsq	$4294967295, %rbx       # imm = 0xFFFFFFFF
	andq	%rbx, %rcx
	cmpq	$14, %rcx
	movq	%rsi, %r8
	movq	%rdx, %r12
	movq	%rdi, %rsi
	ja	.LBB10_29
# BB#25:                                # %land.lhs.true33
                                        #   in Loop: Header=BB10_3 Depth=2
	movq	$1, %rdx
	shlq	%cl, %rdx
	testq	$24599, %rdx            # imm = 0x6017
	je	.LBB10_29
	jmp	.LBB10_143
.LBB10_26:                              # %land.lhs.true33
                                        #   in Loop: Header=BB10_3 Depth=2
	cmpq	$134, %rcx
	je	.LBB10_27
# BB#28:                                # %land.lhs.true33
                                        #   in Loop: Header=BB10_3 Depth=2
	cmpq	$140, %rcx
	movq	%rsi, %r8
	movq	%rdx, %r12
	movq	%rdi, %rsi
	je	.LBB10_143
.LBB10_29:                              # %if.then88
                                        #   in Loop: Header=BB10_3 Depth=2
	movq	%rax, %rdi
	movq	%rsi, %rbx
	callq	copy_rtx
	movq	%rbx, %rdx
	movq	%rax, %rbx
.LBB10_30:                              # %tailrecurse.backedge
                                        #   in Loop: Header=BB10_3 Depth=2
	movq	current_function_decl(%rip), %rax
	testq	%rax, %rax
	movq	%rbx, %r8
	jne	.LBB10_3
	jmp	.LBB10_143
.LBB10_115:                             # %sw.bb641
                                        #   in Loop: Header=BB10_2 Depth=1
	movq	8(%r8), %rdi
	movq	%r8, %rbx
	movzbl	(%rdi), %ecx
	cmpq	$70, %rcx
	jne	.LBB10_117
# BB#116:                               # %if.then649
                                        #   in Loop: Header=BB10_2 Depth=1
	movq	8(%rdi), %rbx
	xorq	%r12, %r12
	testq	%rax, %rax
	movq	%rbx, %r8
	jne	.LBB10_2
	jmp	.LBB10_143
.LBB10_121:                             # %sw.epilog
	movzbl	rtx_length(%r13), %eax
	movq	%rax, 16(%rsp)          # 8-byte Spill
	testq	%rax, %rax
	je	.LBB10_143
# BB#122:                               # %for.body691.lr.ph
	movq	rtx_format(,%r13,8), %rsi
	movq	%r13, 32(%rsp)          # 8-byte Spill
	xorq	%r13, %r13
	leaq	8(,%rax,8), %rax
	movq	%rax, 24(%rsp)          # 8-byte Spill
	movq	$0, 56(%rsp)            # 8-byte Folded Spill
	.align	16, 0x90
.LBB10_123:                             # %for.body691
                                        # =>This Loop Header: Depth=1
                                        #     Child Loop BB10_127 Depth 2
	movzbl	(%rsi), %eax
	cmpq	$101, %rax
	jne	.LBB10_124
# BB#129:                               # %if.then695
                                        #   in Loop: Header=BB10_123 Depth=1
	movq	%rsi, 40(%rsp)          # 8-byte Spill
	movq	8(%r8,%r13,8), %rdi
	movq	%r12, %rsi
	movq	%rdx, %r15
	movq	%r8, %rbx
	callq	eliminate_regs
	movq	%rbx, %r8
	movq	8(%r8,%r13,8), %rcx
	movq	%rax, %rbx
	cmpq	%rcx, %rbx
	je	.LBB10_134
# BB#130:                               # %if.then695
                                        #   in Loop: Header=BB10_123 Depth=1
	movq	%r12, 64(%rsp)          # 8-byte Spill
	movq	%r8, %r14
	movabsq	$4294967295, %rax       # imm = 0xFFFFFFFF
	movq	56(%rsp), %rcx          # 8-byte Reload
	testq	%rax, %rcx
	jne	.LBB10_131
# BB#132:                               # %if.then709
                                        #   in Loop: Header=BB10_123 Depth=1
	movq	32(%rsp), %rdi          # 8-byte Reload
	callq	rtx_alloc
	movq	%rax, %r12
	movq	%r12, %rdi
	movq	%r14, %rsi
	movq	24(%rsp), %rdx          # 8-byte Reload
	callq	memcpy
	movq	$1, 56(%rsp)            # 8-byte Folded Spill
	movq	%r12, %r8
	jmp	.LBB10_133
	.align	16, 0x90
.LBB10_124:                             # %for.body691
                                        #   in Loop: Header=BB10_123 Depth=1
	movq	%rsi, 40(%rsp)          # 8-byte Spill
	cmpq	$69, %rax
	jne	.LBB10_142
# BB#125:                               # %for.cond725.preheader
                                        #   in Loop: Header=BB10_123 Depth=1
	movq	8(%r8,%r13,8), %rax
	movslq	(%rax), %rcx
	testq	%rcx, %rcx
	jle	.LBB10_142
# BB#126:                               #   in Loop: Header=BB10_123 Depth=1
	movq	$1, %r15
	leaq	8(%r8,%r13,8), %rbx
	movq	$0, 72(%rsp)            # 8-byte Folded Spill
	.align	16, 0x90
.LBB10_127:                             # %for.body731
                                        #   Parent Loop BB10_123 Depth=1
                                        # =>  This Inner Loop Header: Depth=2
	movq	%r8, %r14
	movq	(%rax,%r15,8), %rdi
	movq	%r12, %rsi
	callq	eliminate_regs
	movq	(%rbx), %rsi
	movq	(%rsi,%r15,8), %rcx
	movq	%rax, %r12
	cmpq	%rcx, %r12
	je	.LBB10_128
# BB#135:                               # %for.body731
                                        #   in Loop: Header=BB10_127 Depth=2
	movabsq	$4294967295, %rbx       # imm = 0xFFFFFFFF
	movq	72(%rsp), %rax          # 8-byte Reload
	testq	%rbx, %rax
	jne	.LBB10_136
# BB#137:                               # %if.then750
                                        #   in Loop: Header=BB10_127 Depth=2
	movl	(%rsi), %edi
	addq	$8, %rsi
	callq	gen_rtvec_v
	movq	56(%rsp), %rcx          # 8-byte Reload
	testq	%rbx, %rcx
	jne	.LBB10_138
# BB#139:                               # %if.then763
                                        #   in Loop: Header=BB10_127 Depth=2
	movq	32(%rsp), %rdi          # 8-byte Reload
	movq	%rax, 72(%rsp)          # 8-byte Spill
	callq	rtx_alloc
	movq	%rax, %rbx
	movq	%rbx, %rdi
	movq	%r14, %rsi
	movq	24(%rsp), %rdx          # 8-byte Reload
	callq	memcpy
	movq	72(%rsp), %rax          # 8-byte Reload
	movq	$1, %rcx
	movq	%rbx, %r8
	jmp	.LBB10_140
	.align	16, 0x90
.LBB10_128:                             #   in Loop: Header=BB10_127 Depth=2
	movq	%r14, %r8
	jmp	.LBB10_141
	.align	16, 0x90
.LBB10_136:                             #   in Loop: Header=BB10_127 Depth=2
	movq	%r14, %r8
	jmp	.LBB10_141
	.align	16, 0x90
.LBB10_138:                             #   in Loop: Header=BB10_127 Depth=2
	movq	%r14, %r8
.LBB10_140:                             # %if.end771
                                        #   in Loop: Header=BB10_127 Depth=2
	movq	%rcx, 56(%rsp)          # 8-byte Spill
	movq	%rax, 8(%r8,%r13,8)
	movq	$1, 72(%rsp)            # 8-byte Folded Spill
.LBB10_141:                             # %if.end776
                                        #   in Loop: Header=BB10_127 Depth=2
	movq	8(%r8,%r13,8), %rax
	movq	%r12, (%rax,%r15,8)
	movq	8(%r8,%r13,8), %rax
	leaq	8(%r8,%r13,8), %rbx
	movslq	(%rax), %rdx
	movq	$32, %rcx
	movq	%r15, %rsi
	shlq	%cl, %rsi
	movq	$32, %rcx
	sarq	%cl, %rsi
	incq	%r15
	cmpq	%rdx, %rsi
	movq	64(%rsp), %r12          # 8-byte Reload
	movq	48(%rsp), %rdx          # 8-byte Reload
	jl	.LBB10_127
	jmp	.LBB10_142
.LBB10_131:                             #   in Loop: Header=BB10_123 Depth=1
	movq	%r14, %r8
.LBB10_133:                             # %if.end715
                                        #   in Loop: Header=BB10_123 Depth=1
	movq	64(%rsp), %r12          # 8-byte Reload
.LBB10_134:                             # %if.end715
                                        #   in Loop: Header=BB10_123 Depth=1
	movq	%r15, %rdx
	movq	%rbx, 8(%r8,%r13,8)
.LBB10_142:                             # %for.inc788
                                        #   in Loop: Header=BB10_123 Depth=1
	incq	%r13
	movq	40(%rsp), %rsi          # 8-byte Reload
	incq	%rsi
	movq	$32, %rcx
	movq	%r13, %rax
	shlq	%cl, %rax
	movq	$32, %rcx
	sarq	%cl, %rax
	movq	16(%rsp), %rcx          # 8-byte Reload
	cmpq	%rcx, %rax
	jl	.LBB10_123
	jmp	.LBB10_143
.LBB10_82:                              # %sw.bb425.loopexit1026
	movq	8(%r8), %rdi
	movq	%r8, %r15
	jmp	.LBB10_83
.LBB10_102:                             # %sw.bb529
	movq	8(%r8), %rdi
	movq	%r12, %rsi
	movq	%r8, %r14
	callq	eliminate_regs
	movq	%r14, %r8
	movq	8(%r8), %rcx
	cmpq	%rcx, %rax
	je	.LBB10_143
# BB#103:                               # %if.then539
	movzbl	2(%rbx), %esi
	movq	%r13, %rdi
	jmp	.LBB10_104
.LBB10_120:                             # %sw.bb682
	movabsq	$.L.str1, %rax
	movabsq	$.L__FUNCTION__.eliminate_regs, %rcx
	movq	$2609, %rsi             # imm = 0xA31
	movq	%rax, %rdi
	movq	%rcx, %rdx
	callq	fancy_abort
.LBB10_118:                             # %sw.bb666
	movq	8(%r8), %rax
	xorq	%rsi, %rsi
	movq	%rax, %rdi
	movq	%r8, %r14
	callq	eliminate_regs
	movq	%r14, %r8
	movq	8(%r8), %rcx
	cmpq	%rcx, %rax
	je	.LBB10_143
# BB#119:                               # %if.then676
	movzbl	2(%rbx), %ecx
	movq	$48, %rdi
	movq	%rcx, %rsi
.LBB10_104:                             # %if.then539
	movq	%rax, %rdx
	addq	$80, %rsp
	popq	%rbx
	popq	%r12
	popq	%r13
	popq	%r14
	popq	%r15
	jmp	gen_rtx_fmt_e  # TAILCALL
.LBB10_105:                             # %sw.bb545
	movq	%rdx, %r10
	movq	%r12, %r9
	movq	8(%r8), %rax
	movq	%r8, %r14
	movl	(%rax), %edi
	movq	%rdi, %rcx
	andq	$65535, %rcx            # imm = 0xFFFF
	cmpq	$61, %rcx
	jne	.LBB10_110
# BB#106:                               # %land.lhs.true553
	movq	$16, %rcx
	shrq	%cl, %rsi
	andq	$255, %rsi
	movzbl	mode_size(%rsi), %edx
	movq	$16, %rcx
	shrq	%cl, %rdi
	andq	$255, %rdi
	movzbl	mode_size(%rdi), %ecx
	cmpq	%rcx, %rdx
	ja	.LBB10_110
# BB#107:                               # %land.lhs.true553
	movq	reg_equiv_memory_loc(%rip), %rcx
	testq	%rcx, %rcx
	je	.LBB10_110
# BB#108:                               # %land.lhs.true574
	movl	8(%rax), %edx
	cmpq	$0, (%rcx,%rdx,8)
	je	.LBB10_110
# BB#109:
	movq	%r14, %r8
	jmp	.LBB10_143
.LBB10_5:                               # %sw.bb1
	movq	8(%r8), %rax
	xorq	%rsi, %rsi
	movq	%rax, %rdi
	movq	%r8, %rbx
	callq	eliminate_regs
	movq	%rbx, %r8
	movzbl	(%rax), %ecx
	cmpq	$66, %rcx
	jne	.LBB10_143
# BB#6:                                 # %if.then4
	movq	8(%rax), %r8
	jmp	.LBB10_143
.LBB10_31:                              # %sw.bb95
	movq	%rdx, %r10
	movq	%r12, %r9
	movq	8(%r8), %rdx
	movq	%r8, %r15
	movzbl	(%rdx), %eax
	cmpq	$61, %rax
	jne	.LBB10_36
# BB#32:                                # %land.lhs.true103
	movl	8(%rdx), %eax
	cmpq	$52, %rax
	ja	.LBB10_36
# BB#33:                                # %land.lhs.true112
	movq	16(%r15), %rax
	movzbl	(%rax), %edi
	cmpq	$133, %rdi
	jg	.LBB10_46
# BB#34:                                # %land.lhs.true112
	leaq	-54(%rdi), %rcx
	movabsq	$4294967295, %rsi       # imm = 0xFFFFFFFF
	andq	%rsi, %rcx
	cmpq	$14, %rcx
	ja	.LBB10_36
# BB#35:                                # %land.lhs.true112
	movq	$1, %rsi
	shlq	%cl, %rsi
	testq	$24599, %rsi            # imm = 0x6017
	jne	.LBB10_48
	jmp	.LBB10_36
.LBB10_69:                              # %sw.bb346
	movq	%rdx, %r9
	movq	%r12, %rsi
	movq	8(%r8), %rdi
	movq	%r8, %r15
	movzbl	(%rdi), %eax
	cmpq	$61, %rax
	movq	$78, %r13
	jne	.LBB10_70
# BB#71:                                # %land.lhs.true354
	movl	8(%rdi), %eax
	cmpq	$52, %rax
	ja	.LBB10_70
# BB#72:                                # %land.lhs.true363
	movq	16(%r15), %rax
	movzbl	(%rax), %ecx
	cmpq	$54, %rcx
	jne	.LBB10_70
# BB#73:                                # %for.body376.lr.ph
	movq	reg_eliminate(%rip), %r14
	leaq	192(%r14), %rcx
.LBB10_74:                              # %for.body376
                                        # =>This Inner Loop Header: Depth=1
	movq	32(%r14), %rdx
	cmpq	%rdi, %rdx
	jne	.LBB10_81
# BB#75:                                # %land.lhs.true383
                                        #   in Loop: Header=BB10_74 Depth=1
	movl	12(%r14), %edx
	testq	%rdx, %rdx
	jne	.LBB10_76
.LBB10_81:                              # %for.inc421
                                        #   in Loop: Header=BB10_74 Depth=1
	addq	$48, %r14
	cmpq	%rcx, %r14
	jb	.LBB10_74
.LBB10_70:
	movq	%rsi, %r12
	movq	%r9, %rdx
.LBB10_83:                              # %sw.bb425
	movq	%rdx, 48(%rsp)          # 8-byte Spill
	movq	%r12, %rsi
	callq	eliminate_regs
	movq	16(%r15), %rdi
	movq	%rax, %r14
	xorq	%rax, %rax
	testq	%rdi, %rdi
	movq	%r15, %r8
	je	.LBB10_85
# BB#84:                                # %cond.true
	movq	%r12, %rsi
	movq	48(%rsp), %rdx          # 8-byte Reload
	movq	%r8, %r15
	callq	eliminate_regs
	movq	%r15, %r8
.LBB10_85:                              # %cond.end
	movq	8(%r8), %rcx
	cmpq	%rcx, %r14
	jne	.LBB10_87
# BB#86:                                # %lor.lhs.false446
	movq	16(%r8), %rcx
	cmpq	%rcx, %rax
	je	.LBB10_143
.LBB10_87:                              # %if.then452
	movzbl	2(%rbx), %esi
	movq	%r13, %rdi
	jmp	.LBB10_88
.LBB10_91:
	movq	%r14, %r8
	jmp	.LBB10_96
.LBB10_95:                              # %if.end492
	movq	$3, %rdi
	movq	%rcx, %rsi
	movq	%rax, %rdx
	movq	%rbx, %rcx
	callq	gen_rtx_fmt_ee
	movq	%rax, %r8
.LBB10_96:                              # %sw.bb502
	movq	%r15, %r12
	movq	%r13, %rdx
.LBB10_97:                              # %sw.bb502
	movq	%r12, %rcx
	movq	16(%r8), %rax
	movq	%r8, %rbx
	testq	%rax, %rax
	je	.LBB10_98
# BB#99:                                # %if.then507
	movq	%rax, %rdi
	movq	%rcx, %rsi
	callq	eliminate_regs
	movq	16(%rbx), %rcx
	cmpq	%rcx, %rax
	je	.LBB10_100
# BB#101:                               # %if.then517
	movq	%rbx, %rcx
	movl	(%rcx), %edx
	movq	%rdx, %rsi
	andq	$65535, %rsi            # imm = 0xFFFF
	movq	8(%rcx), %rbx
	movq	$16, %rcx
	shrq	%cl, %rdx
	andq	$255, %rdx
	movq	%rsi, %rdi
	movq	%rdx, %rsi
	movq	%rbx, %rdx
	jmp	.LBB10_89
.LBB10_8:                               # %for.body.lr.ph
	movq	reg_eliminate(%rip), %rax
	leaq	192(%rax), %rcx
.LBB10_9:                               # %for.body
                                        # =>This Inner Loop Header: Depth=1
	movq	32(%rax), %rdx
	cmpq	%rsi, %rdx
	jne	.LBB10_13
# BB#10:                                # %land.lhs.true
                                        #   in Loop: Header=BB10_9 Depth=1
	movl	12(%rax), %edx
	testq	%rdx, %rdx
	jne	.LBB10_11
.LBB10_13:                              # %for.inc
                                        #   in Loop: Header=BB10_9 Depth=1
	addq	$48, %rax
	cmpq	%rcx, %rax
	jb	.LBB10_9
# BB#14:
	movq	%rsi, %r8
	jmp	.LBB10_143
.LBB10_16:
	movq	%rsi, %r8
	jmp	.LBB10_143
.LBB10_18:
	movq	%rsi, %r8
	jmp	.LBB10_143
.LBB10_20:
	movq	%rsi, %r8
	jmp	.LBB10_143
.LBB10_22:
	movq	%rsi, %r8
	jmp	.LBB10_143
.LBB10_27:
	movq	%rsi, %r8
	jmp	.LBB10_143
.LBB10_117:                             # %if.end657
	movq	$16, %rcx
	shrq	%cl, %rsi
	andq	$255, %rsi
	callq	eliminate_regs
	movq	%rbx, %rdi
	movq	%rax, %rsi
	addq	$80, %rsp
	popq	%rbx
	popq	%r12
	popq	%r13
	popq	%r14
	popq	%r15
	jmp	replace_equiv_address_nv  # TAILCALL
.LBB10_110:                             # %if.end594
	movq	%rax, %rdi
	movq	%r9, %rsi
	movq	%r10, %rdx
	callq	eliminate_regs
	movq	8(%r14), %rcx
	cmpq	%rcx, %rax
	je	.LBB10_111
# BB#112:                               # %if.then600
	movl	(%rax), %esi
	movzbl	2(%rbx), %edx
	movq	%rsi, %rcx
	andq	$65535, %rcx            # imm = 0xFFFF
	cmpq	$66, %rcx
	jne	.LBB10_114
# BB#113:                               # %land.lhs.true617
	movq	$16, %rcx
	shrq	%cl, %rsi
	andq	$255, %rsi
	movzbl	mode_size(%rdx), %ecx
	movzbl	mode_size(%rsi), %esi
	cmpq	%rsi, %rcx
	jbe	.LBB10_144
.LBB10_114:                             # %if.else632
	movl	16(%r14), %ecx
	movq	%rdx, %rdi
	movq	%rax, %rsi
	movq	%rcx, %rdx
	addq	$80, %rsp
	popq	%rbx
	popq	%r12
	popq	%r13
	popq	%r14
	popq	%r15
	jmp	gen_rtx_SUBREG  # TAILCALL
.LBB10_46:                              # %land.lhs.true112
	cmpq	$134, %rdi
	je	.LBB10_48
# BB#47:                                # %land.lhs.true112
	cmpq	$140, %rdi
	jne	.LBB10_36
.LBB10_48:                              # %for.body181.lr.ph
	movq	reg_eliminate(%rip), %rsi
	leaq	192(%rsi), %rcx
.LBB10_49:                              # %for.body181
                                        # =>This Inner Loop Header: Depth=1
	movq	32(%rsi), %rbx
	cmpq	%rdx, %rbx
	jne	.LBB10_56
# BB#50:                                # %land.lhs.true188
                                        #   in Loop: Header=BB10_49 Depth=1
	movl	12(%rsi), %ebx
	testq	%rbx, %rbx
	jne	.LBB10_51
.LBB10_56:                              # %for.inc225
                                        #   in Loop: Header=BB10_49 Depth=1
	addq	$48, %rsi
	cmpq	%rcx, %rsi
	jb	.LBB10_49
# BB#57:
	movq	%r15, %r8
	jmp	.LBB10_143
.LBB10_76:                              # %if.then386
	movabsq	$4294967295, %rcx       # imm = 0xFFFFFFFF
	testq	%rcx, %rsi
	jne	.LBB10_80
# BB#77:                                # %land.lhs.true388
	testq	%r9, %r9
	je	.LBB10_79
# BB#78:                                # %land.lhs.true391
	movzbl	(%r9), %ecx
	addq	$-3, %rcx
	movabsq	$4294967295, %rdx       # imm = 0xFFFFFFFF
	andq	%rdx, %rcx
	cmpq	$2, %rcx
	jb	.LBB10_80
.LBB10_79:                              # %if.then401
	movq	$1, %rcx
	movl	%ecx, 28(%r14)
.LBB10_80:                              # %if.end402
	movl	target_flags(%rip), %edx
	movq	$25, %rcx
	movq	40(%r14), %rbx
	shrq	%cl, %rdx
	andq	$1, %rdx
	orq	$4, %rdx
	movq	$78, %rdi
	movq	%rdx, %rsi
	movq	%rbx, %rdx
	movq	%rax, %rcx
	callq	gen_rtx_fmt_ee
	movq	16(%r15), %rcx
	movslq	24(%r14), %rdx
	movq	8(%rcx), %rcx
	imulq	%rdx, %rcx
	movq	%rax, %rdi
	movq	%rcx, %rsi
	jmp	.LBB10_12
.LBB10_98:
	movq	%rbx, %r8
	jmp	.LBB10_143
.LBB10_100:
	movq	%rbx, %r8
	jmp	.LBB10_143
.LBB10_11:                              # %if.then18
	movq	40(%rax), %rcx
	movslq	24(%rax), %rax
	movq	%rcx, %rdi
	movq	%rax, %rsi
.LBB10_12:                              # %if.then18
	addq	$80, %rsp
	popq	%rbx
	popq	%r12
	popq	%r13
	popq	%r14
	popq	%r15
	jmp	plus_constant_wide  # TAILCALL
.LBB10_111:
	movq	%r14, %r8
	jmp	.LBB10_143
.LBB10_144:                             # %if.then623
	movl	16(%r14), %ebx
	xorq	%rcx, %rcx
	movq	$1, %r8
	movq	%rax, %rdi
	movq	%rdx, %rsi
	movq	%rbx, %rdx
	addq	$80, %rsp
	popq	%rbx
	popq	%r12
	popq	%r13
	popq	%r14
	popq	%r15
	jmp	adjust_address_1  # TAILCALL
.LBB10_36:                              # %if.end228
	movq	%rdx, %rdi
	movq	%r9, %r12
	movq	%r12, %rsi
	movq	%r10, %r13
	movq	%r13, %rdx
	callq	eliminate_regs
	movq	16(%r15), %rcx
	movq	%rax, %r14
	movq	%rcx, %rdi
	movq	%r12, %rsi
	movq	%r13, %rdx
	callq	eliminate_regs
	movq	reg_renumber(%rip), %rcx
	movq	%rax, %r9
	movq	%r15, %r8
	testq	%rcx, %rcx
	je	.LBB10_143
# BB#37:                                # %land.lhs.true238
	movq	8(%r8), %rdx
	cmpq	%rdx, %r14
	movq	%r12, %rax
	jne	.LBB10_39
# BB#38:                                # %lor.lhs.false244
	movq	16(%r8), %rdx
	cmpq	%rdx, %r9
	je	.LBB10_143
.LBB10_39:                              # %if.then250
	movq	%rax, %r15
	movl	(%r9), %esi
	movzbl	(%r14), %edx
	andq	$65535, %rsi            # imm = 0xFFFF
	cmpq	$75, %rdx
	jne	.LBB10_58
# BB#40:                                # %if.then250
	cmpq	$61, %rsi
	jne	.LBB10_58
# BB#41:                                # %land.lhs.true260
	movl	8(%r9), %edi
	cmpq	$53, %rdi
	jb	.LBB10_58
# BB#42:                                # %land.lhs.true266
	movswq	(%rcx,%rdi,2), %rax
	testq	%rax, %rax
	jns	.LBB10_58
# BB#43:                                # %land.lhs.true266
	movq	reg_equiv_constant(%rip), %r8
	testq	%r8, %r8
	je	.LBB10_58
# BB#44:                                # %land.lhs.true278
	movq	(%r8,%rdi,8), %rdi
	testq	%rdi, %rdi
	je	.LBB10_58
# BB#45:
	movq	%rdi, %r9
	jmp	.LBB10_64
.LBB10_51:                              # %if.then191
	movabsq	$4294967295, %rcx       # imm = 0xFFFFFFFF
	testq	%rcx, %r9
	je	.LBB10_55
# BB#52:                                # %if.then191
	cmpq	$54, %rdi
	jne	.LBB10_55
# BB#53:                                # %land.lhs.true202
	movl	24(%rsi), %edx
	movq	8(%rax), %rdi
	negq	%rdx
	movq	$32, %rcx
	shlq	%cl, %rdx
	movq	$32, %rcx
	sarq	%cl, %rdx
	cmpq	%rdx, %rdi
	jne	.LBB10_55
# BB#54:                                # %if.then212
	movq	40(%rsi), %r8
	jmp	.LBB10_143
.LBB10_58:                              # %if.else292
	cmpq	$75, %rsi
	jne	.LBB10_64
# BB#59:                                # %if.else292
	cmpq	$61, %rdx
	jne	.LBB10_64
# BB#60:                                # %land.lhs.true302
	movl	8(%r14), %edx
	cmpq	$53, %rdx
	jb	.LBB10_64
# BB#61:                                # %land.lhs.true308
	movswq	(%rcx,%rdx,2), %rax
	testq	%rax, %rax
	jns	.LBB10_64
# BB#62:                                # %land.lhs.true317
	movq	reg_equiv_constant(%rip), %rax
	movq	(%rax,%rdx,8), %rcx
	testq	%rcx, %rcx
	je	.LBB10_64
# BB#63:                                # %land.lhs.true317
	movq	%rcx, %r14
.LBB10_64:                              # %if.end332
	movq	%r14, %rdi
	movq	%r9, %rsi
	callq	form_sum
	movq	%rax, %rdx
	movabsq	$4294967295, %rax       # imm = 0xFFFFFFFF
	testq	%rax, %r15
	je	.LBB10_66
# BB#65:
	movq	%rdx, %r8
	jmp	.LBB10_143
.LBB10_55:                              # %if.else214
	movl	target_flags(%rip), %ebx
	movq	$25, %rcx
	movq	40(%rsi), %r14
	movslq	24(%rsi), %rdx
	shrq	%cl, %rbx
	andq	$1, %rbx
	orq	$4, %rbx
	movq	%rax, %rdi
	movq	%rdx, %rsi
	callq	plus_constant_wide
	movq	$75, %rdi
	movq	%rbx, %rsi
.LBB10_88:                              # %if.then452
	movq	%r14, %rdx
	jmp	.LBB10_89
.LBB10_66:                              # %land.lhs.true335
	movzbl	(%rdx), %eax
	cmpq	$75, %rax
	jne	.LBB10_68
# BB#67:
	movq	%rdx, %r8
.LBB10_143:                             # %return
	movq	%r8, %rax
	addq	$80, %rsp
	popq	%rbx
	popq	%r12
	popq	%r13
	popq	%r14
	popq	%r15
	retq
.LBB10_68:                              # %if.then340
	movq	const_int_rtx+512(%rip), %rax
	movzbl	2(%rbx), %ecx
	movq	$75, %rdi
	movq	%rcx, %rsi
.LBB10_89:                              # %if.then452
	movq	%rax, %rcx
	addq	$80, %rsp
	popq	%rbx
	popq	%r12
	popq	%r13
	popq	%r14
	popq	%r15
	jmp	gen_rtx_fmt_ee  # TAILCALL
.Ltmp147:
	.size	eliminate_regs, .Ltmp147-eliminate_regs
	.cfi_endproc
	.section	.rodata,"a",@progbits
	.align	8
.LJTI10_0:
	.quad	.LBB10_90
	.quad	.LBB10_97
	.quad	.LBB10_121
	.quad	.LBB10_121
	.quad	.LBB10_121
	.quad	.LBB10_121
	.quad	.LBB10_121
	.quad	.LBB10_121
	.quad	.LBB10_121
	.quad	.LBB10_121
	.quad	.LBB10_121
	.quad	.LBB10_121
	.quad	.LBB10_121
	.quad	.LBB10_121
	.quad	.LBB10_121
	.quad	.LBB10_121
	.quad	.LBB10_121
	.quad	.LBB10_121
	.quad	.LBB10_121
	.quad	.LBB10_121
	.quad	.LBB10_121
	.quad	.LBB10_121
	.quad	.LBB10_121
	.quad	.LBB10_121
	.quad	.LBB10_121
	.quad	.LBB10_121
	.quad	.LBB10_121
	.quad	.LBB10_121
	.quad	.LBB10_121
	.quad	.LBB10_121
	.quad	.LBB10_121
	.quad	.LBB10_121
	.quad	.LBB10_121
	.quad	.LBB10_143
	.quad	.LBB10_121
	.quad	.LBB10_121
	.quad	.LBB10_121
	.quad	.LBB10_143
	.quad	.LBB10_120
	.quad	.LBB10_121
	.quad	.LBB10_121
	.quad	.LBB10_143
	.quad	.LBB10_143
	.quad	.LBB10_121
	.quad	.LBB10_120
	.quad	.LBB10_118
	.quad	.LBB10_120
	.quad	.LBB10_82
	.quad	.LBB10_143
	.quad	.LBB10_121
	.quad	.LBB10_121
	.quad	.LBB10_143
	.quad	.LBB10_143
	.quad	.LBB10_143
	.quad	.LBB10_121
	.quad	.LBB10_143
	.quad	.LBB10_143
	.quad	.LBB10_121
	.quad	.LBB10_7
	.quad	.LBB10_121
	.quad	.LBB10_105
	.quad	.LBB10_102
	.quad	.LBB10_121
	.quad	.LBB10_115
	.quad	.LBB10_121
	.quad	.LBB10_143
	.quad	.LBB10_143
	.quad	.LBB10_5
	.quad	.LBB10_121
	.quad	.LBB10_121
	.quad	.LBB10_121
	.quad	.LBB10_82
	.quad	.LBB10_31
	.quad	.LBB10_82
	.quad	.LBB10_102
	.quad	.LBB10_69
	.quad	.LBB10_82
	.quad	.LBB10_82
	.quad	.LBB10_82
	.quad	.LBB10_82
	.quad	.LBB10_82
	.quad	.LBB10_82
	.quad	.LBB10_82
	.quad	.LBB10_102
	.quad	.LBB10_82
	.quad	.LBB10_82
	.quad	.LBB10_82
	.quad	.LBB10_82
	.quad	.LBB10_82
	.quad	.LBB10_121
	.quad	.LBB10_121
	.quad	.LBB10_121
	.quad	.LBB10_121
	.quad	.LBB10_102
	.quad	.LBB10_102
	.quad	.LBB10_102
	.quad	.LBB10_102
	.quad	.LBB10_121
	.quad	.LBB10_121
	.quad	.LBB10_82
	.quad	.LBB10_82
	.quad	.LBB10_82
	.quad	.LBB10_82
	.quad	.LBB10_82
	.quad	.LBB10_82
	.quad	.LBB10_82
	.quad	.LBB10_82
	.quad	.LBB10_82
	.quad	.LBB10_82
	.quad	.LBB10_121
	.quad	.LBB10_121
	.quad	.LBB10_121
	.quad	.LBB10_121
	.quad	.LBB10_121
	.quad	.LBB10_121
	.quad	.LBB10_121
	.quad	.LBB10_121
	.quad	.LBB10_102
	.quad	.LBB10_102
	.quad	.LBB10_102
	.quad	.LBB10_102
	.quad	.LBB10_102
	.quad	.LBB10_102
	.quad	.LBB10_102
	.quad	.LBB10_102
	.quad	.LBB10_102
	.quad	.LBB10_102
	.quad	.LBB10_102
	.quad	.LBB10_102

	.text
	.align	16, 0x90
	.type	delete_dead_insn,@function
delete_dead_insn:                       # @delete_dead_insn
	.cfi_startproc
# BB#0:                                 # %entry
	pushq	%r15
.Ltmp153:
	.cfi_def_cfa_offset 16
	pushq	%r14
.Ltmp154:
	.cfi_def_cfa_offset 24
	pushq	%r12
.Ltmp155:
	.cfi_def_cfa_offset 32
	pushq	%rbx
.Ltmp156:
	.cfi_def_cfa_offset 40
	pushq	%rax
.Ltmp157:
	.cfi_def_cfa_offset 48
.Ltmp158:
	.cfi_offset %rbx, -40
.Ltmp159:
	.cfi_offset %r12, -32
.Ltmp160:
	.cfi_offset %r14, -24
.Ltmp161:
	.cfi_offset %r15, -16
	movq	%rdi, %rbx
                                        # kill: RDI<def> RBX<kill>
	callq	prev_real_insn
	movq	%rax, %r14
	testq	%r14, %r14
	je	.LBB11_7
# BB#1:                                 # %land.lhs.true
	movq	32(%r14), %rax
	movzbl	(%rax), %ecx
	cmpq	$47, %rcx
	jne	.LBB11_7
# BB#2:                                 # %land.lhs.true1
	movq	8(%rax), %r15
	movzbl	(%r15), %eax
	cmpq	$61, %rax
	jne	.LBB11_7
# BB#3:                                 # %land.lhs.true11
	movq	32(%rbx), %rsi
	movq	%r15, %rdi
	callq	reg_mentioned_p
	movabsq	$4294967295, %r12       # imm = 0xFFFFFFFF
	testq	%r12, %rax
	je	.LBB11_7
# BB#4:                                 # %land.lhs.true17
	movl	8(%r15), %edx
	movq	$1, %rsi
	movq	%rbx, %rdi
	callq	find_regno_note
	testq	%rax, %rax
	je	.LBB11_7
# BB#5:                                 # %land.lhs.true22
	movq	32(%r14), %rax
	movq	16(%rax), %rdi
	callq	side_effects_p
	testq	%r12, %rax
	jne	.LBB11_7
# BB#6:                                 # %if.then
	movq	%r14, %rdi
	callq	delete_dead_insn
.LBB11_7:                               # %if.end
	movq	$37, %rax
	movw	%ax, (%rbx)
	movabsq	$4294967197, %rax       # imm = 0xFFFFFF9D
	movl	%eax, 40(%rbx)
	movq	$0, 32(%rbx)
	addq	$8, %rsp
	popq	%rbx
	popq	%r12
	popq	%r14
	popq	%r15
	retq
.Ltmp162:
	.size	delete_dead_insn, .Ltmp162-delete_dead_insn
	.cfi_endproc

	.align	16, 0x90
	.type	reload_as_needed,@function
reload_as_needed:                       # @reload_as_needed
	.cfi_startproc
# BB#0:                                 # %entry
	pushq	%r15
.Ltmp169:
	.cfi_def_cfa_offset 16
	pushq	%r14
.Ltmp170:
	.cfi_def_cfa_offset 24
	pushq	%r13
.Ltmp171:
	.cfi_def_cfa_offset 32
	pushq	%r12
.Ltmp172:
	.cfi_def_cfa_offset 40
	pushq	%rbx
.Ltmp173:
	.cfi_def_cfa_offset 48
	subq	$1696, %rsp             # imm = 0x6A0
.Ltmp174:
	.cfi_def_cfa_offset 1744
.Ltmp175:
	.cfi_offset %rbx, -48
.Ltmp176:
	.cfi_offset %r12, -40
.Ltmp177:
	.cfi_offset %r13, -32
.Ltmp178:
	.cfi_offset %r14, -24
.Ltmp179:
	.cfi_offset %r15, -16
	movq	%rdi, 56(%rsp)          # 8-byte Spill
	movabsq	$spill_reg_rtx, %rdi
	xorq	%rsi, %rsi
	movq	$424, %rdx              # imm = 0x1A8
	callq	memset
	movabsq	$spill_reg_store, %rdi
	xorq	%rsi, %rsi
	movq	$424, %rdx              # imm = 0x1A8
	callq	memset
	movslq	max_regno(%rip), %rdi
	movq	$8, %rsi
	callq	xcalloc
	movslq	max_regno(%rip), %rdi
	movq	%rax, reg_last_reload_reg(%rip)
	callq	xmalloc
	movq	reg_eliminate(%rip), %rbx
	movq	%rax, reg_has_output_reload(%rip)
	movq	$0, reg_reloaded_valid(%rip)
	.align	16, 0x90
.LBB12_1:                               # %for.body.i
                                        # =>This Inner Loop Header: Depth=1
	movl	4(%rbx), %esi
	movl	(%rbx), %edi
	callq	ix86_initial_elimination_offset
	movl	%eax, 8(%rbx)
	movl	%eax, 20(%rbx)
	movl	%eax, 24(%rbx)
	movq	reg_eliminate(%rip), %rax
	addq	$192, %rax
	addq	$48, %rbx
	cmpq	%rax, %rbx
	jb	.LBB12_1
# BB#2:                                 # %set_initial_elim_offsets.exit
	movq	reload_insn_chain(%rip), %r14
	xorq	%rax, %rax
	movl	%eax, num_not_at_initial_offset(%rip)
	testq	%r14, %r14
	je	.LBB12_988
# BB#3:                                 # %for.body.lr.ph
	movabsq	$4294967295, %r8        # imm = 0xFFFFFFFF
	.align	16, 0x90
.LBB12_4:                               # %for.body
                                        # =>This Loop Header: Depth=1
                                        #     Child Loop BB12_17 Depth 2
                                        #     Child Loop BB12_41 Depth 2
                                        #     Child Loop BB12_52 Depth 2
                                        #       Child Loop BB12_53 Depth 3
                                        #       Child Loop BB12_60 Depth 3
                                        #       Child Loop BB12_66 Depth 3
                                        #         Child Loop BB12_113 Depth 4
                                        #         Child Loop BB12_121 Depth 4
                                        #         Child Loop BB12_126 Depth 4
                                        #         Child Loop BB12_145 Depth 4
                                        #         Child Loop BB12_190 Depth 4
                                        #         Child Loop BB12_216 Depth 4
                                        #       Child Loop BB12_221 Depth 3
                                        #         Child Loop BB12_232 Depth 4
                                        #           Child Loop BB12_233 Depth 5
                                        #             Child Loop BB12_266 Depth 6
                                        #     Child Loop BB12_283 Depth 2
                                        #       Child Loop BB12_288 Depth 3
                                        #     Child Loop BB12_299 Depth 2
                                        #       Child Loop BB12_300 Depth 3
                                        #     Child Loop BB12_323 Depth 2
                                        #     Child Loop BB12_327 Depth 2
                                        #     Child Loop BB12_338 Depth 2
                                        #       Child Loop BB12_356 Depth 3
                                        #       Child Loop BB12_372 Depth 3
                                        #     Child Loop BB12_381 Depth 2
                                        #       Child Loop BB12_390 Depth 3
                                        #       Child Loop BB12_417 Depth 3
                                        #       Child Loop BB12_427 Depth 3
                                        #     Child Loop BB12_445 Depth 2
                                        #       Child Loop BB12_494 Depth 3
                                        #       Child Loop BB12_558 Depth 3
                                        #       Child Loop BB12_563 Depth 3
                                        #       Child Loop BB12_588 Depth 3
                                        #       Child Loop BB12_649 Depth 3
                                        #       Child Loop BB12_744 Depth 3
                                        #       Child Loop BB12_780 Depth 3
                                        #     Child Loop BB12_787 Depth 2
                                        #     Child Loop BB12_992 Depth 2
                                        #     Child Loop BB12_791 Depth 2
                                        #       Child Loop BB12_818 Depth 3
                                        #       Child Loop BB12_825 Depth 3
                                        #       Child Loop BB12_866 Depth 3
                                        #       Child Loop BB12_874 Depth 3
                                        #       Child Loop BB12_890 Depth 3
                                        #       Child Loop BB12_910 Depth 3
                                        #       Child Loop BB12_923 Depth 3
                                        #       Child Loop BB12_925 Depth 3
                                        #       Child Loop BB12_927 Depth 3
                                        #       Child Loop BB12_974 Depth 3
                                        #       Child Loop BB12_932 Depth 3
                                        #       Child Loop BB12_955 Depth 3
                                        #         Child Loop BB12_956 Depth 4
                                        #     Child Loop BB12_978 Depth 2
                                        #     Child Loop BB12_26 Depth 2
                                        #     Child Loop BB12_31 Depth 2
	movq	32(%r14), %r12
	movzbl	(%r12), %eax
	cmpq	$36, %rax
	jne	.LBB12_9
# BB#5:                                 # %if.then
                                        #   in Loop: Header=BB12_4 Depth=1
	movq	%r12, %rdi
	movq	%r8, %rbx
	callq	set_offsets_for_label
	movq	%rbx, %r8
	jmp	.LBB12_6
	.align	16, 0x90
.LBB12_9:                               # %if.else
                                        #   in Loop: Header=BB12_4 Depth=1
	movzbl	rtx_class(%rax), %eax
	cmpq	$105, %rax
	jne	.LBB12_6
# BB#10:                                # %if.then11
                                        #   in Loop: Header=BB12_4 Depth=1
	movq	32(%r12), %r15
	movl	(%r15), %eax
	movq	24(%r12), %r13
	andq	$65534, %rax            # imm = 0xFFFE
	cmpq	$48, %rax
	jne	.LBB12_13
# BB#11:                                # %land.lhs.true
                                        #   in Loop: Header=BB12_4 Depth=1
	movq	8(%r15), %rax
	movl	(%rax), %esi
	movq	%rsi, %rcx
	andq	$65535, %rcx            # imm = 0xFFFF
	cmpq	$66, %rcx
	jne	.LBB12_13
# BB#12:                                # %if.then39
                                        #   in Loop: Header=BB12_4 Depth=1
	movq	8(%rax), %rdi
	movq	$16, %rcx
	shrq	%cl, %rsi
	andq	$255, %rsi
	xorq	%rdx, %rdx
	movq	%r8, %rbx
	callq	eliminate_regs
	movq	%rbx, %r8
	movq	32(%r12), %rcx
	movq	8(%rcx), %rcx
	movq	%rax, 8(%rcx)
.LBB12_13:                              # %if.end
                                        #   in Loop: Header=BB12_4 Depth=1
