	.file	"c-decl.c.bc"
	.text
	.globl	c_decode_option
	.align	16, 0x90
	.type	c_decode_option,@function
c_decode_option:                        # @c_decode_option
	.cfi_startproc
# BB#0:                                 # %entry
	pushq	%r15
.Ltmp5:
	.cfi_def_cfa_offset 16
	pushq	%r14
.Ltmp6:
	.cfi_def_cfa_offset 24
	pushq	%r12
.Ltmp7:
	.cfi_def_cfa_offset 32
	pushq	%rbx
.Ltmp8:
	.cfi_def_cfa_offset 40
	pushq	%rax
.Ltmp9:
	.cfi_def_cfa_offset 48
.Ltmp10:
	.cfi_offset %rbx, -40
.Ltmp11:
	.cfi_offset %r12, -32
.Ltmp12:
	.cfi_offset %r14, -24
.Ltmp13:
	.cfi_offset %r15, -16
	movq	%rsi, %rax
	movq	(%rax), %r15
	movq	parse_in(%rip), %rdx
	movq	%rdi, %rsi
	xorq	%rcx, %rcx
	movq	%rdx, %rdi
	movq	%rax, %rdx
	callq	cpp_handle_option
	movq	%rax, %r14
	movabsq	$.L.str, %rsi
	movq	%r15, %rdi
	callq	strcmp
	movabsq	$4294967295, %r12       # imm = 0xFFFFFFFF
	testq	%r12, %rax
	je	.LBB0_2
# BB#1:                                 # %lor.lhs.false
	movabsq	$.L.str1, %rsi
	movq	%r15, %rdi
	callq	strcmp
	testq	%r12, %rax
	je	.LBB0_2
# BB#3:                                 # %if.else
	movabsq	$.L.str3, %rsi
	movq	%r15, %rdi
	callq	strcmp
	testq	%r12, %rax
	je	.LBB0_4
# BB#5:                                 # %if.else7
	movabsq	$.L.str4, %rsi
	movq	%r15, %rdi
	callq	strcmp
	testq	%r12, %rax
	je	.LBB0_7
# BB#6:                                 # %lor.lhs.false10
	movabsq	$.L.str5, %rsi
	movq	%r15, %rdi
	callq	strcmp
	testq	%r12, %rax
	je	.LBB0_7
# BB#8:                                 # %if.else14
	movabsq	$.L.str6, %rsi
	movq	%r15, %rdi
	callq	strcmp
	testq	%r12, %rax
	je	.LBB0_10
# BB#9:                                 # %lor.lhs.false17
	movabsq	$.L.str7, %rsi
	movq	%r15, %rdi
	callq	strcmp
	testq	%r12, %rax
	je	.LBB0_10
# BB#12:                                # %if.else22
	movabsq	$.L.str8, %rsi
	movq	%r15, %rdi
	callq	strcmp
	testq	%r12, %rax
	je	.LBB0_14
# BB#13:                                # %lor.lhs.false25
	movabsq	$.L.str9, %rsi
	movq	%r15, %rdi
	callq	strcmp
	testq	%r12, %rax
	je	.LBB0_14
# BB#15:                                # %if.else29
	movabsq	$.L.str10, %rsi
	movq	$5, %rdx
	movq	%r15, %rdi
	callq	strncmp
	testq	%r12, %rax
	je	.LBB0_16
# BB#32:                                # %if.else74
	movabsq	$.L.str22, %rsi
	movq	%r15, %rdi
	callq	strcmp
	testq	%r12, %rax
	je	.LBB0_33
# BB#34:                                # %if.else78
	movabsq	$.L.str23, %rsi
	movq	%r15, %rdi
	callq	strcmp
	testq	%r12, %rax
	je	.LBB0_35
# BB#36:                                # %if.else82
	movabsq	$.L.str24, %rsi
	movq	%r15, %rdi
	callq	strcmp
	testq	%r12, %rax
	je	.LBB0_37
# BB#38:                                # %if.else86
	movabsq	$.L.str25, %rsi
	movq	%r15, %rdi
	callq	strcmp
	testq	%r12, %rax
	je	.LBB0_39
# BB#40:                                # %if.else90
	movabsq	$.L.str26, %rsi
	movq	%r15, %rdi
	callq	strcmp
	testq	%r12, %rax
	je	.LBB0_39
# BB#41:                                # %if.else94
	movabsq	$.L.str27, %rsi
	movq	%r15, %rdi
	callq	strcmp
	testq	%r12, %rax
	je	.LBB0_37
# BB#42:                                # %if.else98
	movabsq	$.L.str28, %rsi
	movq	%r15, %rdi
	callq	strcmp
	testq	%r12, %rax
	je	.LBB0_44
# BB#43:                                # %lor.lhs.false101
	movabsq	$.L.str29, %rsi
	movq	%r15, %rdi
	callq	strcmp
	testq	%r12, %rax
	je	.LBB0_44
# BB#45:                                # %if.else105
	movabsq	$.L.str30, %rsi
	movq	%r15, %rdi
	callq	strcmp
	testq	%r12, %rax
	je	.LBB0_47
# BB#46:                                # %lor.lhs.false108
	movabsq	$.L.str31, %rsi
	movq	%r15, %rdi
	callq	strcmp
	testq	%r12, %rax
	je	.LBB0_47
# BB#48:                                # %if.else112
	movabsq	$.L.str32, %rax
	movq	%r15, %rdi
	movq	%rax, %rsi
	callq	strcmp
	testq	%r12, %rax
	je	.LBB0_49
# BB#50:                                # %if.else116
	movabsq	$.L.str33, %rax
	movq	%r15, %rdi
	movq	%rax, %rsi
	callq	strcmp
	testq	%r12, %rax
	je	.LBB0_51
# BB#52:                                # %if.else120
	movabsq	$.L.str34, %rax
	movq	%r15, %rdi
	movq	%rax, %rsi
	callq	strcmp
	testq	%r12, %rax
	je	.LBB0_53
# BB#54:                                # %if.else124
	movabsq	$.L.str35, %rax
	movq	%r15, %rdi
	movq	%rax, %rsi
	callq	strcmp
	testq	%r12, %rax
	je	.LBB0_55
# BB#56:                                # %if.else128
	movabsq	$.L.str36, %rax
	movq	%r15, %rdi
	movq	%rax, %rsi
	callq	strcmp
	testq	%r12, %rax
	je	.LBB0_57
# BB#58:                                # %if.else132
	movabsq	$.L.str37, %rax
	movq	%r15, %rdi
	movq	%rax, %rsi
	callq	strcmp
	testq	%r12, %rax
	je	.LBB0_59
# BB#60:                                # %if.else136
	movabsq	$.L.str38, %rax
	movq	%r15, %rdi
	movq	%rax, %rsi
	callq	strcmp
	testq	%r12, %rax
	je	.LBB0_61
# BB#62:                                # %if.else140
	movabsq	$.L.str39, %rax
	movq	%r15, %rdi
	movq	%rax, %rsi
	callq	strcmp
	testq	%r12, %rax
	je	.LBB0_63
# BB#64:                                # %if.else144
	movabsq	$.L.str40, %rax
	movq	%r15, %rdi
	movq	%rax, %rsi
	callq	strcmp
	testq	%r12, %rax
	je	.LBB0_65
# BB#66:                                # %if.else148
	movabsq	$.L.str41, %rax
	movq	%r15, %rdi
	movq	%rax, %rsi
	callq	strcmp
	testq	%r12, %rax
	je	.LBB0_67
# BB#68:                                # %if.else152
	movabsq	$.L.str42, %rax
	movq	%r15, %rdi
	movq	%rax, %rsi
	callq	strcmp
	testq	%r12, %rax
	je	.LBB0_69
# BB#70:                                # %if.else156
	movabsq	$.L.str43, %rax
	movq	%r15, %rdi
	movq	%rax, %rsi
	callq	strcmp
	testq	%r12, %rax
	je	.LBB0_71
# BB#72:                                # %if.else160
	movabsq	$.L.str44, %rax
	movq	$13, %rdx
	movq	%r15, %rdi
	movq	%rax, %rsi
	callq	strncmp
	testq	%r12, %rax
	je	.LBB0_73
# BB#74:                                # %if.else164
	movzbl	(%r15), %eax
	cmpq	$45, %rax
	jne	.LBB0_77
# BB#75:                                # %land.lhs.true
	movzbl	1(%r15), %eax
	cmpq	$102, %rax
	jne	.LBB0_77
# BB#76:                                # %land.lhs.true172
	leaq	2(%r15), %rax
	movq	%rax, %rdi
	callq	dump_switch_p
	testq	%r12, %rax
	movq	$1, %rbx
	jne	.LBB0_228
.LBB0_77:                               # %if.else177
	movabsq	$.L.str45, %rax
	movq	%r15, %rdi
	movq	%rax, %rsi
	callq	strcmp
	xorq	%rbx, %rbx
	testq	%r12, %rax
	je	.LBB0_18
# BB#78:                                # %if.else181
	movabsq	$.L.str46, %rax
	movq	%r15, %rdi
	movq	%rax, %rsi
	callq	strcmp
	testq	%r12, %rax
	je	.LBB0_79
# BB#81:                                # %if.else185
	movabsq	$.L.str47, %rax
	movq	%r15, %rdi
	movq	%rax, %rsi
	callq	strcmp
	testq	%r12, %rax
	je	.LBB0_82
# BB#83:                                # %if.else189
	movabsq	$.L.str48, %rax
	movq	%r15, %rdi
	movq	%rax, %rsi
	callq	strcmp
	testq	%r12, %rax
	je	.LBB0_84
# BB#85:                                # %if.else193
	movabsq	$.L.str49, %rax
	movq	%r15, %rdi
	movq	%rax, %rsi
	callq	strcmp
	testq	%r12, %rax
	je	.LBB0_86
# BB#87:                                # %if.else197
	movabsq	$.L.str50, %rax
	movq	%r15, %rdi
	movq	%rax, %rsi
	callq	strcmp
	testq	%r12, %rax
	je	.LBB0_88
# BB#89:                                # %if.else201
	movabsq	$.L.str51, %rax
	movq	%r15, %rdi
	movq	%rax, %rsi
	callq	strcmp
	testq	%r12, %rax
	je	.LBB0_90
# BB#91:                                # %if.else209
	movabsq	$.L.str52, %rax
	movq	%r15, %rdi
	movq	%rax, %rsi
	callq	strcmp
	testq	%r12, %rax
	je	.LBB0_92
# BB#93:                                # %if.else213
	movabsq	$.L.str53, %rax
	movq	%r15, %rdi
	movq	%rax, %rsi
	callq	strcmp
	testq	%r12, %rax
	je	.LBB0_94
# BB#95:                                # %if.else217
	movabsq	$.L.str54, %rax
	movq	%r15, %rdi
	movq	%rax, %rsi
	callq	strcmp
	testq	%r12, %rax
	je	.LBB0_96
# BB#97:                                # %if.else221
	movabsq	$.L.str55, %rax
	movq	%r15, %rdi
	movq	%rax, %rsi
	callq	strcmp
	testq	%r12, %rax
	je	.LBB0_98
# BB#99:                                # %if.else225
	movabsq	$.L.str56, %rax
	movq	%r15, %rdi
	movq	%rax, %rsi
	callq	strcmp
	testq	%r12, %rax
	je	.LBB0_100
# BB#101:                               # %if.else229
	movabsq	$.L.str57, %rax
	movq	%r15, %rdi
	movq	%rax, %rsi
	callq	strcmp
	testq	%r12, %rax
	je	.LBB0_102
# BB#103:                               # %if.else233
	movabsq	$.L.str58, %rax
	movq	%r15, %rdi
	movq	%rax, %rsi
	callq	strcmp
	testq	%r12, %rax
	je	.LBB0_104
# BB#105:                               # %if.else237
	movabsq	$.L.str59, %rax
	movq	%r15, %rdi
	movq	%rax, %rsi
	callq	strcmp
	testq	%r12, %rax
	je	.LBB0_106
# BB#107:                               # %if.else241
	movabsq	$.L.str60, %rax
	movq	%r15, %rdi
	movq	%rax, %rsi
	callq	strcmp
	testq	%r12, %rax
	je	.LBB0_108
# BB#109:                               # %if.else245
	movabsq	$.L.str61, %rax
	movq	%r15, %rdi
	movq	%rax, %rsi
	callq	strcmp
	testq	%r12, %rax
	je	.LBB0_110
# BB#111:                               # %if.else249
	movabsq	$.L.str62, %rax
	movq	%r15, %rdi
	movq	%rax, %rsi
	callq	strcmp
	testq	%r12, %rax
	je	.LBB0_112
# BB#113:                               # %if.else253
	movabsq	$.L.str63, %rax
	movq	%r15, %rdi
	movq	%rax, %rsi
	callq	strcmp
	testq	%r12, %rax
	je	.LBB0_114
# BB#115:                               # %if.else257
	movabsq	$.L.str64, %rax
	movq	%r15, %rdi
	movq	%rax, %rsi
	callq	strcmp
	testq	%r12, %rax
	je	.LBB0_116
# BB#117:                               # %if.else261
	movabsq	$.L.str65, %rax
	movq	%r15, %rdi
	movq	%rax, %rsi
	callq	strcmp
	testq	%r12, %rax
	je	.LBB0_118
# BB#119:                               # %if.else265
	movabsq	$.L.str66, %rax
	movq	%r15, %rdi
	movq	%rax, %rsi
	callq	strcmp
	testq	%r12, %rax
	je	.LBB0_120
# BB#121:                               # %if.else269
	movabsq	$.L.str67, %rax
	movq	%r15, %rdi
	movq	%rax, %rsi
	callq	strcmp
	testq	%r12, %rax
	je	.LBB0_122
# BB#123:                               # %if.else273
	movabsq	$.L.str68, %rax
	movq	%r15, %rdi
	movq	%rax, %rsi
	callq	strcmp
	testq	%r12, %rax
	je	.LBB0_124
# BB#125:                               # %if.else277
	movabsq	$.L.str69, %rax
	movq	%r15, %rdi
	movq	%rax, %rsi
	callq	strcmp
	testq	%r12, %rax
	je	.LBB0_126
# BB#127:                               # %if.else281
	movabsq	$.L.str70, %rax
	movq	%r15, %rdi
	movq	%rax, %rsi
	callq	strcmp
	testq	%r12, %rax
	je	.LBB0_128
# BB#129:                               # %if.else285
	movabsq	$.L.str71, %rax
	movq	%r15, %rdi
	movq	%rax, %rsi
	callq	strcmp
	testq	%r12, %rax
	je	.LBB0_130
# BB#131:                               # %if.else289
	movabsq	$.L.str72, %rax
	movq	%r15, %rdi
	movq	%rax, %rsi
	callq	strcmp
	testq	%r12, %rax
	je	.LBB0_132
# BB#133:                               # %if.else293
	movabsq	$.L.str73, %rax
	movq	%r15, %rdi
	movq	%rax, %rsi
	callq	strcmp
	testq	%r12, %rax
	je	.LBB0_134
# BB#135:                               # %if.else297
	movabsq	$.L.str74, %rax
	movq	%r15, %rdi
	movq	%rax, %rsi
	callq	strcmp
	testq	%r12, %rax
	je	.LBB0_136
# BB#137:                               # %if.else301
	movabsq	$.L.str75, %rax
	movq	%r15, %rdi
	movq	%rax, %rsi
	callq	strcmp
	testq	%r12, %rax
	je	.LBB0_138
# BB#139:                               # %if.else305
	movabsq	$.L.str76, %rax
	movq	%r15, %rdi
	movq	%rax, %rsi
	callq	strcmp
	testq	%r12, %rax
	je	.LBB0_140
# BB#141:                               # %if.else309
	movabsq	$.L.str77, %rax
	movq	%r15, %rdi
	movq	%rax, %rsi
	callq	strcmp
	testq	%r12, %rax
	je	.LBB0_142
# BB#143:                               # %if.else313
	movabsq	$.L.str78, %rax
	movq	$9, %rdx
	movq	%r15, %rdi
	movq	%rax, %rsi
	callq	strncmp
	testq	%r12, %rax
	je	.LBB0_144
# BB#145:                               # %if.else319
	movabsq	$.L.str79, %rax
	movq	%r15, %rdi
	movq	%rax, %rsi
	callq	strcmp
	testq	%r12, %rax
	je	.LBB0_146
# BB#147:                               # %if.else323
	movabsq	$.L.str80, %rax
	movq	%r15, %rdi
	movq	%rax, %rsi
	callq	strcmp
	testq	%r12, %rax
	je	.LBB0_148
# BB#150:                               # %if.else327
	movabsq	$.L.str81, %rax
	movq	%r15, %rdi
	movq	%rax, %rsi
	callq	strcmp
	testq	%r12, %rax
	je	.LBB0_151
# BB#152:                               # %if.else331
	movabsq	$.L.str82, %rax
	movq	%r15, %rdi
	movq	%rax, %rsi
	callq	strcmp
	testq	%r12, %rax
	je	.LBB0_153
# BB#154:                               # %if.else335
	movabsq	$.L.str83, %rax
	movq	%r15, %rdi
	movq	%rax, %rsi
	callq	strcmp
	testq	%r12, %rax
	je	.LBB0_155
# BB#156:                               # %if.else339
	movabsq	$.L.str84, %rax
	movq	%r15, %rdi
	movq	%rax, %rsi
	callq	strcmp
	testq	%r12, %rax
	je	.LBB0_157
# BB#158:                               # %if.else343
	movabsq	$.L.str85, %rax
	movq	%r15, %rdi
	movq	%rax, %rsi
	callq	strcmp
	testq	%r12, %rax
	je	.LBB0_159
# BB#160:                               # %if.else347
	movabsq	$.L.str86, %rax
	movq	%r15, %rdi
	movq	%rax, %rsi
	callq	strcmp
	testq	%r12, %rax
	je	.LBB0_161
# BB#162:                               # %if.else351
	movabsq	$.L.str87, %rax
	movq	%r15, %rdi
	movq	%rax, %rsi
	callq	strcmp
	testq	%r12, %rax
	je	.LBB0_163
# BB#164:                               # %if.else355
	movabsq	$.L.str88, %rax
	movq	%r15, %rdi
	movq	%rax, %rsi
	callq	strcmp
	testq	%r12, %rax
	je	.LBB0_165
# BB#166:                               # %if.else359
	movabsq	$.L.str89, %rax
	movq	%r15, %rdi
	movq	%rax, %rsi
	callq	strcmp
	testq	%r12, %rax
	je	.LBB0_167
# BB#168:                               # %if.else363
	movabsq	$.L.str90, %rax
	movq	%r15, %rdi
	movq	%rax, %rsi
	callq	strcmp
	testq	%r12, %rax
	je	.LBB0_169
# BB#170:                               # %if.else367
	movabsq	$.L.str91, %rax
	movq	%r15, %rdi
	movq	%rax, %rsi
	callq	strcmp
	testq	%r12, %rax
	je	.LBB0_171
# BB#172:                               # %if.else371
	movabsq	$.L.str92, %rax
	movq	%r15, %rdi
	movq	%rax, %rsi
	callq	strcmp
	testq	%r12, %rax
	je	.LBB0_173
# BB#174:                               # %if.else375
	movabsq	$.L.str93, %rax
	movq	%r15, %rdi
	movq	%rax, %rsi
	callq	strcmp
	testq	%r12, %rax
	je	.LBB0_175
# BB#176:                               # %if.else379
	movabsq	$.L.str94, %rax
	movq	%r15, %rdi
	movq	%rax, %rsi
	callq	strcmp
	testq	%r12, %rax
	je	.LBB0_177
# BB#178:                               # %if.else383
	movabsq	$.L.str95, %rax
	movq	%r15, %rdi
	movq	%rax, %rsi
	callq	strcmp
	testq	%r12, %rax
	je	.LBB0_179
# BB#180:                               # %if.else387
	movabsq	$.L.str96, %rax
	movq	%r15, %rdi
	movq	%rax, %rsi
	callq	strcmp
	testq	%r12, %rax
	je	.LBB0_181
# BB#182:                               # %if.else391
	movabsq	$.L.str97, %rax
	movq	%r15, %rdi
	movq	%rax, %rsi
	callq	strcmp
	testq	%r12, %rax
	je	.LBB0_183
# BB#184:                               # %if.else395
	movabsq	$.L.str98, %rax
	movq	%r15, %rdi
	movq	%rax, %rsi
	callq	strcmp
	testq	%r12, %rax
	je	.LBB0_185
# BB#186:                               # %if.else399
	movabsq	$.L.str99, %rax
	movq	%r15, %rdi
	movq	%rax, %rsi
	callq	strcmp
	testq	%r12, %rax
	movq	$1, %rbx
	je	.LBB0_228
# BB#187:                               # %if.else403
	movabsq	$.L.str100, %rax
	movq	%r15, %rdi
	movq	%rax, %rsi
	callq	strcmp
	testq	%r12, %rax
	je	.LBB0_228
# BB#188:                               # %if.else407
	movabsq	$.L.str101, %rax
	movq	%r15, %rdi
	movq	%rax, %rsi
	callq	strcmp
	testq	%r12, %rax
	je	.LBB0_228
# BB#189:                               # %if.else411
	movabsq	$.L.str102, %rax
	movq	%r15, %rdi
	movq	%rax, %rsi
	callq	strcmp
	testq	%r12, %rax
	je	.LBB0_228
# BB#190:                               # %if.else415
	movabsq	$.L.str103, %rax
	movq	%r15, %rdi
	movq	%rax, %rsi
	callq	strcmp
	testq	%r12, %rax
	je	.LBB0_228
# BB#191:                               # %if.else419
	movabsq	$.L.str104, %rax
	movq	%r15, %rdi
	movq	%rax, %rsi
	callq	strcmp
	testq	%r12, %rax
	je	.LBB0_228
# BB#192:                               # %if.else423
	movabsq	$.L.str105, %rax
	movq	%r15, %rdi
	movq	%rax, %rsi
	callq	strcmp
	testq	%r12, %rax
	je	.LBB0_228
# BB#193:                               # %if.else427
	movabsq	$.L.str106, %rax
	movq	%r15, %rdi
	movq	%rax, %rsi
	callq	strcmp
	testq	%r12, %rax
	je	.LBB0_228
# BB#194:                               # %if.else431
	movabsq	$.L.str107, %rax
	movq	%r15, %rdi
	movq	%rax, %rsi
	callq	strcmp
	testq	%r12, %rax
	je	.LBB0_228
# BB#195:                               # %if.else435
	movabsq	$.L.str108, %rax
	movq	%r15, %rdi
	movq	%rax, %rsi
	callq	strcmp
	testq	%r12, %rax
	je	.LBB0_228
# BB#196:                               # %if.else439
	movabsq	$.L.str109, %rax
	movq	%r15, %rdi
	movq	%rax, %rsi
	callq	strcmp
	testq	%r12, %rax
	je	.LBB0_197
# BB#198:                               # %if.else443
	movabsq	$.L.str110, %rax
	movq	%r15, %rdi
	movq	%rax, %rsi
	callq	strcmp
	testq	%r12, %rax
	je	.LBB0_199
# BB#200:                               # %if.else447
	movabsq	$.L.str111, %rax
	movq	%r15, %rdi
	movq	%rax, %rsi
	callq	strcmp
	testq	%r12, %rax
	je	.LBB0_201
# BB#202:                               # %if.else451
	movabsq	$.L.str112, %rax
	movq	%r15, %rdi
	movq	%rax, %rsi
	callq	strcmp
	testq	%r12, %rax
	je	.LBB0_203
# BB#204:                               # %if.else455
	movabsq	$.L.str113, %rax
	movq	%r15, %rdi
	movq	%rax, %rsi
	callq	strcmp
	testq	%r12, %rax
	je	.LBB0_205
# BB#206:                               # %if.else459
	movabsq	$.L.str114, %rax
	movq	%r15, %rdi
	movq	%rax, %rsi
	callq	strcmp
	testq	%r12, %rax
	je	.LBB0_207
# BB#208:                               # %if.else463
	movabsq	$.L.str115, %rax
	movq	%r15, %rdi
	movq	%rax, %rsi
	callq	strcmp
	testq	%r12, %rax
	je	.LBB0_209
# BB#210:                               # %if.else467
	movabsq	$.L.str116, %rax
	movq	%r15, %rdi
	movq	%rax, %rsi
	callq	strcmp
	testq	%r12, %rax
	je	.LBB0_211
# BB#212:                               # %if.else471
	movabsq	$.L.str117, %rax
	movq	%r15, %rdi
	movq	%rax, %rsi
	callq	strcmp
	testq	%r12, %rax
	je	.LBB0_213
# BB#214:                               # %if.else475
	movabsq	$.L.str118, %rax
	movq	%r15, %rdi
	movq	%rax, %rsi
	callq	strcmp
	testq	%r12, %rax
	je	.LBB0_215
# BB#216:                               # %if.else479
	movabsq	$.L.str119, %rax
	movq	%r15, %rdi
	movq	%rax, %rsi
	callq	strcmp
	testq	%r12, %rax
	je	.LBB0_217
# BB#218:                               # %if.else483
	movabsq	$.L.str120, %rax
	movq	%r15, %rdi
	movq	%rax, %rsi
	callq	strcmp
	testq	%r12, %rax
	je	.LBB0_219
# BB#220:                               # %if.else487
	movabsq	$.L.str121, %rax
	movq	%r15, %rdi
	movq	%rax, %rsi
	callq	strcmp
	testq	%r12, %rax
	je	.LBB0_221
# BB#222:                               # %if.else491
	movabsq	$.L.str122, %rax
	movq	%r15, %rdi
	movq	%rax, %rsi
	callq	strcmp
	testq	%r12, %rax
	je	.LBB0_223
# BB#224:                               # %if.else495
	movabsq	$.L.str123, %rax
	movq	%r15, %rdi
	movq	%rax, %rsi
	callq	strcmp
	testq	%r12, %rax
	movq	%r14, %rbx
	jne	.LBB0_228
# BB#225:                               # %if.then498
	movl	warn_uninitialized(%rip), %eax
	cmpq	$1, %rax
	je	.LBB0_227
# BB#226:                               # %if.then501
	movq	$2, %rax
	movl	%eax, warn_uninitialized(%rip)
.LBB0_227:                              # %if.end502
	movq	$1, %rbx
	movl	%ebx, warn_implicit_int(%rip)
	movl	%ebx, mesg_implicit_function_declaration(%rip)
	movl	%ebx, warn_return_type(%rip)
	movq	$1, %rdi
	callq	set_Wunused
	movl	%ebx, warn_switch(%rip)
	movq	$1, %rdi
	callq	set_Wformat
	movl	%ebx, warn_char_subscripts(%rip)
	movl	%ebx, warn_parentheses(%rip)
	movl	%ebx, warn_sequence_point(%rip)
	movl	%ebx, warn_missing_braces(%rip)
	movq	$2, %rax
	movl	%eax, warn_main(%rip)
	movl	%ebx, warn_unknown_pragmas(%rip)
	jmp	.LBB0_228
.LBB0_2:                                # %if.then
	movabsq	$.L.str2, %rdi
	xorq	%rax, %rax
	callq	warning
	movq	$1, %rbx
	movl	%ebx, flag_traditional(%rip)
	movl	%ebx, flag_writable_strings(%rip)
	jmp	.LBB0_228
.LBB0_7:                                # %if.then13
	movq	$1, %rbx
	movl	%ebx, flag_hosted(%rip)
	xorq	%rax, %rax
	movl	%eax, flag_no_builtin(%rip)
	jmp	.LBB0_228
.LBB0_4:                                # %if.then6
	movq	$1, %rbx
	movl	%ebx, flag_allow_single_precision(%rip)
.LBB0_228:                              # %return
	movq	%rbx, %rax
	addq	$8, %rsp
	popq	%rbx
	popq	%r12
	popq	%r14
	popq	%r15
	retq
.LBB0_10:                               # %if.then20
	xorq	%rax, %rax
	movl	warn_main(%rip), %ecx
	movl	%eax, flag_hosted(%rip)
	movq	$1, %rbx
	movl	%ebx, flag_no_builtin(%rip)
	cmpq	$2, %rcx
	jne	.LBB0_228
# BB#11:                                # %if.then21
	movl	%eax, warn_main(%rip)
	jmp	.LBB0_228
.LBB0_14:                               # %if.then28
	xorq	%rax, %rax
	movl	%eax, flag_traditional(%rip)
	movl	%eax, flag_writable_strings(%rip)
	movq	$1, %rbx
	jmp	.LBB0_228
.LBB0_16:                               # %if.then32
	addq	$5, %r15
	movabsq	$.L.str11, %rsi
	movq	%r15, %rdi
	callq	strcmp
	xorq	%rbx, %rbx
	testq	%r12, %rax
	je	.LBB0_18
# BB#17:                                # %lor.lhs.false36
	movabsq	$.L.str12, %rsi
	movq	%r15, %rdi
	callq	strcmp
	testq	%r12, %rax
	je	.LBB0_18
# BB#19:                                # %if.else40
	movabsq	$.L.str13, %rsi
	movq	%r15, %rdi
	callq	strcmp
	testq	%r12, %rax
	movq	$1, %rbx
	je	.LBB0_18
# BB#20:                                # %if.else44
	movabsq	$.L.str14, %rsi
	movq	%r15, %rdi
	callq	strcmp
	testq	%r12, %rax
	je	.LBB0_24
# BB#21:                                # %lor.lhs.false47
	movabsq	$.L.str15, %rsi
	movq	%r15, %rdi
	callq	strcmp
	testq	%r12, %rax
	je	.LBB0_24
# BB#22:                                # %lor.lhs.false50
	movabsq	$.L.str16, %rsi
	movq	%r15, %rdi
	callq	strcmp
	testq	%r12, %rax
	je	.LBB0_24
# BB#23:                                # %lor.lhs.false53
	movabsq	$.L.str17, %rsi
	movq	%r15, %rdi
	callq	strcmp
	testq	%r12, %rax
	je	.LBB0_24
# BB#26:                                # %if.else57
	movabsq	$.L.str18, %rsi
	movq	%r15, %rdi
	callq	strcmp
	testq	%r12, %rax
	je	.LBB0_27
# BB#28:                                # %if.else61
	movabsq	$.L.str19, %rsi
	movq	%r15, %rdi
	callq	strcmp
	testq	%r12, %rax
	je	.LBB0_30
# BB#29:                                # %lor.lhs.false64
	movabsq	$.L.str20, %rax
	movq	%r15, %rdi
	movq	%rax, %rsi
	callq	strcmp
	testq	%r12, %rax
	je	.LBB0_30
# BB#31:                                # %if.else68
	movabsq	$.L.str21, %rcx
	xorq	%rax, %rax
	movq	%rcx, %rdi
	movq	%r15, %rsi
	callq	error
	movq	$1, %rbx
	jmp	.LBB0_228
.LBB0_18:                               # %iso_1994
	movl	%ebx, flag_isoc94(%rip)
	xorq	%rax, %rax
	movl	%eax, flag_traditional(%rip)
	movl	%eax, flag_writable_strings(%rip)
	movq	$1, %rbx
	movl	%ebx, flag_no_asm(%rip)
	movl	%ebx, flag_no_nonansi_builtin(%rip)
	movl	%eax, flag_noniso_default_format_attributes(%rip)
	movl	%eax, flag_isoc99(%rip)
	jmp	.LBB0_228
.LBB0_33:                               # %if.then77
	movq	$1, %rbx
	movl	%ebx, dollars_in_ident(%rip)
	jmp	.LBB0_228
.LBB0_35:                               # %if.then81
	xorq	%rax, %rax
	movl	%eax, dollars_in_ident(%rip)
	movq	$1, %rbx
	jmp	.LBB0_228
.LBB0_37:                               # %if.then85
	movq	$1, %rbx
	movl	%ebx, flag_signed_char(%rip)
	jmp	.LBB0_228
.LBB0_39:                               # %if.then89
	xorq	%rax, %rax
	movl	%eax, flag_signed_char(%rip)
	movq	$1, %rbx
	jmp	.LBB0_228
.LBB0_24:                               # %if.then56
	xorq	%rax, %rax
	movl	%eax, flag_traditional(%rip)
	movl	%eax, flag_writable_strings(%rip)
	movq	$1, %rbx
	movl	%ebx, flag_no_asm(%rip)
	movl	%ebx, flag_no_nonansi_builtin(%rip)
	movl	%eax, flag_noniso_default_format_attributes(%rip)
.LBB0_25:                               # %return
	movl	%ebx, flag_isoc99(%rip)
	movl	%ebx, flag_isoc94(%rip)
	jmp	.LBB0_228
.LBB0_44:                               # %if.then104
	movq	$1, %rbx
	movl	%ebx, flag_signed_bitfields(%rip)
	movl	%ebx, explicit_flag_signed_bitfields(%rip)
	jmp	.LBB0_228
.LBB0_47:                               # %if.then111
	xorq	%rax, %rax
	movl	%eax, flag_signed_bitfields(%rip)
	movq	$1, %rbx
	movl	%ebx, explicit_flag_signed_bitfields(%rip)
	jmp	.LBB0_228
.LBB0_27:                               # %if.then60
	xorq	%rax, %rax
	movl	%eax, flag_traditional(%rip)
	movl	%eax, flag_writable_strings(%rip)
	movl	%eax, flag_no_asm(%rip)
	movl	%eax, flag_no_nonansi_builtin(%rip)
	movq	$1, %rbx
	movl	%ebx, flag_noniso_default_format_attributes(%rip)
	movl	%eax, flag_isoc99(%rip)
	movl	%eax, flag_isoc94(%rip)
	jmp	.LBB0_228
.LBB0_49:                               # %if.then115
	movq	$1, %rbx
	movl	%ebx, flag_short_enums(%rip)
	jmp	.LBB0_228
.LBB0_51:                               # %if.then119
	xorq	%rax, %rax
	movl	%eax, flag_short_enums(%rip)
	movq	$1, %rbx
	jmp	.LBB0_228
.LBB0_53:                               # %if.then123
	movq	$1, %rbx
	movl	%ebx, flag_short_wchar(%rip)
	jmp	.LBB0_228
.LBB0_55:                               # %if.then127
	xorq	%rax, %rax
	movl	%eax, flag_short_wchar(%rip)
	movq	$1, %rbx
	jmp	.LBB0_228
.LBB0_57:                               # %if.then131
	movq	$1, %rbx
	movl	%ebx, flag_cond_mismatch(%rip)
	jmp	.LBB0_228
.LBB0_59:                               # %if.then135
	xorq	%rax, %rax
	movl	%eax, flag_cond_mismatch(%rip)
	movq	$1, %rbx
	jmp	.LBB0_228
.LBB0_61:                               # %if.then139
	movq	$1, %rbx
	movl	%ebx, flag_short_double(%rip)
	jmp	.LBB0_228
.LBB0_63:                               # %if.then143
	xorq	%rax, %rax
	movl	%eax, flag_short_double(%rip)
	movq	$1, %rbx
	jmp	.LBB0_228
.LBB0_65:                               # %if.then147
	xorq	%rax, %rax
	movl	%eax, flag_no_asm(%rip)
	movq	$1, %rbx
	jmp	.LBB0_228
.LBB0_67:                               # %if.then151
	movq	$1, %rbx
	movl	%ebx, flag_no_asm(%rip)
	jmp	.LBB0_228
.LBB0_69:                               # %if.then155
	xorq	%rax, %rax
	movl	%eax, flag_no_builtin(%rip)
	movq	$1, %rbx
	jmp	.LBB0_228
.LBB0_71:                               # %if.then159
	movq	$1, %rbx
	movl	%ebx, flag_no_builtin(%rip)
	jmp	.LBB0_228
.LBB0_73:                               # %if.then163
	addq	$13, %r15
	movq	%r15, %rdi
	callq	disable_builtin_function
	movq	$1, %rbx
	jmp	.LBB0_228
.LBB0_79:                               # %if.then184
	movq	$2, %rax
	jmp	.LBB0_80
.LBB0_84:                               # %if.then192
	xorq	%rax, %rax
	jmp	.LBB0_80
.LBB0_86:                               # %if.then196
	movq	$1, %rbx
	movl	%ebx, warn_implicit_int(%rip)
	jmp	.LBB0_228
.LBB0_88:                               # %if.then200
	xorq	%rax, %rax
	movl	%eax, warn_implicit_int(%rip)
	movq	$1, %rbx
	jmp	.LBB0_228
.LBB0_90:                               # %if.then204
	movl	mesg_implicit_function_declaration(%rip), %eax
	movq	$1, %rbx
	movl	%ebx, warn_implicit_int(%rip)
	cmpq	$2, %rax
	je	.LBB0_228
.LBB0_82:                               # %if.then188
	movq	$1, %rbx
	movl	%ebx, mesg_implicit_function_declaration(%rip)
	jmp	.LBB0_228
.LBB0_92:                               # %if.then212
	xorq	%rax, %rax
	movl	%eax, warn_implicit_int(%rip)
.LBB0_80:                               # %return
	movl	%eax, mesg_implicit_function_declaration(%rip)
	movq	$1, %rbx
	jmp	.LBB0_228
.LBB0_94:                               # %if.then216
	movq	$1, %rbx
	movl	%ebx, warn_long_long(%rip)
	jmp	.LBB0_228
.LBB0_96:                               # %if.then220
	xorq	%rax, %rax
	movl	%eax, warn_long_long(%rip)
	movq	$1, %rbx
	jmp	.LBB0_228
.LBB0_98:                               # %if.then224
	movq	$1, %rbx
	movl	%ebx, flag_const_strings(%rip)
	jmp	.LBB0_228
.LBB0_100:                              # %if.then228
	xorq	%rax, %rax
	movl	%eax, flag_const_strings(%rip)
	movq	$1, %rbx
	jmp	.LBB0_228
.LBB0_102:                              # %if.then232
	movq	$1, %rbx
	movl	%ebx, warn_cast_qual(%rip)
	jmp	.LBB0_228
.LBB0_104:                              # %if.then236
	xorq	%rax, %rax
	movl	%eax, warn_cast_qual(%rip)
	movq	$1, %rbx
	jmp	.LBB0_228
.LBB0_106:                              # %if.then240
	movq	$1, %rbx
	movl	%ebx, warn_bad_function_cast(%rip)
	jmp	.LBB0_228
.LBB0_108:                              # %if.then244
	xorq	%rax, %rax
	movl	%eax, warn_bad_function_cast(%rip)
	movq	$1, %rbx
	jmp	.LBB0_228
.LBB0_110:                              # %if.then248
	xorq	%rax, %rax
	movl	%eax, warn_missing_noreturn(%rip)
	movq	$1, %rbx
	jmp	.LBB0_228
.LBB0_112:                              # %if.then252
	movq	$1, %rbx
	movl	%ebx, warn_missing_format_attribute(%rip)
	jmp	.LBB0_228
.LBB0_114:                              # %if.then256
	xorq	%rax, %rax
	movl	%eax, warn_missing_format_attribute(%rip)
	movq	$1, %rbx
	jmp	.LBB0_228
.LBB0_116:                              # %if.then260
	movq	$1, %rbx
	movl	%ebx, warn_pointer_arith(%rip)
	jmp	.LBB0_228
.LBB0_118:                              # %if.then264
	xorq	%rax, %rax
	movl	%eax, warn_pointer_arith(%rip)
	movq	$1, %rbx
	jmp	.LBB0_228
.LBB0_120:                              # %if.then268
	movq	$1, %rbx
	movl	%ebx, warn_strict_prototypes(%rip)
	jmp	.LBB0_228
.LBB0_122:                              # %if.then272
	xorq	%rax, %rax
	movl	%eax, warn_strict_prototypes(%rip)
	movq	$1, %rbx
	jmp	.LBB0_228
.LBB0_124:                              # %if.then276
	movq	$1, %rbx
	movl	%ebx, warn_missing_prototypes(%rip)
	jmp	.LBB0_228
.LBB0_126:                              # %if.then280
	xorq	%rax, %rax
	movl	%eax, warn_missing_prototypes(%rip)
	movq	$1, %rbx
	jmp	.LBB0_228
.LBB0_128:                              # %if.then284
	movq	$1, %rbx
	movl	%ebx, warn_missing_declarations(%rip)
	jmp	.LBB0_228
.LBB0_130:                              # %if.then288
	xorq	%rax, %rax
	movl	%eax, warn_missing_declarations(%rip)
	movq	$1, %rbx
	jmp	.LBB0_228
.LBB0_132:                              # %if.then292
	movq	$1, %rbx
	movl	%ebx, warn_redundant_decls(%rip)
	jmp	.LBB0_228
.LBB0_134:                              # %if.then296
	xorq	%rax, %rax
	movl	%eax, warn_redundant_decls(%rip)
	movq	$1, %rbx
	jmp	.LBB0_228
.LBB0_136:                              # %if.then300
	movq	$1, %rbx
	movl	%ebx, warn_nested_externs(%rip)
	jmp	.LBB0_228
.LBB0_138:                              # %if.then304
	xorq	%rax, %rax
	movl	%eax, warn_nested_externs(%rip)
	movq	$1, %rbx
	jmp	.LBB0_228
.LBB0_140:                              # %if.then308
	movq	$1, %rbx
	movl	%ebx, warn_traditional(%rip)
	jmp	.LBB0_228
.LBB0_142:                              # %if.then312
	xorq	%rax, %rax
	movl	%eax, warn_traditional(%rip)
	movq	$1, %rbx
	jmp	.LBB0_228
.LBB0_144:                              # %if.then316
	addq	$9, %r15
	movq	%r15, %rdi
	callq	atoi
	movq	%rax, %rdi
	jmp	.LBB0_149
.LBB0_146:                              # %if.then322
	movq	$1, %rdi
	movq	$1, %rbx
	callq	set_Wformat
	jmp	.LBB0_228
.LBB0_148:                              # %if.then326
	xorq	%rdi, %rdi
.LBB0_149:                              # %return
	callq	set_Wformat
	movq	$1, %rbx
	jmp	.LBB0_228
.LBB0_151:                              # %if.then330
	movq	$1, %rbx
	movl	%ebx, warn_format_y2k(%rip)
	jmp	.LBB0_228
.LBB0_153:                              # %if.then334
	xorq	%rax, %rax
	movl	%eax, warn_format_y2k(%rip)
	movq	$1, %rbx
	jmp	.LBB0_228
.LBB0_155:                              # %if.then338
	movq	$1, %rbx
	movl	%ebx, warn_format_extra_args(%rip)
	jmp	.LBB0_228
.LBB0_157:                              # %if.then342
	xorq	%rax, %rax
	movl	%eax, warn_format_extra_args(%rip)
	movq	$1, %rbx
	jmp	.LBB0_228
.LBB0_159:                              # %if.then346
	movq	$1, %rbx
	movl	%ebx, warn_format_nonliteral(%rip)
	jmp	.LBB0_228
.LBB0_161:                              # %if.then350
	xorq	%rax, %rax
	movl	%eax, warn_format_nonliteral(%rip)
	movq	$1, %rbx
	jmp	.LBB0_228
.LBB0_163:                              # %if.then354
	movq	$1, %rbx
	movl	%ebx, warn_format_security(%rip)
	jmp	.LBB0_228
.LBB0_165:                              # %if.then358
	xorq	%rax, %rax
	movl	%eax, warn_format_security(%rip)
	movq	$1, %rbx
	jmp	.LBB0_228
.LBB0_167:                              # %if.then362
	movq	$1, %rbx
	movl	%ebx, warn_char_subscripts(%rip)
	jmp	.LBB0_228
.LBB0_169:                              # %if.then366
	xorq	%rax, %rax
	movl	%eax, warn_char_subscripts(%rip)
	movq	$1, %rbx
	jmp	.LBB0_228
.LBB0_171:                              # %if.then370
	movq	$1, %rbx
	movl	%ebx, warn_conversion(%rip)
	jmp	.LBB0_228
.LBB0_173:                              # %if.then374
	xorq	%rax, %rax
	movl	%eax, warn_conversion(%rip)
	movq	$1, %rbx
	jmp	.LBB0_228
.LBB0_175:                              # %if.then378
	movq	$1, %rbx
	movl	%ebx, warn_parentheses(%rip)
	jmp	.LBB0_228
.LBB0_177:                              # %if.then382
	xorq	%rax, %rax
	movl	%eax, warn_parentheses(%rip)
	movq	$1, %rbx
	jmp	.LBB0_228
.LBB0_179:                              # %if.then386
	movq	$1, %rbx
	movl	%ebx, warn_return_type(%rip)
	jmp	.LBB0_228
.LBB0_181:                              # %if.then390
	xorq	%rax, %rax
	movl	%eax, warn_return_type(%rip)
	movq	$1, %rbx
	jmp	.LBB0_228
.LBB0_183:                              # %if.then394
	movq	$1, %rbx
	movl	%ebx, warn_sequence_point(%rip)
	jmp	.LBB0_228
.LBB0_185:                              # %if.then398
	xorq	%rax, %rax
	movl	%eax, warn_sequence_point(%rip)
	movq	$1, %rbx
	jmp	.LBB0_228
.LBB0_197:                              # %if.then442
	movq	$1, %rbx
	movl	%ebx, warn_missing_braces(%rip)
	jmp	.LBB0_228
.LBB0_199:                              # %if.then446
	xorq	%rax, %rax
	movl	%eax, warn_missing_braces(%rip)
	jmp	.LBB0_228
.LBB0_201:                              # %if.then450
	movq	$1, %rbx
	movl	%ebx, warn_main(%rip)
	jmp	.LBB0_228
.LBB0_203:                              # %if.then454
	movl	%r12d, warn_main(%rip)
	jmp	.LBB0_228
.LBB0_205:                              # %if.then458
	movq	$1, %rbx
	movl	%ebx, warn_sign_compare(%rip)
	jmp	.LBB0_228
.LBB0_207:                              # %if.then462
	xorq	%rax, %rax
	movl	%eax, warn_sign_compare(%rip)
	jmp	.LBB0_228
.LBB0_209:                              # %if.then466
	movq	$1, %rbx
	movl	%ebx, warn_float_equal(%rip)
	jmp	.LBB0_228
.LBB0_211:                              # %if.then470
	xorq	%rax, %rax
	movl	%eax, warn_float_equal(%rip)
	jmp	.LBB0_228
.LBB0_213:                              # %if.then474
	movq	$1, %rbx
	movl	%ebx, warn_multichar(%rip)
	jmp	.LBB0_228
.LBB0_215:                              # %if.then478
	xorq	%rax, %rax
	movl	%eax, warn_multichar(%rip)
	jmp	.LBB0_228
.LBB0_217:                              # %if.then482
	movq	$1, %rbx
	movl	%ebx, warn_div_by_zero(%rip)
	jmp	.LBB0_228
.LBB0_219:                              # %if.then486
	xorq	%rax, %rax
	movl	%eax, warn_div_by_zero(%rip)
	jmp	.LBB0_228
.LBB0_221:                              # %if.then490
	movq	$2, %rax
	movl	%eax, warn_unknown_pragmas(%rip)
	jmp	.LBB0_228
.LBB0_223:                              # %if.then494
	xorq	%rax, %rax
	movl	%eax, warn_unknown_pragmas(%rip)
	jmp	.LBB0_228
.LBB0_30:                               # %if.then67
	xorq	%rax, %rax
	movl	%eax, flag_traditional(%rip)
	movl	%eax, flag_writable_strings(%rip)
	movl	%eax, flag_no_asm(%rip)
	movl	%eax, flag_no_nonansi_builtin(%rip)
	movq	$1, %rbx
	movl	%ebx, flag_noniso_default_format_attributes(%rip)
	jmp	.LBB0_25
.Ltmp14:
	.size	c_decode_option, .Ltmp14-c_decode_option
	.cfi_endproc

	.globl	c_print_identifier
	.align	16, 0x90
	.type	c_print_identifier,@function
c_print_identifier:                     # @c_print_identifier
	.cfi_startproc
# BB#0:                                 # %entry
	pushq	%r15
.Ltmp19:
	.cfi_def_cfa_offset 16
	pushq	%r14
.Ltmp20:
	.cfi_def_cfa_offset 24
	pushq	%rbx
.Ltmp21:
	.cfi_def_cfa_offset 32
.Ltmp22:
	.cfi_offset %rbx, -32
.Ltmp23:
	.cfi_offset %r14, -24
.Ltmp24:
	.cfi_offset %r15, -16
	movq	%rsi, %r15
	movq	56(%r15), %rax
	movq	%rdx, %rbx
	movq	%rdi, %r14
	addq	$4, %rbx
	movabsq	$.L.str124, %rsi
                                        # kill: RDI<def> R14<kill>
	movq	%rax, %rdx
	movq	%rbx, %rcx
	callq	print_node
	movq	64(%r15), %rdx
	movabsq	$.L.str125, %rsi
	movq	%r14, %rdi
	movq	%rbx, %rcx
	callq	print_node
	movq	72(%r15), %rdx
	movabsq	$.L.str126, %rsi
	movq	%r14, %rdi
	movq	%rbx, %rcx
	callq	print_node
	movq	80(%r15), %rdx
	movabsq	$.L.str127, %rsi
	movq	%r14, %rdi
	movq	%rbx, %rcx
	callq	print_node
	movq	88(%r15), %rdx
	movabsq	$.L.str128, %rsi
	movq	%r14, %rdi
	movq	%rbx, %rcx
	callq	print_node
	movq	96(%r15), %rdx
	movabsq	$.L.str129, %rsi
	movq	%r14, %rdi
	movq	%rbx, %rcx
	callq	print_node
	movzbl	19(%r15), %eax
	testq	$1, %rax
	je	.LBB1_1
# BB#2:                                 # %if.then
	movzbl	43(%r15), %eax
	movq	ridpointers(%rip), %rcx
	movq	(%rcx,%rax,8), %r15
	movq	%r14, %rdi
	movq	%rbx, %rsi
	callq	indent_to
	movabsq	$.L.str130, %rdi
	movq	$4, %rsi
	movq	$1, %rdx
	movq	%r14, %rcx
	callq	fwrite
	movabsq	$.L.str131, %rsi
	xorq	%rax, %rax
	movq	%r14, %rdi
	movq	%r15, %rdx
	callq	fprintf
	movq	32(%r15), %rdx
	movabsq	$.L.str132, %rsi
	xorq	%rax, %rax
	movq	%r14, %rdi
	popq	%rbx
	popq	%r14
	popq	%r15
	jmp	fprintf  # TAILCALL
.LBB1_1:                                # %if.end
	popq	%rbx
	popq	%r14
	popq	%r15
	retq
.Ltmp25:
	.size	c_print_identifier, .Ltmp25-c_print_identifier
	.cfi_endproc

	.globl	finish_incomplete_decl
	.align	16, 0x90
	.type	finish_incomplete_decl,@function
finish_incomplete_decl:                 # @finish_incomplete_decl
	.cfi_startproc
# BB#0:                                 # %entry
	pushq	%r15
.Ltmp30:
	.cfi_def_cfa_offset 16
	pushq	%r14
.Ltmp31:
	.cfi_def_cfa_offset 24
	pushq	%rbx
.Ltmp32:
	.cfi_def_cfa_offset 32
.Ltmp33:
	.cfi_offset %rbx, -32
.Ltmp34:
	.cfi_offset %r14, -24
.Ltmp35:
	.cfi_offset %r15, -16
	movq	%rdi, %rbx
	movzbl	16(%rbx), %eax
	cmpq	$34, %rax
	jne	.LBB2_9
# BB#1:                                 # %if.then
	movq	8(%rbx), %r14
	movq	global_trees(%rip), %rax
	cmpq	%rax, %r14
	je	.LBB2_9
# BB#2:                                 # %land.lhs.true
	movzbl	16(%r14), %eax
	cmpq	$18, %rax
	jne	.LBB2_9
# BB#3:                                 # %land.lhs.true9
	movzbl	49(%rbx), %eax
	testq	$1, %rax
	jne	.LBB2_9
# BB#4:                                 # %land.lhs.true13
	cmpq	$0, 24(%r14)
	je	.LBB2_5
.LBB2_9:                                # %if.end17
	popq	%rbx
	popq	%r14
	popq	%r15
	retq
.LBB2_5:                                # %if.then16
	movabsq	$.L.str133, %rsi
	xorq	%rax, %rax
	movq	%rbx, %rdi
	callq	warning_with_decl
	xorq	%rdi, %rdi
	xorq	%rsi, %rsi
	callq	build_int_2_wide
	movq	%rax, %r15
	testq	%r15, %r15
	je	.LBB2_8
# BB#6:                                 # %if.then43.i
	movq	%r15, %rdi
	callq	build_index_type
	movq	%rax, 24(%r14)
	cmpq	$0, 8(%r15)
	jne	.LBB2_8
# BB#7:                                 # %if.then49.i
	movq	%rax, 8(%r15)
.LBB2_8:                                # %complete_array_type.exit
	movq	%r14, %rdi
	callq	layout_type
	xorq	%rsi, %rsi
	movq	%rbx, %rdi
	popq	%rbx
	popq	%r14
	popq	%r15
	jmp	layout_decl  # TAILCALL
.Ltmp36:
	.size	finish_incomplete_decl, .Ltmp36-finish_incomplete_decl
	.cfi_endproc

	.globl	complete_array_type
	.align	16, 0x90
	.type	complete_array_type,@function
complete_array_type:                    # @complete_array_type
	.cfi_startproc
# BB#0:                                 # %entry
	pushq	%r15
.Ltmp42:
	.cfi_def_cfa_offset 16
	pushq	%r14
.Ltmp43:
	.cfi_def_cfa_offset 24
	pushq	%r12
.Ltmp44:
	.cfi_def_cfa_offset 32
	pushq	%rbx
.Ltmp45:
	.cfi_def_cfa_offset 40
	pushq	%rax
.Ltmp46:
	.cfi_def_cfa_offset 48
.Ltmp47:
	.cfi_offset %rbx, -40
.Ltmp48:
	.cfi_offset %r12, -32
.Ltmp49:
	.cfi_offset %r14, -24
.Ltmp50:
	.cfi_offset %r15, -16
	movq	%rdx, %r14
	movq	%rsi, %rbx
	movq	%rdi, %r15
	testq	%rbx, %rbx
	je	.LBB3_16
# BB#1:                                 # %if.then
	movzbl	16(%rbx), %eax
	cmpq	$46, %rax
	jne	.LBB3_2
# BB#4:                                 # %if.then14
	movq	40(%rbx), %rbx
	movq	$-1, %rdi
	movq	$-1, %rsi
	callq	build_int_2_wide
	movq	%rax, %rdx
	jmp	.LBB3_5
	.align	16, 0x90
.LBB3_8:                                # %for.inc
                                        #   in Loop: Header=BB3_5 Depth=1
	movq	%rax, %rdx
	movq	(%rbx), %rbx
.LBB3_5:                                # %if.then14
                                        # =>This Inner Loop Header: Depth=1
	testq	%rbx, %rbx
	je	.LBB3_9
# BB#6:                                 # %for.body
                                        #   in Loop: Header=BB3_5 Depth=1
	movq	24(%rbx), %rax
	testq	%rax, %rax
	jne	.LBB3_8
# BB#7:                                 # %if.else21
                                        #   in Loop: Header=BB3_5 Depth=1
	movq	integer_types+40(%rip), %rsi
	movq	global_trees+96(%rip), %rcx
	movq	$59, %rdi
	xorq	%rax, %rax
	callq	build
	movq	%rax, %rdi
	callq	fold
	jmp	.LBB3_8
.LBB3_2:                                # %if.then
	cmpq	$29, %rax
	jne	.LBB3_10
# BB#3:                                 # %if.then1
	movq	8(%rbx), %rax
	movq	8(%rax), %rdi
	callq	int_size_in_bytes
	movq	%rax, %rsi
	movq	$32, %rcx
	shlq	%cl, %rsi
	movslq	32(%rbx), %rax
	movq	$32, %rcx
	sarq	%cl, %rsi
	cqto
	idivq	%rsi
	leaq	-1(%rax), %rdi
	movq	$32, %rcx
	shlq	%cl, %rdi
	movq	$32, %rcx
	sarq	%cl, %rdi
	xorq	%rsi, %rsi
	xorq	%r12, %r12
	jmp	.LBB3_14
.LBB3_9:                                # %for.end
	movq	%rdx, %rdi
	callq	copy_node
	movq	%rax, %rbx
	xorq	%r12, %r12
	jmp	.LBB3_15
.LBB3_10:                               # %if.else26
	movq	global_trees(%rip), %rax
	cmpq	%rbx, %rax
	je	.LBB3_11
# BB#12:                                # %if.else26
	movabsq	$1, %r12
	jmp	.LBB3_13
.LBB3_11:
	movabsq	$0, %r12
.LBB3_13:                               # %if.else26
	xorq	%rdi, %rdi
	xorq	%rsi, %rsi
.LBB3_14:                               # %if.end34
	callq	build_int_2_wide
	movq	%rax, %rbx
.LBB3_15:                               # %if.end34
	testq	%rbx, %rbx
	jne	.LBB3_18
.LBB3_16:                               # %if.then36
	movq	$2, %r12
	movabsq	$4294967295, %rax       # imm = 0xFFFFFFFF
	testq	%rax, %r14
	je	.LBB3_20
# BB#17:                                # %if.end41
	xorq	%rdi, %rdi
	xorq	%rsi, %rsi
	callq	build_int_2_wide
	movq	%rax, %rbx
	testq	%rbx, %rbx
	movq	$2, %r12
	je	.LBB3_20
.LBB3_18:                               # %if.then43
	movq	%rbx, %rdi
	callq	build_index_type
	movq	%rax, 24(%r15)
	cmpq	$0, 8(%rbx)
	jne	.LBB3_20
# BB#19:                                # %if.then49
	movq	%rax, 8(%rbx)
.LBB3_20:                               # %if.end55
	movq	%r15, %rdi
	callq	layout_type
	movq	%r12, %rax
	addq	$8, %rsp
	popq	%rbx
	popq	%r12
	popq	%r14
	popq	%r15
	retq
.Ltmp51:
	.size	complete_array_type, .Ltmp51-complete_array_type
	.cfi_endproc

	.globl	global_bindings_p
	.align	16, 0x90
	.type	global_bindings_p,@function
global_bindings_p:                      # @global_bindings_p
	.cfi_startproc
# BB#0:                                 # %entry
	movq	current_binding_level(%rip), %rax
	movq	global_binding_level(%rip), %rcx
	cmpq	%rcx, %rax
	jne	.LBB4_1
# BB#2:                                 # %entry
	movabsq	$1, %rax
	retq
.LBB4_1:
	movabsq	$0, %rax
	retq
.Ltmp52:
	.size	global_bindings_p, .Ltmp52-global_bindings_p
	.cfi_endproc

	.globl	keep_next_level
	.align	16, 0x90
	.type	keep_next_level,@function
keep_next_level:                        # @keep_next_level
	.cfi_startproc
# BB#0:                                 # %entry
	movq	$1, %rax
	movb	%al, keep_next_level_flag(%rip)
	retq
.Ltmp53:
	.size	keep_next_level, .Ltmp53-keep_next_level
	.cfi_endproc

	.globl	kept_level_p
	.align	16, 0x90
	.type	kept_level_p,@function
kept_level_p:                           # @kept_level_p
	.cfi_startproc
# BB#0:                                 # %entry
	movq	current_binding_level(%rip), %rcx
	movzbl	52(%rcx), %eax
	testq	%rax, %rax
	je	.LBB6_2
# BB#1:                                 # %land.lhs.true
	cmpq	$0, 24(%rcx)
	movq	$1, %rax
	jne	.LBB6_8
.LBB6_2:                                # %lor.lhs.false
	movzbl	51(%rcx), %eax
	testq	%rax, %rax
	movq	$1, %rax
	jne	.LBB6_8
# BB#3:                                 # %lor.lhs.false4
	cmpq	$0, (%rcx)
	jne	.LBB6_8
# BB#4:                                 # %lor.rhs
	xorq	%rax, %rax
	cmpq	$0, 8(%rcx)
	je	.LBB6_8
# BB#5:                                 # %land.rhs
	movzbl	49(%rcx), %eax
	testq	%rax, %rax
	jne	.LBB6_6
# BB#7:                                 # %land.rhs
	movabsq	$1, %rax
.LBB6_8:                                # %lor.end
	retq
.LBB6_6:
	movabsq	$0, %rax
	retq
.Ltmp54:
	.size	kept_level_p, .Ltmp54-kept_level_p
	.cfi_endproc

	.globl	declare_parm_level
	.align	16, 0x90
	.type	declare_parm_level,@function
declare_parm_level:                     # @declare_parm_level
	.cfi_startproc
# BB#0:                                 # %entry
	movq	current_binding_level(%rip), %rax
	movq	$1, %rcx
	movb	%cl, 48(%rax)
	retq
.Ltmp55:
	.size	declare_parm_level, .Ltmp55-declare_parm_level
	.cfi_endproc

	.globl	in_parm_level_p
	.align	16, 0x90
	.type	in_parm_level_p,@function
in_parm_level_p:                        # @in_parm_level_p
	.cfi_startproc
# BB#0:                                 # %entry
	movq	current_binding_level(%rip), %rax
	movsbq	48(%rax), %rax
	retq
.Ltmp56:
	.size	in_parm_level_p, .Ltmp56-in_parm_level_p
	.cfi_endproc

	.globl	pushlevel
	.align	16, 0x90
	.type	pushlevel,@function
pushlevel:                              # @pushlevel
	.cfi_startproc
# BB#0:                                 # %entry
	pushq	%rbx
.Ltmp59:
	.cfi_def_cfa_offset 16
.Ltmp60:
	.cfi_offset %rbx, -16
	movq	current_binding_level(%rip), %rax
	movq	global_binding_level(%rip), %rcx
	movq	%rdi, %rbx
	cmpq	%rcx, %rax
	jne	.LBB9_2
# BB#1:                                 # %if.then
	movq	$0, named_labels(%rip)
.LBB9_2:                                # %if.end
	movq	free_binding_level(%rip), %rax
	testq	%rax, %rax
	je	.LBB9_4
# BB#3:                                 # %if.then1
	movq	40(%rax), %rcx
	movq	%rcx, free_binding_level(%rip)
	jmp	.LBB9_5
.LBB9_4:                                # %if.else
	movq	$72, %rdi
	callq	xmalloc
.LBB9_5:                                # %if.end2
	movq	$0, 64(%rax)
	movq	$0, 56(%rax)
	movq	$0, 48(%rax)
	movq	$0, 40(%rax)
	movq	$0, 32(%rax)
	movq	$0, 24(%rax)
	movq	$0, 16(%rax)
	movq	$0, 8(%rax)
	movq	$0, (%rax)
	movq	current_binding_level(%rip), %rcx
	movabsq	$4294967295, %rdx       # imm = 0xFFFFFFFF
	testq	%rdx, %rbx
	movq	$1, %rdx
	jne	.LBB9_10
# BB#6:                                 # %lor.rhs
	xorq	%rsi, %rsi
	testq	%rcx, %rcx
	movabsq	$0, %rdx
	je	.LBB9_11
# BB#7:                                 # %cond.true
	movzbl	50(%rcx), %edx
	testq	%rdx, %rdx
	je	.LBB9_8
# BB#9:                                 # %cond.true
	movabsq	$1, %rdx
	jmp	.LBB9_10
.LBB9_8:
	movabsq	$0, %rdx
.LBB9_10:                               # %cond.true
	movq	%rcx, %rsi
.LBB9_11:                               # %lor.end
	movb	%dl, 49(%rax)
	movq	%rsi, 40(%rax)
	movzbl	keep_next_level_flag(%rip), %ecx
	movq	%rax, current_binding_level(%rip)
	movb	%cl, 51(%rax)
	movzbl	keep_next_if_subblocks(%rip), %ecx
	xorq	%rdx, %rdx
	movb	%dl, keep_next_level_flag(%rip)
	movb	%cl, 52(%rax)
	movb	%dl, keep_next_if_subblocks(%rip)
	popq	%rbx
	retq
.Ltmp61:
	.size	pushlevel, .Ltmp61-pushlevel
	.cfi_endproc

	.globl	poplevel
	.align	16, 0x90
	.type	poplevel,@function
poplevel:                               # @poplevel
	.cfi_startproc
# BB#0:                                 # %entry
	pushq	%r15
.Ltmp68:
	.cfi_def_cfa_offset 16
	pushq	%r14
.Ltmp69:
	.cfi_def_cfa_offset 24
	pushq	%r13
.Ltmp70:
	.cfi_def_cfa_offset 32
	pushq	%r12
.Ltmp71:
	.cfi_def_cfa_offset 40
	pushq	%rbx
.Ltmp72:
	.cfi_def_cfa_offset 48
	subq	$32, %rsp
.Ltmp73:
	.cfi_def_cfa_offset 80
.Ltmp74:
	.cfi_offset %rbx, -48
.Ltmp75:
	.cfi_offset %r12, -40
.Ltmp76:
	.cfi_offset %r13, -32
.Ltmp77:
	.cfi_offset %r14, -24
.Ltmp78:
	.cfi_offset %r15, -16
	movq	current_binding_level(%rip), %rax
	movq	(%rax), %rbx
	movq	8(%rax), %r13
	movq	24(%rax), %r15
	movsbq	51(%rax), %rax
	movq	%rax, 16(%rsp)          # 8-byte Spill
	movq	%rdx, 24(%rsp)          # 8-byte Spill
	movq	%rdi, %r12
	movabsq	$4294967295, %r14       # imm = 0xFFFFFFFF
	testq	%r14, %rsi
	je	.LBB10_2
# BB#1:                                 # %if.then
	movq	%rbx, %rdi
	callq	nreverse
	movq	current_binding_level(%rip), %rcx
	movq	%rax, %rbx
	movq	%rbx, (%rcx)
.LBB10_2:                               # %if.end
	testq	%rbx, %rbx
	je	.LBB10_11
# BB#3:
	movq	%rbx, %rax
	.align	16, 0x90
.LBB10_4:                               # %for.body
                                        # =>This Inner Loop Header: Depth=1
	movl	16(%rax), %ecx
	movq	%rcx, %rdx
	andq	$16639, %rdx            # imm = 0x40FF
	cmpq	$30, %rdx
	jne	.LBB10_10
# BB#5:                                 # %land.lhs.true11
                                        #   in Loop: Header=BB10_4 Depth=1
	cmpq	$0, 104(%rax)
	je	.LBB10_10
# BB#6:                                 # %land.lhs.true11
                                        #   in Loop: Header=BB10_4 Depth=1
	andq	$1024, %rcx             # imm = 0x400
	testq	%r14, %rcx
	je	.LBB10_10
# BB#7:                                 # %if.then21
                                        #   in Loop: Header=BB10_4 Depth=1
	movq	112(%rax), %rcx
	testq	%rcx, %rcx
	je	.LBB10_10
# BB#8:                                 # %if.then21
                                        #   in Loop: Header=BB10_4 Depth=1
	cmpq	%rax, %rcx
	je	.LBB10_10
# BB#9:                                 # %if.then30
                                        #   in Loop: Header=BB10_4 Depth=1
	movl	16(%rcx), %edx
	orq	$1024, %rdx             # imm = 0x400
	movl	%edx, 16(%rcx)
	.align	16, 0x90
.LBB10_10:                              # %for.inc
                                        #   in Loop: Header=BB10_4 Depth=1
	movq	(%rax), %rax
	testq	%rax, %rax
	jne	.LBB10_4
.LBB10_11:                              # %for.end
	movq	current_binding_level(%rip), %rax
	movq	(%rax), %rdi
	callq	warn_about_unused_variables
	movq	current_binding_level(%rip), %rcx
	movq	32(%rcx), %rax
	movq	%rax, (%rsp)            # 8-byte Spill
	testq	%rax, %rax
	jne	.LBB10_17
# BB#12:                                # %if.else46
	movq	24(%rsp), %rax          # 8-byte Reload
	orq	%rax, %r12
	movq	16(%rsp), %rax          # 8-byte Reload
	orq	%rax, %r12
	testq	%r14, %r12
	jne	.LBB10_16
# BB#13:                                # %lor.lhs.false49
	movzbl	52(%rcx), %eax
	xorq	%rcx, %rcx
	testq	%rax, %rax
	je	.LBB10_14
# BB#15:                                # %lor.lhs.false49
	testq	%r15, %r15
	movabsq	$0, %r12
	je	.LBB10_18
.LBB10_16:                              # %if.end58
	movq	$4, %rdi
	callq	make_node
	xorq	%rcx, %rcx
	testq	%rax, %rax
	movabsq	$0, %r12
	je	.LBB10_18
.LBB10_17:                              # %if.then61
	movq	%rbx, 32(%rax)
	movq	%r15, 40(%rax)
	movq	$1, %rcx
	movq	%rax, %r12
.LBB10_18:                              # %for.cond66.preheader
	testq	%r15, %r15
	je	.LBB10_21
# BB#19:
	movq	%r15, %rax
	.align	16, 0x90
.LBB10_20:                              # %for.body68
                                        # =>This Inner Loop Header: Depth=1
	movq	%r12, 48(%rax)
	movq	(%rax), %rax
	testq	%rax, %rax
	jne	.LBB10_20
.LBB10_21:                              # %for.cond74.preheader
	movq	%r15, 8(%rsp)           # 8-byte Spill
	movq	%rcx, 16(%rsp)          # 8-byte Spill
	jmp	.LBB10_22
	.align	16, 0x90
.LBB10_32:                              # %for.inc123
                                        #   in Loop: Header=BB10_22 Depth=1
	movq	(%rbx), %rbx
.LBB10_22:                              # %for.cond74.preheader
                                        # =>This Inner Loop Header: Depth=1
	testq	%rbx, %rbx
	je	.LBB10_33
# BB#23:                                # %for.body76
                                        #   in Loop: Header=BB10_22 Depth=1
	movq	72(%rbx), %rax
	testq	%rax, %rax
	je	.LBB10_32
# BB#24:                                # %if.then80
                                        #   in Loop: Header=BB10_22 Depth=1
	movzbl	49(%rbx), %ecx
	testq	$1, %rcx
	je	.LBB10_31
# BB#25:                                # %if.then86
                                        #   in Loop: Header=BB10_22 Depth=1
	movl	16(%rbx), %ecx
	testq	$65536, %rcx            # imm = 0x10000
	je	.LBB10_27
# BB#26:                                # %if.then92
                                        #   in Loop: Header=BB10_22 Depth=1
	movl	16(%rax), %ecx
	orq	$65536, %rcx            # imm = 0x10000
	movl	%ecx, 16(%rax)
	movl	16(%rbx), %ecx
.LBB10_27:                              # %if.end100
                                        #   in Loop: Header=BB10_22 Depth=1
	testq	$1024, %rcx             # imm = 0x400
	je	.LBB10_31
# BB#28:                                # %if.then107
                                        #   in Loop: Header=BB10_22 Depth=1
	movq	120(%rbx), %rax
	testq	%rax, %rax
	jne	.LBB10_30
# BB#29:                                # %cond.false
                                        #   in Loop: Header=BB10_22 Depth=1
	movq	%rbx, %rdi
	callq	*lang_set_decl_assembler_name(%rip)
	movq	120(%rbx), %rax
.LBB10_30:                              # %cond.end
                                        #   in Loop: Header=BB10_22 Depth=1
	movl	16(%rax), %ecx
	orq	$1024, %rcx             # imm = 0x400
	movl	%ecx, 16(%rax)
.LBB10_31:                              # %if.end119
                                        #   in Loop: Header=BB10_22 Depth=1
	movq	72(%rbx), %rax
	movq	$0, 64(%rax)
	jmp	.LBB10_32
.LBB10_33:                              # %for.end126
	movq	current_binding_level(%rip), %rax
	movq	16(%rax), %rax
	jmp	.LBB10_35
	.align	16, 0x90
.LBB10_34:                              # %for.body129
                                        #   in Loop: Header=BB10_35 Depth=1
	movq	24(%rax), %rcx
	movq	32(%rax), %rdx
	movq	%rdx, 64(%rcx)
	movq	(%rax), %rax
.LBB10_35:                              # %for.body129
                                        # =>This Inner Loop Header: Depth=1
	testq	%rax, %rax
	jne	.LBB10_34
# BB#36:                                # %for.end135
	movq	24(%rsp), %rax          # 8-byte Reload
	testq	%r14, %rax
	je	.LBB10_46
# BB#37:                                # %if.then137
	movq	%r12, %rdi
	callq	clear_limbo_values
	movq	$0, 32(%r12)
	movq	named_labels(%rip), %r14
	testq	%r14, %r14
	je	.LBB10_45
# BB#38:
	movabsq	$.L.str134, %r15
	.align	16, 0x90
.LBB10_39:                              # %for.body142
                                        # =>This Inner Loop Header: Depth=1
	movq	32(%r14), %rbx
	cmpq	$0, 104(%rbx)
	jne	.LBB10_41
# BB#40:                                # %if.then149
                                        #   in Loop: Header=BB10_39 Depth=1
	xorq	%rax, %rax
	movq	%rbx, %rdi
	movq	%r15, %rsi
	callq	error_with_decl
	movq	input_filename(%rip), %rdi
	movq	72(%rbx), %rdx
	movl	lineno(%rip), %esi
	callq	define_label
	jmp	.LBB10_44
	.align	16, 0x90
.LBB10_41:                              # %if.else153
                                        #   in Loop: Header=BB10_39 Depth=1
	movl	warn_unused_label(%rip), %eax
	testq	%rax, %rax
	je	.LBB10_44
# BB#42:                                # %land.lhs.true155
                                        #   in Loop: Header=BB10_39 Depth=1
	movzbl	18(%rbx), %eax
	testq	$1, %rax
	jne	.LBB10_44
# BB#43:                                # %if.then162
                                        #   in Loop: Header=BB10_39 Depth=1
	xorq	%rax, %rax
	movq	%rbx, %rdi
	movabsq	$.L.str135, %rsi
	callq	warning_with_decl
	.align	16, 0x90
.LBB10_44:                              # %if.end164
                                        #   in Loop: Header=BB10_39 Depth=1
	movq	72(%rbx), %rax
	movq	$0, 72(%rax)
	movq	32(%r12), %rax
	movq	%rax, (%rbx)
	movq	%rbx, 32(%r12)
	movq	(%r14), %r14
	testq	%r14, %r14
	jne	.LBB10_39
.LBB10_45:                              # %if.end200.thread
	movq	current_binding_level(%rip), %rax
	movq	40(%rax), %rcx
	movq	free_binding_level(%rip), %rdx
	movq	%rcx, current_binding_level(%rip)
	movq	%rdx, 40(%rax)
	movq	current_function_decl(%rip), %rcx
	movq	%rax, free_binding_level(%rip)
	movq	%r12, 104(%rcx)
	movq	16(%rsp), %rdx          # 8-byte Reload
	jmp	.LBB10_53
.LBB10_46:                              # %if.else183
	movq	%rax, %rbx
	movq	current_binding_level(%rip), %rax
	movq	40(%rax), %rcx
	movq	free_binding_level(%rip), %rdx
	movq	%rcx, current_binding_level(%rip)
	movq	%rdx, 40(%rax)
	movq	%rax, free_binding_level(%rip)
	movq	16(%rsp), %rdx          # 8-byte Reload
	testq	%rdx, %rdx
	je	.LBB10_49
# BB#47:                                # %if.then185
	cmpq	$0, (%rsp)              # 8-byte Folded Reload
	jne	.LBB10_56
# BB#48:                                # %if.then187
	movq	current_binding_level(%rip), %rax
	movq	24(%rax), %rdi
	movq	%r12, %rsi
	jmp	.LBB10_51
.LBB10_49:                              # %if.else192
	movq	8(%rsp), %rsi           # 8-byte Reload
	testq	%rsi, %rsi
	je	.LBB10_52
# BB#50:                                # %if.then194
	movq	current_binding_level(%rip), %rax
	movq	24(%rax), %rdi
.LBB10_51:                              # %if.end200
	movq	%rdx, %r15
	callq	chainon
	movq	%r15, %rdx
	movq	current_binding_level(%rip), %rcx
	movq	%rax, 24(%rcx)
.LBB10_52:                              # %if.end200
	testq	%r14, %rbx
	jne	.LBB10_53
# BB#55:                                # %if.else212
	testq	%rdx, %rdx
	je	.LBB10_60
.LBB10_56:                              # %for.cond215.preheader
	testq	%r13, %r13
	je	.LBB10_59
	.align	16, 0x90
.LBB10_57:                              # %for.body217
                                        # =>This Inner Loop Header: Depth=1
	movq	32(%r13), %rax
	movq	%r12, 144(%rax)
	movq	(%r13), %r13
	testq	%r13, %r13
	jne	.LBB10_57
	jmp	.LBB10_58
	.align	16, 0x90
.LBB10_54:                              # %for.body205
                                        #   in Loop: Header=BB10_53 Depth=1
	movq	current_function_decl(%rip), %rax
	movq	32(%r13), %rcx
	movq	%rax, 144(%rcx)
	movq	(%r13), %r13
.LBB10_53:                              # %for.cond203.preheader
                                        # =>This Inner Loop Header: Depth=1
	testq	%r13, %r13
	jne	.LBB10_54
.LBB10_58:                              # %if.end227
	testq	%rdx, %rdx
	je	.LBB10_60
.LBB10_59:                              # %if.then229
	movl	16(%r12), %eax
	orq	$65536, %rax            # imm = 0x10000
	movl	%eax, 16(%r12)
.LBB10_60:                              # %if.end235
	movq	%r12, %rax
	addq	$32, %rsp
	popq	%rbx
	popq	%r12
	popq	%r13
	popq	%r14
	popq	%r15
	retq
.LBB10_14:
	xorq	%r12, %r12
	jmp	.LBB10_18
.Ltmp79:
	.size	poplevel, .Ltmp79-poplevel
	.cfi_endproc

	.globl	getdecls
	.align	16, 0x90
	.type	getdecls,@function
getdecls:                               # @getdecls
	.cfi_startproc
# BB#0:                                 # %entry
	movq	current_binding_level(%rip), %rax
	movq	(%rax), %rax
	retq
.Ltmp80:
	.size	getdecls, .Ltmp80-getdecls
	.cfi_endproc

	.align	16, 0x90
	.type	clear_limbo_values,@function
clear_limbo_values:                     # @clear_limbo_values
	.cfi_startproc
# BB#0:                                 # %entry
	pushq	%rbx
.Ltmp83:
	.cfi_def_cfa_offset 16
.Ltmp84:
	.cfi_offset %rbx, -16
	movq	32(%rdi), %rax
	jmp	.LBB12_1
	.align	16, 0x90
.LBB12_4:                               # %for.inc
                                        #   in Loop: Header=BB12_1 Depth=1
	movq	(%rax), %rax
.LBB12_1:                               # %entry
                                        # =>This Inner Loop Header: Depth=1
	testq	%rax, %rax
	je	.LBB12_5
# BB#2:                                 # %for.body
                                        #   in Loop: Header=BB12_1 Depth=1
	movq	72(%rax), %rcx
	testq	%rcx, %rcx
	je	.LBB12_4
# BB#3:                                 # %if.then
                                        #   in Loop: Header=BB12_1 Depth=1
	movq	$0, 96(%rcx)
	jmp	.LBB12_4
.LBB12_5:                               # %for.end
	movq	40(%rdi), %rbx
	jmp	.LBB12_7
	.align	16, 0x90
.LBB12_6:                               # %for.body7
                                        #   in Loop: Header=BB12_7 Depth=1
	movq	%rbx, %rdi
	callq	clear_limbo_values
	movq	(%rbx), %rbx
.LBB12_7:                               # %for.body7
                                        # =>This Inner Loop Header: Depth=1
	testq	%rbx, %rbx
	jne	.LBB12_6
# BB#8:                                 # %for.end11
	popq	%rbx
	retq
.Ltmp85:
	.size	clear_limbo_values, .Ltmp85-clear_limbo_values
	.cfi_endproc

	.globl	define_label
	.align	16, 0x90
	.type	define_label,@function
define_label:                           # @define_label
	.cfi_startproc
# BB#0:                                 # %entry
	pushq	%r15
.Ltmp91:
	.cfi_def_cfa_offset 16
	pushq	%r14
.Ltmp92:
	.cfi_def_cfa_offset 24
	pushq	%r12
.Ltmp93:
	.cfi_def_cfa_offset 32
	pushq	%rbx
.Ltmp94:
	.cfi_def_cfa_offset 40
	pushq	%rax
.Ltmp95:
	.cfi_def_cfa_offset 48
.Ltmp96:
	.cfi_offset %rbx, -40
.Ltmp97:
	.cfi_offset %r12, -32
.Ltmp98:
	.cfi_offset %r14, -24
.Ltmp99:
	.cfi_offset %r15, -16
	movq	%rdx, %r12
	movq	%rsi, %r14
	movq	%rdi, %r15
	movq	%r12, %rdi
	callq	lookup_label
	xorq	%rbx, %rbx
	testq	%rax, %rax
	je	.LBB13_4
# BB#1:                                 # %land.lhs.true
	movq	80(%rax), %rcx
	movq	current_function_decl(%rip), %rdx
	cmpq	%rdx, %rcx
	je	.LBB13_3
# BB#2:                                 # %if.then
	movq	shadowed_labels(%rip), %rdx
	xorq	%rdi, %rdi
	movq	%rax, %rsi
	callq	tree_cons
	movq	%rax, shadowed_labels(%rip)
	movq	$0, 72(%r12)
	movq	%r12, %rdi
	callq	lookup_label
.LBB13_3:                               # %if.end
	movq	%rax, %rbx
.LBB13_4:                               # %if.end
	movl	warn_traditional(%rip), %eax
	testq	%rax, %rax
	je	.LBB13_10
# BB#5:                                 # %if.end
	movl	in_system_header(%rip), %eax
	movabsq	$4294967295, %rcx       # imm = 0xFFFFFFFF
	testq	%rcx, %rax
	jne	.LBB13_10
# BB#6:                                 # %land.lhs.true7
	movq	current_binding_level(%rip), %rax
	movq	global_binding_level(%rip), %rcx
	cmpq	%rcx, %rax
	je	.LBB13_8
# BB#7:                                 # %land.lhs.true.i
	cmpq	$0, 64(%r12)
	jne	.LBB13_9
.LBB13_8:                               # %lookup_name.exit
	cmpq	$0, 56(%r12)
	je	.LBB13_10
.LBB13_9:                               # %if.then10
	movq	32(%r12), %rcx
	movabsq	$.L.str153, %rdx
	xorq	%rax, %rax
	movq	%r15, %rdi
	movq	%r14, %rsi
	callq	warning_with_file_and_line
.LBB13_10:                              # %if.end11
	cmpq	$0, 104(%rbx)
	je	.LBB13_12
# BB#11:                                # %if.then14
	movq	32(%r12), %rcx
	movabsq	$.L.str154, %rdx
	xorq	%rax, %rax
	xorq	%rbx, %rbx
	movq	%r15, %rdi
	movq	%r14, %rsi
	callq	error_with_file_and_line
	jmp	.LBB13_13
.LBB13_12:                              # %if.else
	movq	global_trees(%rip), %rax
	movq	%rax, 104(%rbx)
	movq	%r15, 24(%rbx)
	movl	%r14d, 32(%rbx)
.LBB13_13:                              # %return
	movq	%rbx, %rax
	addq	$8, %rsp
	popq	%rbx
	popq	%r12
	popq	%r14
	popq	%r15
	retq
.Ltmp100:
	.size	define_label, .Ltmp100-define_label
	.cfi_endproc

	.globl	insert_block
	.align	16, 0x90
	.type	insert_block,@function
insert_block:                           # @insert_block
	.cfi_startproc
# BB#0:                                 # %entry
	pushq	%rax
.Ltmp102:
	.cfi_def_cfa_offset 16
	movq	%rdi, %rax
	movl	16(%rax), %ecx
	orq	$65536, %rcx            # imm = 0x10000
	movl	%ecx, 16(%rax)
	movq	current_binding_level(%rip), %rcx
	movq	24(%rcx), %rdi
	movq	%rax, %rsi
	callq	chainon
	movq	current_binding_level(%rip), %rcx
	movq	%rax, 24(%rcx)
	popq	%rax
	retq
.Ltmp103:
	.size	insert_block, .Ltmp103-insert_block
	.cfi_endproc

	.globl	set_block
	.align	16, 0x90
	.type	set_block,@function
set_block:                              # @set_block
	.cfi_startproc
# BB#0:                                 # %entry
	pushq	%rbx
.Ltmp106:
	.cfi_def_cfa_offset 16
.Ltmp107:
	.cfi_offset %rbx, -16
	movq	current_binding_level(%rip), %rax
	movq	%rdi, %rbx
	movq	%rbx, 32(%rax)
	movq	current_binding_level(%rip), %rax
	movq	(%rax), %rdi
	movq	32(%rbx), %rsi
	callq	chainon
	movq	current_binding_level(%rip), %rcx
	movq	%rax, (%rcx)
	movq	current_binding_level(%rip), %rax
	movq	24(%rax), %rdi
	movq	40(%rbx), %rsi
	callq	chainon
	movq	current_binding_level(%rip), %rcx
	movq	%rax, 24(%rcx)
	popq	%rbx
	retq
.Ltmp108:
	.size	set_block, .Ltmp108-set_block
	.cfi_endproc

	.globl	push_label_level
	.align	16, 0x90
	.type	push_label_level,@function
push_label_level:                       # @push_label_level
	.cfi_startproc
# BB#0:                                 # %entry
	pushq	%rax
.Ltmp110:
	.cfi_def_cfa_offset 16
	movq	free_binding_level(%rip), %rax
	testq	%rax, %rax
	je	.LBB16_2
# BB#1:                                 # %if.then
	movq	40(%rax), %rcx
	movq	%rcx, free_binding_level(%rip)
	jmp	.LBB16_3
.LBB16_2:                               # %if.else
	movq	$72, %rdi
	callq	xmalloc
.LBB16_3:                               # %if.end
	movq	label_level_chain(%rip), %rcx
	movq	%rcx, 40(%rax)
	movq	named_labels(%rip), %rcx
	movq	%rax, label_level_chain(%rip)
	movq	%rcx, (%rax)
	movq	shadowed_labels(%rip), %rcx
	movq	%rcx, 16(%rax)
	movq	$0, named_labels(%rip)
	movq	$0, shadowed_labels(%rip)
	popq	%rax
	retq
.Ltmp111:
	.size	push_label_level, .Ltmp111-push_label_level
	.cfi_endproc

	.globl	pop_label_level
	.align	16, 0x90
	.type	pop_label_level,@function
pop_label_level:                        # @pop_label_level
	.cfi_startproc
# BB#0:                                 # %entry
	pushq	%r15
.Ltmp118:
	.cfi_def_cfa_offset 16
	pushq	%r14
.Ltmp119:
	.cfi_def_cfa_offset 24
	pushq	%r13
.Ltmp120:
	.cfi_def_cfa_offset 32
	pushq	%r12
.Ltmp121:
	.cfi_def_cfa_offset 40
	pushq	%rbx
.Ltmp122:
	.cfi_def_cfa_offset 48
.Ltmp123:
	.cfi_offset %rbx, -48
.Ltmp124:
	.cfi_offset %r12, -40
.Ltmp125:
	.cfi_offset %r13, -32
.Ltmp126:
	.cfi_offset %r14, -24
.Ltmp127:
	.cfi_offset %r15, -16
	movq	named_labels(%rip), %rbx
	movq	label_level_chain(%rip), %r15
	testq	%rbx, %rbx
	je	.LBB17_8
# BB#1:
	xorq	%r14, %r14
	movabsq	$.L.str134, %r12
	movabsq	$4294967295, %r13       # imm = 0xFFFFFFFF
.LBB17_2:                               # %for.body.lr.ph
                                        # =>This Loop Header: Depth=1
                                        #     Child Loop BB17_14 Depth 2
	testq	%r14, %r14
	jne	.LBB17_14
# BB#3:                                 # %for.body.us
                                        #   in Loop: Header=BB17_2 Depth=1
	movq	32(%rbx), %rdi
	movl	16(%rdi), %eax
	testq	$33554432, %rax         # imm = 0x2000000
	je	.LBB17_24
# BB#4:                                 # %if.then.us
                                        #   in Loop: Header=BB17_2 Depth=1
	movl	32(%rdi), %ecx
	testq	%rcx, %rcx
	jne	.LBB17_5
# BB#21:                                # %if.then4.us
                                        #   in Loop: Header=BB17_2 Depth=1
	xorq	%rax, %rax
	movq	%r12, %rsi
	callq	error_with_decl
	movq	32(%rbx), %rax
	movq	input_filename(%rip), %rdi
	movq	72(%rax), %rdx
	movl	lineno(%rip), %esi
	callq	define_label
	jmp	.LBB17_22
	.align	16, 0x90
.LBB17_14:                              # %for.body
                                        #   Parent Loop BB17_2 Depth=1
                                        # =>  This Inner Loop Header: Depth=2
	movq	32(%rbx), %rdi
	movl	16(%rdi), %eax
	testq	$33554432, %rax         # imm = 0x2000000
	je	.LBB17_24
# BB#15:                                # %if.then
                                        #   in Loop: Header=BB17_14 Depth=2
	movl	32(%rdi), %ecx
	testq	%rcx, %rcx
	jne	.LBB17_17
# BB#16:                                # %if.then4
                                        #   in Loop: Header=BB17_14 Depth=2
	xorq	%rax, %rax
	movq	%r12, %rsi
	callq	error_with_decl
	movq	32(%rbx), %rax
	movq	input_filename(%rip), %rdi
	movq	72(%rax), %rdx
	movl	lineno(%rip), %esi
	callq	define_label
	jmp	.LBB17_20
	.align	16, 0x90
.LBB17_17:                              # %if.else
                                        #   in Loop: Header=BB17_14 Depth=2
	movl	warn_unused_label(%rip), %ecx
	testq	%rcx, %rcx
	je	.LBB17_20
# BB#18:                                # %if.else
                                        #   in Loop: Header=BB17_14 Depth=2
	andq	$65536, %rax            # imm = 0x10000
	testq	%r13, %rax
	jne	.LBB17_20
# BB#19:                                # %if.then18
                                        #   in Loop: Header=BB17_14 Depth=2
	xorq	%rax, %rax
	movabsq	$.L.str135, %rsi
	callq	warning_with_decl
.LBB17_20:                              # %if.then28
                                        #   in Loop: Header=BB17_14 Depth=2
	movq	32(%rbx), %rax
	movq	72(%rax), %rax
	movq	$0, 72(%rax)
	movq	(%rbx), %rbx
	testq	%rbx, %rbx
	movq	%rbx, (%r14)
	jne	.LBB17_14
	jmp	.LBB17_8
	.align	16, 0x90
.LBB17_24:                              # %if.else33
                                        #   in Loop: Header=BB17_2 Depth=1
	movq	%rbx, %r14
	movq	(%r14), %rbx
	jmp	.LBB17_23
.LBB17_5:                               # %if.else.us
                                        #   in Loop: Header=BB17_2 Depth=1
	movl	warn_unused_label(%rip), %ecx
	testq	%rcx, %rcx
	je	.LBB17_22
# BB#6:                                 # %if.else.us
                                        #   in Loop: Header=BB17_2 Depth=1
	andq	$65536, %rax            # imm = 0x10000
	testq	%r13, %rax
	jne	.LBB17_22
# BB#7:                                 # %if.then18.us
                                        #   in Loop: Header=BB17_2 Depth=1
	xorq	%rax, %rax
	movabsq	$.L.str135, %rsi
	callq	warning_with_decl
.LBB17_22:                              # %if.else31
                                        #   in Loop: Header=BB17_2 Depth=1
	movq	32(%rbx), %rax
	movq	72(%rax), %rax
	movq	$0, 72(%rax)
	movq	(%rbx), %rbx
	movq	%rbx, named_labels(%rip)
	xorq	%r14, %r14
.LBB17_23:                              # %for.cond.outer.backedge
                                        #   in Loop: Header=BB17_2 Depth=1
	testq	%rbx, %rbx
	jne	.LBB17_2
.LBB17_8:                               # %for.cond37.preheader
	movq	shadowed_labels(%rip), %rax
	jmp	.LBB17_9
	.align	16, 0x90
.LBB17_12:                              # %for.inc
                                        #   in Loop: Header=BB17_9 Depth=1
	movq	(%rax), %rax
.LBB17_9:                               # %for.cond37.preheader
                                        # =>This Inner Loop Header: Depth=1
	testq	%rax, %rax
	je	.LBB17_13
# BB#10:                                # %for.body39
                                        #   in Loop: Header=BB17_9 Depth=1
	movq	32(%rax), %rcx
	movq	72(%rcx), %rdx
	testq	%rdx, %rdx
	je	.LBB17_12
# BB#11:                                # %if.then45
                                        #   in Loop: Header=BB17_9 Depth=1
	movq	%rcx, 72(%rdx)
	jmp	.LBB17_12
.LBB17_13:                              # %for.end56
	movq	named_labels(%rip), %rdi
	movq	(%r15), %rsi
	callq	chainon
	movq	%rax, named_labels(%rip)
	movq	16(%r15), %rax
	movq	label_level_chain(%rip), %rcx
	movq	%rax, shadowed_labels(%rip)
	movq	40(%rcx), %rax
	movq	free_binding_level(%rip), %rcx
	movq	%rax, label_level_chain(%rip)
	movq	%rcx, 40(%r15)
	movq	%r15, free_binding_level(%rip)
	popq	%rbx
	popq	%r12
	popq	%r13
	popq	%r14
	popq	%r15
	retq
.Ltmp128:
	.size	pop_label_level, .Ltmp128-pop_label_level
	.cfi_endproc

	.globl	pushtag
	.align	16, 0x90
	.type	pushtag,@function
pushtag:                                # @pushtag
	.cfi_startproc
# BB#0:                                 # %entry
	pushq	%r14
.Ltmp132:
	.cfi_def_cfa_offset 16
	pushq	%rbx
.Ltmp133:
	.cfi_def_cfa_offset 24
	pushq	%rax
.Ltmp134:
	.cfi_def_cfa_offset 32
.Ltmp135:
	.cfi_offset %rbx, -24
.Ltmp136:
	.cfi_offset %r14, -16
	movq	%rsi, %r14
	movabsq	$current_binding_level, %rax
	.align	16, 0x90
.LBB18_1:                               # %for.cond
                                        # =>This Inner Loop Header: Depth=1
	movq	(%rax), %rbx
	movzbl	49(%rbx), %ecx
	leaq	40(%rbx), %rax
	testq	%rcx, %rcx
	jne	.LBB18_1
# BB#2:                                 # %for.end
	testq	%rdi, %rdi
	je	.LBB18_5
# BB#3:                                 # %if.then
	cmpq	$0, 96(%r14)
	jne	.LBB18_5
# BB#4:                                 # %if.then4
	movq	%rdi, 96(%r14)
.LBB18_5:                               # %if.end7
	movq	8(%rbx), %rdx
	movq	%r14, %rsi
	callq	tree_cons
	movq	%rax, 8(%rbx)
	movq	$33, %rdi
	xorq	%rsi, %rsi
	movq	%r14, %rdx
	callq	build_decl
	movq	%rax, %rdi
	callq	pushdecl
	movq	%rax, (%r14)
	movq	80(%rax), %rax
	movq	%rax, 144(%r14)
	addq	$8, %rsp
	popq	%rbx
	popq	%r14
	retq
.Ltmp137:
	.size	pushtag, .Ltmp137-pushtag
	.cfi_endproc

	.globl	pushdecl
	.align	16, 0x90
	.type	pushdecl,@function
pushdecl:                               # @pushdecl
	.cfi_startproc
# BB#0:                                 # %entry
	pushq	%r15
.Ltmp144:
	.cfi_def_cfa_offset 16
	pushq	%r14
.Ltmp145:
	.cfi_def_cfa_offset 24
	pushq	%r13
.Ltmp146:
	.cfi_def_cfa_offset 32
	pushq	%r12
.Ltmp147:
	.cfi_def_cfa_offset 40
	pushq	%rbx
.Ltmp148:
	.cfi_def_cfa_offset 48
	subq	$80, %rsp
.Ltmp149:
	.cfi_def_cfa_offset 128
.Ltmp150:
	.cfi_offset %rbx, -48
.Ltmp151:
	.cfi_offset %r12, -40
.Ltmp152:
	.cfi_offset %r13, -32
.Ltmp153:
	.cfi_offset %r14, -24
.Ltmp154:
	.cfi_offset %r15, -16
	movq	%rdi, %r15
	movl	16(%r15), %eax
	movq	72(%r15), %r14
	movq	current_binding_level(%rip), %r13
	movq	%rax, %rcx
	andq	$255, %rcx
	cmpq	$30, %rcx
	jne	.LBB19_3
# BB#1:                                 # %land.lhs.true
	cmpq	$0, 200(%r15)
	jne	.LBB19_3
# BB#2:                                 # %if.then
	movq	$16, %rdi
	callq	ggc_alloc_cleared
	movq	%rax, 200(%r15)
	movl	16(%r15), %eax
.LBB19_3:                               # %if.end
	movq	current_function_decl(%rip), %rcx
	movq	%rcx, 80(%r15)
	andq	$255, %rax
	cmpq	$30, %rax
	je	.LBB19_5
# BB#4:                                 # %if.end
	cmpq	$34, %rax
	jne	.LBB19_8
.LBB19_5:                               # %land.lhs.true16
	cmpq	$0, 104(%r15)
	jne	.LBB19_8
# BB#6:                                 # %land.lhs.true19
	movzbl	49(%r15), %eax
	testq	$1, %rax
	je	.LBB19_8
# BB#7:                                 # %if.then24
	movq	$0, 80(%r15)
.LBB19_8:                               # %if.end27
	testq	%r14, %r14
	je	.LBB19_502
# BB#9:                                 # %if.then29
	movl	warn_nested_externs(%rip), %eax
	testq	%rax, %rax
	je	.LBB19_15
# BB#10:                                # %land.lhs.true31
	movq	48(%r15), %rax
	testq	$256, %rax              # imm = 0x100
	je	.LBB19_15
# BB#11:                                # %land.lhs.true31
	movq	global_binding_level(%rip), %rcx
	cmpq	%rcx, %r13
	je	.LBB19_15
# BB#12:                                # %land.lhs.true41
	movq	80(%r14), %rcx
	cmpq	%r15, %rcx
	je	.LBB19_15
# BB#13:                                # %land.lhs.true41
	andq	$65536, %rax            # imm = 0x10000
	jne	.LBB19_15
# BB#14:                                # %if.then50
	movq	32(%r14), %rsi
	movabsq	$.L.str136, %rdi
	xorq	%rax, %rax
	callq	warning
.LBB19_15:                              # %if.end51
	movq	current_binding_level(%rip), %rax
	movq	global_binding_level(%rip), %rcx
	cmpq	%rcx, %rax
	je	.LBB19_21
# BB#16:                                # %if.end.i
	cmpq	$0, 64(%r14)
	je	.LBB19_22
# BB#17:                                # %if.end3.i
	movq	(%rax), %r12
	testq	%r12, %r12
	je	.LBB19_22
# BB#18:
	xorq	%rbx, %rbx
	.align	16, 0x90
.LBB19_20:                              # %for.body.i
                                        # =>This Inner Loop Header: Depth=1
	movq	72(%r12), %rax
	cmpq	%r14, %rax
	je	.LBB19_29
# BB#19:                                # %for.cond.i
                                        #   in Loop: Header=BB19_20 Depth=1
	movq	(%r12), %r12
	testq	%r12, %r12
	jne	.LBB19_20
	jmp	.LBB19_22
.LBB19_21:                              # %lookup_name_current_level.exit
	movq	56(%r14), %r12
	xorq	%rbx, %rbx
	testq	%r12, %r12
	jne	.LBB19_29
.LBB19_22:                              # %land.lhs.true54
	movzbl	49(%r15), %eax
	xorq	%rbx, %rbx
	testq	$1, %rax
	movabsq	$0, %r12
	je	.LBB19_32
# BB#23:                                # %land.lhs.true62
	movzbl	18(%r15), %ecx
	movl	flag_traditional(%rip), %eax
	xorq	%rbx, %rbx
	testq	$8, %rcx
	je	.LBB19_24
# BB#25:                                # %land.lhs.true62
	movabsq	$4294967295, %rcx       # imm = 0xFFFFFFFF
	testq	%rcx, %rax
	movabsq	$0, %r12
	jne	.LBB19_33
# BB#26:                                # %if.then70
	movq	56(%r14), %r12
	testq	%r12, %r12
	je	.LBB19_28
# BB#27:                                # %lor.lhs.false72
	movzbl	16(%r12), %eax
	cmpq	$33, %rax
	movq	$1, %rbx
	jne	.LBB19_29
.LBB19_28:                              # %if.then78
	movq	96(%r14), %r12
	movq	$1, %rbx
.LBB19_29:                              # %if.end80
	testq	%r12, %r12
	je	.LBB19_32
# BB#30:                                # %if.end80
	movq	global_trees(%rip), %rax
	cmpq	%rax, %r12
	jne	.LBB19_32
# BB#31:                                # %if.then84
	movabsq	$.L.str137, %rsi
	xorq	%rax, %rax
	xorq	%r12, %r12
	movq	%r15, %rdi
	callq	error_with_decl
.LBB19_32:                              # %if.end85thread-pre-split
	movl	flag_traditional(%rip), %eax
.LBB19_33:                              # %if.end85
	movabsq	$4294967295, %rcx       # imm = 0xFFFFFFFF
	testq	%rcx, %rax
	jne	.LBB19_40
# BB#34:                                # %land.lhs.true87
	movzbl	18(%r14), %eax
	testq	$8, %rax
	je	.LBB19_40
# BB#35:                                # %land.lhs.true94
	movl	16(%r15), %eax
	testq	$524288, %rax           # imm = 0x80000
	jne	.LBB19_40
# BB#36:                                # %land.lhs.true101
	andq	$255, %rax
	cmpq	$30, %rax
	je	.LBB19_38
# BB#37:                                # %land.lhs.true101
	movq	global_binding_level(%rip), %rax
	cmpq	%rax, %r13
	jne	.LBB19_40
.LBB19_38:                              # %land.lhs.true109
	cmpq	$0, 80(%r14)
	je	.LBB19_40
# BB#39:                                # %if.then112
	movq	32(%r14), %rsi
	movabsq	$.L.str138, %rdi
	xorq	%rax, %rax
	callq	pedwarn
	movq	80(%r14), %rax
	movq	32(%r14), %rcx
	movq	24(%rax), %rdi
	movl	32(%rax), %esi
	movabsq	$.L.str139, %rdx
	xorq	%rax, %rax
	callq	pedwarn_with_file_and_line
	movl	16(%r14), %eax
	orq	$2048, %rax             # imm = 0x800
	movl	%eax, 16(%r14)
.LBB19_40:                              # %if.end126
	testq	%r12, %r12
	je	.LBB19_97
# BB#41:                                # %land.lhs.true128
	movq	8(%r15), %rdi
	movq	8(%r12), %rsi
	callq	comptypes
	movzbl	16(%r15), %ecx
	movq	%rax, %r8
	xorq	%rax, %rax
	cmpq	$30, %rcx
	jne	.LBB19_45
# BB#42:                                # %land.rhs.i
	cmpq	$0, 104(%r15)
	je	.LBB19_43
# BB#44:                                # %land.rhs.i
	movabsq	$1, %rax
	jmp	.LBB19_45
.LBB19_43:
	movabsq	$0, %rax
.LBB19_45:                              # %land.end.i
	movq	%rax, 40(%rsp)          # 8-byte Spill
	movzbl	16(%r12), %eax
	movq	8(%r12), %r9
	movq	%r9, 64(%rsp)           # 8-byte Spill
	movzbl	tree_code_type(%rax), %edx
	movq	8(%r15), %r10
	movq	%r10, 72(%rsp)          # 8-byte Spill
	cmpq	$100, %rdx
	jne	.LBB19_67
# BB#46:                                # %if.then.i926
	movq	%r10, 72(%rsp)          # 8-byte Spill
	movq	%r9, 64(%rsp)           # 8-byte Spill
	movq	%r13, 48(%rsp)          # 8-byte Spill
	movq	%r8, %r13
	cmpq	$30, %rcx
	jne	.LBB19_66
# BB#47:                                # %if.then.i926
	cmpq	$30, %rax
	jne	.LBB19_66
# BB#48:                                # %land.lhs.true27.i
	movq	48(%r15), %rax
	movabsq	$68719476736, %rcx      # imm = 0x1000000000
	andq	%rcx, %rax
	jne	.LBB19_50
# BB#49:                                # %lor.lhs.false.i
	movq	48(%r12), %rcx
	movabsq	$68719476736, %rdx      # imm = 0x1000000000
	testq	%rdx, %rcx
	je	.LBB19_66
.LBB19_50:                              # %if.then38.i
	movq	200(%r15), %rcx
	movzbl	(%rcx), %ecx
	testq	$1, %rcx
	je	.LBB19_53
# BB#51:                                # %if.then38.i
	testq	%rax, %rax
	je	.LBB19_53
# BB#52:                                # %land.lhs.true52.i
	movq	136(%r15), %rsi
	movabsq	$.L.str177, %rdi
	callq	lookup_attribute
	testq	%rax, %rax
	jne	.LBB19_66
.LBB19_53:                              # %if.else.i929
	movq	200(%r12), %rax
	movzbl	(%rax), %eax
	testq	$1, %rax
	je	.LBB19_56
# BB#54:                                # %land.lhs.true64.i
	movq	48(%r12), %rax
	movabsq	$68719476736, %rcx      # imm = 0x1000000000
	testq	%rcx, %rax
	je	.LBB19_56
# BB#55:                                # %land.lhs.true72.i
	movq	136(%r12), %rsi
	movabsq	$.L.str177, %rdi
	callq	lookup_attribute
	testq	%rax, %rax
	jne	.LBB19_66
.LBB19_56:                              # %if.else78.i
	movq	200(%r15), %rax
	movzbl	(%rax), %eax
	testq	$1, %rax
	je	.LBB19_61
# BB#57:                                # %land.lhs.true86.i
	movq	200(%r12), %rax
	movzbl	(%rax), %eax
	testq	$1, %rax
	jne	.LBB19_61
# BB#58:                                # %land.lhs.true94.i
	movq	48(%r12), %rax
	movabsq	$68719476736, %rcx      # imm = 0x1000000000
	testq	%rcx, %rax
	je	.LBB19_61
# BB#59:                                # %land.lhs.true102.i
	movq	136(%r12), %rsi
	movabsq	$.L.str177, %rdi
	callq	lookup_attribute
	testq	%rax, %rax
	je	.LBB19_61
# BB#60:                                # %if.then107.i
	movabsq	$.L.str328, %rsi
	xorq	%rax, %rax
	movq	%r15, %rdi
	callq	warning_with_decl
	movabsq	$.L.str329, %rsi
	jmp	.LBB19_65
.LBB19_24:
	xorq	%r12, %r12
	jmp	.LBB19_33
.LBB19_61:                              # %if.else108.i
	movq	200(%r12), %rax
	movzbl	(%rax), %eax
	testq	$1, %rax
	je	.LBB19_66
# BB#62:                                # %land.lhs.true116.i
	movq	48(%r15), %rax
	movabsq	$68719476736, %rcx      # imm = 0x1000000000
	testq	%rcx, %rax
	je	.LBB19_66
# BB#63:                                # %land.lhs.true124.i
	movq	136(%r15), %rsi
	movabsq	$.L.str177, %rdi
	callq	lookup_attribute
	testq	%rax, %rax
	je	.LBB19_66
# BB#64:                                # %if.then129.i
	movabsq	$.L.str330, %rsi
	xorq	%rax, %rax
	movq	%r15, %rdi
	callq	warning_with_decl
	movabsq	$.L.str331, %rsi
.LBB19_65:                              # %if.end133.i
	xorq	%rax, %rax
	movq	%r12, %rdi
	callq	warning_with_decl
.LBB19_66:                              # %if.end133.i
	movq	%r12, %rdi
	movq	%r15, %rsi
	callq	*targetm+240(%rip)
	movq	%rax, 136(%r15)
	movq	%r13, %r8
	movq	48(%rsp), %r13          # 8-byte Reload
	movq	64(%rsp), %r9           # 8-byte Reload
	movq	72(%rsp), %r10          # 8-byte Reload
.LBB19_67:                              # %if.end137.i
	movzbl	16(%r10), %eax
	testq	%rax, %rax
	je	.LBB19_69
# BB#68:                                # %lor.lhs.false144.i
	movzbl	16(%r9), %eax
	testq	%rax, %rax
	jne	.LBB19_70
.LBB19_69:                              # %if.then151.i
	xorq	%r8, %r8
.LBB19_70:                              # %if.end152.i
	movq	%r8, 56(%rsp)           # 8-byte Spill
	movl	16(%r12), %eax
	movl	16(%r15), %ecx
	movq	%rax, %rdx
	andq	$255, %rdx
	movq	%rcx, %rsi
	andq	$255, %rsi
	cmpq	%rsi, %rdx
	jne	.LBB19_71
# BB#84:                                # %if.end230.i
	movabsq	$4294967295, %rsi       # imm = 0xFFFFFFFF
	testq	%rsi, %r8
	je	.LBB19_88
# BB#85:                                # %if.end230.i
	cmpq	$35, %rdx
	jne	.LBB19_88
# BB#86:                                # %if.end230.i
	movq	%rax, %rsi
	andq	$16384, %rsi            # imm = 0x4000
	movabsq	$4294967295, %rdi       # imm = 0xFFFFFFFF
	testq	%rdi, %rsi
	je	.LBB19_88
# BB#87:                                # %if.end230.i
	movq	%rcx, %rsi
	andq	$16384, %rsi            # imm = 0x4000
	movabsq	$4294967295, %rdi       # imm = 0xFFFFFFFF
	testq	%rdi, %rsi
	je	.LBB19_375
.LBB19_88:                              # %if.end253.i
	movl	flag_traditional(%rip), %esi
	testq	%rsi, %rsi
	je	.LBB19_93
# BB#89:                                # %if.end253.i
	cmpq	$30, %rdx
	jne	.LBB19_93
# BB#90:                                # %land.lhs.true262.i
	movq	72(%r15), %rsi
	movq	80(%rsi), %rsi
	cmpq	%r12, %rsi
	jne	.LBB19_93
# BB#91:                                # %land.lhs.true266.i
	cmpq	$0, 104(%r12)
	je	.LBB19_92
.LBB19_93:                              # %if.else272.i
	cmpq	$30, %rdx
	jne	.LBB19_132
# BB#94:                                # %land.lhs.true279.i
	movzbl	51(%r12), %esi
	testq	$96, %rsi
	je	.LBB19_127
# BB#95:                                # %if.then288.i
	testq	$524288, %rcx           # imm = 0x80000
	je	.LBB19_96
# BB#101:                               # %if.else299.i
	movabsq	$4294967295, %rax       # imm = 0xFFFFFFFF
	testq	%rax, %r8
	je	.LBB19_102
# BB#118:                               # %if.else398.i
	cmpq	$0, 24(%r9)
	je	.LBB19_120
# BB#119:
	movq	%r9, 64(%rsp)           # 8-byte Spill
	jmp	.LBB19_125
.LBB19_71:                              # %if.then163.i
	cmpq	$30, %rdx
	jne	.LBB19_83
# BB#72:                                # %land.lhs.true170.i
	movq	48(%r12), %rdx
	andq	$1610612736, %rdx       # imm = 0x60000000
	jne	.LBB19_74
# BB#73:                                # %land.lhs.true170.i
	andq	$8192, %rax             # imm = 0x2000
	movabsq	$4294967295, %rsi       # imm = 0xFFFFFFFF
	testq	%rsi, %rax
	jne	.LBB19_74
.LBB19_83:                              # %if.else228.i
	movabsq	$.L.str336, %rsi
	xorq	%rax, %rax
	movq	%r15, %rdi
	callq	error_with_decl
	movabsq	$.L.str139, %rsi
.LBB19_208:                             # %land.end686.i
	xorq	%rax, %rax
	movq	%r12, %rdi
	callq	error_with_decl
	jmp	.LBB19_97
.LBB19_74:                              # %if.then184.i
	testq	$524288, %rcx           # imm = 0x80000
	je	.LBB19_75
# BB#80:                                # %if.else206.i
	testq	%rdx, %rdx
	je	.LBB19_81
# BB#82:                                # %if.else216.i
	movabsq	$.L.str335, %rsi
	jmp	.LBB19_78
.LBB19_75:                              # %if.then190.i
	movl	warn_shadow(%rip), %eax
	testq	%rax, %rax
	je	.LBB19_97
# BB#76:                                # %if.else193.i
	testq	%rdx, %rdx
	jne	.LBB19_77
# BB#79:                                # %if.else203.i
	movabsq	$.L.str333, %rsi
	jmp	.LBB19_78
.LBB19_127:                             # %land.lhs.true436.i
	movl	32(%r12), %esi
	testq	%rsi, %rsi
	je	.LBB19_128
.LBB19_132:                             # %if.else464.i
	movabsq	$4294967295, %rsi       # imm = 0xFFFFFFFF
	testq	%rsi, %r8
	jne	.LBB19_157
# BB#133:                               # %land.lhs.true466.i
	cmpq	$30, %rdx
	jne	.LBB19_152
# BB#134:                               # %land.lhs.true480.i
	movq	8(%r9), %rax
	movzbl	16(%rax), %eax
	cmpq	$13, %rax
	jne	.LBB19_151
# BB#135:                               # %land.lhs.true489.i
	movq	8(%r10), %rax
	movzbl	16(%rax), %ecx
	cmpq	$13, %rcx
	jne	.LBB19_151
# BB#136:                               # %land.lhs.true498.i
	movzbl	50(%r12), %ecx
	testq	$1, %rcx
	jne	.LBB19_138
# BB#137:                               # %lor.lhs.false505.i
	movzbl	50(%r15), %ecx
	testq	$1, %rcx
	je	.LBB19_151
.LBB19_138:                             # %land.lhs.true513.i
	movq	8(%rax), %rax
	movq	128(%rax), %rax
	movq	global_trees+216(%rip), %rcx
	cmpq	%rcx, %rax
	jne	.LBB19_142
# BB#139:                               # %land.lhs.true521.i
	cmpq	$0, 24(%r9)
	jne	.LBB19_142
# BB#140:                               # %land.lhs.true526.i
	movq	24(%r10), %rdi
	movq	%r13, 48(%rsp)          # 8-byte Spill
	movq	%r8, 56(%rsp)           # 8-byte Spill
	movq	%r9, %r13
	movq	%r10, 72(%rsp)          # 8-byte Spill
	callq	self_promoting_args_p
	movq	72(%rsp), %r10          # 8-byte Reload
	movq	%r13, %r9
	movq	56(%rsp), %r8           # 8-byte Reload
	movq	48(%rsp), %r13          # 8-byte Reload
	movabsq	$4294967295, %rcx       # imm = 0xFFFFFFFF
	testq	%rcx, %rax
	je	.LBB19_142
# BB#141:                               # %land.lhs.true531.i
	movq	8(%r9), %rax
	movq	8(%rax), %rcx
	movq	integer_types(%rip), %rdx
	cmpq	%rdx, %rcx
	je	.LBB19_146
.LBB19_142:                             # %lor.lhs.false538.i
	movq	8(%r10), %rax
	movq	8(%rax), %rax
	movq	integer_types(%rip), %rcx
	cmpq	%rcx, %rax
	jne	.LBB19_151
# BB#143:                               # %land.lhs.true545.i
	cmpq	$0, 24(%r10)
	jne	.LBB19_151
# BB#144:                               # %land.lhs.true550.i
	movq	24(%r9), %rdi
	movq	%r13, 48(%rsp)          # 8-byte Spill
	movq	%r8, 56(%rsp)           # 8-byte Spill
	movq	%r9, %r13
	movq	%r10, 72(%rsp)          # 8-byte Spill
	callq	self_promoting_args_p
	movq	72(%rsp), %r10          # 8-byte Reload
	movq	%r13, %r9
	movq	56(%rsp), %r8           # 8-byte Reload
	movq	48(%rsp), %r13          # 8-byte Reload
	movabsq	$4294967295, %rcx       # imm = 0xFFFFFFFF
	testq	%rcx, %rax
	je	.LBB19_151
# BB#145:                               # %land.lhs.true555.i
	movq	8(%r9), %rax
	movq	8(%rax), %rcx
	movq	128(%rcx), %rcx
	movq	global_trees+216(%rip), %rdx
	cmpq	%rdx, %rcx
	je	.LBB19_146
.LBB19_151:                             # %if.else585.land.lhs.true587_crit_edge.i
	movl	16(%r12), %eax
.LBB19_152:                             # %land.lhs.true587.i
	andq	$255, %rax
	cmpq	$30, %rax
	jne	.LBB19_166
# BB#153:                               # %land.lhs.true587.i
	movl	pedantic(%rip), %eax
	movabsq	$4294967295, %rcx       # imm = 0xFFFFFFFF
	testq	%rcx, %rax
	jne	.LBB19_166
# BB#154:                               # %land.lhs.true596.i
	movq	8(%r9), %rdi
	movq	8(%r10), %rsi
	movq	%r13, 48(%rsp)          # 8-byte Spill
	movq	%r8, 56(%rsp)           # 8-byte Spill
	movq	%r9, %r13
	movq	%r10, 72(%rsp)          # 8-byte Spill
	callq	comptypes
	movq	72(%rsp), %r10          # 8-byte Reload
	movq	%r13, %r9
	movq	56(%rsp), %r8           # 8-byte Reload
	movq	48(%rsp), %r13          # 8-byte Reload
	movabsq	$4294967295, %rcx       # imm = 0xFFFFFFFF
	testq	%rcx, %rax
	je	.LBB19_166
# BB#155:                               # %land.lhs.true603.i
	cmpq	$0, 24(%r10)
	je	.LBB19_156
.LBB19_166:                             # %if.then608.i
	movq	%r10, 72(%rsp)          # 8-byte Spill
	movq	%r9, 64(%rsp)           # 8-byte Spill
	movq	%r13, 48(%rsp)          # 8-byte Spill
	movabsq	$.L.str338, %rsi
	xorq	%rax, %rax
	movq	$0, 56(%rsp)            # 8-byte Folded Spill
	movq	%r15, %rdi
	callq	error_with_decl
	movzbl	16(%r12), %eax
	cmpq	$30, %rax
	jne	.LBB19_172
# BB#167:                               # %land.lhs.true615.i
	movq	64(%rsp), %rax          # 8-byte Reload
	movq	8(%rax), %rdi
	movq	72(%rsp), %rax          # 8-byte Reload
	movq	8(%rax), %rsi
	callq	comptypes
	movabsq	$4294967295, %rcx       # imm = 0xFFFFFFFF
	testq	%rcx, %rax
	je	.LBB19_172
# BB#168:                               # %land.lhs.true622.i
	movq	64(%rsp), %rax          # 8-byte Reload
	movq	24(%rax), %r13
	testq	%r13, %r13
	jne	.LBB19_170
# BB#169:                               # %land.lhs.true627.i
	cmpq	$0, 104(%r12)
	je	.LBB19_173
.LBB19_170:                             # %lor.lhs.false632.i
	movq	72(%rsp), %rax          # 8-byte Reload
	cmpq	$0, 24(%rax)
	jne	.LBB19_172
# BB#171:                               # %land.lhs.true637.i
	cmpq	$0, 104(%r15)
	je	.LBB19_174
	jmp	.LBB19_172
.LBB19_81:                              # %if.then215.i
	movabsq	$.L.str334, %rsi
	jmp	.LBB19_78
.LBB19_96:                              # %if.then295.i
	movl	warn_shadow(%rip), %eax
	testq	%rax, %rax
	je	.LBB19_97
.LBB19_77:                              # %if.then202.i
	movabsq	$.L.str332, %rsi
	jmp	.LBB19_78
.LBB19_92:
	movq	%r10, 72(%rsp)          # 8-byte Spill
	movq	%r9, 64(%rsp)           # 8-byte Spill
	jmp	.LBB19_265
.LBB19_102:                             # %if.then301.i
	movq	8(%r9), %rax
	movq	8(%r10), %rdi
	movl	60(%rax), %eax
	movl	60(%rdi), %ecx
	xorq	%rax, %rcx
	xorq	%r8, %r8
	testq	$65024, %rcx            # imm = 0xFE00
	jne	.LBB19_106
# BB#103:                               # %if.then317.i
	movq	24(%r9), %rsi
	movq	%r9, 64(%rsp)           # 8-byte Spill
	movq	%r10, 72(%rsp)          # 8-byte Spill
	callq	build_function_type
	movq	64(%rsp), %rcx          # 8-byte Reload
	movq	48(%rcx), %rsi
	movq	%rax, %rdi
	callq	build_type_attribute_variant
	movq	%rax, 56(%rsp)          # 8-byte Spill
	movq	72(%rsp), %rdi          # 8-byte Reload
	movq	%rax, %rsi
	callq	comptypes
	movq	%rax, %r8
	movabsq	$4294967295, %rax       # imm = 0xFFFFFFFF
	testq	%rax, %r8
	je	.LBB19_105
# BB#104:                               # %if.then317.i
	movq	56(%rsp), %rax          # 8-byte Reload
	movq	%rax, 64(%rsp)          # 8-byte Spill
.LBB19_105:                             # %if.then317.i
	movq	64(%rsp), %r9           # 8-byte Reload
	movq	72(%rsp), %r10          # 8-byte Reload
.LBB19_106:                             # %if.end327.i
	movq	8(%r15), %rax
	cmpq	$0, 24(%rax)
	je	.LBB19_115
# BB#107:                               # %land.lhs.true334.i
	movq	24(%r9), %rax
	testq	%rax, %rax
	je	.LBB19_115
# BB#108:                               # %land.lhs.true339.i
	movq	24(%r10), %rcx
	movq	32(%rcx), %rsi
	testq	%rsi, %rsi
	je	.LBB19_115
# BB#109:                               # %land.lhs.true344.i
	movq	32(%rax), %rcx
	testq	%rcx, %rcx
	je	.LBB19_115
# BB#110:                               # %land.lhs.true351.i
	movq	%r10, 72(%rsp)          # 8-byte Spill
	movl	60(%rsi), %edx
	movl	60(%rcx), %ecx
	xorq	%rdx, %rcx
	testq	$65024, %rcx            # imm = 0xFE00
	jne	.LBB19_114
# BB#111:                               # %if.then372.i
	movq	8(%r9), %rcx
	movq	%rcx, 56(%rsp)          # 8-byte Spill
	movq	(%rax), %rdx
	xorq	%rdi, %rdi
	movq	%r9, 64(%rsp)           # 8-byte Spill
	callq	tree_cons
	movq	56(%rsp), %rdi          # 8-byte Reload
	movq	%rax, %rsi
	callq	build_function_type
	movq	64(%rsp), %rcx          # 8-byte Reload
	movq	48(%rcx), %rsi
	movq	%rax, %rdi
	callq	build_type_attribute_variant
	movq	%rax, 56(%rsp)          # 8-byte Spill
	movq	72(%rsp), %rdi          # 8-byte Reload
	movq	%rax, %rsi
	callq	comptypes
	movq	%rax, %r8
	movabsq	$4294967295, %rax       # imm = 0xFFFFFFFF
	testq	%rax, %r8
	je	.LBB19_113
# BB#112:                               # %if.then372.i
	movq	56(%rsp), %rax          # 8-byte Reload
	movq	%rax, 64(%rsp)          # 8-byte Spill
.LBB19_113:                             # %if.then372.i
	movq	64(%rsp), %r9           # 8-byte Reload
.LBB19_114:                             # %if.end392.i
	movq	72(%rsp), %r10          # 8-byte Reload
.LBB19_115:                             # %if.end392.i
	testq	%rbx, %rbx
	je	.LBB19_117
# BB#116:
	movq	%r9, 64(%rsp)           # 8-byte Spill
	jmp	.LBB19_125
.LBB19_128:                             # %if.then440.i
	testq	$524288, %rcx           # imm = 0x80000
	je	.LBB19_97
# BB#129:                               # %if.else448.i
	movq	%r9, 64(%rsp)           # 8-byte Spill
	movabsq	$4294967295, %rdx       # imm = 0xFFFFFFFF
	testq	%rdx, %r8
	je	.LBB19_131
# BB#130:
	movq	%r10, 72(%rsp)          # 8-byte Spill
	jmp	.LBB19_265
.LBB19_120:                             # %land.lhs.true403.i
	movq	24(%r10), %rsi
	testq	%rsi, %rsi
	je	.LBB19_121
# BB#122:                               # %if.then408.i
	movq	%r10, 72(%rsp)          # 8-byte Spill
	movq	%r13, 48(%rsp)          # 8-byte Spill
	movq	%r8, 56(%rsp)           # 8-byte Spill
	movq	8(%r9), %rdi
	movq	%r9, %r13
	callq	build_function_type
	movq	48(%r13), %rsi
	movq	%rax, %rdi
	callq	build_type_attribute_variant
	testq	%rbx, %rbx
	jne	.LBB19_124
# BB#123:                               # %if.then419.i
	movq	%rax, 8(%r12)
.LBB19_124:                             # %if.end425.i
	movq	%rax, 64(%rsp)          # 8-byte Spill
	movq	56(%rsp), %r8           # 8-byte Reload
	movq	48(%rsp), %r13          # 8-byte Reload
	movq	72(%rsp), %r10          # 8-byte Reload
	jmp	.LBB19_125
.LBB19_156:                             # %land.lhs.true603.i.if.else674.i_crit_edge
	movl	16(%r15), %ecx
.LBB19_157:                             # %if.else674.i
	movq	%rcx, %rax
	andq	$255, %rax
	cmpq	$30, %rax
	jne	.LBB19_158
# BB#182:                               # %if.then33.i.i
	cmpq	$0, 104(%r12)
	je	.LBB19_217
# BB#183:                               # %land.lhs.true36.i.i
	cmpq	$0, 104(%r15)
	je	.LBB19_217
# BB#184:                               # %land.lhs.true40.i.i
	movq	200(%r12), %rcx
	movzbl	(%rcx), %ecx
	testq	$1, %rcx
	je	.LBB19_188
# BB#185:                               # %land.lhs.true46.i.i
	movzbl	49(%r12), %ecx
	testq	$1, %rcx
	je	.LBB19_188
# BB#186:                               # %land.lhs.true53.i.i
	movq	200(%r15), %rcx
	movzbl	(%rcx), %ecx
	testq	$1, %rcx
	je	.LBB19_209
# BB#187:                               # %land.lhs.true61.i.i
	movzbl	49(%r15), %ecx
	testq	$1, %rcx
	jne	.LBB19_188
	jmp	.LBB19_209
.LBB19_158:                             # %if.else674.i
	cmpq	$33, %rax
	jne	.LBB19_192
# BB#159:                               # %if.then.i.i
	movl	flag_traditional(%rip), %ecx
	testq	%rcx, %rcx
	je	.LBB19_162
# BB#160:                               # %land.lhs.true.i.i
	movq	8(%r15), %rcx
	movq	8(%r12), %rdx
	cmpq	%rdx, %rcx
	je	.LBB19_210
# BB#161:                               # %land.lhs.true7.i.i
	movq	128(%rdx), %rdx
	cmpq	%rcx, %rdx
	je	.LBB19_209
.LBB19_162:                             # %if.end15.i.i
	movzbl	50(%r12), %ecx
	testq	$1, %rcx
	jne	.LBB19_209
# BB#163:                               # %lor.lhs.false.i.i
	movq	48(%r15), %rdx
	movq	$16, %rcx
	shrq	%cl, %rdx
	notq	%rdx
	andq	$1, %rdx
.LBB19_164:                             # %redeclaration_error_message.exit.i
	movabsq	$4294967295, %rcx       # imm = 0xFFFFFFFF
	andq	%rcx, %rdx
	cmpq	$3, %rdx
	ja	.LBB19_206
# BB#165:                               # %redeclaration_error_message.exit.i
	jmpq	*.LJTI19_0(,%rdx,8)
.LBB19_205:                             # %sw.bb679.i
	movabsq	$.L.str343, %rsi
	jmp	.LBB19_189
.LBB19_192:                             # %if.else71.i.i
	movq	80(%r15), %rdx
	testq	%rdx, %rdx
	je	.LBB19_193
# BB#198:                               # %if.else113.i.i
	movq	current_binding_level(%rip), %rsi
	movzbl	48(%rsi), %esi
	testq	%rsi, %rsi
	je	.LBB19_201
# BB#199:                               # %land.lhs.true115.i.i
	movl	16(%r12), %esi
	testq	$16384, %rsi            # imm = 0x4000
	je	.LBB19_201
# BB#200:                               # %land.lhs.true115.i.i
	andq	$16384, %rcx            # imm = 0x4000
	movabsq	$4294967295, %rsi       # imm = 0xFFFFFFFF
	testq	%rsi, %rcx
	je	.LBB19_209
.LBB19_201:                             # %if.else129.i.i
	movzbl	49(%r15), %ecx
	testq	$1, %rcx
	je	.LBB19_203
# BB#202:                               # %land.lhs.true137.i.i
	movzbl	49(%r12), %ecx
	testq	$1, %rcx
	jne	.LBB19_209
.LBB19_203:                             # %land.lhs.true145.i.i
	movq	80(%r12), %rcx
	cmpq	%rcx, %rdx
	jne	.LBB19_209
.LBB19_204:                             # %sw.bb678.i
	movabsq	$.L.str342, %rsi
	jmp	.LBB19_189
.LBB19_193:                             # %if.then74.i.i
	movzbl	49(%r15), %edx
	testq	$1, %rdx
	jne	.LBB19_209
# BB#194:                               # %lor.lhs.false82.i.i
	movzbl	49(%r12), %edx
	testq	$1, %rdx
	je	.LBB19_195
.LBB19_209:                             # %if.else688.i
	cmpq	$33, %rax
	jne	.LBB19_217
.LBB19_210:                             # %land.lhs.true695.i
	movzbl	50(%r12), %eax
	testq	$1, %rax
	jne	.LBB19_212
# BB#211:                               # %lor.lhs.false703.i
	movzbl	50(%r15), %eax
	testq	$1, %rax
	je	.LBB19_217
.LBB19_212:                             # %if.then711.i
	movq	%r10, 72(%rsp)          # 8-byte Spill
	movq	%r9, 64(%rsp)           # 8-byte Spill
	movq	%r8, 56(%rsp)           # 8-byte Spill
	movabsq	$.L.str341, %rsi
	xorq	%rax, %rax
	movq	%r15, %rdi
	callq	warning_with_decl
	cmpq	$0, 104(%r12)
	je	.LBB19_215
# BB#213:                               # %land.rhs715.i
	movq	current_binding_level(%rip), %rax
	movq	global_binding_level(%rip), %rcx
	cmpq	%rcx, %rax
	je	.LBB19_214
.LBB19_215:                             # %select.mid107
	movabsq	$.L.str345, %rsi
	jmp	.LBB19_216
.LBB19_217:                             # %if.else721.i
	movl	16(%r12), %eax
	movq	%rax, %rcx
	andq	$255, %rcx
	cmpq	$30, %rcx
	jne	.LBB19_239
# BB#218:                               # %land.lhs.true728.i
	cmpq	$0, 104(%r12)
	je	.LBB19_235
# BB#219:                               # %land.lhs.true733.i
	cmpq	$0, 24(%r9)
	jne	.LBB19_235
# BB#220:                               # %land.lhs.true738.i
	movq	24(%r10), %rcx
	testq	%rcx, %rcx
	je	.LBB19_235
# BB#221:                               # %land.lhs.true743.i
	movq	136(%r9), %rdx
	testq	%rdx, %rdx
	je	.LBB19_235
# BB#222:                               # %for.cond753.preheader.i
	movq	32(%rdx), %rdi
	movq	32(%rcx), %rsi
	movq	%rdx, 48(%rsp)          # 8-byte Spill
	movq	128(%rdi), %rdx
	movq	global_trees+216(%rip), %r11
	movq	128(%rsi), %rax
	cmpq	%r11, %rdx
	je	.LBB19_227
# BB#223:                               # %lor.lhs.false775.i.lr.ph
	movq	%rax, %rdx
	movq	48(%rsp), %rax          # 8-byte Reload
	leaq	32(%rax), %rax
	movq	%rax, 24(%rsp)          # 8-byte Spill
	leaq	32(%rcx), %rax
	movq	%rax, 16(%rsp)          # 8-byte Spill
	movq	%rdx, %rax
	movq	$1, 8(%rsp)             # 8-byte Folded Spill
.LBB19_224:                             # %lor.lhs.false775.i
                                        # =>This Inner Loop Header: Depth=1
	movq	%rcx, 32(%rsp)          # 8-byte Spill
	cmpq	%r11, %rax
	je	.LBB19_225
# BB#229:                               # %if.end783.i
                                        #   in Loop: Header=BB19_224 Depth=1
	callq	comptypes
	movabsq	$4294967295, %rcx       # imm = 0xFFFFFFFF
	testq	%rcx, %rax
	jne	.LBB19_226
# BB#230:                               # %land.lhs.true790.i
                                        #   in Loop: Header=BB19_224 Depth=1
	movl	flag_traditional(%rip), %eax
	testq	%rax, %rax
	je	.LBB19_233
# BB#231:                               # %land.lhs.true792.i
                                        #   in Loop: Header=BB19_224 Depth=1
	movq	24(%rsp), %rax          # 8-byte Reload
	movq	(%rax), %rax
	movq	128(%rax), %rax
	movq	integer_types+40(%rip), %rcx
	cmpq	%rcx, %rax
	jne	.LBB19_233
# BB#232:                               # %land.lhs.true799.i
                                        #   in Loop: Header=BB19_224 Depth=1
	movq	16(%rsp), %rax          # 8-byte Reload
	movq	(%rax), %rax
	movq	128(%rax), %rax
	movq	integer_types+48(%rip), %rcx
	cmpq	%rcx, %rax
	jne	.LBB19_233
.LBB19_226:                             # %for.inc808.i
                                        #   in Loop: Header=BB19_224 Depth=1
	movq	48(%rsp), %rax          # 8-byte Reload
	movq	(%rax), %rax
	movq	%rax, 48(%rsp)          # 8-byte Spill
	movq	32(%rsp), %rcx          # 8-byte Reload
	movq	(%rcx), %rcx
	movq	32(%rax), %rdi
	movq	32(%rcx), %rsi
	incq	8(%rsp)                 # 8-byte Folded Spill
	movq	128(%rdi), %rdx
	movq	global_trees+216(%rip), %r11
	movq	128(%rsi), %r8
	leaq	32(%rax), %rax
	movq	%rax, 24(%rsp)          # 8-byte Spill
	leaq	32(%rcx), %rax
	movq	%rax, 16(%rsp)          # 8-byte Spill
	movq	%r8, %rax
	cmpq	%r11, %rdx
	movq	56(%rsp), %r8           # 8-byte Reload
	movq	64(%rsp), %r9           # 8-byte Reload
	movq	72(%rsp), %r10          # 8-byte Reload
	jne	.LBB19_224
.LBB19_227:                             # %land.lhs.true760.i
	movq	%r8, 56(%rsp)           # 8-byte Spill
	cmpq	%rdx, %rax
	je	.LBB19_228
.LBB19_225:                             # %if.then782.i
	movq	%r10, 72(%rsp)          # 8-byte Spill
	movq	%r9, 64(%rsp)           # 8-byte Spill
	movabsq	$.L.str348, %rsi
	xorq	%rax, %rax
	movq	$0, 32(%rsp)            # 8-byte Folded Spill
	movq	%r15, %rdi
	callq	error_with_decl
	jmp	.LBB19_234
.LBB19_235:                             # %land.lhs.true821.i
	movq	200(%r12), %rcx
	movzbl	(%rcx), %ecx
	testq	$1, %rcx
	jne	.LBB19_239
# BB#236:                               # %land.lhs.true829.i
	movq	200(%r15), %rcx
	movzbl	(%rcx), %ecx
	testq	$1, %rcx
	je	.LBB19_239
# BB#237:                               # %land.lhs.true829.i
	movq	%rax, %rcx
	andq	$65536, %rcx            # imm = 0x10000
	movabsq	$4294967295, %rdx       # imm = 0xFFFFFFFF
	testq	%rdx, %rcx
	je	.LBB19_239
# BB#238:                               # %if.then843.i
	movabsq	$.L.str350, %rsi
	xorq	%rax, %rax
	movq	%r15, %rdi
	movq	%r13, 48(%rsp)          # 8-byte Spill
	movq	%r8, 56(%rsp)           # 8-byte Spill
	movq	%r9, %r13
	movq	%r10, 72(%rsp)          # 8-byte Spill
	callq	warning_with_decl
	movq	72(%rsp), %r10          # 8-byte Reload
	movq	%r13, %r9
	movq	56(%rsp), %r8           # 8-byte Reload
	movq	48(%rsp), %r13          # 8-byte Reload
	movl	16(%r12), %eax
.LBB19_239:                             # %if.end844.i
	movq	%rax, %rcx
	andq	$255, %rcx
	cmpq	$30, %rcx
	jne	.LBB19_244
# BB#240:                               # %land.lhs.true851.i
	movq	200(%r12), %rcx
	movzbl	(%rcx), %ecx
	testq	$1, %rcx
	jne	.LBB19_244
# BB#241:                               # %land.lhs.true859.i
	movq	200(%r15), %rcx
	movzbl	(%rcx), %ecx
	testq	$1, %rcx
	je	.LBB19_244
# BB#242:                               # %land.lhs.true867.i
	cmpq	$0, 104(%r12)
	je	.LBB19_244
# BB#243:                               # %if.then872.i
	movabsq	$.L.str351, %rsi
	xorq	%rax, %rax
	movq	%r15, %rdi
	movq	%r13, 48(%rsp)          # 8-byte Spill
	movq	%r8, 56(%rsp)           # 8-byte Spill
	movq	%r9, %r13
	movq	%r10, 72(%rsp)          # 8-byte Spill
	callq	warning_with_decl
	movq	72(%rsp), %r10          # 8-byte Reload
	movq	%r13, %r9
	movq	56(%rsp), %r8           # 8-byte Reload
	movq	48(%rsp), %r13          # 8-byte Reload
	movl	16(%r12), %eax
.LBB19_244:                             # %if.end873.i
	movq	%r9, 64(%rsp)           # 8-byte Spill
	movq	%r8, 56(%rsp)           # 8-byte Spill
	movl	pedantic(%rip), %ecx
	movq	%rax, %rdi
	andq	$255, %rdi
	testq	%rcx, %rcx
	movabsq	$0, %rcx
	movabsq	$1, %rsi
	movq	%rcx, %rdx
	jne	.LBB19_246
# BB#245:                               # %if.end873.i
	movq	%rsi, %rdx
.LBB19_246:                             # %if.end873.i
	movq	%r10, 72(%rsp)          # 8-byte Spill
	cmpq	$30, %rdi
	je	.LBB19_248
# BB#247:                               # %if.end873.i
	movq	%rsi, %rcx
.LBB19_248:                             # %if.end873.i
	testq	%rdx, %rcx
	jne	.LBB19_252
# BB#249:                               # %if.end873.i
	andq	$524288, %rax           # imm = 0x80000
	movabsq	$4294967295, %rcx       # imm = 0xFFFFFFFF
	testq	%rcx, %rax
	je	.LBB19_252
# BB#250:                               # %land.lhs.true889.i
	movzbl	18(%r15), %eax
	testq	$8, %rax
	jne	.LBB19_252
# BB#251:                               # %if.then896.i
	movabsq	$.L.str352, %rsi
	xorq	%rax, %rax
	movq	%r15, %rdi
	callq	warning_with_decl
.LBB19_252:                             # %if.end897.i
	movl	warn_traditional(%rip), %eax
	testq	%rax, %rax
	je	.LBB19_257
# BB#253:                               # %if.end897.i
	movl	in_system_header(%rip), %eax
	movabsq	$4294967295, %rcx       # imm = 0xFFFFFFFF
	testq	%rcx, %rax
	jne	.LBB19_257
# BB#254:                               # %land.lhs.true901.i
	movl	16(%r12), %eax
	andq	$524543, %rax           # imm = 0x800FF
	cmpq	$30, %rax
	jne	.LBB19_257
# BB#255:                               # %land.lhs.true915.i
	movzbl	18(%r15), %eax
	testq	$8, %rax
	je	.LBB19_257
# BB#256:                               # %if.then922.i
	movabsq	$.L.str353, %rsi
	xorq	%rax, %rax
	movq	%r15, %rdi
	callq	warning_with_decl
.LBB19_257:                             # %if.end923.i
	movl	16(%r12), %eax
	movq	%rax, %rcx
	andq	$255, %rcx
	cmpq	$30, %rcx
	je	.LBB19_261
# BB#258:                               # %if.end923.i
	movq	%rax, %rdx
	andq	$4096, %rdx             # imm = 0x1000
	movabsq	$4294967295, %rsi       # imm = 0xFFFFFFFF
	testq	%rsi, %rdx
	jne	.LBB19_261
# BB#259:                               # %land.lhs.true936.i
	movzbl	17(%r15), %edx
	testq	$16, %rdx
	je	.LBB19_261
# BB#260:                               # %if.then943.i
	movabsq	$.L.str354, %rsi
	xorq	%rax, %rax
	movq	%r15, %rdi
	callq	warning_with_decl
	jmp	.LBB19_265
.LBB19_261:                             # %if.else944.i
	movl	pedantic(%rip), %edx
	testq	%rdx, %rdx
	je	.LBB19_265
# BB#262:                               # %if.else944.i
	cmpq	$30, %rcx
	je	.LBB19_265
# BB#263:                               # %land.lhs.true953.i
	movl	16(%r15), %ecx
	xorq	%rax, %rcx
	testq	$6144, %rcx             # imm = 0x1800
	je	.LBB19_265
# BB#264:                               # %if.then979.i
	movabsq	$.L.str355, %rsi
	xorq	%rax, %rax
	movq	%r15, %rdi
	callq	pedwarn_with_decl
	jmp	.LBB19_265
.LBB19_117:                             # %if.then394.i
	movq	%r9, 8(%r12)
	movq	%r9, 64(%rsp)           # 8-byte Spill
	jmp	.LBB19_125
.LBB19_214:
	movabsq	$.L.str344, %rsi
.LBB19_216:                             # %land.end718.i
	xorq	%rax, %rax
	movq	%r12, %rdi
	callq	warning_with_decl
	jmp	.LBB19_265
.LBB19_121:
	movq	%r9, 64(%rsp)           # 8-byte Spill
.LBB19_125:                             # %if.end425.i
	movq	%r10, 72(%rsp)          # 8-byte Spill
	movq	%r8, 56(%rsp)           # 8-byte Spill
	movabsq	$4294967295, %rax       # imm = 0xFFFFFFFF
	testq	%rax, %r8
	jne	.LBB19_265
# BB#126:                               # %if.then427.i
	movabsq	$.L.str337, %rsi
.LBB19_78:                              # %if.end148
	xorq	%rax, %rax
	movq	%r15, %rdi
	callq	warning_with_decl
	jmp	.LBB19_97
.LBB19_131:                             # %if.then450.i
	movq	%r10, 72(%rsp)          # 8-byte Spill
	andq	$2048, %rax             # imm = 0x800
	orq	%rax, %rcx
	movl	%ecx, 16(%r15)
	movq	$0, 56(%rsp)            # 8-byte Folded Spill
	jmp	.LBB19_265
.LBB19_173:                             # %for.cond.preheader.i
	movq	72(%rsp), %rax          # 8-byte Reload
	movq	24(%rax), %r13
	jmp	.LBB19_174
.LBB19_181:                             # %for.inc.i
                                        #   in Loop: Header=BB19_174 Depth=1
	movq	(%r13), %r13
.LBB19_174:                             # %for.cond.preheader.i
                                        # =>This Inner Loop Header: Depth=1
	testq	%r13, %r13
	je	.LBB19_172
# BB#175:                               # %for.body.i933
                                        #   in Loop: Header=BB19_174 Depth=1
	movq	32(%r13), %rdi
	cmpq	$0, (%r13)
	jne	.LBB19_179
# BB#176:                               # %land.lhs.true659.i
                                        #   in Loop: Header=BB19_174 Depth=1
	movq	128(%rdi), %rax
	movq	global_trees+216(%rip), %rcx
	cmpq	%rcx, %rax
	jne	.LBB19_177
.LBB19_179:                             # %if.end665.i
                                        #   in Loop: Header=BB19_174 Depth=1
	callq	simple_type_promotes_to
	testq	%rax, %rax
	je	.LBB19_181
# BB#180:                               # %if.then669.i
	movabsq	$.L.str340, %rdi
	jmp	.LBB19_178
.LBB19_195:                             # %if.end91.i.i
	cmpq	$0, 104(%r12)
	je	.LBB19_197
# BB#196:                               # %land.lhs.true95.i.i
	cmpq	$0, 104(%r15)
	je	.LBB19_197
.LBB19_188:                             # %sw.bb.i
	movabsq	$.L.str341, %rsi
.LBB19_189:                             # %sw.epilog.i
	xorq	%rax, %rax
	movq	%r15, %rdi
	callq	error_with_decl
	cmpq	$0, 104(%r12)
	je	.LBB19_207
# BB#190:                               # %land.rhs683.i
	movq	current_binding_level(%rip), %rax
	movq	global_binding_level(%rip), %rcx
	cmpq	%rcx, %rax
	je	.LBB19_191
.LBB19_207:                             # %select.mid
	movabsq	$.L.str345, %rsi
	jmp	.LBB19_208
.LBB19_191:
	movabsq	$.L.str344, %rsi
	jmp	.LBB19_208
.LBB19_233:                             # %if.then806.i
	movabsq	$.L.str349, %rsi
	xorq	%rax, %rax
	movq	$0, 32(%rsp)            # 8-byte Folded Spill
	movq	%r15, %rdi
	movq	8(%rsp), %rdx           # 8-byte Reload
	callq	error_with_decl
.LBB19_234:                             # %if.end1032.i
	movabsq	$.L.str347, %rsi
	xorq	%rax, %rax
	movq	%r12, %rdi
	callq	error_with_decl
	movq	56(%rsp), %rcx          # 8-byte Reload
	jmp	.LBB19_276
.LBB19_197:                             # %if.end100.i.i
	movl	16(%r12), %edx
	xorq	%rcx, %rdx
	movq	$44, %rcx
	shlq	%cl, %rdx
	movq	$32, %rcx
	sarq	%cl, %rdx
	movq	$31, %rcx
	shrq	%cl, %rdx
	andq	$3, %rdx
	jmp	.LBB19_164
.LBB19_206:                             # %sw.default.i
	movabsq	$.L.str185, %rdi
	movabsq	$.L__FUNCTION__.duplicate_decls, %rdx
	movq	$1686, %rsi             # imm = 0x696
	callq	fancy_abort
.LBB19_228:                             # %if.then767.i
	movq	%r10, 72(%rsp)          # 8-byte Spill
	movq	%r9, 64(%rsp)           # 8-byte Spill
	movabsq	$.L.str346, %rsi
	xorq	%rax, %rax
	movq	%r15, %rdi
	callq	warning_with_decl
	movabsq	$.L.str347, %rsi
	jmp	.LBB19_216
.LBB19_146:                             # %if.then564.i
	movq	%r10, 72(%rsp)          # 8-byte Spill
	movq	%r9, 64(%rsp)           # 8-byte Spill
	movl	pedantic(%rip), %ecx
	testq	%rcx, %rcx
	je	.LBB19_148
# BB#147:                               # %if.then566.i
	movabsq	$.L.str338, %rcx
	xorq	%rax, %rax
	movq	%r15, %rdi
	movq	%rcx, %rsi
	callq	pedwarn_with_decl
	movq	64(%rsp), %rax          # 8-byte Reload
	movq	8(%rax), %rax
.LBB19_148:                             # %if.end567.i
	movq	8(%rax), %rax
	movq	128(%rax), %rax
	movq	global_trees+216(%rip), %rcx
	cmpq	%rcx, %rax
	jne	.LBB19_150
# BB#149:                               # %if.then576.i
	movq	64(%rsp), %rax          # 8-byte Reload
	movq	%rax, 8(%r15)
	movq	%rax, 72(%rsp)          # 8-byte Spill
.LBB19_150:                             # %if.end579.i
	orq	$65536, 48(%r15)        # imm = 0x10000
	movq	$0, 56(%rsp)            # 8-byte Folded Spill
	jmp	.LBB19_265
.LBB19_177:                             # %if.then664.i
	movabsq	$.L.str339, %rdi
.LBB19_178:                             # %if.end673.i
	xorq	%rax, %rax
	callq	error
.LBB19_172:                             # %if.end673.i
	movabsq	$.L.str139, %rsi
	xorq	%rax, %rax
	movq	%r12, %rdi
	callq	error_with_decl
	movq	48(%rsp), %r13          # 8-byte Reload
.LBB19_265:                             # %if.end989.i
	movl	warn_redundant_decls(%rip), %eax
	testq	%rax, %rax
	je	.LBB19_266
# BB#267:                               # %land.lhs.true994.i
	movq	$1, 32(%rsp)            # 8-byte Folded Spill
	movl	32(%r12), %eax
	testq	%rax, %rax
	je	.LBB19_268
# BB#269:                               # %land.lhs.true999.i
	movzbl	16(%r15), %eax
	cmpq	$30, %rax
	movq	56(%rsp), %rcx          # 8-byte Reload
	jne	.LBB19_272
# BB#270:                               # %land.lhs.true1006.i
	cmpq	$0, 104(%r15)
	je	.LBB19_272
# BB#271:                               # %land.lhs.true1011.i
	cmpq	$0, 104(%r12)
	je	.LBB19_276
.LBB19_272:                             # %land.lhs.true1016.i
	movq	%r13, 48(%rsp)          # 8-byte Spill
	movq	%rcx, %r13
	movzbl	49(%r12), %eax
	testq	$1, %rax
	je	.LBB19_274
# BB#273:                               # %land.lhs.true1023.i
	movzbl	49(%r15), %eax
	testq	$1, %rax
	je	.LBB19_275
.LBB19_274:                             # %if.then1031.i
	movabsq	$.L.str356, %rsi
	xorq	%rax, %rax
	movq	%r15, %rdi
	callq	warning_with_decl
	movabsq	$.L.str139, %rsi
	xorq	%rax, %rax
	movq	%r12, %rdi
	callq	warning_with_decl
.LBB19_275:                             # %if.end1032.i
	movq	%r13, %rcx
	movq	48(%rsp), %r13          # 8-byte Reload
	jmp	.LBB19_276
.LBB19_266:
	movq	$1, 32(%rsp)            # 8-byte Folded Spill
	movq	56(%rsp), %rcx          # 8-byte Reload
	jmp	.LBB19_276
.LBB19_268:
	movq	56(%rsp), %rcx          # 8-byte Reload
.LBB19_276:                             # %if.end1032.i
	movabsq	$4294967295, %rax       # imm = 0xFFFFFFFF
	testq	%rax, %rcx
	movq	64(%rsp), %rsi          # 8-byte Reload
	movq	72(%rsp), %rdi          # 8-byte Reload
	je	.LBB19_327
# BB#277:                               # %if.then1034.i
	testq	%rbx, %rbx
	movq	%r15, %rdx
	jne	.LBB19_279
# BB#278:                               # %if.then1034.i
	movq	%r12, %rdx
.LBB19_279:                             # %if.then1034.i
	movzbl	16(%r15), %eax
	cmpq	$30, %rax
	jne	.LBB19_282
# BB#280:                               # %lor.lhs.false1043.i
	movzbl	51(%r12), %eax
	testq	$96, %rax
	je	.LBB19_282
# BB#281:                               # %lor.lhs.false1043.if.end1085_crit_edge.i
	movq	%rdx, 48(%rsp)          # 8-byte Spill
	movq	%rcx, 56(%rsp)          # 8-byte Spill
	movq	8(%r15), %rax
	jmp	.LBB19_290
.LBB19_282:                             # %if.then1052.i
	movq	%rdx, 48(%rsp)          # 8-byte Spill
	testq	%rbx, %rbx
	je	.LBB19_288
# BB#283:                               # %if.then1054.i
	movq	%rcx, 56(%rsp)          # 8-byte Spill
	cmpq	$0, 24(%rsi)
	je	.LBB19_287
# BB#284:                               # %land.lhs.true1059.i
	cmpq	$0, 24(%rdi)
	je	.LBB19_285
.LBB19_287:                             # %if.else1068.i
	movq	48(%rdi), %rdi
	movq	48(%rsi), %rsi
	callq	merge_attributes
	movq	72(%rsp), %rdi          # 8-byte Reload
	movq	%rax, %rsi
	callq	build_type_attribute_variant
	movq	64(%rsp), %rsi          # 8-byte Reload
	jmp	.LBB19_289
.LBB19_327:                             # %if.else1429.i
	movq	%rcx, 56(%rsp)          # 8-byte Spill
	testq	%rbx, %rbx
	jne	.LBB19_329
# BB#328:                               # %if.then1431.i
	movq	8(%r15), %rax
	movq	%rax, 8(%r12)
	movl	16(%r15), %eax
	movl	16(%r12), %ecx
	andq	$4096, %rax             # imm = 0x1000
	andq	$-4097, %rcx            # imm = 0xFFFFFFFFFFFFEFFF
	orq	%rax, %rcx
	movl	%ecx, 16(%r12)
	movl	16(%r15), %eax
	andq	$2048, %rax             # imm = 0x800
	andq	$-2049, %rcx            # imm = 0xFFFFFFFFFFFFF7FF
	orq	%rax, %rcx
	movl	%ecx, 16(%r12)
	movl	16(%r15), %eax
	andq	$256, %rax              # imm = 0x100
	movabsq	$4294967039, %rdx       # imm = 0xFFFFFEFF
	andq	%rcx, %rdx
	orq	%rax, %rdx
	movl	%edx, 16(%r12)
	jmp	.LBB19_329
.LBB19_288:                             # %if.else1078.i
	movq	%rcx, 56(%rsp)          # 8-byte Spill
	callq	common_type
	movq	64(%rsp), %rsi          # 8-byte Reload
	movq	%rax, 8(%r12)
	jmp	.LBB19_289
.LBB19_285:                             # %if.then1064.i
	callq	common_type
	movq	64(%rsp), %rsi          # 8-byte Reload
.LBB19_289:                             # %if.end1085.i
	movq	%rax, 8(%r15)
.LBB19_290:                             # %if.end1085.i
	cmpq	%rax, %rsi
	je	.LBB19_296
# BB#291:                               # %if.then1090.i
	movq	global_trees(%rip), %rcx
	cmpq	%rcx, %rax
	je	.LBB19_293
# BB#292:                               # %if.then1095.i
	movq	%rax, %rdi
	callq	layout_type
.LBB19_293:                             # %if.end1098.i
	movzbl	16(%r15), %ecx
	cmpq	$33, %rcx
	ja	.LBB19_295
# BB#294:                               # %if.end1098.i
	movq	$1, %rax
	shlq	%cl, %rax
	movabsq	$13958643712, %rcx      # imm = 0x340000000
	testq	%rcx, %rax
	jne	.LBB19_299
.LBB19_295:                             # %if.then1119.i
	xorq	%rsi, %rsi
	movq	%r15, %rdi
	callq	layout_decl
	jmp	.LBB19_299
.LBB19_296:                             # %if.else1121.i
	movq	40(%r12), %rax
	movq	%rax, 40(%r15)
	movq	64(%r12), %rax
	movq	%rax, 64(%r15)
	movq	48(%r15), %rdx
	movzbl	48(%r12), %ecx
	movq	%rdx, %rax
	andq	$-256, %rax
	orq	%rcx, %rax
	movq	%rax, 48(%r15)
	movzbl	16(%r12), %ecx
	cmpq	$30, %rcx
	je	.LBB19_299
# BB#297:                               # %if.then1145.i
	movl	56(%r15), %ecx
	movl	56(%r12), %esi
	andq	$16777215, %rsi         # imm = 0xFFFFFF
	movq	%rcx, %rdi
	andq	$16777215, %rdi         # imm = 0xFFFFFF
	cmpq	%rdi, %rsi
	jbe	.LBB19_299
# BB#298:                               # %if.then1156.i
	movabsq	$4278190080, %rdi       # imm = 0xFF000000
	andq	%rdi, %rcx
	orq	%rsi, %rcx
	movl	%ecx, 56(%r15)
	movl	56(%r12), %esi
	movq	$35, %rcx
	shrq	%cl, %rdx
	orq	%rsi, %rdx
	andq	$1, %rdx
	shlq	$35, %rdx
	movabsq	$-34359738369, %rcx     # imm = 0xFFFFFFF7FFFFFFFF
	andq	%rcx, %rax
	orq	%rdx, %rax
	movq	%rax, 48(%r15)
.LBB19_299:                             # %if.end1188.i
	movq	144(%r12), %rax
	movq	%rax, 144(%r15)
	movl	16(%r12), %eax
	andq	$10495, %rax            # imm = 0x28FF
	cmpq	$10270, %rax            # imm = 0x281E
	movq	48(%rsp), %rsi          # 8-byte Reload
	jne	.LBB19_302
# BB#300:                               # %land.lhs.true1212.i
	movzbl	17(%r15), %eax
	testq	$8, %rax
	jne	.LBB19_302
# BB#301:                               # %if.then1219.i
	movl	16(%rsi), %eax
	movabsq	$4294965247, %rcx       # imm = 0xFFFFF7FF
	andq	%rax, %rcx
	movl	%ecx, 16(%rsi)
.LBB19_302:                             # %if.end1224.i
	movl	16(%r15), %eax
	testq	$4096, %rax             # imm = 0x1000
	je	.LBB19_304
# BB#303:                               # %if.then1231.i
	movl	16(%rsi), %eax
	orq	$4096, %rax             # imm = 0x1000
	movl	%eax, 16(%rsi)
	movl	16(%r15), %eax
.LBB19_304:                             # %if.end1237.i
	testq	$2048, %rax             # imm = 0x800
	je	.LBB19_310
# BB#305:                               # %if.then1244.i
	movl	16(%rsi), %eax
	orq	$2048, %rax             # imm = 0x800
	movl	%eax, 16(%rsi)
	movzbl	16(%r15), %eax
	cmpq	$34, %rax
	movq	32(%rsp), %rcx          # 8-byte Reload
	jne	.LBB19_306
# BB#307:                               # %if.then1244.i
	movabsq	$1, %rax
	jmp	.LBB19_308
.LBB19_306:
	movabsq	$0, %rax
.LBB19_308:                             # %if.then1244.i
	andq	%rcx, %rax
	cmpq	$1, %rax
	jne	.LBB19_310
# BB#309:                               # %if.then1259.i
	movq	%r15, %rdi
	callq	make_var_volatile
	movq	48(%rsp), %rsi          # 8-byte Reload
.LBB19_310:                             # %if.end1261.i
	movq	104(%r15), %rax
	testq	%rax, %rax
	jne	.LBB19_314
# BB#311:                               # %land.lhs.true1266.i
	cmpq	$0, 104(%r12)
	je	.LBB19_314
# BB#312:                               # %land.lhs.true1266.i
	testq	%rbx, %rbx
	jne	.LBB19_314
# BB#313:                               # %if.then1273.i
	movl	32(%r12), %ecx
	movl	%ecx, 32(%r15)
	movq	24(%r12), %rcx
	movq	%rcx, 24(%r15)
.LBB19_314:                             # %if.end1281.i
	movzbl	50(%r12), %edx
	movq	48(%r15), %rcx
	testq	$1, %rdx
	je	.LBB19_316
# BB#315:                               # %if.then1289.i
	orq	$65536, %rcx            # imm = 0x10000
	movq	%rcx, 48(%r15)
	jmp	.LBB19_318
.LBB19_316:                             # %if.else1295.i
	testq	$65536, %rcx            # imm = 0x10000
	je	.LBB19_318
# BB#317:                               # %if.then1303.i
	orq	$65536, 48(%rsi)        # imm = 0x10000
	movq	104(%r15), %rax
.LBB19_318:                             # %if.end1310.i
	testq	%rax, %rax
	jne	.LBB19_321
# BB#319:                               # %if.end1310.i
	testq	%rbx, %rbx
	jne	.LBB19_321
# BB#320:                               # %if.then1317.i
	movq	104(%r12), %rax
	movq	%rax, 104(%r15)
.LBB19_321:                             # %if.end1322.i
	cmpq	$0, 128(%r15)
	jne	.LBB19_323
# BB#322:                               # %if.then1326.i
	movq	128(%r12), %rax
	movq	%rax, 128(%r15)
.LBB19_323:                             # %if.end1331.i
	movq	120(%r12), %rax
	testq	%rax, %rax
	je	.LBB19_325
# BB#324:                               # %cond.end1342.i
	movq	%rax, 120(%r15)
.LBB19_325:                             # %cond.end1348.i
	movzbl	16(%r15), %eax
	cmpq	$30, %rax
	jne	.LBB19_329
# BB#326:                               # %if.then1355.i
	movq	48(%r12), %rax
	movq	48(%r15), %rcx
	andq	$1048576, %rax          # imm = 0x100000
	orq	%rcx, %rax
	movq	%rax, 48(%r15)
	movq	48(%r12), %rdx
	orq	%rcx, %rdx
	andq	$2097152, %rdx          # imm = 0x200000
	andq	$-2097153, %rax         # imm = 0xFFFFFFFFFFDFFFFF
	orq	%rdx, %rax
	movq	%rax, 48(%r15)
	movq	48(%r12), %rdx
	orq	%rcx, %rdx
	andq	$268435456, %rdx        # imm = 0x10000000
	andq	$-268435457, %rax       # imm = 0xFFFFFFFFEFFFFFFF
	orq	%rdx, %rax
	movq	%rax, 48(%r15)
	movq	48(%r12), %rdx
	orq	%rcx, %rdx
	andq	$33554432, %rdx         # imm = 0x2000000
	andq	$-33554433, %rax        # imm = 0xFFFFFFFFFDFFFFFF
	orq	%rdx, %rax
	movq	%rax, 48(%r15)
.LBB19_329:                             # %if.end1472.i
	movq	%r15, %rdi
	movq	%r12, %rsi
	callq	merge_weak
	movl	16(%r15), %ecx
	movq	%rcx, %rax
	andq	$255, %rax
	cmpq	$30, %rax
	jne	.LBB19_332
# BB#330:                               # %if.then1479.i
	movl	16(%r12), %edx
	movabsq	$4294443007, %rax       # imm = 0xFFF7FFFF
	orq	%rax, %rdx
	andq	%rcx, %rdx
	movl	%edx, 16(%r15)
	movl	16(%r12), %ecx
	movq	%rdx, %rsi
	andq	$524288, %rsi           # imm = 0x80000
	andq	%rax, %rcx
	orq	%rsi, %rcx
	andq	$524288, %rdx           # imm = 0x80000
	movl	%ecx, 16(%r12)
	jne	.LBB19_332
# BB#331:                               # %if.then1513.i
	movq	72(%r12), %rcx
	movl	16(%rcx), %edx
	andq	%rax, %rdx
	movl	%edx, 16(%rcx)
.LBB19_332:                             # %if.end1521.i
	movq	48(%r15), %rcx
	testq	$256, %rcx              # imm = 0x100
	je	.LBB19_338
# BB#333:                               # %if.then1529.i
	testq	%rbx, %rbx
	je	.LBB19_335
# BB#334:                               # %if.then1529.if.end1557_crit_edge.i
	movl	16(%r15), %eax
	jmp	.LBB19_336
.LBB19_338:                             # %if.else1582.i
	movl	16(%r15), %eax
	movl	16(%r12), %ecx
	andq	$262144, %rax           # imm = 0x40000
	andq	$-262145, %rcx          # imm = 0xFFFFFFFFFFFBFFFF
	orq	%rax, %rcx
	movl	%ecx, 16(%r12)
	movl	16(%r15), %eax
	andq	$524288, %rax           # imm = 0x80000
	movabsq	$4294443007, %rdx       # imm = 0xFFF7FFFF
	andq	%rcx, %rdx
	orq	%rax, %rdx
	movl	%edx, 16(%r12)
	movl	16(%r15), %eax
	jmp	.LBB19_339
.LBB19_335:                             # %if.then1531.i
	movl	16(%r12), %edx
	movl	16(%r15), %eax
	andq	$262144, %rdx           # imm = 0x40000
	andq	$-262145, %rax          # imm = 0xFFFFFFFFFFFBFFFF
	orq	%rdx, %rax
	movl	%eax, 16(%r15)
	movq	48(%r12), %rdx
	andq	$256, %rdx              # imm = 0x100
	andq	$-257, %rcx             # imm = 0xFFFFFFFFFFFFFEFF
	orq	%rdx, %rcx
	movq	%rcx, 48(%r15)
.LBB19_336:                             # %if.end1557.i
	movl	16(%r12), %edx
	andq	$524288, %rdx           # imm = 0x80000
	andq	$-524289, %rax          # imm = 0xFFFFFFFFFFF7FFFF
	orq	%rdx, %rax
	movl	%eax, 16(%r15)
	testq	$256, %rcx              # imm = 0x100
	jne	.LBB19_339
# BB#337:                               # %if.then1577.i
	movq	80(%r12), %rcx
	movq	%rcx, 80(%r15)
.LBB19_339:                             # %if.end1607.i
	andq	$255, %rax
	cmpq	$30, %rax
	jne	.LBB19_373
# BB#340:                               # %if.then1614.i
	movabsq	$-68719476737, %r8      # imm = 0xFFFFFFEFFFFFFFFF
	cmpq	$0, 40(%rsp)            # 8-byte Folded Reload
	je	.LBB19_344
# BB#341:                               # %land.lhs.true1616.i
	cmpq	$0, 104(%r12)
	je	.LBB19_344
# BB#342:                               # %land.lhs.true1620.i
	movzbl	18(%r12), %eax
	testq	$1, %rax
	je	.LBB19_344
# BB#343:                               # %if.then1627.i
	movq	debug_hooks(%rip), %rax
	movq	%r12, %rdi
	callq	*144(%rax)
	movq	48(%r15), %rax
	movabsq	$-68719476737, %rcx     # imm = 0xFFFFFFEFFFFFFFFF
	addq	$-2048, %rcx            # imm = 0xFFFFFFFFFFFFF800
	andq	%rax, %rcx
	movabsq	$68719476736, %rax      # imm = 0x1000000000
	orq	%rax, %rcx
	leaq	48(%r12), %rsi
	movq	%rcx, %rax
	movq	56(%rsp), %rdi          # 8-byte Reload
	jmp	.LBB19_352
.LBB19_344:                             # %if.else1636.i
	movq	200(%r15), %rax
	movzbl	(%rax), %ecx
	testq	$1, %rcx
	movq	56(%rsp), %rdi          # 8-byte Reload
	jne	.LBB19_346
# BB#345:                               # %lor.lhs.false1644.i
	movq	200(%r12), %rdx
	movzbl	(%rdx), %edx
	testq	$1, %rdx
	je	.LBB19_347
.LBB19_346:                             # %if.then1652.i
	orq	$1, %rcx
	movb	%cl, (%rax)
.LBB19_347:                             # %if.end1659.i
	movq	48(%r15), %rcx
	movq	48(%r12), %rax
	movabsq	$68719476736, %rdx      # imm = 0x1000000000
	testq	%rdx, %rcx
	movq	$1, %rdx
	jne	.LBB19_351
# BB#348:                               # %lor.rhs.i
	movabsq	$68719476736, %rcx      # imm = 0x1000000000
	testq	%rcx, %rax
	je	.LBB19_349
# BB#350:                               # %lor.rhs.i
	movabsq	$1, %rdx
	jmp	.LBB19_351
.LBB19_349:
	movabsq	$0, %rdx
.LBB19_351:                             # %lor.end.i
	leaq	48(%r12), %rsi
	movq	$36, %rcx
	shlq	%cl, %rdx
	andq	%r8, %rax
	orq	%rdx, %rax
	movq	%rax, (%rsi)
	movq	48(%r15), %rax
	andq	%r8, %rax
	orq	%rdx, %rax
.LBB19_352:                             # %if.end1690.i
	movq	%rax, 48(%r15)
	movq	(%rsi), %rcx
	movq	%rcx, %rdx
	andq	$1610612736, %rdx       # imm = 0x60000000
	je	.LBB19_360
# BB#353:                               # %if.then1699.i
	movabsq	$4294967295, %rsi       # imm = 0xFFFFFFFF
	testq	%rsi, %rdi
	jne	.LBB19_354
# BB#355:                               # %if.then1699.i
	movabsq	$1, %rsi
	jmp	.LBB19_356
.LBB19_354:
	movabsq	$0, %rsi
.LBB19_356:                             # %if.then1699.i
	movq	40(%rsp), %rdi          # 8-byte Reload
	orq	%rdi, %rsi
	cmpq	$1, %rsi
	jne	.LBB19_359
# BB#357:                               # %if.then1703.i
	testq	%rbx, %rbx
	jne	.LBB19_360
# BB#358:                               # %if.then1705.i
	movq	8(%r15), %rax
	movq	%rax, 8(%r12)
	andq	$-1610612737, %rcx      # imm = 0xFFFFFFFF9FFFFFFF
	movq	%rcx, 48(%r12)
	jmp	.LBB19_360
.LBB19_359:                             # %if.else1715.i
	andq	$-1610612737, %rax      # imm = 0xFFFFFFFF9FFFFFFF
	orq	%rax, %rdx
	movq	%rdx, 48(%r15)
	movl	56(%r12), %eax
	movl	%eax, 56(%r15)
.LBB19_360:                             # %if.end1736.i
	cmpq	$0, 40(%rsp)            # 8-byte Folded Reload
	je	.LBB19_361
# BB#370:                               # %if.else1804.i
	movq	200(%r15), %rax
	movzbl	(%rax), %eax
	testq	$1, %rax
	je	.LBB19_373
# BB#371:                               # %land.lhs.true1812.i
	movq	48(%r15), %rax
	movabsq	$68719476736, %rcx      # imm = 0x1000000000
	testq	%rcx, %rax
	jne	.LBB19_373
# BB#372:                               # %if.then1820.i
	orq	$2048, %rax             # imm = 0x800
	movq	%rax, 48(%r15)
	jmp	.LBB19_373
.LBB19_361:                             # %if.then1738.i
	movq	96(%r12), %rax
	testq	%rbx, %rbx
	movq	%rax, 96(%r15)
	jne	.LBB19_363
# BB#362:                               # %if.then1743.i
	movq	104(%r12), %rax
	movq	%rax, 104(%r15)
.LBB19_363:                             # %if.end1748.i
	movq	160(%r12), %rax
	movq	%rax, 160(%r15)
	movq	168(%r12), %rax
	movq	%rax, 168(%r15)
	movq	56(%r12), %rax
	movq	%rax, 56(%r15)
	movq	88(%r12), %rax
	movq	%rax, 88(%r15)
	movzbl	49(%r12), %eax
	testq	$8, %rax
	je	.LBB19_373
# BB#364:                               # %land.lhs.true1772.i
	movq	48(%r15), %rax
	movabsq	$68719476736, %rcx      # imm = 0x1000000000
	testq	%rcx, %rax
	jne	.LBB19_373
# BB#365:                               # %if.then1780.i
	orq	$2048, %rax             # imm = 0x800
	movq	%rax, 48(%r15)
	movq	112(%r12), %rax
	testq	%rbx, %rbx
	je	.LBB19_369
# BB#366:                               # %cond.true1787.i
	testq	%rax, %rax
	movq	%r12, %rcx
	je	.LBB19_368
# BB#367:                               # %cond.true1787.i
	movq	%rax, %rcx
.LBB19_368:                             # %cond.true1787.i
	movq	%rcx, %rax
.LBB19_369:                             # %cond.end1799.i
	movq	%rax, 112(%r15)
.LBB19_373:                             # %if.end1828.i
	testq	%rbx, %rbx
	je	.LBB19_374
.LBB19_97:                              # %if.end148
	movzbl	16(%r15), %eax
	cmpq	$33, %rax
	jne	.LBB19_381
# BB#98:                                # %if.then154
	movl	32(%r15), %eax
	movq	8(%r15), %rdi
	testq	%rax, %rax
	je	.LBB19_99
# BB#378:                               # %if.else
	movq	global_trees(%rip), %rax
	cmpq	%rax, %rdi
	je	.LBB19_381
# BB#379:                               # %land.lhs.true172
	cmpq	$0, 96(%r15)
	jne	.LBB19_381
# BB#380:                               # %if.then175
	movq	%rdi, 96(%r15)
	callq	build_type_copy
	movq	%r15, 96(%rax)
	movl	16(%r15), %ecx
	movl	16(%rax), %edx
	andq	$65536, %rcx            # imm = 0x10000
	movabsq	$4294901759, %rsi       # imm = 0xFFFEFFFF
	andq	%rdx, %rsi
	orq	%rcx, %rsi
	movl	%esi, 16(%rax)
	movq	%rax, 8(%r15)
	jmp	.LBB19_381
.LBB19_99:                              # %if.then158
	cmpq	$0, 96(%rdi)
	jne	.LBB19_381
# BB#100:                               # %if.then163
	movq	%r15, 96(%rdi)
.LBB19_381:                             # %if.end198
	movl	16(%r15), %eax
	testq	$524288, %rax           # imm = 0x80000
	je	.LBB19_392
# BB#382:                               # %land.lhs.true205
	andq	$255, %rax
	cmpq	$30, %rax
	jne	.LBB19_384
# BB#383:                               # %land.lhs.true211
	movzbl	49(%r15), %eax
	testq	$8, %rax
	jne	.LBB19_392
.LBB19_384:                             # %if.then218
	movl	flag_traditional(%rip), %eax
	testq	%rax, %rax
	je	.LBB19_388
# BB#385:                               # %land.lhs.true221
	movq	56(%r14), %rbx
	testq	%rbx, %rbx
	je	.LBB19_388
# BB#386:                               # %land.lhs.true224
	movzbl	49(%rbx), %eax
	testq	$1, %rax
	jne	.LBB19_389
# BB#387:                               # %lor.lhs.false233
	movzbl	18(%rbx), %eax
	testq	$8, %rax
	jne	.LBB19_389
.LBB19_388:                             # %if.else243
	movq	96(%r14), %rbx
	testq	%rbx, %rbx
	je	.LBB19_392
.LBB19_389:                             # %land.lhs.true252
	movq	8(%r15), %rdi
	movq	8(%rbx), %rsi
	callq	comptypes
	movabsq	$4294967295, %rcx       # imm = 0xFFFFFFFF
	testq	%rcx, %rax
	jne	.LBB19_392
# BB#390:                               # %land.lhs.true259
	movzbl	51(%rbx), %eax
	testq	$96, %rax
	jne	.LBB19_392
# BB#391:                               # %if.then266
	movabsq	$.L.str140, %rsi
	xorq	%rax, %rax
	movq	%r15, %rdi
	callq	pedwarn_with_decl
	movabsq	$.L.str141, %rsi
	xorq	%rax, %rax
	movq	%rbx, %rdi
	callq	pedwarn_with_decl
.LBB19_392:                             # %if.end268
	movq	80(%r14), %rax
	testq	%rax, %rax
	je	.LBB19_397
# BB#393:                               # %land.lhs.true271
	cmpq	$0, 56(%r14)
	jne	.LBB19_397
# BB#394:                               # %land.lhs.true274
	movzbl	16(%r15), %ecx
	cmpq	$30, %rcx
	jne	.LBB19_397
# BB#395:                               # %land.lhs.true280
	movq	8(%r15), %rdi
	movq	8(%rax), %rsi
	callq	comptypes
	movabsq	$4294967295, %rcx       # imm = 0xFFFFFFFF
	testq	%rcx, %rax
	jne	.LBB19_397
# BB#396:                               # %if.then288
	movabsq	$.L.str142, %rsi
	xorq	%rax, %rax
	movq	%r15, %rdi
	callq	warning_with_decl
	movq	80(%r14), %rdi
	movabsq	$.L.str143, %rsi
	xorq	%rax, %rax
	callq	warning_with_decl
.LBB19_397:                             # %if.end290
	movl	flag_traditional(%rip), %eax
	testq	%rax, %rax
	je	.LBB19_419
# BB#398:                               # %land.lhs.true292
	movzbl	49(%r15), %eax
	testq	$1, %rax
	je	.LBB19_419
# BB#399:                               # %land.lhs.true300
	movq	current_binding_level(%rip), %rcx
	movq	global_binding_level(%rip), %rax
	cmpq	%rax, %rcx
	je	.LBB19_401
# BB#400:                               # %land.lhs.true.i939
	cmpq	$0, 64(%r14)
	jne	.LBB19_419
.LBB19_401:                             # %lookup_name.exit
	cmpq	$0, 56(%r14)
	jne	.LBB19_419
# BB#402:                               # %while.cond.preheader
	movq	8(%r15), %rcx
	testq	%rcx, %rcx
	jne	.LBB19_403
# BB#404:                               # %while.cond.preheader
	movabsq	$1, %rbx
	jmp	.LBB19_405
.LBB19_374:                             # %if.end1831.i
	movl	36(%r12), %ebx
	leaq	24(%r12), %rdi
	leaq	24(%r15), %rsi
	movq	$184, %rdx
	callq	memcpy
	movl	%ebx, 36(%r12)
	movq	136(%r15), %rax
	movq	%rax, 136(%r12)
	movl	16(%r12), %eax
.LBB19_375:                             # %if.then131
	movq	%rax, %rcx
	andq	$255, %rcx
	cmpq	$35, %rcx
	jne	.LBB19_376
# BB#377:                               # %if.then137
	movl	16(%r15), %ecx
	andq	$16384, %rcx            # imm = 0x4000
	movabsq	$4294950911, %rdx       # imm = 0xFFFFBFFF
	andq	%rdx, %rax
	orq	%rcx, %rax
	movl	%eax, 16(%r12)
	movq	%r12, %r15
	jmp	.LBB19_503
.LBB19_376:
	movq	%r12, %r15
	jmp	.LBB19_503
.LBB19_403:
	movabsq	$0, %rbx
.LBB19_405:                             # %while.cond.preheader
	je	.LBB19_416
# BB#406:                               # %while.cond.preheader
	movq	global_trees(%rip), %rdx
	cmpq	%rdx, %rcx
	je	.LBB19_416
# BB#407:
	movabsq	$0, %rsi
	movabsq	$1, %rdi
	.align	16, 0x90
.LBB19_408:                             # %if.end310
                                        # =>This Inner Loop Header: Depth=1
	cmpq	$0, 144(%rcx)
	jne	.LBB19_409
# BB#410:                               # %if.else315
                                        #   in Loop: Header=BB19_408 Depth=1
	movzbl	16(%rcx), %ebx
	cmpq	$23, %rbx
	jne	.LBB19_412
# BB#411:                               # %land.lhs.true321
                                        #   in Loop: Header=BB19_408 Depth=1
	xorq	%rbx, %rbx
	cmpq	$0, 24(%rcx)
	jne	.LBB19_416
.LBB19_412:                             # %while.cond.backedge
                                        #   in Loop: Header=BB19_408 Depth=1
	movq	8(%rcx), %rcx
	testq	%rcx, %rcx
	movq	%rsi, %rbx
	jne	.LBB19_414
# BB#413:                               # %while.cond.backedge
                                        #   in Loop: Header=BB19_408 Depth=1
	movq	%rdi, %rbx
.LBB19_414:                             # %while.cond.backedge
                                        #   in Loop: Header=BB19_408 Depth=1
	je	.LBB19_416
# BB#415:                               # %while.cond.backedge
                                        #   in Loop: Header=BB19_408 Depth=1
	cmpq	%rdx, %rcx
	jne	.LBB19_408
	jmp	.LBB19_416
.LBB19_409:                             # %if.then314
	movabsq	$.L.str144, %rsi
	xorq	%rax, %rax
	xorq	%rbx, %rbx
	movq	%r15, %rdi
	callq	warning_with_decl
	movq	global_binding_level(%rip), %rax
.LBB19_416:                             # %while.end
	testq	%rbx, %rbx
	jne	.LBB19_418
# BB#417:                               # %while.end
	movq	%r13, %rax
.LBB19_418:                             # %while.end
	movq	%rax, %r13
.LBB19_419:                             # %if.end332
	movq	global_binding_level(%rip), %rax
	cmpq	%rax, %r13
	je	.LBB19_420
# BB#444:                               # %if.else483
	movq	64(%r14), %rbx
	movq	56(%r14), %r12
	testq	%rbx, %rbx
	movq	%r15, 64(%r14)
	jne	.LBB19_463
# BB#445:                               # %if.else483
	testq	%r12, %r12
	je	.LBB19_463
# BB#446:                               # %land.lhs.true489
	movzbl	16(%r15), %eax
	cmpq	$30, %rax
	jne	.LBB19_463
# BB#447:                               # %land.lhs.true495
	movzbl	16(%r12), %eax
	cmpq	$30, %rax
	jne	.LBB19_463
# BB#448:                               # %land.lhs.true501
	movzbl	49(%r15), %eax
	testq	$1, %rax
	je	.LBB19_463
# BB#449:                               # %land.lhs.true509
	movq	200(%r15), %rax
	movzbl	(%rax), %eax
	testq	$1, %rax
	jne	.LBB19_463
# BB#450:                               # %if.then516
	movq	8(%r15), %rdi
	movq	8(%r12), %rsi
	callq	comptypes
	movabsq	$4294967295, %rcx       # imm = 0xFFFFFFFF
	testq	%rcx, %rax
	je	.LBB19_451
# BB#452:                               # %if.else525
	movq	200(%r12), %rax
	movzbl	(%rax), %eax
	andq	$1, %rax
	je	.LBB19_453
# BB#454:                               # %if.then533
	movq	200(%r15), %rcx
	movzbl	(%rcx), %edx
	andq	$254, %rdx
	orq	%rax, %rdx
	movb	%dl, (%rcx)
	movq	48(%r12), %rax
	movq	48(%r15), %rcx
	andq	$2048, %rax             # imm = 0x800
	andq	$-2049, %rcx            # imm = 0xFFFFFFFFFFFFF7FF
	orq	%rax, %rcx
	movq	%rcx, 48(%r15)
	movq	current_function_decl(%rip), %rdx
	leaq	48(%r12), %rax
	xorq	%rcx, %rcx
	cmpq	%r12, %rdx
	je	.LBB19_456
# BB#455:                               # %cond.false
	movq	104(%r12), %rcx
.LBB19_456:                             # %cond.end
	movq	%rcx, 104(%r15)
	movq	160(%r12), %rcx
	movq	%rcx, 160(%r15)
	movq	56(%r12), %rcx
	movq	%rcx, 56(%r15)
	movq	88(%r12), %rcx
	movq	96(%r12), %rdx
	movq	%rdx, 96(%r15)
	movq	%rcx, 88(%r15)
	movl	16(%r12), %ecx
	movl	16(%r15), %edx
	andq	$16384, %rcx            # imm = 0x4000
	movabsq	$4294950911, %rsi       # imm = 0xFFFFBFFF
	andq	%rdx, %rsi
	orq	%rcx, %rsi
	movl	%esi, 16(%r15)
	movq	112(%r12), %rcx
	movq	%rcx, 112(%r15)
	jmp	.LBB19_457
.LBB19_420:                             # %if.then334
	cmpq	$0, 56(%r14)
	jne	.LBB19_423
# BB#421:                               # %land.lhs.true337
	movzbl	18(%r15), %eax
	testq	$8, %rax
	je	.LBB19_423
# BB#422:                               # %if.then344
	movl	16(%r14), %eax
	orq	$524288, %rax           # imm = 0x80000
	movl	%eax, 16(%r14)
.LBB19_423:                             # %if.end350
	movq	%r15, 56(%r14)
	movq	$0, 96(%r14)
	movq	80(%r14), %rax
	testq	%rax, %rax
	je	.LBB19_432
# BB#424:                               # %land.lhs.true355
	movzbl	18(%rax), %ecx
	testq	$1, %rcx
	je	.LBB19_426
# BB#425:                               # %if.end374
	movl	16(%r15), %eax
	orq	$65536, %rax            # imm = 0x10000
	movl	%eax, 16(%r15)
	movl	16(%r14), %eax
	orq	$65536, %rax            # imm = 0x10000
	movl	%eax, 16(%r14)
	movq	80(%r14), %rax
	testq	%rax, %rax
	je	.LBB19_432
.LBB19_426:                             # %land.lhs.true377
	movzbl	17(%rax), %ecx
	testq	$4, %rcx
	je	.LBB19_428
# BB#427:                               # %if.then384
	movl	16(%r15), %eax
	orq	$1024, %rax             # imm = 0x400
	movl	%eax, 16(%r15)
	movq	80(%r14), %rax
.LBB19_428:                             # %if.end390
	testq	%rax, %rax
	je	.LBB19_432
# BB#429:                               # %land.lhs.true393
	movzbl	16(%r15), %eax
	cmpq	$30, %rax
	jne	.LBB19_431
# BB#430:                               # %land.lhs.true399
	movq	8(%r15), %rax
	movq	8(%rax), %rax
	movq	128(%rax), %rax
	movq	integer_types+40(%rip), %rcx
	cmpq	%rcx, %rax
	je	.LBB19_432
.LBB19_431:                             # %if.then406
	movq	32(%r14), %rsi
	movabsq	$.L.str145, %rdi
	xorq	%rax, %rax
	callq	pedwarn
.LBB19_432:                             # %if.end410
	movl	16(%r14), %eax
	testq	$524288, %rax           # imm = 0x80000
	je	.LBB19_496
# BB#433:                               # %land.lhs.true417
	movl	16(%r15), %ecx
	testq	$524288, %rcx           # imm = 0x80000
	jne	.LBB19_496
# BB#434:                               # %land.lhs.true424
	movzbl	49(%r15), %edx
	testq	$1, %rdx
	jne	.LBB19_496
# BB#435:                               # %if.then432
	testq	%r12, %r12
	je	.LBB19_438
# BB#436:                               # %land.lhs.true434
	movzbl	51(%r12), %edx
	testq	$96, %rdx
	jne	.LBB19_496
# BB#437:                               # %land.lhs.true445
	movzbl	17(%r12), %edx
	testq	$32, %rdx
	jne	.LBB19_496
.LBB19_438:                             # %if.else452
	andq	$255, %rcx
	cmpq	$33, %rcx
	je	.LBB19_496
# BB#439:                               # %if.else459
	cmpq	$0, 80(%r14)
	je	.LBB19_443
# BB#440:                               # %if.then462
	testq	$2048, %rax             # imm = 0x800
	jne	.LBB19_496
# BB#441:                               # %if.then469
	movq	32(%r14), %rsi
	movabsq	$.L.str138, %rdi
	jmp	.LBB19_442
.LBB19_451:                             # %if.then524
	movabsq	$.L.str147, %rsi
	xorq	%rax, %rax
	movq	%r15, %rdi
	callq	pedwarn_with_decl
	jmp	.LBB19_463
.LBB19_453:                             # %if.else525.if.end596_crit_edge
	leaq	48(%r12), %rax
.LBB19_457:                             # %if.end596
	movq	(%rax), %rax
	andq	$1610612736, %rax       # imm = 0x60000000
	je	.LBB19_459
# BB#458:                               # %if.then604
	movq	48(%r15), %rcx
	andq	$-1610612737, %rcx      # imm = 0xFFFFFFFF9FFFFFFF
	orq	%rax, %rcx
	movq	%rcx, 48(%r15)
	movl	56(%r12), %eax
	movl	%eax, 56(%r15)
.LBB19_459:                             # %if.end625
	movq	8(%r12), %rax
	cmpq	$0, 24(%rax)
	je	.LBB19_463
# BB#460:                               # %land.lhs.true631
	cmpq	$0, 104(%r12)
	je	.LBB19_463
# BB#461:                               # %land.lhs.true635
	movq	8(%r15), %rcx
	cmpq	$0, 24(%rcx)
	jne	.LBB19_463
# BB#462:                               # %if.then641
	movq	%rax, 8(%r15)
.LBB19_463:                             # %if.end648
	testq	%rbx, %rbx
	jne	.LBB19_470
# BB#464:                               # %land.lhs.true650
	movzbl	49(%r15), %eax
	testq	$1, %rax
	je	.LBB19_470
# BB#465:                               # %land.lhs.true658
	movzbl	18(%r15), %eax
	testq	$8, %rax
	je	.LBB19_470
# BB#466:                               # %if.then665
	testq	%r12, %r12
	jne	.LBB19_468
# BB#467:                               # %if.then667
	movl	16(%r14), %eax
	orq	$524288, %rax           # imm = 0x80000
	movl	%eax, 16(%r14)
.LBB19_468:                             # %if.end673
	cmpq	$0, 96(%r14)
	jne	.LBB19_470
# BB#469:                               # %if.then676
	movq	%r15, 96(%r14)
.LBB19_470:                             # %if.end679
	movzbl	49(%r15), %eax
	testq	$1, %rax
	jne	.LBB19_494
# BB#471:                               # %if.end.i916
	movq	72(%r15), %r12
	testq	%rbx, %rbx
	je	.LBB19_479
# BB#472:                               # %land.lhs.true.i
	movq	current_binding_level(%rip), %rax
	movzbl	48(%rax), %ecx
	testq	%rcx, %rcx
	jne	.LBB19_479
# BB#473:                               # %land.lhs.true4.i
	movq	40(%rax), %rax
	movzbl	48(%rax), %ecx
	testq	%rcx, %rcx
	je	.LBB19_479
# BB#474:                               # %land.lhs.true7.i
	movq	(%rax), %rsi
	movq	%rbx, %rdi
	callq	chain_member
	movabsq	$4294967295, %rcx       # imm = 0xFFFFFFFF
	testq	%rcx, %rax
	je	.LBB19_479
# BB#475:                               # %if.then10.i
	movzbl	16(%rbx), %eax
	movq	32(%r12), %rsi
	cmpq	$35, %rax
	jne	.LBB19_478
# BB#476:                               # %if.then15.i
	movabsq	$.L.str323, %rdi
	jmp	.LBB19_477
.LBB19_479:                             # %if.else20.i
	movl	warn_shadow(%rip), %eax
	testq	%rax, %rax
	je	.LBB19_494
# BB#480:                               # %land.lhs.true22.i
	movl	32(%r15), %eax
	testq	%rax, %rax
	je	.LBB19_494
# BB#481:                               # %land.lhs.true26.i
	movq	112(%r15), %rax
	testq	%rax, %rax
	je	.LBB19_483
# BB#482:                               # %land.lhs.true26.i
	cmpq	%r15, %rax
	jne	.LBB19_494
.LBB19_483:                             # %if.then35.i
	movzbl	16(%r15), %eax
	cmpq	$35, %rax
	jne	.LBB19_485
# BB#484:                               # %land.lhs.true42.i
	movq	current_binding_level(%rip), %rax
	movq	40(%rax), %rax
	movzbl	48(%rax), %eax
	testq	%rax, %rax
	jne	.LBB19_494
.LBB19_485:                             # %if.else48.i
	testq	%rbx, %rbx
	je	.LBB19_490
# BB#486:                               # %if.then50.i
	movzbl	16(%rbx), %eax
	cmpq	$35, %rax
	jne	.LBB19_489
# BB#487:                               # %if.then57.i
	movabsq	$.L.str325, %rdi
	jmp	.LBB19_488
.LBB19_478:                             # %if.else.i
	movabsq	$.L.str324, %rdi
.LBB19_477:                             # %warn_if_shadowing.exit
	xorq	%rax, %rax
	callq	pedwarn
	jmp	.LBB19_494
.LBB19_490:                             # %if.else60.i
	movq	56(%r12), %rdx
	testq	%rdx, %rdx
	je	.LBB19_494
# BB#491:                               # %if.else60.i
	movq	global_trees(%rip), %rax
	cmpq	%rax, %rdx
	je	.LBB19_494
# BB#492:                               # %if.then67.i
	movabsq	$.L.str327, %rdi
	movq	%r12, %rsi
	jmp	.LBB19_493
.LBB19_489:                             # %if.else58.i
	movabsq	$.L.str326, %rdi
.LBB19_488:                             # %warn_if_shadowing.exit
	movq	%r12, %rsi
	movq	%rbx, %rdx
.LBB19_493:                             # %warn_if_shadowing.exit
	callq	shadow_warning
.LBB19_494:                             # %warn_if_shadowing.exit
	testq	%rbx, %rbx
	je	.LBB19_496
# BB#495:                               # %if.then681
	movq	16(%r13), %rdx
	movq	%r14, %rdi
	movq	%rbx, %rsi
	callq	tree_cons
	movq	%rax, 16(%r13)
.LBB19_496:                             # %if.end685
	movq	8(%r15), %rax
	movq	global_trees(%rip), %rcx
	cmpq	%rcx, %rax
	je	.LBB19_502
# BB#497:                               # %land.lhs.true689
	cmpq	$0, 32(%rax)
	movabsq	$4294967295, %rsi       # imm = 0xFFFFFFFF
	jne	.LBB19_502
	jmp	.LBB19_498
	.align	16, 0x90
.LBB19_500:                             # %while.body703
                                        #   in Loop: Header=BB19_498 Depth=1
	movq	8(%rax), %rax
.LBB19_498:                             # %while.cond697
                                        # =>This Inner Loop Header: Depth=1
	movzbl	16(%rax), %ecx
	leaq	-20(%rcx), %rdx
	andq	%rsi, %rdx
	cmpq	$2, %rdx
	jb	.LBB19_501
# BB#499:                               # %while.cond697
                                        #   in Loop: Header=BB19_498 Depth=1
	cmpq	$18, %rcx
	je	.LBB19_500
	jmp	.LBB19_502
.LBB19_501:                             # %if.then718
	movl	56(%r13), %eax
	incq	%rax
	movl	%eax, 56(%r13)
.LBB19_502:                             # %if.end721
	movq	(%r13), %rax
	movq	%rax, (%r15)
	movq	%r15, (%r13)
.LBB19_503:                             # %return
	movq	%r15, %rax
	addq	$80, %rsp
	popq	%rbx
	popq	%r12
	popq	%r13
	popq	%r14
	popq	%r15
	retq
.LBB19_443:                             # %if.else474
	movq	32(%r14), %rsi
	movabsq	$.L.str146, %rdi
.LBB19_442:                             # %if.end685
	xorq	%rax, %rax
	callq	pedwarn
	jmp	.LBB19_496
.Ltmp155:
	.size	pushdecl, .Ltmp155-pushdecl
	.cfi_endproc
	.section	.rodata,"a",@progbits
	.align	8
.LJTI19_0:
	.quad	.LBB19_209
	.quad	.LBB19_188
	.quad	.LBB19_204
	.quad	.LBB19_205

	.text
	.globl	lookup_name_current_level
	.align	16, 0x90
	.type	lookup_name_current_level,@function
lookup_name_current_level:              # @lookup_name_current_level
	.cfi_startproc
# BB#0:                                 # %entry
	movq	current_binding_level(%rip), %rcx
	movq	global_binding_level(%rip), %rax
	cmpq	%rax, %rcx
	je	.LBB20_1
# BB#2:                                 # %if.end
	xorq	%rax, %rax
	cmpq	$0, 64(%rdi)
	je	.LBB20_6
	.align	16, 0x90
.LBB20_3:                               # %for.cond
                                        # =>This Inner Loop Header: Depth=1
	movq	(%rcx), %rcx
	testq	%rcx, %rcx
	je	.LBB20_6
# BB#4:                                 # %for.body
                                        #   in Loop: Header=BB20_3 Depth=1
	movq	72(%rcx), %rdx
	cmpq	%rdi, %rdx
	jne	.LBB20_3
# BB#5:
	movq	%rcx, %rax
.LBB20_6:                               # %return
	retq
.LBB20_1:                               # %if.then
	movq	56(%rdi), %rax
	retq
.Ltmp156:
	.size	lookup_name_current_level, .Ltmp156-lookup_name_current_level
	.cfi_endproc

	.globl	lookup_name
	.align	16, 0x90
	.type	lookup_name,@function
lookup_name:                            # @lookup_name
	.cfi_startproc
# BB#0:                                 # %entry
	movq	current_binding_level(%rip), %rax
	movq	global_binding_level(%rip), %rcx
	cmpq	%rcx, %rax
	je	.LBB21_2
# BB#1:                                 # %land.lhs.true
	movq	64(%rdi), %rax
	testq	%rax, %rax
	jne	.LBB21_3
.LBB21_2:                               # %if.else
	movq	56(%rdi), %rax
.LBB21_3:                               # %if.end
	retq
.Ltmp157:
	.size	lookup_name, .Ltmp157-lookup_name
	.cfi_endproc

	.globl	pushdecl_top_level
	.align	16, 0x90
	.type	pushdecl_top_level,@function
pushdecl_top_level:                     # @pushdecl_top_level
	.cfi_startproc
# BB#0:                                 # %entry
	pushq	%rbx
.Ltmp160:
	.cfi_def_cfa_offset 16
.Ltmp161:
	.cfi_offset %rbx, -16
	movq	global_binding_level(%rip), %rax
	movq	current_binding_level(%rip), %rbx
	movq	%rax, current_binding_level(%rip)
	callq	pushdecl
	movq	%rbx, current_binding_level(%rip)
	popq	%rbx
	retq
.Ltmp162:
	.size	pushdecl_top_level, .Ltmp162-pushdecl_top_level
	.cfi_endproc

	.globl	implicitly_declare
	.align	16, 0x90
	.type	implicitly_declare,@function
implicitly_declare:                     # @implicitly_declare
	.cfi_startproc
# BB#0:                                 # %entry
	pushq	%r15
.Ltmp168:
	.cfi_def_cfa_offset 16
	pushq	%r14
.Ltmp169:
	.cfi_def_cfa_offset 24
	pushq	%r12
.Ltmp170:
	.cfi_def_cfa_offset 32
	pushq	%rbx
.Ltmp171:
	.cfi_def_cfa_offset 40
	pushq	%rax
.Ltmp172:
	.cfi_def_cfa_offset 48
.Ltmp173:
	.cfi_offset %rbx, -40
.Ltmp174:
	.cfi_offset %r12, -32
.Ltmp175:
	.cfi_offset %r14, -24
.Ltmp176:
	.cfi_offset %r15, -16
	movq	c_global_trees+176(%rip), %rdx
	movq	%rdi, %r14
	movq	$30, %rdi
	movq	%r14, %rsi
	callq	build_decl
	movq	%rax, (%rsp)
	movzbl	18(%r14), %ecx
	xorq	%r15, %r15
	testq	$8, %rcx
	je	.LBB23_4
# BB#1:                                 # %land.lhs.true
	cmpq	$0, 56(%r14)
	jne	.LBB23_2
# BB#3:                                 # %land.lhs.true
	movabsq	$1, %r15
	jmp	.LBB23_4
.LBB23_2:
	movabsq	$0, %r15
.LBB23_4:                               # %if.end
	movq	80(%r14), %r12
	orq	$256, 48(%rax)          # imm = 0x100
	movq	(%rsp), %rax
	movl	16(%rax), %ecx
	orq	$524288, %rcx           # imm = 0x80000
	movl	%ecx, 16(%rax)
	movq	(%rsp), %rbx
	movq	%rbx, 80(%r14)
	movq	%rbx, %rdi
	callq	pushdecl
	movq	%rbx, %rdi
	callq	maybe_objc_check_decl
	xorq	%rsi, %rsi
	xorq	%rdx, %rdx
	xorq	%rcx, %rcx
	movq	%rbx, %rdi
	callq	rest_of_decl_compilation
	cmpq	$0, %r12
	je	.LBB23_5
# BB#9:                                 # %if.else
	movl	warn_traditional(%rip), %eax
	testq	%rax, %rax
	je	.LBB23_13
# BB#10:                                # %if.else
	testq	%r15, %r15
	je	.LBB23_13
# BB#11:                                # %if.then17
	movq	32(%r14), %rsi
	movabsq	$.L.str148, %rdi
	jmp	.LBB23_12
.LBB23_5:                               # %if.then13
	movl	mesg_implicit_function_declaration(%rip), %eax
	movq	32(%r14), %rsi
	cmpq	$1, %rax
	jne	.LBB23_6
# BB#8:                                 # %if.then3.i
	movabsq	$.L.str149, %rdi
.LBB23_12:                              # %if.end19
	xorq	%rax, %rax
	callq	warning
.LBB23_13:                              # %if.end19
	movq	(%rsp), %rdi
	xorq	%rsi, %rsi
	movq	$1, %rdx
	xorq	%rcx, %rcx
	callq	gen_aux_info_record
	leaq	(%rsp), %rdi
	xorq	%rsi, %rsi
	xorq	%rdx, %rdx
	callq	decl_attributes
	movq	(%rsp), %rax
	addq	$8, %rsp
	popq	%rbx
	popq	%r12
	popq	%r14
	popq	%r15
	retq
.LBB23_6:                               # %if.then13
	cmpq	$2, %rax
	jne	.LBB23_13
# BB#7:                                 # %if.then.i
	movabsq	$.L.str149, %rdi
	xorq	%rax, %rax
	callq	error
	jmp	.LBB23_13
.Ltmp177:
	.size	implicitly_declare, .Ltmp177-implicitly_declare
	.cfi_endproc

	.globl	implicit_decl_warning
	.align	16, 0x90
	.type	implicit_decl_warning,@function
implicit_decl_warning:                  # @implicit_decl_warning
	.cfi_startproc
# BB#0:                                 # %entry
	movl	mesg_implicit_function_declaration(%rip), %eax
	movq	32(%rdi), %rsi
	cmpq	$1, %rax
	jne	.LBB24_1
# BB#3:                                 # %if.then3
	movabsq	$.L.str149, %rdi
	xorq	%rax, %rax
	jmp	warning  # TAILCALL
.LBB24_1:                               # %entry
	cmpq	$2, %rax
	jne	.LBB24_4
# BB#2:                                 # %if.then
	movabsq	$.L.str149, %rdi
	xorq	%rax, %rax
	jmp	error  # TAILCALL
.LBB24_4:                               # %if.end4
	retq
.Ltmp178:
	.size	implicit_decl_warning, .Ltmp178-implicit_decl_warning
	.cfi_endproc

	.globl	lookup_label
	.align	16, 0x90
	.type	lookup_label,@function
lookup_label:                           # @lookup_label
	.cfi_startproc
# BB#0:                                 # %entry
	pushq	%r15
.Ltmp185:
	.cfi_def_cfa_offset 16
	pushq	%r14
.Ltmp186:
	.cfi_def_cfa_offset 24
	pushq	%r13
.Ltmp187:
	.cfi_def_cfa_offset 32
	pushq	%r12
.Ltmp188:
	.cfi_def_cfa_offset 40
	pushq	%rbx
.Ltmp189:
	.cfi_def_cfa_offset 48
.Ltmp190:
	.cfi_offset %rbx, -48
.Ltmp191:
	.cfi_offset %r12, -40
.Ltmp192:
	.cfi_offset %r13, -32
.Ltmp193:
	.cfi_offset %r14, -24
.Ltmp194:
	.cfi_offset %r15, -16
	movq	current_function_decl(%rip), %rax
	movq	%rdi, %r12
	testq	%rax, %rax
	je	.LBB25_11
# BB#1:
	movabsq	$.L.str151, %r14
	movabsq	$.L.str152, %r15
	.align	16, 0x90
.LBB25_2:                               # %if.end
                                        # =>This Loop Header: Depth=1
                                        #     Child Loop BB25_7 Depth 2
	movq	72(%r12), %r13
	testq	%r13, %r13
	je	.LBB25_13
# BB#3:                                 # %if.then3
                                        #   in Loop: Header=BB25_2 Depth=1
	movq	80(%r13), %rcx
	cmpq	%rax, %rcx
	je	.LBB25_14
# BB#4:                                 # %land.lhs.true
                                        #   in Loop: Header=BB25_2 Depth=1
	movzbl	19(%r13), %eax
	testq	$2, %rax
	jne	.LBB25_14
# BB#5:                                 # %for.cond.i.preheader
                                        #   in Loop: Header=BB25_2 Depth=1
	movq	named_labels(%rip), %rbx
	jmp	.LBB25_7
	.align	16, 0x90
.LBB25_6:                               # %for.cond.i
                                        #   in Loop: Header=BB25_7 Depth=2
	movq	(%rbx), %rbx
.LBB25_7:                               # %for.cond.i
                                        #   Parent Loop BB25_2 Depth=1
                                        # =>  This Inner Loop Header: Depth=2
	testq	%rbx, %rbx
	je	.LBB25_12
# BB#8:                                 # %for.body.i
                                        #   in Loop: Header=BB25_7 Depth=2
	movq	32(%rbx), %rax
	cmpq	%r13, %rax
	jne	.LBB25_6
# BB#9:                                 # %if.then2.i
                                        #   in Loop: Header=BB25_2 Depth=1
	movq	32(%r12), %rsi
	xorq	%rax, %rax
	movq	%r14, %rdi
	callq	error
	movq	32(%rbx), %rdi
	xorq	%rax, %rax
	movq	%r15, %rsi
	callq	error_with_decl
	jmp	.LBB25_10
	.align	16, 0x90
.LBB25_12:                              # %for.end.i
                                        #   in Loop: Header=BB25_2 Depth=1
	movq	shadowed_labels(%rip), %rdx
	xorq	%rdi, %rdi
	movq	%r13, %rsi
	callq	tree_cons
	movq	%rax, shadowed_labels(%rip)
	movq	$0, 72(%r12)
.LBB25_10:                              # %tailrecurse.backedge
                                        #   in Loop: Header=BB25_2 Depth=1
	movq	current_function_decl(%rip), %rax
	testq	%rax, %rax
	jne	.LBB25_2
.LBB25_11:                              # %if.then
	movq	32(%r12), %rsi
	movabsq	$.L.str150, %rdi
	xorq	%rax, %rax
	xorq	%r13, %r13
	callq	error
	jmp	.LBB25_14
.LBB25_13:                              # %if.end8
	movq	global_trees+216(%rip), %rdx
	movq	$31, %rdi
	movq	%r12, %rsi
	callq	build_decl
	movq	current_function_decl(%rip), %rcx
	movq	%rax, %r13
	movq	%rcx, 80(%r13)
	andq	$-256, 48(%r13)
	movl	lineno(%rip), %eax
	movl	%eax, 32(%r13)
	movq	input_filename(%rip), %rax
	movq	%rax, 24(%r13)
	movq	%r13, 72(%r12)
	movq	named_labels(%rip), %rdx
	xorq	%rdi, %rdi
	movq	%r13, %rsi
	callq	tree_cons
	movq	%rax, named_labels(%rip)
.LBB25_14:                              # %return
	movq	%r13, %rax
	popq	%rbx
	popq	%r12
	popq	%r13
	popq	%r14
	popq	%r15
	retq
.Ltmp195:
	.size	lookup_label, .Ltmp195-lookup_label
	.cfi_endproc

	.globl	shadow_label
	.align	16, 0x90
	.type	shadow_label,@function
shadow_label:                           # @shadow_label
	.cfi_startproc
# BB#0:                                 # %entry
	pushq	%r14
.Ltmp199:
	.cfi_def_cfa_offset 16
	pushq	%rbx
.Ltmp200:
	.cfi_def_cfa_offset 24
	pushq	%rax
.Ltmp201:
	.cfi_def_cfa_offset 32
.Ltmp202:
	.cfi_offset %rbx, -24
.Ltmp203:
	.cfi_offset %r14, -16
	movq	%rdi, %r14
	movq	72(%r14), %rsi
	testq	%rsi, %rsi
	je	.LBB26_7
# BB#1:                                 # %for.cond.preheader
	movq	named_labels(%rip), %rbx
	jmp	.LBB26_2
	.align	16, 0x90
.LBB26_4:                               # %for.cond
                                        #   in Loop: Header=BB26_2 Depth=1
	movq	(%rbx), %rbx
.LBB26_2:                               # %for.cond.preheader
                                        # =>This Inner Loop Header: Depth=1
	testq	%rbx, %rbx
	je	.LBB26_3
# BB#5:                                 # %for.body
                                        #   in Loop: Header=BB26_2 Depth=1
	movq	32(%rbx), %rax
	cmpq	%rsi, %rax
	jne	.LBB26_4
# BB#6:                                 # %if.then2
	movq	32(%r14), %rsi
	movabsq	$.L.str151, %rdi
	xorq	%rax, %rax
	callq	error
	movq	32(%rbx), %rdi
	movabsq	$.L.str152, %rsi
	xorq	%rax, %rax
	callq	error_with_decl
	jmp	.LBB26_7
.LBB26_3:                               # %for.end
	movq	shadowed_labels(%rip), %rdx
	xorq	%rdi, %rdi
	callq	tree_cons
	movq	%rax, shadowed_labels(%rip)
	movq	$0, 72(%r14)
.LBB26_7:                               # %if.end7
	movq	%r14, %rdi
	addq	$8, %rsp
	popq	%rbx
	popq	%r14
	jmp	lookup_label  # TAILCALL
.Ltmp204:
	.size	shadow_label, .Ltmp204-shadow_label
	.cfi_endproc

	.globl	gettags
	.align	16, 0x90
	.type	gettags,@function
gettags:                                # @gettags
	.cfi_startproc
# BB#0:                                 # %entry
	movq	current_binding_level(%rip), %rax
	movq	8(%rax), %rax
	retq
.Ltmp205:
	.size	gettags, .Ltmp205-gettags
	.cfi_endproc

	.globl	pending_xref_error
	.align	16, 0x90
	.type	pending_xref_error,@function
pending_xref_error:                     # @pending_xref_error
	.cfi_startproc
# BB#0:                                 # %entry
	pushq	%rax
.Ltmp207:
	.cfi_def_cfa_offset 16
	movq	pending_invalid_xref(%rip), %rax
	testq	%rax, %rax
	je	.LBB28_2
# BB#1:                                 # %if.then
	movq	pending_invalid_xref_file(%rip), %rdi
	movq	32(%rax), %rcx
	movl	pending_invalid_xref_line(%rip), %esi
	movabsq	$.L.str155, %rdx
	xorq	%rax, %rax
	callq	error_with_file_and_line
.LBB28_2:                               # %if.end
	movq	$0, pending_invalid_xref(%rip)
	popq	%rax
	retq
.Ltmp208:
	.size	pending_xref_error, .Ltmp208-pending_xref_error
	.cfi_endproc

	.globl	c_init_decl_processing
	.align	16, 0x90
	.type	c_init_decl_processing,@function
c_init_decl_processing:                 # @c_init_decl_processing
	.cfi_startproc
# BB#0:                                 # %entry
	pushq	%r14
.Ltmp212:
	.cfi_def_cfa_offset 16
	pushq	%rbx
.Ltmp213:
	.cfi_def_cfa_offset 24
	pushq	%rax
.Ltmp214:
	.cfi_def_cfa_offset 32
.Ltmp215:
	.cfi_offset %rbx, -24
.Ltmp216:
	.cfi_offset %r14, -16
	callq	c_parse_init
	movq	$0, current_function_decl(%rip)
	cmpq	$0, global_binding_level(%rip)
	movq	$0, named_labels(%rip)
	movq	$0, current_binding_level(%rip)
	movq	$0, free_binding_level(%rip)
	jne	.LBB29_2
# BB#1:                                 # %if.end.i
	movq	$0, named_labels(%rip)
.LBB29_2:                               # %if.end2.i
	movq	$72, %rdi
	callq	xmalloc
	movq	current_binding_level(%rip), %rdx
	xorq	%rcx, %rcx
	testq	%rdx, %rdx
	movq	$0, 64(%rax)
	movq	$0, 56(%rax)
	movq	$0, 48(%rax)
	movq	$0, 40(%rax)
	movq	$0, 32(%rax)
	movq	$0, 24(%rax)
	movq	$0, 16(%rax)
	movq	$0, 8(%rax)
	movq	$0, (%rax)
	movabsq	$0, %rdi
	movabsq	$0, %rsi
	je	.LBB29_7
# BB#3:                                 # %cond.true.i
	movzbl	50(%rdx), %esi
	testq	%rsi, %rsi
	je	.LBB29_4
# BB#5:                                 # %cond.true.i
	movabsq	$1, %rsi
	jmp	.LBB29_6
.LBB29_4:
	movabsq	$0, %rsi
.LBB29_6:                               # %cond.true.i
	movq	%rdx, %rdi
.LBB29_7:                               # %pushlevel.exit
	movb	%sil, 49(%rax)
	movq	%rdi, 40(%rax)
	movq	%rax, current_binding_level(%rip)
	movzbl	keep_next_level_flag(%rip), %edx
	movb	%dl, 51(%rax)
	movb	%cl, keep_next_level_flag(%rip)
	movzbl	keep_next_if_subblocks(%rip), %edx
	movl	flag_signed_char(%rip), %edi
	movb	%dl, 52(%rax)
	movb	%cl, keep_next_if_subblocks(%rip)
	movq	%rax, global_binding_level(%rip)
	callq	build_common_tree_nodes
	callq	c_common_nodes_and_builtins
	movq	integer_types+40(%rip), %rax
	movq	global_trees+96(%rip), %rcx
	movq	global_trees+88(%rip), %rdx
	movq	%rax, c_global_trees+128(%rip)
	movq	%rcx, c_global_trees+136(%rip)
	movq	%rdx, c_global_trees+144(%rip)
	movq	$8, %rdi
	callq	make_unsigned_type
	movq	%rax, c_global_trees+152(%rip)
	movq	$11, %rcx
	movb	%cl, 16(%rax)
	movq	$1, %rdi
	xorq	%rsi, %rsi
	callq	build_int_2_wide
	movq	c_global_trees+152(%rip), %rcx
	movq	%rax, 112(%rcx)
	movq	c_global_trees+152(%rip), %rax
	movq	112(%rax), %rcx
	movq	%rax, 8(%rcx)
	movq	c_global_trees+152(%rip), %rax
	movl	60(%rax), %ecx
	movabsq	$4294966784, %rdx       # imm = 0xFFFFFE00
	andq	%rcx, %rdx
	orq	$1, %rdx
	movl	%edx, 60(%rax)
	movabsq	$.L.str156, %rdi
	callq	get_identifier
	movq	c_global_trees+152(%rip), %rdx
	movq	$33, %rdi
	movq	%rax, %rsi
	callq	build_decl
	movq	%rax, %rdi
	callq	pushdecl
	xorq	%rdi, %rdi
	xorq	%rsi, %rsi
	callq	build_int_2_wide
	movq	%rax, c_global_trees+168(%rip)
	movq	c_global_trees+152(%rip), %rcx
	movq	%rcx, 8(%rax)
	movq	$1, %rdi
	xorq	%rsi, %rsi
	callq	build_int_2_wide
	movq	%rax, c_global_trees+160(%rip)
	movq	c_global_trees+152(%rip), %rcx
	movq	%rcx, 8(%rax)
	movq	global_trees+256(%rip), %r14
	movq	global_trees+224(%rip), %rdi
	movq	%r14, %rsi
	callq	build_function_type
	movq	global_trees+224(%rip), %rbx
	xorq	%rdi, %rdi
	movq	%rbx, %rsi
	movq	%r14, %rdx
	callq	tree_cons
	movq	%rbx, %rdi
	movq	%rax, %rsi
	callq	build_function_type
	movq	global_trees+192(%rip), %rcx
	movq	integer_types+56(%rip), %rax
	movl	60(%rcx), %esi
	movl	60(%rax), %edx
	andq	$511, %rsi              # imm = 0x1FF
	andq	$511, %rdx              # imm = 0x1FF
	cmpq	%rdx, %rsi
	jne	.LBB29_9
# BB#8:
	movabsq	$integer_types+64, %rsi
	movq	%rax, %rdx
	jmp	.LBB29_11
.LBB29_9:                               # %if.else
	movq	integer_types+40(%rip), %rdx
	movl	60(%rdx), %edi
	andq	$511, %rdi              # imm = 0x1FF
	movabsq	$4294967295, %rbx       # imm = 0xFFFFFFFF
	andq	%rbx, %rsi
	cmpq	%rdi, %rsi
	jne	.LBB29_20
# BB#10:
	movabsq	$integer_types+48, %rsi
.LBB29_11:                              # %if.end41
	movq	(%rsi), %rsi
	movq	%rdx, c_global_trees+184(%rip)
	testq	%rdx, %rdx
	movq	%rsi, c_global_trees+192(%rip)
	je	.LBB29_13
# BB#12:                                # %if.then43
	movabsq	$.L.str157, %rdi
	callq	get_identifier
	movq	c_global_trees+184(%rip), %rdx
	movq	$33, %rdi
	movq	%rax, %rsi
	callq	build_decl
	movq	%rax, %rdi
	callq	pushdecl
	movabsq	$.L.str158, %rdi
	callq	get_identifier
	movq	c_global_trees+192(%rip), %rdx
	movq	$33, %rdi
	movq	%rax, %rsi
	callq	build_decl
	movq	%rax, %rdi
	callq	pushdecl
	movq	global_trees+192(%rip), %rcx
	movq	integer_types+56(%rip), %rax
	jmp	.LBB29_13
.LBB29_20:                              # %if.end41.thread
	movq	$0, c_global_trees+192(%rip)
	movq	$0, c_global_trees+184(%rip)
.LBB29_13:                              # %if.end50
	movl	60(%rcx), %ecx
	movl	60(%rax), %edx
	addq	%rcx, %rcx
	andq	$1022, %rcx             # imm = 0x3FE
	andq	$511, %rdx              # imm = 0x1FF
	cmpq	%rdx, %rcx
	jne	.LBB29_15
# BB#14:
	movabsq	$integer_types+64, %rcx
	jmp	.LBB29_17
.LBB29_15:                              # %if.else61
	movq	integer_types+72(%rip), %rax
	movl	60(%rax), %edx
	andq	$511, %rdx              # imm = 0x1FF
	movabsq	$4294967295, %rsi       # imm = 0xFFFFFFFF
	andq	%rsi, %rcx
	cmpq	%rdx, %rcx
	jne	.LBB29_21
# BB#16:
	movabsq	$integer_types+80, %rcx
.LBB29_17:                              # %if.end75
	movq	(%rcx), %rcx
	movq	%rax, c_global_trees+200(%rip)
	testq	%rax, %rax
	movq	%rcx, c_global_trees+208(%rip)
	je	.LBB29_19
# BB#18:                                # %if.then77
	movabsq	$.L.str159, %rdi
	callq	get_identifier
	movq	c_global_trees+200(%rip), %rdx
	movq	$33, %rdi
	movq	%rax, %rsi
	callq	build_decl
	movq	%rax, %rdi
	callq	pushdecl
	movabsq	$.L.str160, %rdi
	callq	get_identifier
	movq	c_global_trees+208(%rip), %rdx
	movq	$33, %rdi
	movq	%rax, %rsi
	callq	build_decl
	movq	%rax, %rdi
	callq	pushdecl
	jmp	.LBB29_19
.LBB29_21:                              # %if.end75.thread
	movq	$0, c_global_trees+208(%rip)
	movq	$0, c_global_trees+200(%rip)
.LBB29_19:                              # %if.end84
	movl	pedantic(%rip), %eax
	movl	%eax, pedantic_lvalues(%rip)
	movq	$c_make_fname_decl, make_fname_decl(%rip)
	callq	start_fname_decls
	movq	$finish_incomplete_decl, incomplete_decl_finalize_hook(%rip)
	movabsq	$c_global_trees, %rdi
	movq	$32, %rsi
	callq	ggc_add_tree_root
	movabsq	$c_stmt_tree, %rdi
	movabsq	$mark_stmt_tree, %rcx
	movq	$1, %rsi
	movq	$32, %rdx
	callq	ggc_add_root
	movabsq	$c_scope_stmt_stack, %rdi
	movq	$1, %rsi
	callq	ggc_add_tree_root
	movabsq	$named_labels, %rdi
	movq	$1, %rsi
	callq	ggc_add_tree_root
	movabsq	$shadowed_labels, %rdi
	movq	$1, %rsi
	callq	ggc_add_tree_root
	movabsq	$current_binding_level, %rdi
	movabsq	$mark_binding_level, %rbx
	movq	$1, %rsi
	movq	$8, %rdx
	movq	%rbx, %rcx
	callq	ggc_add_root
	movabsq	$label_level_chain, %rdi
	movq	$1, %rsi
	movq	$8, %rdx
	movq	%rbx, %rcx
	callq	ggc_add_root
	movabsq	$static_ctors, %rdi
	movq	$1, %rsi
	callq	ggc_add_tree_root
	movabsq	$static_dtors, %rdi
	movq	$1, %rsi
	addq	$8, %rsp
	popq	%rbx
	popq	%r14
	jmp	ggc_add_tree_root  # TAILCALL
.Ltmp217:
	.size	c_init_decl_processing, .Ltmp217-c_init_decl_processing
	.cfi_endproc

	.align	16, 0x90
	.type	c_make_fname_decl,@function
c_make_fname_decl:                      # @c_make_fname_decl
	.cfi_startproc
# BB#0:                                 # %entry
	pushq	%r15
.Ltmp224:
	.cfi_def_cfa_offset 16
	pushq	%r14
.Ltmp225:
	.cfi_def_cfa_offset 24
	pushq	%r13
.Ltmp226:
	.cfi_def_cfa_offset 32
	pushq	%r12
.Ltmp227:
	.cfi_def_cfa_offset 40
	pushq	%rbx
.Ltmp228:
	.cfi_def_cfa_offset 48
.Ltmp229:
	.cfi_offset %rbx, -48
.Ltmp230:
	.cfi_offset %r12, -40
.Ltmp231:
	.cfi_offset %r13, -32
.Ltmp232:
	.cfi_offset %r14, -24
.Ltmp233:
	.cfi_offset %r15, -16
	movq	%rdi, %r15
	movq	%rsi, %rdi
	callq	fname_as_string
	movq	%rax, %r14
	movq	%r14, %rdi
	callq	strlen
	movq	integer_types(%rip), %rdi
	movq	%rax, %r12
	movq	$1, %rsi
	callq	build_qualified_type
	movq	%rax, %rbx
	xorq	%rsi, %rsi
	movq	%r12, %rdi
	callq	size_int_wide
	movq	%rax, %rdi
	callq	build_index_type
	movq	%rbx, %rdi
	movq	%rax, %rsi
	callq	build_array_type
	movq	%rax, %r13
	movq	$34, %rdi
	movq	%r15, %rsi
	movq	%r13, %rdx
	callq	build_decl
	movq	current_function_decl(%rip), %rcx
	movq	%rax, %rbx
	movq	%rcx, 80(%rbx)
	movl	16(%rbx), %eax
	orq	$266240, %rax           # imm = 0x41000
	movl	%eax, 16(%rbx)
	orq	$4194304, 48(%rbx)      # imm = 0x400000
	leaq	1(%r12), %rdi
	movq	%r14, %rsi
	callq	build_string
	movq	%r13, 8(%rax)
	movq	%rax, 104(%rbx)
	movl	16(%rbx), %ecx
	orq	$65536, %rcx            # imm = 0x10000
	movl	%ecx, 16(%rbx)
	xorq	%rdx, %rdx
	movq	%rbx, %rdi
	movq	%rax, %rsi
	callq	finish_decl
	movq	%rbx, %rax
	popq	%rbx
	popq	%r12
	popq	%r13
	popq	%r14
	popq	%r15
	retq
.Ltmp234:
	.size	c_make_fname_decl, .Ltmp234-c_make_fname_decl
	.cfi_endproc

	.align	16, 0x90
	.type	mark_binding_level,@function
mark_binding_level:                     # @mark_binding_level
	.cfi_startproc
# BB#0:                                 # %entry
	pushq	%r15
.Ltmp239:
	.cfi_def_cfa_offset 16
	pushq	%r14
.Ltmp240:
	.cfi_def_cfa_offset 24
	pushq	%rbx
.Ltmp241:
	.cfi_def_cfa_offset 32
.Ltmp242:
	.cfi_offset %rbx, -32
.Ltmp243:
	.cfi_offset %r14, -24
.Ltmp244:
	.cfi_offset %r15, -16
	movq	(%rdi), %rbx
	testq	%rbx, %rbx
	je	.LBB31_33
# BB#1:
	movabsq	$4294967295, %r15       # imm = 0xFFFFFFFF
	.align	16, 0x90
.LBB31_2:                               # %do.body
                                        # =>This Inner Loop Header: Depth=1
	movq	(%rbx), %r14
	testq	%r14, %r14
	je	.LBB31_7
# BB#3:                                 # %land.lhs.true
                                        #   in Loop: Header=BB31_2 Depth=1
	movq	%r14, %rdi
	callq	ggc_set_mark
	testq	%r15, %rax
	jne	.LBB31_7
# BB#4:                                 # %do.body2
                                        #   in Loop: Header=BB31_2 Depth=1
	movq	ggc_pending_trees(%rip), %rax
	movq	(%rax), %rsi
	movq	8(%rax), %rcx
	cmpq	%rsi, %rcx
	jb	.LBB31_6
# BB#5:                                 # %if.then4
                                        #   in Loop: Header=BB31_2 Depth=1
	addq	%rsi, %rsi
	movq	%rax, %rdi
	callq	varray_grow
	movq	%rax, ggc_pending_trees(%rip)
	movq	8(%rax), %rcx
.LBB31_6:                               # %if.end
                                        #   in Loop: Header=BB31_2 Depth=1
	leaq	1(%rcx), %rdx
	movq	%rdx, 8(%rax)
	movq	%r14, 32(%rax,%rcx,8)
.LBB31_7:                               # %do.body10
                                        #   in Loop: Header=BB31_2 Depth=1
	movq	8(%rbx), %r14
	testq	%r14, %r14
	je	.LBB31_12
# BB#8:                                 # %land.lhs.true13
                                        #   in Loop: Header=BB31_2 Depth=1
	movq	%r14, %rdi
	callq	ggc_set_mark
	testq	%r15, %rax
	jne	.LBB31_12
# BB#9:                                 # %do.body17
                                        #   in Loop: Header=BB31_2 Depth=1
	movq	ggc_pending_trees(%rip), %rax
	movq	(%rax), %rsi
	movq	8(%rax), %rcx
	cmpq	%rsi, %rcx
	jb	.LBB31_11
# BB#10:                                # %if.then21
                                        #   in Loop: Header=BB31_2 Depth=1
	addq	%rsi, %rsi
	movq	%rax, %rdi
	callq	varray_grow
	movq	%rax, ggc_pending_trees(%rip)
	movq	8(%rax), %rcx
.LBB31_11:                              # %if.end25
                                        #   in Loop: Header=BB31_2 Depth=1
	leaq	1(%rcx), %rdx
	movq	%rdx, 8(%rax)
	movq	%r14, 32(%rax,%rcx,8)
.LBB31_12:                              # %do.body34
                                        #   in Loop: Header=BB31_2 Depth=1
	movq	16(%rbx), %r14
	testq	%r14, %r14
	je	.LBB31_17
# BB#13:                                # %land.lhs.true37
                                        #   in Loop: Header=BB31_2 Depth=1
	movq	%r14, %rdi
	callq	ggc_set_mark
	testq	%r15, %rax
	jne	.LBB31_17
# BB#14:                                # %do.body41
                                        #   in Loop: Header=BB31_2 Depth=1
	movq	ggc_pending_trees(%rip), %rax
	movq	(%rax), %rsi
	movq	8(%rax), %rcx
	cmpq	%rsi, %rcx
	jb	.LBB31_16
# BB#15:                                # %if.then45
                                        #   in Loop: Header=BB31_2 Depth=1
	addq	%rsi, %rsi
	movq	%rax, %rdi
	callq	varray_grow
	movq	%rax, ggc_pending_trees(%rip)
	movq	8(%rax), %rcx
.LBB31_16:                              # %if.end49
                                        #   in Loop: Header=BB31_2 Depth=1
	leaq	1(%rcx), %rdx
	movq	%rdx, 8(%rax)
	movq	%r14, 32(%rax,%rcx,8)
.LBB31_17:                              # %do.body58
                                        #   in Loop: Header=BB31_2 Depth=1
	movq	24(%rbx), %r14
	testq	%r14, %r14
	je	.LBB31_22
# BB#18:                                # %land.lhs.true61
                                        #   in Loop: Header=BB31_2 Depth=1
	movq	%r14, %rdi
	callq	ggc_set_mark
	testq	%r15, %rax
	jne	.LBB31_22
# BB#19:                                # %do.body65
                                        #   in Loop: Header=BB31_2 Depth=1
	movq	ggc_pending_trees(%rip), %rax
	movq	(%rax), %rsi
	movq	8(%rax), %rcx
	cmpq	%rsi, %rcx
	jb	.LBB31_21
# BB#20:                                # %if.then69
                                        #   in Loop: Header=BB31_2 Depth=1
	addq	%rsi, %rsi
	movq	%rax, %rdi
	callq	varray_grow
	movq	%rax, ggc_pending_trees(%rip)
	movq	8(%rax), %rcx
.LBB31_21:                              # %if.end73
                                        #   in Loop: Header=BB31_2 Depth=1
	leaq	1(%rcx), %rdx
	movq	%rdx, 8(%rax)
	movq	%r14, 32(%rax,%rcx,8)
.LBB31_22:                              # %do.body82
                                        #   in Loop: Header=BB31_2 Depth=1
	movq	32(%rbx), %r14
	testq	%r14, %r14
	je	.LBB31_27
# BB#23:                                # %land.lhs.true85
                                        #   in Loop: Header=BB31_2 Depth=1
	movq	%r14, %rdi
	callq	ggc_set_mark
	testq	%r15, %rax
	jne	.LBB31_27
# BB#24:                                # %do.body89
                                        #   in Loop: Header=BB31_2 Depth=1
	movq	ggc_pending_trees(%rip), %rax
	movq	(%rax), %rsi
	movq	8(%rax), %rcx
	cmpq	%rsi, %rcx
	jb	.LBB31_26
# BB#25:                                # %if.then93
                                        #   in Loop: Header=BB31_2 Depth=1
	addq	%rsi, %rsi
	movq	%rax, %rdi
	callq	varray_grow
	movq	%rax, ggc_pending_trees(%rip)
	movq	8(%rax), %rcx
.LBB31_26:                              # %if.end97
                                        #   in Loop: Header=BB31_2 Depth=1
	leaq	1(%rcx), %rdx
	movq	%rdx, 8(%rax)
	movq	%r14, 32(%rax,%rcx,8)
.LBB31_27:                              # %do.body106
                                        #   in Loop: Header=BB31_2 Depth=1
	movq	64(%rbx), %r14
	testq	%r14, %r14
	je	.LBB31_32
# BB#28:                                # %land.lhs.true109
                                        #   in Loop: Header=BB31_2 Depth=1
	movq	%r14, %rdi
	callq	ggc_set_mark
	testq	%r15, %rax
	jne	.LBB31_32
# BB#29:                                # %do.body113
                                        #   in Loop: Header=BB31_2 Depth=1
	movq	ggc_pending_trees(%rip), %rax
	movq	(%rax), %rsi
	movq	8(%rax), %rcx
	cmpq	%rsi, %rcx
	jb	.LBB31_31
# BB#30:                                # %if.then117
                                        #   in Loop: Header=BB31_2 Depth=1
	addq	%rsi, %rsi
	movq	%rax, %rdi
	callq	varray_grow
	movq	%rax, ggc_pending_trees(%rip)
	movq	8(%rax), %rcx
.LBB31_31:                              # %if.end121
                                        #   in Loop: Header=BB31_2 Depth=1
	leaq	1(%rcx), %rdx
	movq	%rdx, 8(%rax)
	movq	%r14, 32(%rax,%rcx,8)
.LBB31_32:                              # %for.inc
                                        #   in Loop: Header=BB31_2 Depth=1
	movq	40(%rbx), %rbx
	testq	%rbx, %rbx
	jne	.LBB31_2
.LBB31_33:                              # %for.end
	popq	%rbx
	popq	%r14
	popq	%r15
	retq
.Ltmp245:
	.size	mark_binding_level, .Ltmp245-mark_binding_level
	.cfi_endproc

	.globl	builtin_function
	.align	16, 0x90
	.type	builtin_function,@function
builtin_function:                       # @builtin_function
	.cfi_startproc
# BB#0:                                 # %entry
	pushq	%r15
.Ltmp252:
	.cfi_def_cfa_offset 16
	pushq	%r14
.Ltmp253:
	.cfi_def_cfa_offset 24
	pushq	%r13
.Ltmp254:
	.cfi_def_cfa_offset 32
	pushq	%r12
.Ltmp255:
	.cfi_def_cfa_offset 40
	pushq	%rbx
.Ltmp256:
	.cfi_def_cfa_offset 48
	subq	$16, %rsp
.Ltmp257:
	.cfi_def_cfa_offset 64
.Ltmp258:
	.cfi_offset %rbx, -48
.Ltmp259:
	.cfi_offset %r12, -40
.Ltmp260:
	.cfi_offset %r13, -32
.Ltmp261:
	.cfi_offset %r14, -24
.Ltmp262:
	.cfi_offset %r15, -16
	movq	%r8, %r12
	movq	%rcx, %r14
	movq	%rdx, (%rsp)            # 8-byte Spill
	movq	%rsi, %r13
	movq	%rdi, %r15
                                        # kill: RDI<def> R15<kill>
	callq	get_identifier
	movq	$30, %rdi
	movq	%rax, %rsi
	movq	%r13, %rdx
	callq	build_decl
	movq	%rax, 8(%rsp)
	orq	$256, 48(%rax)          # imm = 0x100
	movq	8(%rsp), %rax
	movl	16(%rax), %ecx
	orq	$524288, %rcx           # imm = 0x80000
	movl	%ecx, 16(%rax)
	movl	flag_traditional(%rip), %eax
	testq	%rax, %rax
	je	.LBB32_3
# BB#1:                                 # %land.lhs.true
	movzbl	(%r15), %eax
	cmpq	$95, %rax
	je	.LBB32_3
# BB#2:                                 # %if.then
	movq	8(%rsp), %rax
	movl	16(%rax), %ecx
	orq	$8192, %rcx             # imm = 0x2000
	movl	%ecx, 16(%rax)
.LBB32_3:                               # %if.end
	testq	%r12, %r12
	je	.LBB32_5
# BB#4:                                 # %if.then12
	movq	%r12, %rdi
	callq	get_identifier
	movq	8(%rsp), %rcx
	movq	%rax, 120(%rcx)
.LBB32_5:                               # %if.end15
	movq	8(%rsp), %rbx
	xorq	%rsi, %rsi
	movq	%rbx, %rdi
	callq	make_decl_rtl
	movq	%rbx, %rdi
	callq	pushdecl
	movq	48(%rbx), %rax
	andq	$3, %r14
	shlq	$29, %r14
	andq	$-1610612737, %rax      # imm = 0xFFFFFFFF9FFFFFFF
	orq	%r14, %rax
	movq	%rax, 48(%rbx)
	movq	8(%rsp), %rax
	movq	(%rsp), %rcx            # 8-byte Reload
	movl	%ecx, 56(%rax)
	movabsq	$4294967295, %rax       # imm = 0xFFFFFFFF
	andq	%rcx, %rax
	cmpq	$57, %rax
	je	.LBB32_7
# BB#6:                                 # %if.end15
	cmpq	$88, %rax
	jne	.LBB32_8
.LBB32_7:                               # %if.then26
	movq	8(%rsp), %rax
	movl	16(%rax), %ecx
	orq	$2048, %rcx             # imm = 0x800
	movl	%ecx, 16(%rax)
.LBB32_8:                               # %if.end31
	movzbl	(%r15), %eax
	cmpq	$95, %rax
	jne	.LBB32_10
# BB#9:                                 # %lor.lhs.false36
	movzbl	1(%r15), %eax
	cmpq	$95, %rax
	je	.LBB32_11
.LBB32_10:                              # %if.then41
	movq	8(%rsp), %rax
	movabsq	$1099511627776, %rcx    # imm = 0x10000000000
	orq	%rcx, 48(%rax)
.LBB32_11:                              # %if.end46
	leaq	8(%rsp), %rdi
	xorq	%rsi, %rsi
	xorq	%rdx, %rdx
	callq	decl_attributes
	movq	8(%rsp), %rax
	addq	$16, %rsp
	popq	%rbx
	popq	%r12
	popq	%r13
	popq	%r14
	popq	%r15
	retq
.Ltmp263:
	.size	builtin_function, .Ltmp263-builtin_function
	.cfi_endproc

	.globl	insert_default_attributes
	.align	16, 0x90
	.type	insert_default_attributes,@function
insert_default_attributes:              # @insert_default_attributes
	.cfi_startproc
# BB#0:                                 # %entry
	movzbl	18(%rdi), %eax
	testq	$8, %rax
	je	.LBB33_1
# BB#2:                                 # %if.end
	jmp	c_common_insert_default_attributes  # TAILCALL
.LBB33_1:                               # %return
	retq
.Ltmp264:
	.size	insert_default_attributes, .Ltmp264-insert_default_attributes
	.cfi_endproc

	.globl	shadow_tag
	.align	16, 0x90
	.type	shadow_tag,@function
shadow_tag:                             # @shadow_tag
	.cfi_startproc
# BB#0:                                 # %entry
	xorq	%rsi, %rsi
	jmp	shadow_tag_warned  # TAILCALL
.Ltmp265:
	.size	shadow_tag, .Ltmp265-shadow_tag
	.cfi_endproc

	.globl	shadow_tag_warned
	.align	16, 0x90
	.type	shadow_tag_warned,@function
shadow_tag_warned:                      # @shadow_tag_warned
	.cfi_startproc
# BB#0:                                 # %entry
	pushq	%r15
.Ltmp272:
	.cfi_def_cfa_offset 16
	pushq	%r14
.Ltmp273:
	.cfi_def_cfa_offset 24
	pushq	%r13
.Ltmp274:
	.cfi_def_cfa_offset 32
	pushq	%r12
.Ltmp275:
	.cfi_def_cfa_offset 40
	pushq	%rbx
.Ltmp276:
	.cfi_def_cfa_offset 48
	subq	$32, %rsp
.Ltmp277:
	.cfi_def_cfa_offset 80
.Ltmp278:
	.cfi_offset %rbx, -48
.Ltmp279:
	.cfi_offset %r12, -40
.Ltmp280:
	.cfi_offset %r13, -32
.Ltmp281:
	.cfi_offset %r14, -24
.Ltmp282:
	.cfi_offset %r15, -16
	movq	%rsi, %r13
	movq	$0, pending_invalid_xref(%rip)
	leaq	24(%rsp), %rsi
	leaq	16(%rsp), %rdx
	callq	split_specs_attrs
	movq	24(%rsp), %r12
	xorq	%rbx, %rbx
	testq	%r12, %r12
	je	.LBB35_34
# BB#1:
	movq	$0, 8(%rsp)             # 8-byte Folded Spill
	.align	16, 0x90
.LBB35_2:                               # %for.body
                                        # =>This Loop Header: Depth=1
                                        #     Child Loop BB35_5 Depth 2
                                        #       Child Loop BB35_7 Depth 3
                                        #     Child Loop BB35_10 Depth 2
                                        #       Child Loop BB35_17 Depth 3
                                        #     Child Loop BB35_25 Depth 2
	movq	32(%r12), %rcx
	movl	16(%rcx), %eax
	movq	%rax, %rbx
	andq	$255, %rbx
	andq	$254, %rax
	cmpq	$20, %rax
	je	.LBB35_4
# BB#3:                                 # %for.body
                                        #   in Loop: Header=BB35_2 Depth=1
	cmpq	$10, %rbx
	je	.LBB35_4
# BB#29:                                # %if.else17
                                        #   in Loop: Header=BB35_2 Depth=1
	movl	in_system_header(%rip), %eax
	orq	%r13, %rax
	movabsq	$4294967295, %rcx       # imm = 0xFFFFFFFF
	testq	%rcx, %rax
	jne	.LBB35_31
# BB#30:                                # %if.then21
                                        #   in Loop: Header=BB35_2 Depth=1
	xorq	%rax, %rax
	movabsq	$.L.str162, %rdi
	callq	warning
	movq	$2, %r13
	jmp	.LBB35_31
	.align	16, 0x90
.LBB35_4:                               # %if.then
                                        #   in Loop: Header=BB35_2 Depth=1
	movq	current_binding_level(%rip), %rax
	testq	%rax, %rax
	movq	%rax, %rdx
	je	.LBB35_12
.LBB35_5:                               # %for.body.i
                                        #   Parent Loop BB35_2 Depth=1
                                        # =>  This Loop Header: Depth=2
                                        #       Child Loop BB35_7 Depth 3
	movq	8(%rdx), %rsi
	jmp	.LBB35_7
	.align	16, 0x90
.LBB35_6:                               # %for.cond1.i
                                        #   in Loop: Header=BB35_7 Depth=3
	movq	(%rsi), %rsi
.LBB35_7:                               # %for.cond1.i
                                        #   Parent Loop BB35_2 Depth=1
                                        #     Parent Loop BB35_5 Depth=2
                                        # =>    This Inner Loop Header: Depth=3
	testq	%rsi, %rsi
	je	.LBB35_11
# BB#8:                                 # %for.body3.i
                                        #   in Loop: Header=BB35_7 Depth=3
	movq	32(%rsi), %rdi
	cmpq	%rcx, %rdi
	jne	.LBB35_6
	jmp	.LBB35_9
	.align	16, 0x90
.LBB35_11:                              # %for.inc5.i
                                        #   in Loop: Header=BB35_5 Depth=2
	movq	40(%rdx), %rdx
	testq	%rdx, %rdx
	jne	.LBB35_5
	.align	16, 0x90
.LBB35_12:                              # %lookup_tag_reverse.exit.thread
                                        #   in Loop: Header=BB35_2 Depth=1
	incq	8(%rsp)                 # 8-byte Folded Spill
	jmp	.LBB35_13
	.align	16, 0x90
.LBB35_9:                               # %lookup_tag_reverse.exit
                                        #   in Loop: Header=BB35_2 Depth=1
	movq	24(%rsi), %r15
	incq	8(%rsp)                 # 8-byte Folded Spill
	testq	%r15, %r15
	jne	.LBB35_10
.LBB35_13:                              # %if.then7
                                        #   in Loop: Header=BB35_2 Depth=1
	movq	%r13, %rax
	movabsq	$4294967295, %rcx       # imm = 0xFFFFFFFF
	andq	%rcx, %rax
	cmpq	$1, %rax
	je	.LBB35_31
# BB#14:                                # %if.then7
                                        #   in Loop: Header=BB35_2 Depth=1
	cmpq	$10, %rbx
	je	.LBB35_31
# BB#15:                                # %if.then10
                                        #   in Loop: Header=BB35_2 Depth=1
	xorq	%rax, %rax
	movabsq	$.L.str161, %rdi
	callq	pedwarn
	movq	$1, %r13
	jmp	.LBB35_31
	.align	16, 0x90
.LBB35_10:                              # %for.body.i60
                                        #   Parent Loop BB35_2 Depth=1
                                        # =>  This Loop Header: Depth=2
                                        #       Child Loop BB35_17 Depth 3
	movq	8(%rax), %r14
	jmp	.LBB35_17
	.align	16, 0x90
.LBB35_16:                              # %for.cond1.i64
                                        #   in Loop: Header=BB35_17 Depth=3
	movq	(%r14), %r14
.LBB35_17:                              # %for.cond1.i64
                                        #   Parent Loop BB35_2 Depth=1
                                        #     Parent Loop BB35_10 Depth=2
                                        # =>    This Inner Loop Header: Depth=3
	testq	%r14, %r14
	je	.LBB35_22
# BB#18:                                # %for.body3.i67
                                        #   in Loop: Header=BB35_17 Depth=3
	movq	24(%r14), %rcx
	cmpq	%r15, %rcx
	jne	.LBB35_16
	jmp	.LBB35_19
	.align	16, 0x90
.LBB35_22:                              # %for.end.i71
                                        #   in Loop: Header=BB35_10 Depth=2
	movzbl	49(%rax), %ecx
	testq	%rcx, %rcx
	je	.LBB35_24
# BB#23:                                # %for.inc21.i
                                        #   in Loop: Header=BB35_10 Depth=2
	movq	40(%rax), %rax
	testq	%rax, %rax
	jne	.LBB35_10
	jmp	.LBB35_24
.LBB35_19:                              # %if.then.i69
                                        #   in Loop: Header=BB35_2 Depth=1
	movq	32(%r14), %rax
	movzbl	16(%rax), %ecx
	cmpq	%rbx, %rcx
	je	.LBB35_21
# BB#20:                                # %pending_xref_error.exit.i
                                        #   in Loop: Header=BB35_2 Depth=1
	movq	input_filename(%rip), %rdi
	movl	lineno(%rip), %esi
	movq	%r15, pending_invalid_xref(%rip)
	movq	%rdi, pending_invalid_xref_file(%rip)
	movl	%esi, pending_invalid_xref_line(%rip)
	movq	32(%r15), %rcx
	xorq	%rax, %rax
	movabsq	$.L.str155, %rdx
	callq	error_with_file_and_line
	movq	$0, pending_invalid_xref(%rip)
	movq	32(%r14), %rax
.LBB35_21:                              # %lookup_tag.exit
                                        #   in Loop: Header=BB35_2 Depth=1
	testq	%rax, %rax
	jne	.LBB35_31
.LBB35_24:                              # %if.then13
                                        #   in Loop: Header=BB35_2 Depth=1
	movq	%rbx, %rdi
	callq	make_node
	movq	%rax, %r14
	movabsq	$current_binding_level, %rax
	.align	16, 0x90
.LBB35_25:                              # %for.cond.i
                                        #   Parent Loop BB35_2 Depth=1
                                        # =>  This Inner Loop Header: Depth=2
	movq	(%rax), %rbx
	movzbl	49(%rbx), %ecx
	leaq	40(%rbx), %rax
	testq	%rcx, %rcx
	jne	.LBB35_25
# BB#26:                                # %if.then.i56
                                        #   in Loop: Header=BB35_2 Depth=1
	cmpq	$0, 96(%r14)
	jne	.LBB35_28
# BB#27:                                # %if.then4.i
                                        #   in Loop: Header=BB35_2 Depth=1
	movq	%r15, 96(%r14)
.LBB35_28:                              # %pushtag.exit
                                        #   in Loop: Header=BB35_2 Depth=1
	movq	8(%rbx), %rdx
	movq	%r15, %rdi
	movq	%r14, %rsi
	callq	tree_cons
	movq	%rax, 8(%rbx)
	movq	$33, %rdi
	xorq	%rsi, %rsi
	movq	%r14, %rdx
	callq	build_decl
	movq	%rax, %rdi
	callq	pushdecl
	movq	%rax, (%r14)
	movq	80(%rax), %rax
	movq	%rax, 144(%r14)
	.align	16, 0x90
.LBB35_31:                              # %for.inc
                                        #   in Loop: Header=BB35_2 Depth=1
	movq	(%r12), %r12
	testq	%r12, %r12
	jne	.LBB35_2
# BB#32:                                # %for.end
	movq	$32, %rcx
	movq	8(%rsp), %rbx           # 8-byte Reload
	movq	%rbx, %rax
	shlq	%cl, %rax
	movq	$32, %rcx
	sarq	%cl, %rax
	cmpq	$2, %rax
	jl	.LBB35_34
# BB#33:                                # %if.then26
	movabsq	$.L.str163, %rdi
	xorq	%rax, %rax
	callq	error
.LBB35_34:                              # %if.end27
	movabsq	$4294967295, %rax       # imm = 0xFFFFFFFF
	andq	%rax, %r13
	cmpq	$1, %r13
	je	.LBB35_37
# BB#35:                                # %if.end27
	testq	%rax, %rbx
	jne	.LBB35_37
# BB#36:                                # %if.then31
	movabsq	$.L.str164, %rdi
	xorq	%rax, %rax
	callq	pedwarn
.LBB35_37:                              # %if.end33
	addq	$32, %rsp
	popq	%rbx
	popq	%r12
	popq	%r13
	popq	%r14
	popq	%r15
	retq
.Ltmp283:
	.size	shadow_tag_warned, .Ltmp283-shadow_tag_warned
	.cfi_endproc

	.globl	build_array_declarator
	.align	16, 0x90
	.type	build_array_declarator,@function
build_array_declarator:                 # @build_array_declarator
	.cfi_startproc
# BB#0:                                 # %entry
	pushq	%r15
.Ltmp290:
	.cfi_def_cfa_offset 16
	pushq	%r14
.Ltmp291:
	.cfi_def_cfa_offset 24
	pushq	%r13
.Ltmp292:
	.cfi_def_cfa_offset 32
	pushq	%r12
.Ltmp293:
	.cfi_def_cfa_offset 40
	pushq	%rbx
.Ltmp294:
	.cfi_def_cfa_offset 48
.Ltmp295:
	.cfi_offset %rbx, -48
.Ltmp296:
	.cfi_offset %r12, -40
.Ltmp297:
	.cfi_offset %r13, -32
.Ltmp298:
	.cfi_offset %r14, -24
.Ltmp299:
	.cfi_offset %r15, -16
	movq	%rcx, %r14
	movq	%rdx, %r12
	movq	%rsi, %r15
	movq	%rdi, %rcx
	movq	$43, %rdi
	xorq	%rsi, %rsi
	xorq	%rax, %rax
	movq	%rcx, %rdx
	callq	build_nt
	movq	%rax, %rbx
	movabsq	$4294967295, %r13       # imm = 0xFFFFFFFF
	testq	%r13, %r12
	movq	%r15, 8(%rbx)
	je	.LBB36_1
# BB#2:                                 # %entry
	movabsq	$1, %rax
	jmp	.LBB36_3
.LBB36_1:
	movabsq	$0, %rax
.LBB36_3:                               # %entry
	movl	16(%rbx), %edx
	movq	$18, %rcx
	shlq	%cl, %rax
	movabsq	$4294705151, %rcx       # imm = 0xFFFBFFFF
	andq	%rdx, %rcx
	orq	%rax, %rcx
	movl	%ecx, 16(%rbx)
	movl	pedantic(%rip), %eax
	testq	%rax, %rax
	je	.LBB36_10
# BB#4:                                 # %entry
	movl	flag_isoc99(%rip), %eax
	testq	%r13, %rax
	jne	.LBB36_10
# BB#5:                                 # %if.then
	testq	%r13, %r12
	jne	.LBB36_7
# BB#6:                                 # %if.then
	testq	%r15, %r15
	je	.LBB36_8
.LBB36_7:                               # %if.then5
	movabsq	$.L.str165, %rdi
	xorq	%rax, %rax
	callq	pedwarn
.LBB36_8:                               # %if.end
	testq	%r13, %r14
	je	.LBB36_12
# BB#9:                                 # %if.then7
	movabsq	$.L.str166, %rdi
	xorq	%rax, %rax
	callq	pedwarn
.LBB36_10:                              # %if.end9
	testq	%r13, %r14
	je	.LBB36_12
# BB#11:                                # %if.then11
	movabsq	$.L.str167, %rdi
	xorq	%rax, %rax
	callq	warning
.LBB36_12:                              # %if.end12
	movq	%rbx, %rax
	popq	%rbx
	popq	%r12
	popq	%r13
	popq	%r14
	popq	%r15
	retq
.Ltmp300:
	.size	build_array_declarator, .Ltmp300-build_array_declarator
	.cfi_endproc

	.globl	set_array_declarator_type
	.align	16, 0x90
	.type	set_array_declarator_type,@function
set_array_declarator_type:              # @set_array_declarator_type
	.cfi_startproc
# BB#0:                                 # %entry
	pushq	%rbx
.Ltmp303:
	.cfi_def_cfa_offset 16
.Ltmp304:
	.cfi_offset %rbx, -16
	movq	%rdi, %rbx
	movabsq	$4294967295, %rax       # imm = 0xFFFFFFFF
	testq	%rax, %rdx
	movq	%rsi, 32(%rbx)
	je	.LBB37_4
# BB#1:                                 # %land.lhs.true
	cmpq	$0, 8(%rbx)
	jne	.LBB37_3
# BB#2:                                 # %lor.lhs.false
	movzbl	18(%rbx), %eax
	testq	$4, %rax
	je	.LBB37_4
.LBB37_3:                               # %if.then
	movabsq	$.L.str168, %rdi
	xorq	%rax, %rax
	callq	error
.LBB37_4:                               # %if.end
	movq	%rbx, %rax
	popq	%rbx
	retq
.Ltmp305:
	.size	set_array_declarator_type, .Ltmp305-set_array_declarator_type
	.cfi_endproc

	.globl	groktypename
	.align	16, 0x90
	.type	groktypename,@function
groktypename:                           # @groktypename
	.cfi_startproc
# BB#0:                                 # %entry
	pushq	%rbx
.Ltmp308:
	.cfi_def_cfa_offset 16
	subq	$32, %rsp
.Ltmp309:
	.cfi_def_cfa_offset 48
.Ltmp310:
	.cfi_offset %rbx, -16
	movq	%rdi, %rbx
	movq	%rbx, 24(%rsp)
	movzbl	16(%rbx), %eax
	cmpq	$2, %rax
	jne	.LBB38_2
# BB#1:                                 # %if.end
	movq	24(%rbx), %rdi
	leaq	16(%rsp), %rsi
	leaq	8(%rsp), %rdx
	callq	split_specs_attrs
	movq	32(%rbx), %rdi
	movq	16(%rsp), %rsi
	movq	$5, %rdx
	xorq	%rcx, %rcx
	callq	grokdeclarator
	movq	8(%rsp), %rsi
	movq	%rax, 24(%rsp)
	leaq	24(%rsp), %rdi
	xorq	%rdx, %rdx
	callq	decl_attributes
	movq	24(%rsp), %rbx
.LBB38_2:                               # %return
	movq	%rbx, %rax
	addq	$32, %rsp
	popq	%rbx
	retq
.Ltmp311:
	.size	groktypename, .Ltmp311-groktypename
	.cfi_endproc

	.align	16, 0x90
	.type	grokdeclarator,@function
grokdeclarator:                         # @grokdeclarator
	.cfi_startproc
# BB#0:                                 # %entry
	pushq	%r15
.Ltmp318:
	.cfi_def_cfa_offset 16
	pushq	%r14
.Ltmp319:
	.cfi_def_cfa_offset 24
	pushq	%r13
.Ltmp320:
	.cfi_def_cfa_offset 32
	pushq	%r12
.Ltmp321:
	.cfi_def_cfa_offset 40
	pushq	%rbx
.Ltmp322:
	.cfi_def_cfa_offset 48
	subq	$192, %rsp
.Ltmp323:
	.cfi_def_cfa_offset 240
.Ltmp324:
	.cfi_offset %rbx, -48
.Ltmp325:
	.cfi_offset %r12, -40
.Ltmp326:
	.cfi_offset %r13, -32
.Ltmp327:
	.cfi_offset %r14, -24
.Ltmp328:
	.cfi_offset %r15, -16
	movq	%rcx, 80(%rsp)          # 8-byte Spill
	movq	%rsi, %rbx
	movabsq	$4294967295, %r9        # imm = 0xFFFFFFFF
	movq	%rdx, %rax
	andq	%r9, %rax
	cmpq	$4, %rax
	movq	$3, %rcx
	je	.LBB39_2
# BB#1:                                 # %entry
	movq	%rdx, %rcx
.LBB39_2:                               # %entry
	movq	%rcx, %rsi
	andq	%r9, %rsi
	movq	%rsi, 128(%rsp)         # 8-byte Spill
	xorq	%rax, %rax
	cmpq	$1, %rsi
	jne	.LBB39_3
# BB#4:                                 # %entry
	movabsq	$1, %r10
	jmp	.LBB39_5
.LBB39_3:
	movabsq	$0, %r10
.LBB39_5:                               # %entry
	movabsq	$0, %r14
	je	.LBB39_7
# BB#6:                                 # %entry
	movq	%rcx, %r14
.LBB39_7:                               # %entry
	testq	%rdi, %rdi
	movq	$0, 184(%rsp)
	je	.LBB39_8
# BB#9:
	movabsq	$9018194371018752, %r8  # imm = 0x200A0000000000
	movq	%rdi, %rsi
	movq	%rdi, 96(%rsp)          # 8-byte Spill
.LBB39_10:                              # %while.body
                                        # =>This Inner Loop Header: Depth=1
	movzbl	16(%rsi), %ecx
	cmpq	$40, %rcx
	jg	.LBB39_14
# BB#11:                                # %while.body
                                        #   in Loop: Header=BB39_10 Depth=1
	cmpq	$1, %rcx
	je	.LBB39_18
# BB#12:                                # %while.body
                                        #   in Loop: Header=BB39_10 Depth=1
	cmpq	$2, %rcx
	jne	.LBB39_17
# BB#13:                                # %sw.bb8
                                        #   in Loop: Header=BB39_10 Depth=1
	movq	32(%rsi), %rsi
	xorq	%rdi, %rdi
	testq	%rsi, %rsi
	jne	.LBB39_10
	jmp	.LBB39_19
	.align	16, 0x90
.LBB39_14:                              # %while.body
                                        #   in Loop: Header=BB39_10 Depth=1
	cmpq	$53, %rcx
	ja	.LBB39_17
# BB#15:                                # %while.body
                                        #   in Loop: Header=BB39_10 Depth=1
	movq	$1, %rax
	shlq	%cl, %rax
	testq	%r8, %rax
	je	.LBB39_17
# BB#16:                                # %sw.bb
                                        #   in Loop: Header=BB39_10 Depth=1
	movq	32(%rsi), %rsi
	xorq	%rdi, %rdi
	testq	%rsi, %rsi
	movq	%rcx, %rax
	jne	.LBB39_10
	jmp	.LBB39_20
.LBB39_18:                              # %while.cond.outer.while.cond.outer.while.cond.outer2207.while.end_crit_edge_crit_edge_crit_edge
	movq	32(%rsi), %rdi
.LBB39_19:                              # %while.end
	movq	%rax, %rcx
	jmp	.LBB39_20
.LBB39_8:
	movq	%rdi, 96(%rsp)          # 8-byte Spill
	xorq	%rdi, %rdi
	xorq	%rcx, %rcx
.LBB39_20:                              # %while.end
	testq	%rdi, %rdi
	jne	.LBB39_22
# BB#21:
	movabsq	$.L.str262, %rdi
.LBB39_22:                              # %while.end
	movq	%rdi, 136(%rsp)         # 8-byte Spill
	cmpq	$1, 128(%rsp)           # 8-byte Folded Reload
	jne	.LBB39_24
# BB#23:                                # %while.end
	xorq	%rax, %rax
	andq	%r9, %rcx
	cmpq	$53, %rcx
	jne	.LBB39_617
.LBB39_24:                              # %if.end16
	orq	%r14, %r10
	testq	%r9, %r10
	jne	.LBB39_27
# BB#25:                                # %land.lhs.true20
	movq	current_binding_level(%rip), %rax
	movzbl	48(%rax), %eax
	testq	%rax, %rax
	je	.LBB39_27
# BB#26:                                # %select.mid
	movq	$2, %r14
.LBB39_27:                              # %if.end23
	movq	%rdx, 56(%rsp)          # 8-byte Spill
	xorq	%r12, %r12
	testq	%rbx, %rbx
	je	.LBB39_28
# BB#29:
	movq	%r14, 112(%rsp)         # 8-byte Spill
	movq	$0, 120(%rsp)           # 8-byte Folded Spill
	xorq	%r15, %r15
	movq	$0, 144(%rsp)           # 8-byte Folded Spill
	movq	$0, 40(%rsp)            # 8-byte Folded Spill
	movq	$0, 72(%rsp)            # 8-byte Folded Spill
	.align	16, 0x90
.LBB39_30:                              # %for.body
                                        # =>This Inner Loop Header: Depth=1
	movq	32(%rbx), %r14
	testq	%r14, %r14
	je	.LBB39_34
# BB#31:                                # %land.lhs.true29
                                        #   in Loop: Header=BB39_30 Depth=1
	movl	16(%r14), %eax
	testq	$8388608, %rax          # imm = 0x800000
	je	.LBB39_34
# BB#32:                                # %land.lhs.true29
                                        #   in Loop: Header=BB39_30 Depth=1
	movzbl	deprecated_state(%rip), %eax
	xorq	$1, %rax
	testq	$1, %rax
	je	.LBB39_34
# BB#33:                                # %if.then37
                                        #   in Loop: Header=BB39_30 Depth=1
	movq	%r14, %rdi
	callq	warn_deprecated_use
.LBB39_34:                              # %if.end39
                                        #   in Loop: Header=BB39_30 Depth=1
	movq	ridpointers(%rip), %rax
	movq	216(%rax), %rdx
	movq	$1, %rcx
	cmpq	%rdx, %r14
	movq	$1, %rdx
	je	.LBB39_36
# BB#35:                                # %select.mid8
                                        #   in Loop: Header=BB39_30 Depth=1
	movq	%r15, %rdx
.LBB39_36:                              # %select.end7
                                        #   in Loop: Header=BB39_30 Depth=1
	movq	224(%rax), %rax
	movq	%rdx, %r15
	cmpq	%rax, %r14
	je	.LBB39_38
# BB#37:                                # %select.mid37
                                        #   in Loop: Header=BB39_30 Depth=1
	movq	144(%rsp), %rcx         # 8-byte Reload
.LBB39_38:                              # %select.end36
                                        #   in Loop: Header=BB39_30 Depth=1
	movl	16(%r14), %eax
	movq	%rcx, 144(%rsp)         # 8-byte Spill
	movq	%rax, %rcx
	andq	$16777471, %rcx         # imm = 0x10000FF
	cmpq	$16777217, %rcx         # imm = 0x1000001
	jne	.LBB39_56
# BB#39:                                # %if.then62
                                        #   in Loop: Header=BB39_30 Depth=1
	movzbl	43(%r14), %r13d
	cmpq	$26, %r13
	ja	.LBB39_56
# BB#40:                                # %if.then66
                                        #   in Loop: Header=BB39_30 Depth=1
	movq	$1, %rax
	movq	%r13, %rcx
	shlq	%cl, %rax
	andq	%r12, %rax
	movabsq	$4294967295, %rcx       # imm = 0xFFFFFFFF
	cmpq	$2, %r13
	jne	.LBB39_53
# BB#41:                                # %land.lhs.true69
                                        #   in Loop: Header=BB39_30 Depth=1
	testq	%rcx, %rax
	je	.LBB39_55
# BB#42:                                # %if.then71
                                        #   in Loop: Header=BB39_30 Depth=1
	movq	120(%rsp), %rax         # 8-byte Reload
	testq	%rcx, %rax
	jne	.LBB39_43
# BB#44:                                # %if.else
                                        #   in Loop: Header=BB39_30 Depth=1
	movl	pedantic(%rip), %eax
	testq	%rax, %rax
	movabsq	$0, %rsi
	movq	%rsi, %rax
	je	.LBB39_46
# BB#45:                                # %if.else
                                        #   in Loop: Header=BB39_30 Depth=1
	movabsq	$1, %rax
.LBB39_46:                              # %if.else
                                        #   in Loop: Header=BB39_30 Depth=1
	movl	flag_isoc99(%rip), %ecx
	testq	%rcx, %rcx
	movq	%rsi, %rcx
	jne	.LBB39_48
# BB#47:                                # %if.else
                                        #   in Loop: Header=BB39_30 Depth=1
	movabsq	$1, %rcx
.LBB39_48:                              # %if.else
                                        #   in Loop: Header=BB39_30 Depth=1
	movl	in_system_header(%rip), %edx
	testq	%rdx, %rdx
	movq	%rsi, %rdx
	jne	.LBB39_50
# BB#49:                                # %if.else
                                        #   in Loop: Header=BB39_30 Depth=1
	movabsq	$1, %rdx
.LBB39_50:                              # %if.else
                                        #   in Loop: Header=BB39_30 Depth=1
	movl	warn_long_long(%rip), %esi
	testq	%rsi, %rsi
	movq	$1, 120(%rsp)           # 8-byte Folded Spill
	je	.LBB39_55
# BB#51:                                # %if.else
                                        #   in Loop: Header=BB39_30 Depth=1
	andq	%rcx, %rax
	andq	%rdx, %rax
	je	.LBB39_55
# BB#52:                                # %if.then81
                                        #   in Loop: Header=BB39_30 Depth=1
	xorq	%rax, %rax
	movabsq	$.L.str264, %rdi
	callq	pedwarn
	jmp	.LBB39_55
	.align	16, 0x90
.LBB39_56:                              # %if.end96
                                        #   in Loop: Header=BB39_30 Depth=1
	cmpq	$0, 184(%rsp)
	jne	.LBB39_57
# BB#58:                                # %if.else99
                                        #   in Loop: Header=BB39_30 Depth=1
	andq	$255, %rax
	je	.LBB39_72
# BB#59:                                # %if.else99
                                        #   in Loop: Header=BB39_30 Depth=1
	movabsq	$4294967295, %rcx       # imm = 0xFFFFFFFF
	andq	%rcx, %rax
	cmpq	$1, %rax
	jne	.LBB39_60
# BB#63:                                # %if.then124
                                        #   in Loop: Header=BB39_30 Depth=1
	movq	current_binding_level(%rip), %rax
	movq	global_binding_level(%rip), %rcx
	cmpq	%rcx, %rax
	je	.LBB39_65
# BB#64:                                # %land.lhs.true.i
                                        #   in Loop: Header=BB39_30 Depth=1
	movq	64(%r14), %rax
	testq	%rax, %rax
	jne	.LBB39_66
.LBB39_65:                              # %if.else.i
                                        #   in Loop: Header=BB39_30 Depth=1
	movq	56(%r14), %rax
.LBB39_66:                              # %lookup_name.exit
                                        #   in Loop: Header=BB39_30 Depth=1
	movq	8(%rax), %rcx
	movq	global_trees(%rip), %rdx
	cmpq	%rdx, %rcx
	je	.LBB39_72
# BB#67:                                # %if.else130
                                        #   in Loop: Header=BB39_30 Depth=1
	testq	%rax, %rax
	je	.LBB39_69
# BB#68:                                # %lor.lhs.false
                                        #   in Loop: Header=BB39_30 Depth=1
	movzbl	16(%rax), %edx
	cmpq	$33, %rdx
	jne	.LBB39_69
# BB#70:                                # %if.else142
                                        #   in Loop: Header=BB39_30 Depth=1
	movq	%rcx, 184(%rsp)
	movq	%rax, 72(%rsp)          # 8-byte Spill
	jmp	.LBB39_72
	.align	16, 0x90
.LBB39_57:                              # %if.then98
                                        #   in Loop: Header=BB39_30 Depth=1
	xorq	%rax, %rax
	movabsq	$.L.str266, %rdi
	movq	136(%rsp), %rsi         # 8-byte Reload
	callq	error
	jmp	.LBB39_72
.LBB39_53:                              # %if.else84
                                        #   in Loop: Header=BB39_30 Depth=1
	testq	%rcx, %rax
	je	.LBB39_55
# BB#54:                                # %if.then88
                                        #   in Loop: Header=BB39_30 Depth=1
	movq	32(%r14), %rsi
	xorq	%rax, %rax
	movabsq	$.L.str265, %rdi
	callq	pedwarn
	jmp	.LBB39_55
.LBB39_60:                              # %if.else99
                                        #   in Loop: Header=BB39_30 Depth=1
	cmpq	$33, %rax
	jne	.LBB39_71
# BB#61:                                # %if.then106
                                        #   in Loop: Header=BB39_30 Depth=1
	movq	8(%r14), %rax
	movq	global_trees(%rip), %rcx
	cmpq	%rcx, %rax
	je	.LBB39_72
# BB#62:                                # %if.else112
                                        #   in Loop: Header=BB39_30 Depth=1
	movq	%rax, 184(%rsp)
	movq	136(%r14), %rax
	movq	%rax, 40(%rsp)          # 8-byte Spill
	movq	%r14, 72(%rsp)          # 8-byte Spill
	jmp	.LBB39_72
.LBB39_71:                              # %if.then154
                                        #   in Loop: Header=BB39_30 Depth=1
	movq	%r14, 184(%rsp)
	jmp	.LBB39_72
.LBB39_69:                              # %if.then138
                                        #   in Loop: Header=BB39_30 Depth=1
	movq	32(%r14), %rsi
	xorq	%rax, %rax
	movabsq	$.L.str267, %rdi
	callq	error
	jmp	.LBB39_72
.LBB39_43:                              # %if.then73
                                        #   in Loop: Header=BB39_30 Depth=1
	xorq	%rax, %rax
	movabsq	$.L.str263, %rdi
	callq	error
	.align	16, 0x90
.LBB39_55:                              # %if.end93
                                        #   in Loop: Header=BB39_30 Depth=1
	movq	$1, %rax
	movq	%r13, %rcx
	shlq	%cl, %rax
	orq	%rax, %r12
.LBB39_72:                              # %for.inc
                                        #   in Loop: Header=BB39_30 Depth=1
	movq	(%rbx), %rbx
	testq	%rbx, %rbx
	jne	.LBB39_30
# BB#73:                                # %for.end
	movq	184(%rsp), %rax
	testq	%rax, %rax
	je	.LBB39_75
# BB#74:                                # %if.end166
	movl	60(%rax), %esi
	movq	$25, %rcx
	shrq	%cl, %rsi
	andq	$1, %rsi
	movq	$0, 48(%rsp)            # 8-byte Folded Spill
	movq	$1, 32(%rsp)            # 8-byte Folded Spill
	movq	%rax, 16(%rsp)          # 8-byte Spill
	movq	112(%rsp), %r14         # 8-byte Reload
	jmp	.LBB39_87
.LBB39_28:
	movq	$0, 120(%rsp)           # 8-byte Folded Spill
	xorq	%r15, %r15
	movq	$0, 144(%rsp)           # 8-byte Folded Spill
	movq	$0, 40(%rsp)            # 8-byte Folded Spill
	movq	$0, 72(%rsp)            # 8-byte Folded Spill
	jmp	.LBB39_76
.LBB39_75:                              # %if.then169
	testq	$33926, %r12            # imm = 0x8486
	movq	112(%rsp), %r14         # 8-byte Reload
	jne	.LBB39_86
.LBB39_76:                              # %land.lhs.true172
	movq	$6, %rcx
	movq	%r12, %rax
	shrq	%cl, %rax
	movabsq	$4294967295, %rcx       # imm = 0xFFFFFFFF
	movq	80(%rsp), %rdx          # 8-byte Reload
	testq	%rcx, %rdx
	je	.LBB39_77
# BB#78:                                # %land.lhs.true172
	movabsq	$1, %rcx
	jmp	.LBB39_79
.LBB39_77:
	movabsq	$0, %rcx
.LBB39_79:                              # %land.lhs.true172
	testq	%rcx, %rax
	jne	.LBB39_86
# BB#80:                                # %land.lhs.true172
	movl	in_system_header(%rip), %eax
	movabsq	$4294967295, %rsi       # imm = 0xFFFFFFFF
	testq	%rsi, %rax
	jne	.LBB39_86
# BB#81:                                # %if.then179
	movl	warn_implicit_int(%rip), %eax
	movl	warn_return_type(%rip), %edx
	movl	flag_isoc99(%rip), %ecx
	orq	%rax, %rdx
	orq	%rcx, %rdx
	testq	%rsi, %rdx
	je	.LBB39_84
# BB#82:                                # %if.then179
	cmpq	$1, 128(%rsp)           # 8-byte Folded Reload
	jne	.LBB39_84
# BB#83:                                # %if.then187
	movq	$1, %rax
	movl	%eax, warn_about_return_type(%rip)
	jmp	.LBB39_86
.LBB39_17:                              # %sw.default
	movabsq	$.L.str185, %rdi
	movabsq	$.L__FUNCTION__.grokdeclarator, %rdx
	movq	$4116, %rsi             # imm = 0x1014
	callq	fancy_abort
.LBB39_84:                              # %if.else188
	orq	%rax, %rcx
	movabsq	$4294967295, %rax       # imm = 0xFFFFFFFF
	testq	%rax, %rcx
	je	.LBB39_86
# BB#85:                                # %if.then192
	movabsq	$.L.str268, %rdi
	xorq	%rax, %rax
	movq	136(%rsp), %rsi         # 8-byte Reload
	callq	pedwarn_c99
.LBB39_86:                              # %if.end195
	movq	integer_types+40(%rip), %rax
	movq	%rax, 184(%rsp)
	movq	$1, 48(%rsp)            # 8-byte Folded Spill
	movq	$0, 32(%rsp)            # 8-byte Folded Spill
	movq	$0, 16(%rsp)            # 8-byte Folded Spill
	xorq	%rsi, %rsi
.LBB39_87:                              # %if.end196
	movq	%r12, %rbx
	movabsq	$4294967295, %r12       # imm = 0xFFFFFFFF
	testq	$4, %rbx
	je	.LBB39_91
# BB#88:                                # %if.end196
	movq	120(%rsp), %rcx         # 8-byte Reload
	testq	%r12, %rcx
	jne	.LBB39_91
# BB#89:                                # %land.lhs.true201
	movq	128(%rax), %rcx
	movq	global_trees+200(%rip), %rdx
	cmpq	%rdx, %rcx
	jne	.LBB39_91
# BB#90:                                # %if.then205
	movq	global_trees+208(%rip), %rax
	movabsq	$4294967291, %rcx       # imm = 0xFFFFFFFB
	andq	%rcx, %rbx
	movq	%rax, 184(%rsp)
.LBB39_91:                              # %if.end207
	movq	%rsi, 88(%rsp)          # 8-byte Spill
	testq	$1158, %rbx             # imm = 0x486
	je	.LBB39_92
# BB#93:                                # %if.then210
	movq	%rbx, %rsi
	andq	$4, %rsi
	jne	.LBB39_94
# BB#95:                                # %if.then210
	movabsq	$1, %rcx
	jmp	.LBB39_96
.LBB39_92:
	movq	%r14, 112(%rsp)         # 8-byte Spill
	movq	120(%rsp), %r14         # 8-byte Reload
	jmp	.LBB39_125
.LBB39_94:
	movabsq	$0, %rcx
.LBB39_96:                              # %if.then210
	movq	%r14, 112(%rsp)         # 8-byte Spill
	movq	%rbx, %rdx
	andq	$128, %rdx
	je	.LBB39_100
# BB#97:                                # %if.then210
	testq	%rcx, %rcx
	jne	.LBB39_100
# BB#98:                                # %if.then216
	movabsq	$.L.str269, %rdi
	jmp	.LBB39_99
.LBB39_100:                             # %if.else217
	testq	%r12, %rsi
	jne	.LBB39_102
# BB#101:                               # %lor.lhs.false220
	testq	%r12, %rdx
	je	.LBB39_104
.LBB39_102:                             # %land.lhs.true223
	movq	144(%rsp), %rsi         # 8-byte Reload
	testq	%r12, %rsi
	je	.LBB39_104
# BB#103:                               # %if.then225
	movabsq	$.L.str270, %rdi
	jmp	.LBB39_99
.LBB39_104:                             # %if.else226
	testq	%r12, %rdx
	jne	.LBB39_105
# BB#106:                               # %if.else226
	movabsq	$1, %rdx
	jmp	.LBB39_107
.LBB39_105:
	movabsq	$0, %rdx
.LBB39_107:                             # %if.else226
	testq	%rcx, %rdx
	jne	.LBB39_112
# BB#108:                               # %land.lhs.true232
	movzbl	16(%rax), %ecx
	cmpq	$7, %rcx
	jne	.LBB39_112
# BB#109:                               # %if.then239
	movabsq	$.L.str271, %rdi
	xorq	%rax, %rax
	xorq	%r14, %r14
	movq	136(%rsp), %rsi         # 8-byte Reload
	callq	error
	movzbl	grokdeclarator.already(%rip), %eax
	testq	%rax, %rax
	jne	.LBB39_121
# BB#110:                               # %if.then239
	movl	pedantic(%rip), %eax
	testq	%r12, %rax
	jne	.LBB39_121
# BB#111:                               # %if.then243
	movabsq	$.L.str272, %rdi
	xorq	%rax, %rax
	xorq	%r14, %r14
	callq	error
	movq	$1, %rax
	movb	%al, grokdeclarator.already(%rip)
	jmp	.LBB39_121
.LBB39_112:                             # %if.else245
	movq	%rbx, %rcx
	andq	$1026, %rcx             # imm = 0x402
	cmpq	$1026, %rcx             # imm = 0x402
	jne	.LBB39_114
# BB#113:                               # %if.then251
	movabsq	$.L.str273, %rdi
	jmp	.LBB39_99
.LBB39_114:                             # %if.else252
	movzbl	16(%rax), %eax
	cmpq	$6, %rax
	jne	.LBB39_115
# BB#116:                               # %if.else260
	movq	%r15, %rax
	movq	144(%rsp), %rcx         # 8-byte Reload
	orq	%rcx, %rax
	movq	48(%rsp), %rcx          # 8-byte Reload
	orq	%rcx, %rax
	testq	%r12, %rax
	movq	$1, %r14
	jne	.LBB39_121
# BB#117:                               # %if.else260
	movl	pedantic(%rip), %eax
	testq	%r12, %rax
	je	.LBB39_121
# BB#118:                               # %if.then268
	movabsq	$.L.str275, %rdi
	xorq	%rax, %rax
	movq	136(%rsp), %rsi         # 8-byte Reload
	callq	pedwarn
	movl	flag_pedantic_errors(%rip), %eax
	testq	%rax, %rax
	jne	.LBB39_119
# BB#120:                               # %if.then268
	movabsq	$1, %r14
	jmp	.LBB39_121
.LBB39_115:                             # %if.then259
	movabsq	$.L.str274, %rdi
.LBB39_99:                              # %if.end277
	xorq	%rax, %rax
	xorq	%r14, %r14
	movq	136(%rsp), %rsi         # 8-byte Reload
	callq	error
.LBB39_121:                             # %if.end277
	movq	%rbx, %rax
	andq	$-1159, %rax            # imm = 0xFFFFFFFFFFFFFB79
	testq	%r14, %r14
	je	.LBB39_123
# BB#122:                               # %if.end277
	movq	120(%rsp), %r14         # 8-byte Reload
.LBB39_123:                             # %if.end277
	jne	.LBB39_125
# BB#124:                               # %if.end277
	movq	%rax, %rbx
.LBB39_125:                             # %if.end282
	testq	$32768, %rbx            # imm = 0x8000
	je	.LBB39_128
# BB#126:                               # %land.lhs.true285
	movq	184(%rsp), %rax
	movl	16(%rax), %eax
	andq	$254, %rax
	cmpq	$6, %rax
	je	.LBB39_128
# BB#127:                               # %if.then299
	movabsq	$.L.str276, %rdi
	xorq	%rax, %rax
	movq	136(%rsp), %rsi         # 8-byte Reload
	callq	error
	movabsq	$4294934527, %rax       # imm = 0xFFFF7FFF
	andq	%rax, %rbx
.LBB39_128:                             # %if.end301
	movabsq	$274877906944, %rdx     # imm = 0x4000000000
	testq	$2, %rbx
	jne	.LBB39_144
# BB#129:                               # %lor.lhs.false304
	movq	56(%rsp), %rax          # 8-byte Reload
	andq	%r12, %rax
	cmpq	$4, %rax
	jne	.LBB39_131
# BB#130:                               # %lor.lhs.false304
	movl	flag_traditional(%rip), %ecx
	testq	%r12, %rcx
	je	.LBB39_131
# BB#132:                               # %land.lhs.true308
	movl	explicit_flag_signed_bitfields(%rip), %ecx
	testq	%rcx, %rcx
	je	.LBB39_144
# BB#133:                               # %land.lhs.true308
	movl	flag_signed_bitfields(%rip), %ecx
	testq	%r12, %rcx
	jne	.LBB39_134
	jmp	.LBB39_144
.LBB39_131:                             # %lor.lhs.false304.lor.lhs.false312_crit_edge
	movl	flag_signed_bitfields(%rip), %ecx
.LBB39_134:                             # %lor.lhs.false312
	cmpq	$4, %rax
	je	.LBB39_135
# BB#136:                               # %lor.lhs.false312
	movabsq	$1, %rax
	jmp	.LBB39_137
.LBB39_135:
	movabsq	$0, %rax
.LBB39_137:                             # %lor.lhs.false312
	testq	%r12, %rcx
	jne	.LBB39_155
# BB#138:                               # %lor.lhs.false312
	testq	%rax, %rax
	jne	.LBB39_155
# BB#139:                               # %land.lhs.true316
	movq	144(%rsp), %rax         # 8-byte Reload
	orq	%rax, %r15
	movq	48(%rsp), %rax          # 8-byte Reload
	orq	%rax, %r15
	testq	%r12, %r15
	jne	.LBB39_142
# BB#140:                               # %land.lhs.true316
	cmpq	$0, 72(%rsp)            # 8-byte Folded Reload
	je	.LBB39_142
# BB#141:                               # %land.lhs.true325
	movq	72(%rsp), %rax          # 8-byte Reload
	movq	48(%rax), %rax
	testq	%rdx, %rax
	jne	.LBB39_155
.LBB39_142:                             # %land.lhs.true332
	movq	184(%rsp), %rax
	movzbl	16(%rax), %eax
	cmpq	$10, %rax
	je	.LBB39_155
# BB#143:                               # %land.lhs.true332
	movq	%rbx, %rax
	andq	$1024, %rax             # imm = 0x400
	testq	%r12, %rax
	jne	.LBB39_155
.LBB39_144:                             # %if.then342
	testq	%r12, %r14
	je	.LBB39_146
# BB#145:                               # %if.then344
	movq	integer_types+80(%rip), %rax
	movq	%rax, 184(%rsp)
	movq	%rbx, %rcx
	jmp	.LBB39_165
.LBB39_146:                             # %if.else345
	movq	%rbx, %rcx
	testq	$4, %rcx
	je	.LBB39_148
# BB#147:                               # %if.then348
	movq	integer_types+64(%rip), %rax
	jmp	.LBB39_164
.LBB39_155:                             # %if.else367
	movq	%rbx, %rcx
	testq	$1024, %rcx             # imm = 0x400
	je	.LBB39_158
# BB#156:                               # %land.lhs.true370
	movq	184(%rsp), %rax
	movq	%rcx, %rdx
	movq	integer_types(%rip), %rcx
	cmpq	%rcx, %rax
	movq	%rdx, %rcx
	je	.LBB39_157
.LBB39_158:                             # %if.else374
	testq	%r12, %r14
	je	.LBB39_160
# BB#159:                               # %if.then376
	movq	integer_types+72(%rip), %rax
	jmp	.LBB39_164
.LBB39_148:                             # %if.else349
	testq	$128, %rcx
	je	.LBB39_150
# BB#149:                               # %if.then352
	movq	integer_types+32(%rip), %rax
	jmp	.LBB39_164
.LBB39_160:                             # %if.else377
	testq	$4, %rcx
	je	.LBB39_162
# BB#161:                               # %if.then380
	movq	integer_types+56(%rip), %rax
	jmp	.LBB39_164
.LBB39_157:                             # %if.then373
	movq	integer_types+8(%rip), %rax
	jmp	.LBB39_164
.LBB39_150:                             # %if.else353
	movq	184(%rsp), %rdi
	movq	integer_types(%rip), %rax
	cmpq	%rax, %rdi
	je	.LBB39_151
# BB#152:                               # %if.else357
	cmpq	$0, 72(%rsp)            # 8-byte Folded Reload
	je	.LBB39_154
# BB#153:                               # %if.then359
	movq	%rcx, %rbx
	callq	unsigned_type
	movq	%rbx, %rcx
	jmp	.LBB39_164
.LBB39_162:                             # %if.else381
	testq	$128, %rcx
	je	.LBB39_165
# BB#163:                               # %if.then384
	movq	integer_types+24(%rip), %rax
	jmp	.LBB39_164
.LBB39_151:                             # %if.then356
	movq	integer_types+16(%rip), %rax
.LBB39_164:                             # %if.end389
	movq	%rax, 184(%rsp)
.LBB39_165:                             # %if.end389
	testq	$32768, %rcx            # imm = 0x8000
	je	.LBB39_166
# BB#167:                               # %if.then392
	movl	pedantic(%rip), %eax
	testq	%rax, %rax
	je	.LBB39_170
# BB#168:                               # %if.then392
	movl	flag_isoc99(%rip), %eax
	testq	%r12, %rax
	jne	.LBB39_170
# BB#169:                               # %if.then396
	movabsq	$.L.str277, %rdi
	xorq	%rax, %rax
	movq	%rcx, %rbx
	callq	pedwarn
	movq	%rbx, %rcx
.LBB39_170:                             # %if.end397
	testq	%r12, %r14
	jne	.LBB39_176
# BB#171:                               # %if.end397
	cmpq	$0, 48(%rsp)            # 8-byte Folded Reload
	je	.LBB39_176
# BB#172:                               # %if.end397
	movq	%rcx, %rax
	andq	$1158, %rax             # imm = 0x486
	testq	%r12, %rax
	jne	.LBB39_176
# BB#173:                               # %if.then404
	movl	pedantic(%rip), %eax
	testq	%rax, %rax
	je	.LBB39_175
# BB#174:                               # %if.then406
	movabsq	$.L.str278, %rdi
	xorq	%rax, %rax
	movq	%rcx, %rbx
	callq	pedwarn
	movq	%rbx, %rcx
	jmp	.LBB39_175
.LBB39_166:                             # %if.end389.if.end437_crit_edge
	movq	184(%rsp), %rax
	jmp	.LBB39_188
.LBB39_176:                             # %if.else408
	movq	184(%rsp), %rdi
	movq	integer_types+40(%rip), %rax
	cmpq	%rax, %rdi
	je	.LBB39_177
# BB#180:                               # %if.else415
	movq	global_trees+192(%rip), %rax
	cmpq	%rax, %rdi
	je	.LBB39_181
# BB#182:                               # %if.else419
	movq	global_trees+200(%rip), %rax
	cmpq	%rax, %rdi
	je	.LBB39_175
# BB#183:                               # %if.else423
	movq	global_trees+208(%rip), %rax
	cmpq	%rax, %rdi
	je	.LBB39_184
# BB#185:                               # %if.else427
	movq	%rcx, %rbx
	movl	pedantic(%rip), %eax
	testq	%rax, %rax
	je	.LBB39_187
# BB#186:                               # %if.then429
	movabsq	$.L.str279, %rdi
	xorq	%rax, %rax
	callq	pedwarn
	movq	184(%rsp), %rdi
.LBB39_187:                             # %if.end430
	callq	build_complex_type
	movq	%rax, 184(%rsp)
	movq	%rbx, %rcx
	jmp	.LBB39_188
.LBB39_175:                             # %if.end407
	movq	global_trees+176(%rip), %rax
	movq	%rax, 184(%rsp)
	jmp	.LBB39_188
.LBB39_177:                             # %if.then411
	movl	pedantic(%rip), %eax
	testq	%rax, %rax
	je	.LBB39_179
# BB#178:                               # %if.then413
	movabsq	$.L.str279, %rdi
	xorq	%rax, %rax
	movq	%rcx, %rbx
	callq	pedwarn
	movq	%rbx, %rcx
.LBB39_179:                             # %if.end414
	movq	global_trees+160(%rip), %rax
	movq	%rax, 184(%rsp)
	jmp	.LBB39_188
.LBB39_181:                             # %if.then418
	movq	global_trees+168(%rip), %rax
	movq	%rax, 184(%rsp)
	jmp	.LBB39_188
.LBB39_184:                             # %if.then426
	movq	global_trees+184(%rip), %rax
	movq	%rax, 184(%rsp)
.LBB39_188:                             # %if.end437
	movq	%rcx, 104(%rsp)         # 8-byte Spill
	movq	%rcx, %r13
	andq	%r12, %r13
	movq	$3, %rcx
	movq	%r13, %rdx
	shrq	%cl, %rdx
	andq	$1, %rdx
	movl	16(%rax), %r14d
	movq	$12, %rcx
	movq	%r12, %rsi
	movq	%r14, %r12
	shrq	%cl, %r12
	andq	$1, %r12
	addq	%rdx, %r12
	movq	$12, %rcx
	movq	%r13, %rbx
	shrq	%cl, %rbx
	movl	60(%rax), %r15d
	movq	$21, %rcx
	shrq	%cl, %r15
	movq	$9, %rcx
	shrq	%cl, %r13
	movl	flag_isoc99(%rip), %eax
	movq	$11, %rcx
	shrq	%cl, %r14
	cmpq	$2, %r12
	jl	.LBB39_191
# BB#189:                               # %if.end437
	testq	%rsi, %rax
	jne	.LBB39_191
# BB#190:                               # %if.then477
	movabsq	$.L.str280, %rdi
	xorq	%rax, %rax
	callq	pedwarn
	movl	flag_isoc99(%rip), %eax
.LBB39_191:                             # %if.end478
	andq	$1, %rbx
	andq	$1, %r15
	addq	%rbx, %r15
	cmpq	$2, %r15
	jl	.LBB39_194
# BB#192:                               # %if.end478
	movabsq	$4294967295, %rcx       # imm = 0xFFFFFFFF
	testq	%rcx, %rax
	jne	.LBB39_194
# BB#193:                               # %if.then483
	movabsq	$.L.str281, %rdi
	xorq	%rax, %rax
	callq	pedwarn
	movl	flag_isoc99(%rip), %eax
.LBB39_194:                             # %if.end484
	andq	$1, %r13
	andq	$1, %r14
	addq	%r13, %r14
	cmpq	$2, %r14
	jl	.LBB39_197
# BB#195:                               # %if.end484
	movabsq	$4294967295, %rcx       # imm = 0xFFFFFFFF
	testq	%rcx, %rax
	jne	.LBB39_197
# BB#196:                               # %if.then489
	movabsq	$.L.str282, %rdi
	xorq	%rax, %rax
	callq	pedwarn
.LBB39_197:                             # %if.end490
	movl	flag_gen_aux_info(%rip), %eax
	testq	%rax, %rax
	jne	.LBB39_204
# BB#198:                               # %land.lhs.true492
	movq	184(%rsp), %r8
	movl	16(%r8), %esi
	movq	$12, %rcx
	movq	%rsi, %rax
	shrq	%cl, %rax
	movq	$10, %rcx
	movq	%rsi, %rdi
	shrq	%cl, %rdi
	movl	60(%r8), %edx
	movq	$19, %rcx
	shrq	%cl, %rdx
	andq	$255, %rsi
	xorq	%rbx, %rbx
	cmpq	$20, %rsi
	jne	.LBB39_202
# BB#199:                               # %land.rhs
	cmpq	$0, 8(%r8)
	je	.LBB39_200
# BB#201:                               # %land.rhs
	movabsq	$1, %rbx
	jmp	.LBB39_202
.LBB39_200:
	movabsq	$0, %rbx
.LBB39_202:                             # %land.end
	andq	$1, %rax
	andq	$2, %rdi
	orq	%rax, %rdi
	andq	$4, %rdx
	orq	%rdi, %rdx
	movq	$3, %rcx
	shlq	%cl, %rbx
	orq	%rdx, %rbx
	movabsq	$4294967295, %rax       # imm = 0xFFFFFFFF
	testq	%rax, %rbx
	je	.LBB39_204
# BB#203:                               # %if.then524
	movq	128(%r8), %rax
	movq	%rax, 184(%rsp)
.LBB39_204:                             # %if.end527
	movabsq	$4294967295, %rax       # imm = 0xFFFFFFFF
	testq	%rax, %r12
	movq	%rax, %r12
	movabsq	$0, %rdi
	movabsq	$1, %rdx
	movq	%rdi, %rax
	je	.LBB39_206
# BB#205:                               # %if.end527
	movq	%rdx, %rax
.LBB39_206:                             # %if.end527
	testq	%r12, %r15
	movq	%rdi, %rsi
	je	.LBB39_208
# BB#207:                               # %if.end527
	movq	%rdx, %rsi
.LBB39_208:                             # %if.end527
	movq	$2, %rcx
	shlq	%cl, %rsi
	testq	%r12, %r14
	je	.LBB39_210
# BB#209:                               # %if.end527
	movq	%rdx, %rdi
.LBB39_210:                             # %if.end527
	movq	104(%rsp), %rbx         # 8-byte Reload
	movq	%rbx, %r9
	andq	$256, %r9               # imm = 0x100
	addq	%rdi, %rdi
	orq	%rax, %rdi
	orq	%rsi, %rdi
	movq	%rdi, 144(%rsp)         # 8-byte Spill
	movq	%rbx, %r8
	andq	$2048, %r8              # imm = 0x800
	movq	$11, %rcx
	movq	%r8, %rdx
	shrq	%cl, %rdx
	movq	%rbx, %rsi
	andq	$1, %rsi
	addq	%rdx, %rsi
	movq	%rbx, %rdx
	andq	$16, %rdx
	movq	$4, %rcx
	movq	%rdx, %rdi
	shrq	%cl, %rdi
	addq	%rsi, %rdi
	movq	%rbx, %r14
	andq	$32, %r14
	movq	$5, %rcx
	movq	%r14, %rax
	shrq	%cl, %rax
	addq	%rdi, %rax
	andq	$64, %rbx
	movq	$6, %rcx
	movq	%rbx, %rsi
	shrq	%cl, %rsi
	addq	%rax, %rsi
	movq	$32, %rcx
	movq	%rsi, %rax
	shlq	%cl, %rax
	movq	$32, %rcx
	sarq	%cl, %rax
	cmpq	$2, %rax
	jl	.LBB39_212
# BB#211:                               # %if.then561
	movq	%r9, 24(%rsp)           # 8-byte Spill
	movabsq	$.L.str283, %rdi
	xorq	%rax, %rax
	movq	136(%rsp), %rsi         # 8-byte Reload
	callq	error
	movq	96(%rsp), %rbx          # 8-byte Reload
	jmp	.LBB39_258
.LBB39_212:                             # %if.else562
	cmpq	$1, 128(%rsp)           # 8-byte Folded Reload
	je	.LBB39_213
# BB#214:                               # %if.else562
	movabsq	$1, %rcx
	jmp	.LBB39_215
.LBB39_213:
	movabsq	$0, %rcx
.LBB39_215:                             # %if.else562
	testq	$2144, 104(%rsp)        # 8-byte Folded Reload
                                        # imm = 0x860
	je	.LBB39_226
# BB#216:                               # %if.else562
	testq	%rcx, %rcx
	jne	.LBB39_226
# BB#217:                               # %if.then567
	movq	%r9, 24(%rsp)           # 8-byte Spill
	testq	%r12, %r8
	je	.LBB39_221
# BB#218:                               # %land.lhs.true570
	movl	pedantic(%rip), %eax
	testq	%rax, %rax
	jne	.LBB39_220
# BB#219:                               # %lor.lhs.false572
	movq	current_binding_level(%rip), %rax
	movq	global_binding_level(%rip), %rcx
	cmpq	%rcx, %rax
	jne	.LBB39_221
.LBB39_220:                             # %if.then575
	movabsq	$.L.str284, %rdi
	xorq	%rax, %rax
	callq	pedwarn
.LBB39_221:                             # %if.end576
	testq	%r12, %r14
	je	.LBB39_223
# BB#222:                               # %if.then579
	movabsq	$.L.str285, %rdi
	xorq	%rax, %rax
	callq	error
.LBB39_223:                             # %if.end580
	testq	%r12, %rbx
	je	.LBB39_225
# BB#224:                               # %if.then583
	movabsq	$.L.str286, %rdi
	xorq	%rax, %rax
	callq	error
.LBB39_225:                             # %if.end584
	movabsq	$4294965151, %rax       # imm = 0xFFFFF79F
	andq	%rax, 104(%rsp)         # 8-byte Folded Spill
	movq	96(%rsp), %rbx          # 8-byte Reload
	jmp	.LBB39_258
.LBB39_226:                             # %if.else586
	movq	112(%rsp), %rax         # 8-byte Reload
	testq	%r12, %rax
	movq	96(%rsp), %rbx          # 8-byte Reload
	je	.LBB39_241
# BB#227:                               # %if.else586
	movq	$32, %rcx
	shlq	%cl, %rsi
	movq	$32, %rcx
	sarq	%cl, %rsi
	testq	%rsi, %rsi
	jle	.LBB39_241
# BB#228:                               # %if.then592
	movq	112(%rsp), %rax         # 8-byte Reload
	andq	%r12, %rax
	testq	%r12, %r14
	jne	.LBB39_229
# BB#230:                               # %if.then592
	movabsq	$1, %rcx
	jmp	.LBB39_231
.LBB39_241:                             # %if.else606
	testq	%r12, %rdx
	movabsq	$0, %rcx
	movabsq	$1, %rdi
	movq	%rcx, %rsi
	jne	.LBB39_243
# BB#242:                               # %if.else606
	movq	%rdi, %rsi
.LBB39_243:                             # %if.else606
	movq	80(%rsp), %rax          # 8-byte Reload
	testq	%r12, %rax
	jne	.LBB39_245
# BB#244:                               # %if.else606
	movq	%rdi, %rcx
.LBB39_245:                             # %if.else606
	cmpq	$1, 128(%rsp)           # 8-byte Folded Reload
	je	.LBB39_250
# BB#246:                               # %if.else606
	orq	%rcx, %rsi
	jne	.LBB39_250
# BB#247:                               # %if.then613
	movq	%r9, 24(%rsp)           # 8-byte Spill
	movq	current_binding_level(%rip), %rax
	movq	global_binding_level(%rip), %rcx
	cmpq	%rcx, %rax
	je	.LBB39_248
# BB#249:                               # %if.else617
	movabsq	$.L.str291, %rdi
	jmp	.LBB39_257
.LBB39_229:
	movabsq	$0, %rcx
.LBB39_231:                             # %if.then592
	cmpq	$2, %rax
	jne	.LBB39_234
# BB#232:                               # %if.then592
	testq	%rcx, %rcx
	jne	.LBB39_234
# BB#233:
	movq	%r9, 24(%rsp)           # 8-byte Spill
	jmp	.LBB39_258
.LBB39_250:                             # %if.else619
	movq	%r9, 24(%rsp)           # 8-byte Spill
	movq	current_binding_level(%rip), %rcx
	movq	global_binding_level(%rip), %rsi
	testq	%r12, %rdx
	je	.LBB39_254
# BB#251:                               # %if.else619
	cmpq	$1, 128(%rsp)           # 8-byte Folded Reload
	jne	.LBB39_254
# BB#252:                               # %land.lhs.true624
	cmpq	%rsi, %rcx
	je	.LBB39_255
# BB#253:                               # %if.then627
	movabsq	$.L.str292, %rdi
	jmp	.LBB39_257
.LBB39_234:                             # %if.else599
	cmpq	$2, %rax
	jne	.LBB39_235
# BB#238:                               # %sw.bb601
	movq	%r9, 24(%rsp)           # 8-byte Spill
	movabsq	$.L.str288, %rdi
	jmp	.LBB39_237
.LBB39_254:                             # %if.else628
	cmpq	%rsi, %rcx
	jne	.LBB39_258
.LBB39_255:                             # %land.lhs.true631
	testq	%r12, %r8
	je	.LBB39_258
# BB#256:                               # %if.then634
	movabsq	$.L.str293, %rdi
.LBB39_257:                             # %while.cond641.preheader
	xorq	%rax, %rax
	movq	136(%rsp), %rsi         # 8-byte Reload
	callq	error
	jmp	.LBB39_258
.LBB39_235:                             # %if.else599
	movq	%r9, 24(%rsp)           # 8-byte Spill
	cmpq	$3, %rax
	jne	.LBB39_239
# BB#236:                               # %sw.bb600
	movabsq	$.L.str287, %rdi
.LBB39_237:                             # %sw.epilog603
	xorq	%rax, %rax
	movq	136(%rsp), %rsi         # 8-byte Reload
	callq	error
	jmp	.LBB39_240
.LBB39_248:                             # %if.then616
	movabsq	$.L.str290, %rdi
	xorq	%rax, %rax
	movq	136(%rsp), %rsi         # 8-byte Reload
	callq	warning
	jmp	.LBB39_258
.LBB39_239:                             # %sw.default602
	movabsq	$.L.str289, %rdi
	xorq	%rax, %rax
	callq	error
.LBB39_240:                             # %sw.epilog603
	movabsq	$4294965134, %rax       # imm = 0xFFFFF78E
	andq	%rax, 104(%rsp)         # 8-byte Folded Spill
.LBB39_258:                             # %while.cond641.preheader
	movq	$0, 64(%rsp)            # 8-byte Folded Spill
	xorq	%r15, %r15
	testq	%rbx, %rbx
	je	.LBB39_259
# BB#277:                               # %land.end650.lr.ph
	xorq	%r13, %r13
	xorq	%rdi, %rdi
	jmp	.LBB39_278
	.align	16, 0x90
.LBB39_280:                             # %while.body652
                                        #   in Loop: Header=BB39_278 Depth=1
	movq	global_trees(%rip), %rdx
	cmpq	%rdx, %rax
	jne	.LBB39_283
# BB#281:                               # %if.then655
                                        #   in Loop: Header=BB39_278 Depth=1
	movq	32(%rbx), %r14
	jmp	.LBB39_282
	.align	16, 0x90
.LBB39_283:                             # %if.end659
                                        #   in Loop: Header=BB39_278 Depth=1
	testq	%rdi, %rdi
	jne	.LBB39_285
# BB#284:                               # %if.end659
                                        #   in Loop: Header=BB39_278 Depth=1
	testq	%r12, %r13
	je	.LBB39_286
.LBB39_285:                             # %if.then664
                                        #   in Loop: Header=BB39_278 Depth=1
	xorq	%rax, %rax
	movabsq	$.L.str294, %rdi
	callq	error
	movl	16(%rbx), %ecx
.LBB39_286:                             # %if.end665
                                        #   in Loop: Header=BB39_278 Depth=1
	andq	$255, %rcx
	cmpq	$40, %rcx
	jg	.LBB39_293
# BB#287:                               # %if.end665
                                        #   in Loop: Header=BB39_278 Depth=1
	cmpq	$2, %rcx
	jne	.LBB39_459
# BB#288:                               # %if.then672
                                        #   in Loop: Header=BB39_278 Depth=1
	movq	32(%rbx), %r14
	movq	24(%rbx), %rsi
	testq	%r14, %r14
	movq	$1, %rbx
	movq	%r14, %rax
	je	.LBB39_302
	.align	16, 0x90
.LBB39_289:                             # %land.rhs679
                                        #   Parent Loop BB39_278 Depth=1
                                        # =>  This Inner Loop Header: Depth=2
	movzbl	16(%rax), %ecx
	cmpq	$53, %rcx
	je	.LBB39_301
# BB#290:                               # %land.rhs679
                                        #   in Loop: Header=BB39_289 Depth=2
	cmpq	$1, %rcx
	je	.LBB39_302
# BB#291:                               # %land.rhs679
                                        #   in Loop: Header=BB39_289 Depth=2
	cmpq	$2, %rcx
	jne	.LBB39_298
# BB#292:                               # %while.body688
                                        #   in Loop: Header=BB39_289 Depth=2
	movq	32(%rax), %rax
	testq	%rax, %rax
	jne	.LBB39_289
	jmp	.LBB39_302
	.align	16, 0x90
.LBB39_293:                             # %if.end665
                                        #   in Loop: Header=BB39_278 Depth=1
	cmpq	$41, %rcx
	je	.LBB39_424
# BB#294:                               # %if.end665
                                        #   in Loop: Header=BB39_278 Depth=1
	cmpq	$43, %rcx
	jne	.LBB39_295
# BB#303:                               # %if.then733
                                        #   in Loop: Header=BB39_278 Depth=1
	movq	%r15, 120(%rsp)         # 8-byte Spill
	movq	%rbx, %r14
	movq	40(%r14), %rbx
	movq	sizetype_tab(%rip), %rdi
	callq	signed_type
	movq	184(%rsp), %rdx
	movq	%rax, 96(%rsp)          # 8-byte Spill
	movq	8(%r14), %r15
	movl	16(%rdx), %eax
	movl	16(%r14), %r13d
	movq	32(%r14), %r14
	movq	$18, %rcx
	shrq	%cl, %r13
	movq	%rax, %rcx
	andq	$255, %rcx
	cmpq	$5, %rcx
	jne	.LBB39_305
# BB#304:                               # %if.then753
                                        #   in Loop: Header=BB39_278 Depth=1
	xorq	%rax, %rax
	movabsq	$.L.str295, %rdi
	movq	136(%rsp), %rsi         # 8-byte Reload
	callq	error
	movq	global_trees(%rip), %rdx
	movq	%rdx, 184(%rsp)
	movl	16(%rdx), %eax
.LBB39_305:                             # %if.end754
                                        #   in Loop: Header=BB39_278 Depth=1
	andq	$1, %r13
	andq	$255, %rax
	cmpq	$23, %rax
	jne	.LBB39_306
# BB#307:                               # %if.then761
                                        #   in Loop: Header=BB39_278 Depth=1
	xorq	%rax, %rax
	movabsq	$.L.str296, %rdi
	movq	136(%rsp), %rsi         # 8-byte Reload
	callq	error
	movq	global_trees(%rip), %rdx
	movq	%rdx, 184(%rsp)
	movq	%rdx, %rax
	jmp	.LBB39_308
.LBB39_424:                             # %if.then1065
                                        #   in Loop: Header=BB39_278 Depth=1
	movl	pedantic(%rip), %eax
	testq	%rax, %rax
	je	.LBB39_428
# BB#425:                               # %land.lhs.true1067
                                        #   in Loop: Header=BB39_278 Depth=1
	movq	184(%rsp), %rax
	movzbl	16(%rax), %eax
	cmpq	$23, %rax
	jne	.LBB39_428
# BB#426:                               # %land.lhs.true1067
                                        #   in Loop: Header=BB39_278 Depth=1
	movq	144(%rsp), %rax         # 8-byte Reload
	testq	%r12, %rax
	je	.LBB39_428
# BB#427:                               # %if.then1076
                                        #   in Loop: Header=BB39_278 Depth=1
	xorq	%rax, %rax
	movabsq	$.L.str309, %rdi
	callq	pedwarn
.LBB39_428:                             # %if.end1077
                                        #   in Loop: Header=BB39_278 Depth=1
	movq	%r15, 120(%rsp)         # 8-byte Spill
	movq	184(%rsp), %rdi
	movq	144(%rsp), %rsi         # 8-byte Reload
	movq	%r12, %r15
	testq	%r12, %rsi
	je	.LBB39_430
# BB#429:                               # %if.then1079
                                        #   in Loop: Header=BB39_278 Depth=1
	callq	c_build_qualified_type
	movq	%rax, %rdi
	movq	%rdi, 184(%rsp)
.LBB39_430:                             # %if.end1081
                                        #   in Loop: Header=BB39_278 Depth=1
	callq	build_pointer_type
	movq	%rax, 184(%rsp)
	movq	8(%rbx), %rax
	movq	%rbx, %r13
	xorq	%rdi, %rdi
	testq	%rax, %rax
	movabsq	$0, %rcx
	movabsq	$0, %r12
	movabsq	$0, %rbx
	movabsq	$0, %r14
	movabsq	$0, %rsi
	je	.LBB39_458
	.align	16, 0x90
.LBB39_431:                             # %for.body1091
                                        #   Parent Loop BB39_278 Depth=1
                                        # =>  This Inner Loop Header: Depth=2
	movq	32(%rax), %rdx
	movzbl	19(%rdx), %esi
	testq	$1, %rsi
	je	.LBB39_438
# BB#432:                               # %if.then1100
                                        #   in Loop: Header=BB39_431 Depth=2
	movzbl	43(%rdx), %edx
	cmpq	$12, %rdx
	je	.LBB39_437
# BB#433:                               # %if.then1100
                                        #   in Loop: Header=BB39_431 Depth=2
	cmpq	$9, %rdx
	jne	.LBB39_434
# BB#436:                               # %if.then1114
                                        #   in Loop: Header=BB39_431 Depth=2
	incq	%r14
	jmp	.LBB39_439
.LBB39_437:                             # %if.then1122
                                        #   in Loop: Header=BB39_431 Depth=2
	incq	%rbx
	jmp	.LBB39_439
.LBB39_434:                             # %if.then1100
                                        #   in Loop: Header=BB39_431 Depth=2
	cmpq	$3, %rdx
	jne	.LBB39_438
# BB#435:                               # %if.then1106
                                        #   in Loop: Header=BB39_431 Depth=2
	incq	%r12
	jmp	.LBB39_439
	.align	16, 0x90
.LBB39_438:                             # %if.else1129
                                        #   in Loop: Header=BB39_431 Depth=2
	incq	%rcx
.LBB39_439:                             # %for.inc1132
                                        #   in Loop: Header=BB39_431 Depth=2
	movq	(%rax), %rax
	testq	%rax, %rax
	jne	.LBB39_431
# BB#440:                               # %for.end1135
                                        #   in Loop: Header=BB39_278 Depth=1
	testq	%r15, %rcx
	je	.LBB39_442
# BB#441:                               # %if.then1137
                                        #   in Loop: Header=BB39_278 Depth=1
	xorq	%rax, %rax
	movabsq	$.L.str310, %rdi
	callq	error
.LBB39_442:                             # %if.end1138
                                        #   in Loop: Header=BB39_278 Depth=1
	movq	$32, %rcx
	movq	%r12, %rdx
	shlq	%cl, %rdx
	movl	flag_isoc99(%rip), %eax
	movq	$32, %rcx
	sarq	%cl, %rdx
	cmpq	$2, %rdx
	jl	.LBB39_445
# BB#443:                               # %if.end1138
                                        #   in Loop: Header=BB39_278 Depth=1
	testq	%r15, %rax
	jne	.LBB39_445
# BB#444:                               # %if.then1143
                                        #   in Loop: Header=BB39_278 Depth=1
	xorq	%rax, %rax
	movabsq	$.L.str280, %rdi
	callq	pedwarn
	movl	flag_isoc99(%rip), %eax
.LBB39_445:                             # %if.end1144
                                        #   in Loop: Header=BB39_278 Depth=1
	movq	$32, %rcx
	movq	%r14, %rdx
	shlq	%cl, %rdx
	movq	$32, %rcx
	sarq	%cl, %rdx
	cmpq	$2, %rdx
	jl	.LBB39_448
# BB#446:                               # %if.end1144
                                        #   in Loop: Header=BB39_278 Depth=1
	testq	%r15, %rax
	jne	.LBB39_448
# BB#447:                               # %if.then1149
                                        #   in Loop: Header=BB39_278 Depth=1
	xorq	%rax, %rax
	movabsq	$.L.str282, %rdi
	callq	pedwarn
	movl	flag_isoc99(%rip), %eax
.LBB39_448:                             # %if.end1150
                                        #   in Loop: Header=BB39_278 Depth=1
	movq	$32, %rcx
	movq	%rbx, %rdx
	shlq	%cl, %rdx
	movq	$32, %rcx
	sarq	%cl, %rdx
	cmpq	$2, %rdx
	jl	.LBB39_451
# BB#449:                               # %if.end1150
                                        #   in Loop: Header=BB39_278 Depth=1
	testq	%r15, %rax
	jne	.LBB39_451
# BB#450:                               # %if.then1155
                                        #   in Loop: Header=BB39_278 Depth=1
	xorq	%rax, %rax
	movabsq	$.L.str281, %rdi
	callq	pedwarn
.LBB39_451:                             # %if.end1156
                                        #   in Loop: Header=BB39_278 Depth=1
	testq	%r15, %r12
	movq	%r15, %rdx
	movabsq	$0, %rax
	movabsq	$0, %rdi
	je	.LBB39_453
# BB#452:                               # %if.end1156
                                        #   in Loop: Header=BB39_278 Depth=1
	movabsq	$1, %rax
.LBB39_453:                             # %if.end1156
                                        #   in Loop: Header=BB39_278 Depth=1
	testq	%rdx, %rbx
	movabsq	$0, %rsi
	je	.LBB39_455
# BB#454:                               # %if.end1156
                                        #   in Loop: Header=BB39_278 Depth=1
	movabsq	$1, %rsi
.LBB39_455:                             # %if.end1156
                                        #   in Loop: Header=BB39_278 Depth=1
	movq	$2, %rcx
	shlq	%cl, %rsi
	testq	%rdx, %r14
	movq	%rdx, %r15
	movabsq	$0, %rcx
	je	.LBB39_457
# BB#456:                               # %if.end1156
                                        #   in Loop: Header=BB39_278 Depth=1
	movabsq	$1, %rcx
.LBB39_457:                             # %if.end1156
                                        #   in Loop: Header=BB39_278 Depth=1
	addq	%rcx, %rcx
	orq	%rcx, %rsi
	orq	%rax, %rsi
.LBB39_458:                             # %if.end1165
                                        #   in Loop: Header=BB39_278 Depth=1
	movq	%rsi, 144(%rsp)         # 8-byte Spill
	movq	32(%r13), %r14
	movq	$0, 88(%rsp)            # 8-byte Folded Spill
	xorq	%r13, %r13
	movq	%r15, %r12
	movq	120(%rsp), %r15         # 8-byte Reload
	jmp	.LBB39_282
.LBB39_295:                             # %if.end665
                                        #   in Loop: Header=BB39_278 Depth=1
	cmpq	$53, %rcx
	jne	.LBB39_459
# BB#296:                               # %if.then968
                                        #   in Loop: Header=BB39_278 Depth=1
	movq	184(%rsp), %rax
	movq	global_trees(%rip), %rcx
	xorq	%rdi, %rdi
	cmpq	%rcx, %rax
	jne	.LBB39_365
# BB#297:                               #   in Loop: Header=BB39_278 Depth=1
	xorq	%r13, %r13
	movq	%rbx, %r14
	jmp	.LBB39_282
.LBB39_306:                             # %if.end754.if.end762_crit_edge
                                        #   in Loop: Header=BB39_278 Depth=1
	movq	global_trees(%rip), %rax
.LBB39_308:                             # %if.end762
                                        #   in Loop: Header=BB39_278 Depth=1
	movq	%r15, %rdi
	cmpq	%rax, %rbx
	movq	120(%rsp), %r15         # 8-byte Reload
	jne	.LBB39_310
# BB#309:                               # %if.then765
                                        #   in Loop: Header=BB39_278 Depth=1
	movq	%rbx, 184(%rsp)
	movq	%rbx, %rdx
.LBB39_310:                             # %if.end766
                                        #   in Loop: Header=BB39_278 Depth=1
	cmpq	%rax, %rdx
	je	.LBB39_282
# BB#311:                               # %if.end770
                                        #   in Loop: Header=BB39_278 Depth=1
	movq	%r12, %r15
	testq	%rbx, %rbx
	jne	.LBB39_312
# BB#339:                               # %if.else909
                                        #   in Loop: Header=BB39_278 Depth=1
	movq	%rdi, 8(%rsp)           # 8-byte Spill
	movq	112(%rsp), %rax         # 8-byte Reload
	andq	%r15, %rax
	xorq	%rbx, %rbx
	cmpq	$3, %rax
	jne	.LBB39_340
# BB#341:                               # %if.then912
                                        #   in Loop: Header=BB39_278 Depth=1
	movl	pedantic(%rip), %eax
	testq	%rax, %rax
	je	.LBB39_345
# BB#342:                               # %if.then912
                                        #   in Loop: Header=BB39_278 Depth=1
	movl	flag_isoc99(%rip), %eax
	testq	%r15, %rax
	jne	.LBB39_345
# BB#343:                               # %if.then912
                                        #   in Loop: Header=BB39_278 Depth=1
	movl	in_system_header(%rip), %eax
	testq	%r15, %rax
	jne	.LBB39_345
# BB#344:                               # %if.then918
                                        #   in Loop: Header=BB39_278 Depth=1
	xorq	%rax, %rax
	movabsq	$.L.str303, %rdi
	callq	pedwarn
.LBB39_345:                             # %if.end919
                                        #   in Loop: Header=BB39_278 Depth=1
	movq	sizetype_tab(%rip), %rdi
	movq	global_trees+120(%rip), %rsi
	xorq	%rdx, %rdx
	xorq	%r12, %r12
	jmp	.LBB39_346
	.align	16, 0x90
.LBB39_312:                             # %while.cond773
                                        #   Parent Loop BB39_278 Depth=1
                                        # =>  This Inner Loop Header: Depth=2
	movq	%rbx, %r12
	movzbl	16(%r12), %ecx
	addq	$-114, %rcx
	andq	%r15, %rcx
	cmpq	$2, %rcx
	ja	.LBB39_315
# BB#313:                               # %land.lhs.true794
                                        #   in Loop: Header=BB39_312 Depth=2
	movq	32(%r12), %rbx
	cmpq	%rax, %rbx
	je	.LBB39_315
# BB#314:                               # %land.rhs800
                                        #   in Loop: Header=BB39_312 Depth=2
	movq	8(%r12), %rcx
	movq	8(%rbx), %rdx
	cmpq	%rdx, %rcx
	je	.LBB39_312
.LBB39_315:                             # %while.end816
                                        #   in Loop: Header=BB39_278 Depth=1
	movq	%rdi, 8(%rsp)           # 8-byte Spill
	movq	8(%r12), %rax
	movzbl	16(%rax), %ecx
	cmpq	$12, %rcx
	ja	.LBB39_317
# BB#316:                               # %while.end816
                                        #   in Loop: Header=BB39_278 Depth=1
	movq	$1, %rax
	shlq	%cl, %rax
	testq	$7232, %rax             # imm = 0x1C40
	jne	.LBB39_318
.LBB39_317:                             # %if.then852
                                        #   in Loop: Header=BB39_278 Depth=1
	xorq	%rax, %rax
	movabsq	$.L.str297, %rdi
	movq	136(%rsp), %rsi         # 8-byte Reload
	callq	error
	movq	global_trees+96(%rip), %r12
.LBB39_318:                             # %if.end853
                                        #   in Loop: Header=BB39_278 Depth=1
	movl	pedantic(%rip), %eax
	testq	%rax, %rax
	je	.LBB39_321
# BB#319:                               # %land.lhs.true855
                                        #   in Loop: Header=BB39_278 Depth=1
	movq	%r12, %rdi
	callq	integer_zerop
	testq	%r15, %rax
	je	.LBB39_321
# BB#320:                               # %if.then858
                                        #   in Loop: Header=BB39_278 Depth=1
	xorq	%rax, %rax
	movabsq	$.L.str298, %rdi
	movq	136(%rsp), %rsi         # 8-byte Reload
	callq	pedwarn
.LBB39_321:                             # %if.end859
                                        #   in Loop: Header=BB39_278 Depth=1
	movl	16(%r12), %eax
	movq	%rax, %rcx
	andq	$255, %rcx
	cmpq	$25, %rcx
	jne	.LBB39_324
# BB#322:                               # %if.then866
                                        #   in Loop: Header=BB39_278 Depth=1
	movq	%r12, %rdi
	callq	constant_expression_warning
	movq	%r12, %rdi
	callq	tree_int_cst_sgn
	movq	$32, %rcx
	shlq	%cl, %rax
	movq	$32, %rcx
	sarq	%cl, %rax
	testq	%rax, %rax
	jns	.LBB39_332
# BB#323:                               # %if.then870
                                        #   in Loop: Header=BB39_278 Depth=1
	xorq	%rax, %rax
	movabsq	$.L.str299, %rdi
	movq	136(%rsp), %rsi         # 8-byte Reload
	callq	error
	movq	global_trees+96(%rip), %r12
	jmp	.LBB39_332
.LBB39_365:                             # %if.end972
                                        #   in Loop: Header=BB39_278 Depth=1
	movl	16(%rax), %ecx
	movq	%rcx, %rdx
	andq	$255, %rdx
	cmpq	$23, %rdx
	jne	.LBB39_367
# BB#366:                               # %if.then979
                                        #   in Loop: Header=BB39_278 Depth=1
	xorq	%rax, %rax
	movabsq	$.L.str305, %rdi
	movq	136(%rsp), %rsi         # 8-byte Reload
	callq	error
	movq	integer_types+40(%rip), %rax
	movq	%rax, 184(%rsp)
	movl	16(%rax), %ecx
.LBB39_367:                             # %if.end980
                                        #   in Loop: Header=BB39_278 Depth=1
	andq	$255, %rcx
	cmpq	$18, %rcx
	jne	.LBB39_369
# BB#368:                               # %if.then987
                                        #   in Loop: Header=BB39_278 Depth=1
	xorq	%rax, %rax
	movabsq	$.L.str306, %rdi
	movq	136(%rsp), %rsi         # 8-byte Reload
	callq	error
	movq	integer_types+40(%rip), %rax
	movq	%rax, 184(%rsp)
.LBB39_369:                             # %if.end988
                                        #   in Loop: Header=BB39_278 Depth=1
	movl	flag_traditional(%rip), %ecx
	testq	%rcx, %rcx
	je	.LBB39_372
# BB#370:                               # %land.lhs.true990
                                        #   in Loop: Header=BB39_278 Depth=1
	movq	128(%rax), %rax
	movq	global_trees+192(%rip), %rcx
	cmpq	%rcx, %rax
	jne	.LBB39_372
# BB#371:                               # %if.then995
                                        #   in Loop: Header=BB39_278 Depth=1
	movq	global_trees+200(%rip), %rax
	movq	%rax, 184(%rsp)
.LBB39_372:                             # %if.end996
                                        #   in Loop: Header=BB39_278 Depth=1
	movq	%r12, %r13
	movq	40(%rbx), %rax
	cmpq	$1, 128(%rsp)           # 8-byte Folded Reload
	jne	.LBB39_373
# BB#374:                               # %land.rhs1001
                                        #   in Loop: Header=BB39_278 Depth=1
	movq	32(%rbx), %rcx
	movzbl	16(%rcx), %ecx
	cmpq	$1, %rcx
	movabsq	$0, %r12
