	.file	"c-typeck.c.bc"
	.text
	.globl	require_complete_type
	.align	16, 0x90
	.type	require_complete_type,@function
require_complete_type:                  # @require_complete_type
	.cfi_startproc
# BB#0:                                 # %entry
	pushq	%rax
.Ltmp1:
	.cfi_def_cfa_offset 16
	movq	global_trees(%rip), %rax
	cmpq	%rdi, %rax
	je	.LBB0_5
# BB#1:                                 # %entry
	movq	8(%rdi), %rsi
	cmpq	%rax, %rsi
	je	.LBB0_5
# BB#2:                                 # %if.end
	cmpq	$0, 32(%rsi)
	je	.LBB0_4
# BB#3:
	movq	%rdi, %rax
	popq	%rdx
	retq
.LBB0_4:                                # %if.end6
	callq	incomplete_type_error
	movq	global_trees(%rip), %rax
.LBB0_5:                                # %return
	popq	%rdx
	retq
.Ltmp2:
	.size	require_complete_type, .Ltmp2-require_complete_type
	.cfi_endproc

	.globl	incomplete_type_error
	.align	16, 0x90
	.type	incomplete_type_error,@function
incomplete_type_error:                  # @incomplete_type_error
	.cfi_startproc
# BB#0:                                 # %entry
	pushq	%rax
.Ltmp4:
	.cfi_def_cfa_offset 16
	movl	16(%rsi), %eax
	testq	$255, %rax
	je	.LBB1_24
# BB#1:                                 # %if.end
	testq	%rdi, %rdi
	je	.LBB1_6
# BB#2:                                 # %land.lhs.true
	movl	16(%rdi), %ecx
	andq	$254, %rcx
	cmpq	$34, %rcx
	jne	.LBB1_6
# BB#3:                                 # %if.then12
	movq	72(%rdi), %rax
	movq	32(%rax), %rsi
	movabsq	$.L.str, %rdi
	jmp	.LBB1_4
.LBB1_24:                               # %if.end54
	popq	%rax
	retq
.LBB1_5:                                # %if.end28
                                        #   in Loop: Header=BB1_6 Depth=1
	movq	8(%rsi), %rsi
	movl	16(%rsi), %eax
	.align	16, 0x90
.LBB1_6:                                # %retry
                                        # =>This Inner Loop Header: Depth=1
	andq	$255, %rax
	cmpq	$17, %rax
	jle	.LBB1_7
# BB#10:                                # %retry
                                        #   in Loop: Header=BB1_6 Depth=1
	cmpq	$18, %rax
	jne	.LBB1_11
# BB#15:                                # %sw.bb20
                                        #   in Loop: Header=BB1_6 Depth=1
	movq	24(%rsi), %rax
	testq	%rax, %rax
	je	.LBB1_18
# BB#16:                                # %if.then22
                                        #   in Loop: Header=BB1_6 Depth=1
	cmpq	$0, 112(%rax)
	jne	.LBB1_5
# BB#17:                                # %if.then27
	movabsq	$.L.str5, %rdi
	jmp	.LBB1_14
.LBB1_7:                                # %retry
	cmpq	$5, %rax
	jne	.LBB1_8
# BB#13:                                # %sw.bb19
	movabsq	$.L.str4, %rdi
.LBB1_14:                               # %sw.bb19
	xorq	%rax, %rax
	popq	%rdx
	jmp	error  # TAILCALL
.LBB1_11:                               # %retry
	cmpq	$20, %rax
	jne	.LBB1_19
# BB#12:
	movabsq	$.L.str1, %rcx
	jmp	.LBB1_22
.LBB1_8:                                # %retry
	cmpq	$10, %rax
	jne	.LBB1_9
# BB#21:                                # %sw.epilog.loopexit1
	movabsq	$.L.str3, %rcx
	jmp	.LBB1_22
.LBB1_19:                               # %retry
	cmpq	$21, %rax
	jne	.LBB1_9
# BB#20:                                # %sw.epilog.loopexit80
	movabsq	$.L.str2, %rcx
.LBB1_22:                               # %sw.epilog
	movq	96(%rsi), %rax
	movzbl	16(%rax), %edx
	cmpq	$1, %rdx
	jne	.LBB1_23
# BB#25:                                # %if.then39
	movq	32(%rax), %rdx
	movabsq	$.L.str8, %rdi
	xorq	%rax, %rax
	movq	%rcx, %rsi
	popq	%rcx
	jmp	error  # TAILCALL
.LBB1_23:                               # %if.else45
	movq	72(%rax), %rax
	movq	32(%rax), %rsi
	movabsq	$.L.str9, %rdi
.LBB1_4:                                # %if.then12
	xorq	%rax, %rax
	popq	%rdx
	jmp	error  # TAILCALL
.LBB1_18:                               # %if.end31
	movabsq	$.L.str6, %rdi
	jmp	.LBB1_14
.LBB1_9:                                # %sw.default
	movabsq	$.L.str7, %rax
	movabsq	$.L__FUNCTION__.incomplete_type_error, %rcx
	movq	$163, %rsi
	movq	%rax, %rdi
	movq	%rcx, %rdx
	callq	fancy_abort
.Ltmp5:
	.size	incomplete_type_error, .Ltmp5-incomplete_type_error
	.cfi_endproc

	.globl	common_type
	.align	16, 0x90
	.type	common_type,@function
common_type:                            # @common_type
	.cfi_startproc
# BB#0:                                 # %entry
	pushq	%r15
.Ltmp12:
	.cfi_def_cfa_offset 16
	pushq	%r14
.Ltmp13:
	.cfi_def_cfa_offset 24
	pushq	%r13
.Ltmp14:
	.cfi_def_cfa_offset 32
	pushq	%r12
.Ltmp15:
	.cfi_def_cfa_offset 40
	pushq	%rbx
.Ltmp16:
	.cfi_def_cfa_offset 48
	subq	$16, %rsp
.Ltmp17:
	.cfi_def_cfa_offset 64
.Ltmp18:
	.cfi_offset %rbx, -48
.Ltmp19:
	.cfi_offset %r12, -40
.Ltmp20:
	.cfi_offset %r13, -32
.Ltmp21:
	.cfi_offset %r14, -24
.Ltmp22:
	.cfi_offset %r15, -16
	movq	%rsi, %r15
	movq	%rdi, %rbx
	cmpq	%r15, %rbx
	je	.LBB2_3
# BB#1:                                 # %if.end
	movq	global_trees(%rip), %rax
	cmpq	%rbx, %rax
	je	.LBB2_2
# BB#4:                                 # %if.end3
	cmpq	%r15, %rax
	je	.LBB2_3
# BB#5:                                 # %if.end6
	movq	%rbx, %rdi
	movq	%r15, %rsi
	callq	*targetm+248(%rip)
	movzbl	16(%rbx), %ecx
	movq	%rax, 8(%rsp)           # 8-byte Spill
	cmpq	$10, %rcx
	jne	.LBB2_7
# BB#6:                                 # %if.then8
	movl	60(%rbx), %edi
	andq	$511, %rdi              # imm = 0x1FF
	movq	$1, %rsi
	callq	type_for_size
	movq	%rax, %rbx
.LBB2_7:                                # %if.end12
	movl	16(%r15), %eax
	movq	%rax, %rcx
	andq	$255, %rcx
	cmpq	$10, %rcx
	jne	.LBB2_9
# BB#8:                                 # %if.then18
	movl	60(%r15), %edi
	andq	$511, %rdi              # imm = 0x1FF
	movq	$1, %rsi
	callq	type_for_size
	movq	%rax, %r15
	movl	16(%r15), %eax
.LBB2_9:                                # %if.end24
	movl	16(%rbx), %ecx
	movq	%rcx, %r14
	andq	$255, %r14
	movq	%rax, %r12
	andq	$255, %r12
	cmpq	$8, %r14
	je	.LBB2_11
# BB#10:                                # %if.end24
	cmpq	$8, %r12
	je	.LBB2_11
# BB#22:                                # %if.end63
	cmpq	$22, %r14
	jg	.LBB2_33
# BB#23:                                # %if.end63
	leaq	-6(%r14), %rsi
	movabsq	$4294967295, %rdx       # imm = 0xFFFFFFFF
	andq	%rdx, %rsi
	cmpq	$2, %rsi
	jae	.LBB2_24
# BB#41:                                # %sw.bb
	cmpq	$7, %r14
	jne	.LBB2_43
# BB#42:                                # %sw.bb
	cmpq	$7, %r12
	jne	.LBB2_17
.LBB2_43:                               # %if.end69
	cmpq	$7, %r12
	jne	.LBB2_45
# BB#44:                                # %if.end69
	cmpq	$7, %r14
	jne	.LBB2_20
.LBB2_45:                               # %if.end75
	movl	60(%rbx), %esi
	movl	60(%r15), %edi
	andq	$511, %rsi              # imm = 0x1FF
	andq	$511, %rdi              # imm = 0x1FF
	cmpq	%rdi, %rsi
	ja	.LBB2_17
# BB#46:                                # %if.else87
	andq	%rdx, %rsi
	andq	%rdx, %rdi
	cmpq	%rsi, %rdi
	ja	.LBB2_20
# BB#47:                                # %if.end100
	movq	128(%rbx), %rdx
	movq	integer_types+64(%rip), %rdi
	cmpq	%rdi, %rdx
	je	.LBB2_69
# BB#48:                                # %lor.lhs.false103
	movq	128(%r15), %rsi
	cmpq	%rdi, %rsi
	je	.LBB2_69
# BB#49:                                # %if.end109
	movq	integer_types+56(%rip), %r8
	cmpq	%r8, %rdx
	je	.LBB2_51
# BB#50:                                # %if.end109
	cmpq	%r8, %rsi
	je	.LBB2_51
# BB#56:                                # %if.end132
	movq	global_trees+208(%rip), %rdi
	cmpq	%rdi, %rdx
	je	.LBB2_69
# BB#57:                                # %if.end132
	cmpq	%rdi, %rsi
	je	.LBB2_69
# BB#58:                                # %if.end142
	testq	$8192, %rcx             # imm = 0x2000
	jne	.LBB2_17
	jmp	.LBB2_20
.LBB2_2:
	movq	%r15, %rbx
.LBB2_3:                                # %return
	movq	%rbx, %rax
	addq	$16, %rsp
	popq	%rbx
	popq	%r12
	popq	%r13
	popq	%r14
	popq	%r15
	retq
.LBB2_11:                               # %if.then35
	cmpq	$8, %r14
	movq	%rbx, %rdi
	jne	.LBB2_13
# BB#12:                                # %cond.true
	movq	8(%rbx), %rdi
.LBB2_13:                               # %cond.end
	cmpq	$8, %r12
	movq	%r15, %rsi
	jne	.LBB2_15
# BB#14:                                # %cond.true40
	movq	8(%r15), %rsi
.LBB2_15:                               # %cond.end44
	callq	common_type
	cmpq	$8, %r14
	jne	.LBB2_18
# BB#16:                                # %land.lhs.true
	movq	8(%rbx), %rcx
	cmpq	%rax, %rcx
	je	.LBB2_17
.LBB2_18:                               # %if.else
	cmpq	$8, %r12
	jne	.LBB2_21
# BB#19:                                # %land.lhs.true54
	movq	8(%r15), %rcx
	cmpq	%rax, %rcx
	je	.LBB2_20
.LBB2_21:                               # %if.else60
	movq	%rax, %rdi
	callq	build_complex_type
.LBB2_68:                               # %if.then294
	movq	%rax, %rdi
	jmp	.LBB2_69
.LBB2_33:                               # %if.end63
	cmpq	$23, %r14
	jne	.LBB2_17
# BB#34:                                # %sw.bb261
	movq	8(%rbx), %rdi
	movq	8(%r15), %rsi
	callq	common_type
	movq	8(%rbx), %rcx
	movq	24(%rbx), %r13
	movq	24(%r15), %r12
	cmpq	%rcx, %rax
	jne	.LBB2_36
# BB#35:                                # %sw.bb261
	testq	%r12, %r12
	je	.LBB2_17
.LBB2_36:                               # %if.end280
	movq	8(%r15), %rcx
	cmpq	%rcx, %rax
	jne	.LBB2_38
# BB#37:                                # %if.end280
	testq	%r13, %r13
	je	.LBB2_20
.LBB2_38:                               # %if.end290
	testq	%r13, %r13
	je	.LBB2_39
# BB#70:                                # %if.end299
	testq	%r12, %r12
	je	.LBB2_71
# BB#72:                                # %if.end308
	movq	%rax, (%rsp)            # 8-byte Spill
	xorq	%rdi, %rdi
	callq	pushlevel
	movq	$1, %rdi
	callq	declare_parm_level
	movq	%r13, %rdi
	callq	list_length
	movq	%rax, %rbx
	movq	$32, %rcx
                                        # kill: RAX<def> RBX<kill>
	shlq	%cl, %rax
	movq	$32, %rcx
	sarq	%cl, %rax
	testq	%rax, %rax
	jle	.LBB2_73
# BB#77:
	movabsq	$4294967295, %r14       # imm = 0xFFFFFFFF
	andq	%r14, %rbx
	xorq	%r15, %r15
	xorq	%rax, %rax
.LBB2_78:                               # %for.body
                                        # =>This Inner Loop Header: Depth=1
	xorq	%rdi, %rdi
	xorq	%rsi, %rsi
	movq	%rax, %rdx
	callq	tree_cons
	incq	%r15
	movq	%r15, %rcx
	andq	%r14, %rcx
	cmpq	%rbx, %rcx
	jne	.LBB2_78
	jmp	.LBB2_74
.LBB2_24:                               # %if.end63
	cmpq	$13, %r14
	jne	.LBB2_25
# BB#59:                                # %sw.bb153
	movq	8(%rbx), %rbx
	movq	8(%r15), %r14
	movq	128(%rbx), %rdi
	movq	128(%r14), %rsi
	callq	common_type
	movl	16(%rbx), %edx
	movq	$12, %rcx
	movq	%rdx, %r10
	shrq	%cl, %r10
	movq	$10, %rcx
	movq	%rdx, %rsi
	shrq	%cl, %rsi
	movl	60(%rbx), %r11d
	movq	$19, %rcx
	shrq	%cl, %r11
	andq	$255, %rdx
	xorq	%r8, %r8
	cmpq	$20, %rdx
	movabsq	$0, %r9
	jne	.LBB2_63
# BB#60:                                # %land.rhs
	cmpq	$0, 8(%rbx)
	je	.LBB2_61
# BB#62:                                # %land.rhs
	movabsq	$1, %r9
	jmp	.LBB2_63
.LBB2_25:                               # %if.end63
	cmpq	$18, %r14
	jne	.LBB2_17
# BB#26:                                # %sw.bb225
	movq	8(%rbx), %rdi
	movq	8(%r15), %rsi
	callq	common_type
	movq	8(%rbx), %rcx
	cmpq	%rcx, %rax
	jne	.LBB2_28
# BB#27:                                # %land.lhs.true234
	cmpq	$0, 24(%rbx)
	je	.LBB2_28
.LBB2_17:                               # %if.then51
	movq	%rbx, %rdi
	jmp	.LBB2_69
.LBB2_28:                               # %if.end239
	movq	8(%r15), %rcx
	cmpq	%rcx, %rax
	jne	.LBB2_30
# BB#29:                                # %land.lhs.true243
	cmpq	$0, 24(%r15)
	je	.LBB2_30
.LBB2_20:                               # %if.then58
	movq	%r15, %rdi
.LBB2_69:                               # %if.then107
	movq	8(%rsp), %rsi           # 8-byte Reload
	addq	$16, %rsp
	popq	%rbx
	popq	%r12
	popq	%r13
	popq	%r14
	popq	%r15
	jmp	build_type_attribute_variant  # TAILCALL
.LBB2_30:                               # %if.end249
	cmpq	$0, 24(%rbx)
	jne	.LBB2_32
# BB#31:                                # %select.mid
	movq	%r15, %rbx
.LBB2_32:                               # %select.end
	movq	24(%rbx), %rsi
	movq	%rax, %rdi
	callq	build_array_type
	jmp	.LBB2_68
.LBB2_61:
	movabsq	$0, %r9
.LBB2_63:                               # %land.end
	movq	$3, %rcx
	movl	16(%r14), %ebx
	shlq	%cl, %r9
	movq	$12, %rcx
	movq	%rbx, %r15
	shrq	%cl, %r15
	movq	$10, %rcx
	movq	%rbx, %rdi
	movl	60(%r14), %edx
	shrq	%cl, %rdi
	movq	$19, %rcx
	shrq	%cl, %rdx
	andq	$255, %rbx
	cmpq	$20, %rbx
	jne	.LBB2_67
# BB#64:                                # %land.rhs213
	cmpq	$0, 8(%r14)
	je	.LBB2_65
# BB#66:                                # %land.rhs213
	movabsq	$1, %r8
	jmp	.LBB2_67
.LBB2_65:
	movabsq	$0, %r8
.LBB2_67:                               # %land.end217
	andq	$1, %r10
	andq	$2, %rsi
	andq	$4, %r11
	andq	$1, %r15
	andq	$2, %rdi
	andq	$4, %rdx
	movq	$3, %rcx
	shlq	%cl, %r8
	orq	%r10, %rsi
	orq	%r11, %rsi
	orq	%r9, %rsi
	orq	%rdi, %rsi
	orq	%r15, %rsi
	orq	%rdx, %rsi
	orq	%r8, %rsi
	movq	%rax, %rdi
	callq	c_build_qualified_type
	movq	%rax, %rdi
	callq	build_pointer_type
	jmp	.LBB2_68
.LBB2_39:                               # %if.then294
	movq	%rax, %rdi
	movq	%r12, %rsi
	callq	build_function_type
	jmp	.LBB2_68
.LBB2_71:                               # %if.then303
	movq	%rax, %rdi
	movq	%r13, %rsi
	callq	build_function_type
	jmp	.LBB2_68
.LBB2_73:
	xorq	%rax, %rax
.LBB2_74:                               # %for.body314.lr.ph
	movq	%rax, %r15
	movq	%rax, %r14
	jmp	.LBB2_75
.LBB2_93:                               # %if.then399
                                        #   in Loop: Header=BB2_75 Depth=1
	movq	32(%r13), %rax
.LBB2_86:                               # %if.then358
                                        #   in Loop: Header=BB2_75 Depth=1
	movq	%rax, 32(%r15)
	movl	pedantic(%rip), %eax
	testq	%rax, %rax
	je	.LBB2_99
# BB#87:                                # %if.then364
                                        #   in Loop: Header=BB2_75 Depth=1
	xorq	%rax, %rax
	movabsq	$.L.str10, %rdi
	callq	pedwarn
	jmp	.LBB2_99
.LBB2_75:                               # %for.body314
                                        # =>This Loop Header: Depth=1
                                        #     Child Loop BB2_83 Depth 2
                                        #     Child Loop BB2_92 Depth 2
	movq	32(%r13), %rax
	movq	32(%r12), %rsi
	testq	%rax, %rax
	jne	.LBB2_79
# BB#76:                                # %if.then316
                                        #   in Loop: Header=BB2_75 Depth=1
	movq	%rsi, 32(%r15)
	jmp	.LBB2_99
.LBB2_79:                               # %if.end321
                                        #   in Loop: Header=BB2_75 Depth=1
	testq	%rsi, %rsi
	je	.LBB2_98
# BB#80:                                # %if.end330
                                        #   in Loop: Header=BB2_75 Depth=1
	movzbl	16(%rax), %ecx
	cmpq	$21, %rcx
	jne	.LBB2_89
# BB#81:                                # %if.end330
                                        #   in Loop: Header=BB2_75 Depth=1
	cmpq	%rsi, %rax
	je	.LBB2_89
# BB#82:                                # %if.then344
                                        #   in Loop: Header=BB2_75 Depth=1
	movq	24(%rax), %rbx
	jmp	.LBB2_83
.LBB2_88:                               # %for.inc367
                                        #   in Loop: Header=BB2_83 Depth=2
	movq	(%rbx), %rbx
	movq	32(%r12), %rsi
.LBB2_83:                               # %if.then344
                                        #   Parent Loop BB2_75 Depth=1
                                        # =>  This Inner Loop Header: Depth=2
	testq	%rbx, %rbx
	je	.LBB2_89
# BB#84:                                # %for.body351
                                        #   in Loop: Header=BB2_83 Depth=2
	movq	8(%rbx), %rdi
	callq	comptypes
	movabsq	$4294967295, %rcx       # imm = 0xFFFFFFFF
	testq	%rcx, %rax
	je	.LBB2_88
# BB#85:                                # %if.then358
                                        #   in Loop: Header=BB2_75 Depth=1
	movq	32(%r12), %rax
	jmp	.LBB2_86
.LBB2_89:                               # %if.end370
                                        #   in Loop: Header=BB2_75 Depth=1
	movzbl	16(%rsi), %eax
	cmpq	$21, %rax
	jne	.LBB2_97
# BB#90:                                # %land.lhs.true378
                                        #   in Loop: Header=BB2_75 Depth=1
	movq	32(%r13), %rax
	cmpq	%rax, %rsi
	je	.LBB2_97
# BB#91:                                # %if.then384
                                        #   in Loop: Header=BB2_75 Depth=1
	movq	24(%rsi), %rbx
	testq	%rbx, %rbx
	je	.LBB2_97
	jmp	.LBB2_92
.LBB2_95:                               # %for.inc408.for.body392_crit_edge
                                        #   in Loop: Header=BB2_92 Depth=2
	movq	32(%r13), %rax
.LBB2_92:                               # %for.body392
                                        #   Parent Loop BB2_75 Depth=1
                                        # =>  This Inner Loop Header: Depth=2
	movq	8(%rbx), %rdi
	movq	%rax, %rsi
	callq	comptypes
	movabsq	$4294967295, %rcx       # imm = 0xFFFFFFFF
	testq	%rcx, %rax
	jne	.LBB2_93
# BB#94:                                # %for.inc408
                                        #   in Loop: Header=BB2_92 Depth=2
	movq	(%rbx), %rbx
	testq	%rbx, %rbx
	jne	.LBB2_95
# BB#96:                                # %for.cond390.if.end412.loopexit_crit_edge
                                        #   in Loop: Header=BB2_75 Depth=1
	movq	32(%r12), %rsi
.LBB2_97:                               # %if.end412
                                        #   in Loop: Header=BB2_75 Depth=1
	movq	32(%r13), %rdi
	callq	common_type
.LBB2_98:                               # %for.inc420
                                        #   in Loop: Header=BB2_75 Depth=1
	movq	%rax, 32(%r15)
.LBB2_99:                               # %for.inc420
                                        #   in Loop: Header=BB2_75 Depth=1
	movq	(%r13), %r13
	movq	(%r12), %r12
	movq	(%r15), %r15
	testq	%r13, %r13
	jne	.LBB2_75
# BB#100:                               # %for.end427
	xorq	%rdi, %rdi
	xorq	%rsi, %rsi
	xorq	%rdx, %rdx
	callq	poplevel
	movq	(%rsp), %rdi            # 8-byte Reload
	movq	%r14, %rsi
	callq	build_function_type
	movq	%rax, %rbx
	movq	%rbx, %rdi
	jmp	.LBB2_69
.LBB2_51:                               # %if.then117
	testq	$8192, %rcx             # imm = 0x2000
	jne	.LBB2_69
# BB#52:                                # %lor.lhs.false121
	testq	$8192, %rax             # imm = 0x2000
	je	.LBB2_53
# BB#54:                                # %lor.lhs.false121
	movabsq	$integer_types+64, %rax
	movq	(%rax), %rdi
	jmp	.LBB2_69
.LBB2_53:
	movabsq	$integer_types+56, %rax
	movq	(%rax), %rdi
	jmp	.LBB2_69
.Ltmp23:
	.size	common_type, .Ltmp23-common_type
	.cfi_endproc

	.globl	comptypes
	.align	16, 0x90
	.type	comptypes,@function
comptypes:                              # @comptypes
	.cfi_startproc
# BB#0:                                 # %entry
	pushq	%r15
.Ltmp30:
	.cfi_def_cfa_offset 16
	pushq	%r14
.Ltmp31:
	.cfi_def_cfa_offset 24
	pushq	%r13
.Ltmp32:
	.cfi_def_cfa_offset 32
	pushq	%r12
.Ltmp33:
	.cfi_def_cfa_offset 40
	pushq	%rbx
.Ltmp34:
	.cfi_def_cfa_offset 48
	subq	$16, %rsp
.Ltmp35:
	.cfi_def_cfa_offset 64
.Ltmp36:
	.cfi_offset %rbx, -48
.Ltmp37:
	.cfi_offset %r12, -40
.Ltmp38:
	.cfi_offset %r13, -32
.Ltmp39:
	.cfi_offset %r14, -24
.Ltmp40:
	.cfi_offset %r15, -16
	movq	%rsi, %r15
	movq	%rdi, %rbx
	cmpq	%r15, %rbx
	movq	$1, %r13
	je	.LBB3_90
# BB#1:                                 # %entry
	testq	%rbx, %rbx
	je	.LBB3_90
# BB#2:                                 # %entry
	testq	%r15, %r15
	je	.LBB3_90
# BB#3:                                 # %lor.lhs.false3
	movzbl	16(%rbx), %ecx
	testq	%rcx, %rcx
	je	.LBB3_90
# BB#4:                                 # %lor.lhs.false5
	movzbl	16(%r15), %eax
	testq	%rax, %rax
	je	.LBB3_90
# BB#5:                                 # %if.end
	cmpq	$6, %rcx
	jne	.LBB3_9
# BB#6:                                 # %land.lhs.true
	movzbl	62(%rbx), %ecx
	testq	$2, %rcx
	je	.LBB3_9
# BB#7:                                 # %land.lhs.true19
	movq	24(%rbx), %rcx
	testq	%rcx, %rcx
	je	.LBB3_9
# BB#8:                                 # %if.then22
	movq	%rcx, %rbx
.LBB3_9:                                # %if.end25
	cmpq	$6, %rax
	jne	.LBB3_13
# BB#10:                                # %land.lhs.true31
	movzbl	62(%r15), %eax
	testq	$2, %rax
	je	.LBB3_13
# BB#11:                                # %land.lhs.true38
	movq	24(%r15), %rax
	testq	%rax, %rax
	je	.LBB3_13
# BB#12:                                # %if.then42
	movq	%rax, %r15
.LBB3_13:                               # %if.end45
	movl	16(%rbx), %esi
	movq	%rsi, %rax
	andq	$255, %rax
	cmpq	$10, %rax
	jne	.LBB3_15
# BB#14:                                # %if.then51
	movl	60(%rbx), %edi
	andq	$511, %rdi              # imm = 0x1FF
	movq	$13, %rcx
	shrq	%cl, %rsi
	andq	$1, %rsi
	callq	type_for_size
	movq	%rax, %rbx
.LBB3_15:                               # %if.end59
	movl	16(%r15), %esi
	movq	%rsi, %rax
	andq	$255, %rax
	cmpq	$10, %rax
	jne	.LBB3_17
# BB#16:                                # %if.then65
	movl	60(%r15), %edi
	andq	$511, %rdi              # imm = 0x1FF
	movq	$13, %rcx
	shrq	%cl, %rsi
	andq	$1, %rsi
	callq	type_for_size
	movq	%rax, %r15
.LBB3_17:                               # %if.end76
	cmpq	%r15, %rbx
	je	.LBB3_90
# BB#18:                                # %if.end79
	movl	16(%rbx), %edi
	movl	16(%r15), %r11d
	movq	%rdi, %rsi
	andq	$255, %rsi
	movq	%r11, %rax
	andq	$255, %rax
	xorq	%r13, %r13
	cmpq	%rax, %rsi
	jne	.LBB3_90
# BB#19:                                # %if.end90
	movq	$12, %rcx
	movq	%rdi, %r8
	shrq	%cl, %r8
	movq	$10, %rcx
	shrq	%cl, %rdi
	movl	60(%rbx), %edx
	movq	$19, %rcx
	shrq	%cl, %rdx
	xorq	%r10, %r10
	cmpq	$20, %rsi
	movabsq	$0, %r9
	jne	.LBB3_23
# BB#20:                                # %land.rhs
	cmpq	$0, 8(%rbx)
	je	.LBB3_21
# BB#22:                                # %land.rhs
	movabsq	$1, %r9
	jmp	.LBB3_23
.LBB3_21:
	movabsq	$0, %r9
.LBB3_23:                               # %land.end
	movq	$3, %rcx
	shlq	%cl, %r9
	movq	$12, %rcx
	movq	%r11, %r14
	shrq	%cl, %r14
	movl	60(%r15), %eax
	movq	$10, %rcx
	shrq	%cl, %r11
	movq	$19, %rcx
	shrq	%cl, %rax
	cmpq	$20, %rsi
	jne	.LBB3_27
# BB#24:                                # %land.rhs141
	cmpq	$0, 8(%r15)
	je	.LBB3_25
# BB#26:                                # %land.rhs141
	movabsq	$1, %r10
	jmp	.LBB3_27
.LBB3_25:
	movabsq	$0, %r10
.LBB3_27:                               # %land.end145
	andq	$1, %r8
	andq	$2, %rdi
	orq	%r8, %rdi
	andq	$4, %rdx
	orq	%rdi, %rdx
	orq	%r9, %rdx
	andq	$1, %r14
	andq	$2, %r11
	orq	%r14, %r11
	andq	$4, %rax
	orq	%r11, %rax
	movq	$3, %rcx
	shlq	%cl, %r10
	orq	%rax, %r10
	movabsq	$4294967295, %r12       # imm = 0xFFFFFFFF
	andq	%r12, %r10
	andq	%r12, %rdx
	xorq	%r13, %r13
	cmpq	%r10, %rdx
	jne	.LBB3_90
# BB#28:                                # %if.end151
	movq	128(%rbx), %rax
	movq	128(%r15), %rcx
	cmpq	%rcx, %rax
	movq	$1, %r13
	je	.LBB3_90
# BB#29:                                # %if.end157
	movq	%rbx, %rdi
	movq	%r15, %rsi
	callq	*targetm+264(%rip)
	movq	%rax, %r14
	testq	%r12, %r14
	movabsq	$0, %r13
	je	.LBB3_90
# BB#30:                                # %if.end161
	movzbl	16(%rbx), %eax
	xorq	%r8, %r8
	cmpq	$17, %rax
	jg	.LBB3_34
# BB#31:                                # %if.end161
	cmpq	$13, %rax
	jne	.LBB3_84
# BB#32:                                # %sw.bb
	movq	8(%rbx), %rdi
	movq	8(%r15), %rsi
	cmpq	%rsi, %rdi
	movq	$1, %r8
	je	.LBB3_84
# BB#33:                                # %cond.false
	callq	comptypes
	movq	%rax, %r8
	jmp	.LBB3_84
.LBB3_34:                               # %if.end161
	cmpq	$18, %rax
	je	.LBB3_56
# BB#35:                                # %if.end161
	cmpq	$20, %rax
	jne	.LBB3_36
# BB#81:                                # %sw.bb279
	xorq	%rdx, %rdx
	movq	%rbx, %rdi
	movq	%r15, %rsi
	callq	maybe_objc_comptypes
	andq	%r12, %rax
	cmpq	$1, %rax
	jne	.LBB3_82
# BB#83:                                # %sw.bb279
	movabsq	$1, %r8
	jmp	.LBB3_84
.LBB3_56:                               # %sw.bb178
	movq	8(%rbx), %rdi
	movq	24(%rbx), %rbx
	movq	8(%r15), %rsi
	movq	24(%r15), %r15
	cmpq	%rsi, %rdi
	movq	$1, %r8
	je	.LBB3_58
# BB#57:                                # %land.lhs.true188
	callq	comptypes
	movq	%rax, %r8
	xorq	%r13, %r13
	testq	%r12, %r8
	je	.LBB3_90
.LBB3_58:                               # %if.end196
	testq	%rbx, %rbx
	je	.LBB3_84
# BB#59:                                # %if.end196
	testq	%r15, %r15
	je	.LBB3_84
# BB#60:                                # %if.end196
	cmpq	%r15, %rbx
	je	.LBB3_84
# BB#61:                                # %if.end203
	movq	112(%rbx), %rcx
	movq	112(%r15), %rax
	xorq	%rsi, %rsi
	testq	%rcx, %rcx
	movabsq	$0, %rdx
	je	.LBB3_66
# BB#62:                                # %land.rhs212
	movq	104(%rbx), %rdx
	movzbl	16(%rdx), %edx
	cmpq	$25, %rdx
	movq	$1, %rdx
	jne	.LBB3_66
# BB#63:                                # %lor.rhs
	movzbl	16(%rcx), %edx
	cmpq	$25, %rdx
	je	.LBB3_64
# BB#65:                                # %lor.rhs
	movabsq	$1, %rdx
	jmp	.LBB3_66
.LBB3_36:                               # %if.end161
	cmpq	$23, %rax
	jne	.LBB3_84
# BB#37:                                # %sw.bb176
	movq	8(%rbx), %rdi
	movq	8(%r15), %rsi
	cmpq	%rsi, %rdi
	movq	$1, %rax
	je	.LBB3_40
# BB#38:                                # %lor.lhs.false.i
	callq	comptypes
	testq	%r12, %rax
	je	.LBB3_39
.LBB3_40:                               # %if.end.i
	movq	%rax, 8(%rsp)           # 8-byte Spill
	movq	24(%rbx), %r13
	movq	24(%r15), %rsi
	testq	%r13, %r13
	je	.LBB3_41
# BB#47:                                # %if.end24.i
	testq	%rsi, %rsi
	je	.LBB3_48
# BB#54:                                # %if.end41.i
	movq	%r13, %rdi
	callq	type_lists_compatible_p
	movq	%rax, %r8
                                        # kill: RAX<def> R8<kill>
	andq	%r12, %rax
	cmpq	$1, %rax
	jne	.LBB3_84
# BB#55:                                # %if.end41.i
	movq	8(%rsp), %r8            # 8-byte Reload
	jmp	.LBB3_84
.LBB3_82:
	movabsq	$0, %r8
	jmp	.LBB3_84
.LBB3_41:                               # %if.then11.i
	movq	%rsi, %rdi
	movq	%rsi, %r15
	callq	self_promoting_args_p
	testq	%r12, %rax
	movabsq	$0, %r8
	je	.LBB3_84
# BB#42:                                # %if.end15.i
	movq	136(%rbx), %rsi
	testq	%rsi, %rsi
	je	.LBB3_43
# BB#44:                                # %land.lhs.true.i
	movq	%r15, %rdi
	callq	type_lists_compatible_p
	andq	%r12, %rax
	cmpq	$1, %rax
	je	.LBB3_46
# BB#45:                                # %land.lhs.true.i
	movq	$2, 8(%rsp)             # 8-byte Folded Spill
.LBB3_46:                               # %land.lhs.true.i
	movq	8(%rsp), %r8            # 8-byte Reload
	jmp	.LBB3_84
.LBB3_39:
	xorq	%r8, %r8
	jmp	.LBB3_84
.LBB3_48:                               # %if.then26.i
	movq	%r13, %rdi
	callq	self_promoting_args_p
	testq	%r12, %rax
	movabsq	$0, %r8
	je	.LBB3_84
# BB#49:                                # %if.end30.i
	movq	136(%r15), %rax
	testq	%rax, %rax
	je	.LBB3_50
# BB#51:                                # %land.lhs.true34.i
	movq	%r13, %rdi
	movq	%rax, %rsi
	callq	type_lists_compatible_p
	andq	%r12, %rax
	cmpq	$1, %rax
	je	.LBB3_53
# BB#52:                                # %land.lhs.true34.i
	movq	$2, 8(%rsp)             # 8-byte Folded Spill
.LBB3_53:                               # %land.lhs.true34.i
	movq	8(%rsp), %r8            # 8-byte Reload
	jmp	.LBB3_84
.LBB3_64:
	movabsq	$0, %rdx
.LBB3_66:                               # %land.end226
	testq	%rax, %rax
	je	.LBB3_71
# BB#67:                                # %land.rhs230
	movq	104(%r15), %rsi
	movzbl	16(%rsi), %esi
	cmpq	$25, %rsi
	jne	.LBB3_84
# BB#68:                                # %lor.rhs238
	movzbl	16(%rax), %esi
	cmpq	$25, %rsi
	je	.LBB3_69
# BB#70:                                # %lor.rhs238
	movabsq	$1, %rsi
	jmp	.LBB3_71
.LBB3_69:
	movabsq	$0, %rsi
.LBB3_71:                               # %land.end247
	movq	%rcx, %rdi
	orq	%rax, %rdi
	jne	.LBB3_72
# BB#73:                                # %land.end247
	movabsq	$1, %rdi
	jmp	.LBB3_74
.LBB3_72:
	movabsq	$0, %rdi
.LBB3_74:                               # %land.end247
	orq	%rsi, %rdx
	jne	.LBB3_84
# BB#75:                                # %land.end247
	testq	%rdi, %rdi
	jne	.LBB3_84
# BB#76:                                # %if.end259
	testq	%rcx, %rcx
	je	.LBB3_80
# BB#77:                                # %if.end259
	testq	%rax, %rax
	je	.LBB3_80
# BB#78:                                # %lor.lhs.false263
	movq	104(%rbx), %rax
	movq	104(%r15), %rcx
	movq	%rax, %rdi
	movq	%rcx, %rsi
	movq	%r8, %r13
	callq	tree_int_cst_equal
	movq	%r13, %rdx
	testq	%r12, %rax
	je	.LBB3_80
# BB#79:                                # %lor.lhs.false270
	movq	112(%rbx), %rax
	movq	112(%r15), %rcx
	movq	%rax, %rdi
	movq	%rcx, %rsi
	movq	%rdx, %rbx
	callq	tree_int_cst_equal
	movq	%rbx, %r8
	testq	%r12, %rax
	jne	.LBB3_84
.LBB3_80:                               # %if.then277
	xorq	%r8, %r8
	jmp	.LBB3_84
.LBB3_43:
	movq	8(%rsp), %r8            # 8-byte Reload
	jmp	.LBB3_84
.LBB3_50:
	movq	8(%rsp), %r8            # 8-byte Reload
.LBB3_84:                               # %sw.epilog
	andq	%r12, %r14
	cmpq	$2, %r14
	movabsq	$0, %rax
	movabsq	$1, %rdx
	movq	%rax, %rcx
	jne	.LBB3_86
# BB#85:                                # %sw.epilog
	movq	%rdx, %rcx
.LBB3_86:                               # %sw.epilog
	andq	%r8, %r12
	cmpq	$1, %r12
	jne	.LBB3_88
# BB#87:                                # %sw.epilog
	movq	%rdx, %rax
.LBB3_88:                               # %sw.epilog
	testq	%rax, %rcx
	movq	$2, %r13
	jne	.LBB3_90
# BB#89:                                # %sw.epilog
	movq	%r8, %r13
.LBB3_90:                               # %return
	movq	%r13, %rax
	addq	$16, %rsp
	popq	%rbx
	popq	%r12
	popq	%r13
	popq	%r14
	popq	%r15
	retq
.Ltmp41:
	.size	comptypes, .Ltmp41-comptypes
	.cfi_endproc

	.globl	c_sizeof
	.align	16, 0x90
	.type	c_sizeof,@function
c_sizeof:                               # @c_sizeof
	.cfi_startproc
# BB#0:                                 # %entry
	pushq	%rbx
.Ltmp44:
	.cfi_def_cfa_offset 16
.Ltmp45:
	.cfi_offset %rbx, -16
	movzbl	16(%rdi), %eax
	testq	%rax, %rax
	je	.LBB4_8
# BB#1:                                 # %entry
	cmpq	$5, %rax
	jne	.LBB4_2
# BB#6:                                 # %if.then5
	movl	pedantic(%rip), %eax
	movl	warn_pointer_arith(%rip), %ecx
	orq	%rax, %rcx
	movabsq	$4294967295, %rax       # imm = 0xFFFFFFFF
	testq	%rax, %rcx
	je	.LBB4_8
# BB#7:                                 # %if.then9
	movabsq	$.L.str12, %rdi
	xorq	%rax, %rax
	callq	pedwarn
.LBB4_8:                                # %if.then13
	movq	global_trees+128(%rip), %rdx
	jmp	.LBB4_12
.LBB4_2:                                # %entry
	cmpq	$23, %rax
	jne	.LBB4_9
# BB#3:                                 # %if.then
	movl	pedantic(%rip), %eax
	movl	warn_pointer_arith(%rip), %ecx
	orq	%rax, %rcx
	movabsq	$4294967295, %rax       # imm = 0xFFFFFFFF
	testq	%rax, %rcx
	je	.LBB4_5
# BB#4:                                 # %if.then3
	movabsq	$.L.str11, %rdi
	xorq	%rax, %rax
	callq	pedwarn
.LBB4_5:                                # %if.end
	movq	global_trees+128(%rip), %rdx
	jmp	.LBB4_12
.LBB4_9:                                # %if.else14
	cmpq	$0, 32(%rdi)
	je	.LBB4_10
# BB#11:                                # %if.else19
	movq	integer_types(%rip), %rax
	movl	60(%rax), %eax
	movq	40(%rdi), %rbx
	movq	$3, %rcx
	shrq	%cl, %rax
	andq	$63, %rax
	xorq	%rsi, %rsi
	movq	%rax, %rdi
	callq	size_int_wide
	movq	$63, %rdi
	movq	%rbx, %rsi
	movq	%rax, %rdx
	callq	size_binop
	movq	%rax, %rdx
	jmp	.LBB4_12
.LBB4_10:                               # %if.then18
	movabsq	$.L.str13, %rdi
	xorq	%rax, %rax
	callq	error
	movq	global_trees+120(%rip), %rdx
.LBB4_12:                               # %if.end28
	movq	c_global_trees+32(%rip), %rsi
	movq	$115, %rdi
	callq	build1
	movq	%rax, %rdi
	popq	%rbx
	jmp	fold  # TAILCALL
.Ltmp46:
	.size	c_sizeof, .Ltmp46-c_sizeof
	.cfi_endproc

	.globl	c_sizeof_nowarn
	.align	16, 0x90
	.type	c_sizeof_nowarn,@function
c_sizeof_nowarn:                        # @c_sizeof_nowarn
	.cfi_startproc
# BB#0:                                 # %entry
	pushq	%rbx
.Ltmp49:
	.cfi_def_cfa_offset 16
.Ltmp50:
	.cfi_offset %rbx, -16
	movzbl	16(%rdi), %ecx
	cmpq	$23, %rcx
	ja	.LBB5_3
# BB#1:                                 # %entry
	movq	$1, %rax
	shlq	%cl, %rax
	testq	$8388641, %rax          # imm = 0x800021
	je	.LBB5_3
# BB#2:                                 # %if.then
	movq	global_trees+128(%rip), %rdx
	jmp	.LBB5_6
.LBB5_3:                                # %if.else
	cmpq	$0, 32(%rdi)
	je	.LBB5_4
# BB#5:                                 # %if.else9
	movq	integer_types(%rip), %rax
	movl	60(%rax), %eax
	movq	40(%rdi), %rbx
	movq	$3, %rcx
	shrq	%cl, %rax
	andq	$63, %rax
	xorq	%rsi, %rsi
	movq	%rax, %rdi
	callq	size_int_wide
	movq	$63, %rdi
	movq	%rbx, %rsi
	movq	%rax, %rdx
	callq	size_binop
	movq	%rax, %rdx
	jmp	.LBB5_6
.LBB5_4:                                # %if.then8
	movq	global_trees+120(%rip), %rdx
.LBB5_6:                                # %if.end15
	movq	c_global_trees+32(%rip), %rsi
	movq	$115, %rdi
	callq	build1
	movq	%rax, %rdi
	popq	%rbx
	jmp	fold  # TAILCALL
.Ltmp51:
	.size	c_sizeof_nowarn, .Ltmp51-c_sizeof_nowarn
	.cfi_endproc

	.globl	c_size_in_bytes
	.align	16, 0x90
	.type	c_size_in_bytes,@function
c_size_in_bytes:                        # @c_size_in_bytes
	.cfi_startproc
# BB#0:                                 # %entry
	pushq	%rbx
.Ltmp54:
	.cfi_def_cfa_offset 16
.Ltmp55:
	.cfi_offset %rbx, -16
	movzbl	16(%rdi), %ecx
	cmpq	$23, %rcx
	ja	.LBB6_2
# BB#1:                                 # %entry
	movq	$1, %rax
	shlq	%cl, %rax
	testq	$8388641, %rax          # imm = 0x800021
	jne	.LBB6_5
.LBB6_2:                                # %if.end
	cmpq	$0, 32(%rdi)
	jne	.LBB6_6
# BB#3:                                 # %if.end
	cmpq	$5, %rcx
	je	.LBB6_6
# BB#4:                                 # %if.then13
	movabsq	$.L.str14, %rdi
	xorq	%rax, %rax
	callq	error
.LBB6_5:                                # %return
	movq	global_trees+128(%rip), %rax
	popq	%rbx
	retq
.LBB6_6:                                # %if.end14
	movq	integer_types(%rip), %rax
	movl	60(%rax), %eax
	movq	40(%rdi), %rbx
	movq	$3, %rcx
	shrq	%cl, %rax
	andq	$63, %rax
	xorq	%rsi, %rsi
	movq	%rax, %rdi
	callq	size_int_wide
	movq	$63, %rdi
	movq	%rbx, %rsi
	movq	%rax, %rdx
	popq	%rbx
	jmp	size_binop  # TAILCALL
.Ltmp56:
	.size	c_size_in_bytes, .Ltmp56-c_size_in_bytes
	.cfi_endproc

	.globl	decl_constant_value
	.align	16, 0x90
	.type	decl_constant_value,@function
decl_constant_value:                    # @decl_constant_value
	.cfi_startproc
# BB#0:                                 # %entry
	cmpq	$0, current_function_decl(%rip)
	je	.LBB7_6
# BB#1:                                 # %land.lhs.true
	movl	16(%rdi), %eax
	andq	$6144, %rax             # imm = 0x1800
	cmpq	$4096, %rax             # imm = 0x1000
	jne	.LBB7_6
# BB#2:                                 # %land.lhs.true7
	movq	104(%rdi), %rax
	testq	%rax, %rax
	je	.LBB7_6
# BB#3:                                 # %land.lhs.true10
	movl	16(%rax), %ecx
	testq	$512, %rcx              # imm = 0x200
	je	.LBB7_6
# BB#4:                                 # %switch.early.test
	andq	$255, %rcx
	je	.LBB7_6
# BB#5:                                 # %switch.early.test
	movabsq	$4294967295, %rdx       # imm = 0xFFFFFFFF
	andq	%rdx, %rcx
	cmpq	$46, %rcx
	jne	.LBB7_7
.LBB7_6:                                # %if.end
	movq	%rdi, %rax
.LBB7_7:                                # %return
	retq
.Ltmp57:
	.size	decl_constant_value, .Ltmp57-decl_constant_value
	.cfi_endproc

	.globl	default_conversion
	.align	16, 0x90
	.type	default_conversion,@function
default_conversion:                     # @default_conversion
	.cfi_startproc
# BB#0:                                 # %entry
	pushq	%r15
.Ltmp62:
	.cfi_def_cfa_offset 16
	pushq	%r14
.Ltmp63:
	.cfi_def_cfa_offset 24
	pushq	%rbx
.Ltmp64:
	.cfi_def_cfa_offset 32
.Ltmp65:
	.cfi_offset %rbx, -32
.Ltmp66:
	.cfi_offset %r14, -24
.Ltmp67:
	.cfi_offset %r15, -16
	movq	8(%rdi), %r14
	movzbl	16(%r14), %r15d
	cmpq	$18, %r15
	je	.LBB8_54
# BB#1:                                 # %entry
	cmpq	$23, %r15
	jne	.LBB8_2
.LBB8_54:                               # %if.then
	popq	%rbx
	popq	%r14
	popq	%r15
	jmp	default_function_array_conversion  # TAILCALL
.LBB8_2:                                # %if.end
	movl	16(%rdi), %eax
	movq	%rax, %rcx
	andq	$255, %rcx
	cmpq	$32, %rcx
	jne	.LBB8_4
# BB#3:                                 # %if.then10
	movq	104(%rdi), %rdi
	jmp	.LBB8_17
.LBB8_4:                                # %if.else
	movl	optimize(%rip), %edx
	testq	%rdx, %rdx
	je	.LBB8_17
# BB#5:                                 # %land.lhs.true
	cmpq	$34, %rcx
	jne	.LBB8_17
# BB#6:                                 # %land.lhs.true
	cmpq	$18, %r15
	je	.LBB8_17
# BB#7:                                 # %if.then18
	movl	pedantic(%rip), %ecx
	testq	%rcx, %rcx
	jne	.LBB8_15
# BB#8:                                 # %lor.lhs.false.i
	movzbl	48(%rdi), %ecx
	cmpq	$51, %rcx
	je	.LBB8_15
# BB#9:                                 # %if.else.i
	cmpq	$0, current_function_decl(%rip)
	je	.LBB8_15
# BB#10:                                # %if.else.i
	andq	$6144, %rax             # imm = 0x1800
	movabsq	$4294967295, %rcx       # imm = 0xFFFFFFFF
	andq	%rcx, %rax
	cmpq	$4096, %rax             # imm = 0x1000
	jne	.LBB8_15
# BB#11:                                # %land.lhs.true7.i.i
	movq	104(%rdi), %rax
	testq	%rax, %rax
	je	.LBB8_15
# BB#12:                                # %land.lhs.true10.i.i
	movl	16(%rax), %edx
	testq	$512, %rdx              # imm = 0x200
	je	.LBB8_15
# BB#13:                                # %switch.early.test.i.i
	andq	$255, %rdx
	je	.LBB8_15
# BB#14:                                # %switch.early.test.i.i
	andq	%rcx, %rdx
	cmpq	$46, %rdx
	jne	.LBB8_16
.LBB8_15:                               # %if.end.i.i
	movq	%rdi, %rax
.LBB8_16:                               # %decl_constant_value_for_broken_optimization.exit
	movq	8(%rax), %r14
	movq	%rax, %rdi
.LBB8_17:                               # %if.end23
	movq	%rdi, %rcx
	jmp	.LBB8_18
	.align	16, 0x90
.LBB8_20:                               # %while.cond.while.body_crit_edge
                                        #   in Loop: Header=BB8_18 Depth=1
	movq	32(%rbx), %rcx
.LBB8_18:                               # %while.cond
                                        # =>This Inner Loop Header: Depth=1
	movq	%rcx, %rbx
	movzbl	16(%rbx), %eax
	cmpq	$115, %rax
	jne	.LBB8_19
# BB#21:                                # %land.rhs
                                        #   in Loop: Header=BB8_18 Depth=1
	movq	32(%rbx), %rcx
	movq	8(%rbx), %rdx
	movq	8(%rcx), %rsi
	cmpq	%rdx, %rsi
	je	.LBB8_18
	jmp	.LBB8_22
	.align	16, 0x90
.LBB8_19:                               # %while.cond
                                        #   in Loop: Header=BB8_18 Depth=1
	cmpq	$116, %rax
	je	.LBB8_20
.LBB8_22:                               # %while.end
	movzbl	tree_code_type(%rax), %ecx
	addq	$-49, %rcx
	andq	$255, %rcx
	cmpq	$52, %rcx
	ja	.LBB8_25
# BB#23:                                # %while.end
	movq	$1, %rdx
	shlq	%cl, %rdx
	movabsq	$4503599627372547, %rcx # imm = 0x10000000000803
	testq	%rcx, %rdx
	je	.LBB8_25
# BB#24:                                # %if.then80
	movl	24(%rdi), %ecx
	movl	%ecx, 24(%rbx)
.LBB8_25:                               # %if.end84
	cmpq	$10, %r15
	jne	.LBB8_32
# BB#26:                                # %if.then87
	movq	integer_types+40(%rip), %rax
	movl	60(%r14), %edi
	movl	60(%rax), %edx
	movq	%rdi, %rax
	andq	$511, %rax              # imm = 0x1FF
	movq	%rdx, %rcx
	andq	$511, %rcx              # imm = 0x1FF
	cmpq	%rcx, %rax
	ja	.LBB8_28
# BB#27:                                # %if.then87
	movq	%rdx, %rdi
.LBB8_28:                               # %if.then87
	movl	flag_traditional(%rip), %edx
	andq	$511, %rdi              # imm = 0x1FF
	testq	%rdx, %rdx
	jne	.LBB8_30
# BB#29:                                # %if.then87
	xorq	%rsi, %rsi
	movabsq	$4294967295, %rdx       # imm = 0xFFFFFFFF
	andq	%rdx, %rcx
	andq	%rdx, %rax
	cmpq	%rcx, %rax
	jb	.LBB8_31
.LBB8_30:                               # %land.rhs117
	movzbl	17(%r14), %esi
	andq	$32, %rsi
	movq	$5, %rcx
	shrq	%cl, %rsi
.LBB8_31:                               # %land.end122
	callq	type_for_size
	movq	%rax, %rdi
	jmp	.LBB8_46
.LBB8_32:                               # %if.end125
	cmpq	$39, %rax
	jne	.LBB8_40
# BB#33:                                # %land.lhs.true132
	movq	40(%rbx), %rax
	movzbl	53(%rax), %ecx
	testq	$2, %rcx
	je	.LBB8_40
# BB#34:                                # %land.lhs.true142
	movq	integer_types+40(%rip), %rcx
	movl	60(%rcx), %esi
	movq	40(%rax), %rdi
	andq	$511, %rsi              # imm = 0x1FF
	callq	compare_tree_int
	movq	$32, %rcx
	shlq	%cl, %rax
	movq	$32, %rcx
	sarq	%cl, %rax
	testq	%rax, %rax
	js	.LBB8_35
.LBB8_40:                               # %if.end169
	movq	%r14, %rdi
	callq	c_promoting_integer_type_p
	testq	%rax, %rax
	je	.LBB8_47
# BB#41:                                # %if.then171
	movzbl	17(%r14), %eax
	testq	$32, %rax
	je	.LBB8_42
# BB#43:                                # %land.lhs.true178
	movl	flag_traditional(%rip), %eax
	testq	%rax, %rax
	jne	.LBB8_45
# BB#44:                                # %lor.lhs.false180
	movq	integer_types+40(%rip), %rdi
	movl	60(%r14), %eax
	movl	60(%rdi), %ecx
	xorq	%rax, %rcx
	testq	$511, %rcx              # imm = 0x1FF
	jne	.LBB8_46
.LBB8_45:                               # %if.then191
	movq	integer_types+48(%rip), %rdi
	jmp	.LBB8_46
.LBB8_47:                               # %if.end195
	movl	flag_traditional(%rip), %eax
	testq	%rax, %rax
	je	.LBB8_51
# BB#48:                                # %if.end195
	movl	flag_allow_single_precision(%rip), %eax
	movabsq	$4294967295, %rcx       # imm = 0xFFFFFFFF
	testq	%rcx, %rax
	jne	.LBB8_51
# BB#49:                                # %land.lhs.true199
	movq	128(%r14), %rax
	movq	global_trees+192(%rip), %rcx
	cmpq	%rcx, %rax
	je	.LBB8_50
.LBB8_51:                               # %if.end205
	cmpq	$5, %r15
	jne	.LBB8_53
# BB#52:                                # %if.then208
	movabsq	$.L.str15, %rdi
	xorq	%rax, %rax
	callq	error
	movq	global_trees(%rip), %rbx
.LBB8_53:                               # %return
	movq	%rbx, %rax
	popq	%rbx
	popq	%r14
	popq	%r15
	retq
.LBB8_42:                               # %if.then171.if.end193_crit_edge
	movq	integer_types+40(%rip), %rdi
	jmp	.LBB8_46
.LBB8_35:                               # %if.then155
	movl	flag_traditional(%rip), %eax
	testq	%rax, %rax
	je	.LBB8_38
# BB#36:                                # %land.lhs.true157
	movzbl	17(%r14), %eax
	testq	$32, %rax
	je	.LBB8_38
# BB#37:
	movabsq	$integer_types+48, %rax
	movq	(%rax), %rdi
	jmp	.LBB8_46
.LBB8_50:                               # %if.then203
	movq	global_trees+200(%rip), %rdi
	jmp	.LBB8_46
.LBB8_38:                               # %cond.false165
	movabsq	$integer_types+40, %rax
	movq	(%rax), %rdi
.LBB8_46:                               # %if.end193
	movq	%rbx, %rsi
	popq	%rbx
	popq	%r14
	popq	%r15
	jmp	convert  # TAILCALL
.Ltmp68:
	.size	default_conversion, .Ltmp68-default_conversion
	.cfi_endproc

	.align	16, 0x90
	.type	default_function_array_conversion,@function
default_function_array_conversion:      # @default_function_array_conversion
	.cfi_startproc
# BB#0:                                 # %entry
	pushq	%r15
.Ltmp75:
	.cfi_def_cfa_offset 16
	pushq	%r14
.Ltmp76:
	.cfi_def_cfa_offset 24
	pushq	%r13
.Ltmp77:
	.cfi_def_cfa_offset 32
	pushq	%r12
.Ltmp78:
	.cfi_def_cfa_offset 40
	pushq	%rbx
.Ltmp79:
	.cfi_def_cfa_offset 48
.Ltmp80:
	.cfi_offset %rbx, -48
.Ltmp81:
	.cfi_offset %r12, -40
.Ltmp82:
	.cfi_offset %r13, -32
.Ltmp83:
	.cfi_offset %r14, -24
.Ltmp84:
	.cfi_offset %r15, -16
	movq	8(%rdi), %r9
	movzbl	16(%r9), %r8d
	xorq	%r14, %r14
	movq	%rdi, %rcx
	jmp	.LBB9_1
.LBB9_3:                                # %lor.end.thread
                                        #   in Loop: Header=BB9_1 Depth=1
	movq	32(%r13), %rcx
	movq	$1, %r14
	.align	16, 0x90
.LBB9_1:                                # %while.cond
                                        # =>This Inner Loop Header: Depth=1
	movq	%rcx, %r13
	movl	16(%r13), %edx
	movq	%rdx, %rsi
	andq	$255, %rsi
	cmpq	$115, %rsi
	jne	.LBB9_2
# BB#5:                                 # %lor.end
                                        #   in Loop: Header=BB9_1 Depth=1
	movq	32(%r13), %rcx
	movq	8(%r13), %rax
	movq	8(%rcx), %rbx
	cmpq	%rax, %rbx
	movq	$115, %rax
	je	.LBB9_1
	jmp	.LBB9_6
.LBB9_2:                                # %while.cond
                                        #   in Loop: Header=BB9_1 Depth=1
	cmpq	$116, %rsi
	je	.LBB9_3
# BB#4:                                 # %lor.end.thread303
	movq	%rsi, %rax
.LBB9_6:                                # %while.end
	movzbl	tree_code_type(%rax), %ecx
	addq	$-49, %rcx
	andq	$255, %rcx
	cmpq	$52, %rcx
	ja	.LBB9_9
# BB#7:                                 # %while.end
	movq	$1, %rax
	shlq	%cl, %rax
	movabsq	$4503599627372547, %rcx # imm = 0x10000000000803
	testq	%rcx, %rax
	je	.LBB9_9
# BB#8:                                 # %if.then63
	movl	24(%rdi), %eax
	movl	%eax, 24(%r13)
.LBB9_9:                                # %if.end67
	cmpq	$18, %r8
	jne	.LBB9_10
# BB#12:                                # %if.then74
	movzbl	tree_code_type(%rsi), %eax
	movq	8(%r9), %rdi
	cmpq	$100, %rax
	je	.LBB9_14
# BB#13:                                # %if.then74
	xorq	%r8, %r8
	cmpq	$114, %rax
	movabsq	$0, %rsi
	jne	.LBB9_15
.LBB9_14:                               # %if.then96
	movq	$12, %rcx
	movq	%rdx, %r8
	shrq	%cl, %r8
	andq	$1, %r8
	movq	$11, %rcx
	movq	%rdx, %rsi
	shrq	%cl, %rsi
	andq	$1, %rsi
.LBB9_15:                               # %if.end104
	movl	16(%r9), %r15d
	movq	$12, %rcx
	movq	%r15, %r10
	shrq	%cl, %r10
	movq	$10, %rcx
	movq	%r15, %r11
	shrq	%cl, %r11
	movl	60(%r9), %r9d
	movq	$19, %rcx
	shrq	%cl, %r9
	andq	$255, %r15
	cmpq	$20, %r15
	movabsq	$0, %rcx
	movabsq	$1, %r12
	movq	%rcx, %rax
	jne	.LBB9_17
# BB#16:                                # %if.end104
	movq	%r12, %rax
.LBB9_17:                               # %if.end104
	andq	$1, %r10
	andq	$2, %r11
	andq	$4, %r9
	testq	%rdi, %rdi
	je	.LBB9_19
# BB#18:                                # %if.end104
	movq	%r12, %rcx
.LBB9_19:                               # %if.end104
	andq	%rcx, %rax
	movq	$3, %rcx
	shlq	%cl, %rax
	movq	%rsi, %rcx
	orq	%r8, %rcx
	orq	%r11, %rcx
	orq	%r10, %rcx
	orq	%r9, %rcx
	orq	%rax, %rcx
	je	.LBB9_25
# BB#20:                                # %if.then139
	cmpq	$20, %r15
	movabsq	$0, %rcx
	movabsq	$1, %rdx
	movq	%rcx, %rax
	jne	.LBB9_22
# BB#21:                                # %if.then139
	movq	%rdx, %rax
.LBB9_22:                               # %if.then139
	testq	%rdi, %rdi
	je	.LBB9_24
# BB#23:                                # %if.then139
	movq	%rdx, %rcx
.LBB9_24:                               # %if.then139
	andq	%rcx, %rax
	movq	$3, %rcx
	shlq	%cl, %rax
	addq	%rsi, %rsi
	orq	%r8, %rsi
	orq	%r11, %rsi
	orq	%r10, %rsi
	orq	%r9, %rsi
	orq	%rax, %rsi
	callq	c_build_qualified_type
	movl	16(%r13), %edx
	movq	%rax, %rdi
.LBB9_25:                               # %if.end179
	movq	%rdx, %rax
	andq	$255, %rax
	cmpq	$47, %rax
	jne	.LBB9_26
# BB#29:                                # %if.then199
	movq	40(%r13), %rdi
	callq	default_conversion
	movq	%rax, %rcx
	movq	8(%rcx), %rsi
	movq	32(%r13), %rdx
	movq	$47, %rdi
	xorq	%rax, %rax
	popq	%rbx
	popq	%r12
	popq	%r13
	popq	%r14
	popq	%r15
	jmp	build  # TAILCALL
.LBB9_10:                               # %if.end67
	cmpq	$23, %r8
	jne	.LBB9_62
# BB#11:                                # %if.then70
	movq	$121, %rdi
	xorq	%rdx, %rdx
	movq	%r13, %rsi
	popq	%rbx
	popq	%r12
	popq	%r13
	popq	%r14
	popq	%r15
	jmp	build_unary_op  # TAILCALL
.LBB9_26:                               # %if.end179
	cmpq	$41, %rax
	jne	.LBB9_30
# BB#27:                                # %if.then186
	movq	72(%rdi), %rdi
	movq	32(%r13), %rsi
	jmp	.LBB9_28
.LBB9_30:                               # %if.end210
	xorq	%rax, %rax
	movabsq	$4294967295, %r15       # imm = 0xFFFFFFFF
	testq	%r15, %r14
	jne	.LBB9_55
# BB#31:
	movq	$1, %rax
	movabsq	$11115375362048, %r8    # imm = 0xA1C00000000
	movq	%r13, %rsi
	jmp	.LBB9_32
.LBB9_46:                               # %sw.bb.i
                                        #   in Loop: Header=BB9_32 Depth=1
	movq	32(%rsi), %rsi
	movl	16(%rsi), %edx
.LBB9_32:                               # %tailrecurse.i
                                        # =>This Inner Loop Header: Depth=1
	andq	$255, %rdx
	cmpq	$169, %rdx
	jg	.LBB9_53
# BB#33:                                # %tailrecurse.i
                                        #   in Loop: Header=BB9_32 Depth=1
	cmpq	$28, %rdx
	jle	.LBB9_34
# BB#40:                                # %tailrecurse.i
                                        #   in Loop: Header=BB9_32 Depth=1
	cmpq	$119, %rdx
	jg	.LBB9_47
# BB#41:                                # %tailrecurse.i
                                        #   in Loop: Header=BB9_32 Depth=1
	cmpq	$51, %rdx
	jg	.LBB9_49
# BB#42:                                # %tailrecurse.i
                                        #   in Loop: Header=BB9_32 Depth=1
	cmpq	$43, %rdx
	ja	.LBB9_54
# BB#43:                                # %tailrecurse.i
                                        #   in Loop: Header=BB9_32 Depth=1
	movq	$1, %rbx
	movq	%rdx, %rcx
	shlq	%cl, %rbx
	testq	%r8, %rbx
	jne	.LBB9_35
# BB#44:                                # %tailrecurse.i
                                        #   in Loop: Header=BB9_32 Depth=1
	cmpq	$29, %rdx
	je	.LBB9_55
# BB#45:                                # %tailrecurse.i
                                        #   in Loop: Header=BB9_32 Depth=1
	cmpq	$39, %rdx
	je	.LBB9_46
	jmp	.LBB9_54
.LBB9_47:                               # %tailrecurse.i
                                        #   in Loop: Header=BB9_32 Depth=1
	leaq	-127(%rdx), %rcx
	andq	%r15, %rcx
	cmpq	$2, %rcx
	jb	.LBB9_46
# BB#48:                                # %tailrecurse.i
	cmpq	$120, %rdx
	je	.LBB9_50
	jmp	.LBB9_54
.LBB9_53:                               # %tailrecurse.i
	cmpq	$170, %rdx
	je	.LBB9_55
	jmp	.LBB9_54
.LBB9_34:                               # %tailrecurse.i
	testq	%rdx, %rdx
	jne	.LBB9_54
.LBB9_35:                               # %sw.bb3.i
	movq	8(%rsi), %rax
	movzbl	16(%rax), %esi
	cmpq	$16, %rsi
	movabsq	$0, %rcx
	movabsq	$1, %rdx
	movq	%rcx, %rax
	je	.LBB9_37
# BB#36:                                # %sw.bb3.i
	movq	%rdx, %rax
.LBB9_37:                               # %sw.bb3.i
	cmpq	$23, %rsi
	je	.LBB9_39
# BB#38:                                # %sw.bb3.i
	movq	%rdx, %rcx
.LBB9_39:                               # %sw.bb3.i
	andq	%rcx, %rax
	jmp	.LBB9_55
.LBB9_49:                               # %tailrecurse.i
	cmpq	$52, %rdx
	jne	.LBB9_54
.LBB9_50:                               # %sw.bb16.i
	movq	8(%rsi), %rax
	movzbl	16(%rax), %eax
	cmpq	$18, %rax
	jne	.LBB9_51
# BB#52:                                # %sw.bb16.i
	movabsq	$1, %rax
	jmp	.LBB9_55
.LBB9_54:                               # %lvalue_p.exit.loopexit
	xorq	%rax, %rax
.LBB9_55:                               # %land.end215
	movl	flag_isoc99(%rip), %ecx
	testq	%rcx, %rcx
	jne	.LBB9_57
# BB#56:                                # %land.end215
	testq	%rax, %rax
	je	.LBB9_62
.LBB9_57:                               # %if.end220
	callq	build_pointer_type
	movzbl	16(%r13), %ecx
	movq	%rax, %r14
	movq	$121, %rdi
	cmpq	$34, %rcx
	jne	.LBB9_60
# BB#58:                                # %if.then228
	movq	%r14, %rsi
	movq	%r13, %rdx
	callq	build1
	movq	%rax, %r14
	movq	%r13, %rdi
	callq	mark_addressable
	testq	%r15, %rax
	je	.LBB9_59
# BB#61:                                # %if.end234
	movq	%r13, %rdi
	callq	staticp
	movl	16(%r14), %ecx
	andq	$1, %rax
	shlq	$9, %rax
	movabsq	$4294966527, %rdx       # imm = 0xFFFFFCFF
	andq	%rcx, %rdx
	orq	%rax, %rdx
	movl	%edx, 16(%r14)
	movq	%r14, %r13
	jmp	.LBB9_62
.LBB9_60:                               # %if.end242
	movq	$1, %rdx
	movq	%r13, %rsi
	callq	build_unary_op
	movq	%r14, %rdi
	movq	%rax, %rsi
.LBB9_28:                               # %if.then186
	popq	%rbx
	popq	%r12
	popq	%r13
	popq	%r14
	popq	%r15
	jmp	convert  # TAILCALL
.LBB9_59:                               # %if.then233
	movq	global_trees(%rip), %r13
.LBB9_62:                               # %return
	movq	%r13, %rax
	popq	%rbx
	popq	%r12
	popq	%r13
	popq	%r14
	popq	%r15
	retq
.LBB9_51:
	movabsq	$0, %rax
	jmp	.LBB9_55
.Ltmp85:
	.size	default_function_array_conversion, .Ltmp85-default_function_array_conversion
	.cfi_endproc

	.globl	build_component_ref
	.align	16, 0x90
	.type	build_component_ref,@function
build_component_ref:                    # @build_component_ref
	.cfi_startproc
# BB#0:                                 # %entry
	pushq	%r15
.Ltmp91:
	.cfi_def_cfa_offset 16
	pushq	%r14
.Ltmp92:
	.cfi_def_cfa_offset 24
	pushq	%r12
.Ltmp93:
	.cfi_def_cfa_offset 32
	pushq	%rbx
.Ltmp94:
	.cfi_def_cfa_offset 40
	pushq	%rax
.Ltmp95:
	.cfi_def_cfa_offset 48
.Ltmp96:
	.cfi_offset %rbx, -40
.Ltmp97:
	.cfi_offset %r12, -32
.Ltmp98:
	.cfi_offset %r14, -24
.Ltmp99:
	.cfi_offset %r15, -16
	movq	%rdi, %r14
	movzbl	16(%r14), %eax
	movq	%rsi, %r12
	cmpq	$47, %rax
	jne	.LBB10_1
# BB#23:                                # %sw.bb
	movq	40(%r14), %rdi
	movq	%r12, %rsi
	callq	build_component_ref
	movq	8(%rax), %r15
	movq	32(%r14), %rbx
	movq	%rax, %rdi
	callq	pedantic_non_lvalue
	movq	%rax, %rcx
	movq	$47, %rdi
	xorq	%rax, %rax
	movq	%r15, %rsi
	movq	%rbx, %rdx
	addq	$8, %rsp
	popq	%rbx
	popq	%r12
	popq	%r14
	popq	%r15
	jmp	build  # TAILCALL
.LBB10_1:                               # %sw.epilog
	movq	8(%r14), %rax
	movl	16(%rax), %ecx
	movq	%rcx, %rbx
	andq	$255, %rbx
	andq	$254, %rcx
	cmpq	$20, %rcx
	jne	.LBB10_19
# BB#2:                                 # %if.then
	cmpq	$0, 32(%rax)
	je	.LBB10_3
# BB#4:                                 # %if.end
	movq	%rax, %rdi
	movq	%r12, %rsi
	callq	lookup_field
	movq	%rax, %r15
	testq	%r15, %r15
	je	.LBB10_5
	.align	16, 0x90
.LBB10_9:                               # %for.body
                                        # =>This Inner Loop Header: Depth=1
	movq	32(%r15), %r12
	movq	8(%r12), %rbx
	movq	global_trees(%rip), %rax
	cmpq	%rax, %rbx
	je	.LBB10_22
# BB#10:                                # %if.end29
                                        #   in Loop: Header=BB10_9 Depth=1
	movq	$39, %rdi
	xorq	%rax, %rax
	movq	%rbx, %rsi
	movq	%r14, %rdx
	movq	%r12, %rcx
	callq	build
	movl	16(%r14), %ecx
	movq	%rax, %rbx
	testq	$4096, %rcx             # imm = 0x1000
	jne	.LBB10_12
# BB#11:                                # %lor.lhs.false37
                                        #   in Loop: Header=BB10_9 Depth=1
	movzbl	17(%r12), %eax
	testq	$16, %rax
	je	.LBB10_13
.LBB10_12:                              # %if.then44
                                        #   in Loop: Header=BB10_9 Depth=1
	movl	16(%rbx), %eax
	orq	$4096, %rax             # imm = 0x1000
	movl	%eax, 16(%rbx)
	movl	16(%r14), %ecx
.LBB10_13:                              # %if.end49
                                        #   in Loop: Header=BB10_9 Depth=1
	testq	$2048, %rcx             # imm = 0x800
	jne	.LBB10_15
# BB#14:                                # %lor.lhs.false55
                                        #   in Loop: Header=BB10_9 Depth=1
	movl	16(%r12), %eax
	testq	$2048, %rax             # imm = 0x800
	je	.LBB10_16
.LBB10_15:                              # %if.then62
                                        #   in Loop: Header=BB10_9 Depth=1
	movl	16(%rbx), %eax
	orq	$2048, %rax             # imm = 0x800
	movl	%eax, 16(%rbx)
	movl	16(%r12), %eax
.LBB10_16:                              # %if.end68
                                        #   in Loop: Header=BB10_9 Depth=1
	testq	$8388608, %rax          # imm = 0x800000
	je	.LBB10_18
# BB#17:                                # %if.then74
                                        #   in Loop: Header=BB10_9 Depth=1
	movq	%r12, %rdi
	callq	warn_deprecated_use
.LBB10_18:                              # %if.end75
                                        #   in Loop: Header=BB10_9 Depth=1
	movq	(%r15), %r15
	testq	%r15, %r15
	movq	%rbx, %r14
	jne	.LBB10_9
	jmp	.LBB10_22
.LBB10_19:                              # %if.else
	testq	%rbx, %rbx
	je	.LBB10_21
# BB#20:                                # %if.then78
	movq	32(%r12), %rsi
	movabsq	$.L.str18, %rdi
	xorq	%rax, %rax
	callq	error
	jmp	.LBB10_21
.LBB10_3:                               # %if.then18
	xorq	%rdi, %rdi
	movq	%rax, %rsi
	callq	incomplete_type_error
	jmp	.LBB10_21
.LBB10_5:                               # %if.then20
	cmpq	$20, %rbx
	je	.LBB10_6
# BB#7:                                 # %if.then20
	movabsq	$.L.str2, %rsi
	jmp	.LBB10_8
.LBB10_6:
	movabsq	$.L.str17, %rsi
.LBB10_8:                               # %if.then20
	movq	32(%r12), %rdx
	movabsq	$.L.str16, %rdi
	xorq	%rax, %rax
	callq	error
.LBB10_21:                              # %if.end83
	movq	global_trees(%rip), %rbx
.LBB10_22:                              # %return
	movq	%rbx, %rax
	addq	$8, %rsp
	popq	%rbx
	popq	%r12
	popq	%r14
	popq	%r15
	retq
.Ltmp100:
	.size	build_component_ref, .Ltmp100-build_component_ref
	.cfi_endproc

	.align	16, 0x90
	.type	lookup_field,@function
lookup_field:                           # @lookup_field
	.cfi_startproc
# BB#0:                                 # %entry
	pushq	%r15
.Ltmp107:
	.cfi_def_cfa_offset 16
	pushq	%r14
.Ltmp108:
	.cfi_def_cfa_offset 24
	pushq	%r13
.Ltmp109:
	.cfi_def_cfa_offset 32
	pushq	%r12
.Ltmp110:
	.cfi_def_cfa_offset 40
	pushq	%rbx
.Ltmp111:
	.cfi_def_cfa_offset 48
.Ltmp112:
	.cfi_offset %rbx, -48
.Ltmp113:
	.cfi_offset %r12, -40
.Ltmp114:
	.cfi_offset %r13, -32
.Ltmp115:
	.cfi_offset %r14, -24
.Ltmp116:
	.cfi_offset %r15, -16
	movq	160(%rdi), %r12
	movq	24(%rdi), %r15
	movq	%rsi, %r14
	testq	%r12, %r12
	je	.LBB11_1
# BB#8:                                 # %if.then
	movl	(%r12), %ecx
	xorq	%rax, %rax
	movq	%r15, %r13
	jmp	.LBB11_9
	.align	16, 0x90
.LBB11_7:                               # %for.inc
                                        #   in Loop: Header=BB11_1 Depth=1
	movq	(%r15), %r15
.LBB11_1:                               # %for.cond.preheader
                                        # =>This Inner Loop Header: Depth=1
	testq	%r15, %r15
	je	.LBB11_29
# BB#2:                                 # %for.body
                                        #   in Loop: Header=BB11_1 Depth=1
	movq	72(%r15), %rax
	testq	%rax, %rax
	jne	.LBB11_6
# BB#3:                                 # %land.lhs.true
                                        #   in Loop: Header=BB11_1 Depth=1
	movq	8(%r15), %rdi
	movl	16(%rdi), %ecx
	andq	$254, %rcx
	xorq	%rax, %rax
	cmpq	$20, %rcx
	jne	.LBB11_6
# BB#4:                                 # %if.then93
                                        #   in Loop: Header=BB11_1 Depth=1
	movq	%r14, %rsi
	callq	lookup_field
	testq	%rax, %rax
	jne	.LBB11_30
# BB#5:                                 # %if.then93.if.end100_crit_edge
                                        #   in Loop: Header=BB11_1 Depth=1
	movq	72(%r15), %rax
.LBB11_6:                               # %if.end100
                                        #   in Loop: Header=BB11_1 Depth=1
	cmpq	%r14, %rax
	jne	.LBB11_7
# BB#31:                                # %for.end
	testq	%r15, %r15
	jne	.LBB11_32
	jmp	.LBB11_29
.LBB11_26:                              # %if.end47
                                        #   in Loop: Header=BB11_9 Depth=1
	movq	%rdx, %rax
	.align	16, 0x90
.LBB11_9:                               # %while.cond.outer
                                        # =>This Loop Header: Depth=1
                                        #     Child Loop BB11_10 Depth 2
                                        #       Child Loop BB11_13 Depth 3
	movq	%rcx, %r15
.LBB11_10:                              # %while.cond
                                        #   Parent Loop BB11_9 Depth=1
                                        # =>  This Loop Header: Depth=2
                                        #       Child Loop BB11_13 Depth 3
	movq	%r15, %rdx
	subq	%rax, %rdx
	movq	$32, %rcx
	movq	%rdx, %rsi
	shlq	%cl, %rsi
	movq	$32, %rcx
	sarq	%cl, %rsi
	cmpq	$2, %rsi
	jl	.LBB11_27
# BB#11:                                # %while.body
                                        #   in Loop: Header=BB11_10 Depth=2
	incq	%rdx
	movq	$32, %rcx
	shlq	%cl, %rdx
	movq	$33, %rcx
	sarq	%cl, %rdx
	addq	%rax, %rdx
	movq	$32, %rcx
	movq	%rdx, %rsi
	shlq	%cl, %rsi
	movq	$32, %rcx
	sarq	%cl, %rsi
	movq	8(%r12,%rsi,8), %r13
	movq	72(%r13), %rcx
	testq	%rcx, %rcx
	jne	.LBB11_21
# BB#12:                                # %while.cond14.preheader
                                        #   in Loop: Header=BB11_10 Depth=2
	movq	$32, %rcx
	movq	%rax, %rbx
	shlq	%cl, %rbx
	movq	$32, %rcx
	sarq	%cl, %rbx
	movq	8(%r12,%rbx,8), %rcx
	cmpq	$0, 72(%rcx)
	jne	.LBB11_17
	.align	16, 0x90
.LBB11_13:                              # %while.body20
                                        #   Parent Loop BB11_9 Depth=1
                                        #     Parent Loop BB11_10 Depth=2
                                        # =>    This Inner Loop Header: Depth=3
	movq	%rcx, %r13
	movq	8(%r13), %rdi
	movl	16(%rdi), %eax
	andq	$254, %rax
	cmpq	$20, %rax
	jne	.LBB11_15
# BB#14:                                # %if.then34
                                        #   in Loop: Header=BB11_13 Depth=3
	movq	%r14, %rsi
	callq	lookup_field
	testq	%rax, %rax
	jne	.LBB11_18
.LBB11_15:                              # %while.cond14.backedge
                                        #   in Loop: Header=BB11_13 Depth=3
	movq	16(%r12,%rbx,8), %rcx
	incq	%rbx
	cmpq	$0, 72(%rcx)
	je	.LBB11_13
# BB#16:                                # %while.cond14.while.end_crit_edge
                                        #   in Loop: Header=BB11_10 Depth=2
	movq	%rbx, %rax
.LBB11_17:                              # %while.end
                                        #   in Loop: Header=BB11_10 Depth=2
	movq	$32, %rcx
	movq	%r15, %rdx
	shlq	%cl, %rdx
	movq	$32, %rcx
	sarq	%cl, %rdx
	movq	$32, %rcx
	movq	%rax, %rsi
	shlq	%cl, %rsi
	movq	$32, %rcx
	sarq	%cl, %rsi
	cmpq	%rdx, %rsi
	jle	.LBB11_10
	jmp	.LBB11_29
.LBB11_21:                              # %if.end42
                                        #   in Loop: Header=BB11_9 Depth=1
	cmpq	%r14, %rcx
	je	.LBB11_27
# BB#22:                                # %if.end47
                                        #   in Loop: Header=BB11_9 Depth=1
	jb	.LBB11_24
# BB#23:                                # %if.end47
                                        #   in Loop: Header=BB11_9 Depth=1
	movq	%rdx, %r15
.LBB11_24:                              # %if.end47
                                        #   in Loop: Header=BB11_9 Depth=1
	movq	%r15, %rcx
	jb	.LBB11_26
# BB#25:                                # %if.end47
                                        #   in Loop: Header=BB11_9 Depth=1
	movq	%rax, %rdx
	jmp	.LBB11_26
.LBB11_18:                              # %if.then36
	xorq	%rdi, %rdi
	movq	%r13, %rsi
.LBB11_19:                              # %if.then36
	movq	%rax, %rdx
.LBB11_20:                              # %if.then36
	popq	%rbx
	popq	%r12
	popq	%r13
	popq	%r14
	popq	%r15
	jmp	tree_cons  # TAILCALL
.LBB11_27:                              # %while.end55
	movq	$32, %rcx
	shlq	%cl, %rax
	movq	$32, %rcx
	sarq	%cl, %rax
	movq	8(%r12,%rax,8), %r15
	movq	72(%r15), %rax
	cmpq	%r14, %rax
	je	.LBB11_32
# BB#28:                                # %if.else64
	movq	72(%r13), %rax
	cmpq	%r14, %rax
	movq	%r13, %r15
	je	.LBB11_32
.LBB11_29:                              # %return
	xorq	%rax, %rax
	popq	%rbx
	popq	%r12
	popq	%r13
	popq	%r14
	popq	%r15
	retq
.LBB11_32:                              # %if.end110
	xorq	%rdi, %rdi
	xorq	%rdx, %rdx
	movq	%r15, %rsi
	jmp	.LBB11_20
.LBB11_30:                              # %if.then97
	xorq	%rdi, %rdi
	movq	%r15, %rsi
	jmp	.LBB11_19
.Ltmp117:
	.size	lookup_field, .Ltmp117-lookup_field
	.cfi_endproc

	.globl	build_indirect_ref
	.align	16, 0x90
	.type	build_indirect_ref,@function
build_indirect_ref:                     # @build_indirect_ref
	.cfi_startproc
# BB#0:                                 # %entry
	pushq	%r15
.Ltmp122:
	.cfi_def_cfa_offset 16
	pushq	%r14
.Ltmp123:
	.cfi_def_cfa_offset 24
	pushq	%rbx
.Ltmp124:
	.cfi_def_cfa_offset 32
.Ltmp125:
	.cfi_offset %rbx, -32
.Ltmp126:
	.cfi_offset %r14, -24
.Ltmp127:
	.cfi_offset %r15, -16
	movq	%rsi, %r14
	callq	default_conversion
	movq	%rax, %rbx
	movq	8(%rbx), %rax
	movzbl	16(%rax), %edx
	movzbl	16(%rbx), %ecx
	cmpq	$13, %rdx
	jne	.LBB12_18
# BB#1:                                 # %if.then
	cmpq	$121, %rcx
	jne	.LBB12_3
# BB#2:                                 # %if.then
	movl	flag_volatile(%rip), %ecx
	movabsq	$4294967295, %rdx       # imm = 0xFFFFFFFF
	testq	%rdx, %rcx
	jne	.LBB12_3
# BB#4:                                 # %land.lhs.true8
	movq	32(%rbx), %r14
	movq	8(%r14), %rcx
	movq	8(%rax), %r15
	cmpq	%r15, %rcx
	jne	.LBB12_5
	jmp	.LBB12_21
.LBB12_18:                              # %if.else83
	testq	%rcx, %rcx
	je	.LBB12_20
# BB#19:                                # %if.then89
	movabsq	$.L.str21, %rdi
	xorq	%rax, %rax
	movq	%r14, %rsi
	callq	error
.LBB12_20:                              # %if.end91
	movq	global_trees(%rip), %r14
	jmp	.LBB12_21
.LBB12_3:                               # %if.then.if.else_crit_edge
	movq	8(%rax), %r15
.LBB12_5:                               # %if.else
	movq	128(%r15), %rsi
	movq	$41, %rdi
	movq	%rbx, %rdx
	callq	build1
	cmpq	$0, 32(%r15)
	movl	16(%r15), %ecx
	movq	%rax, %r14
	jne	.LBB12_9
# BB#6:                                 # %lor.lhs.false
	movq	%rcx, %rax
	andq	$255, %rax
	cmpq	$5, %rax
	je	.LBB12_9
# BB#7:                                 # %lor.lhs.false
	cmpq	$18, %rax
	jne	.LBB12_8
.LBB12_9:                               # %if.end
	movq	%rcx, %rax
	andq	$255, %rax
	cmpq	$5, %rax
	jne	.LBB12_12
# BB#10:                                # %if.end
	movl	skip_evaluation(%rip), %eax
	movabsq	$4294967295, %rdx       # imm = 0xFFFFFFFF
	testq	%rdx, %rax
	jne	.LBB12_12
# BB#11:                                # %if.then43
	movabsq	$.L.str20, %rdi
	xorq	%rax, %rax
	callq	warning
	movl	16(%r15), %ecx
.LBB12_12:                              # %if.end44
	movl	16(%r14), %eax
	andq	$4096, %rcx             # imm = 0x1000
	andq	$-4097, %rax            # imm = 0xFFFFFFFFFFFFEFFF
	orq	%rcx, %rax
	movl	%eax, 16(%r14)
	movzbl	17(%r15), %ecx
	movq	$1, %rdx
	testq	$8, %rcx
	jne	.LBB12_17
# BB#13:                                # %lor.lhs.false57
	movzbl	17(%rbx), %ecx
	testq	$1, %rcx
	jne	.LBB12_17
# BB#14:                                # %lor.rhs
	movl	flag_volatile(%rip), %ecx
	testq	%rcx, %rcx
	je	.LBB12_15
# BB#16:                                # %lor.rhs
	movabsq	$1, %rdx
	jmp	.LBB12_17
.LBB12_8:                               # %if.then35
	movabsq	$.L.str19, %rdi
	xorq	%rax, %rax
	callq	error
	jmp	.LBB12_20
.LBB12_15:
	movabsq	$0, %rdx
.LBB12_17:                              # %lor.end
	movq	$8, %rcx
	shlq	%cl, %rdx
	andq	$-257, %rax             # imm = 0xFFFFFFFFFFFFFEFF
	orq	%rdx, %rax
	movl	%eax, 16(%r14)
	movl	16(%r15), %ecx
	andq	$2048, %rcx             # imm = 0x800
	movabsq	$4294965247, %rdx       # imm = 0xFFFFF7FF
	andq	%rax, %rdx
	orq	%rcx, %rdx
	movl	%edx, 16(%r14)
.LBB12_21:                              # %return
	movq	%r14, %rax
	popq	%rbx
	popq	%r14
	popq	%r15
	retq
.Ltmp128:
	.size	build_indirect_ref, .Ltmp128-build_indirect_ref
	.cfi_endproc

	.globl	build_array_ref
	.align	16, 0x90
	.type	build_array_ref,@function
build_array_ref:                        # @build_array_ref
	.cfi_startproc
# BB#0:                                 # %entry
	pushq	%r15
.Ltmp133:
	.cfi_def_cfa_offset 16
	pushq	%r14
.Ltmp134:
	.cfi_def_cfa_offset 24
	pushq	%rbx
.Ltmp135:
	.cfi_def_cfa_offset 32
.Ltmp136:
	.cfi_offset %rbx, -32
.Ltmp137:
	.cfi_offset %r14, -24
.Ltmp138:
	.cfi_offset %r15, -16
	movq	%rsi, %rbx
	movq	%rdi, %r15
	testq	%rbx, %rbx
	je	.LBB13_1
# BB#3:                                 # %if.end
	movq	8(%r15), %rcx
	movq	global_trees(%rip), %rdx
	cmpq	%rdx, %rcx
	je	.LBB13_69
# BB#4:                                 # %lor.lhs.false
	movq	8(%rbx), %rax
	cmpq	%rdx, %rax
	je	.LBB13_69
# BB#5:                                 # %if.end6
	movzbl	16(%rcx), %ecx
	cmpq	$18, %rcx
	jne	.LBB13_53
# BB#6:                                 # %land.lhs.true
	movzbl	16(%r15), %ecx
	cmpq	$41, %rcx
	jne	.LBB13_7
.LBB13_53:                              # %if.end192
	movq	%r15, %rdi
	callq	default_conversion
	movq	%rax, %r14
	movq	%rbx, %rdi
	callq	default_conversion
	movl	warn_char_subscripts(%rip), %ecx
	movq	%rax, %r15
	testq	%rcx, %rcx
	je	.LBB13_57
# BB#54:                                # %land.lhs.true196
	movq	8(%rbx), %rax
	movzbl	16(%rax), %ecx
	cmpq	$6, %rcx
	jne	.LBB13_57
# BB#55:                                # %land.lhs.true204
	movq	128(%rax), %rax
	movq	integer_types(%rip), %rcx
	cmpq	%rcx, %rax
	jne	.LBB13_57
# BB#56:                                # %if.then210
	movabsq	$.L.str27, %rdi
	xorq	%rax, %rax
	callq	warning
.LBB13_57:                              # %if.end211
	movq	8(%r14), %rax
	movzbl	16(%rax), %eax
	cmpq	$6, %rax
	movq	%r15, %rdx
	je	.LBB13_59
# BB#58:                                # %if.end211
	movq	%r14, %rdx
.LBB13_59:                              # %if.end211
	je	.LBB13_61
# BB#60:                                # %if.end211
	movq	%r15, %r14
.LBB13_61:                              # %if.end211
	movq	global_trees(%rip), %rax
	cmpq	%rax, %rdx
	je	.LBB13_69
# BB#62:                                # %if.end223
	movq	8(%rdx), %rax
	movzbl	16(%rax), %ecx
	cmpq	$13, %rcx
	jne	.LBB13_64
# BB#63:                                # %lor.lhs.false231
	movq	8(%rax), %rax
	movzbl	16(%rax), %eax
	cmpq	$23, %rax
	jne	.LBB13_65
.LBB13_64:                              # %if.then241
	movabsq	$.L.str28, %rdi
	jmp	.LBB13_2
.LBB13_1:                               # %if.then
	movabsq	$.L.str22, %rdi
.LBB13_2:                               # %return
	xorq	%rax, %rax
	callq	error
.LBB13_68:                              # %if.then61
	movq	global_trees(%rip), %rdx
.LBB13_69:                              # %return
	movq	%rdx, %rax
	popq	%rbx
	popq	%r14
	popq	%r15
	retq
.LBB13_7:                               # %if.then16
	movl	warn_char_subscripts(%rip), %ecx
	testq	%rcx, %rcx
	je	.LBB13_10
# BB#8:                                 # %land.lhs.true18
	movq	128(%rax), %rax
	movq	integer_types(%rip), %rcx
	cmpq	%rcx, %rax
	jne	.LBB13_10
# BB#9:                                 # %if.then23
	movabsq	$.L.str23, %rdi
	xorq	%rax, %rax
	callq	warning
.LBB13_10:                              # %if.end24
	movq	%rbx, %rdi
	callq	default_conversion
	movq	%rax, %r14
	movq	8(%r14), %rax
	movzbl	16(%rax), %eax
	cmpq	$6, %rax
	jne	.LBB13_11
# BB#12:                                # %if.end33
	movl	16(%r14), %eax
	movq	%rax, %rcx
	andq	$255, %rcx
	cmpq	$25, %rcx
	jne	.LBB13_15
# BB#13:                                # %lor.lhs.false39
	movq	8(%r15), %rcx
	movq	8(%rcx), %rcx
	movq	32(%rcx), %rcx
	testq	%rcx, %rcx
	je	.LBB13_17
# BB#14:                                # %land.lhs.true46
	movzbl	16(%rcx), %ecx
	cmpq	$25, %rcx
	je	.LBB13_17
.LBB13_15:                              # %if.then58
	movq	%r15, %rdi
	callq	mark_addressable
	movabsq	$4294967295, %rcx       # imm = 0xFFFFFFFF
	testq	%rcx, %rax
	je	.LBB13_68
# BB#16:                                # %if.then58.if.end63_crit_edge
	movl	16(%r14), %eax
.LBB13_17:                              # %if.end63
	andq	$255, %rax
	cmpq	$25, %rax
	jne	.LBB13_21
# BB#18:                                # %land.lhs.true69
	movq	8(%r15), %rax
	movq	24(%rax), %rsi
	testq	%rsi, %rsi
	je	.LBB13_21
# BB#19:                                # %land.lhs.true74
	movq	%r14, %rdi
	callq	int_fits_type_p
	movabsq	$4294967295, %rbx       # imm = 0xFFFFFFFF
	testq	%rbx, %rax
	jne	.LBB13_21
# BB#20:                                # %if.then81
	movq	%r15, %rdi
	callq	mark_addressable
	testq	%rbx, %rax
	je	.LBB13_68
.LBB13_21:                              # %if.end86
	movl	pedantic(%rip), %eax
	testq	%rax, %rax
	je	.LBB13_49
# BB#22:
	movq	%r15, %rax
	jmp	.LBB13_23
	.align	16, 0x90
.LBB13_25:                              # %while.body
                                        #   in Loop: Header=BB13_23 Depth=1
	movq	32(%rax), %rax
.LBB13_23:                              # %while.cond
                                        # =>This Inner Loop Header: Depth=1
	movl	16(%rax), %ecx
	movq	%rcx, %rdx
	andq	$255, %rdx
	cmpq	$34, %rdx
	je	.LBB13_26
# BB#24:                                # %while.cond
                                        #   in Loop: Header=BB13_23 Depth=1
	cmpq	$39, %rdx
	je	.LBB13_25
	jmp	.LBB13_28
.LBB13_65:                              # %if.end242
	movq	8(%r14), %rax
	movzbl	16(%rax), %eax
	cmpq	$6, %rax
	jne	.LBB13_11
# BB#66:                                # %if.end251
	movq	$59, %rdi
	xorq	%rcx, %rcx
	movq	%rdx, %rsi
	movq	%r14, %rdx
	callq	build_binary_op
	movabsq	$.L.str29, %rsi
	movq	%rax, %rdi
	popq	%rbx
	popq	%r14
	popq	%r15
	jmp	build_indirect_ref  # TAILCALL
.LBB13_11:                              # %if.then32
	movabsq	$.L.str24, %rdi
	jmp	.LBB13_2
.LBB13_26:                              # %land.lhs.true99
	movzbl	49(%rax), %edx
	testq	$4, %rdx
	je	.LBB13_28
# BB#27:                                # %if.then103
	movabsq	$.L.str25, %rdi
	jmp	.LBB13_48
.LBB13_28:                              # %if.else
	movl	flag_isoc99(%rip), %edx
	testq	%rdx, %rdx
	jne	.LBB13_49
# BB#29:
	movabsq	$11115375362048, %rdx   # imm = 0xA1C00000000
	movabsq	$4294967295, %rsi       # imm = 0xFFFFFFFF
	jmp	.LBB13_30
.LBB13_41:                              # %sw.bb.i
                                        #   in Loop: Header=BB13_30 Depth=1
	movq	32(%rax), %rax
	movl	16(%rax), %ecx
.LBB13_30:                              # %tailrecurse.i
                                        # =>This Inner Loop Header: Depth=1
	andq	$255, %rcx
	cmpq	$169, %rcx
	jg	.LBB13_44
# BB#31:                                # %tailrecurse.i
                                        #   in Loop: Header=BB13_30 Depth=1
	cmpq	$28, %rcx
	jle	.LBB13_32
# BB#35:                                # %tailrecurse.i
                                        #   in Loop: Header=BB13_30 Depth=1
	cmpq	$119, %rcx
	jg	.LBB13_42
# BB#36:                                # %tailrecurse.i
                                        #   in Loop: Header=BB13_30 Depth=1
	cmpq	$51, %rcx
	jg	.LBB13_45
# BB#37:                                # %tailrecurse.i
                                        #   in Loop: Header=BB13_30 Depth=1
	cmpq	$43, %rcx
	ja	.LBB13_47
# BB#38:                                # %tailrecurse.i
                                        #   in Loop: Header=BB13_30 Depth=1
	movq	$1, %rdi
	shlq	%cl, %rdi
	testq	%rdx, %rdi
	jne	.LBB13_33
# BB#39:                                # %tailrecurse.i
                                        #   in Loop: Header=BB13_30 Depth=1
	cmpq	$29, %rcx
	je	.LBB13_49
# BB#40:                                # %tailrecurse.i
                                        #   in Loop: Header=BB13_30 Depth=1
	cmpq	$39, %rcx
	je	.LBB13_41
	jmp	.LBB13_47
.LBB13_42:                              # %tailrecurse.i
                                        #   in Loop: Header=BB13_30 Depth=1
	leaq	-127(%rcx), %rdi
	andq	%rsi, %rdi
	cmpq	$2, %rdi
	jb	.LBB13_41
# BB#43:                                # %tailrecurse.i
	cmpq	$120, %rcx
	je	.LBB13_46
	jmp	.LBB13_47
.LBB13_44:                              # %tailrecurse.i
	cmpq	$170, %rcx
	jne	.LBB13_47
	jmp	.LBB13_49
.LBB13_32:                              # %tailrecurse.i
	testq	%rcx, %rcx
	jne	.LBB13_47
.LBB13_33:                              # %sw.bb3.i
	movq	8(%rax), %rax
	movzbl	16(%rax), %eax
	cmpq	$16, %rax
	je	.LBB13_47
# BB#34:                                # %sw.bb3.i
	cmpq	$23, %rax
	je	.LBB13_47
	jmp	.LBB13_49
.LBB13_45:                              # %tailrecurse.i
	cmpq	$52, %rcx
	jne	.LBB13_47
.LBB13_46:                              # %lvalue_p.exit
	movq	8(%rax), %rax
	movzbl	16(%rax), %eax
	cmpq	$18, %rax
	je	.LBB13_49
.LBB13_47:                              # %if.then108
	movabsq	$.L.str26, %rdi
.LBB13_48:                              # %if.end111
	xorq	%rax, %rax
	callq	pedwarn
.LBB13_49:                              # %if.end111
	movq	8(%r15), %rax
	movq	8(%rax), %rax
	movq	128(%rax), %rsi
	movq	$43, %rdi
	xorq	%rax, %rax
	movq	%r15, %rdx
	movq	%r14, %rcx
	callq	build
	movq	8(%r15), %rcx
	movq	8(%rcx), %rcx
	movl	16(%rcx), %ecx
	movl	16(%r15), %edx
	movl	16(%rax), %esi
	orq	%rcx, %rdx
	andq	$4096, %rdx             # imm = 0x1000
	orq	%rsi, %rdx
	movl	%edx, 16(%rax)
	movq	8(%r15), %rcx
	movq	8(%rcx), %rcx
	movl	16(%rcx), %edi
	movl	16(%r15), %ebx
	movq	$3, %rcx
	shrq	%cl, %rdi
	orq	%rsi, %rbx
	orq	%rdi, %rbx
	andq	$256, %rbx              # imm = 0x100
	andq	$-257, %rdx             # imm = 0xFFFFFFFFFFFFFEFF
	orq	%rbx, %rdx
	movl	%edx, 16(%rax)
	movq	8(%r15), %rcx
	movq	8(%rcx), %rcx
	movl	16(%rcx), %ecx
	movl	16(%r15), %edi
	orq	%rsi, %rcx
	orq	%rdi, %rcx
	andq	$2048, %rcx             # imm = 0x800
	movabsq	$4294965247, %rsi       # imm = 0xFFFFF7FF
	andq	%rdx, %rsi
	orq	%rcx, %rsi
	movl	%esi, 16(%rax)
	movq	%rax, %rdi
	callq	fold
	movq	global_trees(%rip), %rdx
	cmpq	%rax, %rdx
	je	.LBB13_69
# BB#50:                                # %if.end111
	movq	8(%rax), %rsi
	cmpq	%rdx, %rsi
	je	.LBB13_69
# BB#51:                                # %if.end.i
	cmpq	$0, 32(%rsi)
	je	.LBB13_67
# BB#52:
	movq	%rax, %rdx
	jmp	.LBB13_69
.LBB13_67:                              # %if.end6.i
	movq	%rax, %rdi
	callq	incomplete_type_error
	jmp	.LBB13_68
.Ltmp139:
	.size	build_array_ref, .Ltmp139-build_array_ref
	.cfi_endproc

	.globl	mark_addressable
	.align	16, 0x90
	.type	mark_addressable,@function
mark_addressable:                       # @mark_addressable
	.cfi_startproc
# BB#0:                                 # %entry
	pushq	%r14
.Ltmp143:
	.cfi_def_cfa_offset 16
	pushq	%rbx
.Ltmp144:
	.cfi_def_cfa_offset 24
	pushq	%rax
.Ltmp145:
	.cfi_def_cfa_offset 32
.Ltmp146:
	.cfi_offset %rbx, -24
.Ltmp147:
	.cfi_offset %r14, -16
	movq	%rdi, %rbx
	movabsq	$4294967295, %rdx       # imm = 0xFFFFFFFF
	movq	$1, %r14
	jmp	.LBB14_1
	.align	16, 0x90
.LBB14_7:                               # %sw.bb8
                                        #   in Loop: Header=BB14_1 Depth=1
	movq	32(%rbx), %rbx
.LBB14_1:                               # %while.body
                                        # =>This Inner Loop Header: Depth=1
	movl	16(%rbx), %eax
	movq	%rax, %rcx
	andq	$255, %rcx
	cmpq	$169, %rcx
	jg	.LBB14_8
# BB#2:                                 # %while.body
                                        #   in Loop: Header=BB14_1 Depth=1
	cmpq	$120, %rcx
	jg	.LBB14_5
# BB#3:                                 # %while.body
                                        #   in Loop: Header=BB14_1 Depth=1
	addq	$-30, %rcx
	andq	%rdx, %rcx
	cmpq	$16, %rcx
	ja	.LBB14_27
# BB#4:                                 # %while.body
                                        #   in Loop: Header=BB14_1 Depth=1
	jmpq	*.LJTI14_0(,%rcx,8)
.LBB14_9:                               # %sw.bb
                                        #   in Loop: Header=BB14_1 Depth=1
	movq	40(%rbx), %rax
	movzbl	53(%rax), %ecx
	testq	$2, %rcx
	je	.LBB14_7
	jmp	.LBB14_10
	.align	16, 0x90
.LBB14_5:                               # %while.body
                                        #   in Loop: Header=BB14_1 Depth=1
	addq	$-121, %rcx
	andq	%rdx, %rcx
	cmpq	$7, %rcx
	ja	.LBB14_27
# BB#6:                                 # %while.body
                                        #   in Loop: Header=BB14_1 Depth=1
	movq	$1, %rax
	shlq	%cl, %rax
	testq	$193, %rax
	jne	.LBB14_7
	jmp	.LBB14_27
.LBB14_8:                               # %while.body
	cmpq	$170, %rcx
	je	.LBB14_26
	jmp	.LBB14_27
.LBB14_11:                              # %sw.bb16
	movq	48(%rbx), %rcx
	testq	$1024, %rcx             # imm = 0x400
	je	.LBB14_25
# BB#12:                                # %land.lhs.true
	testq	$1024, %rax             # imm = 0x400
	jne	.LBB14_18
# BB#13:                                # %land.lhs.true
	andq	$512, %rcx              # imm = 0x200
	je	.LBB14_18
# BB#14:                                # %if.then35
	movq	72(%rbx), %rcx
	movq	32(%rcx), %rsi
	testq	$524288, %rax           # imm = 0x80000
	je	.LBB14_17
# BB#15:                                # %if.then41
	movabsq	$.L.str86, %rdi
	jmp	.LBB14_16
.LBB14_18:                              # %land.lhs.true60
	testq	$1024, %rax             # imm = 0x400
	jne	.LBB14_25
# BB#19:                                # %if.then67
	testq	$524288, %rax           # imm = 0x80000
	je	.LBB14_21
# BB#20:                                # %if.then74
	movq	72(%rbx), %rax
	movq	32(%rax), %rsi
	movabsq	$.L.str88, %rdi
	jmp	.LBB14_16
.LBB14_10:                              # %if.then
	movq	72(%rax), %rax
	movq	32(%rax), %rsi
	movabsq	$.L.str85, %rdi
.LBB14_16:                              # %return
	xorq	%rax, %rax
	xorq	%r14, %r14
	callq	error
	jmp	.LBB14_27
.LBB14_17:                              # %if.end47
	movabsq	$.L.str87, %rdi
.LBB14_24:                              # %if.end96
	xorq	%rax, %rax
	callq	pedwarn
.LBB14_25:                              # %if.end96
	movq	%rbx, %rdi
	callq	put_var_into_stack
	movl	16(%rbx), %eax
.LBB14_26:                              # %sw.bb97
	orq	$1024, %rax             # imm = 0x400
	movl	%eax, 16(%rbx)
.LBB14_27:                              # %return
	movq	%r14, %rax
	addq	$8, %rsp
	popq	%rbx
	popq	%r14
	retq
.LBB14_21:                              # %if.else80
	movq	8(%rbx), %rax
	movzbl	19(%rax), %eax
	testq	$4, %rax
	je	.LBB14_23
# BB#22:                                # %if.then87
	movabsq	$.L.str89, %rdi
	xorq	%rax, %rax
	xorq	%r14, %r14
	callq	error
	jmp	.LBB14_27
.LBB14_23:                              # %if.end89
	movq	72(%rbx), %rax
	movq	32(%rax), %rsi
	movabsq	$.L.str90, %rdi
	jmp	.LBB14_24
.Ltmp148:
	.size	mark_addressable, .Ltmp148-mark_addressable
	.cfi_endproc
	.section	.rodata,"a",@progbits
	.align	8
.LJTI14_0:
	.quad	.LBB14_26
	.quad	.LBB14_27
	.quad	.LBB14_11
	.quad	.LBB14_27
	.quad	.LBB14_11
	.quad	.LBB14_11
	.quad	.LBB14_11
	.quad	.LBB14_27
	.quad	.LBB14_27
	.quad	.LBB14_9
	.quad	.LBB14_27
	.quad	.LBB14_27
	.quad	.LBB14_27
	.quad	.LBB14_7
	.quad	.LBB14_27
	.quad	.LBB14_27
	.quad	.LBB14_26

	.text
	.globl	lvalue_p
	.align	16, 0x90
	.type	lvalue_p,@function
lvalue_p:                               # @lvalue_p
	.cfi_startproc
# BB#0:                                 # %entry
	movabsq	$11115375362048, %r8    # imm = 0xA1C00000000
	movabsq	$4294967295, %rsi       # imm = 0xFFFFFFFF
	xorq	%rax, %rax
	jmp	.LBB15_1
.LBB15_15:                              # %sw.bb
                                        #   in Loop: Header=BB15_1 Depth=1
	movq	32(%rdi), %rdi
	.align	16, 0x90
.LBB15_1:                               # %tailrecurse
                                        # =>This Inner Loop Header: Depth=1
	movzbl	16(%rdi), %ecx
	cmpq	$169, %rcx
	jg	.LBB15_22
# BB#2:                                 # %tailrecurse
                                        #   in Loop: Header=BB15_1 Depth=1
	cmpq	$28, %rcx
	jle	.LBB15_3
# BB#9:                                 # %tailrecurse
                                        #   in Loop: Header=BB15_1 Depth=1
	cmpq	$119, %rcx
	jg	.LBB15_16
# BB#10:                                # %tailrecurse
                                        #   in Loop: Header=BB15_1 Depth=1
	cmpq	$51, %rcx
	jg	.LBB15_18
# BB#11:                                # %tailrecurse
                                        #   in Loop: Header=BB15_1 Depth=1
	cmpq	$43, %rcx
	ja	.LBB15_24
# BB#12:                                # %tailrecurse
                                        #   in Loop: Header=BB15_1 Depth=1
	movq	$1, %rdx
	shlq	%cl, %rdx
	testq	%r8, %rdx
	jne	.LBB15_4
# BB#13:                                # %tailrecurse
                                        #   in Loop: Header=BB15_1 Depth=1
	cmpq	$29, %rcx
	je	.LBB15_23
# BB#14:                                # %tailrecurse
                                        #   in Loop: Header=BB15_1 Depth=1
	cmpq	$39, %rcx
	je	.LBB15_15
	jmp	.LBB15_24
.LBB15_16:                              # %tailrecurse
                                        #   in Loop: Header=BB15_1 Depth=1
	leaq	-127(%rcx), %rdx
	andq	%rsi, %rdx
	cmpq	$2, %rdx
	jb	.LBB15_15
# BB#17:                                # %tailrecurse
	cmpq	$120, %rcx
	je	.LBB15_19
	jmp	.LBB15_24
.LBB15_22:                              # %tailrecurse
	cmpq	$170, %rcx
	jne	.LBB15_24
.LBB15_23:                              # %return.loopexit
	movq	$1, %rax
	jmp	.LBB15_24
.LBB15_3:                               # %tailrecurse
	testq	%rcx, %rcx
	jne	.LBB15_24
.LBB15_4:                               # %sw.bb3
	movq	8(%rdi), %rax
	movzbl	16(%rax), %esi
	cmpq	$16, %rsi
	movabsq	$0, %rcx
	movabsq	$1, %rdx
	movq	%rcx, %rax
	je	.LBB15_6
# BB#5:                                 # %sw.bb3
	movq	%rdx, %rax
.LBB15_6:                               # %sw.bb3
	cmpq	$23, %rsi
	je	.LBB15_8
# BB#7:                                 # %sw.bb3
	movq	%rdx, %rcx
.LBB15_8:                               # %sw.bb3
	andq	%rcx, %rax
	retq
.LBB15_18:                              # %tailrecurse
	cmpq	$52, %rcx
	jne	.LBB15_24
.LBB15_19:                              # %sw.bb16
	movq	8(%rdi), %rax
	movzbl	16(%rax), %eax
	cmpq	$18, %rax
	jne	.LBB15_20
# BB#21:                                # %sw.bb16
	movabsq	$1, %rax
	retq
.LBB15_24:                              # %return
	retq
.LBB15_20:
	movabsq	$0, %rax
	retq
.Ltmp149:
	.size	lvalue_p, .Ltmp149-lvalue_p
	.cfi_endproc

	.globl	build_binary_op
	.align	16, 0x90
	.type	build_binary_op,@function
build_binary_op:                        # @build_binary_op
	.cfi_startproc
# BB#0:                                 # %entry
	pushq	%r15
.Ltmp156:
	.cfi_def_cfa_offset 16
	pushq	%r14
.Ltmp157:
	.cfi_def_cfa_offset 24
	pushq	%r13
.Ltmp158:
	.cfi_def_cfa_offset 32
	pushq	%r12
.Ltmp159:
	.cfi_def_cfa_offset 40
	pushq	%rbx
.Ltmp160:
	.cfi_def_cfa_offset 48
	subq	$160, %rsp
.Ltmp161:
	.cfi_def_cfa_offset 208
.Ltmp162:
	.cfi_offset %rbx, -48
.Ltmp163:
	.cfi_offset %r12, -40
.Ltmp164:
	.cfi_offset %r13, -32
.Ltmp165:
	.cfi_offset %r14, -24
.Ltmp166:
	.cfi_offset %r15, -16
	movq	%rdx, %r13
	movq	%rsi, %r15
	movq	%rdi, %r12
	movabsq	$4294967295, %r8        # imm = 0xFFFFFFFF
	testq	%r8, %rcx
	movq	%r13, %rcx
	movq	%r15, %rbx
	je	.LBB16_2
# BB#1:                                 # %if.then
	movq	%r15, %rdi
	movq	%r8, %r14
	callq	default_conversion
	movq	%rax, %rbx
	movq	%r13, %rdi
	callq	default_conversion
	movq	%r14, %r8
	movq	%rax, %rcx
.LBB16_2:                               # %if.end
	movq	%r13, 88(%rsp)          # 8-byte Spill
	movq	%r15, 96(%rsp)          # 8-byte Spill
	movq	8(%rbx), %r15
	movq	8(%rcx), %rdi
	movl	16(%r15), %r9d
	movl	16(%rdi), %r11d
	movq	global_trees(%rip), %rax
	andq	$255, %r9
	movq	%r11, %r10
	andq	$255, %r10
	.align	16, 0x90
.LBB16_3:                               # %while.cond
                                        # =>This Inner Loop Header: Depth=1
	movq	%rbx, %r14
	movzbl	16(%r14), %edx
	addq	$-114, %rdx
	andq	%r8, %rdx
	cmpq	$2, %rdx
	ja	.LBB16_6
# BB#4:                                 # %land.lhs.true
                                        #   in Loop: Header=BB16_3 Depth=1
	movq	32(%r14), %rbx
	cmpq	%rax, %rbx
	je	.LBB16_6
# BB#5:                                 # %land.rhs
                                        #   in Loop: Header=BB16_3 Depth=1
	movq	8(%rbx), %rdx
	cmpq	%rdx, %r15
	je	.LBB16_3
	.align	16, 0x90
.LBB16_6:                               # %while.cond38
                                        # =>This Inner Loop Header: Depth=1
	movq	%rcx, %r13
	movzbl	16(%r13), %edx
	leaq	-114(%rdx), %rcx
	andq	%r8, %rcx
	cmpq	$2, %rcx
	ja	.LBB16_9
# BB#7:                                 # %land.lhs.true56
                                        #   in Loop: Header=BB16_6 Depth=1
	movq	32(%r13), %rcx
	cmpq	%rax, %rcx
	je	.LBB16_9
# BB#8:                                 # %land.rhs61
                                        #   in Loop: Header=BB16_6 Depth=1
	movq	8(%rcx), %rsi
	cmpq	%rsi, %rdi
	je	.LBB16_6
.LBB16_9:                               # %while.end75
	testq	%r9, %r9
	je	.LBB16_434
# BB#10:                                # %while.end75
	testq	%r10, %r10
	je	.LBB16_434
# BB#11:                                # %if.end80
	movq	%rdi, 40(%rsp)          # 8-byte Spill
	movq	$0, 56(%rsp)            # 8-byte Folded Spill
	movq	$0, 48(%rsp)            # 8-byte Folded Spill
	movq	%r12, %rsi
	leaq	-59(%rsi), %rax
	andq	%r8, %rax
	cmpq	$50, %rax
	ja	.LBB16_12
# BB#13:                                # %if.end80
	xorq	%r12, %r12
	movq	$0, 64(%rsp)            # 8-byte Folded Spill
	movq	$0, 80(%rsp)            # 8-byte Folded Spill
	movabsq	$0, %rcx
	movq	%rcx, 72(%rsp)          # 8-byte Spill
	xorq	%rbx, %rbx
	xorq	%rdi, %rdi
	movq	%rsi, %rcx
	jmpq	*.LJTI16_0(,%rax,8)
.LBB16_290:                             # %sw.bb667
	cmpq	$7, %r9
	jne	.LBB16_292
# BB#291:                               # %sw.bb667
	cmpq	$7, %r10
	jne	.LBB16_292
# BB#293:                               # %if.end674
	xorq	%r12, %r12
	movq	$1, 48(%rsp)            # 8-byte Folded Spill
	movq	integer_types+40(%rip), %rax
	movq	%rax, 72(%rsp)          # 8-byte Spill
	movq	$0, 64(%rsp)            # 8-byte Folded Spill
	jmp	.LBB16_294
.LBB16_62:                              # %sw.bb114
	movl	warn_div_by_zero(%rip), %eax
	testq	%rax, %rax
	je	.LBB16_66
# BB#63:                                # %sw.bb114
	movl	skip_evaluation(%rip), %eax
	testq	%r8, %rax
	jne	.LBB16_66
# BB#64:                                # %land.lhs.true118
	movq	%r13, %rdi
	movq	%rsi, %rbx
	movq	%r9, %r12
	movq	%r10, 8(%rsp)           # 8-byte Spill
	movq	%r11, 16(%rsp)          # 8-byte Spill
	callq	integer_zerop
	movq	16(%rsp), %r11          # 8-byte Reload
	movq	8(%rsp), %r10           # 8-byte Reload
	movq	%r12, %r9
	movq	%rbx, %rsi
	movq	$0, 56(%rsp)            # 8-byte Folded Spill
	movabsq	$4294967295, %r8        # imm = 0xFFFFFFFF
	testq	%r8, %rax
	je	.LBB16_66
# BB#65:                                # %if.then121
	movabsq	$.L.str45, %rdi
	xorq	%rax, %rax
	movq	%r8, %rbx
	movq	%rsi, 32(%rsp)          # 8-byte Spill
	movq	%r9, %r12
	callq	warning
	movq	16(%rsp), %r11          # 8-byte Reload
	movq	8(%rsp), %r10           # 8-byte Reload
	movq	%r12, %r9
	movq	32(%rsp), %rsi          # 8-byte Reload
	movq	%rbx, %r8
	movq	$0, 56(%rsp)            # 8-byte Folded Spill
.LBB16_66:                              # %if.end122
	movl	16(%r15), %eax
	andq	$254, %rax
	cmpq	$6, %rax
	je	.LBB16_68
# BB#67:                                # %if.end122
	cmpq	$8, %r9
	jne	.LBB16_221
.LBB16_68:                              # %land.lhs.true128
	movq	%r11, %rax
	andq	$254, %rax
	cmpq	$6, %rax
	je	.LBB16_70
# BB#69:                                # %land.lhs.true128
	cmpq	$8, %r10
	jne	.LBB16_221
.LBB16_70:                              # %if.then134
	xorq	%r12, %r12
	cmpq	$6, %r9
	movq	$70, %rcx
	jne	.LBB16_71
# BB#73:                                # %if.then134
	cmpq	$6, %r10
	jne	.LBB16_71
# BB#74:                                # %if.else139
	movq	%r8, %rbx
	movq	96(%rsp), %rax          # 8-byte Reload
	movq	8(%rax), %rax
	movzbl	17(%rax), %eax
	movq	$1, 48(%rsp)            # 8-byte Folded Spill
	testq	$32, %rax
	movq	$1, 80(%rsp)            # 8-byte Folded Spill
	jne	.LBB16_80
# BB#75:                                # %lor.rhs
	movzbl	16(%r13), %eax
	movq	$0, 80(%rsp)            # 8-byte Folded Spill
	cmpq	$25, %rax
	jne	.LBB16_80
# BB#76:                                # %land.rhs151
	movq	%r11, 16(%rsp)          # 8-byte Spill
	movq	%r10, 8(%rsp)           # 8-byte Spill
	movq	%r9, (%rsp)             # 8-byte Spill
	movq	%rsi, %r12
	movq	%r13, %rdi
	callq	integer_all_onesp
	testq	%rbx, %rax
	je	.LBB16_78
# BB#77:
	movabsq	$0, %rax
	jmp	.LBB16_79
.LBB16_98:                              # %sw.bb198
	cmpq	$13, %r9
	ja	.LBB16_221
# BB#99:                                # %sw.bb198
	movq	$1, %rax
	movq	%r9, %rcx
	shlq	%cl, %rax
	testq	$8640, %rax             # imm = 0x21C0
	je	.LBB16_221
# BB#100:                               # %land.lhs.true206
	cmpq	$13, %r10
	ja	.LBB16_221
# BB#101:                               # %land.lhs.true206
	movq	%r11, 16(%rsp)          # 8-byte Spill
	movq	%r9, (%rsp)             # 8-byte Spill
	movq	%rsi, 32(%rsp)          # 8-byte Spill
	movq	$1, %rax
	movq	%r10, %rcx
	shlq	%cl, %rax
	testq	$8640, %rax             # imm = 0x21C0
	je	.LBB16_102
# BB#105:                               # %if.then214
	movq	integer_types+40(%rip), %rbx
	movq	%r14, %rdi
	movq	%r10, %r12
	callq	truthvalue_conversion
	movq	%rax, %r14
	movq	%r13, %rdi
	callq	truthvalue_conversion
	movq	%rbx, %rdi
	movq	$1, %rbx
	movq	%r12, %r10
	movq	%rax, %r13
	movq	$0, 48(%rsp)            # 8-byte Folded Spill
	xorq	%r12, %r12
	movq	$0, 64(%rsp)            # 8-byte Folded Spill
	movq	$0, 80(%rsp)            # 8-byte Folded Spill
	jmp	.LBB16_103
.LBB16_83:                              # %sw.bb157
	cmpq	$6, %r9
	movabsq	$0, %rax
	movabsq	$1, %rcx
	movq	%rax, %rdx
	jne	.LBB16_85
# BB#84:                                # %sw.bb157
	movq	%rcx, %rdx
.LBB16_85:                              # %sw.bb157
	cmpq	$6, %r10
	jne	.LBB16_87
# BB#86:                                # %sw.bb157
	movq	%rcx, %rax
.LBB16_87:                              # %sw.bb157
	andq	%rax, %rdx
	movq	$63, %rcx
	shlq	%cl, %rdx
	movq	$63, %rcx
	sarq	%cl, %rdx
	movq	%rdx, 80(%rsp)          # 8-byte Spill
	movq	$0, 48(%rsp)            # 8-byte Folded Spill
	jmp	.LBB16_218
.LBB16_238:                             # %sw.bb548
	movq	integer_types+40(%rip), %rcx
	movl	16(%r15), %eax
	andq	$254, %rax
	cmpq	$6, %rax
	jne	.LBB16_241
# BB#239:                               # %sw.bb548
	movq	%r11, %rax
	andq	$254, %rax
	cmpq	$6, %rax
	jne	.LBB16_241
# BB#240:
	movq	%rcx, 72(%rsp)          # 8-byte Spill
	movq	$0, 48(%rsp)            # 8-byte Folded Spill
	movq	$1, 64(%rsp)            # 8-byte Folded Spill
	xorq	%r12, %r12
	jmp	.LBB16_294
.LBB16_292:                             # %if.then673
	movabsq	$.L.str59, %rdi
	xorq	%rax, %rax
	callq	error
	movq	global_trees(%rip), %rax
	jmp	.LBB16_434
.LBB16_88:                              # %sw.bb163
	movl	warn_div_by_zero(%rip), %eax
	testq	%rax, %rax
	je	.LBB16_92
# BB#89:                                # %sw.bb163
	movl	skip_evaluation(%rip), %eax
	testq	%r8, %rax
	jne	.LBB16_92
# BB#90:                                # %land.lhs.true167
	movq	%r13, %rdi
	movq	%rsi, %rbx
	movq	%r9, %r12
	movq	%r10, 8(%rsp)           # 8-byte Spill
	movq	%r11, 16(%rsp)          # 8-byte Spill
	callq	integer_zerop
	movq	16(%rsp), %r11          # 8-byte Reload
	movq	8(%rsp), %r10           # 8-byte Reload
	movq	%r12, %r9
	movq	%rbx, %rsi
	movq	$0, 56(%rsp)            # 8-byte Folded Spill
	movabsq	$4294967295, %r8        # imm = 0xFFFFFFFF
	testq	%r8, %rax
	je	.LBB16_92
# BB#91:                                # %if.then170
	movabsq	$.L.str45, %rdi
	xorq	%rax, %rax
	movq	%r8, %rbx
	movq	%rsi, 32(%rsp)          # 8-byte Spill
	movq	%r9, %r12
	callq	warning
	movq	16(%rsp), %r11          # 8-byte Reload
	movq	8(%rsp), %r10           # 8-byte Reload
	movq	%r12, %r9
	movq	32(%rsp), %rsi          # 8-byte Reload
	movq	%rbx, %r8
	movq	$0, 56(%rsp)            # 8-byte Folded Spill
.LBB16_92:                              # %if.end171
	cmpq	$6, %r9
	jne	.LBB16_221
# BB#93:                                # %if.end171
	cmpq	$6, %r10
	jne	.LBB16_221
# BB#94:                                # %if.then175
	movq	%r8, %rbx
	movq	96(%rsp), %rax          # 8-byte Reload
	movq	8(%rax), %rax
	movzbl	17(%rax), %eax
	movq	$1, 48(%rsp)            # 8-byte Folded Spill
	testq	$32, %rax
	movq	$1, 80(%rsp)            # 8-byte Folded Spill
	jne	.LBB16_80
# BB#95:                                # %lor.rhs184
	movzbl	16(%r13), %eax
	movq	$0, 80(%rsp)            # 8-byte Folded Spill
	cmpq	$25, %rax
	jne	.LBB16_80
# BB#96:                                # %land.rhs190
	movq	%r11, 16(%rsp)          # 8-byte Spill
	movq	%r10, 8(%rsp)           # 8-byte Spill
	movq	%r9, (%rsp)             # 8-byte Spill
	movq	%rsi, %r12
	movq	%r13, %rdi
	callq	integer_all_onesp
	testq	%rbx, %rax
	jne	.LBB16_97
.LBB16_78:                              # %land.rhs151
	movabsq	$1, %rax
	jmp	.LBB16_79
.LBB16_215:                             # %sw.bb508
	movl	16(%r15), %eax
	andq	$254, %rax
	cmpq	$6, %rax
	jne	.LBB16_220
# BB#216:                               # %sw.bb508
	movq	%r11, %rax
	andq	$254, %rax
	cmpq	$6, %rax
	jne	.LBB16_220
# BB#217:
	movq	$0, 48(%rsp)            # 8-byte Folded Spill
	movq	$1, 80(%rsp)            # 8-byte Folded Spill
.LBB16_218:                             # %sw.epilog
	xorq	%r12, %r12
	movq	$0, 64(%rsp)            # 8-byte Folded Spill
	movq	$0, 72(%rsp)            # 8-byte Folded Spill
	jmp	.LBB16_295
.LBB16_138:                             # %sw.bb308
	cmpq	$6, %r9
	jne	.LBB16_221
# BB#139:                               # %sw.bb308
	cmpq	$6, %r10
	jne	.LBB16_221
# BB#140:                               # %if.then314
	movq	%r10, 8(%rsp)           # 8-byte Spill
	cmpq	$25, %rdx
	jne	.LBB16_146
# BB#141:                               # %if.then314
	movl	skip_evaluation(%rip), %eax
	testq	%r8, %rax
	jne	.LBB16_146
# BB#142:                               # %if.then324
	movq	%r11, 16(%rsp)          # 8-byte Spill
	movq	%r9, (%rsp)             # 8-byte Spill
	movq	%rsi, %r12
	movq	%r8, %rbx
	movq	%r13, %rdi
	callq	tree_int_cst_sgn
	movq	$32, %rcx
	shlq	%cl, %rax
	movq	$32, %rcx
	sarq	%cl, %rax
	testq	%rax, %rax
	js	.LBB16_143
# BB#144:                               # %if.else329
	movl	60(%r15), %esi
	andq	$511, %rsi              # imm = 0x1FF
	movq	%r13, %rdi
	callq	compare_tree_int
	movq	$32, %rcx
	shlq	%cl, %rax
	movq	$32, %rcx
	sarq	%cl, %rax
	testq	%rax, %rax
	movq	%rbx, %r8
	movq	%r12, %rsi
	movabsq	$0, %rax
	movq	%rax, 56(%rsp)          # 8-byte Spill
	movq	(%rsp), %r9             # 8-byte Reload
	movq	16(%rsp), %r11          # 8-byte Reload
	js	.LBB16_146
# BB#145:                               # %if.then338
	movabsq	$.L.str51, %rdi
	xorq	%rax, %rax
	movq	%r8, %rbx
	movq	%rsi, 32(%rsp)          # 8-byte Spill
	movq	%r9, %r12
	callq	warning
	movq	16(%rsp), %r11          # 8-byte Reload
	movq	%r12, %r9
	movq	32(%rsp), %rsi          # 8-byte Reload
	movq	%rbx, %r8
	movq	$0, 56(%rsp)            # 8-byte Folded Spill
	jmp	.LBB16_146
.LBB16_151:                             # %sw.bb355
	movl	warn_float_equal(%rip), %eax
	testq	%rax, %rax
	je	.LBB16_155
# BB#152:                               # %land.lhs.true357
	cmpq	$7, %r9
	je	.LBB16_154
# BB#153:                               # %land.lhs.true357
	cmpq	$7, %r10
	jne	.LBB16_155
.LBB16_154:                             # %if.then363
	movabsq	$.L.str52, %rdi
	xorq	%rax, %rax
	movq	%rsi, 32(%rsp)          # 8-byte Spill
	movq	%r9, %r12
	movq	%r10, 8(%rsp)           # 8-byte Spill
	movq	%r11, %rbx
	callq	warning
	movq	%rbx, %r11
	movq	8(%rsp), %r10           # 8-byte Reload
	movq	%r12, %r9
	movq	32(%rsp), %rsi          # 8-byte Reload
	movabsq	$4294967295, %r8        # imm = 0xFFFFFFFF
	movq	$0, 56(%rsp)            # 8-byte Folded Spill
.LBB16_155:                             # %if.end364
	movq	integer_types+40(%rip), %rcx
	movl	16(%r15), %eax
	andq	$254, %rax
	cmpq	$6, %rax
	je	.LBB16_157
# BB#156:                               # %if.end364
	cmpq	$8, %r9
	jne	.LBB16_161
.LBB16_157:                             # %land.lhs.true373
	movq	%r11, %rax
	andq	$254, %rax
	cmpq	$6, %rax
	movq	$1, 64(%rsp)            # 8-byte Folded Spill
	je	.LBB16_158
# BB#160:                               # %land.lhs.true373
	cmpq	$8, %r10
	je	.LBB16_158
.LBB16_161:                             # %if.else383
	movq	%rcx, 72(%rsp)          # 8-byte Spill
	movq	%r8, %r12
	cmpq	$13, %r9
	jne	.LBB16_193
# BB#162:                               # %if.else383
	cmpq	$13, %r10
	jne	.LBB16_193
# BB#163:                               # %if.then389
	movq	%r11, 16(%rsp)          # 8-byte Spill
	movq	%r10, 8(%rsp)           # 8-byte Spill
	movq	%r9, (%rsp)             # 8-byte Spill
	movq	%rsi, 32(%rsp)          # 8-byte Spill
	movq	8(%r15), %rbx
	movq	40(%rsp), %rsi          # 8-byte Reload
	movq	8(%rsi), %rax
	movq	%rax, 80(%rsp)          # 8-byte Spill
	movq	$1, %rdx
	movq	%r15, %rdi
	callq	maybe_objc_comptypes
	movq	$32, %rcx
	movq	%rax, %rdx
	shlq	%cl, %rdx
	movq	$32, %rcx
	sarq	%cl, %rdx
	testq	%rdx, %rdx
	jns	.LBB16_166
# BB#164:                               # %if.end.i1686
	movq	%rbx, 64(%rsp)          # 8-byte Spill
	movq	8(%r15), %rax
	movq	40(%rsp), %rcx          # 8-byte Reload
	movq	8(%rcx), %rcx
	movq	128(%rax), %rdi
	movq	128(%rcx), %rsi
	callq	comptypes
	movq	%rax, %rcx
	movq	%r12, %rbx
	andq	%rbx, %rcx
	cmpq	$2, %rcx
	jne	.LBB16_165
# BB#170:                               # %if.end.i1686
	movl	pedantic(%rip), %ecx
	testq	%rbx, %rcx
	movq	%rbx, %r12
	movabsq	$0, %rcx
	movq	%rcx, 56(%rsp)          # 8-byte Spill
	movq	64(%rsp), %rbx          # 8-byte Reload
	je	.LBB16_166
# BB#171:                               # %comp_target_types.exit1689.thread
	movabsq	$.L.str182, %rdi
	xorq	%rax, %rax
	callq	pedwarn
	jmp	.LBB16_172
.LBB16_241:                             # %if.else561
	cmpq	$13, %r9
	jne	.LBB16_261
# BB#242:                               # %if.else561
	cmpq	$13, %r10
	jne	.LBB16_261
# BB#243:                               # %if.then567
	movq	%r11, 16(%rsp)          # 8-byte Spill
	movq	%r10, 8(%rsp)           # 8-byte Spill
	movq	%rcx, 72(%rsp)          # 8-byte Spill
	movq	%r9, (%rsp)             # 8-byte Spill
	movq	%rsi, 32(%rsp)          # 8-byte Spill
	movq	%r8, %rbx
	movq	$1, %rdx
	movq	%r15, %rdi
	movq	40(%rsp), %rsi          # 8-byte Reload
	callq	maybe_objc_comptypes
	movq	$32, %rcx
	movq	%rax, %rdx
	shlq	%cl, %rdx
	movq	$32, %rcx
	sarq	%cl, %rdx
	testq	%rdx, %rdx
	jns	.LBB16_247
# BB#244:                               # %if.end.i1710
	movq	8(%r15), %rax
	movq	40(%rsp), %rcx          # 8-byte Reload
	movq	8(%rcx), %rcx
	movq	128(%rax), %rdi
	movq	128(%rcx), %rsi
	callq	comptypes
	movq	%rax, %rcx
	andq	%rbx, %rcx
	cmpq	$2, %rcx
	jne	.LBB16_247
# BB#245:                               # %if.end.i1710
	movl	pedantic(%rip), %ecx
	testq	%rbx, %rcx
	je	.LBB16_247
# BB#246:                               # %comp_target_types.exit1713.thread
	movabsq	$.L.str182, %rdi
	xorq	%rax, %rax
	callq	pedwarn
	jmp	.LBB16_248
.LBB16_14:                              # %sw.bb
	cmpq	$13, %r9
	jne	.LBB16_18
# BB#15:                                # %sw.bb
	cmpq	$6, %r10
	jne	.LBB16_18
# BB#16:                                # %if.then84
	movq	$59, %rdi
	jmp	.LBB16_17
.LBB16_21:                              # %sw.bb95
	cmpq	$13, %r9
	jne	.LBB16_58
# BB#22:                                # %sw.bb95
	cmpq	$13, %r10
	jne	.LBB16_58
# BB#23:                                # %land.lhs.true99
	movq	%r11, 16(%rsp)          # 8-byte Spill
	movq	%r10, 8(%rsp)           # 8-byte Spill
	movq	%r9, (%rsp)             # 8-byte Spill
	movq	%rsi, %r12
	movq	%r8, %rbx
	movq	$1, %rdx
	movq	%r15, %rdi
	movq	40(%rsp), %rsi          # 8-byte Reload
	callq	maybe_objc_comptypes
	movq	$32, %rcx
	movq	%rax, %rdx
	shlq	%cl, %rdx
	movq	$32, %rcx
	sarq	%cl, %rdx
	testq	%rdx, %rdx
	jns	.LBB16_27
# BB#24:                                # %if.end.i
	movq	8(%r15), %rax
	movq	40(%rsp), %rcx          # 8-byte Reload
	movq	8(%rcx), %rcx
	movq	128(%rax), %rdi
	movq	128(%rcx), %rsi
	callq	comptypes
	movq	%rax, %rcx
	andq	%rbx, %rcx
	cmpq	$2, %rcx
	jne	.LBB16_27
# BB#25:                                # %if.end.i
	movl	pedantic(%rip), %ecx
	testq	%rbx, %rcx
	je	.LBB16_27
# BB#26:                                # %comp_target_types.exit.thread
	movabsq	$.L.str182, %rdi
	xorq	%rax, %rax
	callq	pedwarn
	movq	%rbx, %r8
	jmp	.LBB16_28
.LBB16_61:                              # %sw.bb113
	movq	$61, %rcx
	xorq	%r12, %r12
.LBB16_71:
	movq	$1, 48(%rsp)            # 8-byte Folded Spill
	jmp	.LBB16_72
.LBB16_124:                             # %sw.bb261
	cmpq	$6, %r9
	movq	$82, %rcx
	jne	.LBB16_125
# BB#126:                               # %sw.bb261
	cmpq	$6, %r10
	jne	.LBB16_125
# BB#127:                               # %if.then267
	movq	%r10, 8(%rsp)           # 8-byte Spill
	cmpq	$25, %rdx
	jne	.LBB16_133
# BB#128:                               # %if.then267
	movl	skip_evaluation(%rip), %eax
	testq	%r8, %rax
	jne	.LBB16_133
# BB#129:                               # %if.then277
	movq	%r11, 16(%rsp)          # 8-byte Spill
	movq	%r9, (%rsp)             # 8-byte Spill
	movq	%rsi, %r12
	movq	%r8, %rbx
	movq	%r13, %rdi
	callq	tree_int_cst_sgn
	movq	$32, %rcx
	shlq	%cl, %rax
	movq	$32, %rcx
	sarq	%cl, %rax
	testq	%rax, %rax
	js	.LBB16_130
# BB#131:                               # %if.else282
	movl	60(%r15), %esi
	andq	$511, %rsi              # imm = 0x1FF
	movq	%r13, %rdi
	callq	compare_tree_int
	movq	$32, %rcx
	shlq	%cl, %rax
	movq	$32, %rcx
	sarq	%cl, %rax
	testq	%rax, %rax
	movq	%rbx, %r8
	movq	%r12, %rsi
	movabsq	$0, %rax
	movq	%rax, 56(%rsp)          # 8-byte Spill
	movq	(%rsp), %r9             # 8-byte Reload
	movq	16(%rsp), %r11          # 8-byte Reload
	movq	$82, %rcx
	js	.LBB16_133
# BB#132:                               # %if.then291
	movabsq	$.L.str49, %rdi
	xorq	%rax, %rax
	movq	%r8, %rbx
	movq	%rsi, 32(%rsp)          # 8-byte Spill
	movq	%r9, %r12
	callq	warning
	movq	$82, %rcx
	movq	16(%rsp), %r11          # 8-byte Reload
	movq	%r12, %r9
	movq	32(%rsp), %rsi          # 8-byte Reload
	movq	%rbx, %r8
	movq	$0, 56(%rsp)            # 8-byte Folded Spill
	jmp	.LBB16_133
.LBB16_106:                             # %sw.bb218
	cmpq	$6, %r9
	movq	$83, %rcx
	jne	.LBB16_125
# BB#107:                               # %sw.bb218
	cmpq	$6, %r10
	jne	.LBB16_125
# BB#108:                               # %if.then222
	movq	$0, 48(%rsp)            # 8-byte Folded Spill
	cmpq	$25, %rdx
	movabsq	$0, %r12
	jne	.LBB16_118
# BB#109:                               # %if.then222
	movl	skip_evaluation(%rip), %eax
	testq	%r8, %rax
	movabsq	$0, %r12
	jne	.LBB16_118
# BB#110:                               # %if.then230
	movq	%r11, 16(%rsp)          # 8-byte Spill
	movq	%r10, 8(%rsp)           # 8-byte Spill
	movq	%r9, (%rsp)             # 8-byte Spill
	movq	%rsi, %r12
	movq	%r8, %rbx
	movq	%r13, %rdi
	callq	tree_int_cst_sgn
	movq	$32, %rcx
	shlq	%cl, %rax
	movq	$32, %rcx
	sarq	%cl, %rax
	testq	%rax, %rax
	js	.LBB16_111
# BB#112:                               # %if.else234
	movq	%r13, %rdi
	callq	integer_zerop
	testq	%rbx, %rax
	jne	.LBB16_113
# BB#114:                               # %if.else234
	movabsq	$1, %rax
	jmp	.LBB16_115
.LBB16_220:                             # %if.else521
	cmpq	$13, %r9
	jne	.LBB16_221
# BB#222:                               # %if.else521
	movq	%r8, %rbx
	cmpq	$13, %r10
	jne	.LBB16_223
# BB#224:                               # %if.then527
	movq	%r11, 16(%rsp)          # 8-byte Spill
	movq	%r10, 8(%rsp)           # 8-byte Spill
	movq	%r9, (%rsp)             # 8-byte Spill
	movq	%rsi, 32(%rsp)          # 8-byte Spill
	movq	$1, %rdx
	movq	%r15, %rdi
	movq	40(%rsp), %rsi          # 8-byte Reload
	callq	maybe_objc_comptypes
	movq	$32, %rcx
	movq	%rax, %rdx
	shlq	%cl, %rdx
	movq	$32, %rcx
	sarq	%cl, %rdx
	testq	%rdx, %rdx
	jns	.LBB16_228
# BB#225:                               # %if.end.i1698
	movq	8(%r15), %rax
	movq	40(%rsp), %rcx          # 8-byte Reload
	movq	8(%rcx), %rcx
	movq	128(%rax), %rdi
	movq	128(%rcx), %rsi
	callq	comptypes
	movq	%rax, %rcx
	andq	%rbx, %rcx
	cmpq	$2, %rcx
	jne	.LBB16_228
# BB#226:                               # %if.end.i1698
	movl	pedantic(%rip), %ecx
	testq	%rbx, %rcx
	je	.LBB16_228
# BB#227:                               # %comp_target_types.exit1701.thread
	movabsq	$.L.str182, %rdi
	xorq	%rax, %rax
	callq	pedwarn
	jmp	.LBB16_229
.LBB16_221:
	movq	$0, 48(%rsp)            # 8-byte Folded Spill
.LBB16_12:
	xorq	%r12, %r12
	movq	$0, 64(%rsp)            # 8-byte Folded Spill
	movq	$0, 80(%rsp)            # 8-byte Folded Spill
	movq	$0, 72(%rsp)            # 8-byte Folded Spill
.LBB16_295:                             # %sw.epilog
	xorq	%rbx, %rbx
	xorq	%rdi, %rdi
.LBB16_296:                             # %sw.epilog
	movq	%rsi, %rcx
.LBB16_297:                             # %sw.epilog
	movl	16(%r15), %eax
	andq	$254, %rax
	cmpq	$6, %rax
	je	.LBB16_299
# BB#298:                               # %sw.epilog
	cmpq	$8, %r9
	jne	.LBB16_418
.LBB16_299:                             # %land.lhs.true683
	andq	$254, %r11
	cmpq	$6, %r11
	je	.LBB16_301
# BB#300:                               # %land.lhs.true683
	cmpq	$8, %r10
	jne	.LBB16_418
.LBB16_301:                             # %if.then692
	movq	%r12, 24(%rsp)          # 8-byte Spill
	movq	%rbx, 16(%rsp)          # 8-byte Spill
	movq	%rsi, 32(%rsp)          # 8-byte Spill
	cmpq	$8, %r10
	movabsq	$0, %r12
	movabsq	$1, %rax
	movq	%r12, %rbx
	je	.LBB16_303
# BB#302:                               # %if.then692
	movq	%rax, %rbx
.LBB16_303:                             # %if.then692
	cmpq	$8, %r9
	je	.LBB16_305
# BB#304:                               # %if.then692
	movq	%rax, %r12
.LBB16_305:                             # %if.then692
	movq	%rcx, 56(%rsp)          # 8-byte Spill
	movq	48(%rsp), %rax          # 8-byte Reload
	movq	64(%rsp), %rcx          # 8-byte Reload
	orq	%rcx, %rax
	movq	80(%rsp), %rcx          # 8-byte Reload
	orq	%rcx, %rax
	testq	%r8, %rax
	je	.LBB16_307
# BB#306:                               # %if.then704
	movq	%r15, %rdi
	movq	40(%rsp), %rsi          # 8-byte Reload
	movq	%r8, %r15
	callq	common_type
	movq	%r15, %r8
	movq	%rax, %rdi
.LBB16_307:                             # %if.end706
	andq	%r12, %rbx
	movq	80(%rsp), %rax          # 8-byte Reload
	testq	%r8, %rax
	je	.LBB16_308
# BB#309:                               # %if.end706
	movabsq	$1, %rax
	jmp	.LBB16_310
.LBB16_308:
	movabsq	$0, %rax
.LBB16_310:                             # %if.end706
	movq	32(%rsp), %rdx          # 8-byte Reload
	movq	%rdi, %r15
	xorq	%rcx, %rcx
	testq	%rbx, %rax
	je	.LBB16_311
# BB#312:                               # %if.then710
	movq	%rdx, %r12
	leaq	156(%rsp), %rsi
	movq	%r14, %rdi
	callq	get_narrower
	movq	%rax, %rbx
	leaq	152(%rsp), %rsi
	movq	%r13, %rdi
	callq	get_narrower
	movq	%rbx, %r10
	movq	8(%r14), %rsi
	movq	8(%r10), %rdi
	movl	16(%r15), %edx
	movl	60(%rsi), %r8d
	movl	60(%rdi), %ebx
	movq	%rax, %r9
	movq	$13, %rcx
	shrq	%cl, %rdx
	xorq	%r8, %rbx
	testq	$511, %rbx              # imm = 0x1FF
	jne	.LBB16_315
# BB#313:                               # %if.then710
	cmpq	%r15, %rsi
	je	.LBB16_315
# BB#314:                               # %if.then738
	movl	16(%rsi), %eax
	movq	$13, %rcx
	shrq	%cl, %rax
	andq	$1, %rax
	movl	%eax, 156(%rsp)
.LBB16_315:                             # %if.end746
	movq	%r12, 32(%rsp)          # 8-byte Spill
	movq	8(%r13), %rax
	movq	8(%r9), %rsi
	movl	60(%rax), %ecx
	movl	60(%rsi), %ebx
	xorq	%rcx, %rbx
	testq	$511, %rbx              # imm = 0x1FF
	movabsq	$4294967295, %r8        # imm = 0xFFFFFFFF
	jne	.LBB16_318
# BB#316:                               # %if.end746
	cmpq	%r15, %rax
	je	.LBB16_318
# BB#317:                               # %if.then766
	movl	16(%rax), %eax
	movq	$13, %rcx
	shrq	%cl, %rax
	andq	$1, %rax
	movl	%eax, 152(%rsp)
.LBB16_318:                             # %if.end774
	movl	156(%rsp), %ebx
	movq	80(%rsp), %rax          # 8-byte Reload
	andq	%r8, %rax
	cmpq	%r8, %rax
	movq	%rbx, %r12
	je	.LBB16_320
# BB#319:                               # %if.end774
	andq	$1, %rdx
	movq	%rdx, %r12
.LBB16_320:                             # %if.end774
	movl	60(%rdi), %ecx
	movl	60(%r15), %eax
	andq	$511, %rcx              # imm = 0x1FF
	andq	$511, %rax              # imm = 0x1FF
	cmpq	%rax, %rcx
	jae	.LBB16_326
# BB#321:                               # %land.lhs.true791
	movl	60(%rsi), %edx
	andq	$511, %rdx              # imm = 0x1FF
	andq	%r8, %rcx
	cmpq	%rcx, %rdx
	jne	.LBB16_326
# BB#322:                               # %land.lhs.true791
	movl	152(%rsp), %ecx
	andq	%r8, %rcx
	movq	%rbx, %rdx
	andq	%r8, %rdx
	cmpq	%rcx, %rdx
	jne	.LBB16_326
# BB#323:                               # %land.lhs.true809
	testq	%r8, %rbx
	jne	.LBB16_325
# BB#324:                               # %land.lhs.true809
	testq	%r8, %r12
	je	.LBB16_325
.LBB16_326:                             # %if.else820
	movzbl	16(%r10), %ecx
	cmpq	$25, %rcx
	jne	.LBB16_331
# BB#327:                               # %land.lhs.true827
	movl	152(%rsp), %edi
	testq	%rdi, %rdi
	jne	.LBB16_329
# BB#328:                               # %land.lhs.true827
	testq	%r8, %r12
	jne	.LBB16_331
.LBB16_329:                             # %land.lhs.true831
	movl	60(%rsi), %ecx
	andq	$511, %rcx              # imm = 0x1FF
	andq	%r8, %rax
	cmpq	%rax, %rcx
	jae	.LBB16_331
# BB#330:                               # %land.lhs.true844
	movq	%r9, 48(%rsp)           # 8-byte Spill
	movq	%r10, 80(%rsp)          # 8-byte Spill
	callq	signed_or_unsigned_type
	movq	%rax, %rbx
	movq	80(%rsp), %rdi          # 8-byte Reload
	movq	%rbx, %rsi
	callq	int_fits_type_p
	movq	80(%rsp), %r10          # 8-byte Reload
	movq	48(%rsp), %r9           # 8-byte Reload
	movabsq	$4294967295, %r8        # imm = 0xFFFFFFFF
	testq	%r8, %rax
	jne	.LBB16_339
.LBB16_331:                             # %if.else851
	movzbl	16(%r9), %eax
	cmpq	$25, %rax
	jne	.LBB16_332
# BB#333:                               # %land.lhs.true858
	movq	%r9, %rbx
	movl	156(%rsp), %edi
	testq	%rdi, %rdi
	jne	.LBB16_335
# BB#334:                               # %land.lhs.true858
	testq	%r8, %r12
	je	.LBB16_335
.LBB16_332:
	movq	%r15, %rcx
	movq	%r15, %rbx
	jmp	.LBB16_340
.LBB16_311:
	movq	%r15, %rbx
	jmp	.LBB16_340
.LBB16_335:                             # %land.lhs.true862
	movq	%r8, %r12
	movq	8(%r10), %rsi
	movl	60(%rsi), %eax
	movl	60(%r15), %ecx
	andq	$511, %rax              # imm = 0x1FF
	andq	$511, %rcx              # imm = 0x1FF
	cmpq	%rcx, %rax
	jae	.LBB16_336
# BB#337:                               # %land.lhs.true875
	callq	signed_or_unsigned_type
	movq	%rax, 80(%rsp)          # 8-byte Spill
	movq	%rbx, %rdi
	movq	%rax, %rsi
	callq	int_fits_type_p
	movq	%r12, %r8
	testq	%r8, %rax
	movq	%r15, %rbx
	je	.LBB16_339
# BB#338:                               # %land.lhs.true875
	movq	80(%rsp), %rbx          # 8-byte Reload
	jmp	.LBB16_339
.LBB16_325:                             # %if.then813
	movq	%r8, %r12
	callq	common_type
	movq	%rbx, %rdi
	movq	%rax, %rsi
	callq	signed_or_unsigned_type
	movq	%r12, %r8
	movq	%rax, %rbx
.LBB16_339:                             # %land.lhs.true875
	movq	%r15, %rcx
	jmp	.LBB16_340
.LBB16_261:                             # %if.else605
	cmpq	$13, %r9
	jne	.LBB16_270
# BB#262:                               # %if.else605
	cmpq	$25, %rdx
	jne	.LBB16_270
# BB#263:                               # %land.lhs.true615
	movq	%r13, %rdi
	movq	%rcx, 72(%rsp)          # 8-byte Spill
	movq	%rsi, %rbx
	movq	%r9, (%rsp)             # 8-byte Spill
	movq	%r10, %r12
	movq	%r11, 16(%rsp)          # 8-byte Spill
	callq	integer_zerop
	movq	16(%rsp), %r11          # 8-byte Reload
	movq	%r12, %r10
	movq	(%rsp), %r9             # 8-byte Reload
	movq	%rbx, %rsi
	movabsq	$4294967295, %r8        # imm = 0xFFFFFFFF
	movq	72(%rsp), %rcx          # 8-byte Reload
	testq	%r8, %rax
	je	.LBB16_270
# BB#264:                               # %if.then618
	movq	%rsi, 32(%rsp)          # 8-byte Spill
	movl	pedantic(%rip), %eax
	movl	extra_warnings(%rip), %ecx
	orq	%rax, %rcx
	testq	%r8, %rcx
	je	.LBB16_265
# BB#269:                               # %if.then622
	movabsq	$.L.str58, %rdi
	xorq	%rax, %rax
	movq	$0, 48(%rsp)            # 8-byte Folded Spill
	movq	%r8, %rbx
	movq	%r10, %r12
	callq	pedwarn
	movq	%r12, %r10
	movq	(%rsp), %r9             # 8-byte Reload
	movq	%rbx, %r8
	jmp	.LBB16_266
.LBB16_125:
	movq	$0, 48(%rsp)            # 8-byte Folded Spill
	xorq	%r12, %r12
.LBB16_72:                              # %sw.epilog
	movq	$0, 64(%rsp)            # 8-byte Folded Spill
	movq	$0, 80(%rsp)            # 8-byte Folded Spill
	movq	$0, 72(%rsp)            # 8-byte Folded Spill
	xorq	%rbx, %rbx
	xorq	%rdi, %rdi
	jmp	.LBB16_297
.LBB16_336:
	movq	%r15, %rcx
	movq	%r15, %rbx
	movq	%r12, %r8
.LBB16_340:                             # %if.end885
	movq	24(%rsp), %rax          # 8-byte Reload
	testq	%rax, %rax
	je	.LBB16_341
# BB#342:                               # %if.then887
	movq	%r8, %r12
	leaq	148(%rsp), %rsi
	movq	%r14, %rdi
	callq	get_narrower
	movq	%rax, %r15
	cmpq	%r14, %r15
	jne	.LBB16_345
# BB#343:                               # %land.lhs.true892
	movq	8(%r14), %rax
	cmpq	%rax, %rbx
	jne	.LBB16_345
# BB#344:                               # %if.then897
	movl	16(%rbx), %eax
	movq	$13, %rcx
	shrq	%cl, %rax
	andq	$1, %rax
	movl	%eax, 148(%rsp)
.LBB16_345:                             # %if.end905
	movq	8(%r15), %rax
	movl	60(%rax), %esi
	movl	60(%rbx), %eax
	andq	$511, %rsi              # imm = 0x1FF
	andq	$511, %rax              # imm = 0x1FF
	cmpq	%rax, %rsi
	jae	.LBB16_346
# BB#347:                               # %land.lhs.true918
	andq	%r12, %rsi
	movq	%r13, %rdi
	callq	compare_tree_int
	movq	$32, %rcx
	shlq	%cl, %rax
	movq	$32, %rcx
	sarq	%cl, %rax
	testq	%rax, %rax
	js	.LBB16_348
.LBB16_346:
	movq	%rbx, %r15
	movq	%rbx, %rdi
.LBB16_355:                             # %if.end950
	movq	%r12, %r8
	jmp	.LBB16_356
.LBB16_341:
	movq	%rcx, %r15
	movq	%rbx, %rdi
.LBB16_356:                             # %if.end950
	movq	56(%rsp), %rcx          # 8-byte Reload
	movq	%r8, %rbx
	cmpq	$0, 64(%rsp)            # 8-byte Folded Reload
	je	.LBB16_357
# BB#358:                               # %if.then952
	movq	%r14, 136(%rsp)
	movq	%r13, 128(%rsp)
	movq	%rdi, 120(%rsp)
	movl	%ecx, 116(%rsp)
	movq	%rdi, %r14
	leaq	136(%rsp), %rdi
	leaq	128(%rsp), %rsi
	leaq	120(%rsp), %rdx
	leaq	116(%rsp), %rcx
	callq	shorten_compare
	testq	%rax, %rax
	movq	%rbx, %rdx
	jne	.LBB16_434
# BB#359:                               # %if.end957
	movq	%r14, %rdi
	movq	136(%rsp), %r14
	movq	128(%rsp), %r13
	movslq	warn_sign_compare(%rip), %rax
	movl	116(%rsp), %ecx
	testq	%rax, %rax
	js	.LBB16_360
# BB#361:                               # %cond.false
	testq	%rdx, %rax
	jmp	.LBB16_362
.LBB16_357:
	movq	%r15, 56(%rsp)          # 8-byte Spill
	movq	32(%rsp), %rsi          # 8-byte Reload
	movq	16(%rsp), %rbx          # 8-byte Reload
	jmp	.LBB16_418
.LBB16_348:                             # %land.lhs.true929
	movzbl	17(%rbx), %eax
	movl	148(%rsp), %edi
	testq	$32, %rax
	movq	%r12, %r8
	je	.LBB16_352
# BB#349:                               # %land.lhs.true929
	testq	%r8, %rdi
	jne	.LBB16_352
# BB#350:
	movq	%rbx, %r15
	movq	%rbx, %rdi
	jmp	.LBB16_356
.LBB16_360:                             # %cond.true
	movl	extra_warnings(%rip), %eax
	testq	%rax, %rax
.LBB16_362:                             # %cond.false
	movq	$1, %rbx
	movq	%r15, 56(%rsp)          # 8-byte Spill
	movq	32(%rsp), %rsi          # 8-byte Reload
	je	.LBB16_418
# BB#363:                               # %cond.false
	movl	skip_evaluation(%rip), %eax
	testq	%rdx, %rax
	jne	.LBB16_418
# BB#364:                               # %if.then966
	movq	%rdi, 24(%rsp)          # 8-byte Spill
	movq	%rsi, 32(%rsp)          # 8-byte Spill
	movq	96(%rsp), %r15          # 8-byte Reload
	movq	8(%r15), %rax
	movq	88(%rsp), %r12          # 8-byte Reload
	movq	8(%r12), %rcx
	movl	16(%rax), %eax
	andq	$8192, %rax             # imm = 0x2000
	movq	%rax, 40(%rsp)          # 8-byte Spill
	movl	16(%rcx), %esi
	movq	$13, %rcx
	shrq	%cl, %rax
	movq	%rax, 48(%rsp)          # 8-byte Spill
	movq	$13, %rcx
	shrq	%cl, %rsi
	movq	%rsi, 64(%rsp)          # 8-byte Spill
	leaq	112(%rsp), %rsi
	movq	%r14, %rdi
	movq	%rdx, %rbx
	callq	get_narrower
	movq	%rax, 80(%rsp)          # 8-byte Spill
	leaq	108(%rsp), %rsi
	movq	%r13, %rdi
	callq	get_narrower
	movq	%r15, 136(%rsp)
	movq	%r12, 128(%rsp)
	movq	%r12, %r8
	movzbl	16(%r15), %ecx
	movq	%r15, %rdx
	addq	$-114, %rcx
	andq	%rbx, %rcx
	cmpq	$2, %rcx
	ja	.LBB16_365
# BB#368:                               # %land.lhs.true1010.lr.ph
	movq	global_trees(%rip), %r9
	movq	%rdx, %rdi
.LBB16_369:                             # %land.lhs.true1010
                                        # =>This Inner Loop Header: Depth=1
	movq	32(%rdi), %rcx
	cmpq	%r9, %rcx
	je	.LBB16_366
# BB#370:                               # %land.rhs1016
                                        #   in Loop: Header=BB16_369 Depth=1
	movq	8(%rdi), %rdx
	movq	8(%rcx), %rsi
	cmpq	%rsi, %rdx
	jne	.LBB16_366
# BB#371:                               # %while.body1028
                                        #   in Loop: Header=BB16_369 Depth=1
	movq	%rcx, 136(%rsp)
	movzbl	16(%rcx), %edx
	addq	$-114, %rdx
	andq	%rbx, %rdx
	cmpq	$3, %rdx
	movq	%rcx, %rdi
	jb	.LBB16_369
	jmp	.LBB16_366
.LBB16_352:                             # %if.then938
	movq	%r8, %r12
	movq	8(%r15), %rsi
	callq	signed_or_unsigned_type
	movq	8(%r14), %rcx
	movq	%rax, %rdi
	cmpq	%rdi, %rcx
	movq	$1, 16(%rsp)            # 8-byte Folded Spill
	je	.LBB16_354
# BB#353:                               # %if.then946
	movq	%rdi, %r15
                                        # kill: RDI<def> R15<kill>
	movq	%r14, %rsi
	callq	convert
	movq	%r15, %rdi
	movq	%rax, %r14
.LBB16_354:                             # %if.end950
	movq	%rbx, %r15
	jmp	.LBB16_355
.LBB16_365:
	movq	%rdx, %rdi
.LBB16_366:                             # %while.cond1033.preheader
	movq	%rax, %r15
	movzbl	16(%r8), %eax
	addq	$-114, %rax
	andq	%rbx, %rax
	cmpq	$2, %rax
	ja	.LBB16_367
# BB#372:                               # %land.lhs.true1054.lr.ph
	movq	global_trees(%rip), %r9
	movq	%r8, %rax
.LBB16_373:                             # %land.lhs.true1054
                                        # =>This Inner Loop Header: Depth=1
	movq	32(%rax), %rcx
	cmpq	%r9, %rcx
	je	.LBB16_376
# BB#374:                               # %land.rhs1060
                                        #   in Loop: Header=BB16_373 Depth=1
	movq	8(%rax), %rdx
	movq	8(%rcx), %rsi
	cmpq	%rsi, %rdx
	jne	.LBB16_376
# BB#375:                               # %while.body1072
                                        #   in Loop: Header=BB16_373 Depth=1
	movq	%rcx, 128(%rsp)
	movzbl	16(%rcx), %edx
	addq	$-114, %rdx
	andq	%rbx, %rdx
	cmpq	$3, %rdx
	movq	%rcx, %rax
	jb	.LBB16_373
	jmp	.LBB16_376
.LBB16_367:
	movq	%r8, %rax
.LBB16_376:                             # %while.end1076
	movq	%rax, %rcx
	movq	24(%rsp), %rax          # 8-byte Reload
	movzbl	17(%rax), %eax
	testq	$32, %rax
	je	.LBB16_391
# BB#377:                               # %while.end1076
	movq	64(%rsp), %rax          # 8-byte Reload
	andq	$1, %rax
	cmpq	%rax, 48(%rsp)          # 8-byte Folded Reload
	je	.LBB16_391
# BB#378:                               # %if.else1088
	movq	40(%rsp), %rax          # 8-byte Reload
	andq	%rbx, %rax
	movq	%rcx, %r12
	je	.LBB16_380
# BB#379:                               # %if.else1088
	movq	%rdi, %r12
.LBB16_380:                             # %if.else1088
	testq	%rax, %rax
	je	.LBB16_382
# BB#381:                               # %if.else1088
	movq	%rcx, %rdi
.LBB16_382:                             # %if.else1088
	callq	tree_expr_nonnegative_p
	testq	%rbx, %rax
	jne	.LBB16_391
# BB#383:                               # %if.else1096
	movl	16(%r12), %eax
	movq	%rax, %rcx
	andq	$255, %rcx
	cmpq	$25, %rcx
	jne	.LBB16_387
# BB#384:                               # %if.else1096
	movl	116(%rsp), %ecx
	leaq	-101(%rcx), %rcx
	andq	%rbx, %rcx
	cmpq	$1, %rcx
	ja	.LBB16_387
# BB#385:                               # %land.lhs.true1109
	movq	24(%rsp), %rdi          # 8-byte Reload
	callq	signed_type
	movq	%r12, %rdi
	movq	%rax, %rsi
	callq	int_fits_type_p
	testq	%rbx, %rax
	jne	.LBB16_391
# BB#386:                               # %land.lhs.true1109.if.else1114_crit_edge
	movl	16(%r12), %eax
.LBB16_387:                             # %if.else1114
	andq	$255, %rax
	cmpq	$25, %rax
	jne	.LBB16_390
# BB#388:                               # %land.lhs.true1121
	movq	8(%r12), %rax
	movzbl	16(%rax), %ecx
	cmpq	$10, %rcx
	jne	.LBB16_390
# BB#389:                               # %land.lhs.true1130
	movq	112(%rax), %r12
	movq	24(%rsp), %rdi          # 8-byte Reload
	callq	signed_type
	movq	%r12, %rdi
	movq	%rax, %rsi
	callq	int_fits_type_p
	testq	%rbx, %rax
	jne	.LBB16_391
.LBB16_390:                             # %if.else1138
	movabsq	$.L.str60, %rdi
	xorq	%rax, %rax
	callq	warning
.LBB16_391:                             # %if.end1143
	movq	80(%rsp), %rax          # 8-byte Reload
	movzbl	16(%rax), %eax
	cmpq	$90, %rax
	movabsq	$0, %rcx
	movabsq	$1, %rsi
	movq	%rcx, %rdx
	jne	.LBB16_393
# BB#392:                               # %if.end1143
	movq	%rsi, %rdx
.LBB16_393:                             # %if.end1143
	movzbl	16(%r15), %edi
	cmpq	$90, %rdi
	movq	32(%rsp), %r12          # 8-byte Reload
	jne	.LBB16_395
# BB#394:                               # %if.end1143
	movq	%rsi, %rcx
.LBB16_395:                             # %if.end1143
	xorq	%rcx, %rdx
	movq	24(%rsp), %rdi          # 8-byte Reload
	je	.LBB16_396
# BB#397:                               # %if.then1158
	cmpq	$90, %rax
	jne	.LBB16_399
# BB#398:                               # %if.then1165
	movq	%r15, 96(%rsp)          # 8-byte Spill
	movq	80(%rsp), %rax          # 8-byte Reload
	movq	32(%rax), %rdi
	leaq	112(%rsp), %rsi
	callq	get_narrower
	movq	%rax, %rdi
	jmp	.LBB16_400
.LBB16_396:
	movq	%r12, %rsi
	jmp	.LBB16_406
.LBB16_247:                             # %comp_target_types.exit1713
	testq	%rbx, %rax
	je	.LBB16_260
.LBB16_248:                             # %if.then570
	movq	%r15, %rdi
	movq	40(%rsp), %rsi          # 8-byte Reload
	callq	common_type
	movq	8(%r15), %rcx
	cmpq	$0, 32(%rcx)
	movq	%rax, 24(%rsp)          # 8-byte Spill
	movabsq	$0, %rax
	movabsq	$1, %rsi
	movq	%rax, %rdx
	jne	.LBB16_250
# BB#249:                               # %if.then570
	movq	%rsi, %rdx
.LBB16_250:                             # %if.then570
	movq	40(%rsp), %rdi          # 8-byte Reload
	movq	8(%rdi), %rdi
	cmpq	$0, 32(%rdi)
	jne	.LBB16_252
# BB#251:                               # %if.then570
	movq	%rsi, %rax
.LBB16_252:                             # %if.then570
	cmpq	%rax, %rdx
	je	.LBB16_254
# BB#253:                               # %if.then588
	movabsq	$.L.str57, %rdi
	xorq	%rax, %rax
	movq	$0, 48(%rsp)            # 8-byte Folded Spill
	callq	pedwarn
	xorq	%r12, %r12
	movq	$0, 64(%rsp)            # 8-byte Folded Spill
	movq	$0, 80(%rsp)            # 8-byte Folded Spill
	movq	32(%rsp), %rsi          # 8-byte Reload
	movq	%rsi, %rcx
	movq	%rbx, %r8
	xorq	%rbx, %rbx
	movq	$0, 56(%rsp)            # 8-byte Folded Spill
	movq	(%rsp), %r9             # 8-byte Reload
	movq	8(%rsp), %r10           # 8-byte Reload
	movq	16(%rsp), %r11          # 8-byte Reload
	movq	24(%rsp), %rdi          # 8-byte Reload
	jmp	.LBB16_297
.LBB16_193:                             # %if.else454
	cmpq	$13, %r9
	jne	.LBB16_197
# BB#194:                               # %land.lhs.true457
	movzbl	16(%r13), %eax
	cmpq	$25, %rax
	jne	.LBB16_197
# BB#195:                               # %land.lhs.true464
	movq	%r13, %rdi
	movq	%rsi, 32(%rsp)          # 8-byte Spill
	movq	%r9, %rbx
	movq	%r10, 8(%rsp)           # 8-byte Spill
	movq	%r11, 16(%rsp)          # 8-byte Spill
	callq	integer_zerop
	movq	16(%rsp), %r11          # 8-byte Reload
	movq	8(%rsp), %r10           # 8-byte Reload
	movq	%rbx, %r9
	movq	32(%rsp), %rsi          # 8-byte Reload
	movq	$0, 48(%rsp)            # 8-byte Folded Spill
	testq	%r12, %rax
	je	.LBB16_197
# BB#196:
	movq	$0, 64(%rsp)            # 8-byte Folded Spill
	movq	$0, 80(%rsp)            # 8-byte Folded Spill
	xorq	%rbx, %rbx
	movq	%r15, %rdi
	jmp	.LBB16_208
.LBB16_270:                             # %if.else624
	movq	%rcx, 72(%rsp)          # 8-byte Spill
	cmpq	$13, %r10
	jne	.LBB16_277
# BB#271:                               # %land.lhs.true627
	movq	%r8, %rbx
	movzbl	16(%r14), %eax
	cmpq	$25, %rax
	jne	.LBB16_282
# BB#272:                               # %land.lhs.true634
	movq	%r14, %rdi
	movq	%rsi, 32(%rsp)          # 8-byte Spill
	movq	%r9, %r12
	movq	%r10, 8(%rsp)           # 8-byte Spill
	movq	%r11, 16(%rsp)          # 8-byte Spill
	callq	integer_zerop
	movq	16(%rsp), %r11          # 8-byte Reload
	movq	8(%rsp), %r10           # 8-byte Reload
	movq	%r12, %r9
	movq	32(%rsp), %rsi          # 8-byte Reload
	movq	%rbx, %r8
	testq	%r8, %rax
	je	.LBB16_277
# BB#273:                               # %if.then637
	movl	pedantic(%rip), %eax
	testq	%rax, %rax
	je	.LBB16_274
# BB#276:                               # %if.then639
	movabsq	$.L.str58, %rdi
	xorq	%rax, %rax
	movq	$0, 48(%rsp)            # 8-byte Folded Spill
	movq	%r8, %rbx
	movq	%r9, (%rsp)             # 8-byte Spill
	movq	%r10, %r12
	callq	pedwarn
	movq	%r12, %r10
	movq	(%rsp), %r9             # 8-byte Reload
	movq	%rbx, %r8
	jmp	.LBB16_275
.LBB16_197:                             # %if.else468
	cmpq	$13, %r10
	jne	.LBB16_201
# BB#198:                               # %land.lhs.true471
	movq	%rsi, %rbx
	movzbl	16(%r14), %eax
	cmpq	$25, %rax
	jne	.LBB16_206
# BB#199:                               # %land.lhs.true478
	movq	%r14, %rdi
	movq	%r9, (%rsp)             # 8-byte Spill
	movq	%r10, 8(%rsp)           # 8-byte Spill
	movq	%r11, 16(%rsp)          # 8-byte Spill
	callq	integer_zerop
	movq	16(%rsp), %r11          # 8-byte Reload
	movq	8(%rsp), %r10           # 8-byte Reload
	movq	(%rsp), %r9             # 8-byte Reload
	movq	$0, 48(%rsp)            # 8-byte Folded Spill
	testq	%r12, %rax
	movq	%rbx, %rsi
	je	.LBB16_201
# BB#200:
	movq	$0, 64(%rsp)            # 8-byte Folded Spill
	movq	$0, 80(%rsp)            # 8-byte Folded Spill
	xorq	%rbx, %rbx
	movq	40(%rsp), %rdi          # 8-byte Reload
	jmp	.LBB16_208
.LBB16_18:                              # %if.else86
	xorq	%r12, %r12
	cmpq	$13, %r10
	movq	$59, %rcx
	jne	.LBB16_71
# BB#19:                                # %if.else86
	cmpq	$6, %r9
	jne	.LBB16_71
# BB#20:                                # %if.then90
	movq	$59, %rdi
	movq	%r13, %rsi
	movq	%r14, %rdx
	callq	pointer_int_sum
	jmp	.LBB16_434
.LBB16_399:                             # %if.else1170
	movq	32(%r15), %rdi
	leaq	108(%rsp), %rsi
	callq	get_narrower
	movq	%rax, 96(%rsp)          # 8-byte Spill
	movq	80(%rsp), %rdi          # 8-byte Reload
.LBB16_400:                             # %if.end1175
	xorq	%rsi, %rsi
	movq	%rdi, %r15
	callq	host_integerp
	movq	%rbx, %rdx
	testq	%rdx, %rax
	jne	.LBB16_402
# BB#401:                               # %lor.lhs.false1178
	xorq	%rsi, %rsi
	movq	96(%rsp), %rdi          # 8-byte Reload
	movq	%rdx, %rbx
	callq	host_integerp
	movq	%rbx, %rdx
	testq	%rdx, %rax
	je	.LBB16_411
.LBB16_402:                             # %if.then1181
	xorq	%rsi, %rsi
	movq	%r15, %rdi
	movq	%rdx, %rbx
	callq	host_integerp
	testq	%rbx, %rax
	je	.LBB16_404
# BB#403:                               # %if.then1184
	movl	108(%rsp), %eax
	movq	%rax, 88(%rsp)          # 8-byte Spill
	xorq	%rsi, %rsi
	movq	%r15, %rdi
	callq	tree_low_cst
	movq	96(%rsp), %r15          # 8-byte Reload
	jmp	.LBB16_405
.LBB16_158:
	movq	%rcx, 72(%rsp)          # 8-byte Spill
	movq	$0, 48(%rsp)            # 8-byte Folded Spill
	xorq	%r12, %r12
.LBB16_294:                             # %sw.epilog
	movq	$0, 80(%rsp)            # 8-byte Folded Spill
	jmp	.LBB16_295
.LBB16_277:                             # %if.else641
	movq	%r8, %rbx
	cmpq	$13, %r9
	jne	.LBB16_282
# BB#278:                               # %if.else641
	cmpq	$6, %r10
	jne	.LBB16_282
# BB#279:                               # %if.then647
	movl	flag_traditional(%rip), %eax
	movq	$0, 48(%rsp)            # 8-byte Folded Spill
	testq	%rax, %rax
	jne	.LBB16_280
# BB#281:                               # %if.then649
	movabsq	$.L.str55, %rdi
	xorq	%rax, %rax
	movq	$0, 48(%rsp)            # 8-byte Folded Spill
	movq	%rsi, 32(%rsp)          # 8-byte Spill
	movq	%r9, (%rsp)             # 8-byte Spill
	movq	%r10, 8(%rsp)           # 8-byte Spill
	movq	%r11, 16(%rsp)          # 8-byte Spill
	callq	pedwarn
	movq	16(%rsp), %r11          # 8-byte Reload
	movq	8(%rsp), %r10           # 8-byte Reload
	movq	(%rsp), %r9             # 8-byte Reload
	movq	32(%rsp), %rsi          # 8-byte Reload
.LBB16_280:
	movq	$0, 64(%rsp)            # 8-byte Folded Spill
	movq	$0, 80(%rsp)            # 8-byte Folded Spill
	movq	%r15, %rdi
	movq	%rsi, %rcx
	movq	%rbx, %r8
	xorq	%rbx, %rbx
	movq	$0, 56(%rsp)            # 8-byte Folded Spill
	xorq	%r12, %r12
	jmp	.LBB16_297
.LBB16_27:                              # %comp_target_types.exit
	movq	%rbx, %r8
	testq	%r8, %rax
	movq	%r12, %rsi
	movabsq	$0, %rax
	movq	%rax, 56(%rsp)          # 8-byte Spill
	movq	(%rsp), %r9             # 8-byte Reload
	movq	8(%rsp), %r10           # 8-byte Reload
	movq	16(%rsp), %r11          # 8-byte Reload
	je	.LBB16_58
.LBB16_28:                              # %if.then102
	movq	8(%r14), %rax
	movl	pedantic(%rip), %ecx
	movl	warn_pointer_arith(%rip), %edx
	movq	global_trees+240(%rip), %r12
	movq	8(%rax), %rbx
	orq	%rcx, %rdx
	testq	%r8, %rdx
	je	.LBB16_33
# BB#29:                                # %if.then.i
	movl	16(%rbx), %eax
	movq	%rax, %rcx
	andq	$255, %rcx
	cmpq	$5, %rcx
	jne	.LBB16_31
# BB#30:                                # %if.then5.i
	movabsq	$.L.str180, %rdi
	xorq	%rax, %rax
	movq	%r8, %r15
	callq	pedwarn
	movq	%r15, %r8
	movl	16(%rbx), %eax
.LBB16_31:                              # %if.end.i1716
	andq	$255, %rax
	cmpq	$23, %rax
	jne	.LBB16_33
# BB#32:                                # %if.then11.i
	movabsq	$.L.str181, %rdi
	xorq	%rax, %rax
	movq	%r8, %r15
	callq	pedwarn
	movq	%r15, %r8
.LBB16_33:                              # %if.end13.i
	movzbl	16(%r14), %eax
	cmpq	$115, %rax
	movq	%r14, %rdi
	jne	.LBB16_35
# BB#34:                                # %cond.true.i
	movq	32(%r14), %rdi
.LBB16_35:                              # %cond.end.i
	movq	%r12, 96(%rsp)          # 8-byte Spill
	movzbl	16(%r13), %eax
	cmpq	$115, %rax
	movq	%r13, %rsi
	jne	.LBB16_37
# BB#36:                                # %cond.true24.i
	movq	32(%r13), %rsi
.LBB16_37:                              # %cond.end29.i
	movq	%rbx, 88(%rsp)          # 8-byte Spill
	movzbl	16(%rdi), %eax
	cmpq	$59, %rax
	movabsq	$global_trees+88, %rax
	jne	.LBB16_38
# BB#39:                                # %if.then36.i
	movq	32(%rdi), %rdx
	movq	%rdi, %rcx
	addq	$40, %rcx
	movq	%rdx, %rdi
	jmp	.LBB16_40
.LBB16_58:                              # %if.else104
	xorq	%r12, %r12
	cmpq	$13, %r9
	movq	$60, %rcx
	jne	.LBB16_71
# BB#59:                                # %if.else104
	cmpq	$6, %r10
	jne	.LBB16_71
# BB#60:                                # %if.then108
	movq	$60, %rdi
.LBB16_17:                              # %return
	movq	%r14, %rsi
	movq	%r13, %rdx
	callq	pointer_int_sum
	jmp	.LBB16_434
.LBB16_228:                             # %comp_target_types.exit1701
	testq	%rbx, %rax
	je	.LBB16_237
.LBB16_229:                             # %if.then530
	movq	%r15, %rdi
	movq	40(%rsp), %rsi          # 8-byte Reload
	callq	common_type
	movl	pedantic(%rip), %ecx
	movq	%rax, %rdi
	testq	%rcx, %rcx
	je	.LBB16_230
# BB#234:                               # %land.lhs.true533
	movq	8(%r15), %rax
	movzbl	16(%rax), %eax
	cmpq	$23, %rax
	jne	.LBB16_230
# BB#235:                               # %if.then542
	movq	%rdi, %r12
	movabsq	$.L.str56, %rdi
	jmp	.LBB16_236
.LBB16_201:                             # %if.else482
	movq	%rsi, %rbx
	cmpq	$13, %r9
	jne	.LBB16_206
# BB#202:                               # %if.else482
	cmpq	$6, %r10
	jne	.LBB16_206
# BB#203:                               # %if.then488
	movq	%r11, 16(%rsp)          # 8-byte Spill
	movq	%r9, (%rsp)             # 8-byte Spill
	movl	flag_traditional(%rip), %eax
	movq	$0, 48(%rsp)            # 8-byte Folded Spill
	testq	%rax, %rax
	movq	%rbx, %rsi
	jne	.LBB16_204
# BB#205:                               # %if.then490
	movabsq	$.L.str55, %rdi
	xorq	%rax, %rax
	movq	$0, 48(%rsp)            # 8-byte Folded Spill
	movq	%rsi, %rbx
	movq	%r10, 8(%rsp)           # 8-byte Spill
	callq	pedwarn
	movq	8(%rsp), %r10           # 8-byte Reload
	movq	%rbx, %rsi
.LBB16_204:
	movq	$0, 64(%rsp)            # 8-byte Folded Spill
	movq	$0, 80(%rsp)            # 8-byte Folded Spill
	xorq	%rbx, %rbx
	movq	%r15, %rdi
	movq	%rsi, %rcx
	movq	%r12, %r8
	xorq	%r12, %r12
	jmp	.LBB16_104
.LBB16_282:                             # %if.else651
	cmpq	$6, %r9
	jne	.LBB16_283
# BB#284:                               # %if.else651
	cmpq	$13, %r10
	movq	%rbx, %r8
	jne	.LBB16_285
# BB#286:                               # %if.then657
	movl	flag_traditional(%rip), %eax
	testq	%rax, %rax
	je	.LBB16_289
# BB#287:
	movq	$0, 48(%rsp)            # 8-byte Folded Spill
	jmp	.LBB16_288
.LBB16_254:                             # %if.else589
	movl	pedantic(%rip), %eax
	testq	%rax, %rax
	movq	%rbx, %r8
	movq	(%rsp), %r9             # 8-byte Reload
	movq	8(%rsp), %r10           # 8-byte Reload
	movq	16(%rsp), %r11          # 8-byte Reload
	movq	24(%rsp), %rdi          # 8-byte Reload
	je	.LBB16_255
# BB#256:                               # %land.lhs.true591
	movzbl	16(%rcx), %eax
	cmpq	$23, %rax
	jne	.LBB16_257
# BB#259:                               # %if.then600
	movabsq	$.L.str56, %rdi
	xorq	%rax, %rax
	movq	$0, 48(%rsp)            # 8-byte Folded Spill
	movq	%r9, %rbx
	movq	%r10, %r12
	callq	pedwarn
	movq	24(%rsp), %rdi          # 8-byte Reload
	movq	%r12, %r10
	movq	%rbx, %r9
	jmp	.LBB16_258
.LBB16_206:                             # %if.else492
	movq	$0, 48(%rsp)            # 8-byte Folded Spill
	cmpq	$6, %r9
	movq	%rbx, %rsi
	jne	.LBB16_207
# BB#209:                               # %if.else492
	cmpq	$13, %r10
	movq	%r12, %r8
	jne	.LBB16_210
# BB#212:                               # %if.then498
	movq	%r11, 16(%rsp)          # 8-byte Spill
	movq	%r9, %r12
	movq	%r8, %rbx
	movl	flag_traditional(%rip), %eax
	movq	$0, 48(%rsp)            # 8-byte Folded Spill
	testq	%rax, %rax
	jne	.LBB16_213
# BB#214:                               # %if.then500
	movabsq	$.L.str55, %rdi
	xorq	%rax, %rax
	movq	$0, 48(%rsp)            # 8-byte Folded Spill
	movq	%rsi, 32(%rsp)          # 8-byte Spill
	movq	%r10, 8(%rsp)           # 8-byte Spill
	callq	pedwarn
	movq	8(%rsp), %r10           # 8-byte Reload
	movq	32(%rsp), %rsi          # 8-byte Reload
.LBB16_213:
	movq	$0, 64(%rsp)            # 8-byte Folded Spill
	movq	$0, 80(%rsp)            # 8-byte Folded Spill
	movq	40(%rsp), %rdi          # 8-byte Reload
	movq	%rsi, %rcx
	movq	%rbx, %r8
	xorq	%rbx, %rbx
	movq	$0, 56(%rsp)            # 8-byte Folded Spill
	movq	%r12, %r9
	xorq	%r12, %r12
	movq	16(%rsp), %r11          # 8-byte Reload
	jmp	.LBB16_297
.LBB16_404:                             # %if.else1186
	movl	112(%rsp), %eax
	movq	%rax, 88(%rsp)          # 8-byte Spill
	xorq	%rsi, %rsi
	movq	96(%rsp), %rdi          # 8-byte Reload
	callq	tree_low_cst
.LBB16_405:                             # %if.end1188
	movq	8(%r15), %rcx
	movl	60(%rcx), %ecx
	movq	24(%rsp), %rdi          # 8-byte Reload
	movl	60(%rdi), %edx
	andq	$511, %rcx              # imm = 0x1FF
	andq	$511, %rdx              # imm = 0x1FF
	cmpq	%rdx, %rcx
	movq	%r12, %rsi
	jae	.LBB16_406
# BB#407:                               # %if.end1188
	movq	%rcx, %rdx
	andq	%rbx, %rdx
	cmpq	$63, %rdx
	ja	.LBB16_406
# BB#408:                               # %if.end1188
	movq	88(%rsp), %rdx          # 8-byte Reload
	testq	%rbx, %rdx
	je	.LBB16_406
# BB#409:                               # %if.then1206
	movq	$-1, %rdx
	shlq	%cl, %rdx
	andq	%rdx, %rax
	cmpq	%rdx, %rax
	je	.LBB16_406
# BB#410:                               # %if.then1209
	movq	%rdi, %r15
	movabsq	$.L.str61, %rdi
	xorq	%rax, %rax
	movq	%rsi, %rbx
	callq	warning
	movq	%r15, %rdi
	movq	%rbx, %rsi
.LBB16_406:
	movl	116(%rsp), %ecx
	movq	$1, %rbx
.LBB16_418:                             # %if.end1248
	testq	%rdi, %rdi
	je	.LBB16_419
# BB#420:                               # %if.end1251
	testq	%rbx, %rbx
	je	.LBB16_422
# BB#421:
	movq	%rdi, %r12
	movq	56(%rsp), %rax          # 8-byte Reload
	movq	72(%rsp), %rbx          # 8-byte Reload
	jmp	.LBB16_428
.LBB16_419:                             # %if.then1250
	movq	%rsi, %rdi
	callq	binary_op_error
	movq	global_trees(%rip), %rax
	jmp	.LBB16_434
.LBB16_422:                             # %if.then1253
	movq	8(%r14), %rax
	movq	%rcx, %r15
	cmpq	%rdi, %rax
	je	.LBB16_424
# BB#423:                               # %if.then1258
	movq	%rdi, %rbx
                                        # kill: RDI<def> RBX<kill>
	movq	%r14, %rsi
	callq	convert
	movq	%rbx, %rdi
	movq	%rax, %r14
.LBB16_424:                             # %if.end1260
	movq	72(%rsp), %rbx          # 8-byte Reload
	movq	8(%r13), %rax
	cmpq	%rdi, %rax
	je	.LBB16_425
# BB#426:                               # %if.then1265
	movq	%rdi, %r12
	movq	%r13, %rsi
	callq	convert
	movq	%rax, %r13
	jmp	.LBB16_427
.LBB16_425:
	movq	%rdi, %r12
.LBB16_427:                             # %if.end1268
	movq	%r15, %rcx
	movq	56(%rsp), %rax          # 8-byte Reload
.LBB16_428:                             # %if.end1268
	movq	%rax, %r15
	testq	%rbx, %rbx
	je	.LBB16_430
# BB#429:                               # %if.end1268
	movq	%rbx, %r12
.LBB16_430:                             # %if.end1268
	xorq	%rax, %rax
	movq	%rcx, %rdi
	movq	%r12, %rsi
	movq	%r14, %rdx
	movq	%r13, %rcx
	callq	build
	movq	%rax, %rbx
	movq	%rbx, %rdi
	callq	fold
	cmpq	%rbx, %rax
	jne	.LBB16_432
# BB#431:                               # %if.then1277
	movl	16(%r14), %ecx
	movl	16(%r13), %edx
	movl	16(%rbx), %esi
	andq	%rcx, %rdx
	andq	$512, %rdx              # imm = 0x200
	movabsq	$4294966783, %rcx       # imm = 0xFFFFFDFF
	andq	%rsi, %rcx
	orq	%rdx, %rcx
	movl	%ecx, 16(%rbx)
.LBB16_432:                             # %if.end1292
	movq	%r15, %rdi
	testq	%rdi, %rdi
	je	.LBB16_434
# BB#433:                               # %if.then1295
	movq	%rax, %rsi
	callq	convert
.LBB16_434:                             # %return
	addq	$160, %rsp
	popq	%rbx
	popq	%r12
	popq	%r13
	popq	%r14
	popq	%r15
	retq
.LBB16_260:                             # %if.else603
	movq	global_trees+224(%rip), %r12
	movabsq	$.L.str54, %rdi
	xorq	%rax, %rax
	movq	$0, 48(%rsp)            # 8-byte Folded Spill
	callq	pedwarn
	movq	%r12, %rdi
	xorq	%r12, %r12
	movq	$0, 64(%rsp)            # 8-byte Folded Spill
	movq	$0, 80(%rsp)            # 8-byte Folded Spill
	movq	32(%rsp), %rsi          # 8-byte Reload
	jmp	.LBB16_232
.LBB16_223:
	movq	$0, 48(%rsp)            # 8-byte Folded Spill
	xorq	%r12, %r12
	movq	$0, 64(%rsp)            # 8-byte Folded Spill
	movq	$0, 80(%rsp)            # 8-byte Folded Spill
	jmp	.LBB16_81
.LBB16_230:
	movq	$0, 48(%rsp)            # 8-byte Folded Spill
	jmp	.LBB16_231
.LBB16_102:
	movq	$0, 48(%rsp)            # 8-byte Folded Spill
	xorq	%r12, %r12
	movq	$0, 64(%rsp)            # 8-byte Folded Spill
	movq	$0, 80(%rsp)            # 8-byte Folded Spill
	xorq	%rbx, %rbx
	xorq	%rdi, %rdi
.LBB16_103:                             # %sw.epilog
	movq	32(%rsp), %rsi          # 8-byte Reload
	movq	%rsi, %rcx
	movabsq	$4294967295, %r8        # imm = 0xFFFFFFFF
	movq	$0, 72(%rsp)            # 8-byte Folded Spill
.LBB16_104:                             # %sw.epilog
	movq	$0, 56(%rsp)            # 8-byte Folded Spill
	movq	(%rsp), %r9             # 8-byte Reload
	movq	16(%rsp), %r11          # 8-byte Reload
	jmp	.LBB16_297
.LBB16_143:                             # %if.then328
	movabsq	$.L.str50, %rdi
	xorq	%rax, %rax
	callq	warning
	movq	%rbx, %r8
	movq	%r12, %rsi
	movq	$0, 56(%rsp)            # 8-byte Folded Spill
	movq	(%rsp), %r9             # 8-byte Reload
	movq	16(%rsp), %r11          # 8-byte Reload
.LBB16_146:                             # %if.end341
	movl	flag_traditional(%rip), %eax
	testq	%rax, %rax
	je	.LBB16_148
# BB#147:
	movq	$0, 48(%rsp)            # 8-byte Folded Spill
	xorq	%r12, %r12
	movq	$0, 64(%rsp)            # 8-byte Folded Spill
	movq	$0, 80(%rsp)            # 8-byte Folded Spill
	movq	$0, 72(%rsp)            # 8-byte Folded Spill
	xorq	%rbx, %rbx
	movq	%r15, %rdi
	movq	%rsi, %rcx
	movq	8(%rsp), %r10           # 8-byte Reload
	jmp	.LBB16_297
.LBB16_148:                             # %if.then343
	movq	%r11, 16(%rsp)          # 8-byte Spill
	movq	%r9, (%rsp)             # 8-byte Spill
	movq	%rsi, %r12
	movq	8(%r13), %rax
	movq	128(%rax), %rax
	movq	integer_types+40(%rip), %rdi
	cmpq	%rdi, %rax
	movq	$1, %rbx
	je	.LBB16_149
# BB#150:                               # %if.then350
	movq	%r13, %rsi
	movq	%r8, %rbx
	callq	convert
	movq	%rbx, %r8
	movq	$1, %rbx
	movq	%rax, %r13
.LBB16_149:
	movq	$0, 48(%rsp)            # 8-byte Folded Spill
	movq	$0, 64(%rsp)            # 8-byte Folded Spill
	movq	$0, 80(%rsp)            # 8-byte Folded Spill
	movq	%r15, %rdi
	movq	%r12, %rsi
	xorq	%r12, %r12
	movq	$0, 72(%rsp)            # 8-byte Folded Spill
	movq	%rsi, %rcx
	jmp	.LBB16_233
.LBB16_38:
	movq	%rax, %rcx
.LBB16_40:                              # %if.end43.i
	movq	%r8, %rbx
	movzbl	16(%rsi), %edx
	movq	(%rcx), %r12
	cmpq	$59, %rdx
	jne	.LBB16_42
# BB#41:                                # %if.then49.i
	movq	32(%rsi), %rcx
	movq	%rsi, %rax
	addq	$40, %rax
	movq	%rcx, %rsi
.LBB16_42:                              # %if.end57.i
	movq	(%rax), %r15
	xorq	%rdx, %rdx
	callq	operand_equal_p
	andq	%rbx, %rax
	movq	%r13, %rbx
	je	.LBB16_44
# BB#43:                                # %if.end57.i
	movq	%r15, %rbx
.LBB16_44:                              # %if.end57.i
	testq	%rax, %rax
	je	.LBB16_46
# BB#45:                                # %if.end57.i
	movq	%r12, %r14
.LBB16_46:                              # %if.end57.i
	movq	96(%rsp), %r15          # 8-byte Reload
	movq	%r15, %rdi
	movq	%r14, %rsi
	callq	convert
	movq	%rax, %r14
	movq	%r15, %rdi
	movq	%rbx, %rsi
	callq	convert
	movq	$60, %rdi
	xorq	%rcx, %rcx
	movq	%r14, %rsi
	movq	%rax, %rdx
	callq	build_binary_op
	movq	8(%r13), %rcx
	movq	8(%rcx), %rcx
	cmpq	$0, 32(%rcx)
	movq	%rax, %r14
	jne	.LBB16_49
# BB#47:                                # %lor.lhs.false70.i
	movzbl	16(%rcx), %eax
	cmpq	$5, %rax
	je	.LBB16_49
# BB#48:                                # %if.then80.i
	movabsq	$.L.str14, %rdi
	xorq	%rax, %rax
	callq	error
.LBB16_49:                              # %if.end81.i
	movq	88(%rsp), %rdx          # 8-byte Reload
	movzbl	16(%rdx), %ecx
	cmpq	$23, %rcx
	ja	.LBB16_52
# BB#50:                                # %if.end81.i
	movq	$1, %rax
	shlq	%cl, %rax
	testq	$8388641, %rax          # imm = 0x800021
	je	.LBB16_52
# BB#51:                                # %if.then.i.i
	movq	global_trees+128(%rip), %r12
	jmp	.LBB16_56
.LBB16_52:                              # %if.end.i.i
	cmpq	$0, 32(%rdx)
	jne	.LBB16_55
# BB#53:                                # %if.end.i.i
	cmpq	$5, %rcx
	je	.LBB16_55
# BB#54:                                # %if.then13.i.i
	movabsq	$.L.str14, %rdi
	xorq	%rax, %rax
	callq	error
	movq	global_trees+128(%rip), %r12
	jmp	.LBB16_56
.LBB16_237:                             # %if.else544
	movq	global_trees+224(%rip), %r12
	movabsq	$.L.str54, %rdi
.LBB16_236:                             # %sw.epilog
	xorq	%rax, %rax
	movq	$0, 48(%rsp)            # 8-byte Folded Spill
	callq	pedwarn
	movq	%r12, %rdi
.LBB16_231:                             # %sw.epilog
	xorq	%r12, %r12
	movq	$0, 64(%rsp)            # 8-byte Folded Spill
	movq	$0, 80(%rsp)            # 8-byte Folded Spill
	movq	32(%rsp), %rsi          # 8-byte Reload
	movq	$0, 72(%rsp)            # 8-byte Folded Spill
.LBB16_232:                             # %sw.epilog
	movq	%rsi, %rcx
	movq	%rbx, %r8
	xorq	%rbx, %rbx
	jmp	.LBB16_233
.LBB16_411:                             # %if.else1212
	movq	%r15, %rcx
	movl	112(%rsp), %eax
	testq	%rax, %rax
	movq	$1, %rbx
	movq	96(%rsp), %r15          # 8-byte Reload
	je	.LBB16_412
# BB#413:                               # %if.else1212
	movl	108(%rsp), %eax
	testq	%rdx, %rax
	movq	%r12, %rsi
	movq	24(%rsp), %rdi          # 8-byte Reload
	je	.LBB16_417
# BB#414:                               # %land.lhs.true1216
	movq	8(%rcx), %rax
	movl	60(%rax), %ecx
	movl	60(%rdi), %eax
	andq	$511, %rcx              # imm = 0x1FF
	andq	$511, %rax              # imm = 0x1FF
	cmpq	%rax, %rcx
	jae	.LBB16_417
# BB#415:                               # %land.lhs.true1229
	movq	8(%r15), %rcx
	movl	60(%rcx), %ecx
	andq	$511, %rcx              # imm = 0x1FF
	andq	%rdx, %rax
	cmpq	%rax, %rcx
	jae	.LBB16_417
# BB#416:                               # %if.then1242
	movq	%rdi, %r12
	movabsq	$.L.str62, %rdi
	xorq	%rax, %rax
	movq	%rsi, %rbx
	callq	warning
	movq	%r12, %rdi
	movq	%rbx, %rsi
	movq	$1, %rbx
.LBB16_417:                             # %if.end1248
	movl	116(%rsp), %ecx
	jmp	.LBB16_418
.LBB16_255:
	movq	$0, 48(%rsp)            # 8-byte Folded Spill
	xorq	%r12, %r12
	movq	$0, 64(%rsp)            # 8-byte Folded Spill
	movq	$0, 80(%rsp)            # 8-byte Folded Spill
	xorq	%rbx, %rbx
	movq	32(%rsp), %rsi          # 8-byte Reload
	jmp	.LBB16_211
.LBB16_265:
	movq	$0, 48(%rsp)            # 8-byte Folded Spill
.LBB16_266:                             # %sw.epilog
	xorq	%r12, %r12
	movq	$0, 64(%rsp)            # 8-byte Folded Spill
	movq	$0, 80(%rsp)            # 8-byte Folded Spill
	xorq	%rbx, %rbx
	movq	%r15, %rdi
	jmp	.LBB16_267
.LBB16_257:
	movq	$0, 48(%rsp)            # 8-byte Folded Spill
.LBB16_258:                             # %sw.epilog
	xorq	%r12, %r12
	movq	$0, 64(%rsp)            # 8-byte Folded Spill
	movq	$0, 80(%rsp)            # 8-byte Folded Spill
	xorq	%rbx, %rbx
	movq	32(%rsp), %rsi          # 8-byte Reload
	movq	%rsi, %rcx
	movabsq	$4294967295, %r8        # imm = 0xFFFFFFFF
	jmp	.LBB16_268
.LBB16_55:                              # %if.end14.i.i
	movq	integer_types(%rip), %rax
	movl	60(%rax), %edi
	movq	40(%rdx), %rbx
	movq	$3, %rcx
	shrq	%cl, %rdi
	andq	$63, %rdi
	xorq	%rsi, %rsi
	callq	size_int_wide
	movq	$63, %rdi
	movq	%rbx, %rsi
	movq	%rax, %rdx
	callq	size_binop
	movq	%rax, %r12
.LBB16_56:                              # %c_size_in_bytes.exit.i
	movq	%r15, %rdi
	movq	%r12, %rsi
	callq	convert
	movq	%rax, %rcx
	movq	$71, %rdi
	xorq	%rax, %rax
	movq	%r15, %rsi
	movq	%r14, %rdx
	callq	build
	movq	%rax, %rbx
	movq	%rbx, %rdi
	callq	fold
	cmpq	%rbx, %rax
	jne	.LBB16_434
# BB#57:                                # %if.then87.i
	movl	16(%r14), %eax
	movl	16(%r12), %ecx
	movl	16(%rbx), %edx
	andq	%rax, %rcx
	andq	$512, %rcx              # imm = 0x200
	movabsq	$4294966783, %rax       # imm = 0xFFFFFDFF
	andq	%rdx, %rax
	orq	%rcx, %rax
	movl	%eax, 16(%rbx)
	movq	%rbx, %rax
	jmp	.LBB16_434
.LBB16_97:
	movabsq	$0, %rax
.LBB16_79:                              # %land.rhs151
	movq	%rax, 80(%rsp)          # 8-byte Spill
	movq	%r12, %rsi
	movq	(%rsp), %r9             # 8-byte Reload
	movq	8(%rsp), %r10           # 8-byte Reload
	movq	16(%rsp), %r11          # 8-byte Reload
.LBB16_80:                              # %lor.end
	xorq	%r12, %r12
	movq	$0, 64(%rsp)            # 8-byte Folded Spill
.LBB16_81:                              # %sw.epilog
	movq	$0, 72(%rsp)            # 8-byte Folded Spill
.LBB16_82:                              # %sw.epilog
	xorq	%rdi, %rdi
	movq	%rsi, %rcx
	movq	%rbx, %r8
	xorq	%rbx, %rbx
	movq	$0, 56(%rsp)            # 8-byte Folded Spill
	jmp	.LBB16_297
.LBB16_130:                             # %if.then281
	movabsq	$.L.str48, %rdi
	xorq	%rax, %rax
	callq	warning
	movq	%rbx, %r8
	movq	%r12, %rsi
	movq	$0, 56(%rsp)            # 8-byte Folded Spill
	movq	(%rsp), %r9             # 8-byte Reload
	movq	16(%rsp), %r11          # 8-byte Reload
	movq	$82, %rcx
.LBB16_133:                             # %if.end294
	movl	flag_traditional(%rip), %eax
	testq	%rax, %rax
	je	.LBB16_135
# BB#134:
	movq	$0, 48(%rsp)            # 8-byte Folded Spill
	xorq	%r12, %r12
	movq	$0, 64(%rsp)            # 8-byte Folded Spill
	movq	$0, 80(%rsp)            # 8-byte Folded Spill
	movq	$0, 72(%rsp)            # 8-byte Folded Spill
	xorq	%rbx, %rbx
	movq	%r15, %rdi
	movq	8(%rsp), %r10           # 8-byte Reload
	jmp	.LBB16_297
.LBB16_135:                             # %if.then296
	movq	%r11, 16(%rsp)          # 8-byte Spill
	movq	%r9, (%rsp)             # 8-byte Spill
	movq	8(%r13), %rax
	movq	128(%rax), %rax
	movq	integer_types+40(%rip), %rdi
	cmpq	%rdi, %rax
	movq	$1, %rbx
	je	.LBB16_136
# BB#137:                               # %if.then303
	movq	%rsi, %r12
	movq	%r13, %rsi
	movq	%r8, %rbx
	callq	convert
	movq	$82, %rcx
	movq	%r12, %rsi
	movq	%rbx, %r8
	movq	$1, %rbx
	movq	%rax, %r13
.LBB16_136:
	movq	$0, 48(%rsp)            # 8-byte Folded Spill
	xorq	%r12, %r12
	jmp	.LBB16_122
.LBB16_111:                             # %if.then233
	movabsq	$.L.str46, %rdi
	xorq	%rax, %rax
	callq	warning
	movq	%rbx, %r8
	movq	%r12, %rsi
	xorq	%r12, %r12
	movq	$0, 56(%rsp)            # 8-byte Folded Spill
	movq	(%rsp), %r9             # 8-byte Reload
	movq	8(%rsp), %r10           # 8-byte Reload
	movq	16(%rsp), %r11          # 8-byte Reload
	movq	$83, %rcx
	jmp	.LBB16_118
.LBB16_283:
	movq	$0, 48(%rsp)            # 8-byte Folded Spill
	xorq	%r12, %r12
	movq	$0, 64(%rsp)            # 8-byte Folded Spill
	movq	$0, 80(%rsp)            # 8-byte Folded Spill
	jmp	.LBB16_82
.LBB16_285:
	movq	$0, 48(%rsp)            # 8-byte Folded Spill
.LBB16_210:
	xorq	%r12, %r12
	movq	$0, 64(%rsp)            # 8-byte Folded Spill
	movq	$0, 80(%rsp)            # 8-byte Folded Spill
	xorq	%rbx, %rbx
	xorq	%rdi, %rdi
	jmp	.LBB16_211
.LBB16_113:
	movabsq	$0, %rax
.LBB16_115:                             # %if.else234
	movq	%rax, 24(%rsp)          # 8-byte Spill
	movl	60(%r15), %esi
	andq	$511, %rsi              # imm = 0x1FF
	movq	%r13, %rdi
	callq	compare_tree_int
	movq	$32, %rcx
	shlq	%cl, %rax
	movq	$32, %rcx
	sarq	%cl, %rax
	testq	%rax, %rax
	js	.LBB16_117
# BB#116:                               # %if.then245
	movabsq	$.L.str47, %rdi
	xorq	%rax, %rax
	callq	warning
.LBB16_117:                             # %if.end248
	movq	%rbx, %r8
	movq	%r12, %rsi
	movq	$0, 56(%rsp)            # 8-byte Folded Spill
	movq	(%rsp), %r9             # 8-byte Reload
	movq	8(%rsp), %r10           # 8-byte Reload
	movq	16(%rsp), %r11          # 8-byte Reload
	movq	$83, %rcx
	movq	24(%rsp), %r12          # 8-byte Reload
.LBB16_118:                             # %if.end248
	movl	flag_traditional(%rip), %eax
	testq	%rax, %rax
	je	.LBB16_120
# BB#119:
	movq	$0, 64(%rsp)            # 8-byte Folded Spill
	movq	$0, 80(%rsp)            # 8-byte Folded Spill
	movq	$0, 72(%rsp)            # 8-byte Folded Spill
	xorq	%rbx, %rbx
	movq	%r15, %rdi
	jmp	.LBB16_297
.LBB16_120:                             # %if.then250
	movq	%r11, 16(%rsp)          # 8-byte Spill
	movq	%r10, 8(%rsp)           # 8-byte Spill
	movq	%r9, (%rsp)             # 8-byte Spill
	movq	8(%r13), %rax
	movq	128(%rax), %rax
	movq	integer_types+40(%rip), %rdi
	cmpq	%rdi, %rax
	movq	$1, %rbx
	je	.LBB16_121
# BB#123:                               # %if.then256
	movq	%r12, 24(%rsp)          # 8-byte Spill
	movq	%rsi, %r12
	movq	%r13, %rsi
	movq	%r8, %rbx
	callq	convert
	movq	$83, %rcx
	movq	%r12, %rsi
	movq	24(%rsp), %r12          # 8-byte Reload
	movq	%rbx, %r8
	movq	$1, %rbx
	movq	%rax, %r13
.LBB16_121:
	movq	$0, 48(%rsp)            # 8-byte Folded Spill
.LBB16_122:                             # %sw.epilog
	movq	$0, 64(%rsp)            # 8-byte Folded Spill
	movq	$0, 80(%rsp)            # 8-byte Folded Spill
	movq	$0, 72(%rsp)            # 8-byte Folded Spill
	movq	%r15, %rdi
.LBB16_233:                             # %sw.epilog
	movq	$0, 56(%rsp)            # 8-byte Folded Spill
	movq	(%rsp), %r9             # 8-byte Reload
	movq	8(%rsp), %r10           # 8-byte Reload
	movq	16(%rsp), %r11          # 8-byte Reload
	jmp	.LBB16_297
.LBB16_207:
	movq	$0, 64(%rsp)            # 8-byte Folded Spill
	movq	$0, 80(%rsp)            # 8-byte Folded Spill
	xorq	%rbx, %rbx
	xorq	%rdi, %rdi
.LBB16_208:                             # %sw.epilog
	movq	%rsi, %rcx
	movq	%r12, %r8
	xorq	%r12, %r12
	movq	$0, 56(%rsp)            # 8-byte Folded Spill
	jmp	.LBB16_297
.LBB16_165:
	movq	%rbx, %r12
	movq	$0, 56(%rsp)            # 8-byte Folded Spill
	movq	64(%rsp), %rbx          # 8-byte Reload
.LBB16_166:                             # %comp_target_types.exit1689
	testq	%r12, %rax
	je	.LBB16_167
.LBB16_172:                             # %if.then396
	movq	%r15, %rdi
	movq	40(%rsp), %rsi          # 8-byte Reload
	callq	common_type
	movq	%rax, %rdi
.LBB16_190:                             # %if.end449
	testq	%rdi, %rdi
	movq	32(%rsp), %rsi          # 8-byte Reload
	movq	(%rsp), %r9             # 8-byte Reload
	movq	16(%rsp), %r11          # 8-byte Reload
	jne	.LBB16_192
# BB#191:
	movq	global_trees+224(%rip), %rdi
.LBB16_192:                             # %if.end449
	movq	%r12, %r8
	movq	8(%rsp), %r10           # 8-byte Reload
	movq	$0, 48(%rsp)            # 8-byte Folded Spill
	xorq	%r12, %r12
	movq	$0, 64(%rsp)            # 8-byte Folded Spill
	movq	$0, 80(%rsp)            # 8-byte Folded Spill
	xorq	%rbx, %rbx
	jmp	.LBB16_296
.LBB16_167:                             # %if.else398
	movzbl	16(%rbx), %eax
	cmpq	$5, %rax
	jne	.LBB16_178
# BB#168:                               # %if.then405
	movl	pedantic(%rip), %eax
	xorq	%rdi, %rdi
	testq	%rax, %rax
	je	.LBB16_169
# BB#173:                               # %land.lhs.true407
	movq	%r14, %rdi
	callq	integer_zerop
	movq	%r12, %rbx
	testq	%rbx, %rax
	je	.LBB16_176
# BB#174:                               # %land.lhs.true407
	movq	96(%rsp), %rax          # 8-byte Reload
	cmpq	%rax, %r14
	jne	.LBB16_176
# BB#175:
	movq	%rbx, %r12
	movq	$0, 56(%rsp)            # 8-byte Folded Spill
	jmp	.LBB16_189
.LBB16_178:                             # %if.else422
	movq	80(%rsp), %rax          # 8-byte Reload
	movzbl	16(%rax), %eax
	cmpq	$5, %rax
	movabsq	$0, %rcx
	jne	.LBB16_186
# BB#179:                               # %if.then429
	movl	pedantic(%rip), %eax
	xorq	%rdi, %rdi
	testq	%rax, %rax
	je	.LBB16_180
# BB#181:                               # %land.lhs.true431
	movq	%r13, %rdi
	callq	integer_zerop
	testq	%r12, %rax
	je	.LBB16_184
# BB#182:                               # %land.lhs.true431
	movq	88(%rsp), %rax          # 8-byte Reload
	cmpq	%rax, %r13
	jne	.LBB16_184
# BB#183:
	movq	$0, 56(%rsp)            # 8-byte Folded Spill
	jmp	.LBB16_189
.LBB16_289:                             # %if.then659
	movabsq	$.L.str55, %rdi
	xorq	%rax, %rax
	movq	$0, 48(%rsp)            # 8-byte Folded Spill
	movq	%rsi, 32(%rsp)          # 8-byte Spill
	movq	%r9, %r12
	movq	%r10, %rbx
	movq	%r11, 16(%rsp)          # 8-byte Spill
	callq	pedwarn
	movq	16(%rsp), %r11          # 8-byte Reload
	movq	%rbx, %r10
	movq	%r12, %r9
	movq	32(%rsp), %rsi          # 8-byte Reload
	movabsq	$4294967295, %r8        # imm = 0xFFFFFFFF
.LBB16_288:                             # %sw.epilog
	xorq	%r12, %r12
	movq	$0, 64(%rsp)            # 8-byte Folded Spill
	movq	$0, 80(%rsp)            # 8-byte Folded Spill
	xorq	%rbx, %rbx
	movq	40(%rsp), %rdi          # 8-byte Reload
.LBB16_211:                             # %sw.epilog
	movq	%rsi, %rcx
	movq	$0, 56(%rsp)            # 8-byte Folded Spill
	jmp	.LBB16_297
.LBB16_186:                             # %if.else446
	movq	%rcx, 56(%rsp)          # 8-byte Spill
	movabsq	$.L.str54, %rdi
	jmp	.LBB16_187
.LBB16_169:
	movq	$0, 56(%rsp)            # 8-byte Folded Spill
	jmp	.LBB16_190
.LBB16_274:
	movq	$0, 48(%rsp)            # 8-byte Folded Spill
.LBB16_275:                             # %sw.epilog
	xorq	%r12, %r12
	movq	$0, 64(%rsp)            # 8-byte Folded Spill
	movq	$0, 80(%rsp)            # 8-byte Folded Spill
	xorq	%rbx, %rbx
	movq	40(%rsp), %rdi          # 8-byte Reload
.LBB16_267:                             # %sw.epilog
	movq	32(%rsp), %rsi          # 8-byte Reload
	movq	%rsi, %rcx
.LBB16_268:                             # %sw.epilog
	movq	$0, 56(%rsp)            # 8-byte Folded Spill
	movq	16(%rsp), %r11          # 8-byte Reload
	jmp	.LBB16_297
.LBB16_412:
	movq	%r12, %rsi
	movl	116(%rsp), %ecx
	movq	24(%rsp), %rdi          # 8-byte Reload
	jmp	.LBB16_418
.LBB16_176:                             # %land.lhs.true413
	movq	%rbx, %r12
	movq	80(%rsp), %rax          # 8-byte Reload
	movzbl	16(%rax), %eax
	cmpq	$23, %rax
	movabsq	$0, %rax
	movq	%rax, 56(%rsp)          # 8-byte Spill
	movabsq	$0, %rdi
	jne	.LBB16_190
# BB#177:                               # %if.then420
	movabsq	$.L.str53, %rdi
.LBB16_187:                             # %if.end449
	xorq	%rax, %rax
.LBB16_188:                             # %if.end449
	callq	pedwarn
.LBB16_189:                             # %if.end449
	xorq	%rdi, %rdi
	jmp	.LBB16_190
.LBB16_180:
	movq	%rcx, 56(%rsp)          # 8-byte Spill
	jmp	.LBB16_190
.LBB16_184:                             # %land.lhs.true437
	movzbl	16(%rbx), %eax
	cmpq	$23, %rax
	movabsq	$0, %rax
	movq	%rax, 56(%rsp)          # 8-byte Spill
	movabsq	$0, %rdi
	jne	.LBB16_190
# BB#185:                               # %if.then444
	movabsq	$.L.str53, %rcx
	xorq	%rax, %rax
	movq	%rcx, %rdi
	jmp	.LBB16_188
.Ltmp167:
	.size	build_binary_op, .Ltmp167-build_binary_op
	.cfi_endproc
	.section	.rodata,"a",@progbits
	.align	8
.LJTI16_0:
	.quad	.LBB16_14
	.quad	.LBB16_21
	.quad	.LBB16_61
	.quad	.LBB16_62
	.quad	.LBB16_62
	.quad	.LBB16_62
	.quad	.LBB16_62
	.quad	.LBB16_88
	.quad	.LBB16_297
	.quad	.LBB16_88
	.quad	.LBB16_297
	.quad	.LBB16_297
	.quad	.LBB16_62
	.quad	.LBB16_297
	.quad	.LBB16_297
	.quad	.LBB16_297
	.quad	.LBB16_297
	.quad	.LBB16_297
	.quad	.LBB16_297
	.quad	.LBB16_215
	.quad	.LBB16_215
	.quad	.LBB16_297
	.quad	.LBB16_297
	.quad	.LBB16_124
	.quad	.LBB16_106
	.quad	.LBB16_138
	.quad	.LBB16_138
	.quad	.LBB16_83
	.quad	.LBB16_83
	.quad	.LBB16_83
	.quad	.LBB16_83
	.quad	.LBB16_297
	.quad	.LBB16_98
	.quad	.LBB16_98
	.quad	.LBB16_98
	.quad	.LBB16_98
	.quad	.LBB16_98
	.quad	.LBB16_297
	.quad	.LBB16_238
	.quad	.LBB16_238
	.quad	.LBB16_238
	.quad	.LBB16_238
	.quad	.LBB16_151
	.quad	.LBB16_151
	.quad	.LBB16_290
	.quad	.LBB16_290
	.quad	.LBB16_290
	.quad	.LBB16_290
	.quad	.LBB16_290
	.quad	.LBB16_290
	.quad	.LBB16_290

	.text
	.globl	build_external_ref
	.align	16, 0x90
	.type	build_external_ref,@function
build_external_ref:                     # @build_external_ref
	.cfi_startproc
# BB#0:                                 # %entry
	pushq	%r15
.Ltmp173:
	.cfi_def_cfa_offset 16
	pushq	%r14
.Ltmp174:
	.cfi_def_cfa_offset 24
	pushq	%r12
.Ltmp175:
	.cfi_def_cfa_offset 32
	pushq	%rbx
.Ltmp176:
	.cfi_def_cfa_offset 40
	pushq	%rax
.Ltmp177:
	.cfi_def_cfa_offset 48
.Ltmp178:
	.cfi_offset %rbx, -40
.Ltmp179:
	.cfi_offset %r12, -32
.Ltmp180:
	.cfi_offset %r14, -24
.Ltmp181:
	.cfi_offset %r15, -16
	movq	%rsi, %r12
	movq	%rdi, %r14
                                        # kill: RDI<def> R14<kill>
	callq	lookup_name
	movq	%rax, %r15
	movq	%r14, %rdi
	callq	lookup_objc_ivar
	movq	%rax, %rbx
	testq	%r15, %r15
	je	.LBB17_5
# BB#1:                                 # %land.lhs.true
	movzbl	18(%r15), %eax
	testq	$128, %rax
	je	.LBB17_3
# BB#2:                                 # %if.then
	movq	%r15, %rdi
	callq	warn_deprecated_use
.LBB17_3:                               # %if.end
	movq	global_trees(%rip), %rax
	cmpq	%rax, %r15
	je	.LBB17_5
# BB#4:                                 # %lor.lhs.false4
	movzbl	53(%r15), %eax
	testq	$1, %rax
	je	.LBB17_21
.LBB17_5:                               # %if.then10
	testq	%rbx, %rbx
	jne	.LBB17_26
# BB#6:                                 # %if.else
	movabsq	$4294967295, %rax       # imm = 0xFFFFFFFF
	testq	%rax, %r12
	je	.LBB17_14
# BB#7:                                 # %if.then14
	testq	%r15, %r15
	jne	.LBB17_8
# BB#9:                                 # %if.then14
	movabsq	$1, %rax
	jmp	.LBB17_10
.LBB17_21:                              # %if.else47
	testq	%rbx, %rbx
	je	.LBB17_25
# BB#22:                                # %if.else47
	cmpq	%rbx, %r15
	je	.LBB17_25
# BB#23:                                # %land.lhs.true52
	cmpq	$0, 64(%r14)
	je	.LBB17_26
# BB#24:                                # %if.then54
	movq	32(%r14), %rsi
	movabsq	$.L.str34, %rdi
	xorq	%rax, %rax
	callq	warning
	jmp	.LBB17_25
.LBB17_14:                              # %if.else26
	movq	current_function_decl(%rip), %rax
	testq	%rax, %rax
	je	.LBB17_15
# BB#16:                                # %if.else30
	movq	56(%r14), %rcx
	movq	global_trees(%rip), %rdx
	cmpq	%rdx, %rcx
	jne	.LBB17_18
# BB#17:                                # %lor.lhs.false32
	movq	88(%r14), %rcx
	cmpq	%rax, %rcx
	je	.LBB17_20
.LBB17_18:                              # %if.then34
	movq	32(%r14), %rsi
	movabsq	$.L.str31, %rdi
	xorq	%rax, %rax
	callq	error
	movzbl	undeclared_variable_notice(%rip), %eax
	testq	%rax, %rax
	jne	.LBB17_20
# BB#19:                                # %if.then39
	movabsq	$.L.str32, %rdi
	xorq	%rax, %rax
	callq	error
	movabsq	$.L.str33, %rdi
	xorq	%rax, %rax
	callq	error
	movq	$1, %rax
	movb	%al, undeclared_variable_notice(%rip)
.LBB17_20:                              # %if.end41
	movq	global_trees(%rip), %rax
	movq	%rax, 56(%r14)
	movq	current_function_decl(%rip), %rax
	movq	%rax, 88(%r14)
	movq	global_trees(%rip), %rax
	jmp	.LBB17_30
.LBB17_8:
	movabsq	$0, %rax
.LBB17_10:                              # %if.then14
	movq	global_trees(%rip), %rcx
	cmpq	%rcx, %r15
	je	.LBB17_12
# BB#11:                                # %if.then14
	testq	%rax, %rax
	jne	.LBB17_12
# BB#13:                                # %if.else20
	movq	%r14, %rdi
	callq	implicit_decl_warning
	movabsq	$-1099511627777, %rax   # imm = 0xFFFFFEFFFFFFFFFF
	andq	%rax, 48(%r15)
.LBB17_25:                              # %if.end61
	movq	%r15, %rbx
	jmp	.LBB17_26
.LBB17_12:                              # %if.then18
	movq	%r14, %rdi
	callq	implicitly_declare
	movq	%rax, %rbx
.LBB17_26:                              # %if.end61
	movq	8(%rbx), %rax
	movq	global_trees(%rip), %rcx
	cmpq	%rcx, %rax
	je	.LBB17_30
# BB#27:                                # %if.end65
	movq	%rbx, %rdi
	callq	assemble_external
	movl	16(%rbx), %eax
	movq	%rax, %rcx
	orq	$65536, %rcx            # imm = 0x10000
	movl	%ecx, 16(%rbx)
	andq	$255, %rax
	cmpq	$32, %rax
	jne	.LBB17_28
# BB#29:                                # %if.then73
	movq	104(%rbx), %rax
	movl	16(%rax), %ecx
	orq	$512, %rcx              # imm = 0x200
	movl	%ecx, 16(%rax)
	jmp	.LBB17_30
.LBB17_28:
	movq	%rbx, %rax
.LBB17_30:                              # %return
	addq	$8, %rsp
	popq	%rbx
	popq	%r12
	popq	%r14
	popq	%r15
	retq
.LBB17_15:                              # %if.then28
	movq	32(%r14), %rsi
	movabsq	$.L.str30, %rdi
	xorq	%rax, %rax
	callq	error
	movq	global_trees(%rip), %rax
	jmp	.LBB17_30
.Ltmp182:
	.size	build_external_ref, .Ltmp182-build_external_ref
	.cfi_endproc

	.globl	build_function_call
	.align	16, 0x90
	.type	build_function_call,@function
build_function_call:                    # @build_function_call
	.cfi_startproc
# BB#0:                                 # %entry
	pushq	%r15
.Ltmp189:
	.cfi_def_cfa_offset 16
	pushq	%r14
.Ltmp190:
	.cfi_def_cfa_offset 24
	pushq	%r13
.Ltmp191:
	.cfi_def_cfa_offset 32
	pushq	%r12
.Ltmp192:
	.cfi_def_cfa_offset 40
	pushq	%rbx
.Ltmp193:
	.cfi_def_cfa_offset 48
	subq	$64, %rsp
.Ltmp194:
	.cfi_def_cfa_offset 112
.Ltmp195:
	.cfi_offset %rbx, -48
.Ltmp196:
	.cfi_offset %r12, -40
.Ltmp197:
	.cfi_offset %r13, -32
.Ltmp198:
	.cfi_offset %r14, -24
.Ltmp199:
	.cfi_offset %r15, -16
	movq	global_trees(%rip), %rax
	movq	%rsi, %r15
	movabsq	$4294967295, %rbx       # imm = 0xFFFFFFFF
	.align	16, 0x90
.LBB18_1:                               # %while.cond
                                        # =>This Inner Loop Header: Depth=1
	movq	%rdi, %r12
	movl	16(%r12), %esi
	movq	%rsi, %rcx
	andq	$255, %rcx
	leaq	-114(%rcx), %rdx
	andq	%rbx, %rdx
	cmpq	$2, %rdx
	ja	.LBB18_5
# BB#2:                                 # %land.lhs.true
                                        #   in Loop: Header=BB18_1 Depth=1
	movq	32(%r12), %rdi
	cmpq	%rax, %rdi
	je	.LBB18_4
# BB#3:                                 # %land.rhs
                                        #   in Loop: Header=BB18_1 Depth=1
	movq	8(%r12), %rcx
	movq	8(%rdi), %rdx
	cmpq	%rdx, %rcx
	je	.LBB18_1
	jmp	.LBB18_4
.LBB18_5:                               # %while.end
	cmpq	$30, %rcx
	jne	.LBB18_4
# BB#6:                                 # %if.then
	movq	72(%r12), %r14
	cmpq	$0, 120(%r12)
	jne	.LBB18_8
# BB#7:                                 # %cond.false
	movq	%r12, %rdi
	callq	*lang_set_decl_assembler_name(%rip)
	movl	16(%r12), %esi
.LBB18_8:                               # %cond.end
	movq	8(%r12), %rdi
	andq	%rbx, %rsi
	movq	$12, %rcx
	movq	%rsi, %rax
	shrq	%cl, %rax
	andq	$1, %rax
	movq	$10, %rcx
	shrq	%cl, %rsi
	andq	$2, %rsi
	orq	%rax, %rsi
	callq	build_qualified_type
	movq	%rax, %rdi
	callq	build_pointer_type
	movq	$121, %rdi
	movq	%rax, %rsi
	movq	%r12, %rdx
	callq	build1
	jmp	.LBB18_9
.LBB18_4:                               # %if.else
	movq	%r12, %rdi
	callq	default_conversion
	xorq	%r12, %r12
	xorq	%r14, %r14
.LBB18_9:                               # %if.end
	movq	8(%rax), %rdx
	movzbl	16(%rdx), %ecx
	cmpq	$13, %rcx
	jne	.LBB18_10
# BB#11:                                # %land.lhs.true62
	movq	8(%rdx), %rdx
	movzbl	16(%rdx), %ecx
	cmpq	$23, %rcx
	jne	.LBB18_12
# BB#13:                                # %if.end71
	movq	%r14, 40(%rsp)          # 8-byte Spill
	testq	%r12, %r12
	je	.LBB18_16
# BB#14:                                # %land.lhs.true73
	movzbl	17(%r12), %ecx
	testq	$8, %rcx
	je	.LBB18_16
# BB#15:                                # %if.then80
	movq	$1, %rcx
	movl	%ecx, current_function_returns_abnormally(%rip)
.LBB18_16:                              # %if.end81
	movq	%rax, 32(%rsp)          # 8-byte Spill
	movq	24(%rdx), %rcx
	movq	%rdx, 24(%rsp)          # 8-byte Spill
	xorq	%rbx, %rbx
	testq	%r15, %r15
	je	.LBB18_17
# BB#18:
	movq	$1, %r14
	movq	%r15, %r13
	movq	%r15, 16(%rsp)          # 8-byte Spill
	jmp	.LBB18_19
	.align	16, 0x90
.LBB18_26:                              # %if.end6.i
                                        #   in Loop: Header=BB18_19 Depth=1
	movq	32(%r13), %rdi
	movzbl	16(%rdi), %eax
	cmpq	$116, %rax
	jne	.LBB18_28
# BB#27:                                # %if.then8.i
                                        #   in Loop: Header=BB18_19 Depth=1
	movq	32(%rdi), %rdi
.LBB18_28:                              # %if.end9.i
                                        #   in Loop: Header=BB18_19 Depth=1
	callq	default_function_array_conversion
	movq	global_trees(%rip), %r15
	cmpq	%rax, %r15
	je	.LBB18_33
# BB#29:                                # %if.end9.i
                                        #   in Loop: Header=BB18_19 Depth=1
	movq	8(%rax), %rsi
	cmpq	%r15, %rsi
	je	.LBB18_33
# BB#30:                                # %if.end.i.i
                                        #   in Loop: Header=BB18_19 Depth=1
	cmpq	$0, 32(%rsi)
	jne	.LBB18_31
# BB#32:                                # %if.end6.i.i
                                        #   in Loop: Header=BB18_19 Depth=1
	movq	%rax, %rdi
	callq	incomplete_type_error
	movq	global_trees(%rip), %r15
	jmp	.LBB18_33
	.align	16, 0x90
.LBB18_31:                              #   in Loop: Header=BB18_19 Depth=1
	movq	%rax, %r15
.LBB18_33:                              # %require_complete_type.exit.i
                                        #   in Loop: Header=BB18_19 Depth=1
	testq	%rbx, %rbx
	jne	.LBB18_34
# BB#89:                                # %if.else448.i
                                        #   in Loop: Header=BB18_19 Depth=1
	movq	8(%r15), %rax
	movzbl	16(%rax), %ecx
	cmpq	$7, %rcx
	jne	.LBB18_92
# BB#90:                                # %land.lhs.true456.i
                                        #   in Loop: Header=BB18_19 Depth=1
	movq	global_trees+200(%rip), %rdi
	movl	60(%rax), %eax
	movl	60(%rdi), %ecx
	andq	$511, %rax              # imm = 0x1FF
	andq	$511, %rcx              # imm = 0x1FF
	cmpq	%rcx, %rax
	jae	.LBB18_92
# BB#91:                                # %if.then468.i
                                        #   in Loop: Header=BB18_19 Depth=1
	movq	%r15, %rsi
	callq	convert
	jmp	.LBB18_93
	.align	16, 0x90
.LBB18_34:                              # %if.then12.i
                                        #   in Loop: Header=BB18_19 Depth=1
	cmpq	$0, 32(%rbx)
	jne	.LBB18_36
# BB#35:                                # %if.then15.i
                                        #   in Loop: Header=BB18_19 Depth=1
	xorq	%rax, %rax
	movabsq	$.L.str185, %rdi
	movq	%r14, %rsi
	callq	error
	jmp	.LBB18_88
	.align	16, 0x90
.LBB18_92:                              # %if.else471.i
                                        #   in Loop: Header=BB18_19 Depth=1
	movq	%r15, %rdi
	callq	default_conversion
.LBB18_93:                              # %if.end475.i
                                        #   in Loop: Header=BB18_19 Depth=1
	xorq	%rdi, %rdi
	movq	%rax, %rsi
	movq	56(%rsp), %rdx          # 8-byte Reload
	jmp	.LBB18_94
	.align	16, 0x90
.LBB18_36:                              # %if.else16.i
                                        #   in Loop: Header=BB18_19 Depth=1
	movl	warn_conversion(%rip), %eax
	movl	warn_traditional(%rip), %ecx
	orq	%rax, %rcx
	movabsq	$4294967295, %rsi       # imm = 0xFFFFFFFF
	testq	%rsi, %rcx
	je	.LBB18_83
# BB#37:                                # %if.then19.i
                                        #   in Loop: Header=BB18_19 Depth=1
	movl	16(%rbx), %eax
	movl	60(%rbx), %r9d
	movq	%rax, %rcx
	andq	$255, %rcx
	cmpq	$12, %rcx
	ja	.LBB18_41
# BB#38:                                # %if.then19.i
                                        #   in Loop: Header=BB18_19 Depth=1
	movq	$1, %rdx
	shlq	%cl, %rdx
	testq	$7232, %rdx             # imm = 0x1C40
	je	.LBB18_41
# BB#39:                                # %land.lhs.true.i
                                        #   in Loop: Header=BB18_19 Depth=1
	movq	8(%r15), %rcx
	movzbl	16(%rcx), %ecx
	cmpq	$7, %rcx
	jne	.LBB18_41
# BB#40:                                # %if.then53.i
                                        #   in Loop: Header=BB18_19 Depth=1
	xorq	%rsi, %rsi
	movabsq	$.L.str186, %rdi
	movq	40(%rsp), %rdx          # 8-byte Reload
	movq	%r14, %rcx
	callq	warn_for_assignment
	movl	60(%rbx), %r9d
	movabsq	$4294967295, %rsi       # imm = 0xFFFFFFFF
	movl	16(%rbx), %eax
.LBB18_41:                              # %if.end55.i
                                        #   in Loop: Header=BB18_19 Depth=1
	andq	$511, %r9               # imm = 0x1FF
	andq	$255, %rax
	leaq	-6(%rax), %rcx
	andq	%rsi, %rcx
	cmpq	$6, %rcx
	ja	.LBB18_60
# BB#42:                                # %if.end55.i
                                        #   in Loop: Header=BB18_19 Depth=1
	jmpq	*.LJTI18_0(,%rcx,8)
.LBB18_44:                              # %land.lhs.true79.i
                                        #   in Loop: Header=BB18_19 Depth=1
	movq	%rsi, %r8
	movq	8(%r15), %rcx
	movl	16(%rcx), %ecx
	movq	%rcx, %rdx
	andq	$255, %rdx
	cmpq	$8, %rdx
	jne	.LBB18_46
# BB#45:                                # %if.then87.i
                                        #   in Loop: Header=BB18_19 Depth=1
	xorq	%rsi, %rsi
	movabsq	$.L.str187, %rdi
	jmp	.LBB18_82
.LBB18_46:                              # %if.else89.i
                                        #   in Loop: Header=BB18_19 Depth=1
	cmpq	$7, %rax
	movq	%r8, %rsi
	je	.LBB18_53
# BB#47:                                # %if.else89.i
                                        #   in Loop: Header=BB18_19 Depth=1
	cmpq	$8, %rax
	jne	.LBB18_60
	jmp	.LBB18_48
.LBB18_52:                              # %if.end55.i.land.lhs.true111.i_crit_edge
                                        #   in Loop: Header=BB18_19 Depth=1
	movq	8(%r15), %rcx
	movl	16(%rcx), %ecx
.LBB18_53:                              # %land.lhs.true111.i
                                        #   in Loop: Header=BB18_19 Depth=1
	andq	$255, %rcx
	addq	$-6, %rcx
	andq	%rsi, %rcx
	cmpq	$6, %rcx
	ja	.LBB18_60
# BB#54:                                # %land.lhs.true111.i
                                        #   in Loop: Header=BB18_19 Depth=1
	jmpq	*.LJTI18_1(,%rcx,8)
.LBB18_55:                              # %if.then143.i
                                        #   in Loop: Header=BB18_19 Depth=1
	xorq	%rsi, %rsi
	movabsq	$.L.str189, %rdi
	jmp	.LBB18_82
.LBB18_43:                              # %if.end55.i.land.lhs.true95.i_crit_edge
                                        #   in Loop: Header=BB18_19 Depth=1
	movq	8(%r15), %rcx
	movl	16(%rcx), %ecx
.LBB18_48:                              # %land.lhs.true95.i
                                        #   in Loop: Header=BB18_19 Depth=1
	andq	$255, %rcx
	leaq	-10(%rcx), %rdx
	andq	%rsi, %rdx
	cmpq	$3, %rdx
	jb	.LBB18_56
# BB#49:                                # %land.lhs.true95.i
                                        #   in Loop: Header=BB18_19 Depth=1
	cmpq	$6, %rcx
	jne	.LBB18_50
.LBB18_56:                              # %if.then183.i
                                        #   in Loop: Header=BB18_19 Depth=1
	xorq	%rsi, %rsi
	movabsq	$.L.str190, %rdi
.LBB18_82:                              # %if.end405.i
                                        #   in Loop: Header=BB18_19 Depth=1
	movq	40(%rsp), %rdx          # 8-byte Reload
	movq	%r14, %rcx
	callq	warn_for_assignment
	jmp	.LBB18_83
.LBB18_50:                              # %land.lhs.true95.i
                                        #   in Loop: Header=BB18_19 Depth=1
	cmpq	$7, %rcx
	jne	.LBB18_60
# BB#51:                                # %if.then103.i
                                        #   in Loop: Header=BB18_19 Depth=1
	xorq	%rsi, %rsi
	movabsq	$.L.str188, %rdi
	jmp	.LBB18_82
.LBB18_60:                              # %if.else224.i
                                        #   in Loop: Header=BB18_19 Depth=1
	movl	warn_conversion(%rip), %ecx
	testq	%rcx, %rcx
	je	.LBB18_83
# BB#61:                                # %land.lhs.true226.i
                                        #   in Loop: Header=BB18_19 Depth=1
	cmpq	$12, %rax
	ja	.LBB18_83
# BB#62:                                # %land.lhs.true226.i
                                        #   in Loop: Header=BB18_19 Depth=1
	movq	$1, %rdx
	movq	%rax, %rcx
	shlq	%cl, %rdx
	testq	$7232, %rdx             # imm = 0x1C40
	je	.LBB18_83
# BB#63:                                # %land.lhs.true250.i
                                        #   in Loop: Header=BB18_19 Depth=1
	movq	8(%r15), %rax
	movzbl	16(%rax), %ecx
	cmpq	$12, %rcx
	ja	.LBB18_83
# BB#64:                                # %land.lhs.true250.i
                                        #   in Loop: Header=BB18_19 Depth=1
	movq	$1, %rax
	shlq	%cl, %rax
	testq	$7232, %rax             # imm = 0x1C40
	je	.LBB18_83
# BB#65:                                # %if.then282.i
                                        #   in Loop: Header=BB18_19 Depth=1
	movq	%r15, %rdi
	movq	%r9, 8(%rsp)            # 8-byte Spill
	callq	default_conversion
	movq	8(%rsp), %rdi           # 8-byte Reload
	movabsq	$4294967295, %rcx       # imm = 0xFFFFFFFF
	movq	%rcx, %r9
	movl	16(%rbx), %r8d
	movq	8(%rax), %rdx
	movq	%r8, %rax
	andq	$255, %rax
	cmpq	$10, %rax
	jne	.LBB18_67
# BB#66:                                # %land.lhs.true291.i
                                        #   in Loop: Header=BB18_19 Depth=1
	movq	8(%r15), %rsi
	movq	128(%rbx), %rcx
	movq	128(%rsi), %rsi
	cmpq	%rsi, %rcx
	je	.LBB18_83
.LBB18_67:                              # %if.else299.i
                                        #   in Loop: Header=BB18_19 Depth=1
	movl	60(%rdx), %esi
	andq	$511, %rsi              # imm = 0x1FF
	andq	%r9, %rdi
	cmpq	%rsi, %rdi
	jne	.LBB18_68
# BB#69:                                # %if.else307.i
                                        #   in Loop: Header=BB18_19 Depth=1
	movl	16(%rdx), %edx
	xorq	%r8, %rdx
	testq	$8192, %rdx             # imm = 0x2000
	je	.LBB18_83
# BB#70:                                # %if.else307.i
                                        #   in Loop: Header=BB18_19 Depth=1
	cmpq	$10, %rax
	je	.LBB18_83
# BB#71:                                # %if.else325.i
                                        #   in Loop: Header=BB18_19 Depth=1
	movl	16(%r15), %eax
	movq	%rax, %rcx
	andq	$255, %rcx
	cmpq	$25, %rcx
	jne	.LBB18_74
# BB#72:                                # %land.lhs.true331.i
                                        #   in Loop: Header=BB18_19 Depth=1
	movq	%r15, %rdi
	movq	%rbx, %rsi
	callq	int_fits_type_p
	movabsq	$4294967295, %rcx       # imm = 0xFFFFFFFF
	testq	%rcx, %rax
	jne	.LBB18_83
# BB#73:                                # %land.lhs.true331.if.else335_crit_edge.i
                                        #   in Loop: Header=BB18_19 Depth=1
	movl	16(%r15), %eax
.LBB18_74:                              # %if.else335.i
                                        #   in Loop: Header=BB18_19 Depth=1
	andq	$255, %rax
	cmpq	$115, %rax
	jne	.LBB18_77
# BB#75:                                # %land.lhs.true341.i
                                        #   in Loop: Header=BB18_19 Depth=1
	movq	32(%r15), %rdi
	movzbl	16(%rdi), %eax
	cmpq	$25, %rax
	jne	.LBB18_77
# BB#76:                                # %land.lhs.true350.i
                                        #   in Loop: Header=BB18_19 Depth=1
	movq	%rbx, %rsi
	callq	int_fits_type_p
	movabsq	$4294967295, %rcx       # imm = 0xFFFFFFFF
	testq	%rcx, %rax
	jne	.LBB18_83
.LBB18_77:                              # %if.else357.i
                                        #   in Loop: Header=BB18_19 Depth=1
	movq	8(%r15), %rax
	movl	60(%rax), %ecx
	movl	60(%rbx), %edx
	andq	$511, %rcx              # imm = 0x1FF
	andq	$511, %rdx              # imm = 0x1FF
	cmpq	%rdx, %rcx
	jae	.LBB18_79
# BB#78:                                # %land.lhs.true369.i
                                        #   in Loop: Header=BB18_19 Depth=1
	movzbl	17(%rax), %eax
	testq	$32, %rax
	jne	.LBB18_83
.LBB18_79:                              # %if.else379.i
                                        #   in Loop: Header=BB18_19 Depth=1
	movzbl	17(%rbx), %eax
	xorq	%rsi, %rsi
	testq	$32, %rax
	jne	.LBB18_80
# BB#81:                                # %if.else388.i
                                        #   in Loop: Header=BB18_19 Depth=1
	movabsq	$.L.str195, %rdi
	jmp	.LBB18_82
.LBB18_68:                              # %if.then305.i
                                        #   in Loop: Header=BB18_19 Depth=1
	xorq	%rsi, %rsi
	movabsq	$.L.str193, %rdi
	jmp	.LBB18_82
.LBB18_58:                              # %if.then215.i
                                        #   in Loop: Header=BB18_19 Depth=1
	movq	global_trees+192(%rip), %rax
	movl	60(%rax), %eax
	andq	$511, %rax              # imm = 0x1FF
	andq	%rsi, %r9
	cmpq	%rax, %r9
	jne	.LBB18_83
# BB#59:                                # %if.then221.i
                                        #   in Loop: Header=BB18_19 Depth=1
	xorq	%rsi, %rsi
	movabsq	$.L.str192, %rdi
	jmp	.LBB18_82
	.align	16, 0x90
.LBB18_83:                              # %if.end405.i
                                        #   in Loop: Header=BB18_19 Depth=1
	xorq	%rdx, %rdx
	movq	%rbx, %rdi
	movq	%r15, %rsi
	movq	%r12, %rcx
	movq	40(%rsp), %r8           # 8-byte Reload
	movq	%r14, %r9
	callq	convert_for_assignment
	movzbl	target_flags+3(%rip), %ecx
	movq	%rax, %r15
	testq	$2, %rcx
	jne	.LBB18_88
# BB#84:                                # %land.lhs.true409.i
                                        #   in Loop: Header=BB18_19 Depth=1
	movzbl	16(%rbx), %ecx
	cmpq	$12, %rcx
	ja	.LBB18_88
# BB#85:                                # %land.lhs.true409.i
                                        #   in Loop: Header=BB18_19 Depth=1
	movq	$1, %rax
	shlq	%cl, %rax
	testq	$7232, %rax             # imm = 0x1C40
	je	.LBB18_88
# BB#86:                                # %land.lhs.true433.i
                                        #   in Loop: Header=BB18_19 Depth=1
	movq	integer_types+40(%rip), %rax
	movl	60(%rbx), %ecx
	movl	60(%rax), %eax
	andq	$511, %rcx              # imm = 0x1FF
	andq	$511, %rax              # imm = 0x1FF
	cmpq	%rax, %rcx
	jae	.LBB18_88
# BB#87:                                # %if.then443.i
                                        #   in Loop: Header=BB18_19 Depth=1
	movq	%r15, %rdi
	callq	default_conversion
	movq	%rax, %r15
	.align	16, 0x90
.LBB18_88:                              # %if.end446.i
                                        #   in Loop: Header=BB18_19 Depth=1
	movq	56(%rsp), %rdx          # 8-byte Reload
	xorq	%rdi, %rdi
	movq	%r15, %rsi
.LBB18_94:                              # %if.end475.i
                                        #   in Loop: Header=BB18_19 Depth=1
	callq	tree_cons
	movq	%rax, %rbx
	xorq	%rax, %rax
	movq	48(%rsp), %rcx          # 8-byte Reload
	testq	%rcx, %rcx
	je	.LBB18_96
# BB#95:                                # %if.then477.i
                                        #   in Loop: Header=BB18_19 Depth=1
	movq	(%rcx), %rax
.LBB18_96:                              # %for.inc.i
                                        #   in Loop: Header=BB18_19 Depth=1
	movq	(%r13), %r13
	incq	%r14
	testq	%r13, %r13
	movq	%rax, %rcx
	jne	.LBB18_19
	jmp	.LBB18_97
.LBB18_57:                              # %if.then199.i
                                        #   in Loop: Header=BB18_19 Depth=1
	xorq	%rsi, %rsi
	movabsq	$.L.str191, %rdi
	jmp	.LBB18_82
.LBB18_80:                              # %if.then386.i
                                        #   in Loop: Header=BB18_19 Depth=1
	movabsq	$.L.str194, %rdi
	jmp	.LBB18_82
	.align	16, 0x90
.LBB18_19:                              # %for.body.i
                                        # =>This Inner Loop Header: Depth=1
	movq	%rbx, 56(%rsp)          # 8-byte Spill
	testq	%rcx, %rcx
	movabsq	$0, %rbx
	je	.LBB18_21
# BB#20:                                # %cond.true.i
                                        #   in Loop: Header=BB18_19 Depth=1
	movq	32(%rcx), %rbx
.LBB18_21:                              # %cond.end.i
                                        #   in Loop: Header=BB18_19 Depth=1
	movq	%rcx, 48(%rsp)          # 8-byte Spill
	movq	global_trees+216(%rip), %rax
	cmpq	%rax, %rbx
	jne	.LBB18_26
# BB#22:                                # %if.then.i
	movq	40(%rsp), %rax          # 8-byte Reload
	testq	%rax, %rax
	je	.LBB18_24
# BB#23:                                # %if.then5.i
	movq	32(%rax), %rsi
	movabsq	$.L.str183, %rdi
	xorq	%rax, %rax
	callq	error
	jmp	.LBB18_25
.LBB18_10:                              # %if.end
	testq	%rcx, %rcx
	je	.LBB18_115
.LBB18_12:                              # %if.then70
	movabsq	$.L.str35, %rdi
	xorq	%rax, %rax
	callq	error
.LBB18_115:                             # %return
	movq	global_trees(%rip), %rax
.LBB18_116:                             # %return
	addq	$64, %rsp
	popq	%rbx
	popq	%r12
	popq	%r13
	popq	%r14
	popq	%r15
	retq
.LBB18_17:
	movq	%r15, 16(%rsp)          # 8-byte Spill
	movq	%rcx, %rax
	jmp	.LBB18_97
.LBB18_24:                              # %if.else.i
	movabsq	$.L.str184, %rdi
	xorq	%rax, %rax
	callq	error
.LBB18_25:                              # %for.end.i
	movq	48(%rsp), %rax          # 8-byte Reload
	movq	56(%rsp), %rbx          # 8-byte Reload
.LBB18_97:                              # %for.end.i
	testq	%rax, %rax
	movq	32(%rsp), %r14          # 8-byte Reload
	je	.LBB18_102
# BB#98:                                # %land.lhs.true483.i
	movq	32(%rax), %rax
	movq	global_trees+216(%rip), %rcx
	cmpq	%rcx, %rax
	je	.LBB18_102
# BB#99:                                # %if.then487.i
	movq	40(%rsp), %rax          # 8-byte Reload
	testq	%rax, %rax
	je	.LBB18_101
# BB#100:                               # %if.then489.i
	movq	32(%rax), %rsi
	movabsq	$.L.str196, %rdi
	xorq	%rax, %rax
	callq	error
	jmp	.LBB18_102
.LBB18_101:                             # %if.else493.i
	movabsq	$.L.str197, %rdi
	xorq	%rax, %rax
	callq	error
.LBB18_102:                             # %convert_arguments.exit
	movq	%rbx, %rdi
	callq	nreverse
	movl	warn_format(%rip), %ecx
	movq	%rax, %r15
	testq	%rcx, %rcx
	movq	24(%rsp), %rbx          # 8-byte Reload
	je	.LBB18_104
# BB#103:                               # %if.then87
	movq	48(%rbx), %rsi
	xorq	%rdi, %rdi
	movq	%r15, %rdx
	callq	check_function_format
.LBB18_104:                             # %if.end89
	movzbl	16(%r14), %eax
	cmpq	$121, %rax
	movq	16(%rsp), %rsi          # 8-byte Reload
	jne	.LBB18_108
# BB#105:                               # %land.lhs.true95
	movq	32(%r14), %rdi
	movzbl	16(%rdi), %eax
	cmpq	$30, %rax
	jne	.LBB18_108
# BB#106:                               # %land.lhs.true104
	movzbl	51(%rdi), %eax
	testq	$96, %rax
	je	.LBB18_108
# BB#107:                               # %if.then113
	movq	%r15, %rdx
	callq	expand_tree_builtin
	testq	%rax, %rax
	jne	.LBB18_116
.LBB18_108:                             # %if.end121
	movq	8(%rbx), %rsi
	movq	$53, %rdi
	xorq	%r8, %r8
	xorq	%rax, %rax
	movq	%r14, %rdx
	movq	%r15, %rcx
	callq	build
	movl	16(%rax), %ecx
	orq	$256, %rcx              # imm = 0x100
	movl	%ecx, 16(%rax)
	movq	%rax, %rdi
	callq	fold
	movq	%rax, %rcx
	movq	8(%rcx), %rsi
	movzbl	16(%rsi), %eax
	cmpq	$5, %rax
	jne	.LBB18_110
# BB#109:
	movq	%rcx, %rax
	jmp	.LBB18_116
.LBB18_110:                             # %if.end137
	movq	global_trees(%rip), %rax
	cmpq	%rcx, %rax
	je	.LBB18_116
# BB#111:                               # %if.end137
	cmpq	%rax, %rsi
	je	.LBB18_116
# BB#112:                               # %if.end.i
	cmpq	$0, 32(%rsi)
	je	.LBB18_114
# BB#113:
	movq	%rcx, %rax
	jmp	.LBB18_116
.LBB18_114:                             # %if.end6.i181
	movq	%rcx, %rdi
	callq	incomplete_type_error
	jmp	.LBB18_115
.Ltmp200:
	.size	build_function_call, .Ltmp200-build_function_call
	.cfi_endproc
	.section	.rodata,"a",@progbits
	.align	8
.LJTI18_0:
	.quad	.LBB18_44
	.quad	.LBB18_52
	.quad	.LBB18_43
	.quad	.LBB18_60
	.quad	.LBB18_44
	.quad	.LBB18_44
	.quad	.LBB18_44
.LJTI18_1:
	.quad	.LBB18_55
	.quad	.LBB18_58
	.quad	.LBB18_57
	.quad	.LBB18_60
	.quad	.LBB18_55
	.quad	.LBB18_55
	.quad	.LBB18_55

	.text
	.globl	parser_build_binary_op
	.align	16, 0x90
	.type	parser_build_binary_op,@function
parser_build_binary_op:                 # @parser_build_binary_op
	.cfi_startproc
# BB#0:                                 # %entry
	pushq	%r15
.Ltmp207:
	.cfi_def_cfa_offset 16
	pushq	%r14
.Ltmp208:
	.cfi_def_cfa_offset 24
	pushq	%r13
.Ltmp209:
	.cfi_def_cfa_offset 32
	pushq	%r12
.Ltmp210:
	.cfi_def_cfa_offset 40
	pushq	%rbx
.Ltmp211:
	.cfi_def_cfa_offset 48
	subq	$16, %rsp
.Ltmp212:
	.cfi_def_cfa_offset 64
.Ltmp213:
	.cfi_offset %rbx, -48
.Ltmp214:
	.cfi_offset %r12, -40
.Ltmp215:
	.cfi_offset %r13, -32
.Ltmp216:
	.cfi_offset %r14, -24
.Ltmp217:
	.cfi_offset %r15, -16
	movq	%rdx, %r15
	movq	%rsi, %rbx
	movq	%rdi, %r14
	movq	$1, %rcx
                                        # kill: RDI<def> R14<kill>
                                        # kill: RSI<def> RBX<kill>
                                        # kill: RDX<def> R15<kill>
	callq	build_binary_op
	movq	%rax, %r12
	movzbl	16(%r12), %eax
	testq	%rax, %rax
	je	.LBB19_1
# BB#2:                                 # %if.end
	movzbl	16(%rbx), %eax
	movzbl	16(%r15), %edx
	movzbl	tree_code_type(%rax), %ecx
	movzbl	tree_code_type(%rdx), %eax
	xorq	%rsi, %rsi
	addq	$-49, %rcx
	andq	$255, %rcx
	cmpq	$52, %rcx
	movabsq	$0, %r13
	ja	.LBB19_5
# BB#3:                                 # %if.end
	movq	$1, %rdx
	shlq	%cl, %rdx
	movabsq	$4503599627372547, %rcx # imm = 0x10000000000803
	testq	%rcx, %rdx
	movabsq	$0, %r13
	je	.LBB19_5
# BB#4:                                 # %if.then26
	movl	24(%rbx), %r13d
.LBB19_5:                               # %if.end27
	addq	$-49, %rax
	andq	$255, %rax
	cmpq	$52, %rax
	jbe	.LBB19_7
# BB#6:
	movq	%rbx, 8(%rsp)           # 8-byte Spill
	jmp	.LBB19_9
.LBB19_1:                               # %if.then
	movq	global_trees(%rip), %r12
	jmp	.LBB19_59
.LBB19_7:                               # %if.end27
	movq	%rbx, 8(%rsp)           # 8-byte Spill
	movq	$1, %rdx
	movq	%rax, %rcx
	shlq	%cl, %rdx
	movabsq	$4503599627372547, %rax # imm = 0x10000000000803
	testq	%rax, %rdx
	je	.LBB19_9
# BB#8:                                 # %if.then43
	movl	24(%r15), %esi
.LBB19_9:                               # %if.end46
	movq	%r15, (%rsp)            # 8-byte Spill
	movl	warn_parentheses(%rip), %eax
	testq	%rax, %rax
	je	.LBB19_50
# BB#10:                                # %if.then47
	movabsq	$4294967294, %rax       # imm = 0xFFFFFFFE
	andq	%r14, %rax
	cmpq	$82, %rax
	jne	.LBB19_15
# BB#11:                                # %if.then53
	leaq	-59(%r13), %rcx
	movabsq	$4294967295, %rax       # imm = 0xFFFFFFFF
	andq	%rax, %rcx
	cmpq	$2, %rcx
	jb	.LBB19_14
# BB#12:                                # %if.then53
	andq	%rsi, %rax
	cmpq	$59, %rax
	je	.LBB19_14
# BB#13:                                # %if.then53
	cmpq	$60, %rax
	jne	.LBB19_15
.LBB19_14:                              # %if.then65
	movabsq	$.L.str36, %rdi
	xorq	%rax, %rax
	movq	%rsi, %rbx
	callq	warning
	movq	%rbx, %rsi
.LBB19_15:                              # %if.end67
	leaq	-86(%r14), %rax
	movabsq	$4294967295, %r15       # imm = 0xFFFFFFFF
	andq	%r15, %rax
	cmpq	$6, %rax
	ja	.LBB19_50
# BB#16:                                # %if.end67
	jmpq	*.LJTI19_0(,%rax,8)
.LBB19_20:                              # %if.then81
	leaq	-87(%r13), %rax
	andq	%r15, %rax
	cmpq	$2, %rax
	jb	.LBB19_27
# BB#21:                                # %if.then81
	movq	%r13, %rax
	andq	%r15, %rax
	cmpq	$59, %rax
	je	.LBB19_27
# BB#22:                                # %if.then81
	cmpq	$60, %rax
	je	.LBB19_27
# BB#23:                                # %if.then81
	andq	%rsi, %r15
	cmpq	$88, %r15
	je	.LBB19_27
# BB#24:                                # %if.then81
	cmpq	$87, %r15
	je	.LBB19_27
# BB#25:                                # %if.then81
	cmpq	$59, %r15
	je	.LBB19_27
# BB#26:                                # %if.then81
	cmpq	$60, %r15
	jne	.LBB19_28
.LBB19_27:                              # %if.then105
	movabsq	$.L.str38, %rdi
	xorq	%rax, %rax
	movq	%rsi, %rbx
	callq	warning
	movq	%rbx, %rsi
.LBB19_28:                              # %if.end106
	movq	$32, %rcx
	movq	%r13, %rax
	shlq	%cl, %rax
	movq	$32, %rcx
	sarq	%cl, %rax
	movzbl	tree_code_type(%rax), %eax
	cmpq	$60, %rax
	je	.LBB19_30
# BB#29:                                # %lor.lhs.false112
	movq	$32, %rcx
	movq	%rsi, %rax
	shlq	%cl, %rax
	movq	$32, %rcx
	sarq	%cl, %rax
	movzbl	tree_code_type(%rax), %eax
	cmpq	$60, %rax
	jne	.LBB19_50
.LBB19_30:                              # %if.then118
	movabsq	$.L.str39, %rdi
	jmp	.LBB19_49
.LBB19_31:                              # %if.then123
	movq	%r13, %rax
	andq	%r15, %rax
	cmpq	$88, %rax
	je	.LBB19_37
# BB#32:                                # %if.then123
	cmpq	$59, %rax
	je	.LBB19_37
# BB#33:                                # %if.then123
	cmpq	$60, %rax
	je	.LBB19_37
# BB#34:                                # %if.then123
	movq	%rsi, %rax
	andq	%r15, %rax
	cmpq	$88, %rax
	je	.LBB19_37
# BB#35:                                # %if.then123
	cmpq	$59, %rax
	je	.LBB19_37
# BB#36:                                # %if.then123
	cmpq	$60, %rax
	jne	.LBB19_38
.LBB19_37:                              # %if.then141
	movabsq	$.L.str40, %rdi
	xorq	%rax, %rax
	movq	%rsi, %rbx
	callq	warning
	movq	%rbx, %rsi
.LBB19_38:                              # %if.end142
	movq	$32, %rcx
	movq	%r13, %rax
	shlq	%cl, %rax
	movq	$32, %rcx
	sarq	%cl, %rax
	movzbl	tree_code_type(%rax), %eax
	cmpq	$60, %rax
	je	.LBB19_40
# BB#39:                                # %lor.lhs.false148
	movq	$32, %rcx
	movq	%rsi, %rax
	shlq	%cl, %rax
	movq	$32, %rcx
	sarq	%cl, %rax
	movzbl	tree_code_type(%rax), %eax
	cmpq	$60, %rax
	jne	.LBB19_41
.LBB19_40:                              # %if.then154
	movabsq	$.L.str41, %rdi
	xorq	%rax, %rax
	movq	%rsi, %rbx
	callq	warning
	movq	%rbx, %rsi
.LBB19_41:                              # %if.end156
	movq	%r14, %rax
	andq	%r15, %rax
	cmpq	$88, %rax
	jne	.LBB19_50
.LBB19_42:                              # %if.then159
	leaq	-59(%r13), %rax
	andq	%r15, %rax
	cmpq	$2, %rax
	jb	.LBB19_45
# BB#43:                                # %if.then159
	andq	%rsi, %r15
	cmpq	$59, %r15
	je	.LBB19_45
# BB#44:                                # %if.then159
	cmpq	$60, %r15
	jne	.LBB19_46
.LBB19_45:                              # %if.then171
	movabsq	$.L.str42, %rdi
	xorq	%rax, %rax
	movq	%rsi, %rbx
	callq	warning
	movq	%rbx, %rsi
.LBB19_46:                              # %if.end172
	movq	$32, %rcx
	movq	%r13, %rax
	shlq	%cl, %rax
	movq	$32, %rcx
	sarq	%cl, %rax
	movzbl	tree_code_type(%rax), %eax
	cmpq	$60, %rax
	je	.LBB19_48
# BB#47:                                # %lor.lhs.false178
	movq	$32, %rcx
	movq	%rsi, %rax
	shlq	%cl, %rax
	movq	$32, %rcx
	sarq	%cl, %rax
	movzbl	tree_code_type(%rax), %eax
	cmpq	$60, %rax
	jne	.LBB19_50
.LBB19_48:                              # %if.then184
	movabsq	$.L.str43, %rdi
	jmp	.LBB19_49
.LBB19_17:                              # %if.then70
	movq	%r13, %rax
	andq	%r15, %rax
	cmpq	$91, %rax
	je	.LBB19_19
# BB#18:                                # %if.then70
	andq	%rsi, %r15
	cmpq	$91, %r15
	jne	.LBB19_50
.LBB19_19:                              # %if.end78.thread334
	movabsq	$.L.str37, %rdi
.LBB19_49:                              # %if.end187
	xorq	%rax, %rax
	movq	%rsi, %rbx
	callq	warning
	movq	%rbx, %rsi
.LBB19_50:                              # %if.end187
	movq	$32, %rcx
	movq	%r14, %rax
	shlq	%cl, %rax
	movq	$32, %rcx
	sarq	%cl, %rax
	movzbl	tree_code_type(%rax), %eax
	cmpq	$60, %rax
	movq	(%rsp), %rbx            # 8-byte Reload
	jne	.LBB19_55
# BB#51:                                # %if.end187
	movl	extra_warnings(%rip), %eax
	movabsq	$4294967295, %rcx       # imm = 0xFFFFFFFF
	testq	%rcx, %rax
	je	.LBB19_55
# BB#52:                                # %land.lhs.true194
	movq	$32, %rcx
	shlq	%cl, %r13
	movq	$32, %rcx
	sarq	%cl, %r13
	movzbl	tree_code_type(%r13), %eax
	cmpq	$60, %rax
	je	.LBB19_54
# BB#53:                                # %lor.lhs.false200
	movq	$32, %rcx
	shlq	%cl, %rsi
	movq	$32, %rcx
	sarq	%cl, %rsi
	movzbl	tree_code_type(%rsi), %eax
	cmpq	$60, %rax
	jne	.LBB19_55
.LBB19_54:                              # %if.then206
	movabsq	$.L.str44, %rdi
	xorq	%rax, %rax
	callq	warning
.LBB19_55:                              # %if.end207
	movq	%r12, %rdi
	movq	8(%rsp), %rsi           # 8-byte Reload
	callq	unsigned_conversion_warning
	movq	%r12, %rdi
	movq	%rbx, %rsi
	callq	unsigned_conversion_warning
	movq	%r12, %rdi
	callq	overflow_warning
	movl	16(%r12), %ebx
	movq	%rbx, %rax
	andq	$255, %rax
	movzbl	tree_code_type(%rax), %ecx
	addq	$-49, %rcx
	andq	$255, %rcx
	cmpq	$52, %rcx
	ja	.LBB19_58
# BB#56:                                # %if.end207
	movq	$1, %rax
	shlq	%cl, %rax
	movabsq	$4503599627372547, %rcx # imm = 0x10000000000803
	testq	%rcx, %rax
	je	.LBB19_58
# BB#57:                                # %if.then229
	movl	%r14d, 24(%r12)
	jmp	.LBB19_59
.LBB19_58:                              # %if.else
	movq	8(%r12), %rsi
	andq	$512, %rbx              # imm = 0x200
	movq	$116, %rdi
	movq	%r12, %rdx
	callq	build1
	movq	%rax, %r12
	movl	%r14d, 24(%r12)
	movl	16(%r12), %eax
	movabsq	$4294966783, %rcx       # imm = 0xFFFFFDFF
	andq	%rax, %rcx
	orq	%rbx, %rcx
	movl	%ecx, 16(%r12)
.LBB19_59:                              # %return
	movq	%r12, %rax
	addq	$16, %rsp
	popq	%rbx
	popq	%r12
	popq	%r13
	popq	%r14
	popq	%r15
	retq
.Ltmp218:
	.size	parser_build_binary_op, .Ltmp218-parser_build_binary_op
	.cfi_endproc
	.section	.rodata,"a",@progbits
	.align	8
.LJTI19_0:
	.quad	.LBB19_20
	.quad	.LBB19_31
	.quad	.LBB19_42
	.quad	.LBB19_50
	.quad	.LBB19_50
	.quad	.LBB19_50
	.quad	.LBB19_17

	.text
	.globl	build_unary_op
	.align	16, 0x90
	.type	build_unary_op,@function
build_unary_op:                         # @build_unary_op
	.cfi_startproc
# BB#0:                                 # %entry
	pushq	%r15
.Ltmp225:
	.cfi_def_cfa_offset 16
	pushq	%r14
.Ltmp226:
	.cfi_def_cfa_offset 24
	pushq	%r13
.Ltmp227:
	.cfi_def_cfa_offset 32
	pushq	%r12
.Ltmp228:
	.cfi_def_cfa_offset 40
	pushq	%rbx
.Ltmp229:
	.cfi_def_cfa_offset 48
	subq	$32, %rsp
.Ltmp230:
	.cfi_def_cfa_offset 80
.Ltmp231:
	.cfi_offset %rbx, -48
.Ltmp232:
	.cfi_offset %r12, -40
.Ltmp233:
	.cfi_offset %r13, -32
.Ltmp234:
	.cfi_offset %r14, -24
.Ltmp235:
	.cfi_offset %r15, -16
	movq	%rsi, %r12
	movq	8(%r12), %rax
	movl	16(%rax), %ecx
	movq	%rdx, %r15
	movq	%rdi, %r14
	movq	%rcx, %rdx
	andq	$255, %rdx
	je	.LBB20_1
# BB#2:                                 # %if.end
	andq	$254, %rcx
	cmpq	$10, %rcx
	movq	$6, %r13
	je	.LBB20_4
# BB#3:                                 # %if.end
	movq	%rdx, %r13
.LBB20_4:                               # %if.end
	movq	$32, %rcx
	movq	%r14, %rsi
	shlq	%cl, %rsi
	movq	$32, %rcx
	sarq	%cl, %rsi
	cmpq	$113, %rsi
	jg	.LBB20_21
# BB#5:                                 # %if.end
	movq	$32, %rcx
	movq	%r14, %rax
	shlq	%cl, %rax
	movq	$32, %rcx
	sarq	%cl, %rax
	cmpq	$95, %rax
	jg	.LBB20_14
# BB#6:                                 # %if.end
	movabsq	$4294967295, %rbx       # imm = 0xFFFFFFFF
	movq	%r14, %rax
	andq	%rbx, %rax
	cmpq	$77, %rax
	je	.LBB20_31
# BB#7:                                 # %if.end
	cmpq	$80, %rax
	jne	.LBB20_8
# BB#38:                                # %sw.bb49
	movq	%r13, %rax
	andq	$254, %rax
	cmpq	$6, %rax
	je	.LBB20_41
# BB#39:                                # %sw.bb49
	andq	%rbx, %r13
	cmpq	$8, %r13
	je	.LBB20_41
# BB#40:                                # %if.then55
	movabsq	$.L.str67, %rdi
	jmp	.LBB20_26
.LBB20_1:                               # %if.then
	movq	global_trees(%rip), %rbx
	jmp	.LBB20_256
.LBB20_21:                              # %if.end
	leaq	-114(%r14), %rcx
	movabsq	$4294967295, %rsi       # imm = 0xFFFFFFFF
	andq	%rsi, %rcx
	cmpq	$18, %rcx
	ja	.LBB20_30
# BB#22:                                # %if.end
	jmpq	*.LJTI20_0(,%rcx,8)
.LBB20_58:                              # %sw.bb140
	movq	%rsi, %r15
	xorq	%rdx, %rdx
	movq	%r14, %rdi
	movq	%r12, %rsi
	callq	unary_complex_lvalue
	movq	%rax, %rbx
	testq	%rbx, %rbx
	jne	.LBB20_256
# BB#59:                                # %if.end144
	leaq	-6(%r13), %rax
	movq	%r15, %rcx
	andq	%rcx, %rax
	cmpq	$2, %rax
	jb	.LBB20_84
# BB#60:                                # %if.end144
	movq	%r13, %rax
	andq	%rcx, %rax
	cmpq	$13, %rax
	jne	.LBB20_61
.LBB20_84:                              # %if.end172
	movq	8(%r12), %r15
	xorq	%rsi, %rsi
	movq	%r12, %rdi
	movq	%rcx, %rbx
	callq	get_unwidened
	movq	%rbx, %rsi
	movq	%rax, %r12
	movq	8(%r12), %rdi
	andq	%rsi, %r13
	cmpq	$13, %r13
	jne	.LBB20_109
# BB#85:                                # %if.then179
	movq	%rdi, 24(%rsp)          # 8-byte Spill
	movq	8(%r15), %rax
	cmpq	$0, 32(%rax)
	jne	.LBB20_92
# BB#86:                                # %lor.lhs.false184
	movzbl	16(%rax), %ecx
	cmpq	$5, %rcx
	jne	.LBB20_87
.LBB20_92:                              # %if.else199
	movl	pedantic(%rip), %ecx
	movl	warn_pointer_arith(%rip), %edx
	orq	%rcx, %rdx
	testq	%rsi, %rdx
	je	.LBB20_101
# BB#93:                                # %land.lhs.true203
	movzbl	16(%rax), %eax
	cmpq	$5, %rax
	je	.LBB20_95
# BB#94:                                # %land.lhs.true203
	cmpq	$23, %rax
	jne	.LBB20_101
.LBB20_95:                              # %if.then219
	movq	%r14, %rax
	andq	%rsi, %rax
	movq	%rsi, %rbx
	cmpq	$130, %rax
	je	.LBB20_97
# BB#96:                                # %if.then219
	cmpq	$132, %rax
	jne	.LBB20_98
.LBB20_97:                              # %if.then223
	movabsq	$.L.str71, %rdi
	jmp	.LBB20_99
.LBB20_14:                              # %if.end
	movabsq	$4294967295, %rax       # imm = 0xFFFFFFFF
	movq	%r14, %rcx
	andq	%rax, %rcx
	cmpq	$96, %rcx
	jne	.LBB20_30
# BB#15:                                # %sw.bb75
	movq	%r13, %rcx
	andq	$254, %rcx
	cmpq	$6, %rcx
	je	.LBB20_46
# BB#16:                                # %sw.bb75
	andq	%rax, %r13
	cmpq	$13, %r13
	je	.LBB20_46
# BB#17:                                # %sw.bb75
	cmpq	$8, %r13
	je	.LBB20_46
# BB#18:                                # %sw.bb75
	cmpq	$18, %r13
	je	.LBB20_46
# BB#19:                                # %sw.bb75
	cmpq	$23, %r13
	je	.LBB20_46
# BB#20:                                # %if.then86
	movabsq	$.L.str69, %rdi
	jmp	.LBB20_26
.LBB20_31:                              # %sw.bb16
	movq	%r13, %rax
	andq	$254, %rax
	cmpq	$6, %rax
	je	.LBB20_34
# BB#32:                                # %sw.bb16
	andq	%rbx, %r13
	cmpq	$8, %r13
	je	.LBB20_34
# BB#33:                                # %if.then22
	movabsq	$.L.str64, %rdi
	jmp	.LBB20_26
.LBB20_8:                               # %if.end
	cmpq	$90, %rax
	jne	.LBB20_30
# BB#9:                                 # %sw.bb29
	andq	%rbx, %r13
	cmpq	$6, %r13
	jne	.LBB20_10
# BB#37:                                # %if.else42
	movq	$90, %r14
	jmp	.LBB20_35
.LBB20_46:                              # %if.end87
	movq	%r12, %rdi
	callq	truthvalue_conversion
	movq	%rax, %rdi
	addq	$32, %rsp
	popq	%rbx
	popq	%r12
	popq	%r13
	popq	%r14
	popq	%r15
	jmp	invert_truthvalue  # TAILCALL
.LBB20_41:                              # %if.else56
	movq	$80, %r14
	jmp	.LBB20_35
.LBB20_34:                              # %if.else23
	movq	$77, %r14
	jmp	.LBB20_35
.LBB20_23:                              # %sw.bb
	movq	%r13, %rax
	andq	$254, %rax
	cmpq	$6, %rax
	je	.LBB20_27
# BB#24:                                # %sw.bb
	andq	%rsi, %r13
	cmpq	$8, %r13
	je	.LBB20_27
# BB#25:                                # %if.then12
	movabsq	$.L.str63, %rdi
	jmp	.LBB20_26
.LBB20_182:                             # %sw.bb360
	movq	%rsi, %r14
	movzbl	16(%r12), %eax
	cmpq	$43, %rax
	jne	.LBB20_183
# BB#205:                               # %if.then387
	movq	32(%r12), %rdi
	callq	mark_addressable
	testq	%r14, %rax
	je	.LBB20_206
# BB#207:                               # %if.end394
	movq	32(%r12), %rsi
	movq	40(%r12), %rdx
	movq	$59, %rdi
	movq	$1, %rcx
	addq	$32, %rsp
	popq	%rbx
	popq	%r12
	popq	%r13
	popq	%r14
	popq	%r15
	jmp	build_binary_op  # TAILCALL
.LBB20_42:                              # %sw.bb62
	movq	%r13, %rax
	andq	$254, %rax
	cmpq	$6, %rax
	je	.LBB20_45
# BB#43:                                # %sw.bb62
	andq	%rsi, %r13
	cmpq	$8, %r13
	je	.LBB20_45
# BB#44:                                # %if.then68
	movabsq	$.L.str68, %rdi
	jmp	.LBB20_26
.LBB20_47:                              # %sw.bb90
	movzbl	16(%r12), %ecx
	cmpq	$27, %rcx
	jne	.LBB20_49
# BB#48:                                # %if.then96
	movq	32(%r12), %rbx
	jmp	.LBB20_256
.LBB20_53:                              # %sw.bb113
	movzbl	16(%r12), %ecx
	cmpq	$27, %rcx
	jne	.LBB20_55
# BB#54:                                # %if.then119
	movq	40(%r12), %rbx
	jmp	.LBB20_256
.LBB20_10:                              # %sw.bb29
	cmpq	$8, %r13
	jne	.LBB20_36
# BB#11:                                # %if.then31
	movl	pedantic(%rip), %eax
	testq	%rax, %rax
	je	.LBB20_13
# BB#12:                                # %if.then33
	movabsq	$.L.str65, %rdi
	xorq	%rax, %rax
	callq	pedwarn
.LBB20_13:                              # %if.end34
	movq	$126, %r14
.LBB20_35:                              # %if.else23
	testq	%rbx, %r15
	jne	.LBB20_30
	jmp	.LBB20_29
.LBB20_109:                             # %if.else231
	movq	%rsi, %rbx
	movq	global_trees+96(%rip), %rsi
	jmp	.LBB20_110
.LBB20_27:                              # %if.else
	movq	$114, %r14
	jmp	.LBB20_28
.LBB20_183:                             # %sw.bb360
	cmpq	$41, %rax
	jne	.LBB20_208
# BB#184:                               # %if.then366
	addq	$32, %r12
	movabsq	$11115375362048, %rdx   # imm = 0xA1C00000000
	movq	%r12, %rax
	movq	%r14, %rdi
	jmp	.LBB20_185
.LBB20_45:                              # %if.else69
	movq	$126, %r14
.LBB20_28:                              # %if.else
	testq	%rsi, %r15
	jne	.LBB20_30
.LBB20_29:                              # %if.then13
	movq	%r12, %rdi
	callq	default_conversion
	movq	%rax, %r12
.LBB20_30:                              # %if.then524
	movq	8(%r12), %rsi
	movq	%r14, %rdi
.LBB20_52:                              # %if.then105
	movq	%r12, %rdx
	callq	build1
	movq	%rax, %rdi
	addq	$32, %rsp
	popq	%rbx
	popq	%r12
	popq	%r13
	popq	%r14
	popq	%r15
	jmp	fold  # TAILCALL
.LBB20_49:                              # %if.else97
	andq	%rsi, %rdx
	cmpq	$8, %rdx
	jne	.LBB20_50
# BB#51:                                # %if.then105
	movq	8(%rax), %rsi
	movq	$127, %rdi
	jmp	.LBB20_52
.LBB20_55:                              # %if.else121
	andq	%rsi, %rdx
	cmpq	$8, %rdx
	jne	.LBB20_57
# BB#56:                                # %if.then129
	movq	8(%rax), %rsi
	movq	$128, %rdi
	jmp	.LBB20_52
.LBB20_36:                              # %if.then41
	movabsq	$.L.str66, %rdi
	jmp	.LBB20_26
.LBB20_61:                              # %if.end144
	cmpq	$8, %rax
	jne	.LBB20_80
# BB#62:                                # %if.then146
	movq	%rcx, %r13
	movl	pedantic(%rip), %eax
	testq	%rax, %rax
	je	.LBB20_64
# BB#63:                                # %if.then150
	movabsq	$.L.str70, %rdi
	xorq	%rax, %rax
	callq	pedwarn
.LBB20_64:                              # %if.end151
	movq	%r12, %rdi
	callq	stabilize_reference
	movq	%rax, %rbx
	movq	8(%rbx), %rdi
	movl	16(%rdi), %ecx
	movq	%rcx, %rax
	andq	$255, %rax
	je	.LBB20_65
# BB#66:                                # %if.end.i757
	movzbl	16(%rbx), %edx
	cmpq	$27, %rdx
	movq	%r13, %r8
	jne	.LBB20_68
# BB#67:                                # %if.then96.i
	movq	32(%rbx), %r15
	jmp	.LBB20_71
.LBB20_208:                             # %if.end402
	movq	$121, %rdi
	movq	%r12, %rsi
	movq	%r15, %rdx
	callq	unary_complex_lvalue
	movq	%rax, %rbx
	testq	%rbx, %rbx
	jne	.LBB20_256
# BB#209:                               # %if.else406
	movq	%r14, %rbx
	andq	%rbx, %r13
	cmpq	$23, %r13
	je	.LBB20_240
# BB#210:                               # %if.else406
	testq	%rbx, %r15
	jne	.LBB20_240
# BB#211:
	movabsq	$11115375362048, %rdx   # imm = 0xA1C00000000
	movq	%r12, %rax
	jmp	.LBB20_212
.LBB20_50:
	movq	%r12, %rbx
	jmp	.LBB20_256
.LBB20_57:                              # %if.else136
	movq	global_trees+88(%rip), %rsi
	movq	%rax, %rdi
	addq	$32, %rsp
	popq	%rbx
	popq	%r12
	popq	%r13
	popq	%r14
	popq	%r15
	jmp	convert  # TAILCALL
.LBB20_206:                             # %if.then393
	movq	global_trees(%rip), %rbx
	jmp	.LBB20_256
.LBB20_80:                              # %if.then165
	andq	%rcx, %r14
	cmpq	$130, %r14
	je	.LBB20_82
# BB#81:                                # %if.then165
	cmpq	$132, %r14
	jne	.LBB20_83
.LBB20_82:                              # %if.then169
	movabsq	$.L.str71, %rdi
	jmp	.LBB20_26
.LBB20_87:                              # %if.then192
	movq	%r14, %rax
	andq	%rsi, %rax
	cmpq	$130, %rax
	je	.LBB20_89
# BB#88:                                # %if.then192
	cmpq	$132, %rax
	jne	.LBB20_91
.LBB20_89:                              # %if.then196
	movabsq	$.L.str73, %rdi
	jmp	.LBB20_90
.LBB20_65:                              # %if.then.i756
	movq	global_trees(%rip), %r15
	movq	%r13, %r8
	jmp	.LBB20_71
.LBB20_68:                              # %if.else97.i
	andq	%r8, %rax
	cmpq	$8, %rax
	jne	.LBB20_69
# BB#70:                                # %if.then105.i
	movq	8(%rdi), %rsi
	movq	$127, %rdi
	movq	%rbx, %rdx
	movq	%r8, %r15
	callq	build1
	movq	%rax, %rdi
	callq	fold
	movq	%r15, %r8
	movq	8(%rbx), %rdi
	movl	16(%rdi), %ecx
	movq	%rax, %r15
	jmp	.LBB20_71
.LBB20_98:                              # %if.else224
	movabsq	$.L.str72, %rdi
.LBB20_99:                              # %if.end227
	xorq	%rax, %rax
	callq	pedwarn
	jmp	.LBB20_100
.LBB20_83:                              # %if.else170
	movabsq	$.L.str72, %rdi
.LBB20_26:                              # %return
	xorq	%rax, %rax
	callq	error
	movq	global_trees(%rip), %rbx
.LBB20_256:                             # %return
	movq	%rbx, %rax
	addq	$32, %rsp
	popq	%rbx
	popq	%r12
	popq	%r13
	popq	%r14
	popq	%r15
	retq
.LBB20_196:                             # %sw.bb.i
                                        #   in Loop: Header=BB20_185 Depth=1
	addq	$32, %rax
.LBB20_185:                             # %tailrecurse.i
                                        # =>This Inner Loop Header: Depth=1
	movq	(%rax), %rax
	movzbl	16(%rax), %ecx
	cmpq	$169, %rcx
	jg	.LBB20_199
# BB#186:                               # %tailrecurse.i
                                        #   in Loop: Header=BB20_185 Depth=1
	cmpq	$28, %rcx
	jle	.LBB20_187
# BB#190:                               # %tailrecurse.i
                                        #   in Loop: Header=BB20_185 Depth=1
	cmpq	$119, %rcx
	jg	.LBB20_197
# BB#191:                               # %tailrecurse.i
                                        #   in Loop: Header=BB20_185 Depth=1
	cmpq	$51, %rcx
	jg	.LBB20_202
# BB#192:                               # %tailrecurse.i
                                        #   in Loop: Header=BB20_185 Depth=1
	cmpq	$43, %rcx
	ja	.LBB20_200
# BB#193:                               # %tailrecurse.i
                                        #   in Loop: Header=BB20_185 Depth=1
	movq	$1, %rsi
	shlq	%cl, %rsi
	testq	%rdx, %rsi
	jne	.LBB20_188
# BB#194:                               # %tailrecurse.i
                                        #   in Loop: Header=BB20_185 Depth=1
	cmpq	$29, %rcx
	je	.LBB20_201
# BB#195:                               # %tailrecurse.i
                                        #   in Loop: Header=BB20_185 Depth=1
	cmpq	$39, %rcx
	je	.LBB20_196
	jmp	.LBB20_200
.LBB20_197:                             # %tailrecurse.i
                                        #   in Loop: Header=BB20_185 Depth=1
	leaq	-127(%rcx), %rsi
	andq	%rdi, %rsi
	cmpq	$2, %rsi
	jb	.LBB20_196
# BB#198:                               # %tailrecurse.i
	cmpq	$120, %rcx
	jne	.LBB20_200
	jmp	.LBB20_203
.LBB20_199:                             # %tailrecurse.i
	cmpq	$170, %rcx
	jne	.LBB20_200
.LBB20_201:                             # %lvalue_p.exit.thread773
	movq	(%r12), %rbx
.LBB20_204:                             # %if.then372
	movq	%rbx, %rdi
	addq	$32, %rsp
	popq	%rbx
	popq	%r12
	popq	%r13
	popq	%r14
	popq	%r15
	jmp	non_lvalue  # TAILCALL
.LBB20_187:                             # %tailrecurse.i
	testq	%rcx, %rcx
	jne	.LBB20_200
.LBB20_188:                             # %sw.bb3.i
	movq	8(%rax), %rax
	movzbl	16(%rax), %eax
	movq	(%r12), %rbx
	cmpq	$16, %rax
	je	.LBB20_256
# BB#189:                               # %sw.bb3.i
	cmpq	$23, %rax
	jne	.LBB20_204
	jmp	.LBB20_256
.LBB20_69:
	movq	%rbx, %r15
.LBB20_71:                              # %build_unary_op.exit
	andq	$255, %rcx
	je	.LBB20_72
# BB#73:                                # %if.end.i766
	movzbl	16(%rbx), %eax
	cmpq	$27, %rax
	jne	.LBB20_75
# BB#74:                                # %if.then119.i
	movq	40(%rbx), %r12
	jmp	.LBB20_79
.LBB20_72:                              # %if.then.i764
	movq	global_trees(%rip), %r12
	jmp	.LBB20_79
.LBB20_75:                              # %if.else121.i
	andq	%r8, %rcx
	cmpq	$8, %rcx
	jne	.LBB20_77
# BB#76:                                # %if.then129.i
	movq	8(%rdi), %rsi
	movq	$128, %rdi
	movq	%rbx, %rdx
	callq	build1
	movq	%rax, %rdi
	callq	fold
	jmp	.LBB20_78
.LBB20_77:                              # %if.else136.i
	movq	global_trees+88(%rip), %rsi
	callq	convert
.LBB20_78:                              # %build_unary_op.exit768
	movq	%rax, %r12
.LBB20_79:                              # %build_unary_op.exit768
	movq	8(%rbx), %rbx
	movq	$1, %rdx
	movq	%r14, %rdi
	movq	%r15, %rsi
	callq	build_unary_op
	movq	%rax, %rcx
	movq	$125, %rdi
	xorq	%rax, %rax
	movq	%rbx, %rsi
	movq	%rcx, %rdx
	movq	%r12, %rcx
	addq	$32, %rsp
	popq	%rbx
	popq	%r12
	popq	%r13
	popq	%r14
	popq	%r15
	jmp	build  # TAILCALL
.LBB20_91:                              # %if.else197
	movabsq	$.L.str74, %rdi
.LBB20_90:                              # %if.end227
	xorq	%rax, %rax
	movq	%rsi, %rbx
	callq	error
.LBB20_100:                             # %if.end227
	movq	%rbx, %rsi
.LBB20_101:                             # %if.end227
	movq	8(%r15), %rax
	movzbl	16(%rax), %ecx
	cmpq	$23, %rcx
	ja	.LBB20_105
# BB#102:                               # %if.end227
	movq	$1, %rdx
	shlq	%cl, %rdx
	testq	$8388641, %rdx          # imm = 0x800021
	je	.LBB20_105
# BB#103:                               # %if.then.i751
	movq	%rsi, %rbx
	jmp	.LBB20_104
.LBB20_105:                             # %if.end.i
	movq	%rsi, %rbx
	cmpq	$0, 32(%rax)
	jne	.LBB20_108
# BB#106:                               # %if.end.i
	cmpq	$5, %rcx
	je	.LBB20_108
# BB#107:                               # %if.then13.i
	movabsq	$.L.str14, %rdi
	xorq	%rax, %rax
	callq	error
.LBB20_104:                             # %if.end232
	movq	global_trees+128(%rip), %rsi
	movq	24(%rsp), %rdi          # 8-byte Reload
	jmp	.LBB20_110
.LBB20_108:                             # %if.end14.i
	movq	integer_types(%rip), %rcx
	movl	60(%rcx), %edi
	movq	%r15, %r13
	movq	40(%rax), %r15
	movq	$3, %rcx
	shrq	%cl, %rdi
	andq	$63, %rdi
	xorq	%rsi, %rsi
	callq	size_int_wide
	movq	$63, %rdi
	movq	%r15, %rsi
	movq	%r13, %r15
	movq	%rax, %rdx
	callq	size_binop
	movq	%rax, %rsi
	movq	24(%rsp), %rdi          # 8-byte Reload
.LBB20_110:                             # %if.end232
	movq	%rdi, 24(%rsp)          # 8-byte Spill
	movq	%r15, 16(%rsp)          # 8-byte Spill
	callq	convert
	movq	%rax, 8(%rsp)           # 8-byte Spill
	movabsq	$13194139533343, %r13   # imm = 0xC000000001F
	movq	%rbx, %r9
.LBB20_111:                             # %while.body
                                        # =>This Inner Loop Header: Depth=1
	movq	%r12, %r15
	movl	16(%r15), %eax
	movq	%rax, %rcx
	andq	$255, %rcx
	addq	$-72, %rcx
	andq	%r9, %rcx
	cmpq	$43, %rcx
	ja	.LBB20_128
# BB#112:                               # %while.body
                                        #   in Loop: Header=BB20_111 Depth=1
	movq	$1, %rdx
	shlq	%cl, %rdx
	testq	%r13, %rdx
	je	.LBB20_128
# BB#113:                               # %sw.bb238
                                        #   in Loop: Header=BB20_111 Depth=1
	movl	pedantic(%rip), %eax
	testq	%rax, %rax
	je	.LBB20_115
# BB#114:                               # %if.then.i747
                                        #   in Loop: Header=BB20_111 Depth=1
	xorq	%rax, %rax
	movabsq	$.L.str179, %rdi
	movq	%r9, %rbx
	callq	pedwarn
	movq	%rbx, %r9
.LBB20_115:                             # %pedantic_lvalue_warning.exit
                                        #   in Loop: Header=BB20_111 Depth=1
	movq	32(%r15), %r12
	movq	8(%r15), %rcx
	movq	8(%r12), %rdx
	movl	16(%rcx), %eax
	movl	16(%rdx), %esi
	xorq	%rax, %rsi
	testq	$255, %rsi
	jne	.LBB20_117
# BB#116:                               # %land.lhs.true252
                                        #   in Loop: Header=BB20_111 Depth=1
	movl	60(%rcx), %ecx
	movl	60(%rdx), %edx
	xorq	%rcx, %rdx
	testq	$65024, %rdx            # imm = 0xFE00
	je	.LBB20_111
.LBB20_117:                             # %if.else273
	movq	%r9, %rbx
	andq	$255, %rax
	cmpq	$11, %rax
	jne	.LBB20_119
# BB#118:                               # %if.then281
	movq	%r14, %rdi
	movq	%r15, %rsi
	callq	boolean_increment
	jmp	.LBB20_127
.LBB20_128:                             # %give_up
	movq	%r14, %r12
	andq	%r9, %r12
	cmpq	$130, %r12
	jne	.LBB20_130
# BB#129:
	movabsq	$.L.str75, %rsi
	jmp	.LBB20_133
.LBB20_130:                             # %lor.rhs309
	cmpq	$132, %r12
	je	.LBB20_131
# BB#132:                               # %lor.rhs309
	movabsq	$.L.str76, %rsi
	jmp	.LBB20_133
.LBB20_131:
	movabsq	$.L.str75, %rsi
.LBB20_133:                             # %lor.end311
	movabsq	$11115375362048, %r8    # imm = 0xA1C00000000
	movq	%rax, %rcx
	movq	%r15, %rdx
	jmp	.LBB20_134
.LBB20_151:                             # %sw.bb.i.i726
                                        #   in Loop: Header=BB20_134 Depth=1
	movq	32(%rdx), %rdx
	movl	16(%rdx), %ecx
.LBB20_134:                             # %tailrecurse.i.i723
                                        # =>This Inner Loop Header: Depth=1
	andq	$255, %rcx
	cmpq	$169, %rcx
	jg	.LBB20_161
# BB#135:                               # %tailrecurse.i.i723
                                        #   in Loop: Header=BB20_134 Depth=1
	cmpq	$28, %rcx
	jle	.LBB20_136
# BB#145:                               # %tailrecurse.i.i723
                                        #   in Loop: Header=BB20_134 Depth=1
	cmpq	$119, %rcx
	jg	.LBB20_152
# BB#146:                               # %tailrecurse.i.i723
                                        #   in Loop: Header=BB20_134 Depth=1
	cmpq	$51, %rcx
	jg	.LBB20_154
# BB#147:                               # %tailrecurse.i.i723
                                        #   in Loop: Header=BB20_134 Depth=1
	cmpq	$43, %rcx
	ja	.LBB20_159
# BB#148:                               # %tailrecurse.i.i723
                                        #   in Loop: Header=BB20_134 Depth=1
	movq	$1, %rdi
	shlq	%cl, %rdi
	testq	%r8, %rdi
	jne	.LBB20_137
# BB#149:                               # %tailrecurse.i.i723
                                        #   in Loop: Header=BB20_134 Depth=1
	cmpq	$29, %rcx
	je	.LBB20_162
# BB#150:                               # %tailrecurse.i.i723
                                        #   in Loop: Header=BB20_134 Depth=1
	cmpq	$39, %rcx
	je	.LBB20_151
	jmp	.LBB20_159
.LBB20_152:                             # %tailrecurse.i.i723
                                        #   in Loop: Header=BB20_134 Depth=1
	leaq	-127(%rcx), %rdi
	andq	%r9, %rdi
	cmpq	$2, %rdi
	jb	.LBB20_151
# BB#153:                               # %tailrecurse.i.i723
	cmpq	$120, %rcx
	je	.LBB20_155
	jmp	.LBB20_159
.LBB20_161:                             # %tailrecurse.i.i723
	cmpq	$170, %rcx
	jne	.LBB20_159
	jmp	.LBB20_162
.LBB20_136:                             # %tailrecurse.i.i723
	testq	%rcx, %rcx
	jne	.LBB20_159
.LBB20_137:                             # %sw.bb3.i.i735
	movq	8(%rdx), %rcx
	movzbl	16(%rcx), %edi
	cmpq	$16, %rdi
	movabsq	$0, %rdx
	movabsq	$1, %r8
	movq	%rdx, %rcx
	je	.LBB20_139
# BB#138:                               # %sw.bb3.i.i735
	movq	%r8, %rcx
.LBB20_139:                             # %sw.bb3.i.i735
	cmpq	$23, %rdi
	je	.LBB20_141
# BB#140:                               # %sw.bb3.i.i735
	movq	%r8, %rdx
.LBB20_141:                             # %sw.bb3.i.i735
	cmpq	$16, %rdi
	je	.LBB20_159
# BB#142:                               # %sw.bb3.i.i735
	cmpq	$23, %rdi
	je	.LBB20_159
# BB#143:
	andq	%rdx, %rcx
	jmp	.LBB20_144
.LBB20_119:                             # %if.else283
	movq	%r15, %rdi
	callq	stabilize_reference
	movq	%rax, %r12
	leaq	-129(%r14), %rax
	movq	%rbx, %rcx
	andq	%rcx, %rax
	cmpq	$2, %rax
	movq	%r12, %r15
	jb	.LBB20_121
# BB#120:                               # %if.else289
	movq	%r12, %rdi
	movq	%rcx, %r15
	callq	save_expr
	movq	%r15, %rcx
	movq	%rax, %r15
.LBB20_121:                             # %if.end291
	andq	%rcx, %r14
	movq	$59, %rdi
	cmpq	$130, %r14
	je	.LBB20_126
# BB#122:                               # %lor.rhs
	cmpq	$132, %r14
	jne	.LBB20_123
# BB#124:                               # %lor.rhs
	movabsq	$1, %rdi
	jmp	.LBB20_125
.LBB20_154:                             # %tailrecurse.i.i723
	cmpq	$52, %rcx
	jne	.LBB20_159
.LBB20_155:                             # %lvalue_p.exit.i742
	movq	8(%rdx), %rcx
	movzbl	16(%rcx), %ecx
	cmpq	$18, %rcx
	jne	.LBB20_156
# BB#157:                               # %lvalue_p.exit.i742
	movabsq	$1, %rcx
	jmp	.LBB20_158
.LBB20_123:
	movabsq	$0, %rdi
.LBB20_125:                             # %lor.rhs
	xorq	$1, %rdi
	addq	$59, %rdi
.LBB20_126:                             # %lor.end
	xorq	%rax, %rax
	movq	24(%rsp), %rsi          # 8-byte Reload
	movq	%r15, %rdx
	movq	8(%rsp), %rcx           # 8-byte Reload
	callq	build
	movl	16(%rax), %ecx
	orq	$256, %rcx              # imm = 0x100
	movl	%ecx, 16(%rax)
	movq	$115, %rsi
	movq	%r12, %rdi
	movq	%rax, %rdx
	callq	build_modify_expr
	movq	8(%r12), %rsi
	movq	%rax, %rcx
	movq	$47, %rdi
	xorq	%rax, %rax
	movq	%rcx, %rdx
	movq	%r15, %rcx
	callq	build
.LBB20_127:                             # %if.end302
	movq	%rax, %rbx
	movl	16(%rbx), %eax
	orq	$65536, %rax            # imm = 0x10000
	jmp	.LBB20_255
.LBB20_202:                             # %tailrecurse.i
	cmpq	$52, %rcx
	jne	.LBB20_200
.LBB20_203:                             # %lvalue_p.exit
	movq	8(%rax), %rax
	movzbl	16(%rax), %eax
	movq	(%r12), %rbx
	cmpq	$18, %rax
	jne	.LBB20_256
	jmp	.LBB20_204
.LBB20_200:                             # %lvalue_p.exit.thread
	movq	(%r12), %rbx
	jmp	.LBB20_256
.LBB20_156:
	movabsq	$0, %rcx
.LBB20_158:                             # %lvalue_p.exit.i742
	jne	.LBB20_159
.LBB20_144:                             # %lvalue_or_else.exit745
	testq	%rcx, %rcx
	je	.LBB20_160
.LBB20_162:                             # %if.end316
	testq	$4096, %rax             # imm = 0x1000
	je	.LBB20_177
# BB#163:                               # %if.then322
	cmpq	$130, %r12
	jne	.LBB20_165
# BB#164:
	movabsq	$.L.str77, %rsi
	jmp	.LBB20_168
.LBB20_159:                             # %lvalue_or_else.exit745.thread
	movabsq	$.L.str81, %rdi
	xorq	%rax, %rax
	callq	error
.LBB20_160:                             # %if.then315
	movq	global_trees(%rip), %rbx
	jmp	.LBB20_256
.LBB20_165:                             # %lor.rhs324
	cmpq	$132, %r12
	je	.LBB20_166
# BB#167:                               # %lor.rhs324
	movabsq	$.L.str78, %rsi
	jmp	.LBB20_168
.LBB20_166:
	movabsq	$.L.str77, %rsi
.LBB20_168:                             # %lor.end326
	movq	%r15, %rcx
	jmp	.LBB20_169
.LBB20_172:                             # %if.then.i718.tailrecurse.i714_crit_edge
                                        #   in Loop: Header=BB20_169 Depth=1
	movl	16(%rdx), %eax
	movq	%rdx, %rcx
.LBB20_169:                             # %tailrecurse.i714
                                        # =>This Inner Loop Header: Depth=1
	andq	$255, %rax
	cmpq	$34, %rax
	je	.LBB20_174
# BB#170:                               # %tailrecurse.i714
                                        #   in Loop: Header=BB20_169 Depth=1
	cmpq	$39, %rax
	jne	.LBB20_176
# BB#171:                               # %if.then.i718
                                        #   in Loop: Header=BB20_169 Depth=1
	movq	32(%rcx), %rdx
	movq	8(%rdx), %rax
	movzbl	17(%rax), %eax
	testq	$16, %rax
	jne	.LBB20_172
# BB#173:                               # %if.else.i
	movq	40(%rcx), %rax
	movq	72(%rax), %rax
	movq	32(%rax), %rdx
	movabsq	$.L.str82, %rdi
	jmp	.LBB20_175
.LBB20_174:                             # %if.then18.i
	movq	72(%rcx), %rax
	movq	32(%rax), %rdx
	movabsq	$.L.str83, %rdi
.LBB20_175:                             # %if.end328
	xorq	%rax, %rax
	callq	pedwarn
	jmp	.LBB20_177
.LBB20_176:                             # %if.else24.i
	movabsq	$.L.str84, %rdi
	xorq	%rax, %rax
	callq	pedwarn
.LBB20_177:                             # %if.end328
	movq	8(%r15), %rsi
	movzbl	16(%rsi), %eax
	cmpq	$11, %rax
	jne	.LBB20_179
# BB#178:                               # %if.then336
	movq	%r14, %rdi
	movq	%r15, %rsi
	callq	boolean_increment
	jmp	.LBB20_180
.LBB20_179:                             # %if.else338
	xorq	%rax, %rax
	movq	%r14, %rdi
	movq	%r15, %rdx
	movq	8(%rsp), %rcx           # 8-byte Reload
	callq	build
.LBB20_180:                             # %if.end342
	movl	16(%rax), %ecx
	orq	$256, %rcx              # imm = 0x100
	movl	%ecx, 16(%rax)
	movq	16(%rsp), %rdi          # 8-byte Reload
	movq	%rax, %rsi
	callq	convert
	movq	%rax, %rbx
	movl	16(%rbx), %eax
	movq	%rax, %rcx
	andq	$255, %rcx
	cmpq	%r12, %rcx
	je	.LBB20_256
# BB#181:                               # %if.then354
	orq	$262144, %rax           # imm = 0x40000
.LBB20_255:                             # %return
	movl	%eax, 16(%rbx)
	jmp	.LBB20_256
.LBB20_229:                             # %sw.bb.i.i
                                        #   in Loop: Header=BB20_212 Depth=1
	movq	32(%rax), %rax
.LBB20_212:                             # %tailrecurse.i.i
                                        # =>This Inner Loop Header: Depth=1
	movzbl	16(%rax), %ecx
	cmpq	$169, %rcx
	jg	.LBB20_239
# BB#213:                               # %tailrecurse.i.i
                                        #   in Loop: Header=BB20_212 Depth=1
	cmpq	$28, %rcx
	jle	.LBB20_214
# BB#223:                               # %tailrecurse.i.i
                                        #   in Loop: Header=BB20_212 Depth=1
	cmpq	$119, %rcx
	jg	.LBB20_230
# BB#224:                               # %tailrecurse.i.i
                                        #   in Loop: Header=BB20_212 Depth=1
	cmpq	$51, %rcx
	jg	.LBB20_232
# BB#225:                               # %tailrecurse.i.i
                                        #   in Loop: Header=BB20_212 Depth=1
	cmpq	$43, %rcx
	ja	.LBB20_237
# BB#226:                               # %tailrecurse.i.i
                                        #   in Loop: Header=BB20_212 Depth=1
	movq	$1, %rsi
	shlq	%cl, %rsi
	testq	%rdx, %rsi
	jne	.LBB20_215
# BB#227:                               # %tailrecurse.i.i
                                        #   in Loop: Header=BB20_212 Depth=1
	cmpq	$29, %rcx
	je	.LBB20_240
# BB#228:                               # %tailrecurse.i.i
                                        #   in Loop: Header=BB20_212 Depth=1
	cmpq	$39, %rcx
	je	.LBB20_229
	jmp	.LBB20_237
.LBB20_230:                             # %tailrecurse.i.i
                                        #   in Loop: Header=BB20_212 Depth=1
	leaq	-127(%rcx), %rsi
	andq	%rbx, %rsi
	cmpq	$2, %rsi
	jb	.LBB20_229
# BB#231:                               # %tailrecurse.i.i
	cmpq	$120, %rcx
	je	.LBB20_233
	jmp	.LBB20_237
.LBB20_239:                             # %tailrecurse.i.i
	cmpq	$170, %rcx
	jne	.LBB20_237
	jmp	.LBB20_240
.LBB20_214:                             # %tailrecurse.i.i
	testq	%rcx, %rcx
	jne	.LBB20_237
.LBB20_215:                             # %sw.bb3.i.i
	movq	8(%rax), %rax
	movzbl	16(%rax), %edx
	cmpq	$16, %rdx
	movabsq	$0, %rcx
	movabsq	$1, %rsi
	movq	%rcx, %rax
	je	.LBB20_217
# BB#216:                               # %sw.bb3.i.i
	movq	%rsi, %rax
.LBB20_217:                             # %sw.bb3.i.i
	cmpq	$23, %rdx
	je	.LBB20_219
# BB#218:                               # %sw.bb3.i.i
	movq	%rsi, %rcx
.LBB20_219:                             # %sw.bb3.i.i
	cmpq	$16, %rdx
	je	.LBB20_237
# BB#220:                               # %sw.bb3.i.i
	cmpq	$23, %rdx
	je	.LBB20_237
# BB#221:
	andq	%rcx, %rax
	jmp	.LBB20_222
.LBB20_232:                             # %tailrecurse.i.i
	cmpq	$52, %rcx
	jne	.LBB20_237
.LBB20_233:                             # %lvalue_p.exit.i
	movq	%rbx, %rcx
	movq	8(%rax), %rax
	movzbl	16(%rax), %eax
	cmpq	$18, %rax
	jne	.LBB20_234
# BB#235:                               # %lvalue_p.exit.i
	movabsq	$1, %rax
	jmp	.LBB20_236
.LBB20_234:
	movabsq	$0, %rax
.LBB20_236:                             # %lvalue_p.exit.i
	movq	%rcx, %rbx
	jne	.LBB20_237
.LBB20_222:                             # %lvalue_or_else.exit
	testq	%rax, %rax
	je	.LBB20_238
.LBB20_240:                             # %if.end415
	movl	16(%r12), %esi
	movq	%rsi, %rax
	andq	$255, %rax
	movzbl	tree_code_type(%rax), %eax
	movq	8(%r12), %rdi
	cmpq	$100, %rax
	je	.LBB20_242
# BB#241:                               # %if.end415
	cmpq	$114, %rax
	jne	.LBB20_244
.LBB20_242:                             # %land.lhs.true435
	testq	$6144, %rsi             # imm = 0x1800
	je	.LBB20_244
# BB#243:                               # %if.then448
	movq	$12, %rcx
	movq	%rsi, %rax
	shrq	%cl, %rax
	andq	$1, %rax
	movq	$10, %rcx
	shrq	%cl, %rsi
	andq	$2, %rsi
	orq	%rax, %rsi
	callq	c_build_qualified_type
	movq	%rax, %rdi
.LBB20_244:                             # %if.end464
	callq	build_pointer_type
	movq	%rax, %r13
	movq	%r12, %rdi
	callq	mark_addressable
	testq	%rbx, %rax
	je	.LBB20_245
# BB#246:                               # %if.end470
	movzbl	16(%r12), %eax
	cmpq	$39, %rax
	jne	.LBB20_250
# BB#247:                               # %if.then477
	movq	32(%r12), %rsi
	movq	40(%r12), %r14
	movq	$121, %rdi
	movq	%r15, %rdx
	callq	build_unary_op
	movzbl	53(%r14), %ecx
	testq	$2, %rcx
	je	.LBB20_249
# BB#248:                               # %if.then490
	movq	72(%r14), %rax
	movq	32(%rax), %rsi
	movabsq	$.L.str80, %rdi
	xorq	%rax, %rax
	callq	error
	movq	global_trees(%rip), %rbx
	jmp	.LBB20_256
.LBB20_237:                             # %lvalue_or_else.exit.thread
	movabsq	$.L.str81, %rdi
	movabsq	$.L.str79, %rsi
	xorq	%rax, %rax
	callq	error
.LBB20_238:                             # %if.then413
	movq	global_trees(%rip), %rbx
	jmp	.LBB20_256
.LBB20_245:                             # %if.then469
	movq	global_trees(%rip), %rbx
	jmp	.LBB20_256
.LBB20_250:                             # %if.else498
	movq	$121, %rdi
	movq	%r13, %rsi
	movq	%r12, %rdx
	callq	build1
	jmp	.LBB20_251
.LBB20_249:                             # %if.end492
	movq	%r13, %rdi
	movq	%rax, %rsi
	callq	convert
	movq	%rax, %r15
	movq	%r14, %rdi
	callq	byte_position
	movq	%r13, %rdi
	movq	%rax, %rsi
	callq	convert
	movq	%rax, %rcx
	movq	$59, %rdi
	xorq	%rax, %rax
	movq	%r13, %rsi
	movq	%r15, %rdx
	callq	build
	movq	%rax, %rdi
	callq	fold
.LBB20_251:                             # %if.end500
	movq	%rax, %rbx
	movq	%r12, %rdi
	callq	staticp
	movabsq	$4294967295, %rcx       # imm = 0xFFFFFFFF
	testq	%rcx, %rax
	je	.LBB20_256
# BB#252:                               # %land.lhs.true503
	movzbl	16(%r12), %eax
	cmpq	$30, %rax
	jne	.LBB20_254
# BB#253:                               # %land.lhs.true510
	cmpq	$0, 80(%r12)
	jne	.LBB20_256
.LBB20_254:                             # %if.then514
	movl	16(%rbx), %eax
	orq	$512, %rax              # imm = 0x200
	jmp	.LBB20_255
.Ltmp236:
	.size	build_unary_op, .Ltmp236-build_unary_op
	.cfi_endproc
	.section	.rodata,"a",@progbits
	.align	8
.LJTI20_0:
	.quad	.LBB20_23
	.quad	.LBB20_30
	.quad	.LBB20_30
	.quad	.LBB20_30
	.quad	.LBB20_30
	.quad	.LBB20_30
	.quad	.LBB20_30
	.quad	.LBB20_182
	.quad	.LBB20_30
	.quad	.LBB20_30
	.quad	.LBB20_30
	.quad	.LBB20_30
	.quad	.LBB20_42
	.quad	.LBB20_47
	.quad	.LBB20_53
	.quad	.LBB20_58
	.quad	.LBB20_58
	.quad	.LBB20_58
	.quad	.LBB20_58

	.text
	.align	16, 0x90
	.type	unary_complex_lvalue,@function
unary_complex_lvalue:                   # @unary_complex_lvalue
	.cfi_startproc
# BB#0:                                 # %entry
	pushq	%r15
.Ltmp242:
	.cfi_def_cfa_offset 16
	pushq	%r14
.Ltmp243:
	.cfi_def_cfa_offset 24
	pushq	%r12
.Ltmp244:
	.cfi_def_cfa_offset 32
	pushq	%rbx
.Ltmp245:
	.cfi_def_cfa_offset 40
	pushq	%rax
.Ltmp246:
	.cfi_def_cfa_offset 48
.Ltmp247:
	.cfi_offset %rbx, -40
.Ltmp248:
	.cfi_offset %r12, -32
.Ltmp249:
	.cfi_offset %r14, -24
.Ltmp250:
	.cfi_offset %r15, -16
	movq	%rsi, %rbx
	movzbl	16(%rbx), %eax
	movq	%rdx, %r14
	movq	%rdi, %r15
	cmpq	$51, %rax
	jne	.LBB21_1
# BB#7:                                 # %if.then21
	movl	pedantic(%rip), %eax
	movabsq	$4294967295, %r12       # imm = 0xFFFFFFFF
	testq	%r12, %r14
	jne	.LBB21_10
# BB#8:                                 # %if.then21
	testq	%r12, %rax
	je	.LBB21_10
# BB#9:                                 # %if.then.i66
	movabsq	$.L.str177, %rdi
	xorq	%rax, %rax
	callq	pedwarn
	movl	pedantic(%rip), %eax
.LBB21_10:                              # %if.end24
	movq	8(%rbx), %rcx
	movzbl	16(%rcx), %ecx
	cmpq	$23, %rcx
	je	.LBB21_14
# BB#11:                                # %if.end24
	testq	%r12, %r14
	jne	.LBB21_14
# BB#12:                                # %if.end24
	testq	%r12, %rax
	je	.LBB21_14
# BB#13:                                # %if.then.i
	movabsq	$.L.str178, %rdi
	xorq	%rax, %rax
	callq	pedwarn
.LBB21_14:                              # %if.end35
	movq	32(%rbx), %r12
	movq	40(%rbx), %rsi
	movq	%r15, %rdi
	movq	%r14, %rdx
	callq	build_unary_op
	movq	48(%rbx), %rsi
	movq	%rax, %rbx
	movq	%r15, %rdi
	movq	%r14, %rdx
	callq	build_unary_op
	movq	%r12, %rdi
	movq	%rbx, %rsi
	movq	%rax, %rdx
	addq	$8, %rsp
	popq	%rbx
	popq	%r12
	popq	%r14
	popq	%r15
	jmp	build_conditional_expr  # TAILCALL
.LBB21_1:                               # %entry
	cmpq	$47, %rax
	jne	.LBB21_15
# BB#2:                                 # %if.then
	movq	40(%rbx), %rsi
	xorq	%rdx, %rdx
	movq	%r15, %rdi
	callq	build_unary_op
	movq	8(%rbx), %rcx
	movzbl	16(%rcx), %ecx
	movq	%rax, %r15
	cmpq	$23, %rcx
	je	.LBB21_6
# BB#3:                                 # %if.then
	movabsq	$4294967295, %rax       # imm = 0xFFFFFFFF
	testq	%rax, %r14
	jne	.LBB21_6
# BB#4:                                 # %if.then
	movl	pedantic(%rip), %ecx
	testq	%rax, %rcx
	je	.LBB21_6
# BB#5:                                 # %if.then.i69
	movabsq	$.L.str178, %rdi
	xorq	%rax, %rax
	callq	pedwarn
.LBB21_6:                               # %if.end
	movq	8(%r15), %rsi
	movq	32(%rbx), %rdx
	movq	$47, %rdi
	xorq	%rax, %rax
	movq	%r15, %rcx
	addq	$8, %rsp
	popq	%rbx
	popq	%r12
	popq	%r14
	popq	%r15
	jmp	build  # TAILCALL
.LBB21_15:                              # %return
	xorq	%rax, %rax
	addq	$8, %rsp
	popq	%rbx
	popq	%r12
	popq	%r14
	popq	%r15
	retq
.Ltmp251:
	.size	unary_complex_lvalue, .Ltmp251-unary_complex_lvalue
	.cfi_endproc

	.globl	build_modify_expr
	.align	16, 0x90
	.type	build_modify_expr,@function
build_modify_expr:                      # @build_modify_expr
	.cfi_startproc
# BB#0:                                 # %entry
	pushq	%r15
.Ltmp258:
	.cfi_def_cfa_offset 16
	pushq	%r14
.Ltmp259:
	.cfi_def_cfa_offset 24
	pushq	%r13
.Ltmp260:
	.cfi_def_cfa_offset 32
	pushq	%r12
.Ltmp261:
	.cfi_def_cfa_offset 40
	pushq	%rbx
.Ltmp262:
	.cfi_def_cfa_offset 48
.Ltmp263:
	.cfi_offset %rbx, -48
.Ltmp264:
	.cfi_offset %r12, -40
.Ltmp265:
	.cfi_offset %r13, -32
.Ltmp266:
	.cfi_offset %r14, -24
.Ltmp267:
	.cfi_offset %r15, -16
	movq	%rdi, %r13
	movq	global_trees(%rip), %rbx
	movq	8(%r13), %r14
	movq	%rdx, %r15
	movq	%rsi, %r12
	cmpq	%r13, %rbx
	je	.LBB22_4
# BB#1:                                 # %entry
	cmpq	%rbx, %r14
	je	.LBB22_4
# BB#2:                                 # %if.end.i
	cmpq	$0, 32(%r14)
	jne	.LBB22_5
# BB#3:                                 # %if.end6.i
	movq	%r13, %rdi
	movq	%r14, %rsi
	callq	incomplete_type_error
	movq	global_trees(%rip), %rbx
.LBB22_4:                               # %require_complete_type.exit
	movq	%rbx, %r13
.LBB22_5:                               # %require_complete_type.exit
	movl	16(%r13), %edx
	movq	%rdx, %rax
	andq	$255, %rax
	je	.LBB22_79
# BB#6:                                 # %lor.lhs.false
	movzbl	16(%r15), %ecx
	testq	%rcx, %rcx
	je	.LBB22_79
# BB#7:                                 # %lor.lhs.false
	cmpq	$116, %rcx
	jne	.LBB22_9
# BB#8:                                 # %if.then12
	movq	32(%r15), %r15
.LBB22_9:                               # %if.end13
	movabsq	$4294967295, %rbx       # imm = 0xFFFFFFFF
	andq	%rbx, %rax
	cmpq	$51, %rax
	jne	.LBB22_10
# BB#17:                                # %sw.bb33
	movl	pedantic(%rip), %eax
	testq	%rax, %rax
	je	.LBB22_19
# BB#18:                                # %if.then.i250
	movabsq	$.L.str177, %rdi
	xorq	%rax, %rax
	callq	pedwarn
.LBB22_19:                              # %pedantic_lvalue_warning.exit252
	movq	%r15, %rdi
	callq	save_expr
	movq	32(%r13), %r15
	movq	40(%r13), %rdi
	movq	%rax, %r14
	movq	%r12, %rsi
	movq	%r14, %rdx
	callq	build_modify_expr
	movq	48(%r13), %rdi
	movq	%rax, %rbx
	movq	%r12, %rsi
	movq	%r14, %rdx
	callq	build_modify_expr
	movq	%r15, %rdi
	movq	%rbx, %rsi
	movq	%rax, %rdx
	callq	build_conditional_expr
	movq	%rax, %rbx
	movzbl	16(%rbx), %eax
	testq	%rax, %rax
	je	.LBB22_79
# BB#20:                                # %if.end53
	movq	8(%r13), %r15
	movq	global_trees+216(%rip), %rdi
	movq	%r14, %rsi
	callq	convert
	movq	%rax, %rcx
	movq	$47, %rdi
	xorq	%rax, %rax
	movq	%r15, %rsi
	movq	%rcx, %rdx
	movq	%rbx, %rcx
	jmp	.LBB22_16
.LBB22_10:                              # %if.end13
	cmpq	$47, %rax
	jne	.LBB22_21
# BB#11:                                # %sw.bb
	movl	pedantic(%rip), %eax
	testq	%rax, %rax
	je	.LBB22_13
# BB#12:                                # %if.then.i
	movabsq	$.L.str178, %rdi
	xorq	%rax, %rax
	callq	pedwarn
.LBB22_13:                              # %pedantic_lvalue_warning.exit
	movq	40(%r13), %rdi
	movq	%r12, %rsi
	movq	%r15, %rdx
	callq	build_modify_expr
	movq	%rax, %rcx
	movzbl	16(%rcx), %eax
	testq	%rax, %rax
	je	.LBB22_14
# BB#15:                                # %if.end28
	movq	32(%r13), %rdx
	movq	$47, %rdi
	xorq	%rax, %rax
	movq	%r14, %rsi
.LBB22_16:                              # %if.end28
	popq	%rbx
	popq	%r12
	popq	%r13
	popq	%r14
	popq	%r15
	jmp	build  # TAILCALL
.LBB22_21:                              # %sw.epilog
	movq	%r12, %rax
	andq	%rbx, %rax
	cmpq	$115, %rax
	je	.LBB22_23
# BB#22:                                # %if.then59
	movq	%r13, %rdi
	callq	stabilize_reference
	movq	%rax, %r13
	movq	$1, %rcx
	movq	%r12, %rdi
	movq	%r13, %rsi
	movq	%r15, %rdx
	callq	build_binary_op
	movl	16(%r13), %edx
	movq	%rax, %r15
.LBB22_23:                              # %if.end62
	movq	%rdx, %rax
	andq	$255, %rax
	addq	$-72, %rax
	andq	%rbx, %rax
	cmpq	$43, %rax
	movq	%rdx, %rcx
	movq	%r13, %rsi
	ja	.LBB22_29
# BB#24:                                # %if.end62
	movq	$1, %rsi
	movq	%rax, %rcx
	shlq	%cl, %rsi
	movabsq	$13194139533343, %rax   # imm = 0xC000000001F
	testq	%rax, %rsi
	movq	%rdx, %rcx
	movq	%r13, %rsi
	je	.LBB22_29
# BB#25:                                # %sw.bb67
	movq	%r15, %rdi
	callq	default_function_array_conversion
	movq	32(%r13), %rbx
	movq	8(%rbx), %r15
	movq	%r14, %rdi
	movq	%rax, %rsi
	callq	convert
	movq	%r15, %rdi
	movq	%rax, %rsi
	callq	convert
	movq	$115, %rsi
	movq	%rbx, %rdi
	movq	%rax, %rdx
	callq	build_modify_expr
	movq	%rax, %rbx
	movzbl	16(%rbx), %eax
	testq	%rax, %rax
	je	.LBB22_79
# BB#26:                                # %if.end84
	movl	pedantic(%rip), %eax
	testq	%rax, %rax
	je	.LBB22_28
# BB#27:                                # %if.then.i254
	movabsq	$.L.str179, %rdi
	xorq	%rax, %rax
	callq	pedwarn
.LBB22_28:                              # %pedantic_lvalue_warning.exit256
	movq	8(%r13), %rdi
	movq	%rbx, %rsi
	popq	%rbx
	popq	%r12
	popq	%r13
	popq	%r14
	popq	%r15
	jmp	convert  # TAILCALL
.LBB22_14:                              # %if.then27
	movq	global_trees(%rip), %rbx
	jmp	.LBB22_79
.LBB22_46:                              # %sw.bb.i.i
                                        #   in Loop: Header=BB22_29 Depth=1
	movq	32(%rsi), %rsi
	movl	16(%rsi), %ecx
.LBB22_29:                              # %tailrecurse.i.i
                                        # =>This Inner Loop Header: Depth=1
	andq	$255, %rcx
	cmpq	$169, %rcx
	jg	.LBB22_56
# BB#30:                                # %tailrecurse.i.i
                                        #   in Loop: Header=BB22_29 Depth=1
	cmpq	$28, %rcx
	jle	.LBB22_31
# BB#40:                                # %tailrecurse.i.i
                                        #   in Loop: Header=BB22_29 Depth=1
	cmpq	$119, %rcx
	jg	.LBB22_47
# BB#41:                                # %tailrecurse.i.i
                                        #   in Loop: Header=BB22_29 Depth=1
	cmpq	$51, %rcx
	jg	.LBB22_49
# BB#42:                                # %tailrecurse.i.i
                                        #   in Loop: Header=BB22_29 Depth=1
	cmpq	$43, %rcx
	ja	.LBB22_54
# BB#43:                                # %tailrecurse.i.i
                                        #   in Loop: Header=BB22_29 Depth=1
	movq	$1, %rax
	shlq	%cl, %rax
	movabsq	$11115375362048, %rdi   # imm = 0xA1C00000000
	testq	%rdi, %rax
	jne	.LBB22_32
# BB#44:                                # %tailrecurse.i.i
                                        #   in Loop: Header=BB22_29 Depth=1
	cmpq	$29, %rcx
	je	.LBB22_57
# BB#45:                                # %tailrecurse.i.i
                                        #   in Loop: Header=BB22_29 Depth=1
	cmpq	$39, %rcx
	je	.LBB22_46
	jmp	.LBB22_54
.LBB22_47:                              # %tailrecurse.i.i
                                        #   in Loop: Header=BB22_29 Depth=1
	leaq	-127(%rcx), %rax
	andq	%rbx, %rax
	cmpq	$2, %rax
	jb	.LBB22_46
# BB#48:                                # %tailrecurse.i.i
	cmpq	$120, %rcx
	je	.LBB22_50
	jmp	.LBB22_54
.LBB22_56:                              # %tailrecurse.i.i
	cmpq	$170, %rcx
	jne	.LBB22_54
	jmp	.LBB22_57
.LBB22_31:                              # %tailrecurse.i.i
	testq	%rcx, %rcx
	jne	.LBB22_54
.LBB22_32:                              # %sw.bb3.i.i
	movq	8(%rsi), %rax
	movzbl	16(%rax), %esi
	cmpq	$16, %rsi
	movabsq	$0, %rcx
	movabsq	$1, %rdi
	movq	%rcx, %rax
	je	.LBB22_34
# BB#33:                                # %sw.bb3.i.i
	movq	%rdi, %rax
.LBB22_34:                              # %sw.bb3.i.i
	cmpq	$23, %rsi
	je	.LBB22_36
# BB#35:                                # %sw.bb3.i.i
	movq	%rdi, %rcx
.LBB22_36:                              # %sw.bb3.i.i
	cmpq	$16, %rsi
	je	.LBB22_54
# BB#37:                                # %sw.bb3.i.i
	cmpq	$23, %rsi
	je	.LBB22_54
# BB#38:
	andq	%rcx, %rax
	jmp	.LBB22_39
.LBB22_49:                              # %tailrecurse.i.i
	cmpq	$52, %rcx
	jne	.LBB22_54
.LBB22_50:                              # %lvalue_p.exit.i
	movq	8(%rsi), %rax
	movzbl	16(%rax), %eax
	cmpq	$18, %rax
	jne	.LBB22_51
# BB#52:                                # %lvalue_p.exit.i
	movabsq	$1, %rax
	jmp	.LBB22_53
.LBB22_51:
	movabsq	$0, %rax
.LBB22_53:                              # %lvalue_p.exit.i
	jne	.LBB22_54
.LBB22_39:                              # %lvalue_or_else.exit
	testq	%rax, %rax
	je	.LBB22_55
.LBB22_57:                              # %if.end92
	testq	$4096, %rdx             # imm = 0x1000
	je	.LBB22_59
# BB#58:
	movq	%r13, %rax
	jmp	.LBB22_62
.LBB22_54:                              # %lvalue_or_else.exit.thread
	movabsq	$.L.str81, %rdi
	movabsq	$.L.str108, %rsi
	xorq	%rax, %rax
	callq	error
.LBB22_55:                              # %if.then91
	movq	global_trees(%rip), %rbx
.LBB22_79:                              # %return
	movq	%rbx, %rax
	popq	%rbx
	popq	%r12
	popq	%r13
	popq	%r14
	popq	%r15
	retq
.LBB22_59:                              # %lor.lhs.false97
	movl	16(%r14), %eax
	testq	$4096, %rax             # imm = 0x1000
	jne	.LBB22_60
# BB#61:                                # %lor.lhs.false97
	andq	$33554686, %rax         # imm = 0x20000FE
	andq	%rbx, %rax
	cmpq	$33554452, %rax         # imm = 0x2000014
	movq	%r13, %rax
	jne	.LBB22_70
	jmp	.LBB22_62
.LBB22_60:
	movq	%r13, %rax
	jmp	.LBB22_62
.LBB22_65:                              # %if.then.i260.tailrecurse.i_crit_edge
                                        #   in Loop: Header=BB22_62 Depth=1
	movl	16(%rcx), %edx
	movq	%rcx, %rax
.LBB22_62:                              # %tailrecurse.i
                                        # =>This Inner Loop Header: Depth=1
	andq	$255, %rdx
	cmpq	$34, %rdx
	je	.LBB22_67
# BB#63:                                # %tailrecurse.i
                                        #   in Loop: Header=BB22_62 Depth=1
	cmpq	$39, %rdx
	jne	.LBB22_69
# BB#64:                                # %if.then.i260
                                        #   in Loop: Header=BB22_62 Depth=1
	movq	32(%rax), %rcx
	movq	8(%rcx), %rdx
	movzbl	17(%rdx), %edx
	testq	$16, %rdx
	jne	.LBB22_65
# BB#66:                                # %if.else.i
	movq	40(%rax), %rax
	movq	72(%rax), %rax
	movq	32(%rax), %rdx
	movabsq	$.L.str82, %rdi
	jmp	.LBB22_68
.LBB22_67:                              # %if.then18.i
	movq	72(%rax), %rax
	movq	32(%rax), %rdx
	movabsq	$.L.str83, %rdi
.LBB22_68:                              # %if.end122
	movabsq	$.L.str109, %rsi
	xorq	%rax, %rax
	callq	pedwarn
	jmp	.LBB22_70
.LBB22_69:                              # %if.else24.i
	movabsq	$.L.str84, %rdi
	movabsq	$.L.str109, %rsi
	xorq	%rax, %rax
	callq	pedwarn
.LBB22_70:                              # %if.end122
	movzbl	16(%r13), %eax
	cmpq	$39, %rax
	movq	%r14, %rbx
	jne	.LBB22_74
# BB#71:                                # %land.lhs.true128
	movzbl	16(%r14), %ecx
	cmpq	$11, %rcx
	movq	%r14, %rbx
	ja	.LBB22_74
# BB#72:                                # %land.lhs.true128
	movq	$1, %rax
	shlq	%cl, %rax
	testq	$3264, %rax             # imm = 0xCC0
	movq	%r14, %rbx
	je	.LBB22_74
# BB#73:                                # %if.then152
	xorq	%rsi, %rsi
	movq	%r13, %rdi
	callq	get_unwidened
	movq	8(%rax), %rbx
.LBB22_74:                              # %if.end156
	movq	8(%r13), %rax
	cmpq	%rax, %rbx
	je	.LBB22_76
# BB#75:                                # %if.then160
	movq	%r13, %rdi
	callq	copy_node
	movq	%rax, %r13
	movq	%rbx, 8(%r13)
.LBB22_76:                              # %if.end164
	movabsq	$.L.str109, %rdx
	xorq	%rcx, %rcx
	xorq	%r8, %r8
	xorq	%r9, %r9
	movq	%rbx, %rdi
	movq	%r15, %rsi
	callq	convert_for_assignment
	movq	%rax, %rcx
	movzbl	16(%rcx), %eax
	testq	%rax, %rax
	je	.LBB22_77
# BB#78:                                # %if.end172
	movq	$48, %rdi
	xorq	%rax, %rax
	movq	%rbx, %rsi
	movq	%r13, %rdx
	callq	build
	movq	%rax, %rbx
	movl	16(%rbx), %eax
	orq	$256, %rax              # imm = 0x100
	movl	%eax, 16(%rbx)
	movq	8(%rbx), %rax
	cmpq	%rax, %r14
	je	.LBB22_79
# BB#80:                                # %if.end181
	movabsq	$.L.str109, %rdx
	xorq	%rcx, %rcx
	xorq	%r8, %r8
	xorq	%r9, %r9
	movq	%r14, %rdi
	movq	%rbx, %rsi
	popq	%rbx
	popq	%r12
	popq	%r13
	popq	%r14
	popq	%r15
	jmp	convert_for_assignment  # TAILCALL
.LBB22_77:                              # %if.then171
	movq	global_trees(%rip), %rbx
	jmp	.LBB22_79
.Ltmp268:
	.size	build_modify_expr, .Ltmp268-build_modify_expr
	.cfi_endproc

	.globl	lvalue_or_else
	.align	16, 0x90
	.type	lvalue_or_else,@function
lvalue_or_else:                         # @lvalue_or_else
	.cfi_startproc
# BB#0:                                 # %entry
	pushq	%rbx
.Ltmp271:
	.cfi_def_cfa_offset 16
.Ltmp272:
	.cfi_offset %rbx, -16
	movq	$1, %rbx
	movabsq	$11115375362048, %r8    # imm = 0xA1C00000000
	movabsq	$4294967295, %rdx       # imm = 0xFFFFFFFF
	jmp	.LBB23_1
.LBB23_17:                              # %sw.bb.i
                                        #   in Loop: Header=BB23_1 Depth=1
	movq	32(%rdi), %rdi
	.align	16, 0x90
.LBB23_1:                               # %tailrecurse.i
                                        # =>This Inner Loop Header: Depth=1
	movzbl	16(%rdi), %ecx
	cmpq	$169, %rcx
	jg	.LBB23_20
# BB#2:                                 # %tailrecurse.i
                                        #   in Loop: Header=BB23_1 Depth=1
	cmpq	$28, %rcx
	jle	.LBB23_3
# BB#11:                                # %tailrecurse.i
                                        #   in Loop: Header=BB23_1 Depth=1
	cmpq	$119, %rcx
	jg	.LBB23_18
# BB#12:                                # %tailrecurse.i
                                        #   in Loop: Header=BB23_1 Depth=1
	cmpq	$51, %rcx
	jg	.LBB23_21
# BB#13:                                # %tailrecurse.i
