	.file	"combine.c.bc"
	.text
	.globl	combine_instructions
	.align	16, 0x90
	.type	combine_instructions,@function
combine_instructions:                   # @combine_instructions
	.cfi_startproc
# BB#0:                                 # %entry
	pushq	%r15
.Ltmp6:
	.cfi_def_cfa_offset 16
	pushq	%r14
.Ltmp7:
	.cfi_def_cfa_offset 24
	pushq	%r13
.Ltmp8:
	.cfi_def_cfa_offset 32
	pushq	%r12
.Ltmp9:
	.cfi_def_cfa_offset 40
	pushq	%rbx
.Ltmp10:
	.cfi_def_cfa_offset 48
	subq	$16, %rsp
.Ltmp11:
	.cfi_def_cfa_offset 64
.Ltmp12:
	.cfi_offset %rbx, -48
.Ltmp13:
	.cfi_offset %r12, -40
.Ltmp14:
	.cfi_offset %r13, -32
.Ltmp15:
	.cfi_offset %r14, -24
.Ltmp16:
	.cfi_offset %r15, -16
	movq	%rsi, %r15
	movq	%rdi, %r14
	movq	%r14, (%rsp)            # 8-byte Spill
	xorq	%rax, %rax
	movl	%eax, 12(%rsp)
	movl	%eax, combine_attempts(%rip)
	movl	%eax, combine_merges(%rip)
	movl	%eax, combine_extras(%rip)
	movl	%eax, combine_successes(%rip)
	movl	%r15d, combine_max_regno(%rip)
	movabsq	$4294967295, %rax       # imm = 0xFFFFFFFF
	andq	%rax, %r15
	movq	$8, %rsi
	movq	%r15, %rdi
	callq	xcalloc
	movq	%rax, reg_nonzero_bits(%rip)
	movq	$1, %rsi
	movq	$1, %r13
	movq	%r15, %rdi
	callq	xcalloc
	movq	%rax, reg_sign_bit_copies(%rip)
	movq	$3, %rcx
	movq	%r15, %r12
	shlq	%cl, %r12
	movq	%r12, %rdi
	callq	xmalloc
	movq	%rax, reg_last_death(%rip)
	movq	%r12, %rdi
	callq	xmalloc
	movq	%rax, reg_last_set(%rip)
	movq	%r12, %rdi
	callq	xmalloc
	movq	%rax, reg_last_set_value(%rip)
	movq	$2, %rcx
	movq	%r15, %rbx
	shlq	%cl, %rbx
	movq	%rbx, %rdi
	callq	xmalloc
	movq	%rax, reg_last_set_table_tick(%rip)
	movq	%rbx, %rdi
	callq	xmalloc
	movq	%rax, reg_last_set_label(%rip)
	movq	%r15, %rdi
	callq	xmalloc
	movq	%rax, reg_last_set_invalid(%rip)
	movq	%rbx, %rdi
	callq	xmalloc
	movq	%rax, reg_last_set_mode(%rip)
	movq	%r12, %rdi
	callq	xmalloc
	movq	%rax, reg_last_set_nonzero_bits(%rip)
	movq	%r15, %rdi
	callq	xmalloc
	movl	combine_max_regno(%rip), %r15d
	movq	reg_last_death(%rip), %rdi
	movq	%rax, reg_last_set_sign_bit_copies(%rip)
	movq	$3, %rcx
	movq	%r15, %r12
	shlq	%cl, %r12
	xorq	%rsi, %rsi
	movq	%r12, %rdx
	callq	memset
	movq	reg_last_set(%rip), %rdi
	xorq	%rsi, %rsi
	movq	%r12, %rdx
	callq	memset
	movq	reg_last_set_value(%rip), %rdi
	xorq	%rsi, %rsi
	movq	%r12, %rdx
	callq	memset
	movq	reg_last_set_table_tick(%rip), %rdi
	movq	$2, %rcx
	movq	%r15, %rbx
	shlq	%cl, %rbx
	xorq	%rsi, %rsi
	movq	%rbx, %rdx
	callq	memset
	movq	reg_last_set_label(%rip), %rdi
	xorq	%rsi, %rsi
	movq	%rbx, %rdx
	callq	memset
	movq	reg_last_set_invalid(%rip), %rdi
	xorq	%rsi, %rsi
	movq	%r15, %rdx
	callq	memset
	movq	reg_last_set_mode(%rip), %rdi
	xorq	%rsi, %rsi
	movq	%rbx, %rdx
	callq	memset
	movq	reg_last_set_nonzero_bits(%rip), %rdi
	xorq	%rsi, %rsi
	movq	%r12, %rdx
	callq	memset
	movq	reg_last_set_sign_bit_copies(%rip), %rdi
	xorq	%rsi, %rsi
	movq	%r15, %rdx
	callq	memset
	callq	init_recog_no_volatile
	testq	%r14, %r14
	movabsq	$0, %rbx
	je	.LBB0_5
# BB#1:
	movq	(%rsp), %rax            # 8-byte Reload
	xorq	%rdx, %rdx
	.align	16, 0x90
.LBB0_2:                                # %for.body
                                        # =>This Inner Loop Header: Depth=1
	movslq	8(%rax), %rbx
	movq	$32, %rcx
	movq	%rdx, %rsi
	shlq	%cl, %rsi
	movq	$32, %rcx
	sarq	%cl, %rsi
	cmpq	%rsi, %rbx
	jge	.LBB0_4
# BB#3:                                 # %for.body
                                        #   in Loop: Header=BB0_2 Depth=1
	movq	%rdx, %rbx
.LBB0_4:                                # %for.body
                                        #   in Loop: Header=BB0_2 Depth=1
	movq	24(%rax), %rax
	testq	%rax, %rax
	movq	%rbx, %rdx
	jne	.LBB0_2
.LBB0_5:                                # %for.end
	leaq	1(%rbx), %rdi
	movq	$32, %rcx
	shlq	%cl, %rdi
	movq	$32, %rcx
	sarq	%cl, %rdi
	movq	$2, %rcx
	shlq	%cl, %rdi
	callq	xmalloc
	movq	%rax, uid_cuid(%rip)
	movl	%ebx, max_uid_cuid(%rip)
	movq	$64, %rdi
	movq	$1, %rsi
	xorq	%rdx, %rdx
	callq	mode_for_size
	movl	n_basic_blocks(%rip), %edi
	movl	%eax, nonzero_bits_mode(%rip)
	xorq	%rbx, %rbx
	movb	%bl, nonzero_sign_valid(%rip)
	movl	%r13d, label_tick(%rip)
	callq	sbitmap_alloc
	movq	%rax, refresh_blocks(%rip)
	movq	%rax, %rdi
	callq	sbitmap_zero
	cmpq	$0, (%rsp)              # 8-byte Folded Reload
	movb	%bl, need_refresh(%rip)
	je	.LBB0_12
# BB#6:
	movabsq	$set_nonzero_bits_and_sign_copies, %r15
	movq	(%rsp), %rbx            # 8-byte Reload
	.align	16, 0x90
.LBB0_7:                                # %for.body42
                                        # =>This Inner Loop Header: Depth=1
	movslq	8(%rbx), %rax
	movq	uid_cuid(%rip), %rcx
	movl	%r13d, (%rcx,%rax,4)
	movl	%r13d, subst_low_cuid(%rip)
	movq	%rbx, subst_insn(%rip)
	movl	(%rbx), %eax
	movq	%rax, %rcx
	andq	$65535, %rcx            # imm = 0xFFFF
	movzbl	rtx_class(%rcx), %ecx
	cmpq	$105, %rcx
	jne	.LBB0_9
# BB#8:                                 # %if.then52
                                        #   in Loop: Header=BB0_7 Depth=1
	movq	32(%rbx), %rdi
	xorq	%rdx, %rdx
	movq	%r15, %rsi
	callq	note_stores
	movq	%rbx, %rdi
	callq	record_dead_and_set_regs
	movl	(%rbx), %eax
.LBB0_9:                                # %if.end56
                                        #   in Loop: Header=BB0_7 Depth=1
	andq	$65535, %rax            # imm = 0xFFFF
	cmpq	$36, %rax
	jne	.LBB0_11
# BB#10:                                # %if.then61
                                        #   in Loop: Header=BB0_7 Depth=1
	movl	label_tick(%rip), %eax
	incq	%rax
	movl	%eax, label_tick(%rip)
.LBB0_11:                               # %for.inc64
                                        #   in Loop: Header=BB0_7 Depth=1
	movq	24(%rbx), %rbx
	incq	%r13
	testq	%rbx, %rbx
	jne	.LBB0_7
.LBB0_12:                               # %for.end68
	movq	$1, %rax
	movb	%al, nonzero_sign_valid(%rip)
	movabsq	$4294967295, %rcx       # imm = 0xFFFFFFFF
	movl	%ecx, this_basic_block(%rip)
	movl	%eax, label_tick(%rip)
	xorq	%rax, %rax
	movl	combine_max_regno(%rip), %r15d
	movl	%eax, last_call_cuid(%rip)
	movq	reg_last_death(%rip), %rdi
	movl	%eax, mem_last_set(%rip)
	movq	$3, %rcx
	movq	%r15, %r12
	shlq	%cl, %r12
	xorq	%rsi, %rsi
	movq	%r12, %rdx
	callq	memset
	movq	reg_last_set(%rip), %rdi
	xorq	%rsi, %rsi
	movq	%r12, %rdx
	callq	memset
	movq	reg_last_set_value(%rip), %rdi
	xorq	%rsi, %rsi
	movq	%r12, %rdx
	callq	memset
	movq	reg_last_set_table_tick(%rip), %rdi
	movq	$2, %rcx
	movq	%r15, %rbx
	shlq	%cl, %rbx
	xorq	%rsi, %rsi
	movq	%rbx, %rdx
	callq	memset
	movq	reg_last_set_label(%rip), %rdi
	xorq	%rsi, %rsi
	movq	%rbx, %rdx
	callq	memset
	movq	reg_last_set_invalid(%rip), %rdi
	xorq	%rsi, %rsi
	movq	%r15, %rdx
	callq	memset
	movq	reg_last_set_mode(%rip), %rdi
	xorq	%rsi, %rsi
	movq	%rbx, %rdx
	callq	memset
	movq	reg_last_set_nonzero_bits(%rip), %rdi
	xorq	%rsi, %rsi
	movq	%r12, %rdx
	callq	memset
	movq	reg_last_set_sign_bit_copies(%rip), %rdi
	xorq	%rsi, %rsi
	movq	%r15, %rdx
	callq	memset
	cmpq	$0, (%rsp)              # 8-byte Folded Reload
	je	.LBB0_39
# BB#13:
	leaq	12(%rsp), %r15
	movq	(%rsp), %rax            # 8-byte Reload
	.align	16, 0x90
.LBB0_14:                               # %for.body71
                                        # =>This Loop Header: Depth=1
                                        #     Child Loop BB0_21 Depth 2
                                        #     Child Loop BB0_24 Depth 2
                                        #       Child Loop BB0_27 Depth 3
                                        #     Child Loop BB0_32 Depth 2
                                        #       Child Loop BB0_34 Depth 3
	movl	this_basic_block(%rip), %edx
	incq	%rdx
	movq	$32, %rcx
	movq	%rdx, %rsi
	movslq	n_basic_blocks(%rip), %rdi
	shlq	%cl, %rsi
	movq	$32, %rcx
	sarq	%cl, %rsi
	movq	%rax, %r13
	cmpq	%rdi, %rsi
	jge	.LBB0_17
# BB#15:                                # %land.lhs.true
                                        #   in Loop: Header=BB0_14 Depth=1
	movq	$32, %rcx
	movq	%rdx, %rax
	movq	basic_block_info(%rip), %rsi
	shlq	%cl, %rax
	movq	$32, %rcx
	sarq	%cl, %rax
	movq	32(%rsi,%rax,8), %rax
	movq	(%rax), %rax
	cmpq	%r13, %rax
	jne	.LBB0_17
# BB#16:                                # %if.then80
                                        #   in Loop: Header=BB0_14 Depth=1
	movl	%edx, this_basic_block(%rip)
.LBB0_17:                               # %if.end82
                                        #   in Loop: Header=BB0_14 Depth=1
	movzbl	(%r13), %eax
	cmpq	$36, %rax
	jne	.LBB0_19
# BB#18:                                # %if.then87
                                        #   in Loop: Header=BB0_14 Depth=1
	movl	label_tick(%rip), %eax
	incq	%rax
	movl	%eax, label_tick(%rip)
	jmp	.LBB0_38
	.align	16, 0x90
.LBB0_19:                               # %if.else
                                        #   in Loop: Header=BB0_14 Depth=1
	movzbl	rtx_class(%rax), %eax
	cmpq	$105, %rax
	jne	.LBB0_38
# BB#20:                                # %if.then96
                                        #   in Loop: Header=BB0_14 Depth=1
	movq	32(%r13), %rsi
	movq	%r13, %rdi
	callq	check_promoted_subreg
	movq	48(%r13), %rbx
	testq	%rbx, %rbx
	je	.LBB0_36
	.align	16, 0x90
.LBB0_21:                               # %for.body105
                                        #   Parent Loop BB0_14 Depth=1
                                        # =>  This Inner Loop Header: Depth=2
	movq	8(%rbx), %rsi
	xorq	%rdx, %rdx
	movq	%r13, %rdi
	movq	%r15, %rcx
	callq	try_combine
	testq	%rax, %rax
	jne	.LBB0_14
# BB#22:                                # %for.inc114
                                        #   in Loop: Header=BB0_21 Depth=2
	movq	16(%rbx), %rbx
	testq	%rbx, %rbx
	jne	.LBB0_21
# BB#23:                                # %for.cond122.preheader
                                        #   in Loop: Header=BB0_14 Depth=1
	movq	48(%r13), %r14
	testq	%r14, %r14
	je	.LBB0_36
.LBB0_24:                               # %for.body124
                                        #   Parent Loop BB0_14 Depth=1
                                        # =>  This Loop Header: Depth=2
                                        #       Child Loop BB0_27 Depth 3
	movq	8(%r14), %r12
	movzbl	(%r12), %eax
	cmpq	$37, %rax
	je	.LBB0_29
# BB#25:                                # %if.end133
                                        #   in Loop: Header=BB0_24 Depth=2
	movq	48(%r12), %rbx
	jmp	.LBB0_27
	.align	16, 0x90
.LBB0_26:                               # %for.cond137
                                        #   in Loop: Header=BB0_27 Depth=3
	movq	16(%rbx), %rbx
.LBB0_27:                               # %for.cond137
                                        #   Parent Loop BB0_14 Depth=1
                                        #     Parent Loop BB0_24 Depth=2
                                        # =>    This Inner Loop Header: Depth=3
	testq	%rbx, %rbx
	je	.LBB0_29
# BB#28:                                # %for.body139
                                        #   in Loop: Header=BB0_27 Depth=3
	movq	8(%rbx), %rdx
	movq	%r13, %rdi
	movq	%r12, %rsi
	movq	%r15, %rcx
	callq	try_combine
	testq	%rax, %rax
	je	.LBB0_26
	jmp	.LBB0_14
	.align	16, 0x90
.LBB0_29:                               # %for.inc153
                                        #   in Loop: Header=BB0_24 Depth=2
	movq	16(%r14), %r14
	testq	%r14, %r14
	jne	.LBB0_24
# BB#30:                                # %for.cond161.preheader
                                        #   in Loop: Header=BB0_14 Depth=1
	movq	48(%r13), %r14
	jmp	.LBB0_32
.LBB0_31:                               # %for.cond161.loopexit
                                        #   in Loop: Header=BB0_32 Depth=2
	movq	16(%r14), %r14
.LBB0_32:                               # %for.cond161.loopexit
                                        #   Parent Loop BB0_14 Depth=1
                                        # =>  This Loop Header: Depth=2
                                        #       Child Loop BB0_34 Depth 3
	testq	%r14, %r14
	je	.LBB0_36
# BB#33:                                # %for.body163
                                        #   in Loop: Header=BB0_32 Depth=2
	movq	16(%r14), %r12
	testq	%r12, %r12
	je	.LBB0_36
	.align	16, 0x90
.LBB0_34:                               # %for.body169
                                        #   Parent Loop BB0_14 Depth=1
                                        #     Parent Loop BB0_32 Depth=2
                                        # =>    This Inner Loop Header: Depth=3
	movq	8(%r14), %rsi
	movq	8(%r12), %rdx
	movq	%r13, %rdi
	movq	%r15, %rcx
	callq	try_combine
	testq	%rax, %rax
	jne	.LBB0_14
# BB#35:                                # %for.inc181
                                        #   in Loop: Header=BB0_34 Depth=3
	movq	16(%r12), %r12
	testq	%r12, %r12
	jne	.LBB0_34
	jmp	.LBB0_31
.LBB0_36:                               # %for.end190
                                        #   in Loop: Header=BB0_14 Depth=1
	movzbl	(%r13), %eax
	cmpq	$37, %rax
	je	.LBB0_38
# BB#37:                                # %if.then195
                                        #   in Loop: Header=BB0_14 Depth=1
	movq	%r13, %rdi
	callq	record_dead_and_set_regs
	.align	16, 0x90
.LBB0_38:                               # %for.cond69.backedge
                                        #   in Loop: Header=BB0_14 Depth=1
	movq	24(%r13), %rax
	testq	%rax, %rax
	jne	.LBB0_14
.LBB0_39:                               # %for.end204
	movq	(%rsp), %rdi            # 8-byte Reload
	callq	delete_noop_moves
	movzbl	need_refresh(%rip), %eax
	cmpq	$1, %rax
	jne	.LBB0_41
# BB#40:                                # %if.then206
	movq	refresh_blocks(%rip), %rdi
	movq	$2, %rsi
	movq	$1, %rdx
	callq	update_life_info
.LBB0_41:                               # %if.end207
	movq	refresh_blocks(%rip), %rdi
	callq	free
	movq	reg_nonzero_bits(%rip), %rdi
	callq	free
	movq	reg_sign_bit_copies(%rip), %rdi
	callq	free
	movq	reg_last_death(%rip), %rdi
	callq	free
	movq	reg_last_set(%rip), %rdi
	callq	free
	movq	reg_last_set_value(%rip), %rdi
	callq	free
	movq	reg_last_set_table_tick(%rip), %rdi
	callq	free
	movq	reg_last_set_label(%rip), %rdi
	callq	free
	movq	reg_last_set_invalid(%rip), %rdi
	callq	free
	movq	reg_last_set_mode(%rip), %rdi
	callq	free
	movq	reg_last_set_nonzero_bits(%rip), %rdi
	callq	free
	movq	reg_last_set_sign_bit_copies(%rip), %rdi
	callq	free
	movq	uid_cuid(%rip), %rdi
	callq	free
	movq	undobuf+8(%rip), %rdi
	testq	%rdi, %rdi
	je	.LBB0_43
	.align	16, 0x90
.LBB0_42:                               # %for.body211
                                        # =>This Inner Loop Header: Depth=1
	movq	(%rdi), %rbx
	callq	free
	testq	%rbx, %rbx
	movq	%rbx, %rdi
	jne	.LBB0_42
.LBB0_43:                               # %for.end214
	movl	combine_attempts(%rip), %eax
	movl	total_attempts(%rip), %ecx
	addq	%rax, %rcx
	movl	%ecx, total_attempts(%rip)
	movl	combine_merges(%rip), %eax
	movl	total_merges(%rip), %ecx
	addq	%rax, %rcx
	movl	%ecx, total_merges(%rip)
	movl	combine_extras(%rip), %eax
	movl	total_extras(%rip), %ecx
	addq	%rax, %rcx
	movl	%ecx, total_extras(%rip)
	movl	combine_successes(%rip), %eax
	movl	total_successes(%rip), %ecx
	movq	$0, undobuf+8(%rip)
	addq	%rax, %rcx
	movl	%ecx, total_successes(%rip)
	xorq	%rax, %rax
	movb	%al, nonzero_sign_valid(%rip)
	callq	init_recog
	movl	12(%rsp), %eax
	addq	$16, %rsp
	popq	%rbx
	popq	%r12
	popq	%r13
	popq	%r14
	popq	%r15
	retq
.Ltmp17:
	.size	combine_instructions, .Ltmp17-combine_instructions
	.cfi_endproc

	.align	16, 0x90
	.type	set_nonzero_bits_and_sign_copies,@function
set_nonzero_bits_and_sign_copies:       # @set_nonzero_bits_and_sign_copies
	.cfi_startproc
# BB#0:                                 # %entry
	pushq	%r15
.Ltmp22:
	.cfi_def_cfa_offset 16
	pushq	%r14
.Ltmp23:
	.cfi_def_cfa_offset 24
	pushq	%rbx
.Ltmp24:
	.cfi_def_cfa_offset 32
.Ltmp25:
	.cfi_offset %rbx, -32
.Ltmp26:
	.cfi_offset %r14, -24
.Ltmp27:
	.cfi_offset %r15, -16
	movq	%rdi, %rbx
	movzbl	(%rbx), %eax
	movq	%rsi, %r14
	cmpq	$61, %rax
	jne	.LBB1_17
# BB#1:                                 # %land.lhs.true
	movl	8(%rbx), %esi
	cmpq	$53, %rsi
	jb	.LBB1_17
# BB#2:                                 # %land.lhs.true2
	movq	basic_block_info(%rip), %rax
	movq	32(%rax), %rax
	movq	64(%rax), %rdi
	callq	bitmap_bit_p
	movabsq	$4294967295, %r15       # imm = 0xFFFFFFFF
	testq	%r15, %rax
	jne	.LBB1_17
# BB#3:                                 # %land.lhs.true8
	movzbl	2(%rbx), %eax
	movzbl	mode_bitsize(%rax,%rax), %ecx
	cmpq	$64, %rcx
	ja	.LBB1_17
# BB#4:                                 # %if.then
	testq	%r14, %r14
	je	.LBB1_16
# BB#5:                                 # %lor.lhs.false
	movzbl	(%r14), %ecx
	cmpq	$49, %rcx
	je	.LBB1_16
# BB#6:                                 # %if.end
	movq	%r14, %rdi
	callq	expand_field_assignment
	movq	%rax, %r14
	movq	8(%r14), %rax
	cmpq	%rbx, %rax
	je	.LBB1_10
# BB#7:                                 # %lor.lhs.false41
	movl	(%rax), %edx
	movq	%rdx, %rcx
	andq	$65535, %rcx            # imm = 0xFFFF
	cmpq	$63, %rcx
	jne	.LBB1_15
# BB#8:                                 # %land.lhs.true49
	movq	8(%rax), %rax
	movq	$16, %rcx
	movzbl	2(%rax), %esi
	shrq	%cl, %rdx
	andq	$255, %rdx
	movzbl	mode_size(%rdx), %ecx
	movzbl	mode_size(%rsi), %edx
	cmpq	%rdx, %rcx
	jbe	.LBB1_15
# BB#9:                                 # %land.lhs.true49
	cmpq	%rbx, %rax
	jne	.LBB1_15
.LBB1_10:                               # %if.then82
	movl	8(%rbx), %eax
	movq	reg_nonzero_bits(%rip), %rcx
	movq	(%rcx,%rax,8), %rax
	cmpq	$-1, %rax
	je	.LBB1_12
# BB#11:                                # %if.then93
	movq	16(%r14), %rdi
	movl	nonzero_bits_mode(%rip), %esi
	callq	nonzero_bits
	movl	8(%rbx), %ecx
	movq	reg_nonzero_bits(%rip), %rdx
	orq	%rax, (%rdx,%rcx,8)
.LBB1_12:                               # %if.end100
	movq	16(%r14), %rdi
	movzbl	2(%rbx), %esi
	callq	num_sign_bit_copies
	movl	8(%rbx), %ecx
	movq	reg_sign_bit_copies(%rip), %rdx
	movzbl	(%rdx,%rcx), %esi
	testq	%rsi, %rsi
	je	.LBB1_14
# BB#13:                                # %if.end100
	andq	%rax, %r15
	cmpq	%r15, %rsi
	jbe	.LBB1_17
.LBB1_14:                               # %if.then125
	movb	%al, (%rdx,%rcx)
	jmp	.LBB1_17
.LBB1_15:                               # %if.else
	movzbl	2(%rbx), %eax
.LBB1_16:                               # %if.end149
	movq	mode_mask_array(,%rax,8), %rax
	movl	8(%rbx), %ecx
	movq	reg_nonzero_bits(%rip), %rdx
	movq	%rax, (%rdx,%rcx,8)
	movq	reg_sign_bit_copies(%rip), %rax
	movq	$1, %rdx
	movb	%dl, (%rax,%rcx)
.LBB1_17:                               # %if.end149
	popq	%rbx
	popq	%r14
	popq	%r15
	retq
.Ltmp28:
	.size	set_nonzero_bits_and_sign_copies, .Ltmp28-set_nonzero_bits_and_sign_copies
	.cfi_endproc

	.align	16, 0x90
	.type	record_dead_and_set_regs,@function
record_dead_and_set_regs:               # @record_dead_and_set_regs
	.cfi_startproc
# BB#0:                                 # %entry
	pushq	%r15
.Ltmp35:
	.cfi_def_cfa_offset 16
	pushq	%r14
.Ltmp36:
	.cfi_def_cfa_offset 24
	pushq	%r13
.Ltmp37:
	.cfi_def_cfa_offset 32
	pushq	%r12
.Ltmp38:
	.cfi_def_cfa_offset 40
	pushq	%rbx
.Ltmp39:
	.cfi_def_cfa_offset 48
.Ltmp40:
	.cfi_offset %rbx, -48
.Ltmp41:
	.cfi_offset %r12, -40
.Ltmp42:
	.cfi_offset %r13, -32
.Ltmp43:
	.cfi_offset %r14, -24
.Ltmp44:
	.cfi_offset %r15, -16
	movq	%rdi, %r14
	movq	56(%r14), %rbx
	testq	%rbx, %rbx
	je	.LBB2_24
# BB#1:
	movabsq	$4294967295, %r15       # imm = 0xFFFFFFFF
	movabsq	$4294967288, %r12       # imm = 0xFFFFFFF8
	movabsq	$0, %r13
	.align	16, 0x90
.LBB2_2:                                # %for.body
                                        # =>This Loop Header: Depth=1
                                        #     Child Loop BB2_21 Depth 2
	movl	(%rbx), %eax
	andq	$16711680, %rax         # imm = 0xFF0000
	cmpq	$131072, %rax           # imm = 0x20000
	jne	.LBB2_3
# BB#22:                                # %if.then102
                                        #   in Loop: Header=BB2_2 Depth=1
	movq	8(%rbx), %rdi
	xorq	%rdx, %rdx
	movq	%r14, %rsi
	callq	record_value_for_reg
	jmp	.LBB2_23
	.align	16, 0x90
.LBB2_3:                                # %for.body
                                        #   in Loop: Header=BB2_2 Depth=1
	andq	%r15, %rax
	cmpq	$65536, %rax            # imm = 0x10000
	jne	.LBB2_23
# BB#4:                                 # %land.lhs.true
                                        #   in Loop: Header=BB2_2 Depth=1
	movq	8(%rbx), %rax
	movl	(%rax), %edx
	movq	%rdx, %rcx
	andq	$65535, %rcx            # imm = 0xFFFF
	cmpq	$61, %rcx
	jne	.LBB2_23
# BB#5:                                 # %if.then
                                        #   in Loop: Header=BB2_2 Depth=1
	movl	8(%rax), %esi
	cmpq	$52, %rsi
	movq	$1, %rax
	ja	.LBB2_19
# BB#6:                                 # %cond.true
                                        #   in Loop: Header=BB2_2 Depth=1
	movq	%rsi, %rax
	andq	%r12, %rax
	movq	$16, %rcx
	shrq	%cl, %rdx
	andq	$255, %rdx
	cmpq	$8, %rax
	je	.LBB2_10
# BB#7:                                 # %cond.true
                                        #   in Loop: Header=BB2_2 Depth=1
	leaq	-21(%rsi), %rax
	andq	%r15, %rax
	cmpq	$8, %rax
	jb	.LBB2_10
# BB#8:                                 # %cond.true
                                        #   in Loop: Header=BB2_2 Depth=1
	leaq	-45(%rsi), %rax
	andq	%r15, %rax
	cmpq	$8, %rax
	jb	.LBB2_10
# BB#9:                                 # %cond.true
                                        #   in Loop: Header=BB2_2 Depth=1
	leaq	-29(%rsi), %rax
	andq	%r15, %rax
	cmpq	$7, %rax
	jbe	.LBB2_10
# BB#14:                                # %cond.false
                                        #   in Loop: Header=BB2_2 Depth=1
	cmpq	$24, %rdx
	jne	.LBB2_15
# BB#17:                                # %cond.true63
                                        #   in Loop: Header=BB2_2 Depth=1
	movzbl	target_flags+3(%rip), %eax
	andq	$2, %rax
	xorq	$6, %rax
	jmp	.LBB2_19
.LBB2_10:                               # %cond.true27
                                        #   in Loop: Header=BB2_2 Depth=1
	movl	mode_class(,%rdx,4), %ecx
	cmpq	$5, %rcx
	movq	$2, %rax
	je	.LBB2_19
# BB#11:                                # %lor.rhs
                                        #   in Loop: Header=BB2_2 Depth=1
	cmpq	$6, %rcx
	movq	%r13, %rax
	jne	.LBB2_13
# BB#12:                                # %lor.rhs
                                        #   in Loop: Header=BB2_2 Depth=1
	movabsq	$1, %rax
.LBB2_13:                               # %lor.rhs
                                        #   in Loop: Header=BB2_2 Depth=1
	incq	%rax
	jmp	.LBB2_19
.LBB2_15:                               # %cond.false
                                        #   in Loop: Header=BB2_2 Depth=1
	cmpq	$18, %rdx
	jne	.LBB2_18
# BB#16:                                # %cond.true52
                                        #   in Loop: Header=BB2_2 Depth=1
	movl	target_flags(%rip), %eax
	movq	$25, %rcx
	shrq	%cl, %rax
	andq	$1, %rax
	xorq	$3, %rax
	jmp	.LBB2_19
.LBB2_18:                               # %cond.false67
                                        #   in Loop: Header=BB2_2 Depth=1
	movl	target_flags(%rip), %edi
	movzbl	mode_size(%rdx), %eax
	movq	$23, %rcx
	shrq	%cl, %rdi
	andq	$4, %rdi
	leaq	3(%rax,%rdi), %rax
	addq	$4, %rdi
	cqto
	idivq	%rdi
.LBB2_19:                               # %cond.end88
                                        #   in Loop: Header=BB2_2 Depth=1
	addq	%rsi, %rax
	andq	%r15, %rax
	cmpq	%rax, %rsi
	jae	.LBB2_23
# BB#20:                                # %for.body94.lr.ph
                                        #   in Loop: Header=BB2_2 Depth=1
	movq	$3, %rcx
	movq	%rsi, %rdx
	shlq	%cl, %rdx
	.align	16, 0x90
.LBB2_21:                               # %for.body94
                                        #   Parent Loop BB2_2 Depth=1
                                        # =>  This Inner Loop Header: Depth=2
	movq	reg_last_death(%rip), %rcx
	movq	%r14, (%rcx,%rdx)
	incq	%rsi
	movq	%rsi, %rcx
	andq	%r15, %rcx
	addq	$8, %rdx
	cmpq	%rax, %rcx
	jne	.LBB2_21
	.align	16, 0x90
.LBB2_23:                               # %for.inc107
                                        #   in Loop: Header=BB2_2 Depth=1
	movq	16(%rbx), %rbx
	testq	%rbx, %rbx
	jne	.LBB2_2
.LBB2_24:                               # %for.end111
	movzbl	(%r14), %eax
	cmpq	$34, %rax
	jne	.LBB2_36
# BB#25:
	xorq	%rcx, %rcx
	xorq	%rax, %rax
	.align	16, 0x90
.LBB2_26:                               # %for.body120
                                        # =>This Inner Loop Header: Depth=1
	movq	regs_invalidated_by_call(%rip), %rdx
	movq	$1, %rsi
	shlq	%cl, %rsi
	testq	%rsi, %rdx
	je	.LBB2_28
# BB#27:                                # %if.then123
                                        #   in Loop: Header=BB2_26 Depth=1
	movq	reg_last_set_value(%rip), %rdx
	movq	$0, (%rdx,%rcx,8)
	movq	reg_last_set_mode(%rip), %rdx
	movl	%eax, (%rdx,%rcx,4)
	movq	reg_last_set_nonzero_bits(%rip), %rdx
	movq	$0, (%rdx,%rcx,8)
	movq	reg_last_set_sign_bit_copies(%rip), %rdx
	movb	%al, (%rdx,%rcx)
	movq	reg_last_death(%rip), %rdx
	movq	$0, (%rdx,%rcx,8)
.LBB2_28:                               # %for.inc135
                                        #   in Loop: Header=BB2_26 Depth=1
	incq	%rcx
	cmpq	$53, %rcx
	jne	.LBB2_26
# BB#29:                                # %for.end137
	movslq	8(%r14), %rcx
	movslq	max_uid_cuid(%rip), %rax
	cmpq	%rax, %rcx
	jle	.LBB2_37
# BB#30:                                # %land.lhs.true2.i.lr.ph
	leaq	8(%r14), %rcx
	.align	16, 0x90
.LBB2_31:                               # %land.lhs.true2.i
                                        # =>This Inner Loop Header: Depth=1
	movzbl	(%r14), %edx
	cmpq	$32, %rdx
	jne	.LBB2_34
# BB#32:                                # %land.rhs.i
                                        #   in Loop: Header=BB2_31 Depth=1
	movq	32(%r14), %rdx
	movzbl	(%rdx), %edx
	cmpq	$48, %rdx
	jne	.LBB2_34
# BB#33:                                # %while.body.i
                                        #   in Loop: Header=BB2_31 Depth=1
	movq	24(%r14), %r14
	movslq	8(%r14), %rdx
	leaq	8(%r14), %rcx
	cmpq	%rax, %rdx
	jg	.LBB2_31
.LBB2_34:                               # %while.end.i
	movslq	(%rcx), %rcx
	cmpq	%rax, %rcx
	jg	.LBB2_35
.LBB2_37:                               # %cond.false143
	movq	uid_cuid(%rip), %rax
	leaq	(%rax,%rcx,4), %rax
	movl	(%rax), %eax
	movl	%eax, mem_last_set(%rip)
	movl	%eax, last_call_cuid(%rip)
	popq	%rbx
	popq	%r12
	popq	%r13
	popq	%r14
	popq	%r15
	retq
.LBB2_36:                               # %if.end151
	movq	32(%r14), %rdi
	movabsq	$record_dead_and_set_regs_1, %rsi
	movq	%r14, %rdx
	popq	%rbx
	popq	%r12
	popq	%r13
	popq	%r14
	popq	%r15
	jmp	note_stores  # TAILCALL
.LBB2_35:                               # %if.then.i
	movabsq	$.L.str2, %rax
	movabsq	$.L__FUNCTION__.insn_cuid, %rcx
	movq	$12750, %rsi            # imm = 0x31CE
	movq	%rax, %rdi
	movq	%rcx, %rdx
	callq	fancy_abort
.Ltmp45:
	.size	record_dead_and_set_regs, .Ltmp45-record_dead_and_set_regs
	.cfi_endproc

	.align	16, 0x90
	.type	check_promoted_subreg,@function
check_promoted_subreg:                  # @check_promoted_subreg
	.cfi_startproc
# BB#0:                                 # %entry
	pushq	%r15
.Ltmp52:
	.cfi_def_cfa_offset 16
	pushq	%r14
.Ltmp53:
	.cfi_def_cfa_offset 24
	pushq	%r13
.Ltmp54:
	.cfi_def_cfa_offset 32
	pushq	%r12
.Ltmp55:
	.cfi_def_cfa_offset 40
	pushq	%rbx
.Ltmp56:
	.cfi_def_cfa_offset 48
.Ltmp57:
	.cfi_offset %rbx, -48
.Ltmp58:
	.cfi_offset %r12, -40
.Ltmp59:
	.cfi_offset %r13, -32
.Ltmp60:
	.cfi_offset %r14, -24
.Ltmp61:
	.cfi_offset %r15, -16
	movq	%rsi, %r14
	movl	(%r14), %r15d
	movq	%rdi, %r12
	movq	%r15, %rax
	andq	$268500991, %rax        # imm = 0x1000FFFF
	cmpq	$268435519, %rax        # imm = 0x1000003F
	jne	.LBB3_17
# BB#1:                                 # %land.lhs.true3
	movq	8(%r14), %rax
	movzbl	(%rax), %ecx
	cmpq	$61, %rcx
	jne	.LBB3_17
# BB#2:                                 # %if.then
	movq	$16, %rcx
	shrq	%cl, %r15
	andq	$255, %r15
	movzbl	mode_bitsize(%r15,%r15), %ecx
	cmpq	$64, %rcx
	ja	.LBB3_27
.LBB3_3:                                # %if.end.i
                                        # =>This Loop Header: Depth=1
                                        #     Child Loop BB3_5 Depth 2
	movq	48(%r12), %rbx
	testq	%rbx, %rbx
	je	.LBB3_27
# BB#4:                                 # %for.body.lr.ph.i
                                        #   in Loop: Header=BB3_3 Depth=1
	movl	8(%rax), %r13d
	.align	16, 0x90
.LBB3_5:                                # %for.body.i
                                        #   Parent Loop BB3_3 Depth=1
                                        # =>  This Inner Loop Header: Depth=2
	movq	8(%rbx), %r12
	movzbl	(%r12), %eax
	movzbl	rtx_class(%rax), %eax
	cmpq	$105, %rax
	jne	.LBB3_12
# BB#6:                                 # %cond.true.i
                                        #   in Loop: Header=BB3_5 Depth=2
	movq	32(%r12), %rax
	movzbl	(%rax), %ecx
	cmpq	$47, %rcx
	je	.LBB3_8
# BB#7:                                 # %cond.false.i
                                        #   in Loop: Header=BB3_5 Depth=2
	movq	%r12, %rdi
	movq	%rax, %rsi
	callq	single_set_2
.LBB3_8:                                # %cond.end33.i
                                        #   in Loop: Header=BB3_5 Depth=2
	testq	%rax, %rax
	je	.LBB3_12
# BB#9:                                 # %lor.lhs.false.i
                                        #   in Loop: Header=BB3_5 Depth=2
	movq	8(%rax), %rdx
	movl	(%rdx), %ecx
	movq	%rcx, %rsi
	andq	$65535, %rsi            # imm = 0xFFFF
	cmpq	$61, %rsi
	jne	.LBB3_12
# BB#10:                                # %lor.lhs.false43.i
                                        #   in Loop: Header=BB3_5 Depth=2
	movl	8(%rdx), %edx
	cmpq	%r13, %rdx
	jne	.LBB3_12
# BB#11:                                # %lor.lhs.false52.i
                                        #   in Loop: Header=BB3_5 Depth=2
	movq	8(%r14), %rdx
	movl	(%rdx), %edx
	xorq	%rcx, %rdx
	testq	$16711680, %rdx         # imm = 0xFF0000
	je	.LBB3_13
	.align	16, 0x90
.LBB3_12:                               # %if.then67.i
                                        #   in Loop: Header=BB3_5 Depth=2
	movq	16(%rbx), %rbx
	testq	%rbx, %rbx
	jne	.LBB3_5
	jmp	.LBB3_27
.LBB3_13:                               # %if.end71.i
                                        #   in Loop: Header=BB3_3 Depth=1
	movq	reg_last_set(%rip), %rcx
	movq	(%rcx,%r13,8), %rcx
	cmpq	%r12, %rcx
	jne	.LBB3_16
# BB#14:                                # %if.then76.i
                                        #   in Loop: Header=BB3_3 Depth=1
	movzbl	3(%r14), %ecx
	testq	$4, %rcx
	je	.LBB3_16
# BB#15:                                # %if.then81.i
                                        #   in Loop: Header=BB3_3 Depth=1
	movq	mode_mask_array(,%r15,8), %rcx
	movq	reg_last_set_nonzero_bits(%rip), %rdx
	andq	%rcx, (%rdx,%r13,8)
.LBB3_16:                               # %if.end87.i
                                        #   in Loop: Header=BB3_3 Depth=1
	movq	16(%rax), %rax
	movzbl	(%rax), %ecx
	cmpq	$61, %rcx
	je	.LBB3_3
	jmp	.LBB3_27
.LBB3_17:                               # %if.else
	andq	$65535, %r15            # imm = 0xFFFF
	movzbl	rtx_length(%r15), %eax
	testq	%rax, %rax
	je	.LBB3_27
# BB#18:
	movq	rtx_format(,%r15,8), %r15
	xorq	%rbx, %rbx
	.align	16, 0x90
.LBB3_19:                               # %for.body
                                        # =>This Loop Header: Depth=1
                                        #     Child Loop BB3_25 Depth 2
	movsbq	(%r15,%rbx), %rax
	movabsq	$4294967295, %rcx       # imm = 0xFFFFFFFF
	andq	%rcx, %rax
	cmpq	$69, %rax
	je	.LBB3_23
# BB#20:                                # %for.body
                                        #   in Loop: Header=BB3_19 Depth=1
	cmpq	$86, %rax
	jne	.LBB3_21
.LBB3_23:                               # %sw.bb23
                                        #   in Loop: Header=BB3_19 Depth=1
	movq	8(%r14,%rbx,8), %rax
	testq	%rax, %rax
	je	.LBB3_26
# BB#24:                                # %for.cond30.preheader
                                        #   in Loop: Header=BB3_19 Depth=1
	movslq	(%rax), %rcx
	testq	%rcx, %rcx
	movq	$1, %r13
	jle	.LBB3_26
	.align	16, 0x90
.LBB3_25:                               # %for.body37
                                        #   Parent Loop BB3_19 Depth=1
                                        # =>  This Inner Loop Header: Depth=2
	movq	(%rax,%r13,8), %rsi
	movq	%r12, %rdi
	callq	check_promoted_subreg
	movq	8(%r14,%rbx,8), %rax
	movslq	(%rax), %rdx
	movq	$32, %rcx
	movq	%r13, %rsi
	shlq	%cl, %rsi
	movq	$32, %rcx
	sarq	%cl, %rsi
	incq	%r13
	cmpq	%rdx, %rsi
	jl	.LBB3_25
	jmp	.LBB3_26
	.align	16, 0x90
.LBB3_21:                               # %for.body
                                        #   in Loop: Header=BB3_19 Depth=1
	cmpq	$101, %rax
	jne	.LBB3_26
# BB#22:                                # %sw.bb
                                        #   in Loop: Header=BB3_19 Depth=1
	movq	8(%r14,%rbx,8), %rsi
	movq	%r12, %rdi
	callq	check_promoted_subreg
	.align	16, 0x90
.LBB3_26:                               # %for.inc44
                                        #   in Loop: Header=BB3_19 Depth=1
	movzbl	(%r14), %eax
	incq	%rbx
	movzbl	rtx_length(%rax), %eax
	movq	$32, %rcx
	movq	%rbx, %rdx
	shlq	%cl, %rdx
	movq	$32, %rcx
	sarq	%cl, %rdx
	cmpq	%rax, %rdx
	jl	.LBB3_19
.LBB3_27:                               # %if.end47
	popq	%rbx
	popq	%r12
	popq	%r13
	popq	%r14
	popq	%r15
	retq
.Ltmp62:
	.size	check_promoted_subreg, .Ltmp62-check_promoted_subreg
	.cfi_endproc

	.align	16, 0x90
	.type	try_combine,@function
try_combine:                            # @try_combine
	.cfi_startproc
# BB#0:                                 # %entry
	pushq	%r15
.Ltmp69:
	.cfi_def_cfa_offset 16
	pushq	%r14
.Ltmp70:
	.cfi_def_cfa_offset 24
	pushq	%r13
.Ltmp71:
	.cfi_def_cfa_offset 32
	pushq	%r12
.Ltmp72:
	.cfi_def_cfa_offset 40
	pushq	%rbx
.Ltmp73:
	.cfi_def_cfa_offset 48
	subq	$336, %rsp              # imm = 0x150
.Ltmp74:
	.cfi_def_cfa_offset 384
.Ltmp75:
	.cfi_offset %rbx, -48
.Ltmp76:
	.cfi_offset %r12, -40
.Ltmp77:
	.cfi_offset %r13, -32
.Ltmp78:
	.cfi_offset %r14, -24
.Ltmp79:
	.cfi_offset %r15, -16
	movq	%rcx, %rbx
	movq	%rdx, %r15
	movq	%rsi, %r14
	movq	%rdi, %r13
	movq	$0, 320(%rsp)
	movq	$0, 312(%rsp)
	movq	$0, 288(%rsp)
	movq	$0, 280(%rsp)
                                        # kill: RDI<def> R13<kill>
	callq	cant_combine_insn_p
	xorq	%r12, %r12
	movabsq	$4294967295, %rcx       # imm = 0xFFFFFFFF
	testq	%rcx, %rax
	jne	.LBB4_691
# BB#1:                                 # %lor.lhs.false
	movq	%rbx, 216(%rsp)         # 8-byte Spill
	movq	%r14, %rdi
	movq	%rcx, %rbx
	callq	cant_combine_insn_p
	movq	%rbx, %rcx
	testq	%rcx, %rax
	jne	.LBB4_691
# BB#2:                                 # %lor.lhs.false3
	testq	%r15, %r15
	je	.LBB4_692
# BB#3:                                 # %land.lhs.true
	movq	%r15, %rdi
	callq	cant_combine_insn_p
	movabsq	$4294967295, %rcx       # imm = 0xFFFFFFFF
	testq	%rcx, %rax
	jne	.LBB4_691
# BB#4:                                 # %land.lhs.true8
	movl	combine_attempts(%rip), %eax
	incq	%rax
	movl	%eax, combine_attempts(%rip)
	movq	$0, undobuf+16(%rip)
	movq	$0, newpat_used_regs(%rip)
	movslq	8(%r15), %rdx
	movslq	max_uid_cuid(%rip), %rax
	cmpq	%rax, %rdx
	jle	.LBB4_10
# BB#5:                                 # %land.lhs.true2.i.lr.ph
	leaq	8(%r15), %rcx
	movq	%r15, %rdx
.LBB4_6:                                # %land.lhs.true2.i
                                        # =>This Inner Loop Header: Depth=1
	movzbl	(%rdx), %esi
	cmpq	$32, %rsi
	jne	.LBB4_9
# BB#7:                                 # %land.rhs.i
                                        #   in Loop: Header=BB4_6 Depth=1
	movq	32(%rdx), %rsi
	movzbl	(%rsi), %esi
	cmpq	$48, %rsi
	jne	.LBB4_9
# BB#8:                                 # %while.body.i
                                        #   in Loop: Header=BB4_6 Depth=1
	movq	24(%rdx), %rdx
	movslq	8(%rdx), %rsi
	leaq	8(%rdx), %rcx
	cmpq	%rax, %rsi
	jg	.LBB4_6
.LBB4_9:                                # %while.end.i
	movslq	(%rcx), %rdx
	cmpq	%rax, %rdx
	jg	.LBB4_168
.LBB4_10:                               # %cond.false
	movq	uid_cuid(%rip), %r8
	leaq	(%r8,%rdx,4), %rdx
	movslq	8(%r14), %rsi
	movl	(%rdx), %edx
	cmpq	%rax, %rsi
	jle	.LBB4_16
# BB#11:                                # %land.lhs.true2.i4179.lr.ph
	leaq	8(%r14), %rsi
	movq	%r14, %rdi
.LBB4_12:                               # %land.lhs.true2.i4179
                                        # =>This Inner Loop Header: Depth=1
	movzbl	(%rdi), %ecx
	cmpq	$32, %rcx
	jne	.LBB4_15
# BB#13:                                # %land.rhs.i4185
                                        #   in Loop: Header=BB4_12 Depth=1
	movq	32(%rdi), %rcx
	movzbl	(%rcx), %ecx
	cmpq	$48, %rcx
	jne	.LBB4_15
# BB#14:                                # %while.body.i4188
                                        #   in Loop: Header=BB4_12 Depth=1
	movq	24(%rdi), %rdi
	movslq	8(%rdi), %rcx
	leaq	8(%rdi), %rsi
	cmpq	%rax, %rcx
	jg	.LBB4_12
.LBB4_15:                               # %while.end.i4192
	movslq	(%rsi), %rsi
	cmpq	%rax, %rsi
	jg	.LBB4_168
.LBB4_16:                               # %if.end30
	movslq	(%r8,%rsi,4), %rax
	movq	$32, %rcx
	shlq	%cl, %rdx
	movq	$32, %rcx
	sarq	%cl, %rdx
	cmpq	%rax, %rdx
	movq	%r14, %rax
                                        # kill: R14<def> RAX<kill>
	jg	.LBB4_18
# BB#17:                                # %if.end30
	movq	%r15, %r14
.LBB4_18:                               # %if.end30
	movq	%r13, %r12
	jg	.LBB4_20
# BB#19:                                # %if.end30
	movq	%rax, %r15
.LBB4_20:                               # %if.end30
	testq	%r14, %r14
	movq	$0, added_links_insn(%rip)
	movq	%r15, %r13
	jne	.LBB4_102
	jmp	.LBB4_21
.LBB4_692:                              # %if.end30.thread
	movq	%r13, %r12
	movq	%r14, %r13
	movl	combine_attempts(%rip), %eax
	incq	%rax
	movl	%eax, combine_attempts(%rip)
	movq	$0, undobuf+16(%rip)
	movq	$0, newpat_used_regs(%rip)
	movq	$0, added_links_insn(%rip)
.LBB4_21:                               # %land.lhs.true32
	movzbl	(%r12), %eax
	cmpq	$32, %rax
	movq	%r12, %r15
	jne	.LBB4_55
# BB#22:                                # %land.lhs.true34
	movq	32(%r15), %rax
	movzbl	(%rax), %ecx
	cmpq	$47, %rcx
	jne	.LBB4_55
# BB#23:                                # %land.lhs.true40
	movq	16(%rax), %rdx
	movzbl	(%rdx), %eax
	cmpq	$61, %rax
	jne	.LBB4_55
# BB#24:                                # %land.lhs.true50
	movl	8(%rdx), %eax
	cmpq	$53, %rax
	jb	.LBB4_55
# BB#25:                                # %land.lhs.true60
	movq	$1, %rsi
	movq	%r15, %rdi
	callq	find_reg_note
	testq	%rax, %rax
	je	.LBB4_55
# BB#26:                                # %land.lhs.true69
	movq	32(%r13), %rax
	movzbl	(%rax), %eax
	cmpq	$39, %rax
	jne	.LBB4_55
# BB#27:                                # %land.lhs.true76
	movq	32(%r15), %rax
	movq	8(%rax), %rdi
	callq	side_effects_p
	movabsq	$4294967295, %rcx       # imm = 0xFFFFFFFF
	testq	%rcx, %rax
	jne	.LBB4_55
# BB#28:                                # %land.lhs.true85
	movq	32(%r15), %rax
	movq	8(%rax), %rsi
	movzbl	(%rsi), %ecx
	cmpq	$64, %rcx
	je	.LBB4_55
# BB#29:                                # %land.lhs.true85
	cmpq	$133, %rcx
	je	.LBB4_55
# BB#30:                                # %land.lhs.true105
	movq	16(%rax), %rdi
	callq	reg_overlap_mentioned_p
	movabsq	$4294967295, %rcx       # imm = 0xFFFFFFFF
	testq	%rcx, %rax
	jne	.LBB4_55
# BB#31:                                # %land.lhs.true120
	movq	%r13, %rdi
	callq	next_real_insn
	cmpq	%r15, %rax
	jne	.LBB4_55
# BB#32:                                # %if.then123
	movq	%r15, %r12
	movq	32(%r13), %r14
	movq	%r13, %rbx
	movq	8(%r14), %rax
	movslq	(%rax), %rsi
	xorq	%rcx, %rcx
	testq	%rsi, %rsi
	jle	.LBB4_40
# BB#33:
	movq	$1, %r15
.LBB4_34:                               # %for.body
                                        # =>This Inner Loop Header: Depth=1
	movq	(%rax,%r15,8), %rcx
	movzbl	(%rcx), %edx
	cmpq	$47, %rdx
	je	.LBB4_36
# BB#35:                                # %for.body
                                        #   in Loop: Header=BB4_34 Depth=1
	cmpq	$49, %rdx
	jne	.LBB4_38
.LBB4_36:                               # %land.lhs.true148
                                        #   in Loop: Header=BB4_34 Depth=1
	movq	32(%r12), %rax
	movq	8(%rax), %rax
	movq	8(%rcx), %rcx
	movq	%rax, %rdi
	movq	%rcx, %rsi
	callq	reg_overlap_mentioned_p
	movabsq	$4294967295, %rcx       # imm = 0xFFFFFFFF
	testq	%rcx, %rax
	jne	.LBB4_39
# BB#37:                                # %land.lhs.true148.for.inc_crit_edge
                                        #   in Loop: Header=BB4_34 Depth=1
	movq	8(%r14), %rax
.LBB4_38:                               # %for.inc
                                        #   in Loop: Header=BB4_34 Depth=1
	movslq	(%rax), %rsi
	movq	$32, %rcx
	movq	%r15, %rdx
	shlq	%cl, %rdx
	movq	$32, %rcx
	sarq	%cl, %rdx
	movq	%r15, %rcx
	incq	%r15
	cmpq	%rsi, %rdx
	jl	.LBB4_34
	jmp	.LBB4_40
.LBB4_39:                               # %land.lhs.true148.for.end_crit_edge
	movq	8(%r14), %rax
	movl	(%rax), %esi
	decq	%r15
	movq	%r15, %rcx
.LBB4_40:                               # %for.end
	movq	%rsi, %rdx
	movabsq	$4294967295, %rdi       # imm = 0xFFFFFFFF
	andq	%rdi, %rdx
	andq	%rdi, %rcx
	cmpq	%rdx, %rcx
	movq	%rbx, %r13
	movq	%r12, %r15
	jne	.LBB4_55
# BB#41:                                # %for.end
	movq	$32, %rcx
	movq	%rsi, %rdx
	shlq	%cl, %rdx
	movq	$32, %rcx
	sarq	%cl, %rdx
	testq	%rdx, %rdx
	jle	.LBB4_55
# BB#42:
	movq	$1, %rdx
.LBB4_43:                               # %for.body181
                                        # =>This Inner Loop Header: Depth=1
	movq	%r15, %r9
	movq	%r13, %rbx
	movq	(%rax,%rdx,8), %rcx
	movzbl	(%rcx), %edi
	cmpq	$47, %rdi
	je	.LBB4_45
# BB#44:                                # %for.body181
                                        #   in Loop: Header=BB4_43 Depth=1
	cmpq	$49, %rdi
	jne	.LBB4_54
.LBB4_45:                               # %land.lhs.true201
                                        #   in Loop: Header=BB4_43 Depth=1
	movq	32(%r9), %rdi
	movq	8(%rcx), %rcx
	movq	16(%rdi), %rdi
	cmpq	%rdi, %rcx
	je	.LBB4_46
.LBB4_54:                               # %for.inc256
                                        #   in Loop: Header=BB4_43 Depth=1
	movq	$32, %rcx
	movq	%rdx, %rdi
	shlq	%cl, %rdi
	movq	$32, %rcx
	sarq	%cl, %rdi
	movq	$32, %rcx
	movq	%rsi, %r8
	shlq	%cl, %r8
	movq	$32, %rcx
	sarq	%cl, %r8
	incq	%rdx
	cmpq	%r8, %rdi
	movq	%rbx, %r13
	movq	%r9, %r15
	jl	.LBB4_43
.LBB4_55:                               # %land.lhs.true262
	movzbl	(%r13), %eax
	movzbl	rtx_class(%rax), %eax
	leaq	32(%r13), %rbx
	cmpq	$105, %rax
	jne	.LBB4_86
# BB#56:                                # %cond.true269
	movq	(%rbx), %r14
	movzbl	(%r14), %eax
	cmpq	$47, %rax
	je	.LBB4_58
# BB#57:                                # %cond.false281
	movq	%r13, %rdi
	movq	%r14, %rsi
	callq	single_set_2
	movq	%rax, %r14
.LBB4_58:                               # %cond.end289
	testq	%r14, %r14
	je	.LBB4_86
# BB#59:                                # %land.lhs.true293
	movq	16(%r14), %rax
	movl	(%rax), %edx
	movq	%rdx, %rcx
	andq	$65534, %rcx            # imm = 0xFFFE
	cmpq	$54, %rcx
	jne	.LBB4_86
# BB#60:                                # %land.lhs.true309
	movq	8(%r14), %r11
	movl	(%r11), %edi
	movq	%rdi, %rcx
	andq	$65535, %rcx            # imm = 0xFFFF
	cmpq	$61, %rcx
	jne	.LBB4_86
# BB#61:                                # %land.lhs.true317
	movq	$16, %rcx
	shrq	%cl, %rdi
	andq	$255, %rdi
	movl	mode_class(,%rdi,4), %ecx
	cmpq	$1, %rcx
	jne	.LBB4_86
# BB#62:                                # %land.lhs.true327
	movl	target_flags(%rip), %esi
	movzbl	mode_size(%rdi), %edi
	movq	$23, %rcx
	shrq	%cl, %rsi
	andq	$4, %rsi
	addq	$4, %rsi
	movq	%rsi, %rcx
	andq	$2147483644, %rcx       # imm = 0x7FFFFFFC
	shlq	$1, %rcx
	cmpq	%rcx, %rdi
	jne	.LBB4_86
# BB#63:                                # %land.lhs.true341
	movq	32(%r15), %r9
	movzbl	(%r9), %ecx
	cmpq	$47, %rcx
	jne	.LBB4_86
# BB#64:                                # %land.lhs.true349
	movq	8(%r9), %r8
	movl	(%r8), %r10d
	movq	%r10, %rcx
	andq	$65535, %rcx            # imm = 0xFFFF
	cmpq	$63, %rcx
	jne	.LBB4_86
# BB#65:                                # %land.lhs.true360
	movq	8(%r8), %rcx
	cmpq	%r11, %rcx
	jne	.LBB4_86
# BB#66:                                # %land.lhs.true375
	movq	$16, %rcx
	shrq	%cl, %r10
	andq	$255, %r10
	movl	mode_class(,%r10,4), %ecx
	cmpq	$1, %rcx
	jne	.LBB4_86
# BB#67:                                # %land.lhs.true389
	movzbl	mode_size(%r10), %ecx
	movabsq	$4294967295, %rdi       # imm = 0xFFFFFFFF
	andq	%rdi, %rsi
	cmpq	%rsi, %rcx
	jne	.LBB4_86
# BB#68:                                # %land.lhs.true407
	movq	16(%r9), %rcx
	movzbl	(%rcx), %ecx
	cmpq	$54, %rcx
	jne	.LBB4_86
# BB#69:                                # %if.then418
	movq	%rbx, 208(%rsp)         # 8-byte Spill
	movq	%r15, %r12
	movq	%r13, %rbx
	leaq	16(%r14), %r15
	andq	$65535, %rdx            # imm = 0xFFFF
	cmpq	$54, %rdx
	jne	.LBB4_71
# BB#70:                                # %if.then426
	movq	8(%rax), %r13
	movq	$63, %rcx
	movq	%r13, %rax
	sarq	%cl, %rax
	jmp	.LBB4_72
.LBB4_86:                               # %land.lhs.true597
	movq	(%rbx), %rax
	movzbl	(%rax), %ecx
	cmpq	$39, %rcx
	jne	.LBB4_87
# BB#88:                                # %land.lhs.true605
	movq	8(%rax), %rax
	movslq	(%rax), %rcx
	cmpq	$2, %rcx
	jl	.LBB4_87
# BB#89:                                # %land.lhs.true615
	movq	8(%rax), %rcx
	movzbl	(%rcx), %edx
	cmpq	$47, %rdx
	jne	.LBB4_87
# BB#90:                                # %land.lhs.true628
	movq	%r15, %r12
	movq	8(%rcx), %rdx
	movzbl	2(%rdx), %edx
	movl	mode_class(,%rdx,4), %edx
	cmpq	$4, %rdx
	jne	.LBB4_91
# BB#92:                                # %land.lhs.true647
	movq	16(%rcx), %rcx
	movzbl	(%rcx), %edx
	xorq	%r14, %r14
	cmpq	$74, %rdx
	jne	.LBB4_102
# BB#93:                                # %land.lhs.true663
	movq	16(%rcx), %rdx
	movq	const_int_rtx+512(%rip), %rsi
	cmpq	%rsi, %rdx
	jne	.LBB4_102
# BB#94:                                # %land.lhs.true680
	movq	16(%rax), %rax
	movzbl	(%rax), %edx
	cmpq	$47, %rdx
	jne	.LBB4_102
# BB#95:                                # %land.lhs.true693
	movq	8(%rax), %rdx
	movzbl	(%rdx), %edx
	cmpq	$61, %rdx
	jne	.LBB4_102
# BB#96:                                # %land.lhs.true709
	movq	8(%rcx), %rdi
	movq	16(%rax), %rsi
	callq	rtx_equal_p
	movabsq	$4294967295, %rcx       # imm = 0xFFFFFFFF
	testq	%rcx, %rax
	je	.LBB4_102
# BB#97:                                # %if.then737
	movq	(%rbx), %rax
	movq	8(%rax), %rax
	movslq	(%rax), %rcx
	decq	%rcx
.LBB4_98:                               # %for.cond746
                                        # =>This Inner Loop Header: Depth=1
	movq	%rcx, %rdx
	movq	$32, %rcx
	movq	%rdx, %rsi
	shlq	%cl, %rsi
	movq	$32, %rcx
	sarq	%cl, %rsi
	cmpq	$2, %rsi
	jl	.LBB4_100
# BB#99:                                # %for.body749
                                        #   in Loop: Header=BB4_98 Depth=1
	movq	8(%rax,%rdx,8), %rcx
	movzbl	(%rcx), %esi
	leaq	-1(%rdx), %rcx
	cmpq	$49, %rsi
	je	.LBB4_98
.LBB4_100:                              # %for.end766
	movabsq	$4294967295, %rcx       # imm = 0xFFFFFFFF
	andq	%rcx, %rdx
	cmpq	$1, %rdx
	jne	.LBB4_102
# BB#101:                               # %if.then769
	movq	16(%rax), %rax
	movq	%r13, %r14
	movl	8(%r14), %edx
	movabsq	$4294967295, %rcx       # imm = 0xFFFFFFFF
	movq	%rcx, (%rsp)
	movq	$0, 16(%rsp)
	movq	$32, %rdi
	xorq	%rsi, %rsi
	xorq	%rcx, %rcx
	movq	$0, 8(%rsp)
	movq	%r14, %r8
	movq	%rax, %r9
	callq	gen_rtx_fmt_iuueiee
	movq	%rax, %r15
	movq	%r15, subst_prev_insn(%rip)
	movq	32(%r14), %rax
	movq	8(%rax), %rax
	movq	8(%rax), %rax
	movq	%rbx, %rdi
	movq	%rax, %rsi
	callq	do_SUBST
	movq	32(%r14), %rax
	movq	%r14, %r13
	movq	32(%r15), %rcx
	movq	%r15, %r14
	movq	16(%rax), %rax
	movq	8(%rcx), %rcx
	addq	$8, %rax
	movq	%rax, %rdi
	movq	%rcx, %rsi
	callq	do_SUBST
	jmp	.LBB4_102
.LBB4_87:
	movq	%r15, %r12
	xorq	%r14, %r14
.LBB4_102:                              # %if.end809
	leaq	304(%rsp), %rcx
	leaq	296(%rsp), %r8
	xorq	%rdx, %rdx
	movq	%r13, %rdi
	movq	%r12, %rsi
	callq	can_combine_p
	movabsq	$4294967295, %rcx       # imm = 0xFFFFFFFF
	testq	%rcx, %rax
	je	.LBB4_105
# BB#103:                               # %lor.lhs.false812
	movq	%rcx, %rbx
	movq	%r14, %r15
	testq	%r15, %r15
	je	.LBB4_111
# BB#104:                               # %land.lhs.true814
	leaq	288(%rsp), %rcx
	leaq	280(%rsp), %r8
	movq	%r15, %rdi
	movq	%r12, %rsi
	movq	%r13, %rdx
	callq	can_combine_p
	testq	%rbx, %rax
	je	.LBB4_105
# BB#112:                               # %land.rhs830
	movq	304(%rsp), %rdi
	movq	296(%rsp), %rsi
	movq	%rsi, 208(%rsp)         # 8-byte Spill
	callq	reg_overlap_mentioned_p
	movq	288(%rsp), %rdi
	movq	280(%rsp), %rsi
	movq	%rsi, 184(%rsp)         # 8-byte Spill
	movq	%rax, 144(%rsp)         # 8-byte Spill
	callq	reg_overlap_mentioned_p
	testq	%rbx, %rax
	movabsq	$0, %rax
	movq	%rax, 200(%rsp)         # 8-byte Spill
	movabsq	$1, %r14
	movq	%rax, 160(%rsp)         # 8-byte Spill
	je	.LBB4_114
# BB#113:                               # %land.rhs830
	movq	%r14, 160(%rsp)         # 8-byte Spill
.LBB4_114:                              # %land.rhs830
	movq	304(%rsp), %rdi
	movq	184(%rsp), %rsi         # 8-byte Reload
	callq	reg_overlap_mentioned_p
	testq	%rbx, %rax
	movabsq	$0, %rax
	je	.LBB4_116
# BB#115:                               # %land.rhs830
	movq	%r14, %rax
.LBB4_116:                              # %land.rhs830
	movq	%rax, 168(%rsp)         # 8-byte Spill
	movq	288(%rsp), %rdi
	movq	208(%rsp), %rsi         # 8-byte Reload
	callq	reg_overlap_mentioned_p
	testq	%rbx, %rax
	jne	.LBB4_118
# BB#117:                               # %land.rhs830
	movq	%r14, 200(%rsp)         # 8-byte Spill
.LBB4_118:                              # %land.rhs830
	movq	168(%rsp), %rax         # 8-byte Reload
	jmp	.LBB4_119
.LBB4_105:                              # %if.then817
	movq	undobuf(%rip), %rax
	testq	%rax, %rax
	je	.LBB4_110
	.align	16, 0x90
.LBB4_106:                              # %for.body.i
                                        # =>This Inner Loop Header: Depth=1
	movl	8(%rax), %edx
	movq	(%rax), %rcx
	testq	%rdx, %rdx
	jne	.LBB4_107
# BB#108:                               # %if.else.i
                                        #   in Loop: Header=BB4_106 Depth=1
	movq	16(%rax), %rdx
	movq	24(%rax), %rsi
	movq	%rdx, (%rsi)
	jmp	.LBB4_109
	.align	16, 0x90
.LBB4_107:                              # %if.then.i4251
                                        #   in Loop: Header=BB4_106 Depth=1
	movl	16(%rax), %edx
	movq	24(%rax), %rsi
	movl	%edx, (%rsi)
.LBB4_109:                              # %if.end.i
                                        #   in Loop: Header=BB4_106 Depth=1
	movq	undobuf+8(%rip), %rdx
	movq	%rdx, (%rax)
	movq	%rax, undobuf+8(%rip)
	testq	%rcx, %rcx
	movq	%rcx, %rax
	jne	.LBB4_106
	jmp	.LBB4_110
.LBB4_111:                              # %land.end827
	movq	304(%rsp), %rdi
	movq	296(%rsp), %rsi
	movq	%rsi, 208(%rsp)         # 8-byte Spill
	callq	reg_overlap_mentioned_p
	movq	%rax, 144(%rsp)         # 8-byte Spill
	movq	$0, 184(%rsp)           # 8-byte Folded Spill
	xorq	%rax, %rax
	movq	$0, 160(%rsp)           # 8-byte Folded Spill
	movq	$0, 200(%rsp)           # 8-byte Folded Spill
.LBB4_119:                              # %land.end833
	testq	%r15, %r15
	je	.LBB4_120
# BB#121:                               # %land.end833
	movabsq	$1, %r8
	jmp	.LBB4_122
.LBB4_120:
	movabsq	$0, %r8
.LBB4_122:                              # %land.end833
	movq	%r12, 192(%rsp)         # 8-byte Spill
	movq	304(%rsp), %rdx
	movq	288(%rsp), %rcx
	movq	%r12, %rdi
	leaq	32(%rdi), %r12
	andq	%rax, %r8
	movq	%rax, 168(%rsp)         # 8-byte Spill
	movq	200(%rsp), %rax         # 8-byte Reload
	andq	%rax, %r8
	leaq	312(%rsp), %r9
	movq	%r12, %rsi
	callq	combinable_i3pat
	testq	%rbx, %rax
	je	.LBB4_123
# BB#128:                               # %if.end848
	movq	208(%rsp), %rax         # 8-byte Reload
	movzbl	(%rax), %eax
	cmpq	$78, %rax
	je	.LBB4_133
# BB#129:                               # %lor.lhs.false853
	testq	%r15, %r15
	je	.LBB4_131
# BB#130:                               # %land.lhs.true856
	movq	184(%rsp), %rax         # 8-byte Reload
	movzbl	(%rax), %eax
	cmpq	$78, %rax
	je	.LBB4_133
.LBB4_131:                              # %lor.lhs.false861
	movq	(%r12), %rax
	movzbl	(%rax), %ecx
	xorq	%rdx, %rdx
	cmpq	$47, %rcx
	jne	.LBB4_134
# BB#132:                               # %land.lhs.true869
	movq	16(%rax), %rax
	movzbl	(%rax), %eax
	cmpq	$78, %rax
	jne	.LBB4_134
.LBB4_133:                              # %if.then880
	movq	$1, %rdx
.LBB4_134:                              # %if.end881
	movq	%r12, %r14
	movq	%rdx, 120(%rsp)         # 8-byte Spill
	movq	304(%rsp), %rsi
	movq	192(%rsp), %rdi         # 8-byte Reload
	callq	dead_or_set_p
	movq	%rax, %r12
	testq	%rbx, %r12
	jne	.LBB4_135
# BB#136:                               # %if.end881
	movabsq	$1, %rax
	jmp	.LBB4_137
.LBB4_123:                              # %if.then847
	movq	undobuf(%rip), %rax
	testq	%rax, %rax
	je	.LBB4_110
	.align	16, 0x90
.LBB4_124:                              # %for.body.i4285
                                        # =>This Inner Loop Header: Depth=1
	movl	8(%rax), %edx
	movq	(%rax), %rcx
	testq	%rdx, %rdx
	jne	.LBB4_125
# BB#126:                               # %if.else.i4292
                                        #   in Loop: Header=BB4_124 Depth=1
	movq	16(%rax), %rdx
	movq	24(%rax), %rsi
	movq	%rdx, (%rsi)
	jmp	.LBB4_127
.LBB4_125:                              # %if.then.i4289
                                        #   in Loop: Header=BB4_124 Depth=1
	movl	16(%rax), %edx
	movq	24(%rax), %rsi
	movl	%edx, (%rsi)
.LBB4_127:                              # %if.end.i4294
                                        #   in Loop: Header=BB4_124 Depth=1
	movq	undobuf+8(%rip), %rdx
	movq	%rdx, (%rax)
	movq	%rax, undobuf+8(%rip)
	testq	%rcx, %rcx
	movq	%rcx, %rax
	jne	.LBB4_124
	jmp	.LBB4_110
.LBB4_135:
	movabsq	$0, %rax
.LBB4_137:                              # %if.end881
	movq	%rax, 112(%rsp)         # 8-byte Spill
	xorq	%rax, %rax
	testq	%r15, %r15
	je	.LBB4_147
# BB#138:                               # %land.rhs886
	movq	288(%rsp), %rsi
	movq	192(%rsp), %rdi         # 8-byte Reload
	callq	dead_or_set_p
	cmpq	$0, 200(%rsp)           # 8-byte Folded Reload
	jne	.LBB4_144
# BB#139:                               # %cond.false890
	movq	$1, %rcx
	testq	%rbx, %rax
	jne	.LBB4_143
# BB#140:                               # %lor.rhs
	movq	288(%rsp), %rsi
	movq	%r13, %rdi
	callq	dead_or_set_p
	testq	%rbx, %rax
	je	.LBB4_141
# BB#142:                               # %lor.rhs
	movabsq	$1, %rcx
	jmp	.LBB4_143
.LBB4_91:
	xorq	%r14, %r14
	jmp	.LBB4_102
.LBB4_141:
	movabsq	$0, %rcx
.LBB4_143:                              # %lor.end
	movq	%rcx, %rax
.LBB4_144:                              # %cond.end895
	testq	%rbx, %rax
	jne	.LBB4_145
# BB#146:                               # %cond.end895
	movabsq	$1, %rax
	jmp	.LBB4_147
.LBB4_145:
	movabsq	$0, %rax
.LBB4_147:                              # %land.end900
	movq	%rax, 136(%rsp)         # 8-byte Spill
	movq	32(%r13), %rax
	movzbl	(%rax), %ecx
	cmpq	$39, %rcx
	jne	.LBB4_149
# BB#148:                               # %cond.true909
	movq	304(%rsp), %rdx
	movq	$47, %rdi
	xorq	%rsi, %rsi
	movq	208(%rsp), %rcx         # 8-byte Reload
	callq	gen_rtx_fmt_ee
.LBB4_149:                              # %cond.end915
	testq	%rbx, %r12
	je	.LBB4_151
# BB#150:
	movq	%rax, 104(%rsp)         # 8-byte Spill
	movq	%r15, 176(%rsp)         # 8-byte Spill
	jmp	.LBB4_152
.LBB4_151:                              # %if.then918
	movq	%r15, 176(%rsp)         # 8-byte Spill
	movq	%rax, %rdi
	callq	copy_rtx
	movq	%rax, 104(%rsp)         # 8-byte Spill
.LBB4_152:                              # %if.end920
	movl	combine_merges(%rip), %eax
	leaq	8(%r13), %r15
	incq	%rax
	movl	%eax, combine_merges(%rip)
	callq	max_reg_num
	movl	flag_expensive_optimizations(%rip), %ecx
	movq	192(%rsp), %rdx         # 8-byte Reload
	movq	%rdx, subst_insn(%rip)
	testq	%rcx, %rcx
	je	.LBB4_153
# BB#154:                               # %if.then924
	movq	176(%rsp), %rdx         # 8-byte Reload
	testq	%rdx, %rdx
	je	.LBB4_162
# BB#155:                               # %if.then926
	movslq	8(%rdx), %rcx
	movslq	max_uid_cuid(%rip), %rdi
	cmpq	%rdi, %rcx
	jle	.LBB4_161
# BB#156:                               # %land.lhs.true2.i4332.lr.ph
	leaq	8(%rdx), %rcx
.LBB4_157:                              # %land.lhs.true2.i4332
                                        # =>This Inner Loop Header: Depth=1
	movzbl	(%rdx), %esi
	cmpq	$32, %rsi
	jne	.LBB4_160
# BB#158:                               # %land.rhs.i4338
                                        #   in Loop: Header=BB4_157 Depth=1
	movq	32(%rdx), %rsi
	movzbl	(%rsi), %esi
	cmpq	$48, %rsi
	jne	.LBB4_160
# BB#159:                               # %while.body.i4341
                                        #   in Loop: Header=BB4_157 Depth=1
	movq	24(%rdx), %rdx
	movslq	8(%rdx), %rsi
	leaq	8(%rdx), %rcx
	cmpq	%rdi, %rsi
	jg	.LBB4_157
.LBB4_160:                              # %while.end.i4345
	movslq	(%rcx), %rcx
	cmpq	%rdi, %rcx
	jg	.LBB4_168
.LBB4_161:                              # %cond.false934
	movq	%rax, 152(%rsp)         # 8-byte Spill
	movq	uid_cuid(%rip), %rax
	leaq	(%rax,%rcx,4), %rax
	movl	(%rax), %eax
	movq	global_rtl(%rip), %rsi
	movl	%eax, subst_low_cuid(%rip)
	xorq	%rcx, %rcx
	xorq	%r8, %r8
	movq	184(%rsp), %rdi         # 8-byte Reload
	movq	%rsi, %rdx
	callq	subst
	movq	%rax, 184(%rsp)         # 8-byte Spill
	movq	%rax, 280(%rsp)
	jmp	.LBB4_171
.LBB4_153:
	movq	%rax, 152(%rsp)         # 8-byte Spill
	jmp	.LBB4_171
.LBB4_162:                              # %if.else943
	movslq	(%r15), %rcx
	movslq	max_uid_cuid(%rip), %rdi
	cmpq	%rdi, %rcx
	jle	.LBB4_169
# BB#163:
	movq	%rax, 152(%rsp)         # 8-byte Spill
	movq	%r15, %rcx
	movq	%r13, %rdx
.LBB4_164:                              # %land.lhs.true2.i4359
                                        # =>This Inner Loop Header: Depth=1
	movzbl	(%rdx), %esi
	cmpq	$32, %rsi
	jne	.LBB4_167
# BB#165:                               # %land.rhs.i4365
                                        #   in Loop: Header=BB4_164 Depth=1
	movq	32(%rdx), %rsi
	movzbl	(%rsi), %esi
	cmpq	$48, %rsi
	jne	.LBB4_167
# BB#166:                               # %while.body.i4368
                                        #   in Loop: Header=BB4_164 Depth=1
	movq	24(%rdx), %rdx
	movslq	8(%rdx), %rsi
	leaq	8(%rdx), %rcx
	cmpq	%rdi, %rsi
	jg	.LBB4_164
.LBB4_167:                              # %while.end.i4372
	movslq	(%rcx), %rcx
	cmpq	%rdi, %rcx
	jle	.LBB4_170
	jmp	.LBB4_168
.LBB4_169:                              # %cond.false951
	movq	%rax, 152(%rsp)         # 8-byte Spill
.LBB4_170:                              # %cond.end957
	movq	uid_cuid(%rip), %rax
	leaq	(%rax,%rcx,4), %rax
	movl	(%rax), %eax
	movq	global_rtl(%rip), %rsi
	movl	%eax, subst_low_cuid(%rip)
	xorq	%rcx, %rcx
	xorq	%r8, %r8
	movq	208(%rsp), %rdi         # 8-byte Reload
	movq	%rsi, %rdx
	callq	subst
	movq	%rax, 208(%rsp)         # 8-byte Spill
	movq	%rax, 296(%rsp)
.LBB4_171:                              # %if.end961
	cmpq	$0, 176(%rsp)           # 8-byte Folded Reload
	jne	.LBB4_187
# BB#172:                               # %if.end961
	testq	%rbx, %r12
	jne	.LBB4_187
# BB#173:                               # %land.lhs.true966
	movq	(%r14), %rax
	movzbl	(%rax), %ecx
	cmpq	$47, %rcx
	jne	.LBB4_187
# BB#174:                               # %land.lhs.true974
	movq	16(%rax), %rax
	movzbl	(%rax), %ecx
	cmpq	$74, %rcx
	jne	.LBB4_187
# BB#175:                               # %land.lhs.true985
	movq	16(%rax), %rcx
	movq	const_int_rtx+512(%rip), %rdx
	cmpq	%rdx, %rcx
	jne	.LBB4_187
# BB#176:                               # %land.lhs.true997
	movq	8(%rax), %rdi
	movq	304(%rsp), %rsi
	callq	rtx_equal_p
	testq	%rbx, %rax
	je	.LBB4_187
# BB#177:                               # %if.then1009
	movq	%r12, 128(%rsp)         # 8-byte Spill
	movq	(%r14), %rax
	movq	%rax, 328(%rsp)
	movq	16(%rax), %rdi
	addq	$8, %rdi
	movq	208(%rsp), %rsi         # 8-byte Reload
	callq	do_SUBST
	cmpq	$0, undobuf+16(%rip)
	je	.LBB4_179
# BB#178:
	movq	$0, 200(%rsp)           # 8-byte Folded Spill
	movq	176(%rsp), %r15         # 8-byte Reload
	jmp	.LBB4_194
.LBB4_187:                              # %if.else1084
	xorq	%rax, %rax
	movl	%eax, n_occurrences(%rip)
	movslq	(%r15), %rcx
	movslq	max_uid_cuid(%rip), %rax
	cmpq	%rax, %rcx
	jle	.LBB4_193
# BB#188:
	movq	%r13, %rcx
.LBB4_189:                              # %land.lhs.true2.i4386
                                        # =>This Inner Loop Header: Depth=1
	movzbl	(%rcx), %edx
	cmpq	$32, %rdx
	jne	.LBB4_192
# BB#190:                               # %land.rhs.i4392
                                        #   in Loop: Header=BB4_189 Depth=1
	movq	32(%rcx), %rdx
	movzbl	(%rdx), %edx
	cmpq	$48, %rdx
	jne	.LBB4_192
# BB#191:                               # %while.body.i4395
                                        #   in Loop: Header=BB4_189 Depth=1
	movq	24(%rcx), %rcx
	movslq	8(%rcx), %rdx
	leaq	8(%rcx), %r15
	cmpq	%rax, %rdx
	jg	.LBB4_189
.LBB4_192:                              # %while.end.i4399
	movslq	(%r15), %rcx
	cmpq	%rax, %rcx
	jg	.LBB4_168
.LBB4_193:                              # %cond.false1092
	movq	%r12, 128(%rsp)         # 8-byte Spill
	movq	uid_cuid(%rip), %rax
	leaq	(%rax,%rcx,4), %rax
	movq	176(%rsp), %r15         # 8-byte Reload
	movl	(%rax), %eax
	movl	%eax, subst_low_cuid(%rip)
	movq	(%r14), %rdi
	movq	304(%rsp), %rsi
	movq	200(%rsp), %rax         # 8-byte Reload
	xorq	$1, %rax
	movq	160(%rsp), %r8          # 8-byte Reload
	andq	%rax, %r8
	xorq	%rcx, %rcx
	movq	208(%rsp), %rdx         # 8-byte Reload
	callq	subst
	movq	%rax, 328(%rsp)
	movq	$1, 200(%rsp)           # 8-byte Folded Spill
.LBB4_194:                              # %if.end1109
	movq	%r13, %r14
.LBB4_195:                              # %if.end1109
	xorq	%r12, %r12
	testq	%r15, %r15
	je	.LBB4_210
# BB#196:                               # %land.lhs.true1111
	movq	328(%rsp), %rax
	movzbl	(%rax), %eax
	cmpq	$49, %rax
	je	.LBB4_210
# BB#197:                               # %if.then1116
	movq	%r14, %r12
	movq	%r15, %r14
	movq	288(%rsp), %rdx
	leaq	328(%rsp), %rsi
	xorq	%rdi, %rdi
	xorq	%rcx, %rcx
	xorq	%r8, %r8
	xorq	%r9, %r9
	xorq	%r15, %r15
	callq	combinable_i3pat
	testq	%rbx, %rax
	je	.LBB4_198
# BB#203:                               # %if.end1120
	movl	%r15d, n_occurrences(%rip)
	movq	%r14, %r15
	movslq	8(%r15), %rcx
	movslq	max_uid_cuid(%rip), %rax
	cmpq	%rax, %rcx
	jle	.LBB4_209
# BB#204:                               # %land.lhs.true2.i4457.lr.ph
	leaq	8(%r15), %rcx
	movq	%r15, %rdx
.LBB4_205:                              # %land.lhs.true2.i4457
                                        # =>This Inner Loop Header: Depth=1
	movzbl	(%rdx), %esi
	cmpq	$32, %rsi
	jne	.LBB4_208
# BB#206:                               # %land.rhs.i4463
                                        #   in Loop: Header=BB4_205 Depth=1
	movq	32(%rdx), %rsi
	movzbl	(%rsi), %esi
	cmpq	$48, %rsi
	jne	.LBB4_208
# BB#207:                               # %while.body.i4466
                                        #   in Loop: Header=BB4_205 Depth=1
	movq	24(%rdx), %rdx
	movslq	8(%rdx), %rsi
	leaq	8(%rdx), %rcx
	cmpq	%rax, %rsi
	jg	.LBB4_205
.LBB4_208:                              # %while.end.i4470
	movslq	(%rcx), %rcx
	cmpq	%rax, %rcx
	jg	.LBB4_168
.LBB4_209:                              # %cond.false1128
	movq	uid_cuid(%rip), %rax
	leaq	(%rax,%rcx,4), %rax
	movq	%r12, %r14
	movl	(%rax), %eax
	movq	328(%rsp), %rdi
	movq	288(%rsp), %rsi
	movl	%eax, subst_low_cuid(%rip)
	xorq	%rcx, %rcx
	xorq	%r8, %r8
	movq	184(%rsp), %rdx         # 8-byte Reload
	callq	subst
	movq	%rax, 328(%rsp)
	movq	$1, %r12
.LBB4_210:                              # %if.end1137
	callq	max_reg_num
	movq	%rbx, %rcx
	andq	%rcx, %rax
	movq	152(%rsp), %rdx         # 8-byte Reload
	andq	%rcx, %rdx
	cmpq	%rdx, %rax
	jne	.LBB4_215
# BB#211:                               # %lor.lhs.false1156
	movq	328(%rsp), %rbx
	movzbl	(%rbx), %eax
	cmpq	$49, %rax
	je	.LBB4_215
# BB#212:                               # %lor.lhs.false1156
	cmpq	$47, %rax
	jne	.LBB4_220
# BB#213:                               # %land.lhs.true1166
	movq	16(%rbx), %rax
	movzbl	(%rax), %eax
	cmpq	$78, %rax
	jne	.LBB4_220
# BB#214:                               # %land.lhs.true1166
	cmpq	$0, 120(%rsp)           # 8-byte Folded Reload
	jne	.LBB4_220
.LBB4_215:                              # %if.then1176
	movq	undobuf(%rip), %rax
	testq	%rax, %rax
	je	.LBB4_110
	.align	16, 0x90
.LBB4_216:                              # %for.body.i4481
                                        # =>This Inner Loop Header: Depth=1
	movl	8(%rax), %edx
	movq	(%rax), %rcx
	testq	%rdx, %rdx
	jne	.LBB4_217
# BB#218:                               # %if.else.i4488
                                        #   in Loop: Header=BB4_216 Depth=1
	movq	16(%rax), %rdx
	movq	24(%rax), %rsi
	movq	%rdx, (%rsi)
	jmp	.LBB4_219
.LBB4_217:                              # %if.then.i4485
                                        #   in Loop: Header=BB4_216 Depth=1
	movl	16(%rax), %edx
	movq	24(%rax), %rsi
	movl	%edx, (%rsi)
.LBB4_219:                              # %if.end.i4490
                                        #   in Loop: Header=BB4_216 Depth=1
	movq	undobuf+8(%rip), %rdx
	movq	%rdx, (%rax)
	movq	%rax, undobuf+8(%rip)
	testq	%rcx, %rcx
	movq	%rcx, %rax
	jne	.LBB4_216
	jmp	.LBB4_110
.LBB4_220:                              # %if.end1177
	movq	%r12, 88(%rsp)          # 8-byte Spill
	movq	128(%rsp), %rax         # 8-byte Reload
	testq	%rcx, %rax
	jne	.LBB4_221
# BB#222:                               # %if.end1177
	movabsq	$1, %rax
	jmp	.LBB4_223
.LBB4_198:                              # %if.then1119
	movq	undobuf(%rip), %rax
	testq	%rax, %rax
	je	.LBB4_110
.LBB4_199:                              # %for.body.i4410
                                        # =>This Inner Loop Header: Depth=1
	movl	8(%rax), %edx
	movq	(%rax), %rcx
	testq	%rdx, %rdx
	jne	.LBB4_200
# BB#201:                               # %if.else.i4417
                                        #   in Loop: Header=BB4_199 Depth=1
	movq	16(%rax), %rdx
	movq	24(%rax), %rsi
	movq	%rdx, (%rsi)
	jmp	.LBB4_202
.LBB4_200:                              # %if.then.i4414
                                        #   in Loop: Header=BB4_199 Depth=1
	movl	16(%rax), %edx
	movq	24(%rax), %rsi
	movl	%edx, (%rsi)
.LBB4_202:                              # %if.end.i4419
                                        #   in Loop: Header=BB4_199 Depth=1
	movq	undobuf+8(%rip), %rdx
	movq	%rdx, (%rax)
	movq	%rax, undobuf+8(%rip)
	testq	%rcx, %rcx
	movq	%rcx, %rax
	jne	.LBB4_199
	jmp	.LBB4_110
.LBB4_221:
	movabsq	$0, %rax
.LBB4_223:                              # %if.end1177
	movq	136(%rsp), %rcx         # 8-byte Reload
	movq	192(%rsp), %r12         # 8-byte Reload
	movq	$0, 96(%rsp)            # 8-byte Folded Spill
	orq	%rcx, %rax
	je	.LBB4_224
# BB#225:                               # %if.then1181
	movq	%r12, 192(%rsp)         # 8-byte Spill
	movq	%r14, %r13
	movq	%r15, %r14
	movl	combine_extras(%rip), %eax
	incq	%rax
	movl	%eax, combine_extras(%rip)
	movzbl	(%rbx), %eax
	cmpq	$39, %rax
	jne	.LBB4_227
# BB#226:                               # %if.then1187
	movq	8(%rbx), %rbx
	movl	(%rbx), %eax
	movq	112(%rsp), %rdx         # 8-byte Reload
	leaq	(%rcx,%rdx), %r12
	addq	%rax, %r12
	movq	%r12, %rdi
	movq	%rcx, %r15
	callq	rtvec_alloc
	movq	$39, %rdi
	xorq	%rsi, %rsi
	movq	%rax, %rdx
	callq	gen_rtx_fmt_E
	movq	%rax, 328(%rsp)
	movq	8(%rax), %rdi
	movslq	(%rbx), %rdx
	addq	$8, %rdi
	addq	$8, %rbx
	movq	$3, %rcx
	shlq	%cl, %rdx
	movq	%rbx, %rsi
	callq	memcpy
	jmp	.LBB4_228
.LBB4_224:
	movq	%rcx, 136(%rsp)         # 8-byte Spill
	jmp	.LBB4_238
.LBB4_227:                              # %if.else1208
	movq	112(%rsp), %rax         # 8-byte Reload
	leaq	1(%rcx,%rax), %r12
	movq	%r12, %rdi
	movq	%rcx, %r15
	callq	rtvec_alloc
	movq	$39, %rdi
	xorq	%rsi, %rsi
	movq	%rax, %rdx
	callq	gen_rtx_fmt_E
	movq	%rax, 328(%rsp)
	movq	8(%rax), %rax
	movq	%rbx, 8(%rax)
.LBB4_228:                              # %if.end1219
	movq	%r15, 136(%rsp)         # 8-byte Spill
	testq	%r15, %r15
	movabsq	$4294967295, %r15       # imm = 0xFFFFFFFF
	je	.LBB4_232
# BB#229:                               # %if.then1221
	movq	32(%r14), %rax
	movzbl	(%rax), %ecx
	cmpq	$39, %rcx
	jne	.LBB4_231
# BB#230:                               # %cond.true1229
	movq	288(%rsp), %rdx
	movq	$47, %rdi
	xorq	%rsi, %rsi
	movq	184(%rsp), %rcx         # 8-byte Reload
	callq	gen_rtx_fmt_ee
.LBB4_231:                              # %cond.end1235
	movq	328(%rsp), %rdx
	decq	%r12
	movq	$32, %rcx
	movq	%r12, %rsi
	movq	8(%rdx), %rdx
	shlq	%cl, %rsi
	movq	$32, %rcx
	sarq	%cl, %rsi
	movq	%rax, 8(%rdx,%rsi,8)
.LBB4_232:                              # %if.end1244
	movq	128(%rsp), %rax         # 8-byte Reload
	testq	%r15, %rax
	je	.LBB4_234
# BB#233:
	movq	%r14, %r15
	jmp	.LBB4_237
.LBB4_234:                              # %if.then1246
	movq	%r14, %r15
	testq	%r15, %r15
	je	.LBB4_235
# BB#236:                               # %if.else1257
	movq	288(%rsp), %rsi
	xorq	%rcx, %rcx
	xorq	%r8, %r8
	movq	$0, 96(%rsp)            # 8-byte Folded Spill
	movq	104(%rsp), %rdi         # 8-byte Reload
	movq	184(%rsp), %rdx         # 8-byte Reload
	callq	subst
	movq	328(%rsp), %rdx
	decq	%r12
	movq	$32, %rcx
	movq	8(%rdx), %rdx
	shlq	%cl, %r12
	movq	$32, %rcx
	sarq	%cl, %r12
	movq	%rax, 8(%rdx,%r12,8)
	jmp	.LBB4_237
.LBB4_179:                              # %land.lhs.true1021
	movq	$0, 200(%rsp)           # 8-byte Folded Spill
	movq	328(%rsp), %rax
	movq	8(%rax), %rdi
	movabsq	$undobuf+16, %rdx
	movq	192(%rsp), %rsi         # 8-byte Reload
	callq	find_single_use
	movq	%rax, %r12
	testq	%r12, %r12
	je	.LBB4_180
# BB#181:                               # %land.lhs.true1027
	movq	(%r12), %rax
	movq	const_int_rtx+512(%rip), %rdx
	movzbl	(%rax), %edi
	movq	208(%rsp), %rsi         # 8-byte Reload
	callq	ix86_cc_mode
	movq	328(%rsp), %rcx
	movq	8(%rcx), %rcx
	movzbl	2(%rcx), %edx
	movq	%rax, %rsi
	andq	%rbx, %rsi
	cmpq	%rdx, %rsi
	movq	%r13, %r14
	jne	.LBB4_183
# BB#182:
	movq	176(%rsp), %r15         # 8-byte Reload
	jmp	.LBB4_195
.LBB4_235:                              # %if.then1249
	decq	%r12
	movq	328(%rsp), %rax
	movq	$32, %rcx
	shlq	%cl, %r12
	movq	$32, %rcx
	movq	8(%rax), %rax
	sarq	%cl, %r12
	movq	104(%rsp), %rcx         # 8-byte Reload
	movq	%rcx, 8(%rax,%r12,8)
	movq	$0, 96(%rsp)            # 8-byte Folded Spill
	xorq	%r15, %r15
.LBB4_237:                              # %validate_replacement
	movq	%r13, %r14
	movq	192(%rsp), %r12         # 8-byte Reload
.LBB4_238:                              # %validate_replacement
	movq	328(%rsp), %rdi
	callq	mark_used_regs_combine
	leaq	328(%rsp), %rdi
	leaq	272(%rsp), %rdx
	movq	%r12, %rsi
	callq	recog_for_combine
	movq	%rax, %rsi
	movq	$32, %rcx
                                        # kill: RAX<def> RSI<kill>
	shlq	%cl, %rax
	movq	$32, %rcx
	sarq	%cl, %rax
	testq	%rax, %rax
	js	.LBB4_239
# BB#262:                               # %if.end2633.thread
	movq	%rsi, 104(%rsp)         # 8-byte Spill
	testq	%r15, %r15
	je	.LBB4_263
# BB#264:                               # %if.end2633.thread
	movabsq	$1, %rax
	jmp	.LBB4_265
.LBB4_239:                              # %land.lhs.true1272
	movq	328(%rsp), %rax
	movl	(%rax), %ecx
	movq	%rcx, %rdx
	andq	$65535, %rdx            # imm = 0xFFFF
	cmpq	$39, %rdx
	jne	.LBB4_250
# BB#240:                               # %land.lhs.true1277
	movq	8(%rax), %rax
	movl	(%rax), %ecx
	cmpq	$2, %rcx
	jne	.LBB4_249
# BB#241:                               # %land.lhs.true1284
	movq	8(%rax), %rcx
	movzbl	(%rcx), %ecx
	cmpq	$47, %rcx
	jne	.LBB4_249
# BB#242:                               # %land.lhs.true1294
	movq	16(%rax), %rax
	movzbl	(%rax), %ecx
	cmpq	$47, %rcx
	jne	.LBB4_249
# BB#243:                               # %land.lhs.true1304
	movq	8(%rax), %rax
	movzbl	(%rax), %ecx
	cmpq	$61, %rcx
	jne	.LBB4_249
# BB#244:                               # %land.lhs.true1317
	movq	%rsi, %rbx
	movq	$10, %rsi
	movq	%r12, %rdi
	movq	%rax, %rdx
	callq	find_reg_note
	movq	%rbx, %rsi
	testq	%rax, %rax
	je	.LBB4_249
# BB#245:                               # %land.lhs.true1328
	movq	328(%rsp), %rax
	movq	8(%rax), %rax
	movq	16(%rax), %rax
	movq	16(%rax), %rax
	movq	%rax, %rdi
	movq	%rsi, %rbx
	callq	side_effects_p
	movq	%rbx, %rsi
	movabsq	$4294967295, %rcx       # imm = 0xFFFFFFFF
	testq	%rcx, %rax
	jne	.LBB4_249
# BB#246:                               # %land.lhs.true1339
	movq	328(%rsp), %rax
	movq	%rax, %rdi
	movq	%rsi, %rbx
	callq	asm_noperands
	movq	%rbx, %rsi
	movq	$32, %rcx
	shlq	%cl, %rax
	movq	$32, %rcx
	sarq	%cl, %rax
	testq	%rax, %rax
	js	.LBB4_247
.LBB4_249:                              # %if.else1350.land.lhs.true1353_crit_edge
	movq	328(%rsp), %rax
	movl	(%rax), %ecx
.LBB4_250:                              # %land.lhs.true1353
	andq	$65535, %rcx            # imm = 0xFFFF
	cmpq	$39, %rcx
	jne	.LBB4_256
# BB#251:                               # %land.lhs.true1358
	movq	8(%rax), %rax
	movl	(%rax), %ecx
	cmpq	$2, %rcx
	jne	.LBB4_256
# BB#252:                               # %land.lhs.true1365
	movq	8(%rax), %rcx
	movzbl	(%rcx), %edx
	cmpq	$47, %rdx
	jne	.LBB4_256
# BB#253:                               # %land.lhs.true1375
	movq	16(%rax), %rax
	movzbl	(%rax), %eax
	cmpq	$47, %rax
	jne	.LBB4_256
# BB#254:                               # %land.lhs.true1385
	movq	%rsi, %rbx
	movq	%r12, %r13
	movq	8(%rcx), %rax
	movzbl	(%rax), %ecx
	cmpq	$61, %rcx
	jne	.LBB4_255
# BB#258:                               # %land.lhs.true1398
	movq	$10, %rsi
	movq	%r13, %rdi
	movq	%rax, %rdx
	callq	find_reg_note
	testq	%rax, %rax
	je	.LBB4_255
# BB#259:                               # %land.lhs.true1409
	movq	328(%rsp), %rax
	movq	8(%rax), %rax
	movq	8(%rax), %rax
	movq	16(%rax), %rax
	movq	%rax, %rdi
	callq	side_effects_p
	movabsq	$4294967295, %rcx       # imm = 0xFFFFFFFF
	testq	%rcx, %rax
	je	.LBB4_260
.LBB4_255:
	movq	%r13, %r12
	movq	%rbx, %rsi
	jmp	.LBB4_256
.LBB4_263:
	movabsq	$0, %rax
.LBB4_265:                              # %if.end2633.thread
	movq	%rax, 152(%rsp)         # 8-byte Spill
	movq	$0, 80(%rsp)            # 8-byte Folded Spill
.LBB4_448:                              # %if.end2644
	movq	undobuf+16(%rip), %rsi
	movq	$0, 128(%rsp)           # 8-byte Folded Spill
	testq	%rsi, %rsi
	je	.LBB4_464
# BB#449:                               # %if.then2646
	movq	32(%rsi), %rax
	movq	%rax, 240(%rsp)
	movq	$0, newpat_used_regs(%rip)
	leaq	240(%rsp), %rdi
	leaq	232(%rsp), %rdx
	callq	recog_for_combine
	movq	%rax, 128(%rsp)         # 8-byte Spill
	movq	$32, %rcx
	shlq	%cl, %rax
	movq	240(%rsp), %rbx
	movq	$32, %rcx
	sarq	%cl, %rax
	testq	%rax, %rax
	jns	.LBB4_456
# BB#450:                               # %land.lhs.true2653
	movq	%rbx, %rdi
	callq	check_asm_operands
	movabsq	$4294967295, %rcx       # imm = 0xFFFFFFFF
	testq	%rcx, %rax
	je	.LBB4_451
.LBB4_456:                              # %if.end2657
	movq	%r12, %r13
	movq	%r14, %r12
	movq	%r15, %r14
	movq	undobuf+16(%rip), %rax
	movq	%rbx, 32(%rax)
	movq	undobuf+16(%rip), %rax
	movq	56(%rax), %r15
	jmp	.LBB4_457
.LBB4_470:                              # %if.end2704
                                        #   in Loop: Header=BB4_457 Depth=1
	movq	undobuf+16(%rip), %rdi
	movq	%rbx, %rsi
	callq	remove_note
.LBB4_457:                              # %if.end2657
                                        # =>This Inner Loop Header: Depth=1
	testq	%r15, %r15
	je	.LBB4_458
# BB#466:                               # %for.body2666
                                        #   in Loop: Header=BB4_457 Depth=1
	movq	%r15, %rbx
	movl	(%rbx), %eax
	movq	16(%rbx), %r15
	andq	$16711680, %rax         # imm = 0xFF0000
	cmpq	$655360, %rax           # imm = 0xA0000
	jne	.LBB4_457
# BB#467:                               # %land.lhs.true2675
                                        #   in Loop: Header=BB4_457 Depth=1
	movq	undobuf+16(%rip), %rax
	movq	8(%rbx), %rdi
	movq	32(%rax), %rsi
	callq	reg_set_p
	movabsq	$4294967295, %rcx       # imm = 0xFFFFFFFF
	testq	%rcx, %rax
	jne	.LBB4_457
# BB#468:                               # %if.then2684
                                        #   in Loop: Header=BB4_457 Depth=1
	movq	8(%rbx), %rax
	movzbl	(%rax), %ecx
	cmpq	$61, %rcx
	jne	.LBB4_470
# BB#469:                               # %if.then2692
                                        #   in Loop: Header=BB4_457 Depth=1
	movl	8(%rax), %eax
	movq	reg_n_info(%rip), %rcx
	movq	32(%rcx,%rax,8), %rax
	movl	24(%rax), %ecx
	decq	%rcx
	movl	%ecx, 24(%rax)
	jmp	.LBB4_470
.LBB4_458:                              # %for.cond2708.preheader
	movq	232(%rsp), %rdi
	testq	%rdi, %rdi
	movq	%r14, %r15
	je	.LBB4_463
# BB#459:
	movq	%rdi, %rax
.LBB4_460:                              # %for.body2710
                                        # =>This Inner Loop Header: Depth=1
	movq	8(%rax), %rcx
	movzbl	(%rcx), %edx
	cmpq	$61, %rdx
	jne	.LBB4_462
# BB#461:                               # %if.then2718
                                        #   in Loop: Header=BB4_460 Depth=1
	movl	8(%rcx), %ecx
	movq	reg_n_info(%rip), %rdx
	movq	32(%rdx,%rcx,8), %rcx
	movl	24(%rcx), %edx
	incq	%rdx
	movl	%edx, 24(%rcx)
.LBB4_462:                              # %for.inc2732
                                        #   in Loop: Header=BB4_460 Depth=1
	movq	16(%rax), %rax
	testq	%rax, %rax
	jne	.LBB4_460
.LBB4_463:                              # %for.end2736
	movq	undobuf+16(%rip), %rsi
	xorq	%rcx, %rcx
	xorq	%r8, %r8
	xorq	%r9, %r9
	movq	%rsi, %rdx
	callq	distribute_notes
	movq	%r12, %r14
	movq	%r13, %r12
.LBB4_464:                              # %if.end2737
	movq	320(%rsp), %rsi
	movq	$0, 224(%rsp)
	testq	%rsi, %rsi
	je	.LBB4_471
# BB#465:                               # %land.lhs.true2740
	movq	304(%rsp), %rdi
	callq	reg_set_p
	movq	144(%rsp), %rcx         # 8-byte Reload
	movq	168(%rsp), %rdx         # 8-byte Reload
	orq	%rcx, %rdx
	jmp	.LBB4_472
.LBB4_471:                              # %lor.lhs.false2743
	movq	144(%rsp), %rax         # 8-byte Reload
	movq	168(%rsp), %rdx         # 8-byte Reload
.LBB4_472:                              # %lor.lhs.false2743
	orq	%rax, %rdx
	xorq	%rbx, %rbx
	movabsq	$4294967295, %rcx       # imm = 0xFFFFFFFF
	testq	%rcx, %rdx
	jne	.LBB4_474
# BB#473:                               # %cond.false2748
	movq	304(%rsp), %rbx
.LBB4_474:                              # %cond.end2749
	movq	$0, 168(%rsp)           # 8-byte Folded Spill
	testq	%r15, %r15
	movabsq	$0, %rax
	je	.LBB4_479
# BB#475:                               # %cond.end2749
	cmpq	$0, 160(%rsp)           # 8-byte Folded Reload
	movabsq	$0, %rax
	jne	.LBB4_479
# BB#476:                               # %lor.lhs.false2755
	movq	320(%rsp), %rsi
	testq	%rsi, %rsi
	je	.LBB4_478
# BB#477:                               # %land.lhs.true2757
	movq	288(%rsp), %rdi
	movq	%r12, %r13
	movq	%rcx, %r12
	callq	reg_set_p
	movq	%r12, %rcx
	movq	%r13, %r12
	testq	%rcx, %rax
	movabsq	$0, %rax
	jne	.LBB4_479
.LBB4_478:                              # %cond.false2761
	movq	288(%rsp), %rax
.LBB4_479:                              # %cond.end2762
	movq	%rax, 56(%rsp)          # 8-byte Spill
	movq	%rbx, 64(%rsp)          # 8-byte Spill
	movq	%r15, 176(%rsp)         # 8-byte Spill
	movq	%rcx, %r15
	movq	48(%r12), %rax
	movq	%rax, 40(%rsp)          # 8-byte Spill
	movq	56(%r12), %rbx
	movq	%r12, %r13
	movq	48(%r14), %rax
	movq	%rax, 48(%rsp)          # 8-byte Spill
	movq	56(%r14), %r12
	cmpq	$0, 152(%rsp)           # 8-byte Folded Reload
	movabsq	$0, %rcx
	je	.LBB4_481
# BB#480:                               # %if.then2777
	movq	176(%rsp), %rax         # 8-byte Reload
	movq	48(%rax), %rcx
	movq	56(%rax), %rax
	movq	%rax, 168(%rsp)         # 8-byte Spill
.LBB4_481:                              # %if.end2784
	movq	%rcx, 32(%rsp)          # 8-byte Spill
	movq	%rbx, %rdi
	callq	reset_used_flags
	movq	%r12, %rdi
	callq	reset_used_flags
	movq	168(%rsp), %rdi         # 8-byte Reload
	callq	reset_used_flags
	movq	328(%rsp), %rdi
	callq	reset_used_flags
	movq	320(%rsp), %rdi
	callq	reset_used_flags
	movq	undobuf+16(%rip), %rax
	testq	%rax, %rax
	je	.LBB4_483
# BB#482:                               # %if.then2786
	movq	32(%rax), %rdi
	callq	reset_used_flags
.LBB4_483:                              # %if.end2790
	movq	%rbx, %rdi
	callq	copy_rtx_if_shared
	movq	%rax, 120(%rsp)         # 8-byte Spill
	movq	%r12, %rdi
	callq	copy_rtx_if_shared
	movq	%rax, 72(%rsp)          # 8-byte Spill
	movq	168(%rsp), %rdi         # 8-byte Reload
	callq	copy_rtx_if_shared
	movq	328(%rsp), %rdi
	movq	%rax, 168(%rsp)         # 8-byte Spill
	callq	copy_rtx_if_shared
	movq	320(%rsp), %rdi
	movq	%rax, 328(%rsp)
	callq	copy_rtx_if_shared
	movq	undobuf+16(%rip), %rcx
	movq	%rax, 320(%rsp)
	testq	%rcx, %rcx
	je	.LBB4_485
# BB#484:                               # %if.then2797
	movq	32(%rcx), %rdi
	callq	reset_used_flags
.LBB4_485:                              # %if.end2801
	movq	104(%rsp), %rax         # 8-byte Reload
	movl	%eax, 40(%r13)
	movq	328(%rsp), %rax
	movq	%rax, 32(%r13)
	movzbl	(%r13), %eax
	cmpq	$34, %rax
	movq	88(%rsp), %r12          # 8-byte Reload
	jne	.LBB4_492
# BB#486:                               # %land.lhs.true2812
	movq	64(%r13), %rbx
	testq	%rbx, %rbx
	je	.LBB4_492
# BB#487:                               # %if.then2817
	movq	%rbx, %rdi
	callq	reset_used_flags
	movq	%rbx, %rdi
	callq	copy_rtx
	movq	%rax, %rbx
	cmpq	$0, 200(%rsp)           # 8-byte Folded Reload
	je	.LBB4_489
# BB#488:                               # %if.then2823
	movq	304(%rsp), %rsi
	movq	%rbx, %rdi
	movq	208(%rsp), %rdx         # 8-byte Reload
	callq	replace_rtx
.LBB4_489:                              # %if.end2825
	testq	%r12, %r12
	je	.LBB4_491
# BB#490:                               # %if.then2827
	movq	288(%rsp), %rsi
	movq	%rbx, %rdi
	movq	184(%rsp), %rdx         # 8-byte Reload
	callq	replace_rtx
.LBB4_491:                              # %if.end2829
	movq	%rbx, 64(%r13)
.LBB4_492:                              # %if.end2833
	movq	undobuf+16(%rip), %rax
	testq	%rax, %rax
	je	.LBB4_494
# BB#493:                               # %if.then2835
	movq	128(%rsp), %rcx         # 8-byte Reload
	movl	%ecx, 40(%rax)
.LBB4_494:                              # %if.end2839
	cmpq	$0, 96(%rsp)            # 8-byte Folded Reload
	movq	%r15, %r8
	movq	%r13, %r12
	je	.LBB4_495
# BB#496:                               # %for.cond2842.preheader
	movq	32(%r14), %rax
	movq	8(%rax), %rax
	movslq	(%rax), %rcx
	testq	%rcx, %rcx
	jle	.LBB4_509
# BB#497:                               # %for.body2852.lr.ph
	xorq	%rbx, %rbx
.LBB4_498:                              # %for.body2852
                                        # =>This Loop Header: Depth=1
                                        #     Child Loop BB4_504 Depth 2
                                        #       Child Loop BB4_513 Depth 3
	movq	8(%rax,%rbx,8), %rax
	movzbl	(%rax), %ecx
	cmpq	$48, %rcx
	je	.LBB4_508
# BB#499:                               # %land.lhs.true2866
                                        #   in Loop: Header=BB4_498 Depth=1
	movq	8(%rax), %rdx
	movzbl	(%rdx), %eax
	cmpq	$61, %rax
	jne	.LBB4_508
# BB#500:                               # %land.lhs.true2866
                                        #   in Loop: Header=BB4_498 Depth=1
	movq	304(%rsp), %rax
	cmpq	%rax, %rdx
	je	.LBB4_508
# BB#501:                               # %land.lhs.true2898
                                        #   in Loop: Header=BB4_498 Depth=1
	movq	$10, %rsi
	movq	%r14, %rdi
	movq	%r8, %r15
	callq	find_reg_note
	movq	%r15, %r8
	testq	%rax, %rax
	jne	.LBB4_508
# BB#502:                               # %for.cond2917.preheader
                                        #   in Loop: Header=BB4_498 Depth=1
	movq	24(%r14), %rax
	testq	%rax, %rax
	je	.LBB4_508
# BB#503:                               # %land.rhs2919.lr.ph
                                        #   in Loop: Header=BB4_498 Depth=1
	movslq	this_basic_block(%rip), %rcx
	movl	n_basic_blocks(%rip), %edx
.LBB4_504:                              # %land.rhs2919
                                        #   Parent Loop BB4_498 Depth=1
                                        # =>  This Loop Header: Depth=2
                                        #       Child Loop BB4_513 Depth 3
	leaq	-1(%rdx), %rsi
	andq	%r8, %rsi
	movq	%rcx, %rdi
	andq	%r8, %rdi
	cmpq	%rsi, %rdi
	je	.LBB4_506
# BB#505:                               # %lor.rhs2923
                                        #   in Loop: Header=BB4_504 Depth=2
	movq	basic_block_info(%rip), %rsi
	movq	32(%rsi,%rcx,8), %rsi
	movq	(%rsi), %rsi
	cmpq	%rax, %rsi
	je	.LBB4_508
.LBB4_506:                              # %for.body2935
                                        #   in Loop: Header=BB4_504 Depth=2
	cmpq	%r12, %rax
	je	.LBB4_507
# BB#511:                               # %land.lhs.true2938
                                        #   in Loop: Header=BB4_504 Depth=2
	movzbl	(%rax), %esi
	movzbl	rtx_class(%rsi), %esi
	cmpq	$105, %rsi
	jne	.LBB4_507
# BB#512:                               # %if.then2946
                                        #   in Loop: Header=BB4_504 Depth=2
	movq	48(%rax), %rsi
	jmp	.LBB4_513
.LBB4_516:                              # %for.inc2963
                                        #   in Loop: Header=BB4_513 Depth=3
	movq	16(%rsi), %rsi
.LBB4_513:                              # %if.then2946
                                        #   Parent Loop BB4_498 Depth=1
                                        #     Parent Loop BB4_504 Depth=2
                                        # =>    This Inner Loop Header: Depth=3
	testq	%rsi, %rsi
	je	.LBB4_507
# BB#514:                               # %for.body2952
                                        #   in Loop: Header=BB4_513 Depth=3
	movq	8(%rsi), %rdi
	cmpq	%r14, %rdi
	jne	.LBB4_516
# BB#515:                               # %if.then2958
                                        #   in Loop: Header=BB4_513 Depth=3
	movq	%r12, 8(%rsi)
	jmp	.LBB4_516
.LBB4_507:                              # %for.cond2917.backedge
                                        #   in Loop: Header=BB4_504 Depth=2
	movq	24(%rax), %rax
	testq	%rax, %rax
	jne	.LBB4_504
.LBB4_508:                              # %for.inc2975
                                        #   in Loop: Header=BB4_498 Depth=1
	movq	32(%r14), %rax
	movq	8(%rax), %rax
	incq	%rbx
	movslq	(%rax), %rdx
	movq	$32, %rcx
	movq	%rbx, %rsi
	shlq	%cl, %rsi
	movq	$32, %rcx
	sarq	%cl, %rsi
	cmpq	%rdx, %rsi
	jl	.LBB4_498
.LBB4_509:                              # %for.end2977
	xorq	%r15, %r15
	movq	120(%rsp), %rax         # 8-byte Reload
	testq	%rax, %rax
	je	.LBB4_510
# BB#517:
	movq	%rax, %rcx
.LBB4_518:                              # %while.cond2981
                                        # =>This Inner Loop Header: Depth=1
	movq	%rcx, %rax
	movq	16(%rax), %rcx
	testq	%rcx, %rcx
	jne	.LBB4_518
# BB#519:                               # %while.end2990
	movq	72(%rsp), %rcx          # 8-byte Reload
	movq	%rcx, 16(%rax)
	jmp	.LBB4_520
.LBB4_495:
	movq	72(%rsp), %r15          # 8-byte Reload
	jmp	.LBB4_520
.LBB4_510:
	movq	72(%rsp), %rax          # 8-byte Reload
	movq	%rax, 120(%rsp)         # 8-byte Spill
.LBB4_520:                              # %if.end2996
	leaq	48(%r12), %rcx
	movq	%rcx, 200(%rsp)         # 8-byte Spill
	leaq	48(%r14), %rax
	movq	$0, 8(%rcx)
	movq	$0, (%rcx)
	movq	$0, 8(%rax)
	movq	$0, (%rax)
	movq	320(%rsp), %rax
	leaq	8(%r12), %rcx
	movq	%rcx, 208(%rsp)         # 8-byte Spill
	leaq	8(%r14), %rbx
	testq	%rax, %rax
	je	.LBB4_522
# BB#521:                               # %if.then3010
	movq	80(%rsp), %rcx          # 8-byte Reload
	movl	%ecx, 40(%r14)
	movq	%rax, 32(%r14)
	jmp	.LBB4_523
.LBB4_522:                              # %if.else3017
	movq	$37, %rax
	movw	%ax, (%r14)
	movabsq	$4294967197, %rax       # imm = 0xFFFFFF9D
	movl	%eax, 40(%r14)
	movq	$0, 32(%r14)
.LBB4_523:                              # %if.end3025
	cmpq	$0, 152(%rsp)           # 8-byte Folded Reload
	je	.LBB4_525
# BB#524:                               # %if.then3027
	movq	176(%rsp), %rcx         # 8-byte Reload
	movq	$0, 56(%rcx)
	movq	$0, 48(%rcx)
	movq	$37, %rax
	movw	%ax, (%rcx)
	movabsq	$4294967197, %rax       # imm = 0xFFFFFF9D
	movl	%eax, 40(%rcx)
	movq	$0, 32(%rcx)
.LBB4_525:                              # %if.end3043
	movq	320(%rsp), %rdi
	testq	%rdi, %rdi
	je	.LBB4_541
# BB#526:                               # %if.then3045
	movq	%r12, %r13
	movq	176(%rsp), %rsi         # 8-byte Reload
	movslq	8(%rsi), %rcx
	movslq	max_uid_cuid(%rip), %rax
	cmpq	%rax, %rcx
	jle	.LBB4_532
# BB#527:                               # %land.lhs.true2.i4673.lr.ph
	leaq	8(%rsi), %rcx
	movq	%rsi, %rdx
	movq	%rsi, %r12
.LBB4_528:                              # %land.lhs.true2.i4673
                                        # =>This Inner Loop Header: Depth=1
	movzbl	(%rdx), %esi
	cmpq	$32, %rsi
	jne	.LBB4_531
# BB#529:                               # %land.rhs.i4679
                                        #   in Loop: Header=BB4_528 Depth=1
	movq	32(%rdx), %rsi
	movzbl	(%rsi), %esi
	cmpq	$48, %rsi
	jne	.LBB4_531
# BB#530:                               # %while.body.i4682
                                        #   in Loop: Header=BB4_528 Depth=1
	movq	24(%rdx), %rdx
	movslq	8(%rdx), %rsi
	leaq	8(%rdx), %rcx
	cmpq	%rax, %rsi
	jg	.LBB4_528
.LBB4_531:                              # %while.end.i4686
	movq	%rbx, 184(%rsp)         # 8-byte Spill
	movslq	(%rcx), %rcx
	cmpq	%rax, %rcx
	jle	.LBB4_533
	jmp	.LBB4_168
.LBB4_541:                              # %if.else3076
	movq	328(%rsp), %rdi
	cmpq	$0, 152(%rsp)           # 8-byte Folded Reload
	je	.LBB4_549
# BB#542:                               # %cond.true3078
	movq	176(%rsp), %rdx         # 8-byte Reload
	movslq	8(%rdx), %rcx
	movslq	max_uid_cuid(%rip), %rax
	cmpq	%rax, %rcx
	jle	.LBB4_554
# BB#543:                               # %land.lhs.true2.i4727.lr.ph
	movq	%rbx, 184(%rsp)         # 8-byte Spill
	movq	%r12, %r13
	leaq	8(%rdx), %rcx
.LBB4_544:                              # %land.lhs.true2.i4727
                                        # =>This Inner Loop Header: Depth=1
	movzbl	(%rdx), %esi
	cmpq	$32, %rsi
	jne	.LBB4_547
# BB#545:                               # %land.rhs.i4733
                                        #   in Loop: Header=BB4_544 Depth=1
	movq	32(%rdx), %rsi
	movzbl	(%rsi), %esi
	cmpq	$48, %rsi
	jne	.LBB4_547
# BB#546:                               # %while.body.i4736
                                        #   in Loop: Header=BB4_544 Depth=1
	movq	24(%rdx), %rdx
	movslq	8(%rdx), %rsi
	leaq	8(%rdx), %rcx
	cmpq	%rax, %rsi
	jg	.LBB4_544
	jmp	.LBB4_547
.LBB4_532:                              # %cond.false3053
	movq	%rbx, 184(%rsp)         # 8-byte Spill
	movq	%rsi, %r12
.LBB4_533:                              # %cond.end3059
	movq	uid_cuid(%rip), %rax
	leaq	(%rax,%rcx,4), %rax
	movl	(%rax), %edx
	leaq	224(%rsp), %r8
	xorq	%rsi, %rsi
	movq	%r14, %rcx
	callq	move_deaths
	movq	328(%rsp), %rdi
	movq	%r12, %rbx
	movslq	8(%rbx), %rcx
	movslq	max_uid_cuid(%rip), %rax
	movq	320(%rsp), %rsi
	cmpq	%rax, %rcx
	jle	.LBB4_539
# BB#534:                               # %land.lhs.true2.i4700.lr.ph
	leaq	8(%rbx), %rcx
	movq	%rbx, %rdx
	movq	%rbx, 176(%rsp)         # 8-byte Spill
.LBB4_535:                              # %land.lhs.true2.i4700
                                        # =>This Inner Loop Header: Depth=1
	movzbl	(%rdx), %ebx
	cmpq	$32, %rbx
	jne	.LBB4_538
# BB#536:                               # %land.rhs.i4706
                                        #   in Loop: Header=BB4_535 Depth=1
	movq	32(%rdx), %rbx
	movzbl	(%rbx), %ebx
	cmpq	$48, %rbx
	jne	.LBB4_538
# BB#537:                               # %while.body.i4709
                                        #   in Loop: Header=BB4_535 Depth=1
	movq	24(%rdx), %rdx
	movslq	8(%rdx), %rbx
	leaq	8(%rdx), %rcx
	cmpq	%rax, %rbx
	jg	.LBB4_535
.LBB4_538:                              # %while.end.i4713
	movslq	(%rcx), %rcx
	cmpq	%rax, %rcx
	jle	.LBB4_540
	jmp	.LBB4_168
.LBB4_549:                              # %cond.false3094
	movslq	(%rbx), %rcx
	movslq	max_uid_cuid(%rip), %rax
	cmpq	%rax, %rcx
	jle	.LBB4_554
# BB#550:
	movq	%r12, %r13
	movq	%rbx, %rcx
	movq	%rbx, 184(%rsp)         # 8-byte Spill
	movq	%r14, %rdx
.LBB4_551:                              # %land.lhs.true2.i4754
                                        # =>This Inner Loop Header: Depth=1
	movzbl	(%rdx), %esi
	cmpq	$32, %rsi
	jne	.LBB4_547
# BB#552:                               # %land.rhs.i4760
                                        #   in Loop: Header=BB4_551 Depth=1
	movq	32(%rdx), %rsi
	movzbl	(%rsi), %esi
	cmpq	$48, %rsi
	jne	.LBB4_547
# BB#553:                               # %while.body.i4763
                                        #   in Loop: Header=BB4_551 Depth=1
	movq	24(%rdx), %rdx
	movslq	8(%rdx), %rsi
	leaq	8(%rdx), %rcx
	cmpq	%rax, %rsi
	jg	.LBB4_551
.LBB4_547:                              # %while.end.i4740
	movslq	(%rcx), %rcx
	cmpq	%rax, %rcx
	jg	.LBB4_168
# BB#548:                               # %insn_cuid.exit4744
	movq	uid_cuid(%rip), %rax
	leaq	(%rax,%rcx,4), %rax
	movq	%r13, %r12
	jmp	.LBB4_555
.LBB4_539:                              # %cond.false3068
	movq	%rbx, 176(%rsp)         # 8-byte Spill
.LBB4_540:                              # %cond.end3074
	movq	uid_cuid(%rip), %rax
	leaq	(%rax,%rcx,4), %rax
	movl	(%rax), %edx
	leaq	224(%rsp), %r8
	movq	%r13, %r12
	movq	%r12, %rcx
	callq	move_deaths
	movq	64(%rsp), %rbx          # 8-byte Reload
	jmp	.LBB4_556
.LBB4_554:                              # %cond.false3102
	movq	%rbx, 184(%rsp)         # 8-byte Spill
	movq	uid_cuid(%rip), %rax
	leaq	(%rax,%rcx,4), %rax
.LBB4_555:                              # %cond.end3110
	movq	64(%rsp), %rbx          # 8-byte Reload
	movl	(%rax), %edx
	leaq	224(%rsp), %r8
	xorq	%rsi, %rsi
	movq	%r12, %rcx
	callq	move_deaths
.LBB4_556:                              # %if.end3112
	movq	120(%rsp), %rdi         # 8-byte Reload
	testq	%rdi, %rdi
	je	.LBB4_560
# BB#557:                               # %if.then3114
	cmpq	$0, 320(%rsp)
	movq	%r14, %rcx
	jne	.LBB4_559
# BB#558:                               # %select.mid
	xorq	%rcx, %rcx
.LBB4_559:                              # %select.end
	movq	%r12, %rsi
	movq	%r12, %rdx
	movq	%rbx, %r8
	movq	56(%rsp), %r9           # 8-byte Reload
	callq	distribute_notes
.LBB4_560:                              # %if.end3120
	testq	%r15, %r15
	je	.LBB4_564
# BB#561:                               # %if.then3122
	movq	%r12, %r13
	cmpq	$0, 320(%rsp)
	movq	%r14, %rax
	jne	.LBB4_563
# BB#562:                               # %select.mid150
	xorq	%rax, %rax
.LBB4_563:                              # %select.end149
	movq	%r15, %rdi
	movq	%r14, %rsi
	movq	%r13, %r12
	movq	%r12, %rdx
	movq	%rax, %rcx
	movq	%rbx, %r8
	movq	56(%rsp), %r9           # 8-byte Reload
	callq	distribute_notes
.LBB4_564:                              # %if.end3128
	movq	%r12, %r13
	cmpq	$0, 168(%rsp)           # 8-byte Folded Reload
	je	.LBB4_568
# BB#565:                               # %if.then3130
	cmpq	$0, 320(%rsp)
	movq	%r14, %rax
	jne	.LBB4_567
# BB#566:                               # %select.mid152
	xorq	%rax, %rax
.LBB4_567:                              # %select.end151
	movq	168(%rsp), %rdi         # 8-byte Reload
	movq	176(%rsp), %rsi         # 8-byte Reload
	movq	%r13, %rdx
	movq	%rax, %rcx
	movq	%rbx, %r8
	movq	56(%rsp), %r9           # 8-byte Reload
	callq	distribute_notes
.LBB4_568:                              # %if.end3136
	movq	224(%rsp), %rax
	testq	%rax, %rax
	je	.LBB4_572
# BB#569:                               # %if.then3138
	cmpq	$0, 320(%rsp)
	movq	%r14, %rcx
	jne	.LBB4_571
# BB#570:                               # %select.mid154
	xorq	%rcx, %rcx
.LBB4_571:                              # %select.end153
	xorq	%rsi, %rsi
	movq	%rax, %rdi
	movq	%r13, %rdx
	movq	%rbx, %r8
	movq	56(%rsp), %r9           # 8-byte Reload
	callq	distribute_notes
.LBB4_572:                              # %if.end3144
	cmpq	$0, 320(%rsp)
	je	.LBB4_579
# BB#573:                               # %if.end3144
	movq	264(%rsp), %rax
	testq	%rax, %rax
	je	.LBB4_579
# BB#574:
	movq	%rax, %rcx
.LBB4_575:                              # %for.body3151
                                        # =>This Inner Loop Header: Depth=1
	movq	8(%rcx), %rdx
	movzbl	(%rdx), %esi
	cmpq	$61, %rsi
	jne	.LBB4_577
# BB#576:                               # %if.then3159
                                        #   in Loop: Header=BB4_575 Depth=1
	movl	8(%rdx), %edx
	movq	reg_n_info(%rip), %rsi
	movq	32(%rsi,%rdx,8), %rdx
	movl	24(%rdx), %esi
	incq	%rsi
	movl	%esi, 24(%rdx)
.LBB4_577:                              # %for.inc3173
                                        #   in Loop: Header=BB4_575 Depth=1
	movq	16(%rcx), %rcx
	testq	%rcx, %rcx
	jne	.LBB4_575
# BB#578:                               # %for.end3177
	xorq	%rcx, %rcx
	xorq	%r8, %r8
	xorq	%r9, %r9
	movq	%rax, %rdi
	movq	%r14, %rax
	movq	%rax, %rsi
	movq	%rax, %rdx
                                        # kill: R14<def> RAX<kill>
	callq	distribute_notes
.LBB4_579:                              # %if.end3178
	movq	272(%rsp), %rax
	testq	%rax, %rax
	je	.LBB4_585
# BB#580:
	movq	%rax, %rcx
.LBB4_581:                              # %for.body3183
                                        # =>This Inner Loop Header: Depth=1
	movq	8(%rcx), %rdx
	movzbl	(%rdx), %esi
	cmpq	$61, %rsi
	jne	.LBB4_583
# BB#582:                               # %if.then3191
                                        #   in Loop: Header=BB4_581 Depth=1
	movl	8(%rdx), %edx
	movq	reg_n_info(%rip), %rsi
	movq	32(%rsi,%rdx,8), %rdx
	movl	24(%rdx), %esi
	incq	%rsi
	movl	%esi, 24(%rdx)
.LBB4_583:                              # %for.inc3205
                                        #   in Loop: Header=BB4_581 Depth=1
	movq	16(%rcx), %rcx
	testq	%rcx, %rcx
	jne	.LBB4_581
# BB#584:                               # %for.end3209
	xorq	%rcx, %rcx
	xorq	%r8, %r8
	xorq	%r9, %r9
	movq	%rax, %rdi
	movq	%r13, %rax
	movq	%rax, %rsi
	movq	%rax, %rdx
                                        # kill: R13<def> RAX<kill>
	callq	distribute_notes
.LBB4_585:                              # %if.end3210
	movq	312(%rsp), %rdx
	testq	%rdx, %rdx
	je	.LBB4_595
# BB#586:                               # %if.then3212
	movzbl	(%rdx), %eax
	cmpq	$61, %rax
	jne	.LBB4_588
# BB#587:                               # %if.then3217
	movl	8(%rdx), %eax
	movq	reg_n_info(%rip), %rcx
	movq	32(%rcx,%rax,8), %rax
	movl	24(%rax), %ecx
	incq	%rcx
	movl	%ecx, 24(%rax)
.LBB4_588:                              # %if.end3227
	movq	320(%rsp), %rax
	testq	%rax, %rax
	je	.LBB4_591
# BB#589:                               # %land.lhs.true3229
	movq	%rdx, %rdi
	movq	%rax, %rsi
	callq	reg_set_p
	movq	312(%rsp), %rdx
	movabsq	$4294967295, %rcx       # imm = 0xFFFFFFFF
	testq	%rcx, %rax
	je	.LBB4_591
# BB#590:                               # %if.then3232
	movq	$3, %rdi
	movq	$1, %rsi
	xorq	%rcx, %rcx
	callq	gen_rtx_fmt_ee
	xorq	%rsi, %rsi
	xorq	%rcx, %rcx
	movq	%rax, %rdi
	movq	%r14, %rdx
	jmp	.LBB4_594
.LBB4_451:                              # %if.then2656
	movq	undobuf(%rip), %rax
	testq	%rax, %rax
	je	.LBB4_110
.LBB4_452:                              # %for.body.i4653
                                        # =>This Inner Loop Header: Depth=1
	movl	8(%rax), %edx
	movq	(%rax), %rcx
	testq	%rdx, %rdx
	jne	.LBB4_453
# BB#454:                               # %if.else.i4660
                                        #   in Loop: Header=BB4_452 Depth=1
	movq	16(%rax), %rdx
	movq	24(%rax), %rsi
	movq	%rdx, (%rsi)
	jmp	.LBB4_455
.LBB4_453:                              # %if.then.i4657
                                        #   in Loop: Header=BB4_452 Depth=1
	movl	16(%rax), %edx
	movq	24(%rax), %rsi
	movl	%edx, (%rsi)
.LBB4_455:                              # %if.end.i4662
                                        #   in Loop: Header=BB4_452 Depth=1
	movq	undobuf+8(%rip), %rdx
	movq	%rdx, (%rax)
	movq	%rax, undobuf+8(%rip)
	testq	%rcx, %rcx
	movq	%rcx, %rax
	jne	.LBB4_452
	jmp	.LBB4_110
.LBB4_180:
	movq	176(%rsp), %r15         # 8-byte Reload
	jmp	.LBB4_194
.LBB4_183:                              # %if.then1039
	movq	%r14, 96(%rsp)          # 8-byte Spill
	movl	8(%rcx), %esi
	movq	%rax, %rdi
	movq	%rax, %r13
	movq	%rsi, %r14
	callq	gen_rtx_REG
	movq	%rax, %r15
	cmpq	$52, %r14
	ja	.LBB4_185
# BB#184:                               # %if.end1070
	movq	328(%rsp), %rax
	addq	$8, %rax
	movq	%rax, %rdi
	movq	%r15, %rsi
	callq	do_SUBST
	movq	(%r12), %rax
	addq	$8, %rax
	movq	%rax, %rdi
	movq	%r15, %rsi
	callq	do_SUBST
	movq	328(%rsp), %r15
	movq	const_int_rtx+512(%rip), %rax
	addq	$16, %r15
	movq	$74, %rdi
	movq	%r13, %rsi
	movq	208(%rsp), %rdx         # 8-byte Reload
	movq	%rax, %rcx
	callq	gen_rtx_fmt_ee
	movq	%r15, %rdi
	movq	%rax, %rsi
	callq	do_SUBST
	jmp	.LBB4_186
.LBB4_46:                               # %if.then218
	movl	combine_merges(%rip), %eax
	incq	%rax
	movl	%eax, combine_merges(%rip)
	movq	%r9, subst_insn(%rip)
	movslq	8(%rbx), %rcx
	movslq	max_uid_cuid(%rip), %rax
	cmpq	%rax, %rcx
	jle	.LBB4_52
# BB#47:                                # %land.lhs.true2.i4206.lr.ph
	movq	%rbx, %rdi
	leaq	8(%rdi), %rcx
	movq	%rdi, %rsi
                                        # kill: RBX<def> RDI<kill>
.LBB4_48:                               # %land.lhs.true2.i4206
                                        # =>This Inner Loop Header: Depth=1
	movzbl	(%rsi), %edi
	cmpq	$32, %rdi
	jne	.LBB4_51
# BB#49:                                # %land.rhs.i4212
                                        #   in Loop: Header=BB4_48 Depth=1
	movq	32(%rsi), %rdi
	movzbl	(%rdi), %edi
	cmpq	$48, %rdi
	jne	.LBB4_51
# BB#50:                                # %while.body.i4215
                                        #   in Loop: Header=BB4_48 Depth=1
	movq	24(%rsi), %rsi
	movslq	8(%rsi), %rdi
	leaq	8(%rsi), %rcx
	cmpq	%rax, %rdi
	jg	.LBB4_48
.LBB4_51:                               # %while.end.i4219
	movslq	(%rcx), %rcx
	cmpq	%rax, %rcx
	jg	.LBB4_168
.LBB4_52:                               # %cond.false226
	movq	uid_cuid(%rip), %rax
	leaq	(%rax,%rcx,4), %rax
	movl	(%rax), %eax
	movl	%eax, subst_low_cuid(%rip)
	movq	%r9, %r12
	movq	32(%r12), %rax
	movq	16(%rax), %rcx
	movq	%rcx, 304(%rsp)
	movq	8(%r14), %rcx
	movq	(%rcx,%rdx,8), %rcx
	movq	8(%rax), %rax
	addq	$8, %rcx
	movq	%rcx, %rdi
	movq	%rax, %rsi
	callq	do_SUBST
	movq	%r14, 328(%rsp)
	movq	$1, 96(%rsp)            # 8-byte Folded Spill
	movq	$0, 184(%rsp)           # 8-byte Folded Spill
                                        # implicit-def: RAX
	movq	%rax, 208(%rsp)         # 8-byte Spill
	movq	$0, 120(%rsp)           # 8-byte Folded Spill
	jmp	.LBB4_53
.LBB4_71:                               # %if.else
	movq	16(%rax), %r13
	movq	24(%rax), %rax
.LBB4_72:                               # %if.end448
	movq	%rax, 200(%rsp)         # 8-byte Spill
	movq	%r8, %rdi
	callq	subreg_lowpart_p
	movl	target_flags(%rip), %edx
	movq	%rax, %rsi
	andq	$33554432, %rdx         # imm = 0x2000000
	movq	$20, %rcx
	movq	%rdx, %rax
	shrq	%cl, %rax
	movabsq	$4294967295, %rcx       # imm = 0xFFFFFFFF
	testq	%rcx, %rsi
	je	.LBB4_74
# BB#73:                                # %if.end464
	movq	32(%r12), %rcx
	movq	16(%rcx), %rdx
	orq	$31, %rax
	movq	$2, %rsi
	movq	%rax, %rcx
	shlq	%cl, %rsi
	movq	8(%rdx), %rax
	leaq	-1(%rsi), %rcx
	negq	%rsi
	andq	%rsi, %r13
	andq	%rcx, %rax
	orq	%rax, %r13
	jmp	.LBB4_79
.LBB4_247:                              # %if.then1343
	movq	328(%rsp), %rax
	movq	8(%rax), %rax
	movq	8(%rax), %rax
	jmp	.LBB4_248
.LBB4_260:                              # %land.lhs.true1420
	movq	328(%rsp), %rax
	movq	%rax, %rdi
	callq	asm_noperands
	movq	$32, %rcx
	shlq	%cl, %rax
	movq	$32, %rcx
	sarq	%cl, %rax
	testq	%rax, %rax
	movq	%r13, %r12
	movq	%rbx, %rsi
	jns	.LBB4_256
# BB#261:                               # %if.then1424
	movq	328(%rsp), %rax
	movq	8(%rax), %rax
	movq	16(%rax), %rax
.LBB4_248:                              # %if.end1432
	movq	%rax, 328(%rsp)
	leaq	328(%rsp), %rax
	leaq	272(%rsp), %rcx
	movq	%rax, %rdi
	movq	%r12, %rsi
	movq	%rcx, %rdx
	callq	recog_for_combine
	movq	%rax, %rsi
.LBB4_256:                              # %if.end1432
	movq	$0, 80(%rsp)            # 8-byte Folded Spill
	testq	%r15, %r15
	je	.LBB4_257
# BB#266:                               # %if.end1432
	movabsq	$1, %rax
	jmp	.LBB4_267
.LBB4_257:
	movabsq	$0, %rax
.LBB4_267:                              # %if.end1432
	movq	%rax, 152(%rsp)         # 8-byte Spill
	je	.LBB4_438
# BB#268:                               # %if.end1432
	movq	$32, %rcx
	movq	%rsi, %rax
	shlq	%cl, %rax
	movq	$32, %rcx
	sarq	%cl, %rax
	testq	%rax, %rax
	jns	.LBB4_438
# BB#269:                               # %land.lhs.true1437
	movq	%rsi, 104(%rsp)         # 8-byte Spill
	movq	328(%rsp), %rdi
	movzbl	(%rdi), %eax
	cmpq	$47, %rax
	jne	.LBB4_365
# BB#270:                               # %land.lhs.true1442
	movq	%r12, %rbx
	callq	asm_noperands
	movq	$32, %rcx
	shlq	%cl, %rax
	movq	$32, %rcx
	sarq	%cl, %rax
	testq	%rax, %rax
	js	.LBB4_271
# BB#364:                               # %if.else2026.land.lhs.true2031_crit_edge
	movq	328(%rsp), %rdi
	movq	%rbx, %r12
.LBB4_365:                              # %land.lhs.true2031
	callq	asm_noperands
	movq	$32, %rcx
	shlq	%cl, %rax
	movq	$32, %rcx
	sarq	%cl, %rax
	testq	%rax, %rax
	jns	.LBB4_412
# BB#366:                               # %land.lhs.true2035
	movq	328(%rsp), %rax
	movzbl	(%rax), %ecx
	cmpq	$39, %rcx
	jne	.LBB4_412
# BB#367:                               # %land.lhs.true2040
	movq	8(%rax), %rax
	movl	(%rax), %ecx
	cmpq	$2, %rcx
	jne	.LBB4_412
# BB#368:                               # %land.lhs.true2047
	movq	8(%rax), %rcx
	movzbl	(%rcx), %edx
	cmpq	$47, %rdx
	jne	.LBB4_412
# BB#369:                               # %land.lhs.true2057
	movq	16(%rcx), %rcx
	movzbl	(%rcx), %edx
	cmpq	$120, %rdx
	jne	.LBB4_412
# BB#370:                               # %land.lhs.true2070
	movq	16(%rax), %rax
	movzbl	(%rax), %edx
	cmpq	$47, %rdx
	jne	.LBB4_412
# BB#371:                               # %land.lhs.true2080
	movq	16(%rax), %rax
	movq	8(%rcx), %rcx
	movq	%rax, %rdi
	movq	%rcx, %rsi
	callq	rtx_equal_p
	movabsq	$4294967295, %rcx       # imm = 0xFFFFFFFF
	testq	%rcx, %rax
	je	.LBB4_412
# BB#372:                               # %land.lhs.true2102
	movq	%r15, %rbx
	movq	328(%rsp), %rax
	movq	8(%rax), %rax
	movq	16(%rax), %rax
	movslq	8(%r14), %rdx
	movslq	max_uid_cuid(%rip), %rcx
	movq	16(%rax), %rax
	cmpq	%rcx, %rdx
	jle	.LBB4_378
# BB#373:                               # %land.lhs.true2.i4582.lr.ph
	movq	%r14, %rdi
	leaq	8(%rdi), %rdx
	movq	%rdi, %rsi
                                        # kill: R14<def> RDI<kill>
.LBB4_374:                              # %land.lhs.true2.i4582
                                        # =>This Inner Loop Header: Depth=1
	movzbl	(%rsi), %edi
	cmpq	$32, %rdi
	jne	.LBB4_377
# BB#375:                               # %land.rhs.i4588
                                        #   in Loop: Header=BB4_374 Depth=1
	movq	32(%rsi), %rdi
	movzbl	(%rdi), %edi
	cmpq	$48, %rdi
	jne	.LBB4_377
# BB#376:                               # %while.body.i4591
                                        #   in Loop: Header=BB4_374 Depth=1
	movq	24(%rsi), %rsi
	movslq	8(%rsi), %rdi
	leaq	8(%rsi), %rdx
	cmpq	%rcx, %rdi
	jg	.LBB4_374
.LBB4_377:                              # %while.end.i4595
	movslq	(%rdx), %rdx
	cmpq	%rcx, %rdx
	jg	.LBB4_168
.LBB4_378:                              # %cond.false2118
	movq	uid_cuid(%rip), %rcx
	leaq	(%rcx,%rdx,4), %rcx
	movl	(%rcx), %ecx
	movq	%rax, %rdi
	movq	%rcx, %rsi
	callq	use_crosses_set_p
	movabsq	$4294967295, %rcx       # imm = 0xFFFFFFFF
	testq	%rcx, %rax
	movq	%rbx, %r15
	jne	.LBB4_412
# BB#379:                               # %land.lhs.true2128
	movq	%r12, %r10
	movq	%r14, %r9
	movq	%r15, %r8
	movq	328(%rsp), %rax
	movq	8(%rax), %rax
	movq	16(%rax), %rdx
	movq	8(%rdx), %rax
	movl	(%rax), %ebx
	movq	%rbx, %rsi
	andq	$65535, %rsi            # imm = 0xFFFF
	cmpq	$132, %rsi
	jg	.LBB4_411
# BB#380:                               # %land.lhs.true2128
	cmpq	$61, %rsi
	je	.LBB4_383
# BB#381:                               # %land.lhs.true2128
	cmpq	$63, %rsi
	movq	%r8, %r15
	movq	%r9, %r14
	movq	%r10, %r12
	je	.LBB4_388
# BB#382:                               # %land.lhs.true2128
	cmpq	$64, %rsi
	jne	.LBB4_393
	jmp	.LBB4_412
.LBB4_271:                              # %if.then1446
	movq	%r15, %r12
	movq	304(%rsp), %r15
	movq	328(%rsp), %rdi
	movq	%rbx, %rsi
	movq	%rsi, %r13
	callq	split_insns
	movq	%rax, %rbx
	testq	%rbx, %rbx
	movq	%rbx, 256(%rsp)
	je	.LBB4_273
# BB#272:
	movq	%r15, 152(%rsp)         # 8-byte Spill
	jmp	.LBB4_286
.LBB4_591:                              # %if.else3234
	movq	$3, %rdi
	movq	$1, %rsi
	xorq	%rcx, %rcx
	callq	gen_rtx_fmt_ee
	cmpq	$0, 320(%rsp)
	movq	%r14, %rcx
	jne	.LBB4_593
# BB#592:                               # %select.mid156
	xorq	%rcx, %rcx
.LBB4_593:                              # %select.end155
	xorq	%rsi, %rsi
	movq	%rax, %rdi
	movq	%r13, %rdx
.LBB4_594:                              # %if.end3242
	movq	%rbx, %r8
	movq	56(%rsp), %r9           # 8-byte Reload
	callq	distribute_notes
.LBB4_595:                              # %if.end3242
	movabsq	$4294967295, %rax       # imm = 0xFFFFFFFF
	movq	144(%rsp), %rcx         # 8-byte Reload
	testq	%rax, %rcx
	je	.LBB4_605
# BB#596:                               # %if.then3244
	movq	304(%rsp), %rdx
	movzbl	(%rdx), %eax
	cmpq	$61, %rax
	jne	.LBB4_598
# BB#597:                               # %if.then3249
	movl	8(%rdx), %eax
	movq	reg_n_info(%rip), %rcx
	movq	32(%rcx,%rax,8), %rax
	movl	24(%rax), %ecx
	incq	%rcx
	movl	%ecx, 24(%rax)
.LBB4_598:                              # %if.end3259
	movq	320(%rsp), %rax
	testq	%rax, %rax
	je	.LBB4_601
# BB#599:                               # %land.lhs.true3261
	movq	%rdx, %rdi
	movq	%rax, %rsi
	callq	reg_set_p
	movq	304(%rsp), %rdx
	movabsq	$4294967295, %rcx       # imm = 0xFFFFFFFF
	testq	%rcx, %rax
	je	.LBB4_601
# BB#600:                               # %if.then3264
	movq	$3, %rdi
	movq	$1, %rsi
	xorq	%rcx, %rcx
	callq	gen_rtx_fmt_ee
	xorq	%rsi, %rsi
	xorq	%rcx, %rcx
	xorq	%r8, %r8
	xorq	%r9, %r9
	movq	%rax, %rdi
	movq	%r14, %rdx
	jmp	.LBB4_604
.LBB4_185:                              # %if.else1081
	movq	$0, undobuf+16(%rip)
.LBB4_186:                              # %if.end1109
	movq	176(%rsp), %r15         # 8-byte Reload
	movq	96(%rsp), %r14          # 8-byte Reload
	jmp	.LBB4_195
.LBB4_74:                               # %if.else489
	movabsq	$4294967295, %rcx       # imm = 0xFFFFFFFF
	testq	%rcx, %rdx
	je	.LBB4_76
# BB#75:                                # %if.then495
	movq	32(%r12), %rax
	movq	16(%rax), %rax
	movq	8(%rax), %rax
	jmp	.LBB4_78
.LBB4_411:                              # %land.lhs.true2128
	cmpq	$133, %rsi
	movq	%r8, %r15
	movq	%r9, %r14
	movq	%r10, %r12
	jne	.LBB4_393
	jmp	.LBB4_412
.LBB4_383:                              # %land.lhs.true2167
	movl	8(%rax), %ecx
	movq	reg_nonzero_bits(%rip), %rdi
	movq	(%rdi,%rcx,8), %rdi
	testq	%rdi, %rdi
	movq	%r8, %r15
	movq	%r9, %r14
	movq	%r10, %r12
	je	.LBB4_393
# BB#384:                               # %land.lhs.true2175
	movq	$15, %rcx
	shrq	%cl, %rbx
	andq	$510, %rbx              # imm = 0x1FE
	movl	target_flags(%rip), %r8d
	movzbl	mode_bitsize(%rbx), %ebx
	movq	$20, %rcx
	shrq	%cl, %r8
	andq	$32, %r8
	addq	$32, %r8
	movabsq	$4294967264, %rcx       # imm = 0xFFFFFFE0
	andq	%r8, %rcx
	cmpq	%rcx, %rbx
	jae	.LBB4_387
# BB#385:                               # %land.lhs.true2175
	cmpq	$31, %rbx
	ja	.LBB4_387
# BB#386:                               # %land.rhs2196
	movslq	word_mode(%rip), %rcx
	movq	mode_mask_array(,%rcx,8), %rcx
	cmpq	%rcx, %rdi
	jne	.LBB4_412
.LBB4_387:                              # %land.lhs.true2208
	cmpq	$63, %rsi
	jne	.LBB4_393
.LBB4_388:                              # %land.lhs.true2221
	movq	8(%rax), %rcx
	movl	(%rcx), %edi
	movq	%rdi, %rsi
	andq	$65535, %rsi            # imm = 0xFFFF
	cmpq	$61, %rsi
	jne	.LBB4_393
# BB#389:                               # %land.lhs.true2237
	movl	8(%rcx), %ecx
	movq	reg_nonzero_bits(%rip), %rsi
	movq	(%rsi,%rcx,8), %rsi
	testq	%rsi, %rsi
	je	.LBB4_393
# BB#390:                               # %land.lhs.true2245
	movq	$15, %rcx
	shrq	%cl, %rdi
	andq	$510, %rdi              # imm = 0x1FE
	movl	target_flags(%rip), %ebx
	movzbl	mode_bitsize(%rdi), %edi
	movq	$20, %rcx
	shrq	%cl, %rbx
	andq	$32, %rbx
	addq	$32, %rbx
	movabsq	$4294967264, %rcx       # imm = 0xFFFFFFE0
	andq	%rbx, %rcx
	cmpq	%rcx, %rdi
	jae	.LBB4_393
# BB#391:                               # %land.lhs.true2245
	cmpq	$31, %rdi
	ja	.LBB4_393
# BB#392:                               # %land.rhs2266
	movslq	word_mode(%rip), %rcx
	movq	mode_mask_array(,%rcx,8), %rcx
	cmpq	%rcx, %rsi
	jne	.LBB4_412
.LBB4_393:                              # %land.lhs.true2278
	movq	16(%rdx), %rcx
	movq	%rax, %rdi
	movq	%rcx, %rsi
	callq	reg_overlap_mentioned_p
	movabsq	$4294967295, %rcx       # imm = 0xFFFFFFFF
	testq	%rcx, %rax
	jne	.LBB4_412
# BB#394:                               # %land.lhs.true2297
	movq	328(%rsp), %rax
	movq	8(%rax), %rax
	movq	8(%rax), %rax
	movq	8(%rax), %rax
	movq	$10, %rsi
	movq	%r12, %rdi
	movq	%rax, %rdx
	callq	find_reg_note
	testq	%rax, %rax
	je	.LBB4_395
.LBB4_412:                              # %land.lhs.true2420
	movq	328(%rsp), %rdi
	callq	asm_noperands
	movq	$32, %rcx
	shlq	%cl, %rax
	movq	$32, %rcx
	sarq	%cl, %rax
	testq	%rax, %rax
	movq	$1, 152(%rsp)           # 8-byte Folded Spill
	js	.LBB4_414
# BB#413:
	movq	104(%rsp), %rsi         # 8-byte Reload
	jmp	.LBB4_438
.LBB4_414:                              # %land.lhs.true2424
	movq	%r12, %r13
	movq	328(%rsp), %rax
	movzbl	(%rax), %ecx
	cmpq	$39, %rcx
	jne	.LBB4_415
# BB#416:                               # %land.lhs.true2429
	movq	8(%rax), %rax
	movl	(%rax), %ecx
	cmpq	$2, %rcx
	jne	.LBB4_415
# BB#417:                               # %land.lhs.true2436
	movq	8(%rax), %rcx
	movzbl	(%rcx), %edx
	cmpq	$47, %rdx
	jne	.LBB4_415
# BB#418:                               # %land.lhs.true2446
	movq	8(%rcx), %rcx
	movzbl	(%rcx), %ecx
	cmpq	$64, %rcx
	je	.LBB4_415
# BB#419:                               # %land.lhs.true2446
	cmpq	$133, %rcx
	je	.LBB4_415
# BB#420:                               # %land.lhs.true2472
	movq	16(%rax), %rax
	movzbl	(%rax), %ecx
	cmpq	$47, %rcx
	jne	.LBB4_415
# BB#421:                               # %land.lhs.true2482
	movq	8(%rax), %rcx
	movzbl	(%rcx), %ecx
	cmpq	$64, %rcx
	je	.LBB4_415
# BB#422:                               # %land.lhs.true2482
	cmpq	$133, %rcx
	je	.LBB4_415
# BB#423:                               # %land.lhs.true2508
	movslq	8(%r14), %rdx
	movslq	max_uid_cuid(%rip), %rcx
	movq	16(%rax), %rax
	cmpq	%rcx, %rdx
	jle	.LBB4_429
# BB#424:                               # %land.lhs.true2.i4609.lr.ph
	movq	%r14, %rdi
	leaq	8(%rdi), %rdx
	movq	%rdi, %rsi
                                        # kill: R14<def> RDI<kill>
.LBB4_425:                              # %land.lhs.true2.i4609
                                        # =>This Inner Loop Header: Depth=1
	movzbl	(%rsi), %edi
	cmpq	$32, %rdi
	jne	.LBB4_428
# BB#426:                               # %land.rhs.i4615
                                        #   in Loop: Header=BB4_425 Depth=1
	movq	32(%rsi), %rdi
	movzbl	(%rdi), %edi
	cmpq	$48, %rdi
	jne	.LBB4_428
# BB#427:                               # %while.body.i4618
                                        #   in Loop: Header=BB4_425 Depth=1
	movq	24(%rsi), %rsi
	movslq	8(%rsi), %rdi
	leaq	8(%rsi), %rdx
	cmpq	%rcx, %rdi
	jg	.LBB4_425
.LBB4_428:                              # %while.end.i4622
	movslq	(%rdx), %rdx
	cmpq	%rcx, %rdx
	jg	.LBB4_168
.LBB4_429:                              # %cond.false2524
	movq	uid_cuid(%rip), %rcx
	leaq	(%rcx,%rdx,4), %rcx
	movl	(%rcx), %ecx
	movq	%rax, %rdi
	movq	%rcx, %rsi
	callq	use_crosses_set_p
	movabsq	$4294967295, %rcx       # imm = 0xFFFFFFFF
	testq	%rcx, %rax
	jne	.LBB4_415
# BB#430:                               # %land.lhs.true2534
	movq	328(%rsp), %rax
	movq	8(%rax), %rcx
	movq	16(%rcx), %rax
	movq	8(%rax), %rax
	movzbl	(%rax), %edx
	cmpq	$48, %rdx
	je	.LBB4_415
# BB#431:                               # %land.lhs.true2547
	movq	8(%rcx), %rcx
	movq	8(%rcx), %rdx
	movzbl	(%rdx), %edx
	cmpq	$48, %rdx
	je	.LBB4_415
# BB#432:                               # %land.lhs.true2560
	movq	%rax, %rdi
	movq	%rcx, %rsi
	callq	reg_referenced_p
	movabsq	$4294967295, %rcx       # imm = 0xFFFFFFFF
	testq	%rcx, %rax
	jne	.LBB4_415
# BB#433:                               # %land.lhs.true2576
	movq	328(%rsp), %rax
	movq	8(%rax), %rax
	movq	8(%rax), %rcx
	movq	16(%rax), %rax
	movq	8(%rcx), %rcx
	movq	%rcx, %rdi
	movq	%rax, %rsi
	callq	reg_referenced_p
	movabsq	$4294967295, %rcx       # imm = 0xFFFFFFFF
	testq	%rcx, %rax
	jne	.LBB4_415
# BB#434:                               # %land.lhs.true2592
	movq	328(%rsp), %rax
	movq	8(%rax), %rax
	movq	8(%rax), %rax
	movq	16(%rax), %rax
	movq	%rax, %rdi
	callq	contains_muldiv
	movabsq	$4294967295, %rcx       # imm = 0xFFFFFFFF
	testq	%rcx, %rax
	je	.LBB4_436
# BB#435:                               # %land.lhs.true2603
	movq	328(%rsp), %rax
	movq	8(%rax), %rax
	movq	16(%rax), %rax
	movq	16(%rax), %rax
	movq	%rax, %rdi
	callq	contains_muldiv
	movabsq	$4294967295, %rcx       # imm = 0xFFFFFFFF
	testq	%rcx, %rax
	jne	.LBB4_415
.LBB4_436:                              # %if.then2614
	movq	328(%rsp), %rax
	movq	8(%rax), %rcx
	movq	16(%rcx), %rcx
	movq	%rcx, 320(%rsp)
	movq	8(%rax), %rax
	movq	8(%rax), %rax
	movq	%rax, 328(%rsp)
	leaq	320(%rsp), %rax
	leaq	264(%rsp), %rcx
	movq	%rax, %rdi
	movq	%r14, %rsi
	movq	%rcx, %rdx
	callq	recog_for_combine
	movq	%rax, 80(%rsp)          # 8-byte Spill
	movq	$32, %rcx
	shlq	%cl, %rax
	movq	$32, %rcx
	sarq	%cl, %rax
	testq	%rax, %rax
	js	.LBB4_415
# BB#437:                               # %if.then2628
	leaq	328(%rsp), %rax
	leaq	272(%rsp), %rcx
	movq	%rax, %rdi
	movq	%r13, %r12
	movq	%r12, %rsi
	movq	%rcx, %rdx
	callq	recog_for_combine
	movq	%rax, %rsi
	jmp	.LBB4_438
.LBB4_273:                              # %land.lhs.true1450
	movq	328(%rsp), %rax
	movq	%r15, %rdi
	movq	%rax, %rsi
	callq	reg_overlap_mentioned_p
	movq	$0, 80(%rsp)            # 8-byte Folded Spill
	movabsq	$4294967295, %rcx       # imm = 0xFFFFFFFF
	testq	%rcx, %rax
	jne	.LBB4_330
# BB#274:                               # %if.then1453
	movq	328(%rsp), %rbx
	movq	304(%rsp), %rsi
	movq	8(%rbx), %rax
	movl	(%rsi), %edx
	movzbl	2(%rax), %eax
	movq	$16, %rcx
	movq	%rdx, %rdi
	shrq	%cl, %rdi
	testq	%rax, %rax
	je	.LBB4_282
# BB#275:                               # %if.then1453
	andq	$255, %rdi
	cmpq	%rdi, %rax
	je	.LBB4_282
# BB#276:                               # %if.then1453
	movq	%rdx, %rcx
	andq	$65535, %rcx            # imm = 0xFFFF
	cmpq	$61, %rcx
	jne	.LBB4_282
# BB#277:                               # %land.lhs.true1479
	movl	8(%rsi), %ecx
	cmpq	$53, %rcx
	jb	.LBB4_281
# BB#278:                               # %lor.lhs.false1485
	cmpq	$0, 112(%rsp)           # 8-byte Folded Reload
	jne	.LBB4_282
# BB#279:                               # %lor.lhs.false1485
	movq	reg_n_info(%rip), %rsi
	movq	32(%rsi,%rcx,8), %rsi
	movl	12(%rsi), %esi
	movabsq	$4294967295, %rdi       # imm = 0xFFFFFFFF
	andq	%rdi, %rsi
	cmpq	$1, %rsi
	jne	.LBB4_282
# BB#280:                               # %lor.lhs.false1485
	andq	$134217728, %rdx        # imm = 0x8000000
	movabsq	$4294967295, %rsi       # imm = 0xFFFFFFFF
	testq	%rsi, %rdx
	jne	.LBB4_282
.LBB4_281:                              # %if.then1503
	movq	%rax, %rdi
	movq	%rcx, %rsi
	callq	gen_rtx_REG
	movq	328(%rsp), %rbx
	movq	%rax, %r15
.LBB4_282:                              # %if.end1514
	movq	$49, %rdi
	xorq	%rsi, %rsi
	movq	$0, 80(%rsp)            # 8-byte Folded Spill
	movq	%r15, %rdx
	callq	gen_rtx_fmt_e
	movq	%rax, %rcx
	movq	$2, %rdi
	xorq	%rax, %rax
	movq	%rbx, %rsi
	movq	%rcx, %rdx
	callq	gen_rtvec
	movq	$39, %rdi
	xorq	%rsi, %rsi
	movq	%rax, %rdx
	callq	gen_rtx_fmt_E
	movq	%rax, %rdi
	movq	%r13, %rsi
	callq	split_insns
	movq	%rax, %rbx
	testq	%rbx, %rbx
	movq	%rbx, 256(%rsp)
	je	.LBB4_284
# BB#283:
	movq	%r15, 152(%rsp)         # 8-byte Spill
	jmp	.LBB4_286
.LBB4_601:                              # %if.else3266
	movq	$3, %rdi
	movq	$1, %rsi
	xorq	%rcx, %rcx
	callq	gen_rtx_fmt_ee
	cmpq	$0, 320(%rsp)
	movq	%r14, %rcx
	jne	.LBB4_603
# BB#602:                               # %select.mid158
	xorq	%rcx, %rcx
.LBB4_603:                              # %select.end157
	xorq	%rsi, %rsi
	xorq	%r8, %r8
	xorq	%r9, %r9
	movq	%rax, %rdi
	movq	%r13, %rdx
.LBB4_604:                              # %if.end3274
	callq	distribute_notes
.LBB4_605:                              # %if.end3274
	cmpq	$0, 160(%rsp)           # 8-byte Folded Reload
	je	.LBB4_615
# BB#606:                               # %if.then3276
	movq	288(%rsp), %rdx
	movzbl	(%rdx), %eax
	cmpq	$61, %rax
	jne	.LBB4_608
# BB#607:                               # %if.then3281
	movl	8(%rdx), %eax
	movq	reg_n_info(%rip), %rcx
	movq	32(%rcx,%rax,8), %rax
	movl	24(%rax), %ecx
	incq	%rcx
	movl	%ecx, 24(%rax)
.LBB4_608:                              # %if.end3291
	movq	320(%rsp), %rax
	testq	%rax, %rax
	je	.LBB4_611
# BB#609:                               # %land.lhs.true3293
	movq	%rdx, %rdi
	movq	%rax, %rsi
	callq	reg_set_p
	movq	288(%rsp), %rdx
	movabsq	$4294967295, %rcx       # imm = 0xFFFFFFFF
	testq	%rcx, %rax
	je	.LBB4_611
# BB#610:                               # %if.then3296
	movq	$3, %rdi
	movq	$1, %rsi
	xorq	%rcx, %rcx
	callq	gen_rtx_fmt_ee
	xorq	%rsi, %rsi
	xorq	%rcx, %rcx
	xorq	%r8, %r8
	xorq	%r9, %r9
	movq	%rax, %rdi
	movq	%r14, %rdx
	jmp	.LBB4_614
.LBB4_76:                               # %if.then512
	movq	$63, %rcx
	movq	%r13, %rdx
	sarq	%cl, %rdx
	orq	$31, %rax
	movq	$2, %rsi
	movq	32(%r12), %rdi
	movq	%rax, %rcx
	shlq	%cl, %rsi
	decq	%rsi
	movq	%rax, %rcx
	shlq	%cl, %rsi
	movq	16(%rdi), %rcx
	addq	%rsi, %rsi
	notq	%rsi
	andq	%r13, %rsi
	movq	8(%rcx), %r13
	movq	%rax, %rcx
	shlq	%cl, %r13
	addq	%r13, %r13
	orq	%rsi, %r13
	movq	$63, %rcx
	movq	%r13, %rax
	sarq	%cl, %rax
	cmpq	%rdx, 200(%rsp)         # 8-byte Folded Reload
	je	.LBB4_78
# BB#77:                                # %if.then512
	movq	200(%rsp), %rax         # 8-byte Reload
.LBB4_78:                               # %if.then512
	movq	%rax, 200(%rsp)         # 8-byte Spill
.LBB4_79:                               # %if.end561
	movl	combine_merges(%rip), %eax
	incq	%rax
	movl	%eax, combine_merges(%rip)
	movq	%r12, subst_insn(%rip)
	movslq	8(%rbx), %rcx
	movslq	max_uid_cuid(%rip), %rax
	cmpq	%rax, %rcx
	jle	.LBB4_85
# BB#80:
	movq	%rbx, %rsi
	leaq	8(%rsi), %rcx
	movq	%rsi, %rdx
                                        # kill: RBX<def> RSI<kill>
.LBB4_81:                               # %land.lhs.true2.i4233
                                        # =>This Inner Loop Header: Depth=1
	movzbl	(%rdx), %esi
	cmpq	$32, %rsi
	jne	.LBB4_84
# BB#82:                                # %land.rhs.i4239
                                        #   in Loop: Header=BB4_81 Depth=1
	movq	32(%rdx), %rsi
	movzbl	(%rsi), %esi
	cmpq	$48, %rsi
	jne	.LBB4_84
# BB#83:                                # %while.body.i4242
                                        #   in Loop: Header=BB4_81 Depth=1
	movq	24(%rdx), %rdx
	movslq	8(%rdx), %rsi
	leaq	8(%rdx), %rcx
	cmpq	%rax, %rsi
	jg	.LBB4_81
.LBB4_84:                               # %while.end.i4246
	movslq	(%rcx), %rcx
	cmpq	%rax, %rcx
	jg	.LBB4_168
.LBB4_85:                               # %cond.false570
	movq	uid_cuid(%rip), %rax
	leaq	(%rax,%rcx,4), %rax
	movl	(%rax), %eax
	movl	%eax, subst_low_cuid(%rip)
	movq	8(%r14), %rax
	movq	%rax, 304(%rsp)
	movq	8(%r14), %rax
	movzbl	2(%rax), %eax
	movq	%r13, %rdi
	movq	200(%rsp), %rsi         # 8-byte Reload
	movq	%rax, %rdx
	callq	immed_double_const
	movq	%r15, %rdi
	movq	%rax, %rsi
	callq	do_SUBST
	movq	208(%rsp), %rax         # 8-byte Reload
	movq	(%rax), %rax
	movq	%rax, 328(%rsp)
	movq	$0, 184(%rsp)           # 8-byte Folded Spill
                                        # implicit-def: RAX
	movq	%rax, 208(%rsp)         # 8-byte Spill
	movq	$0, 120(%rsp)           # 8-byte Folded Spill
	movq	$0, 96(%rsp)            # 8-byte Folded Spill
.LBB4_53:                               # %validate_replacement
	movq	$0, 168(%rsp)           # 8-byte Folded Spill
	movq	$0, 160(%rsp)           # 8-byte Folded Spill
	movq	$0, 144(%rsp)           # 8-byte Folded Spill
	movq	$0, 112(%rsp)           # 8-byte Folded Spill
	movq	$0, 136(%rsp)           # 8-byte Folded Spill
	movq	$0, 88(%rsp)            # 8-byte Folded Spill
	movq	$0, 200(%rsp)           # 8-byte Folded Spill
	xorq	%r15, %r15
	movq	%rbx, %r14
	jmp	.LBB4_238
.LBB4_395:                              # %if.then2308
	movq	%r12, %r13
	movq	%r15, %r12
	movq	328(%rsp), %rax
	movq	8(%rax), %rcx
	movq	8(%rcx), %rcx
	movq	%rcx, 320(%rsp)
	movq	8(%rax), %rax
	movq	8(%rax), %rcx
	movq	16(%rax), %r15
	movq	8(%rcx), %rbx
	movq	%r15, 328(%rsp)
	movq	16(%r15), %rax
	movzbl	2(%rax), %eax
	addq	$16, %r15
	movq	%rax, %rdi
	movq	%rbx, %rsi
	callq	gen_lowpart_for_combine
	movq	%r15, %rdi
	movq	%rax, %rsi
	callq	do_SUBST
	leaq	320(%rsp), %rax
	leaq	264(%rsp), %rcx
	movq	%rax, %rdi
	movq	%r14, %rsi
	movq	%rcx, %rdx
	callq	recog_for_combine
	movq	%rax, 80(%rsp)          # 8-byte Spill
	movq	$32, %rcx
	shlq	%cl, %rax
	movq	$32, %rcx
	sarq	%cl, %rax
	testq	%rax, %rax
	js	.LBB4_397
# BB#396:                               # %if.then2341
	leaq	328(%rsp), %rax
	leaq	272(%rsp), %rcx
	movq	%rax, %rdi
	movq	%r13, %rsi
	movq	%rcx, %rdx
	callq	recog_for_combine
	movq	%rax, 104(%rsp)         # 8-byte Spill
.LBB4_397:                              # %if.end2343
	movq	$32, %rcx
	movq	104(%rsp), %rax         # 8-byte Reload
	shlq	%cl, %rax
	movq	$32, %rcx
	sarq	%cl, %rax
	movq	$1, 152(%rsp)           # 8-byte Folded Spill
	testq	%rax, %rax
	js	.LBB4_398
# BB#399:                               # %if.then2346
	movq	328(%rsp), %rax
	movq	%rax, 32(%r13)
	movq	$4, %rdi
	xorq	%rsi, %rsi
	xorq	%rcx, %rcx
	movq	%r13, %rdx
	callq	gen_rtx_fmt_ue
	movq	%rax, %rdi
	callq	distribute_links
	movq	24(%r13), %r15
	testq	%r15, %r15
	movq	$1, 152(%rsp)           # 8-byte Folded Spill
	je	.LBB4_400
.LBB4_401:                              # %land.rhs2357
                                        # =>This Inner Loop Header: Depth=1
	movl	n_basic_blocks(%rip), %ecx
	movl	this_basic_block(%rip), %eax
	decq	%rcx
	movabsq	$4294967295, %rdx       # imm = 0xFFFFFFFF
	andq	%rdx, %rcx
	cmpq	%rcx, %rax
	je	.LBB4_403
# BB#402:                               # %lor.rhs2361
                                        #   in Loop: Header=BB4_401 Depth=1
	incq	%rax
	movq	$32, %rcx
	movq	basic_block_info(%rip), %rdx
	shlq	%cl, %rax
	movq	$32, %rcx
	sarq	%cl, %rax
	movq	32(%rdx,%rax,8), %rax
	movq	(%rax), %rax
	cmpq	%rax, %r15
	je	.LBB4_400
.LBB4_403:                              # %for.body2372
                                        #   in Loop: Header=BB4_401 Depth=1
	movzbl	(%r15), %eax
	movzbl	rtx_class(%rax), %eax
	cmpq	$105, %rax
	jne	.LBB4_405
# BB#404:                               # %land.lhs.true2380
                                        #   in Loop: Header=BB4_401 Depth=1
	movq	32(%r15), %rax
	movq	%rbx, %rdi
	movq	%rax, %rsi
	callq	reg_referenced_p
	movabsq	$4294967295, %rcx       # imm = 0xFFFFFFFF
	testq	%rcx, %rax
	jne	.LBB4_406
.LBB4_405:                              # %for.cond2355.backedge
                                        #   in Loop: Header=BB4_401 Depth=1
	movq	24(%r15), %r15
	testq	%r15, %r15
	jne	.LBB4_401
	jmp	.LBB4_400
.LBB4_284:                              # %land.lhs.true1520
	movq	304(%rsp), %rax
	movq	%rax, 152(%rsp)         # 8-byte Spill
	cmpq	%rax, %r15
	je	.LBB4_330
# BB#285:                               # %if.end1529
	movq	328(%rsp), %rbx
	movq	$49, %rdi
	xorq	%rsi, %rsi
	movq	$0, 80(%rsp)            # 8-byte Folded Spill
	movq	152(%rsp), %rdx         # 8-byte Reload
	callq	gen_rtx_fmt_e
	movq	%rax, %rcx
	movq	$2, %rdi
	xorq	%rax, %rax
	movq	%rbx, %rsi
	movq	%rcx, %rdx
	callq	gen_rtvec
	movq	$39, %rdi
	xorq	%rsi, %rsi
	movq	%rax, %rdx
	callq	gen_rtx_fmt_E
	movq	%rax, %rdi
	movq	%r13, %rsi
	callq	split_insns
	movq	%rax, %rbx
	testq	%rbx, %rbx
	movq	%rbx, 256(%rsp)
	je	.LBB4_330
.LBB4_286:                              # %land.lhs.true1531
	movzbl	(%rbx), %eax
	cmpq	$24, %rax
	jne	.LBB4_290
# BB#287:                               # %land.lhs.true1536
	movq	8(%rbx), %rax
	movl	(%rax), %ecx
	cmpq	$1, %rcx
	jne	.LBB4_289
# BB#288:                               # %if.then1543
	movq	8(%rax), %rax
	movq	32(%rax), %rbx
	movq	%rbx, 256(%rsp)
.LBB4_289:                              # %if.end1552
	movq	$0, 80(%rsp)            # 8-byte Folded Spill
	testq	%rbx, %rbx
	je	.LBB4_330
.LBB4_290:                              # %land.lhs.true1554
	movzbl	(%rbx), %eax
	cmpq	$24, %rax
	jne	.LBB4_291
# BB#293:                               # %land.lhs.true1567
	movzbl	(%rbx), %eax
	movq	$0, 80(%rsp)            # 8-byte Folded Spill
	cmpq	$24, %rax
	jne	.LBB4_330
# BB#294:                               # %land.lhs.true1572
	movq	8(%rbx), %rax
	movl	(%rax), %eax
	cmpq	$2, %rax
	jne	.LBB4_330
# BB#295:                               # %land.lhs.true1579
	movq	%r14, %rdi
	callq	next_real_insn
	cmpq	%r13, %rax
	je	.LBB4_303
# BB#296:                               # %lor.lhs.false1583
	movq	8(%rbx), %rax
	movq	8(%rax), %rax
	movslq	8(%r14), %rdx
	movslq	max_uid_cuid(%rip), %rcx
	movq	32(%rax), %rax
	cmpq	%rcx, %rdx
	jle	.LBB4_302
# BB#297:                               # %land.lhs.true2.i4528.lr.ph
	movq	%r14, %rdi
	leaq	8(%rdi), %rdx
	movq	%rdi, %rsi
                                        # kill: R14<def> RDI<kill>
.LBB4_298:                              # %land.lhs.true2.i4528
                                        # =>This Inner Loop Header: Depth=1
	movzbl	(%rsi), %edi
	cmpq	$32, %rdi
	jne	.LBB4_301
# BB#299:                               # %land.rhs.i4534
                                        #   in Loop: Header=BB4_298 Depth=1
	movq	32(%rsi), %rdi
	movzbl	(%rdi), %edi
	cmpq	$48, %rdi
	jne	.LBB4_301
# BB#300:                               # %while.body.i4537
                                        #   in Loop: Header=BB4_298 Depth=1
	movq	24(%rsi), %rsi
	movslq	8(%rsi), %rdi
	leaq	8(%rsi), %rdx
	cmpq	%rcx, %rdi
	jg	.LBB4_298
.LBB4_301:                              # %while.end.i4541
	movslq	(%rdx), %rdx
	cmpq	%rcx, %rdx
	jg	.LBB4_168
.LBB4_302:                              # %cond.false1599
	movq	uid_cuid(%rip), %rcx
	leaq	(%rcx,%rdx,4), %rcx
	movl	(%rcx), %ecx
	movq	%rax, %rdi
	movq	%rcx, %rsi
	callq	use_crosses_set_p
	movabsq	$4294967295, %rcx       # imm = 0xFFFFFFFF
	testq	%rcx, %rax
	jne	.LBB4_330
.LBB4_303:                              # %if.then1609
	movq	8(%rbx), %rax
	movq	16(%rax), %rax
	movq	32(%rax), %rax
	movq	%rax, 248(%rsp)
	movq	8(%rbx), %rax
	movq	8(%rax), %rax
	movq	32(%rax), %rax
	movq	%rax, 320(%rsp)
	movq	8(%rbx), %rcx
	movq	16(%rcx), %rax
	movzbl	(%rax), %edx
	movzbl	rtx_class(%rdx), %edx
	movq	$0, 128(%rsp)           # 8-byte Folded Spill
	cmpq	$105, %rdx
	jne	.LBB4_304
# BB#305:                               # %cond.true1638
	movq	32(%rax), %r15
	movzbl	(%r15), %edx
	cmpq	$47, %rdx
	je	.LBB4_307
# BB#306:                               # %cond.false1660
	movq	%rax, %rdi
	movq	%r15, %rsi
	callq	single_set_2
	movq	8(%rbx), %rcx
	movq	%rax, %r15
	jmp	.LBB4_307
.LBB4_611:                              # %if.else3298
	movq	$3, %rdi
	movq	$1, %rsi
	xorq	%rcx, %rcx
	callq	gen_rtx_fmt_ee
	cmpq	$0, 320(%rsp)
	movq	%r14, %rcx
	jne	.LBB4_613
# BB#612:                               # %select.mid160
	xorq	%rcx, %rcx
.LBB4_613:                              # %select.end159
	xorq	%rsi, %rsi
	xorq	%r8, %r8
	xorq	%r9, %r9
	movq	%rax, %rdi
	movq	%r13, %rdx
.LBB4_614:                              # %if.end3306
	callq	distribute_notes
.LBB4_615:                              # %if.end3306
	movq	40(%rsp), %rdi          # 8-byte Reload
	callq	distribute_links
	movq	48(%rsp), %rdi          # 8-byte Reload
	callq	distribute_links
	movq	32(%rsp), %rdi          # 8-byte Reload
	callq	distribute_links
	movq	304(%rsp), %rax
	movzbl	(%rax), %ecx
	cmpq	$61, %rcx
	jne	.LBB4_630
# BB#616:                               # %for.cond3316.preheader
	movq	200(%rsp), %rcx         # 8-byte Reload
	movq	(%rcx), %r12
	xorq	%rbx, %rbx
	xorq	%r15, %r15
	testq	%r12, %r12
	je	.LBB4_625
.LBB4_617:                              # %for.body3318
                                        # =>This Inner Loop Header: Depth=1
	movq	8(%r12), %rax
	movzbl	(%rax), %ecx
	movzbl	rtx_class(%rcx), %ecx
	cmpq	$105, %rcx
	jne	.LBB4_623
# BB#618:                               # %cond.true3329
                                        #   in Loop: Header=BB4_617 Depth=1
	movq	32(%rax), %rcx
	movq	%rcx, 176(%rsp)         # 8-byte Spill
	movzbl	(%rcx), %ecx
	cmpq	$47, %rcx
	je	.LBB4_620
# BB#619:                               # %cond.false3347
                                        #   in Loop: Header=BB4_617 Depth=1
	movq	%rax, %rdi
	movq	176(%rsp), %rsi         # 8-byte Reload
	callq	single_set_2
	movq	%rax, 176(%rsp)         # 8-byte Spill
.LBB4_620:                              # %cond.end3361
                                        #   in Loop: Header=BB4_617 Depth=1
	cmpq	$0, 176(%rsp)           # 8-byte Folded Reload
	je	.LBB4_623
# BB#621:                               # %land.lhs.true3365
                                        #   in Loop: Header=BB4_617 Depth=1
	movq	304(%rsp), %rax
	movq	176(%rsp), %rcx         # 8-byte Reload
	movq	8(%rcx), %rcx
	movq	%rax, %rdi
	movq	%rcx, %rsi
	callq	rtx_equal_p
	movabsq	$4294967295, %rcx       # imm = 0xFFFFFFFF
	testq	%rcx, %rax
	je	.LBB4_623
# BB#622:                               # %if.then3371
                                        #   in Loop: Header=BB4_617 Depth=1
	movq	8(%r12), %r15
	movq	176(%rsp), %rax         # 8-byte Reload
	movq	16(%rax), %rbx
.LBB4_623:                              # %for.inc3379
                                        #   in Loop: Header=BB4_617 Depth=1
	movq	16(%r12), %r12
	testq	%r12, %r12
	jne	.LBB4_617
# BB#624:                               # %for.cond3316.for.end3383_crit_edge
	movq	304(%rsp), %rax
.LBB4_625:                              # %for.end3383
	movq	%rax, %rdi
	movq	%r15, %rsi
	movq	%rbx, %rdx
	callq	record_value_for_reg
	cmpq	$0, 112(%rsp)           # 8-byte Folded Reload
	jne	.LBB4_630
# BB#626:                               # %land.lhs.true3385
	movq	320(%rsp), %rax
	testq	%rax, %rax
	je	.LBB4_628
# BB#627:                               # %lor.lhs.false3388
	movq	304(%rsp), %rcx
	movq	%rcx, %rdi
	movq	%rax, %rsi
	callq	reg_mentioned_p
	movq	144(%rsp), %rcx         # 8-byte Reload
	orq	%rcx, %rax
	movabsq	$4294967295, %rcx       # imm = 0xFFFFFFFF
	testq	%rcx, %rax
	jne	.LBB4_630
	jmp	.LBB4_629
.LBB4_398:
	movq	%r12, %r15
	movq	%r13, %r12
	jmp	.LBB4_439
.LBB4_406:                              # %if.then2386
	movq	48(%r15), %rax
	jmp	.LBB4_407
.LBB4_291:                              # %if.then1559
	leaq	256(%rsp), %rax
	leaq	272(%rsp), %rcx
	movq	%rax, %rdi
	movq	%r13, %rsi
	movq	%rcx, %rdx
	callq	recog_for_combine
	movq	%rax, 104(%rsp)         # 8-byte Spill
	movq	$32, %rcx
	shlq	%cl, %rax
	movq	$32, %rcx
	sarq	%cl, %rax
	movq	$0, 80(%rsp)            # 8-byte Folded Spill
	testq	%rax, %rax
	js	.LBB4_292
# BB#447:                               # %if.end1853.thread4817
	movq	256(%rsp), %rax
	movq	%rax, 328(%rsp)
	movq	$1, 152(%rsp)           # 8-byte Folded Spill
	movq	$0, 80(%rsp)            # 8-byte Folded Spill
	movq	%r12, %r15
	movq	%r13, %r12
	jmp	.LBB4_448
.LBB4_304:
	xorq	%r15, %r15
.LBB4_307:                              # %cond.end1678
	movq	8(%rcx), %rax
	movzbl	(%rax), %ecx
	movzbl	rtx_class(%rcx), %ecx
	cmpq	$105, %rcx
	jne	.LBB4_310
# BB#308:                               # %cond.true1692
	movq	32(%rax), %rcx
	movq	%rcx, 128(%rsp)         # 8-byte Spill
	movzbl	(%rcx), %ecx
	cmpq	$47, %rcx
	je	.LBB4_310
# BB#309:                               # %cond.false1714
	movq	%rax, %rdi
	movq	128(%rsp), %rsi         # 8-byte Reload
	callq	single_set_2
	movq	%rax, 128(%rsp)         # 8-byte Spill
.LBB4_310:                              # %cond.end1732
	movq	304(%rsp), %rax
	movl	8(%rax), %eax
	cmpq	$53, %rax
	jb	.LBB4_312
# BB#311:                               # %if.then1739
	movq	cfun(%rip), %rcx
	movq	24(%rcx), %rcx
	movq	80(%rcx), %rcx
	leaq	(%rcx,%rax,8), %rax
	movq	%rax, %rdi
	movq	152(%rsp), %rsi         # 8-byte Reload
	callq	do_SUBST
.LBB4_312:                              # %if.end1747
	leaq	320(%rsp), %rax
	leaq	264(%rsp), %rcx
	movq	%rax, %rdi
	movq	%r14, %rsi
	movq	%rcx, %rdx
	callq	recog_for_combine
	movq	%rax, 80(%rsp)          # 8-byte Spill
	movq	$32, %rcx
	shlq	%cl, %rax
	movq	$32, %rcx
	sarq	%cl, %rax
	testq	%rax, %rax
	js	.LBB4_318
# BB#313:                               # %if.end1747
	cmpq	$0, 128(%rsp)           # 8-byte Folded Reload
	je	.LBB4_318
# BB#314:                               # %if.end1747
	testq	%r15, %r15
	je	.LBB4_318
# BB#315:                               # %land.lhs.true1755
	movq	%r14, %rdi
	callq	next_real_insn
	cmpq	%r13, %rax
	je	.LBB4_317
# BB#316:                               # %lor.lhs.false1759
	movq	128(%rsp), %rax         # 8-byte Reload
	movq	8(%rax), %rax
	movq	%rax, %rdi
	movq	%r14, %rsi
	movq	%r13, %rdx
	callq	reg_used_between_p
	movabsq	$4294967295, %rcx       # imm = 0xFFFFFFFF
	testq	%rcx, %rax
	jne	.LBB4_318
.LBB4_317:                              # %if.then1765
	leaq	248(%rsp), %rax
	leaq	272(%rsp), %rcx
	movq	%rax, %rdi
	movq	%r13, %rsi
	movq	%rcx, %rdx
	callq	recog_for_combine
	movq	%rax, 104(%rsp)         # 8-byte Spill
.LBB4_318:                              # %if.end1767
	movq	$32, %rcx
	movq	104(%rsp), %rax         # 8-byte Reload
	shlq	%cl, %rax
	movq	$32, %rcx
	sarq	%cl, %rax
	testq	%rax, %rax
	js	.LBB4_292
# BB#319:                               # %if.then1770
	movq	248(%rsp), %rax
	movq	%rax, 328(%rsp)
	movq	128(%rsp), %rax         # 8-byte Reload
	movq	8(%rax), %rax
	movabsq	$4294967295, %rsi       # imm = 0xFFFFFFFF
.LBB4_320:                              # %while.cond
                                        # =>This Inner Loop Header: Depth=1
	movq	8(%r15), %r15
	movzbl	(%r15), %ecx
	leaq	-63(%rcx), %rdx
	andq	%rsi, %rdx
	cmpq	$2, %rdx
	jb	.LBB4_320
# BB#321:                               # %while.cond
                                        #   in Loop: Header=BB4_320 Depth=1
	cmpq	$133, %rcx
	je	.LBB4_320
# BB#322:
	movabsq	$4294967295, %rdi       # imm = 0xFFFFFFFF
	jmp	.LBB4_323
.LBB4_628:                              # %land.lhs.true3391
	movabsq	$4294967295, %rax       # imm = 0xFFFFFFFF
	movq	144(%rsp), %rcx         # 8-byte Reload
	testq	%rax, %rcx
	jne	.LBB4_630
.LBB4_629:                              # %if.then3393
	movq	304(%rsp), %rax
	movl	8(%rax), %eax
	movq	reg_n_info(%rip), %rcx
	movq	32(%rcx,%rax,8), %rax
	movl	12(%rax), %ecx
	decq	%rcx
	movl	%ecx, 12(%rax)
.LBB4_630:                              # %if.end3404
	cmpq	$0, 152(%rsp)           # 8-byte Folded Reload
	je	.LBB4_643
# BB#631:                               # %land.lhs.true3406
	movq	288(%rsp), %rax
	movzbl	(%rax), %ecx
	cmpq	$61, %rcx
	jne	.LBB4_643
# BB#632:                               # %for.cond3417.preheader
	movq	200(%rsp), %rcx         # 8-byte Reload
	movq	(%rcx), %r12
	xorq	%rbx, %rbx
	xorq	%r15, %r15
	testq	%r12, %r12
	je	.LBB4_641
.LBB4_633:                              # %for.body3419
                                        # =>This Inner Loop Header: Depth=1
	movq	8(%r12), %rax
	movzbl	(%rax), %ecx
	movzbl	rtx_class(%rcx), %ecx
	cmpq	$105, %rcx
	jne	.LBB4_639
# BB#634:                               # %cond.true3430
                                        #   in Loop: Header=BB4_633 Depth=1
	movq	32(%rax), %rcx
	movq	%rcx, 200(%rsp)         # 8-byte Spill
	movzbl	(%rcx), %ecx
	cmpq	$47, %rcx
	je	.LBB4_636
# BB#635:                               # %cond.false3448
                                        #   in Loop: Header=BB4_633 Depth=1
	movq	%rax, %rdi
	movq	200(%rsp), %rsi         # 8-byte Reload
	callq	single_set_2
	movq	%rax, 200(%rsp)         # 8-byte Spill
.LBB4_636:                              # %cond.end3462
                                        #   in Loop: Header=BB4_633 Depth=1
	cmpq	$0, 200(%rsp)           # 8-byte Folded Reload
	je	.LBB4_639
# BB#637:                               # %land.lhs.true3466
                                        #   in Loop: Header=BB4_633 Depth=1
	movq	288(%rsp), %rax
	movq	200(%rsp), %rcx         # 8-byte Reload
	movq	8(%rcx), %rcx
	movq	%rax, %rdi
	movq	%rcx, %rsi
	callq	rtx_equal_p
	movabsq	$4294967295, %rcx       # imm = 0xFFFFFFFF
	testq	%rcx, %rax
	je	.LBB4_639
# BB#638:                               # %if.then3472
                                        #   in Loop: Header=BB4_633 Depth=1
	movq	8(%r12), %r15
	movq	200(%rsp), %rax         # 8-byte Reload
	movq	16(%rax), %rbx
.LBB4_639:                              # %for.inc3480
                                        #   in Loop: Header=BB4_633 Depth=1
	movq	16(%r12), %r12
	testq	%r12, %r12
	jne	.LBB4_633
# BB#640:                               # %for.cond3417.for.end3484_crit_edge
	movq	288(%rsp), %rax
.LBB4_641:                              # %for.end3484
	movq	%rax, %rdi
	movq	%r15, %rsi
	movq	%rbx, %rdx
	callq	record_value_for_reg
	movq	160(%rsp), %rax         # 8-byte Reload
	orq	%rax, 136(%rsp)         # 8-byte Folded Spill
	jne	.LBB4_643
# BB#642:                               # %if.then3491
	movq	288(%rsp), %rax
	movl	8(%rax), %eax
	movq	reg_n_info(%rip), %rcx
	movq	32(%rcx,%rax,8), %rax
	movl	12(%rax), %ecx
	decq	%rcx
	movl	%ecx, 12(%rax)
.LBB4_643:                              # %if.end3499
	movq	320(%rsp), %rax
	testq	%rax, %rax
	je	.LBB4_645
# BB#644:                               # %if.then3501
	movabsq	$set_nonzero_bits_and_sign_copies, %rcx
	xorq	%rdx, %rdx
	movq	%rax, %rdi
	movq	%rcx, %rsi
	callq	note_stores
.LBB4_645:                              # %if.end3502
	movq	328(%rsp), %rax
	movabsq	$set_nonzero_bits_and_sign_copies, %rcx
	xorq	%rdx, %rdx
	movq	%rax, %rdi
	movq	%rcx, %rsi
	callq	note_stores
	movq	328(%rsp), %rax
	movzbl	(%rax), %eax
	cmpq	$51, %rax
	je	.LBB4_647
# BB#646:                               # %lor.lhs.false3507
	movq	%r13, %rdi
	callq	any_uncondjump_p
	movabsq	$4294967295, %rcx       # imm = 0xFFFFFFFF
	testq	%rcx, %rax
	je	.LBB4_650
.LBB4_647:                              # %if.then3510
	movq	$1, %rax
	movq	216(%rsp), %rcx         # 8-byte Reload
	movl	%eax, (%rcx)
	movq	%r13, %rdi
	callq	next_nonnote_insn
	testq	%rax, %rax
	je	.LBB4_649
# BB#648:                               # %lor.lhs.false3514
	movzbl	(%rax), %eax
	cmpq	$35, %rax
	je	.LBB4_650
.LBB4_649:                              # %if.then3519
	movq	%r13, %rdi
	callq	emit_barrier_after
.LBB4_650:                              # %if.end3522
	movq	328(%rsp), %rax
	movzbl	(%rax), %ecx
	cmpq	$47, %rcx
	jne	.LBB4_654
# BB#651:                               # %land.lhs.true3527
	movq	16(%rax), %rcx
	movq	global_rtl(%rip), %rdx
	cmpq	%rdx, %rcx
	jne	.LBB4_654
# BB#652:                               # %land.lhs.true3533
	movq	8(%rax), %rax
	cmpq	%rcx, %rax
	jne	.LBB4_654
# BB#653:                               # %if.then3539
	movq	$1, %rax
	movq	216(%rsp), %rcx         # 8-byte Reload
	movl	%eax, (%rcx)
.LBB4_654:                              # %if.end3540
	movl	combine_successes(%rip), %ecx
	movq	undobuf(%rip), %rax
	incq	%rcx
	movl	%ecx, combine_successes(%rip)
	testq	%rax, %rax
	je	.LBB4_658
# BB#655:                               # %for.body.lr.ph.i
	movq	undobuf+8(%rip), %rcx
.LBB4_656:                              # %for.body.i4646
                                        # =>This Inner Loop Header: Depth=1
	movq	%rax, %rdx
	movq	(%rdx), %rax
	testq	%rax, %rax
	movq	%rcx, (%rdx)
	movq	%rdx, %rcx
	jne	.LBB4_656
# BB#657:                               # %for.cond.for.end_crit_edge.i
	movq	%rdx, undobuf+8(%rip)
.LBB4_658:                              # %undo_commit.exit
	movq	added_links_insn(%rip), %r12
	movq	320(%rsp), %rax
	movq	$0, undobuf(%rip)
	testq	%r12, %r12
	movq	%r14, %rcx
	movq	%r13, %rdi
	je	.LBB4_688
# BB#659:                               # %land.lhs.true3543
	movslq	8(%r12), %rsi
	movl	max_uid_cuid(%rip), %edx
	testq	%rax, %rax
	je	.LBB4_675
# BB#660:                               # %lor.lhs.false3546
	movq	%rdi, %r14
	movq	%rcx, %r11
	movq	$32, %rcx
	movq	%rdx, %rdi
	shlq	%cl, %rdi
	movq	$32, %rcx
	sarq	%cl, %rdi
	cmpq	%rdi, %rsi
	jle	.LBB4_667
# BB#661:                               # %land.lhs.true2.i4501.lr.ph
	leaq	8(%r12), %rdi
	movq	%r12, %rbx
.LBB4_662:                              # %land.lhs.true2.i4501
                                        # =>This Inner Loop Header: Depth=1
	movzbl	(%rbx), %ecx
	cmpq	$32, %rcx
	jne	.LBB4_665
# BB#663:                               # %land.rhs.i4507
                                        #   in Loop: Header=BB4_662 Depth=1
	movq	32(%rbx), %rcx
	movzbl	(%rcx), %ecx
	cmpq	$48, %rcx
	jne	.LBB4_665
# BB#664:                               # %while.body.i4510
                                        #   in Loop: Header=BB4_662 Depth=1
	movq	24(%rbx), %rbx
	leaq	8(%rbx), %rdi
	movslq	8(%rbx), %r8
	movq	$32, %rcx
	movq	%rdx, %r9
	shlq	%cl, %r9
	movq	$32, %rcx
	sarq	%cl, %r9
	cmpq	%r9, %r8
	jg	.LBB4_662
.LBB4_665:                              # %while.end.i4514
	movslq	(%rdi), %rbx
	movq	$32, %rcx
	movq	%rdx, %rdi
	shlq	%cl, %rdi
	movq	$32, %rcx
	sarq	%cl, %rdi
	cmpq	%rdi, %rbx
	jg	.LBB4_168
# BB#666:                               # %insn_cuid.exit4518
	movq	uid_cuid(%rip), %rdi
	leaq	(%rdi,%rbx,4), %rcx
	jmp	.LBB4_668
.LBB4_410:                              # %for.inc2403
                                        #   in Loop: Header=BB4_407 Depth=1
	movq	16(%rax), %rax
.LBB4_407:                              # %if.then2386
                                        # =>This Inner Loop Header: Depth=1
	testq	%rax, %rax
	je	.LBB4_400
# BB#408:                               # %for.body2392
                                        #   in Loop: Header=BB4_407 Depth=1
	movq	8(%rax), %rcx
	cmpq	%r13, %rcx
	jne	.LBB4_410
# BB#409:                               # %if.then2398
                                        #   in Loop: Header=BB4_407 Depth=1
	movq	%r12, 8(%rax)
	jmp	.LBB4_410
.LBB4_292:
	movq	%r12, %r15
	movq	%r13, %r12
	jmp	.LBB4_331
.LBB4_325:                              # %while.body1817
                                        #   in Loop: Header=BB4_323 Depth=1
	movq	8(%rax), %rax
.LBB4_323:                              # %while.cond1800
                                        # =>This Inner Loop Header: Depth=1
	movzbl	(%rax), %edx
	leaq	-63(%rdx), %rsi
	andq	%rdi, %rsi
	cmpq	$2, %rsi
	jb	.LBB4_325
# BB#324:                               # %while.cond1800
                                        #   in Loop: Header=BB4_323 Depth=1
	cmpq	$133, %rdx
	je	.LBB4_325
# BB#326:                               # %while.end1821
	cmpq	$61, %rcx
	jne	.LBB4_330
# BB#327:                               # %while.end1821
	cmpq	$61, %rdx
	jne	.LBB4_330
# BB#328:                               # %land.lhs.true1831
	movl	8(%r15), %ecx
	movl	8(%rax), %eax
	cmpq	%rax, %rcx
	jne	.LBB4_330
# BB#329:                               # %if.then1840
	movq	reg_n_info(%rip), %rax
	movq	32(%rax,%rcx,8), %rax
	movl	12(%rax), %ecx
	incq	%rcx
	movl	%ecx, 12(%rax)
.LBB4_330:                              # %if.end1853
	movq	$32, %rcx
	movq	104(%rsp), %rax         # 8-byte Reload
	shlq	%cl, %rax
	movq	$32, %rcx
	sarq	%cl, %rax
	movq	$1, 152(%rsp)           # 8-byte Folded Spill
	testq	%rax, %rax
	movq	%r12, %r15
	movq	%r13, %r12
	jns	.LBB4_448
.LBB4_331:                              # %land.lhs.true1856
	movq	%r15, 176(%rsp)         # 8-byte Spill
	leaq	328(%rsp), %rax
	movq	%rax, %rdi
	movq	%r12, %rsi
	movq	%r12, %r13
	callq	find_split_point
	movq	%rax, %rbx
	testq	%rbx, %rbx
	movq	$1, 152(%rsp)           # 8-byte Folded Spill
	je	.LBB4_332
# BB#333:                               # %land.lhs.true1860
	movq	304(%rsp), %rdx
	movq	(%rbx), %rcx
	movl	(%rdx), %eax
	movzbl	2(%rcx), %esi
	movq	$16, %rcx
	movq	%rax, %rdi
	shrq	%cl, %rdi
	andq	$255, %rdi
	cmpq	%rdi, %rsi
	je	.LBB4_339
# BB#334:                               # %land.lhs.true1860
	testq	%rsi, %rsi
	je	.LBB4_339
# BB#335:                               # %lor.lhs.false1875
	movl	8(%rdx), %ecx
	cmpq	$53, %rcx
	jb	.LBB4_339
# BB#336:                               # %lor.lhs.false1881
	cmpq	$0, 112(%rsp)           # 8-byte Folded Reload
	jne	.LBB4_332
# BB#337:                               # %lor.lhs.false1881
	movq	reg_n_info(%rip), %rdx
	movq	32(%rdx,%rcx,8), %rcx
	movl	12(%rcx), %ecx
	movabsq	$4294967295, %rdx       # imm = 0xFFFFFFFF
	andq	%rdx, %rcx
	cmpq	$1, %rcx
	jne	.LBB4_332
# BB#338:                               # %lor.lhs.false1881
	andq	$134217728, %rax        # imm = 0x8000000
	movabsq	$4294967295, %rcx       # imm = 0xFFFFFFFF
	testq	%rcx, %rax
	jne	.LBB4_332
.LBB4_339:                              # %land.lhs.true1899
	movq	%r14, %rdi
	callq	next_real_insn
	cmpq	%r13, %rax
	je	.LBB4_347
# BB#340:                               # %lor.lhs.false1903
	movslq	8(%r14), %rdx
	movslq	max_uid_cuid(%rip), %rcx
	movq	(%rbx), %rax
	cmpq	%rcx, %rdx
	jle	.LBB4_346
# BB#341:                               # %land.lhs.true2.i4555.lr.ph
	movq	%r14, %rdi
	leaq	8(%rdi), %rdx
	movq	%rdi, %rsi
                                        # kill: R14<def> RDI<kill>
.LBB4_342:                              # %land.lhs.true2.i4555
                                        # =>This Inner Loop Header: Depth=1
	movzbl	(%rsi), %edi
	cmpq	$32, %rdi
	jne	.LBB4_345
# BB#343:                               # %land.rhs.i4561
                                        #   in Loop: Header=BB4_342 Depth=1
	movq	32(%rsi), %rdi
	movzbl	(%rdi), %edi
	cmpq	$48, %rdi
	jne	.LBB4_345
# BB#344:                               # %while.body.i4564
                                        #   in Loop: Header=BB4_342 Depth=1
	movq	24(%rsi), %rsi
	movslq	8(%rsi), %rdi
	leaq	8(%rsi), %rdx
	cmpq	%rcx, %rdi
	jg	.LBB4_342
.LBB4_345:                              # %while.end.i4568
	movslq	(%rdx), %rdx
	cmpq	%rcx, %rdx
	jg	.LBB4_168
.LBB4_346:                              # %cond.false1911
	movq	uid_cuid(%rip), %rcx
	leaq	(%rcx,%rdx,4), %rcx
	movl	(%rcx), %ecx
	movq	%rax, %rdi
	movq	%rcx, %rsi
	callq	use_crosses_set_p
	movabsq	$4294967295, %rcx       # imm = 0xFFFFFFFF
	testq	%rcx, %rax
	jne	.LBB4_332
.LBB4_347:                              # %land.lhs.true1921
	movq	304(%rsp), %rax
	movq	328(%rsp), %rcx
	movq	%rax, %rdi
	movq	%rcx, %rsi
	callq	reg_referenced_p
	movabsq	$4294967295, %rcx       # imm = 0xFFFFFFFF
	testq	%rcx, %rax
	jne	.LBB4_332
# BB#348:                               # %if.then1924
	movq	(%rbx), %rax
	movq	304(%rsp), %r15
	movl	(%rax), %r12d
	movzbl	2(%r15), %eax
	movq	$16, %rcx
	movq	%r12, %rdx
	shrq	%cl, %rdx
	andq	$255, %rdx
	movq	%rdx, 128(%rsp)         # 8-byte Spill
	cmpq	%rdx, %rax
	je	.LBB4_352
# BB#349:                               # %if.then1924
	cmpq	$0, 128(%rsp)           # 8-byte Folded Reload
	je	.LBB4_352
# BB#350:                               # %if.then1938
	movl	8(%r15), %eax
	movq	128(%rsp), %rdi         # 8-byte Reload
	movq	%rax, %rsi
	callq	gen_rtx_REG
	movq	304(%rsp), %rcx
	movl	8(%rcx), %ecx
	movq	%rax, %r15
	cmpq	$53, %rcx
	jb	.LBB4_352
# BB#351:                               # %if.then1948
	movq	cfun(%rip), %rax
	movq	24(%rax), %rax
	movq	80(%rax), %rax
	leaq	(%rax,%rcx,8), %rax
	movq	%rax, %rdi
	movq	%r15, %rsi
	callq	do_SUBST
.LBB4_352:                              # %if.end1957
	andq	$65535, %r12            # imm = 0xFFFF
	cmpq	$78, %r12
	jne	.LBB4_357
# BB#353:                               # %land.lhs.true1960
	movq	(%rbx), %rax
	movq	16(%rax), %rax
	movzbl	(%rax), %ecx
	cmpq	$54, %rcx
	movq	$78, %r12
	jne	.LBB4_360
# BB#354:                               # %land.lhs.true1968
	movq	8(%rax), %rax
	testq	%rax, %rax
	jle	.LBB4_360
# BB#355:                               # %land.lhs.true1977
	movq	%rax, %rdi
	callq	exact_log2_wide
	movq	$32, %rcx
	movq	%rax, %rdx
	shlq	%cl, %rdx
	movq	$32, %rcx
	sarq	%cl, %rdx
	testq	%rdx, %rdx
	js	.LBB4_360
# BB#356:                               # %if.then1987
	movq	(%rbx), %rcx
	movq	8(%rcx), %r12
	movq	$32, %rcx
	shlq	%cl, %rax
	movq	$32, %rcx
	sarq	%cl, %rax
	xorq	%rdi, %rdi
	movq	%rax, %rsi
	callq	gen_rtx_CONST_INT
	movq	$87, %rdi
	movq	128(%rsp), %rsi         # 8-byte Reload
	movq	%r12, %rdx
	movq	%rax, %rcx
	callq	gen_rtx_fmt_ee
	movq	%rbx, %rdi
	movq	%rax, %rsi
	callq	do_SUBST
	movq	(%rbx), %rax
	movzbl	(%rax), %r12d
.LBB4_357:                              # %if.end1996
	cmpq	$63, %r12
	jne	.LBB4_360
# BB#358:                               # %land.lhs.true1999
	movq	(%rbx), %rax
	movq	8(%rax), %rax
	movzbl	(%rax), %ecx
	cmpq	$66, %rcx
	movq	$63, %r12
	jne	.LBB4_360
# BB#359:                               # %if.then2007
	movq	$121, %rdi
	movq	128(%rsp), %rsi         # 8-byte Reload
	movq	%rax, %rdx
	callq	gen_rtx_fmt_e
	movq	%rbx, %rdi
	movq	%rax, %rsi
	callq	do_SUBST
.LBB4_360:                              # %if.end2012
	movq	(%rbx), %rax
	movq	$47, %rdi
	xorq	%rsi, %rsi
	movq	%r15, %rdx
	movq	%rax, %rcx
	callq	gen_rtx_fmt_ee
	movq	%rax, 320(%rsp)
	movq	%rbx, %rdi
	movq	%r15, %rsi
	callq	do_SUBST
	leaq	320(%rsp), %rax
	leaq	264(%rsp), %rcx
	movq	%rax, %rdi
	movq	%r14, %rsi
	movq	%rcx, %rdx
	callq	recog_for_combine
	movq	%rax, 80(%rsp)          # 8-byte Spill
	movq	$32, %rcx
	shlq	%cl, %rax
	movq	$32, %rcx
	sarq	%cl, %rax
	testq	%rax, %rax
	js	.LBB4_332
# BB#361:                               # %land.lhs.true2017
	cmpq	$78, %r12
	jne	.LBB4_363
# BB#362:                               # %land.lhs.true2017
	cmpq	$0, 120(%rsp)           # 8-byte Folded Reload
	jne	.LBB4_363
.LBB4_332:
	movq	176(%rsp), %r15         # 8-byte Reload
	jmp	.LBB4_415
.LBB4_667:                              # %cond.false3554
	movq	uid_cuid(%rip), %rdi
	leaq	(%rdi,%rsi,4), %rcx
.LBB4_668:                              # %cond.end3560
	movl	(%rcx), %ebx
	movq	184(%rsp), %rcx         # 8-byte Reload
	movslq	(%rcx), %r8
	movq	$32, %rcx
	movq	%rdx, %r9
	shlq	%cl, %r9
	movq	$32, %rcx
	sarq	%cl, %r9
	cmpq	%r9, %r8
	jle	.LBB4_674
# BB#669:
	movq	%r11, %r8
.LBB4_670:                              # %land.lhs.true2.i4430
                                        # =>This Inner Loop Header: Depth=1
	movzbl	(%r8), %ecx
	cmpq	$32, %rcx
	jne	.LBB4_673
# BB#671:                               # %land.rhs.i4436
                                        #   in Loop: Header=BB4_670 Depth=1
	movq	32(%r8), %rcx
	movzbl	(%rcx), %ecx
	cmpq	$48, %rcx
	jne	.LBB4_673
# BB#672:                               # %while.body.i4439
                                        #   in Loop: Header=BB4_670 Depth=1
	movq	24(%r8), %r8
	leaq	8(%r8), %rcx
	movq	%rcx, 184(%rsp)         # 8-byte Spill
	movslq	8(%r8), %r9
	movq	$32, %rcx
	movq	%rdx, %r10
	shlq	%cl, %r10
	movq	$32, %rcx
	sarq	%cl, %r10
	cmpq	%r10, %r9
	jg	.LBB4_670
.LBB4_673:                              # %while.end.i4443
	movq	184(%rsp), %rcx         # 8-byte Reload
	movslq	(%rcx), %r8
	movq	$32, %rcx
	movq	%rdx, %r9
	shlq	%cl, %r9
	movq	$32, %rcx
	sarq	%cl, %r9
	cmpq	%r9, %r8
	jg	.LBB4_168
.LBB4_674:                              # %cond.end3575
	movslq	(%rdi,%r8,4), %rdi
	movq	$32, %rcx
	shlq	%cl, %rbx
	movq	$32, %rcx
	sarq	%cl, %rbx
	cmpq	%rdi, %rbx
	movq	%r11, %rcx
	movq	%r14, %rdi
	jge	.LBB4_688
.LBB4_675:                              # %land.lhs.true3579
	movq	%rdi, %r11
	movq	%rcx, %r10
	movq	$32, %rcx
	movq	%rdx, %rdi
	shlq	%cl, %rdi
	movq	$32, %rcx
	sarq	%cl, %rdi
	cmpq	%rdi, %rsi
	jle	.LBB4_681
# BB#676:                               # %land.lhs.true2.i4305.lr.ph
	leaq	8(%r12), %rsi
	movq	%r12, %rdi
.LBB4_677:                              # %land.lhs.true2.i4305
                                        # =>This Inner Loop Header: Depth=1
	movzbl	(%rdi), %ecx
	cmpq	$32, %rcx
	jne	.LBB4_680
# BB#678:                               # %land.rhs.i4311
                                        #   in Loop: Header=BB4_677 Depth=1
	movq	32(%rdi), %rcx
	movzbl	(%rcx), %ecx
	cmpq	$48, %rcx
	jne	.LBB4_680
# BB#679:                               # %while.body.i4314
                                        #   in Loop: Header=BB4_677 Depth=1
	movq	24(%rdi), %rdi
	leaq	8(%rdi), %rsi
	movslq	8(%rdi), %rbx
	movq	$32, %rcx
	movq	%rdx, %r8
	shlq	%cl, %r8
	movq	$32, %rcx
	sarq	%cl, %r8
	cmpq	%r8, %rbx
	jg	.LBB4_677
.LBB4_680:                              # %while.end.i4318
	movslq	(%rsi), %rsi
	movq	$32, %rcx
	movq	%rdx, %rdi
	shlq	%cl, %rdi
	movq	$32, %rcx
	sarq	%cl, %rdi
	cmpq	%rdi, %rsi
	jg	.LBB4_168
.LBB4_681:                              # %cond.false3587
	movq	uid_cuid(%rip), %rdi
	leaq	(%rdi,%rsi,4), %rcx
	movl	(%rcx), %esi
	movq	208(%rsp), %rcx         # 8-byte Reload
	movslq	(%rcx), %rbx
	movq	$32, %rcx
	movq	%rdx, %r8
	shlq	%cl, %r8
	movq	$32, %rcx
	sarq	%cl, %r8
	cmpq	%r8, %rbx
	jle	.LBB4_687
# BB#682:
	movq	%r11, %rbx
.LBB4_683:                              # %land.lhs.true2.i4261
                                        # =>This Inner Loop Header: Depth=1
	movzbl	(%rbx), %ecx
	cmpq	$32, %rcx
	jne	.LBB4_686
# BB#684:                               # %land.rhs.i4267
                                        #   in Loop: Header=BB4_683 Depth=1
	movq	32(%rbx), %rcx
	movzbl	(%rcx), %ecx
	cmpq	$48, %rcx
	jne	.LBB4_686
# BB#685:                               # %while.body.i4270
                                        #   in Loop: Header=BB4_683 Depth=1
	movq	24(%rbx), %rbx
	leaq	8(%rbx), %rcx
	movq	%rcx, 208(%rsp)         # 8-byte Spill
	movslq	8(%rbx), %r8
	movq	$32, %rcx
	movq	%rdx, %r9
	shlq	%cl, %r9
	movq	$32, %rcx
	sarq	%cl, %r9
	cmpq	%r9, %r8
	jg	.LBB4_683
.LBB4_686:                              # %while.end.i4274
	movq	208(%rsp), %rcx         # 8-byte Reload
	movslq	(%rcx), %rbx
	movq	$32, %rcx
	shlq	%cl, %rdx
	movq	$32, %rcx
	sarq	%cl, %rdx
	cmpq	%rdx, %rbx
	jg	.LBB4_168
.LBB4_687:                              # %cond.end3608
	movslq	(%rdi,%rbx,4), %rdx
	movq	$32, %rcx
	shlq	%cl, %rsi
	movq	$32, %rcx
	sarq	%cl, %rsi
	cmpq	%rdx, %rsi
	movq	%r10, %rcx
	movq	%r11, %rdi
	jl	.LBB4_691
.LBB4_688:                              # %if.else3613
	movq	%rdi, %rdx
	testq	%rax, %rax
	jne	.LBB4_690
# BB#689:                               # %if.else3613
	movq	%rdx, %rcx
.LBB4_690:                              # %if.else3613
	movq	%rcx, %r12
	jmp	.LBB4_691
.LBB4_400:
	movq	%r12, %r15
.LBB4_415:
	movq	%r13, %r12
	movq	104(%rsp), %rsi         # 8-byte Reload
	jmp	.LBB4_438
.LBB4_363:                              # %if.then2022
	leaq	328(%rsp), %rax
	leaq	272(%rsp), %rcx
	movq	%rax, %rdi
	movq	%r13, %r12
	movq	%r12, %rsi
	movq	%rcx, %rdx
	callq	recog_for_combine
	movq	%rax, %rsi
	movq	176(%rsp), %r15         # 8-byte Reload
.LBB4_438:                              # %if.end2633
	movq	%rsi, 104(%rsp)         # 8-byte Spill
	movq	$32, %rcx
	movq	%rsi, %rax
	shlq	%cl, %rax
	movq	$32, %rcx
	sarq	%cl, %rax
	testq	%rax, %rax
	jns	.LBB4_448
.LBB4_439:                              # %land.lhs.true2636
	movq	328(%rsp), %rdi
	callq	check_asm_operands
	movabsq	$4294967295, %rcx       # imm = 0xFFFFFFFF
	testq	%rcx, %rax
	je	.LBB4_442
# BB#440:                               # %land.lhs.true2636
	cmpq	$0, 136(%rsp)           # 8-byte Folded Reload
	jne	.LBB4_442
# BB#441:                               # %land.lhs.true2636
	cmpq	$0, 112(%rsp)           # 8-byte Folded Reload
	je	.LBB4_448
.LBB4_442:                              # %if.then2643
	movq	undobuf(%rip), %rax
	testq	%rax, %rax
	je	.LBB4_110
.LBB4_443:                              # %for.body.i4633
                                        # =>This Inner Loop Header: Depth=1
	movl	8(%rax), %edx
	movq	(%rax), %rcx
	testq	%rdx, %rdx
	jne	.LBB4_444
# BB#445:                               # %if.else.i4640
                                        #   in Loop: Header=BB4_443 Depth=1
	movq	16(%rax), %rdx
	movq	24(%rax), %rsi
	movq	%rdx, (%rsi)
	jmp	.LBB4_446
.LBB4_444:                              # %if.then.i4637
                                        #   in Loop: Header=BB4_443 Depth=1
	movl	16(%rax), %edx
	movq	24(%rax), %rsi
	movl	%edx, (%rsi)
.LBB4_446:                              # %if.end.i4642
                                        #   in Loop: Header=BB4_443 Depth=1
	movq	undobuf+8(%rip), %rdx
	movq	%rdx, (%rax)
	movq	%rax, undobuf+8(%rip)
	testq	%rcx, %rcx
	movq	%rcx, %rax
	jne	.LBB4_443
.LBB4_110:                              # %undo_all.exit
	movq	$0, undobuf(%rip)
	xorq	%r12, %r12
.LBB4_691:                              # %return
	movq	%r12, %rax
	addq	$336, %rsp              # imm = 0x150
	popq	%rbx
	popq	%r12
	popq	%r13
	popq	%r14
	popq	%r15
	retq
.LBB4_168:                              # %if.then.i
	movabsq	$.L.str2, %rax
	movabsq	$.L__FUNCTION__.insn_cuid, %rcx
	movq	$12750, %rsi            # imm = 0x31CE
	movq	%rax, %rdi
	movq	%rcx, %rdx
	callq	fancy_abort
.Ltmp80:
	.size	try_combine, .Ltmp80-try_combine
	.cfi_endproc

	.globl	extended_count
	.align	16, 0x90
	.type	extended_count,@function
extended_count:                         # @extended_count
	.cfi_startproc
# BB#0:                                 # %entry
	pushq	%rbx
.Ltmp83:
	.cfi_def_cfa_offset 16
.Ltmp84:
	.cfi_offset %rbx, -16
	movzbl	nonzero_sign_valid(%rip), %ecx
	xorq	%rax, %rax
	testq	%rcx, %rcx
	je	.LBB5_5
# BB#1:                                 # %if.end
	movabsq	$4294967295, %rcx       # imm = 0xFFFFFFFF
	testq	%rcx, %rdx
	je	.LBB5_4
# BB#2:                                 # %cond.true
	movq	$32, %rcx
	movq	%rsi, %rdx
	shlq	%cl, %rdx
	movq	$32, %rcx
	sarq	%cl, %rdx
	movzbl	mode_bitsize(%rdx,%rdx), %ebx
	cmpq	$64, %rbx
	ja	.LBB5_5
# BB#3:                                 # %cond.true3
	decq	%rbx
	callq	nonzero_bits
	movq	%rax, %rdi
	callq	floor_log2_wide
	subq	%rax, %rbx
	movq	%rbx, %rax
	popq	%rbx
	retq
.LBB5_4:                                # %cond.false9
	callq	num_sign_bit_copies
	decq	%rax
.LBB5_5:                                # %return
	popq	%rbx
	retq
.Ltmp85:
	.size	extended_count, .Ltmp85-extended_count
	.cfi_endproc

	.align	16, 0x90
	.type	nonzero_bits,@function
nonzero_bits:                           # @nonzero_bits
	.cfi_startproc
# BB#0:                                 # %entry
	pushq	%r15
.Ltmp92:
	.cfi_def_cfa_offset 16
	pushq	%r14
.Ltmp93:
	.cfi_def_cfa_offset 24
	pushq	%r13
.Ltmp94:
	.cfi_def_cfa_offset 32
	pushq	%r12
.Ltmp95:
	.cfi_def_cfa_offset 40
	pushq	%rbx
.Ltmp96:
	.cfi_def_cfa_offset 48
	subq	$32, %rsp
.Ltmp97:
	.cfi_def_cfa_offset 80
.Ltmp98:
	.cfi_offset %rbx, -48
.Ltmp99:
	.cfi_offset %r12, -40
.Ltmp100:
	.cfi_offset %r13, -32
.Ltmp101:
	.cfi_offset %r14, -24
.Ltmp102:
	.cfi_offset %r15, -16
	movq	%rsi, %r8
	movq	%rdi, %r11
	movq	$32, %rcx
	movq	%r8, %rdx
	movl	(%r11), %eax
	shlq	%cl, %rdx
	movq	$32, %rcx
	sarq	%cl, %rdx
	movq	$16, %rcx
	movq	%rax, %rsi
	shrq	%cl, %rsi
	andq	$255, %rsi
	movl	mode_class(,%rsi,4), %ecx
	movq	mode_mask_array(,%rdx,8), %rbx
	cmpq	$8, %rcx
	ja	.LBB6_2
# BB#1:                                 # %entry
	movq	$1, %rdi
	shlq	%cl, %rdi
	testq	$324, %rdi              # imm = 0x144
	jne	.LBB6_58
.LBB6_2:                                # %lor.lhs.false21
	movl	mode_class(,%rdx,4), %ecx
	cmpq	$8, %rcx
	ja	.LBB6_4
# BB#3:                                 # %lor.lhs.false21
	movq	$1, %rdi
	shlq	%cl, %rdi
	testq	$324, %rdi              # imm = 0x144
	jne	.LBB6_58
.LBB6_4:                                # %if.end
	movzbl	mode_bitsize(%rdx,%rdx), %edi
	movzbl	mode_bitsize(%rsi,%rsi), %r12d
	movq	%rdi, %rcx
	andq	$65535, %rcx            # imm = 0xFFFF
	cmpq	%rcx, %r12
	jbe	.LBB6_6
# BB#5:                                 # %if.then44
	movq	mode_mask_array(,%rsi,8), %rbx
	movq	%r12, %rdi
	movq	%rsi, %r8
.LBB6_6:                                # %if.end53
	movq	%rdi, %r15
	andq	$65535, %r15            # imm = 0xFFFF
	cmpq	$64, %r15
	ja	.LBB6_58
# BB#7:                                 # %if.end57
	movq	%rbx, %r13
	testq	%rsi, %rsi
	je	.LBB6_13
# BB#8:                                 # %if.end57
	movabsq	$4294967295, %rcx       # imm = 0xFFFFFFFF
	andq	%r8, %rcx
	cmpq	%rcx, %rsi
	je	.LBB6_13
# BB#9:                                 # %land.lhs.true68
	movl	target_flags(%rip), %edx
	movq	$20, %rcx
	shrq	%cl, %rdx
	andq	$32, %rdx
	addq	$32, %rdx
	movabsq	$4294967264, %rcx       # imm = 0xFFFFFFE0
	andq	%rdx, %rcx
	cmpq	%rcx, %r12
	ja	.LBB6_13
# BB#10:                                # %land.lhs.true68
	cmpq	$64, %r12
	ja	.LBB6_13
# BB#11:                                # %land.lhs.true86
	movq	$32, %rcx
	movq	%r8, %rbx
	shlq	%cl, %rbx
	movq	$32, %rcx
	sarq	%cl, %rbx
	movzbl	mode_bitsize(%rbx,%rbx), %ecx
	cmpq	%r12, %rcx
	jbe	.LBB6_13
# BB#12:                                # %if.then98
	movq	%r11, %rdi
	movq	%r11, %r14
	callq	nonzero_bits
	movzbl	2(%r14), %ecx
	movq	mode_mask_array(,%rcx,8), %rcx
	movq	mode_mask_array(,%rbx,8), %rdx
	andq	%r13, %rax
	notq	%rcx
	andq	%rdx, %rcx
	orq	%rax, %rcx
	movq	%rcx, %rax
	jmp	.LBB6_59
.LBB6_13:                               # %if.end111
	movq	%rax, %r14
	andq	$65535, %r14            # imm = 0xFFFF
	leaq	-54(%r14), %rcx
	movabsq	$4294967295, %rdx       # imm = 0xFFFFFFFF
	andq	%rdx, %rcx
	movq	%r13, %rbx
	cmpq	$79, %rcx
	ja	.LBB6_58
# BB#14:                                # %if.end111
	jmpq	*.LJTI6_0(,%rcx,8)
.LBB6_54:                               # %if.end111.sw.bb304_crit_edge1083
	movq	$32, %rcx
	shlq	%cl, %r8
	movq	$32, %rcx
	sarq	%cl, %r8
	leaq	mode_class(,%r8,4), %rax
	movl	(%rax), %eax
	cmpq	$1, %rax
	jne	.LBB6_55
# BB#56:                                # %sw.bb304
	movabsq	$1, %rax
	jmp	.LBB6_57
.LBB6_55:
	movabsq	$0, %rax
.LBB6_57:                               # %sw.bb304
	andq	$65535, %rdi            # imm = 0xFFFF
	cmpq	$65, %rdi
	sbbq	%rcx, %rcx
	testq	%rax, %rcx
	movq	$1, %rax
	jne	.LBB6_59
	jmp	.LBB6_58
.LBB6_72:                               # %sw.bb447
	movq	%rbx, 16(%rsp)          # 8-byte Spill
	movq	8(%r11), %rdi
	movq	%r8, %rsi
	movq	%r8, %r13
	movq	%r11, %rbx
	callq	nonzero_bits
	movq	16(%rbx), %rdi
	movq	%rax, %r12
	movq	%r13, %rsi
	callq	nonzero_bits
	movq	%rax, %r13
	movq	%r12, %rdi
	callq	floor_log2_wide
	movq	%rax, 24(%rsp)          # 8-byte Spill
	movq	%r13, %rdi
	callq	floor_log2_wide
	movq	%rax, %rbx
	movq	%r12, %rdi
	negq	%rdi
	andq	%r12, %rdi
	callq	floor_log2_wide
	movq	%rax, 8(%rsp)           # 8-byte Spill
	movq	%r13, %rdi
	negq	%rdi
	andq	%r13, %rdi
	callq	floor_log2_wide
	movq	24(%rsp), %rsi          # 8-byte Reload
	movq	%rbx, %r10
	leaq	-1(%r15), %rcx
	movq	$1, %rdx
	shlq	%cl, %rdx
	addq	$-75, %r14
	movabsq	$4294967295, %rdi       # imm = 0xFFFFFFFF
	andq	%rdi, %r14
	cmpq	$7, %r14
	ja	.LBB6_103
# BB#73:                                # %sw.bb447
	incq	%rsi
	incq	%r10
	jmpq	*.LJTI6_1(,%r14,8)
.LBB6_74:                               # %sw.bb473
	movq	$32, %rcx
	movq	%r10, %rdx
	shlq	%cl, %rdx
	movq	$32, %rcx
	sarq	%cl, %rdx
	movq	$32, %rcx
	movq	%rsi, %rbx
	movq	%rsi, %r9
	shlq	%cl, %rbx
	movq	$32, %rcx
	sarq	%cl, %rbx
	cmpq	%rdx, %rbx
	movq	16(%rsp), %rbx          # 8-byte Reload
	jge	.LBB6_76
# BB#75:                                # %sw.bb473
	movq	%r10, %r9
.LBB6_76:                               # %sw.bb473
	movq	$32, %rcx
	movq	%rax, %rdx
	shlq	%cl, %rdx
	movq	$32, %rcx
	sarq	%cl, %rdx
	movq	$32, %rcx
	movq	8(%rsp), %r8            # 8-byte Reload
	movq	%r8, %rsi
	shlq	%cl, %rsi
	movq	$32, %rcx
	sarq	%cl, %rsi
	cmpq	%rdx, %rsi
	jle	.LBB6_78
# BB#77:                                # %sw.bb473
	movq	%rax, %r8
.LBB6_78:                               # %sw.bb473
	incq	%r9
	movq	%r9, %rdx
	jmp	.LBB6_106
.LBB6_70:                               # %sw.bb431
	movq	8(%r11), %rdi
	movq	%r8, %rsi
	movq	%r8, %r14
	movq	%r11, %r12
	callq	nonzero_bits
	movq	%rax, %r15
                                        # kill: RAX<def> R15<kill>
	andq	%rbx, %rax
	cmpq	%rbx, %rax
	je	.LBB6_58
# BB#71:                                # %if.then439
	movq	16(%r12), %rdi
	movq	%r14, %rsi
	callq	nonzero_bits
	orq	%r15, %rax
	andq	%rbx, %rax
	jmp	.LBB6_59
.LBB6_122:                              # %sw.bb689
	movq	16(%r11), %rax
	movzbl	(%rax), %ecx
	cmpq	$54, %rcx
	jne	.LBB6_58
# BB#123:                               # %land.lhs.true697
	movq	%rdi, %r13
	movq	8(%rax), %rax
	cmpq	$63, %rax
	ja	.LBB6_58
# BB#124:                               # %if.then715
	movq	%rax, 24(%rsp)          # 8-byte Spill
	movq	mode_mask_array(,%rsi,8), %r15
	movq	8(%r11), %rdi
	movq	%r8, %rsi
	callq	nonzero_bits
	movq	%rax, %rsi
	andq	$65535, %r13            # imm = 0xFFFF
	xorq	%rdi, %rdi
	cmpq	%r12, %r13
	jbe	.LBB6_126
# BB#125:                               # %if.then738
	movq	%r15, %rdi
	notq	%rdi
	andq	%rbx, %rdi
	andq	%rsi, %rdi
.LBB6_126:                              # %if.end742
	andq	%r15, %rsi
	cmpq	$87, %r14
	movabsq	$4294967295, %r8        # imm = 0xFFFFFFFF
	je	.LBB6_132
# BB#127:                               # %if.end742
	cmpq	$89, %r14
	jne	.LBB6_128
# BB#130:                               # %if.then750
	movq	24(%rsp), %r9           # 8-byte Reload
	andq	%r9, %r8
	movq	%r8, %rcx
	shrq	%cl, %rsi
	movq	%r9, %rcx
	notq	%rcx
	addq	%r12, %rcx
	movq	$1, %rax
	movq	$1, %rdx
	shlq	%cl, %rdx
	testq	%rdx, %rsi
	je	.LBB6_134
# BB#131:                               # %if.then759
	movq	%r8, %rcx
	shlq	%cl, %rax
	decq	%rax
	subq	%r9, %r12
	movq	%r12, %rcx
	shlq	%cl, %rax
	orq	%rax, %rsi
	jmp	.LBB6_134
.LBB6_137:                              # %sw.bb301
	movq	8(%r11), %rbx
	jmp	.LBB6_58
.LBB6_15:                               # %sw.bb
	movq	global_rtl+16(%rip), %rdx
	movl	8(%r11), %esi
	cmpq	%r11, %rdx
	je	.LBB6_18
# BB#16:                                # %sw.bb
	movq	global_rtl+24(%rip), %rax
	cmpq	%r11, %rax
	je	.LBB6_18
# BB#17:                                # %sw.bb
	movq	global_rtl+40(%rip), %rax
	cmpq	%r11, %rax
	jne	.LBB6_27
.LBB6_18:                               # %land.lhs.true122
	movq	cfun(%rip), %rax
	movq	24(%rax), %rax
	movq	64(%rax), %rax
	movzbl	(%rax,%rsi), %eax
	testq	%rax, %rax
	je	.LBB6_27
# BB#19:                                # %if.then128
	movq	$3, %rcx
	shrq	%cl, %rax
	cmpq	%r11, %rdx
	jne	.LBB6_26
# BB#20:                                # %land.lhs.true140
	movl	target_flags(%rip), %edx
	testq	$6144, %rdx             # imm = 0x1800
	jne	.LBB6_26
# BB#21:                                # %if.then146
	andq	$33554432, %rdx         # imm = 0x2000000
	movq	$25, %rcx
	shrq	%cl, %rdx
	testq	%rdx, %rdx
	movq	$8, %rcx
	jne	.LBB6_23
# BB#22:                                # %if.then146
	movq	$2, %rcx
.LBB6_23:                               # %if.then146
	cmpq	%rax, %rcx
	jb	.LBB6_25
# BB#24:                                # %if.then146
	movq	%rax, %rcx
.LBB6_25:                               # %if.then146
	movq	%rcx, %rax
.LBB6_26:                               # %if.end158
	negq	%rax
	andq	%rax, %rbx
.LBB6_27:                               # %if.end161
	movabsq	$4294967295, %r10       # imm = 0xFFFFFFFF
	movq	reg_last_set_value(%rip), %rax
	cmpq	$0, (%rax,%rsi,8)
	je	.LBB6_46
# BB#28:                                # %land.lhs.true169
	movq	reg_last_set_mode(%rip), %rax
	movl	(%rax,%rsi,4), %edx
	movq	$32, %rcx
	movq	%rdx, %rax
	shlq	%cl, %rax
	movq	$32, %rcx
	sarq	%cl, %rax
	movq	%r8, %rcx
	andq	%r10, %rcx
	cmpq	%rcx, %rdx
	je	.LBB6_31
# BB#29:                                # %lor.lhs.false177
	movl	mode_class(,%rax,4), %eax
	cmpq	$1, %rax
	jne	.LBB6_46
# BB#30:                                # %land.lhs.true187
	movq	$32, %rcx
	movq	%r8, %rax
	shlq	%cl, %rax
	movq	$32, %rcx
	sarq	%cl, %rax
	movl	mode_class(,%rax,4), %eax
	cmpq	$1, %rax
	jne	.LBB6_46
.LBB6_31:                               # %land.lhs.true192
	movq	reg_last_set_label(%rip), %rax
	movl	(%rax,%rsi,4), %eax
	movl	label_tick(%rip), %ecx
	cmpq	%rcx, %rax
	je	.LBB6_36
# BB#32:                                # %lor.lhs.false200
	cmpq	$53, %rsi
	jb	.LBB6_46
# BB#33:                                # %land.lhs.true206
	movq	reg_n_info(%rip), %rax
	movq	32(%rax,%rsi,8), %rax
	movl	12(%rax), %eax
	cmpq	$1, %rax
	jne	.LBB6_46
# BB#34:                                # %land.lhs.true214
	movq	basic_block_info(%rip), %rax
	movq	32(%rax), %rax
	movq	%rdi, %r15
	movq	64(%rax), %rdi
	movq	%r8, %r14
	movq	%r10, %r12
	movq	%r11, %r13
	callq	bitmap_bit_p
	movq	%r13, %r11
	movq	%r12, %r10
	movq	%r15, %rdi
	movq	%r14, %r8
	testq	%r10, %rax
	jne	.LBB6_46
# BB#35:                                # %land.lhs.true214.land.lhs.true222_crit_edge
	movl	8(%r11), %esi
.LBB6_36:                               # %land.lhs.true222
	movq	%rdi, %r9
	movq	reg_last_set(%rip), %rax
	andq	%r10, %rsi
	movq	(%rax,%rsi,8), %rcx
	movslq	8(%rcx), %rdx
	movslq	max_uid_cuid(%rip), %rax
	cmpq	%rax, %rdx
	jle	.LBB6_43
# BB#37:                                # %land.lhs.true2.i.lr.ph
	leaq	8(%rcx), %rdx
.LBB6_38:                               # %land.lhs.true2.i
                                        # =>This Inner Loop Header: Depth=1
	movzbl	(%rcx), %edi
	cmpq	$32, %rdi
	jne	.LBB6_41
# BB#39:                                # %land.rhs.i
                                        #   in Loop: Header=BB6_38 Depth=1
	movq	32(%rcx), %rdi
	movzbl	(%rdi), %edi
	cmpq	$48, %rdi
	jne	.LBB6_41
# BB#40:                                # %while.body.i
                                        #   in Loop: Header=BB6_38 Depth=1
	movq	24(%rcx), %rcx
	movslq	8(%rcx), %rdi
	leaq	8(%rcx), %rdx
	cmpq	%rax, %rdi
	jg	.LBB6_38
.LBB6_41:                               # %while.end.i
	movq	%r8, %rdi
	movslq	(%rdx), %rcx
	cmpq	%rax, %rcx
	jg	.LBB6_138
# BB#42:                                # %insn_cuid.exit
	movq	uid_cuid(%rip), %rax
	leaq	(%rax,%rcx,4), %rax
	movq	%rdi, %r8
	jmp	.LBB6_44
.LBB6_113:                              # %sw.bb596
	andq	$335544320, %rax        # imm = 0x14000000
	cmpq	$335544320, %rax        # imm = 0x14000000
	jne	.LBB6_114
# BB#115:                               # %if.then606
	movq	mode_mask_array(,%rsi,8), %r14
	movq	8(%r11), %rdi
	leaq	8(%r11), %rbx
	movq	%r11, %r12
	movq	%r8, %r15
	callq	nonzero_bits
	movq	%r15, %r8
	andq	%r14, %rax
	movq	%rax, %rsi
	jmp	.LBB6_116
.LBB6_136:                              # %sw.bb796
	movq	16(%r11), %rdi
	movq	%r8, %rsi
	movq	%r8, %r15
	movq	%r11, %r14
	callq	nonzero_bits
	movq	24(%r14), %rdi
	movq	%rbx, %r14
	movq	%rax, %rbx
	movq	%r15, %rsi
	callq	nonzero_bits
	orq	%rbx, %rax
	andq	%r14, %rax
	jmp	.LBB6_59
.LBB6_60:                               # %sw.bb314
	movzbl	mode_size(%rsi), %eax
	cmpq	%r15, %rax
	jae	.LBB6_58
# BB#61:                                # %if.then323
	movq	$32, %rcx
	shlq	%cl, %r8
	movq	$32, %rcx
	sarq	%cl, %r8
	movq	mode_mask_array(,%rsi,8), %rax
	movq	mode_mask_array(,%r8,8), %rcx
	jmp	.LBB6_121
.LBB6_69:                               # %sw.bb420
	movq	8(%r11), %rdi
	movq	%r8, %rsi
	movq	%r8, %r15
	movq	%r11, %r14
	callq	nonzero_bits
	movq	16(%r14), %rdi
	movq	%rbx, %r14
	movq	%rax, %rbx
	movq	%r15, %rsi
	callq	nonzero_bits
	andq	%r14, %rbx
	andq	%rax, %rbx
	jmp	.LBB6_58
.LBB6_65:                               # %sw.bb368
	movq	8(%r11), %rdi
	movq	%r8, %rsi
	movq	%r8, %r14
	movq	%r11, %r15
	callq	nonzero_bits
	movq	8(%r15), %rcx
	movzbl	2(%rcx), %edx
	testq	%rdx, %rdx
	je	.LBB6_68
# BB#66:                                # %if.then381
	movzbl	mode_bitsize(%rdx,%rdx), %ecx
	movq	mode_mask_array(,%rdx,8), %rdx
	andq	%rdx, %rax
	movabsq	$4294967295, %rsi       # imm = 0xFFFFFFFF
	addq	%rsi, %rcx
	movq	$1, %rsi
	shlq	%cl, %rsi
	testq	%rax, %rsi
	je	.LBB6_68
# BB#67:                                # %if.then403
	movq	$32, %rcx
	shlq	%cl, %r14
	movq	$32, %rcx
	sarq	%cl, %r14
	movq	mode_mask_array(,%r14,8), %rcx
	notq	%rdx
	andq	%rcx, %rdx
	orq	%rdx, %rax
.LBB6_68:                               # %if.end418
	andq	%rax, %rbx
	jmp	.LBB6_58
.LBB6_63:                               # %sw.bb343
	movq	8(%r11), %rdi
	movq	%r8, %rsi
	movq	%r11, %r14
	callq	nonzero_bits
	movq	8(%r14), %rcx
	movzbl	2(%rcx), %ecx
	andq	%rax, %rbx
	testq	%rcx, %rcx
	je	.LBB6_58
# BB#64:                                # %if.then357
	movq	mode_mask_array(,%rcx,8), %rax
	andq	%rax, %rbx
	jmp	.LBB6_58
.LBB6_62:                               # %sw.bb335
	movq	8(%r11), %rdi
	movq	%r8, %rsi
	movq	%r8, %r14
	callq	nonzero_bits
	movq	$32, %rcx
	shlq	%cl, %r14
	movq	$32, %rcx
	sarq	%cl, %r14
	movq	mode_mask_array(,%r14,8), %rcx
	andq	%rbx, %rax
	andq	%rcx, %rax
	jmp	.LBB6_59
.LBB6_135:                              # %sw.bb789
	andq	$65535, %rdi            # imm = 0xFFFF
	callq	floor_log2_wide
	leaq	1(%rax), %rcx
	movq	$1, %rbx
	shlq	%cl, %rbx
	decq	%rbx
	jmp	.LBB6_58
.LBB6_110:                              # %sw.bb568
	movq	16(%r11), %rax
	movzbl	(%rax), %ecx
	cmpq	$54, %rcx
	jne	.LBB6_58
# BB#111:                               # %land.lhs.true576
	movq	8(%rax), %rcx
	cmpq	$63, %rcx
	jg	.LBB6_58
# BB#112:                               # %if.then585
	movq	$1, %rax
	shlq	%cl, %rax
	decq	%rax
	andq	%rax, %rbx
	jmp	.LBB6_58
.LBB6_79:                               # %sw.bb487
	movq	$32, %rcx
	movq	%rax, %rdx
	shlq	%cl, %rdx
	movq	$32, %rcx
	sarq	%cl, %rdx
	movq	$32, %rcx
	movq	8(%rsp), %r8            # 8-byte Reload
	movq	%r8, %rsi
	shlq	%cl, %rsi
	movq	$32, %rcx
	sarq	%cl, %rsi
	cmpq	%rdx, %rsi
	movq	16(%rsp), %rbx          # 8-byte Reload
	jle	.LBB6_108
# BB#80:                                # %sw.bb487
	movq	%rax, %r8
	jmp	.LBB6_108
.LBB6_104:                              # %sw.bb494
	addq	%rsi, %r10
	movq	8(%rsp), %r8            # 8-byte Reload
	addq	%rax, %r8
	movq	%r10, %rdx
	jmp	.LBB6_105
.LBB6_81:                               # %sw.bb497
	testq	%rdi, %r10
	je	.LBB6_82
# BB#83:                                # %if.end501
	orq	%r12, %r13
	testq	%rdx, %r13
	je	.LBB6_85
# BB#84:                                # %if.end501
	movq	%r15, %rsi
.LBB6_85:                               # %if.end501
	xorq	%r8, %r8
	movq	%rsi, %rdx
.LBB6_105:                              # %sw.epilog
	movq	16(%rsp), %rbx          # 8-byte Reload
	jmp	.LBB6_106
.LBB6_89:                               # %sw.bb512
	testq	%rdi, %r10
	je	.LBB6_90
# BB#91:                                # %if.end516
	orq	%r12, %r13
	testq	%rdx, %r13
	movq	%r15, %rdx
	movq	8(%rsp), %r8            # 8-byte Reload
	jne	.LBB6_95
# BB#92:                                # %if.then520
	movq	$32, %rcx
	movq	%r10, %rdx
	shlq	%cl, %rdx
	movq	$32, %rcx
	sarq	%cl, %rdx
	movq	$32, %rcx
	movq	%rsi, %rbx
	shlq	%cl, %rbx
	movq	$32, %rcx
	sarq	%cl, %rbx
	cmpq	%rdx, %rbx
	jle	.LBB6_94
# BB#93:                                # %if.then520
	movq	%r10, %rsi
.LBB6_94:                               # %if.then520
	movq	%rsi, %rdx
.LBB6_95:                               # %if.end527
	movq	$32, %rcx
	movq	%rax, %rsi
	shlq	%cl, %rsi
	movq	$32, %rcx
	sarq	%cl, %rsi
	movq	$32, %rcx
	movq	%r8, %rbx
	shlq	%cl, %rbx
	movq	$32, %rcx
	sarq	%cl, %rbx
	cmpq	%rsi, %rbx
	movq	16(%rsp), %rbx          # 8-byte Reload
	jle	.LBB6_106
# BB#96:                                # %if.end527
	movq	%rax, %r8
	jmp	.LBB6_106
.LBB6_86:                               # %sw.bb507
	movq	%rsi, %rax
	testq	%rdi, %r10
	movq	%r15, %rdx
	movq	16(%rsp), %rbx          # 8-byte Reload
	je	.LBB6_88
# BB#87:                                # %sw.bb507
	movq	%rax, %rdx
.LBB6_88:                               # %sw.bb507
	xorq	%r8, %r8
	jmp	.LBB6_106
.LBB6_97:                               # %sw.bb534
	movq	%rsi, %r9
	testq	%rdi, %r10
	movq	16(%rsp), %rbx          # 8-byte Reload
	je	.LBB6_58
# BB#98:                                # %if.end538
	movq	$32, %rcx
	movq	%r10, %r8
	shlq	%cl, %r8
	movq	$32, %rcx
	sarq	%cl, %r8
	movq	$32, %rcx
	movq	%r9, %rdx
	shlq	%cl, %rdx
	movq	$32, %rcx
	sarq	%cl, %rdx
	cmpq	%r8, %rdx
	movq	8(%rsp), %r8            # 8-byte Reload
	jle	.LBB6_100
# BB#99:                                # %if.end538
	movq	%r10, %r9
.LBB6_100:                              # %if.end538
	movq	$32, %rcx
	movq	%rax, %rdx
	shlq	%cl, %rdx
	movq	$32, %rcx
	sarq	%cl, %rdx
	movq	$32, %rcx
	movq	%r8, %rsi
	shlq	%cl, %rsi
	movq	$32, %rcx
	sarq	%cl, %rsi
	cmpq	%rdx, %rsi
	jle	.LBB6_102
# BB#101:                               # %if.end538
	movq	%rax, %r8
.LBB6_102:                              # %if.end538
	movq	%r9, %rdx
.LBB6_106:                              # %sw.epilog
	andq	%rdx, %rdi
	cmpq	%r15, %rdi
	jae	.LBB6_108
# BB#107:                               # %if.then553
	movq	$1, %rax
	movq	%rdx, %rcx
	shlq	%cl, %rax
	decq	%rax
	andq	%rax, %rbx
.LBB6_108:                              # %if.end558
	movq	$32, %rcx
	movq	%r8, %rax
	shlq	%cl, %rax
	movq	$32, %rcx
	sarq	%cl, %rax
	testq	%rax, %rax
	jle	.LBB6_58
# BB#109:                               # %if.then561
	movq	$-1, %rax
	movq	%r8, %rcx
	shlq	%cl, %rax
	andq	%rax, %rbx
	jmp	.LBB6_58
.LBB6_114:                              # %sw.bb596.if.end620_crit_edge
	movq	%rbx, %rsi
	leaq	8(%r11), %rbx
	movq	%r11, %r12
.LBB6_116:                              # %if.end620
	movq	(%rbx), %rdi
	movzbl	2(%rdi), %eax
	movl	target_flags(%rip), %edx
	movzbl	mode_bitsize(%rax,%rax), %eax
	movq	$20, %rcx
	shrq	%cl, %rdx
	andq	$32, %rdx
	addq	$32, %rdx
	movabsq	$4294967264, %rcx       # imm = 0xFFFFFFE0
	andq	%rdx, %rcx
	cmpq	%rcx, %rax
	ja	.LBB6_117
# BB#118:                               # %if.end620
	cmpq	$64, %rax
	movq	%rsi, %rbx
	ja	.LBB6_58
# BB#119:                               # %if.then647
	movq	%r8, %rsi
	callq	nonzero_bits
	movq	8(%r12), %rdx
	movzbl	2(%r12), %ecx
	movzbl	2(%rdx), %edx
	movzbl	mode_size(%rcx), %esi
	movzbl	mode_size(%rdx), %edi
	andq	%rax, %rbx
	cmpq	%rdi, %rsi
	jbe	.LBB6_58
# BB#120:                               # %if.then670
	movq	mode_mask_array(,%rdx,8), %rax
	movq	mode_mask_array(,%rcx,8), %rcx
.LBB6_121:                              # %return
	notq	%rax
	andq	%rcx, %rax
	orq	%rax, %rbx
	jmp	.LBB6_58
.LBB6_103:                              # %sw.default
	movabsq	$.L.str2, %rdi
	movabsq	$.L__FUNCTION__.nonzero_bits, %rdx
	movq	$8256, %rsi             # imm = 0x2040
	callq	fancy_abort
.LBB6_82:
	movq	16(%rsp), %rbx          # 8-byte Reload
	jmp	.LBB6_58
.LBB6_90:
	movq	16(%rsp), %rbx          # 8-byte Reload
	jmp	.LBB6_58
.LBB6_132:                              # %if.then771
	movq	24(%rsp), %rcx          # 8-byte Reload
	shlq	%cl, %rsi
	jmp	.LBB6_134
.LBB6_128:                              # %if.end742
	cmpq	$90, %r14
	jne	.LBB6_133
# BB#129:                               # %if.then745
	movq	24(%rsp), %rcx          # 8-byte Reload
	andq	%r8, %rcx
	shrq	%cl, %rsi
	jmp	.LBB6_134
.LBB6_117:
	movq	%rsi, %rbx
	jmp	.LBB6_58
.LBB6_133:                              # %if.else774
	movq	24(%rsp), %rax          # 8-byte Reload
	andq	%r8, %rax
	xorq	%rdx, %rdx
	divq	%r12
	movq	%rsi, %rax
	movq	%rdx, %rcx
	shlq	%cl, %rax
	subq	%rdx, %r12
	andq	%r8, %r12
	movq	%r12, %rcx
	shrq	%cl, %rsi
	orq	%rax, %rsi
	andq	%r15, %rsi
.LBB6_134:                              # %if.end785
	orq	%rdi, %rsi
	andq	%rsi, %rbx
.LBB6_58:                               # %sw.bb304
	movq	%rbx, %rax
.LBB6_59:                               # %sw.bb304
	addq	$32, %rsp
	popq	%rbx
	popq	%r12
	popq	%r13
	popq	%r14
	popq	%r15
	retq
.LBB6_43:                               # %cond.false239
	movq	uid_cuid(%rip), %rax
	leaq	(%rax,%rdx,4), %rax
.LBB6_44:                               # %cond.end250
	movq	%r9, %rdi
	movslq	(%rax), %rax
	movslq	subst_low_cuid(%rip), %rcx
	cmpq	%rcx, %rax
	jge	.LBB6_46
# BB#45:                                # %if.then254
	movq	reg_last_set_nonzero_bits(%rip), %rax
	movq	(%rax,%rsi,8), %rax
	andq	%rax, %rbx
	jmp	.LBB6_58
.LBB6_46:                               # %if.end261
	movq	%rdi, %r15
	movq	%r8, %r14
	movq	%r11, %rdi
	movq	%r11, %r12
	callq	get_last_value
	testq	%rax, %rax
	je	.LBB6_49
# BB#47:                                # %if.then264
	movq	%rax, %rdi
	movq	%r14, %rsi
	callq	nonzero_bits
	andq	%rbx, %rax
	jmp	.LBB6_59
.LBB6_49:                               # %if.else
	movzbl	nonzero_sign_valid(%rip), %eax
	cmpq	$1, %rax
	jne	.LBB6_58
# BB#50:                                # %land.lhs.true268
	movq	%r12, %rdx
	movl	8(%rdx), %eax
	movq	reg_nonzero_bits(%rip), %rcx
	movq	(%rcx,%rax,8), %rax
	testq	%rax, %rax
	je	.LBB6_58
# BB#51:                                # %if.then275
	movzbl	2(%rdx), %edx
	movzbl	mode_bitsize(%rdx,%rdx), %ecx
	andq	$65535, %r15            # imm = 0xFFFF
	cmpq	%r15, %rcx
	jae	.LBB6_53
# BB#52:                                # %if.then289
	movq	$32, %rcx
	movq	%r14, %rsi
	shlq	%cl, %rsi
	movq	$32, %rcx
	sarq	%cl, %rsi
	movq	mode_mask_array(,%rsi,8), %rcx
	movq	mode_mask_array(,%rdx,8), %rdx
	xorq	%rcx, %rdx
	orq	%rdx, %rax
.LBB6_53:                               # %if.end298
	andq	%rax, %rbx
	jmp	.LBB6_58
.LBB6_138:                              # %if.then.i
	movabsq	$.L.str2, %rax
	movabsq	$.L__FUNCTION__.insn_cuid, %rcx
	movq	$12750, %rsi            # imm = 0x31CE
	movq	%rax, %rdi
	movq	%rcx, %rdx
	callq	fancy_abort
.Ltmp103:
	.size	nonzero_bits, .Ltmp103-nonzero_bits
	.cfi_endproc
	.section	.rodata,"a",@progbits
	.align	8
.LJTI6_0:
	.quad	.LBB6_137
	.quad	.LBB6_58
	.quad	.LBB6_58
	.quad	.LBB6_58
	.quad	.LBB6_58
	.quad	.LBB6_58
	.quad	.LBB6_58
	.quad	.LBB6_15
	.quad	.LBB6_58
	.quad	.LBB6_113
	.quad	.LBB6_58
	.quad	.LBB6_58
	.quad	.LBB6_58
	.quad	.LBB6_58
	.quad	.LBB6_58
	.quad	.LBB6_58
	.quad	.LBB6_58
	.quad	.LBB6_58
	.quad	.LBB6_136
	.quad	.LBB6_58
	.quad	.LBB6_58
	.quad	.LBB6_72
	.quad	.LBB6_72
	.quad	.LBB6_60
	.quad	.LBB6_72
	.quad	.LBB6_72
	.quad	.LBB6_72
	.quad	.LBB6_72
	.quad	.LBB6_72
	.quad	.LBB6_69
	.quad	.LBB6_70
	.quad	.LBB6_70
	.quad	.LBB6_58
	.quad	.LBB6_122
	.quad	.LBB6_122
	.quad	.LBB6_122
	.quad	.LBB6_122
	.quad	.LBB6_58
	.quad	.LBB6_70
	.quad	.LBB6_70
	.quad	.LBB6_70
	.quad	.LBB6_70
	.quad	.LBB6_58
	.quad	.LBB6_58
	.quad	.LBB6_58
	.quad	.LBB6_58
	.quad	.LBB6_58
	.quad	.LBB6_58
	.quad	.LBB6_54
	.quad	.LBB6_54
	.quad	.LBB6_54
	.quad	.LBB6_54
	.quad	.LBB6_54
	.quad	.LBB6_54
	.quad	.LBB6_54
	.quad	.LBB6_54
	.quad	.LBB6_54
	.quad	.LBB6_54
	.quad	.LBB6_54
	.quad	.LBB6_54
	.quad	.LBB6_54
	.quad	.LBB6_54
	.quad	.LBB6_54
	.quad	.LBB6_54
	.quad	.LBB6_54
	.quad	.LBB6_54
	.quad	.LBB6_65
	.quad	.LBB6_63
	.quad	.LBB6_62
	.quad	.LBB6_58
	.quad	.LBB6_58
	.quad	.LBB6_58
	.quad	.LBB6_58
	.quad	.LBB6_58
	.quad	.LBB6_58
	.quad	.LBB6_58
	.quad	.LBB6_58
	.quad	.LBB6_135
	.quad	.LBB6_58
	.quad	.LBB6_110
.LJTI6_1:
	.quad	.LBB6_74
	.quad	.LBB6_79
	.quad	.LBB6_103
	.quad	.LBB6_104
	.quad	.LBB6_81
	.quad	.LBB6_89
	.quad	.LBB6_86
	.quad	.LBB6_97

	.text
	.align	16, 0x90
	.type	num_sign_bit_copies,@function
num_sign_bit_copies:                    # @num_sign_bit_copies
	.cfi_startproc
# BB#0:                                 # %entry
	pushq	%r15
.Ltmp110:
	.cfi_def_cfa_offset 16
	pushq	%r14
.Ltmp111:
	.cfi_def_cfa_offset 24
	pushq	%r13
.Ltmp112:
	.cfi_def_cfa_offset 32
	pushq	%r12
.Ltmp113:
	.cfi_def_cfa_offset 40
	pushq	%rbx
.Ltmp114:
	.cfi_def_cfa_offset 48
.Ltmp115:
	.cfi_offset %rbx, -48
.Ltmp116:
	.cfi_offset %r12, -40
.Ltmp117:
	.cfi_offset %r13, -32
.Ltmp118:
	.cfi_offset %r14, -24
.Ltmp119:
	.cfi_offset %r15, -16
	movq	%rsi, %rbx
	movq	%rdi, %rax
	movabsq	$4294967295, %r8        # imm = 0xFFFFFFFF
	jmp	.LBB7_1
.LBB7_96:                               # %sw.bb660
                                        #   in Loop: Header=BB7_1 Depth=1
	movq	16(%r14), %rax
	.align	16, 0x90
.LBB7_1:                                # %tailrecurse
                                        # =>This Loop Header: Depth=1
                                        #     Child Loop BB7_25 Depth 2
	movq	%rax, %r14
	movl	(%r14), %eax
	testq	%r8, %rbx
	jne	.LBB7_3
# BB#2:                                 # %if.end
                                        #   in Loop: Header=BB7_1 Depth=1
	movq	$16, %rcx
	movq	%rax, %rbx
	shrq	%cl, %rbx
	andq	$255, %rbx
	movq	$1, %r12
	je	.LBB7_118
.LBB7_3:                                # %lor.lhs.false
                                        #   in Loop: Header=BB7_1 Depth=1
	movq	$32, %rcx
	movq	%rbx, %rdx
	shlq	%cl, %rdx
	movq	$32, %rcx
	sarq	%cl, %rdx
	movl	mode_class(,%rdx,4), %ecx
	movq	$1, %r12
	cmpq	$8, %rcx
	jbe	.LBB7_4
.LBB7_5:                                # %lor.lhs.false13
                                        #   in Loop: Header=BB7_1 Depth=1
	movq	$16, %rcx
	movq	%rax, %rsi
	shrq	%cl, %rsi
	andq	$255, %rsi
	movl	mode_class(,%rsi,4), %ecx
	cmpq	$8, %rcx
	jbe	.LBB7_6
.LBB7_7:                                # %if.end35
                                        #   in Loop: Header=BB7_1 Depth=1
	movzbl	mode_bitsize(%rdx,%rdx), %r15d
	movzbl	mode_bitsize(%rsi,%rsi), %ecx
	cmpq	%rcx, %r15
	jb	.LBB7_8
# BB#12:                                # %if.end67
                                        #   in Loop: Header=BB7_1 Depth=1
	testq	%rsi, %rsi
	je	.LBB7_14
# BB#13:                                # %if.end67
                                        #   in Loop: Header=BB7_1 Depth=1
	cmpq	%rcx, %r15
	ja	.LBB7_118
.LBB7_14:                               # %if.end82
                                        #   in Loop: Header=BB7_1 Depth=1
	movq	%rax, %r13
	andq	$65535, %r13            # imm = 0xFFFF
	leaq	-54(%r13), %rcx
	andq	%r8, %rcx
	cmpq	$78, %rcx
	ja	.LBB7_37
# BB#15:                                # %if.end82
                                        #   in Loop: Header=BB7_1 Depth=1
	jmpq	*.LJTI7_0(,%rcx,8)
.LBB7_16:                               # %sw.bb
                                        #   in Loop: Header=BB7_1 Depth=1
	movl	8(%r14), %esi
	movq	reg_last_set_value(%rip), %rax
	cmpq	$0, (%rax,%rsi,8)
	je	.LBB7_33
# BB#17:                                # %land.lhs.true88
                                        #   in Loop: Header=BB7_1 Depth=1
	movq	reg_last_set_mode(%rip), %rax
	movl	(%rax,%rsi,4), %eax
	movq	%rbx, %rcx
	andq	%r8, %rcx
	cmpq	%rcx, %rax
	jne	.LBB7_33
# BB#18:                                # %land.lhs.true96
                                        #   in Loop: Header=BB7_1 Depth=1
	movq	reg_last_set_label(%rip), %rax
	movl	(%rax,%rsi,4), %eax
	movl	label_tick(%rip), %ecx
	cmpq	%rcx, %rax
	je	.LBB7_23
# BB#19:                                # %lor.lhs.false104
                                        #   in Loop: Header=BB7_1 Depth=1
	cmpq	$53, %rsi
	jb	.LBB7_33
# BB#20:                                # %land.lhs.true110
                                        #   in Loop: Header=BB7_1 Depth=1
	movq	reg_n_info(%rip), %rax
	movq	32(%rax,%rsi,8), %rax
	movl	12(%rax), %eax
	cmpq	$1, %rax
	jne	.LBB7_33
# BB#21:                                # %land.lhs.true118
                                        #   in Loop: Header=BB7_1 Depth=1
	movq	basic_block_info(%rip), %rax
	movq	32(%rax), %rax
	movq	64(%rax), %rdi
	movq	%r8, %r12
	callq	bitmap_bit_p
	movq	%r12, %r8
	testq	%r8, %rax
	jne	.LBB7_33
# BB#22:                                # %land.lhs.true118.land.lhs.true125_crit_edge
                                        #   in Loop: Header=BB7_1 Depth=1
	movl	8(%r14), %esi
.LBB7_23:                               # %land.lhs.true125
                                        #   in Loop: Header=BB7_1 Depth=1
	movq	reg_last_set(%rip), %rax
	andq	%r8, %rsi
	movq	(%rax,%rsi,8), %rcx
	movslq	8(%rcx), %rdx
	movslq	max_uid_cuid(%rip), %rax
	cmpq	%rax, %rdx
	jle	.LBB7_30
# BB#24:                                # %land.lhs.true2.i.lr.ph
                                        #   in Loop: Header=BB7_1 Depth=1
	leaq	8(%rcx), %rdx
	.align	16, 0x90
.LBB7_25:                               # %land.lhs.true2.i
                                        #   Parent Loop BB7_1 Depth=1
                                        # =>  This Inner Loop Header: Depth=2
	movzbl	(%rcx), %edi
	cmpq	$32, %rdi
	jne	.LBB7_28
# BB#26:                                # %land.rhs.i
                                        #   in Loop: Header=BB7_25 Depth=2
	movq	32(%rcx), %rdi
	movzbl	(%rdi), %edi
	cmpq	$48, %rdi
	jne	.LBB7_28
# BB#27:                                # %while.body.i
                                        #   in Loop: Header=BB7_25 Depth=2
	movq	24(%rcx), %rcx
	movslq	8(%rcx), %rdi
	leaq	8(%rcx), %rdx
	cmpq	%rax, %rdi
	jg	.LBB7_25
.LBB7_28:                               # %while.end.i
                                        #   in Loop: Header=BB7_1 Depth=1
	movslq	(%rdx), %rcx
	cmpq	%rax, %rcx
	jg	.LBB7_119
# BB#29:                                # %insn_cuid.exit
                                        #   in Loop: Header=BB7_1 Depth=1
	movq	uid_cuid(%rip), %rax
	leaq	(%rax,%rcx,4), %rax
	jmp	.LBB7_31
.LBB7_93:                               # %sw.bb640
                                        #   in Loop: Header=BB7_1 Depth=1
	cmpq	$64, %r15
	movq	$1, %r12
	ja	.LBB7_118
# BB#94:                                # %if.else
                                        #   in Loop: Header=BB7_1 Depth=1
	movq	8(%r14), %rdi
	movq	%rbx, %rsi
	movq	%r8, %r12
	callq	nonzero_bits
	movq	%r12, %r8
	decq	%r15
	movq	$1, %r12
	movq	$1, %rdx
	movq	%r15, %rcx
	shlq	%cl, %rdx
	testq	%rdx, %rax
	jne	.LBB7_118
# BB#95:                                # %if.else655
                                        #   in Loop: Header=BB7_1 Depth=1
	movq	8(%r14), %rax
	jmp	.LBB7_1
.LBB7_56:                               # %sw.bb387
                                        #   in Loop: Header=BB7_1 Depth=1
	movq	8(%r14), %rax
	jmp	.LBB7_1
.LBB7_4:                                # %lor.lhs.false
                                        #   in Loop: Header=BB7_1 Depth=1
	movq	$1, %rsi
	shlq	%cl, %rsi
	testq	$324, %rsi              # imm = 0x144
	je	.LBB7_5
	jmp	.LBB7_118
.LBB7_6:                                # %lor.lhs.false13
                                        #   in Loop: Header=BB7_1 Depth=1
	movq	$1, %rdi
	shlq	%cl, %rdi
	testq	$324, %rdi              # imm = 0x144
	je	.LBB7_7
	jmp	.LBB7_118
.LBB7_30:                               # %cond.false142
                                        #   in Loop: Header=BB7_1 Depth=1
	movq	uid_cuid(%rip), %rax
	leaq	(%rax,%rdx,4), %rax
.LBB7_31:                               # %cond.end153
                                        #   in Loop: Header=BB7_1 Depth=1
	movslq	(%rax), %rax
	movslq	subst_low_cuid(%rip), %rcx
	cmpq	%rcx, %rax
	jl	.LBB7_32
.LBB7_33:                               # %if.end164
                                        #   in Loop: Header=BB7_1 Depth=1
	movq	%r14, %rdi
	movq	%r8, %r12
	callq	get_last_value
	movq	%r12, %r8
	testq	%rax, %rax
	jne	.LBB7_1
# BB#34:                                # %if.end170
	movzbl	nonzero_sign_valid(%rip), %eax
	cmpq	$1, %rax
	jne	.LBB7_37
# BB#35:                                # %land.lhs.true172
	movl	8(%r14), %eax
	movq	reg_sign_bit_copies(%rip), %rcx
	movzbl	(%rcx,%rax), %r12d
	testq	%r12, %r12
	je	.LBB7_37
# BB#36:                                # %land.lhs.true181
	movzbl	2(%r14), %eax
	movzbl	mode_bitsize(%rax,%rax), %eax
	cmpq	%r15, %rax
	je	.LBB7_118
	jmp	.LBB7_37
.LBB7_115:                              # %sw.bb832
	movq	$1, %rdi
	cmpq	$1, %r15
	jne	.LBB7_46
# BB#116:                               # %if.end847
	movq	mode_mask_array(,%rdx,8), %rdi
	andq	$-2, %rdi
	jne	.LBB7_46
	jmp	.LBB7_117
.LBB7_75:                               # %sw.bb510
	movq	8(%r14), %rdi
	movq	%rbx, %rsi
	callq	num_sign_bit_copies
	movq	%rax, %r15
	movq	$32, %rcx
	movq	%r15, %r12
	movq	16(%r14), %rdi
	shlq	%cl, %r12
	movq	$32, %rcx
	sarq	%cl, %r12
	movq	%rbx, %rsi
	callq	num_sign_bit_copies
	movq	$32, %rcx
	movq	%rax, %rdx
	shlq	%cl, %rdx
	movq	$32, %rcx
	sarq	%cl, %rdx
	cmpq	%rdx, %r12
	jle	.LBB7_10
# BB#76:                                # %sw.bb510
	movq	%rax, %r15
	jmp	.LBB7_10
.LBB7_8:                                # %if.then46
	movq	%r14, %rdi
	callq	num_sign_bit_copies
	movzbl	2(%r14), %ecx
	jmp	.LBB7_9
.LBB7_57:                               # %sw.bb392
	movq	16(%r14), %rax
	movzbl	(%rax), %ecx
	cmpq	$54, %rcx
	jne	.LBB7_37
# BB#58:                                # %land.lhs.true400
	movq	8(%rax), %rax
	testq	%rax, %rax
	js	.LBB7_37
# BB#59:                                # %land.lhs.true409
	cmpq	%r15, %rax
	jge	.LBB7_37
# BB#60:                                # %if.then419
	movq	8(%r14), %rdi
	movq	%rbx, %rsi
	callq	num_sign_bit_copies
	movq	16(%r14), %rdx
	movq	$32, %rcx
	shlq	%cl, %rax
	movq	8(%rdx), %rdx
	movq	$32, %rcx
	sarq	%cl, %rax
	cmpq	$88, %r13
	je	.LBB7_62
# BB#61:                                # %if.then419
	subq	%rdx, %r15
	movq	%r15, %rdx
	jmp	.LBB7_62
.LBB7_41:                               # %sw.bb198
	movq	8(%r14), %rdi
	movq	mode_mask_array(,%rdx,8), %rax
	andq	%rax, %rdi
	cmpq	$64, %r15
	ja	.LBB7_45
# BB#42:                                # %land.lhs.true205
	leaq	-1(%r15), %rcx
	movq	$1, %rdx
	shlq	%cl, %rdx
	andq	%rdi, %rdx
	je	.LBB7_44
# BB#43:                                # %land.lhs.true205
	movq	%rax, %rdx
.LBB7_44:                               # %land.lhs.true205
	xorq	%rdx, %rdi
.LBB7_45:                               # %if.end214
	testq	%rdi, %rdi
	je	.LBB7_117
.LBB7_46:                               # %cond.false218
	callq	floor_log2_wide
	decq	%r15
	subq	%rax, %r15
.LBB7_117:                              # %return
	movq	%r15, %r12
	jmp	.LBB7_118
.LBB7_47:                               # %sw.bb224
	movq	8(%r14), %rdi
	andq	$335544320, %rax        # imm = 0x14000000
	cmpq	$268435456, %rax        # imm = 0x10000000
	jne	.LBB7_50
# BB#48:                                # %if.then234
	movq	%rbx, %rsi
	callq	num_sign_bit_copies
	movzbl	2(%r14), %edx
	movq	$32, %rcx
	movq	%rax, %rsi
	movzbl	mode_bitsize(%rdx,%rdx), %edx
	shlq	%cl, %rsi
	movq	$32, %rcx
	sarq	%cl, %rsi
	subq	%rdx, %r15
	cmpq	%rsi, %r15
	jl	.LBB7_11
# BB#49:                                # %if.then234
	incq	%r15
	jmp	.LBB7_10
.LBB7_113:                              # %sw.bb817
	movq	16(%r14), %rdi
	movq	%rbx, %rsi
	callq	num_sign_bit_copies
	movq	%rax, %r15
	movq	$32, %rcx
	movq	%r15, %r12
	movq	24(%r14), %rdi
	shlq	%cl, %r12
	movq	$32, %rcx
	sarq	%cl, %r12
	movq	%rbx, %rsi
	callq	num_sign_bit_copies
	movq	$32, %rcx
	movq	%rax, %rdx
	shlq	%cl, %rdx
	movq	$32, %rcx
	sarq	%cl, %rdx
	cmpq	%rdx, %r12
	jle	.LBB7_10
# BB#114:                               # %sw.bb817
	movq	%rax, %r15
	jmp	.LBB7_10
.LBB7_77:                               # %land.lhs.true528
	movq	16(%r14), %rax
	movq	const_int_rtx+504(%rip), %rcx
	cmpq	%rcx, %rax
	jne	.LBB7_82
# BB#78:                                # %land.lhs.true528
	cmpq	$64, %r15
	ja	.LBB7_82
# BB#79:                                # %if.then537
	movq	8(%r14), %rdi
	movq	%rbx, %rsi
	callq	nonzero_bits
	leaq	-1(%r15), %r13
	movq	$1, %rdx
	movq	%r13, %rcx
	shlq	%cl, %rdx
	testq	%rdx, %rax
	je	.LBB7_80
.LBB7_82:                               # %if.end562
	movq	8(%r14), %rdi
	movq	%rbx, %rsi
	callq	num_sign_bit_copies
	movq	%rax, %r15
	movq	$32, %rcx
	movq	%r15, %r12
	movq	16(%r14), %rdi
	shlq	%cl, %r12
	movq	$32, %rcx
	sarq	%cl, %r12
	movq	%rbx, %rsi
	callq	num_sign_bit_copies
	movq	$32, %rcx
	movq	%rax, %rdx
	shlq	%cl, %rdx
	movq	$32, %rcx
	sarq	%cl, %rdx
	cmpq	%rdx, %r12
	jle	.LBB7_84
# BB#83:                                # %if.end562
	movq	%rax, %r15
.LBB7_84:                               # %if.end562
	movq	$32, %rcx
	movq	%r15, %rax
	shlq	%cl, %rax
	movq	$32, %rcx
	sarq	%cl, %rax
	cmpq	$2, %rax
	movq	$1, %rax
	jl	.LBB7_11
# BB#85:                                # %if.end562
	decq	%r15
	jmp	.LBB7_10
.LBB7_65:                               # %sw.bb476
	movq	8(%r14), %rdi
	movq	%rbx, %rsi
	callq	num_sign_bit_copies
	movq	%rax, %r12
	cmpq	$65, %r15
	jb	.LBB7_69
# BB#66:                                # %if.then483
	movq	$32, %rcx
	movq	%r12, %rax
	shlq	%cl, %rax
	movq	$32, %rcx
	sarq	%cl, %rax
	cmpq	$1, %rax
	jg	.LBB7_67
# BB#68:                                # %if.then483
	movq	$1, %r12
	movq	%r12, %rax
	jmp	.LBB7_11
.LBB7_86:                               # %sw.bb591
	movq	8(%r14), %rdi
	movq	%rbx, %rsi
	callq	num_sign_bit_copies
	movq	16(%r14), %rdi
	movq	%rax, %r12
	movq	%rbx, %rsi
	callq	num_sign_bit_copies
	movq	%rax, %r13
	subq	%r15, %r13
	addq	%r12, %r13
	movq	$32, %rcx
	movq	%r13, %rax
	shlq	%cl, %rax
	movq	$32, %rcx
	sarq	%cl, %rax
	testq	%rax, %rax
	jle	.LBB7_91
# BB#87:                                # %land.lhs.true606
	cmpq	$64, %r15
	ja	.LBB7_90
# BB#88:                                # %lor.lhs.false609
	movq	8(%r14), %rdi
	movq	%rbx, %rsi
	callq	nonzero_bits
	decq	%r15
	movq	$1, %r12
	movq	%r15, %rcx
	shlq	%cl, %r12
	testq	%r12, %rax
	je	.LBB7_91
# BB#89:                                # %land.lhs.true620
	movq	16(%r14), %rdi
	movq	%rbx, %rsi
	callq	nonzero_bits
	testq	%r12, %rax
	je	.LBB7_91
.LBB7_90:                               # %if.then631
	decq	%r13
.LBB7_91:                               # %if.end633
	movq	$32, %rcx
	movq	%r13, %rax
	shlq	%cl, %rax
	movq	$32, %rcx
	sarq	%cl, %rax
	testq	%rax, %rax
	movq	$1, %r12
	jle	.LBB7_118
# BB#92:                                # %if.end633
	movq	%r13, %r12
	movq	%r12, %rax
	jmp	.LBB7_11
.LBB7_97:                               # %sw.bb665
	movq	8(%r14), %rdi
	movq	%rbx, %rsi
	callq	num_sign_bit_copies
	movq	%rax, %r12
	movq	$32, %rcx
                                        # kill: RAX<def> R12<kill>
	shlq	%cl, %rax
	movq	$32, %rcx
	sarq	%cl, %rax
	cmpq	$2, %rax
	jl	.LBB7_118
# BB#98:                                # %land.lhs.true672
	cmpq	$64, %r15
	ja	.LBB7_100
# BB#99:                                # %lor.lhs.false675
	movq	16(%r14), %rdi
	movq	%rbx, %rsi
	callq	nonzero_bits
	decq	%r15
	movq	$1, %rdx
	movq	%r15, %rcx
	shlq	%cl, %rdx
	testq	%rdx, %rax
	je	.LBB7_118
.LBB7_100:                              # %if.then686
	decq	%r12
	movq	%r12, %rax
	jmp	.LBB7_11
.LBB7_101:                              # %sw.bb689
	movq	16(%r14), %rdi
	movq	%rbx, %rsi
	callq	num_sign_bit_copies
	movq	%rax, %r12
	movq	$32, %rcx
                                        # kill: RAX<def> R12<kill>
	shlq	%cl, %rax
	movq	$32, %rcx
	sarq	%cl, %rax
	cmpq	$2, %rax
	jl	.LBB7_118
# BB#102:                               # %land.lhs.true696
	cmpq	$64, %r15
	ja	.LBB7_104
# BB#103:                               # %lor.lhs.false699
	movq	16(%r14), %rdi
	movq	%rbx, %rsi
	callq	nonzero_bits
	decq	%r15
	movq	$1, %rdx
	movq	%r15, %rcx
	shlq	%cl, %rdx
	testq	%rdx, %rax
	je	.LBB7_118
.LBB7_104:                              # %if.then710
	decq	%r12
	movq	%r12, %rax
	jmp	.LBB7_11
.LBB7_109:                              # %sw.bb761
	movq	16(%r14), %rax
	movzbl	(%rax), %ecx
	cmpq	$54, %rcx
	jne	.LBB7_118
# BB#110:                               # %lor.lhs.false769
	movq	8(%rax), %rax
	testq	%rax, %rax
	js	.LBB7_118
# BB#111:                               # %lor.lhs.false769
	cmpq	%r15, %rax
	jge	.LBB7_118
# BB#112:                               # %if.end789
	movq	8(%r14), %rdi
	movq	%rbx, %rsi
	callq	num_sign_bit_copies
	movq	16(%r14), %rdx
	movq	$32, %rcx
	shlq	%cl, %rax
	movq	8(%rdx), %rdx
	movq	$32, %rcx
	sarq	%cl, %rax
.LBB7_62:                               # %if.then419
	subq	%rdx, %rax
	testq	%rax, %rax
	movq	$1, %rcx
	jle	.LBB7_64
# BB#63:                                # %if.then419
	movq	%rax, %rcx
.LBB7_64:                               # %if.then419
	movq	%rcx, %rax
	jmp	.LBB7_11
.LBB7_105:                              # %sw.bb713
	movq	8(%r14), %rdi
	movq	%rbx, %rsi
	callq	num_sign_bit_copies
	movq	16(%r14), %rcx
	movzbl	(%rcx), %edx
	movq	%rax, %r12
	cmpq	$54, %rdx
	jne	.LBB7_118
# BB#106:                               # %land.lhs.true725
	movq	8(%rcx), %rax
	testq	%rax, %rax
	jle	.LBB7_118
# BB#107:                               # %if.then734
	movq	$32, %rcx
	shlq	%cl, %r12
	movq	$32, %rcx
	sarq	%cl, %r12
	addq	%r12, %rax
	cmpq	%rax, %r15
	jle	.LBB7_117
# BB#108:                               # %if.then734
	movq	%rax, %r15
	jmp	.LBB7_117
.LBB7_54:                               # %sw.bb338
	movq	8(%r14), %rdi
	movzbl	2(%rdi), %eax
	movzbl	mode_bitsize(%rax,%rax), %eax
	subq	%rax, %r15
	xorq	%rsi, %rsi
	callq	num_sign_bit_copies
	addq	%r15, %rax
	jmp	.LBB7_11
.LBB7_55:                               # %sw.bb354
	movq	8(%r14), %rdi
	jmp	.LBB7_51
.LBB7_52:                               # %sw.bb305
	movq	16(%r14), %rax
	movzbl	(%rax), %ecx
	cmpq	$54, %rcx
	jne	.LBB7_37
# BB#53:                                # %if.then313
	movq	8(%rax), %rax
	subq	%rax, %r15
	testq	%r15, %r15
	movq	$1, %r12
	jg	.LBB7_117
	jmp	.LBB7_118
.LBB7_50:                               # %if.end259
	movzbl	2(%rdi), %eax
	movzbl	mode_bitsize(%rax,%rax), %eax
	cmpq	%rax, %r15
	jbe	.LBB7_51
.LBB7_37:                               # %sw.epilog
	cmpq	$64, %r15
	movq	$1, %r12
	ja	.LBB7_118
# BB#38:                                # %if.end860
	movq	%r14, %rdi
	movq	%rbx, %rsi
	callq	nonzero_bits
	decq	%r15
	movq	$1, %r12
	movq	$1, %rdx
	movq	%r15, %rcx
	shlq	%cl, %rdx
	testq	%rdx, %rax
	jne	.LBB7_118
# BB#39:                                # %cond.false868
	movq	%rax, %rdi
	callq	floor_log2_wide
	subq	%rax, %r15
	jmp	.LBB7_117
.LBB7_51:                               # %if.then271
	xorq	%rsi, %rsi
	callq	num_sign_bit_copies
	movq	8(%r14), %rcx
	movzbl	2(%rcx), %ecx
.LBB7_9:                                # %if.then46
	movzbl	mode_bitsize(%rcx,%rcx), %ecx
	subq	%rcx, %r15
	addq	%rax, %r15
	movq	$32, %rcx
	movq	%r15, %rax
	shlq	%cl, %rax
	movq	$32, %rcx
	sarq	%cl, %rax
	testq	%rax, %rax
	movq	$1, %rax
	jle	.LBB7_11
.LBB7_10:                               # %if.then46
	movq	%r15, %rax
	jmp	.LBB7_11
.LBB7_69:                               # %if.end491
	movq	8(%r14), %rdi
	movq	%rbx, %rsi
	callq	nonzero_bits
	cmpq	$1, %rax
	je	.LBB7_117
# BB#70:                                # %if.end499
	movq	$32, %rcx
	movq	%r12, %rdx
	shlq	%cl, %rdx
	movq	$32, %rcx
	sarq	%cl, %rdx
	cmpq	$2, %rdx
	jl	.LBB7_118
# BB#71:                                # %land.lhs.true502
	decq	%r15
	movq	$1, %rdx
	movq	%r15, %rcx
	shlq	%cl, %rdx
	testq	%rdx, %rax
	je	.LBB7_72
# BB#73:                                # %land.lhs.true502
	movabsq	$1, %rax
	subq	%rax, %r12
	movq	%r12, %rax
	jmp	.LBB7_11
.LBB7_67:
	decq	%r12
	movq	%r12, %rax
	jmp	.LBB7_11
.LBB7_80:                               # %if.then548
	cmpq	$2, %rax
	movq	%r15, %r12
	jae	.LBB7_81
.LBB7_118:                              # %return
	movq	%r12, %rax
.LBB7_11:                               # %if.then46
	popq	%rbx
	popq	%r12
	popq	%r13
	popq	%r14
	popq	%r15
	retq
.LBB7_32:                               # %if.then157
	movq	reg_last_set_sign_bit_copies(%rip), %rax
	movsbq	(%rax,%rsi), %r12
	movq	%r12, %rax
	jmp	.LBB7_11
.LBB7_81:                               # %cond.false555
	movq	%rax, %rdi
	callq	floor_log2_wide
	subq	%rax, %r13
	movq	%r13, %r12
	movq	%r12, %rax
	jmp	.LBB7_11
.LBB7_72:
	movabsq	$0, %rax
	subq	%rax, %r12
	movq	%r12, %rax
	jmp	.LBB7_11
.LBB7_119:                              # %if.then.i
	movabsq	$.L.str2, %rax
	movabsq	$.L__FUNCTION__.insn_cuid, %rcx
	movq	$12750, %rsi            # imm = 0x31CE
	movq	%rax, %rdi
	movq	%rcx, %rdx
	callq	fancy_abort
.Ltmp120:
	.size	num_sign_bit_copies, .Ltmp120-num_sign_bit_copies
	.cfi_endproc
	.section	.rodata,"a",@progbits
	.align	8
.LJTI7_0:
	.quad	.LBB7_41
	.quad	.LBB7_37
	.quad	.LBB7_37
	.quad	.LBB7_37
	.quad	.LBB7_37
	.quad	.LBB7_37
	.quad	.LBB7_37
	.quad	.LBB7_16
	.quad	.LBB7_37
	.quad	.LBB7_47
	.quad	.LBB7_37
	.quad	.LBB7_37
	.quad	.LBB7_37
	.quad	.LBB7_37
	.quad	.LBB7_37
	.quad	.LBB7_37
	.quad	.LBB7_37
	.quad	.LBB7_37
	.quad	.LBB7_113
	.quad	.LBB7_37
	.quad	.LBB7_37
	.quad	.LBB7_77
	.quad	.LBB7_82
	.quad	.LBB7_65
	.quad	.LBB7_86
	.quad	.LBB7_97
	.quad	.LBB7_101
	.quad	.LBB7_93
	.quad	.LBB7_96
	.quad	.LBB7_75
	.quad	.LBB7_75
	.quad	.LBB7_75
	.quad	.LBB7_56
	.quad	.LBB7_109
	.quad	.LBB7_57
	.quad	.LBB7_105
	.quad	.LBB7_37
	.quad	.LBB7_57
	.quad	.LBB7_75
	.quad	.LBB7_75
	.quad	.LBB7_75
	.quad	.LBB7_75
	.quad	.LBB7_37
	.quad	.LBB7_37
	.quad	.LBB7_37
	.quad	.LBB7_37
	.quad	.LBB7_37
	.quad	.LBB7_37
	.quad	.LBB7_115
	.quad	.LBB7_115
	.quad	.LBB7_115
	.quad	.LBB7_115
	.quad	.LBB7_115
	.quad	.LBB7_115
	.quad	.LBB7_115
	.quad	.LBB7_115
	.quad	.LBB7_115
	.quad	.LBB7_115
	.quad	.LBB7_115
	.quad	.LBB7_115
	.quad	.LBB7_115
	.quad	.LBB7_115
	.quad	.LBB7_115
	.quad	.LBB7_115
	.quad	.LBB7_115
	.quad	.LBB7_115
	.quad	.LBB7_54
	.quad	.LBB7_37
	.quad	.LBB7_55
	.quad	.LBB7_37
	.quad	.LBB7_37
	.quad	.LBB7_37
	.quad	.LBB7_37
	.quad	.LBB7_37
	.quad	.LBB7_37
	.quad	.LBB7_37
	.quad	.LBB7_37
	.quad	.LBB7_37
	.quad	.LBB7_52

	.text
	.globl	remove_death
	.align	16, 0x90
	.type	remove_death,@function
remove_death:                           # @remove_death
	.cfi_startproc
# BB#0:                                 # %entry
	pushq	%r15
.Ltmp125:
	.cfi_def_cfa_offset 16
	pushq	%r14
.Ltmp126:
	.cfi_def_cfa_offset 24
	pushq	%rbx
.Ltmp127:
	.cfi_def_cfa_offset 32
.Ltmp128:
	.cfi_offset %rbx, -32
.Ltmp129:
	.cfi_offset %r14, -24
.Ltmp130:
	.cfi_offset %r15, -16
	movq	%rsi, %r14
	movq	%rdi, %rbx
	movq	$1, %rsi
	movq	%r14, %rdi
	movq	%rbx, %rdx
	callq	find_regno_note
	movq	%rax, %r15
	testq	%r15, %r15
	je	.LBB8_2
# BB#1:                                 # %if.then
	movq	reg_n_info(%rip), %rax
	movabsq	$4294967295, %rcx       # imm = 0xFFFFFFFF
	andq	%rcx, %rbx
	movq	32(%rax,%rbx,8), %rax
	movl	24(%rax), %ecx
	decq	%rcx
	movl	%ecx, 24(%rax)
	movq	%r14, %rdi
	movq	%r15, %rsi
	callq	remove_note
.LBB8_2:                                # %if.end
	movq	%r15, %rax
	popq	%rbx
	popq	%r14
	popq	%r15
	retq
.Ltmp131:
	.size	remove_death, .Ltmp131-remove_death
	.cfi_endproc

	.globl	dump_combine_stats
	.align	16, 0x90
	.type	dump_combine_stats,@function
dump_combine_stats:                     # @dump_combine_stats
	.cfi_startproc
# BB#0:                                 # %entry
	movl	combine_successes(%rip), %r9d
	movl	combine_extras(%rip), %r8d
	movl	combine_merges(%rip), %ecx
	movl	combine_attempts(%rip), %edx
	movabsq	$.L.str, %rsi
	xorq	%rax, %rax
	jmp	fnotice  # TAILCALL
.Ltmp132:
	.size	dump_combine_stats, .Ltmp132-dump_combine_stats
	.cfi_endproc

	.globl	dump_combine_total_stats
	.align	16, 0x90
	.type	dump_combine_total_stats,@function
dump_combine_total_stats:               # @dump_combine_total_stats
	.cfi_startproc
# BB#0:                                 # %entry
	movl	total_successes(%rip), %r9d
	movl	total_extras(%rip), %r8d
	movl	total_merges(%rip), %ecx
	movl	total_attempts(%rip), %edx
	movabsq	$.L.str1, %rsi
	xorq	%rax, %rax
	jmp	fnotice  # TAILCALL
.Ltmp133:
	.size	dump_combine_total_stats, .Ltmp133-dump_combine_total_stats
	.cfi_endproc

	.align	16, 0x90
	.type	record_value_for_reg,@function
record_value_for_reg:                   # @record_value_for_reg
	.cfi_startproc
# BB#0:                                 # %entry
	pushq	%r15
.Ltmp140:
	.cfi_def_cfa_offset 16
	pushq	%r14
.Ltmp141:
	.cfi_def_cfa_offset 24
	pushq	%r13
.Ltmp142:
	.cfi_def_cfa_offset 32
	pushq	%r12
.Ltmp143:
	.cfi_def_cfa_offset 40
	pushq	%rbx
.Ltmp144:
	.cfi_def_cfa_offset 48
	subq	$16, %rsp
.Ltmp145:
	.cfi_def_cfa_offset 64
.Ltmp146:
	.cfi_offset %rbx, -48
.Ltmp147:
	.cfi_offset %r12, -40
.Ltmp148:
	.cfi_offset %r13, -32
.Ltmp149:
	.cfi_offset %r14, -24
.Ltmp150:
	.cfi_offset %r15, -16
	movq	%rdx, %r15
	movq	%rdi, %r13
	movq	%r15, 8(%rsp)
	movl	8(%r13), %r14d
	movq	%rsi, %r12
	cmpq	$52, %r14
	movq	$1, %rbx
	ja	.LBB11_15
# BB#1:                                 # %cond.true
	movzbl	2(%r13), %eax
	movabsq	$4294967288, %rcx       # imm = 0xFFFFFFF8
	andq	%r14, %rcx
	cmpq	$8, %rcx
	je	.LBB11_5
# BB#2:                                 # %cond.true
	leaq	-21(%r14), %rdx
	movabsq	$4294967295, %rcx       # imm = 0xFFFFFFFF
	andq	%rcx, %rdx
	cmpq	$8, %rdx
	jb	.LBB11_5
# BB#3:                                 # %cond.true
	leaq	-45(%r14), %rdx
	andq	%rcx, %rdx
	cmpq	$8, %rdx
	jb	.LBB11_5
# BB#4:                                 # %cond.true
	leaq	-29(%r14), %rdx
	andq	%rcx, %rdx
	cmpq	$7, %rdx
	jbe	.LBB11_5
# BB#10:                                # %cond.false
	cmpq	$24, %rax
	jne	.LBB11_11
# BB#13:                                # %cond.true34
	movzbl	target_flags+3(%rip), %ebx
	andq	$2, %rbx
	xorq	$6, %rbx
	jmp	.LBB11_15
.LBB11_5:                               # %cond.true14
	movl	mode_class(,%rax,4), %eax
	cmpq	$5, %rax
	movq	$2, %rbx
	je	.LBB11_15
# BB#6:                                 # %lor.rhs
	cmpq	$6, %rax
	jne	.LBB11_7
# BB#8:                                 # %lor.rhs
	movabsq	$1, %rbx
	incq	%rbx
	jmp	.LBB11_15
.LBB11_11:                              # %cond.false
	cmpq	$18, %rax
	jne	.LBB11_14
# BB#12:                                # %cond.true27
	movl	target_flags(%rip), %ebx
	movq	$25, %rcx
	shrq	%cl, %rbx
	andq	$1, %rbx
	xorq	$3, %rbx
	jmp	.LBB11_15
.LBB11_7:
	movabsq	$0, %rbx
	incq	%rbx
	jmp	.LBB11_15
.LBB11_14:                              # %cond.false38
	movl	target_flags(%rip), %esi
	movzbl	mode_size(%rax), %eax
	movq	$23, %rcx
	shrq	%cl, %rsi
	andq	$4, %rsi
	leaq	3(%rax,%rsi), %rax
	addq	$4, %rsi
	cqto
	idivq	%rsi
	movq	%rax, %rbx
.LBB11_15:                              # %cond.end56
	testq	%r15, %r15
	je	.LBB11_16
# BB#17:                                # %cond.end56
	testq	%r12, %r12
	je	.LBB11_18
# BB#19:                                # %land.lhs.true62
	movq	%r13, %rdi
	movq	%r15, %rsi
	callq	reg_overlap_mentioned_p
	movabsq	$4294967295, %rcx       # imm = 0xFFFFFFFF
	testq	%rcx, %rax
	je	.LBB11_20
# BB#21:                                # %if.then
	movslq	8(%r12), %rcx
	movslq	max_uid_cuid(%rip), %rax
	cmpq	%rax, %rcx
	jle	.LBB11_27
# BB#22:                                # %land.lhs.true2.i.lr.ph
	leaq	8(%r12), %rcx
	movq	%r12, %rdx
	.align	16, 0x90
.LBB11_23:                              # %land.lhs.true2.i
                                        # =>This Inner Loop Header: Depth=1
	movzbl	(%rdx), %esi
	cmpq	$32, %rsi
	jne	.LBB11_26
# BB#24:                                # %land.rhs.i
                                        #   in Loop: Header=BB11_23 Depth=1
	movq	32(%rdx), %rsi
	movzbl	(%rsi), %esi
	cmpq	$48, %rsi
	jne	.LBB11_26
# BB#25:                                # %while.body.i
                                        #   in Loop: Header=BB11_23 Depth=1
	movq	24(%rdx), %rdx
	movslq	8(%rdx), %rsi
	leaq	8(%rdx), %rcx
	cmpq	%rax, %rsi
	jg	.LBB11_23
.LBB11_26:                              # %while.end.i
	movslq	(%rcx), %rcx
	cmpq	%rax, %rcx
	jg	.LBB11_65
.LBB11_27:                              # %cond.false70
	movq	uid_cuid(%rip), %rax
	leaq	(%rax,%rcx,4), %rax
	movq	%r13, (%rsp)            # 8-byte Spill
	movl	(%rax), %eax
	movl	%eax, subst_low_cuid(%rip)
	movq	%r13, %rdi
	callq	get_last_value
	movq	%rax, %r13
	testq	%r13, %r13
	je	.LBB11_35
# BB#28:                                # %if.then80
	movzbl	(%r13), %eax
	movzbl	rtx_class(%rax), %eax
	cmpq	$50, %rax
	je	.LBB11_30
# BB#29:                                # %if.then80
	cmpq	$99, %rax
	jne	.LBB11_34
.LBB11_30:                              # %land.lhs.true96
	movq	8(%r13), %rax
	movzbl	(%rax), %ecx
	cmpq	$49, %rcx
	jne	.LBB11_34
# BB#31:                                # %land.lhs.true103
	movq	16(%r13), %rcx
	movzbl	(%rcx), %ecx
	cmpq	$49, %rcx
	je	.LBB11_33
# BB#32:                                # %land.lhs.true103
	movq	%r13, %rax
.LBB11_33:                              # %land.lhs.true103
	movq	%rax, %r13
.LBB11_34:                              # %if.end
	movq	%r15, %rdi
	callq	copy_rtx
	movq	%rax, %rdi
	movq	(%rsp), %rsi            # 8-byte Reload
	movq	%r13, %rdx
	callq	replace_rtx
	movq	%rax, %r15
	movq	%r15, 8(%rsp)
	jmp	.LBB11_35
.LBB11_16:
	movq	%r13, (%rsp)            # 8-byte Spill
	jmp	.LBB11_35
.LBB11_18:
	movq	%r13, (%rsp)            # 8-byte Spill
	jmp	.LBB11_35
.LBB11_20:
	movq	%r13, (%rsp)            # 8-byte Spill
.LBB11_35:                              # %for.cond.preheader
	addq	%r14, %rbx
	movabsq	$4294967295, %r13       # imm = 0xFFFFFFFF
	andq	%r13, %rbx
	cmpq	%rbx, %r14
	jae	.LBB11_39
# BB#36:                                # %for.body.lr.ph
	xorq	%rax, %rax
	movq	%r14, %rcx
	movq	%r14, %rdx
	testq	%r12, %r12
	je	.LBB11_38
	.align	16, 0x90
.LBB11_37:                              # %if.end125.us
                                        # =>This Inner Loop Header: Depth=1
	movq	reg_last_set(%rip), %rsi
	movq	%r12, (%rsi,%rcx,8)
	movq	reg_last_set_value(%rip), %rsi
	movq	$0, (%rsi,%rcx,8)
	movq	reg_last_set_mode(%rip), %rsi
	movl	%eax, (%rsi,%rcx,4)
	movq	reg_last_set_nonzero_bits(%rip), %rsi
	movq	$0, (%rsi,%rcx,8)
	movq	reg_last_set_sign_bit_copies(%rip), %rsi
	movb	%al, (%rsi,%rcx)
	movq	reg_last_death(%rip), %rsi
	movq	$0, (%rsi,%rcx,8)
	incq	%rdx
	movq	%rdx, %rsi
	andq	%r13, %rsi
	incq	%rcx
	cmpq	%rbx, %rsi
	jne	.LBB11_37
	jmp	.LBB11_39
	.align	16, 0x90
.LBB11_38:                              # %if.end125
                                        # =>This Inner Loop Header: Depth=1
	movq	reg_last_set_value(%rip), %rsi
	movq	$0, (%rsi,%rcx,8)
	movq	reg_last_set_mode(%rip), %rsi
	movl	%eax, (%rsi,%rcx,4)
	movq	reg_last_set_nonzero_bits(%rip), %rsi
	movq	$0, (%rsi,%rcx,8)
	movq	reg_last_set_sign_bit_copies(%rip), %rsi
	movb	%al, (%rsi,%rcx)
	movq	reg_last_death(%rip), %rsi
	movq	$0, (%rsi,%rcx,8)
	incq	%rdx
	movq	%rdx, %rsi
	andq	%r13, %rsi
	incq	%rcx
	cmpq	%rbx, %rsi
	jne	.LBB11_38
.LBB11_39:                              # %for.end
	testq	%r15, %r15
	je	.LBB11_41
# BB#40:                                # %if.then137
	movq	%r15, %rdi
	callq	update_table_tick
.LBB11_41:                              # %for.cond139.preheader
	cmpq	%rbx, %r14
	jae	.LBB11_49
# BB#42:                                # %for.body142.lr.ph
	testq	%r15, %r15
	je	.LBB11_43
# BB#45:
	movq	%r14, %rax
	movq	%r14, %rcx
	.align	16, 0x90
.LBB11_46:                              # %land.lhs.true146
                                        # =>This Inner Loop Header: Depth=1
	movl	label_tick(%rip), %edx
	movq	reg_last_set_label(%rip), %rsi
	movl	%edx, (%rsi,%rax,4)
	movq	reg_last_set_table_tick(%rip), %rdx
	movl	(%rdx,%rax,4), %esi
	movl	label_tick(%rip), %edi
	movq	reg_last_set_invalid(%rip), %rdx
	cmpq	%rdi, %rsi
	movq	$1, %rsi
	je	.LBB11_48
# BB#47:                                # %select.mid
                                        #   in Loop: Header=BB11_46 Depth=1
	xorq	%rsi, %rsi
.LBB11_48:                              # %select.end
                                        #   in Loop: Header=BB11_46 Depth=1
	movb	%sil, (%rdx,%rax)
	incq	%rcx
	movq	%rcx, %rdx
	andq	%r13, %rdx
	incq	%rax
	cmpq	%rbx, %rdx
	jne	.LBB11_46
	jmp	.LBB11_49
.LBB11_43:
	xorq	%rax, %rax
	movq	%r14, %rcx
	movq	%r14, %rdx
	.align	16, 0x90
.LBB11_44:                              # %for.inc157.us
                                        # =>This Inner Loop Header: Depth=1
	movl	label_tick(%rip), %esi
	movq	reg_last_set_label(%rip), %rdi
	movl	%esi, (%rdi,%rcx,4)
	movq	reg_last_set_invalid(%rip), %rsi
	movb	%al, (%rsi,%rcx)
	incq	%rdx
	movq	%rdx, %rsi
	andq	%r13, %rsi
	incq	%rcx
	cmpq	%rbx, %rsi
	jne	.LBB11_44
.LBB11_49:                              # %for.end159
	testq	%r15, %r15
	je	.LBB11_53
# BB#50:                                # %land.lhs.true161
	movq	reg_last_set_label(%rip), %rax
	movl	(%rax,%r14,4), %edx
	leaq	8(%rsp), %rdi
	xorq	%rcx, %rcx
	movq	%r12, %rsi
	callq	get_last_value_validate
	testq	%r13, %rax
	jne	.LBB11_53
# BB#51:                                # %if.then166
	movq	8(%rsp), %rdi
	callq	copy_rtx
	movq	reg_last_set_label(%rip), %rcx
	movq	%rax, 8(%rsp)
	movl	(%rcx,%r14,4), %edx
	leaq	8(%rsp), %rdi
	movq	$1, %rcx
	movq	%r12, %rsi
	callq	get_last_value_validate
	testq	%r13, %rax
	je	.LBB11_52
.LBB11_53:                              # %if.end174
	movq	8(%rsp), %rbx
	movq	reg_last_set_value(%rip), %rax
	testq	%rbx, %rbx
	movq	%rbx, (%rax,%r14,8)
	je	.LBB11_64
# BB#54:                                # %if.then178
	movslq	8(%r12), %rcx
	movslq	max_uid_cuid(%rip), %rax
	movq	(%rsp), %r15            # 8-byte Reload
	movzbl	2(%r15), %esi
	cmpq	%rax, %rcx
	jle	.LBB11_60
# BB#55:                                # %land.lhs.true2.i304.lr.ph
	leaq	8(%r12), %rcx
	.align	16, 0x90
.LBB11_56:                              # %land.lhs.true2.i304
                                        # =>This Inner Loop Header: Depth=1
	movzbl	(%r12), %edx
	cmpq	$32, %rdx
	jne	.LBB11_59
# BB#57:                                # %land.rhs.i310
                                        #   in Loop: Header=BB11_56 Depth=1
	movq	32(%r12), %rdx
	movzbl	(%rdx), %edx
	cmpq	$48, %rdx
	jne	.LBB11_59
# BB#58:                                # %while.body.i313
                                        #   in Loop: Header=BB11_56 Depth=1
	movq	24(%r12), %r12
	movslq	8(%r12), %rdx
	leaq	8(%r12), %rcx
	cmpq	%rax, %rdx
	jg	.LBB11_56
.LBB11_59:                              # %while.end.i317
	movslq	(%rcx), %rcx
	cmpq	%rax, %rcx
	jg	.LBB11_65
.LBB11_60:                              # %cond.false189
	movq	uid_cuid(%rip), %rax
	leaq	(%rax,%rcx,4), %rax
	movl	(%rax), %eax
	movq	reg_last_set_mode(%rip), %rcx
	movl	mode_class(,%rsi,4), %edx
	movl	%eax, subst_low_cuid(%rip)
	movl	%esi, (%rcx,%r14,4)
	cmpq	$1, %rdx
	jne	.LBB11_63
# BB#61:                                # %land.lhs.true203
	movzbl	mode_bitsize(%rsi,%rsi), %eax
	cmpq	$65, %rax
	jae	.LBB11_63
# BB#62:
	movl	nonzero_bits_mode(%rip), %esi
.LBB11_63:                              # %if.end210
	movq	%rbx, %rdi
	callq	nonzero_bits
	movq	reg_last_set_nonzero_bits(%rip), %rcx
	movq	%rax, (%rcx,%r14,8)
	movzbl	2(%r15), %esi
	movq	%rbx, %rdi
	callq	num_sign_bit_copies
	movq	reg_last_set_sign_bit_copies(%rip), %rcx
	movb	%al, (%rcx,%r14)
.LBB11_64:                              # %if.end221
	addq	$16, %rsp
	popq	%rbx
	popq	%r12
	popq	%r13
	popq	%r14
	popq	%r15
	retq
.LBB11_52:                              # %if.end174.thread
	movq	reg_last_set_value(%rip), %rax
	movq	$0, 8(%rsp)
	movq	$0, (%rax,%r14,8)
	jmp	.LBB11_64
.LBB11_65:                              # %if.then.i
	movabsq	$.L.str2, %rax
	movabsq	$.L__FUNCTION__.insn_cuid, %rcx
	movq	$12750, %rsi            # imm = 0x31CE
	movq	%rax, %rdi
	movq	%rcx, %rdx
	callq	fancy_abort
.Ltmp151:
	.size	record_value_for_reg, .Ltmp151-record_value_for_reg
	.cfi_endproc

	.align	16, 0x90
	.type	record_dead_and_set_regs_1,@function
record_dead_and_set_regs_1:             # @record_dead_and_set_regs_1
	.cfi_startproc
# BB#0:                                 # %entry
	pushq	%r15
.Ltmp156:
	.cfi_def_cfa_offset 16
	pushq	%r14
.Ltmp157:
	.cfi_def_cfa_offset 24
	pushq	%rbx
.Ltmp158:
	.cfi_def_cfa_offset 32
.Ltmp159:
	.cfi_offset %rbx, -32
.Ltmp160:
	.cfi_offset %r14, -24
.Ltmp161:
	.cfi_offset %r15, -16
	movq	%rdi, %r14
	movl	(%r14), %eax
	movq	%rdx, %rbx
	movq	%rsi, %r15
	movq	%rax, %rcx
	andq	$65535, %rcx            # imm = 0xFFFF
	cmpq	$63, %rcx
	jne	.LBB12_2
# BB#1:                                 # %if.then
	movq	8(%r14), %r14
	movl	(%r14), %eax
.LBB12_2:                               # %if.end
	movq	%rax, %rcx
	andq	$65535, %rcx            # imm = 0xFFFF
	cmpq	$66, %rcx
	jne	.LBB12_3
# BB#15:                                # %land.lhs.true61
	movq	$16, %rcx
	shrq	%cl, %rax
	andq	$255, %rax
	movq	%r14, %rdi
	movq	%rax, %rsi
	callq	push_operand
	movabsq	$4294967295, %rcx       # imm = 0xFFFFFFFF
	testq	%rcx, %rax
	jne	.LBB12_23
# BB#16:                                # %if.then67
	movslq	8(%rbx), %rcx
	movslq	max_uid_cuid(%rip), %rax
	cmpq	%rax, %rcx
	jle	.LBB12_22
# BB#17:
	movq	%rbx, %rcx
	addq	$8, %rcx
	.align	16, 0x90
.LBB12_18:                              # %land.lhs.true2.i
                                        # =>This Inner Loop Header: Depth=1
	movzbl	(%rbx), %edx
	cmpq	$32, %rdx
	jne	.LBB12_21
# BB#19:                                # %land.rhs.i
                                        #   in Loop: Header=BB12_18 Depth=1
	movq	32(%rbx), %rdx
	movzbl	(%rdx), %edx
	cmpq	$48, %rdx
	jne	.LBB12_21
# BB#20:                                # %while.body.i
                                        #   in Loop: Header=BB12_18 Depth=1
	movq	24(%rbx), %rbx
	movslq	8(%rbx), %rdx
	leaq	8(%rbx), %rcx
	cmpq	%rax, %rdx
	jg	.LBB12_18
.LBB12_21:                              # %while.end.i
	movslq	(%rcx), %rcx
	cmpq	%rax, %rcx
	jg	.LBB12_24
.LBB12_22:                              # %cond.false
	movq	uid_cuid(%rip), %rax
	leaq	(%rax,%rcx,4), %rax
	movl	(%rax), %eax
	movl	%eax, mem_last_set(%rip)
	jmp	.LBB12_23
.LBB12_3:                               # %if.end
	cmpq	$61, %rcx
	jne	.LBB12_23
# BB#4:                                 # %if.then4
	movzbl	(%r15), %ecx
	cmpq	$47, %rcx
	jne	.LBB12_12
# BB#5:                                 # %land.lhs.true
	movq	8(%r15), %rcx
	cmpq	%rcx, %r14
	je	.LBB12_6
# BB#7:                                 # %land.lhs.true19
	movq	8(%r15), %rdi
	movzbl	(%rdi), %ecx
	cmpq	$63, %rcx
	jne	.LBB12_12
# BB#8:                                 # %land.lhs.true26
	movq	8(%rdi), %rcx
	cmpq	%r14, %rcx
	jne	.LBB12_12
# BB#9:                                 # %land.lhs.true34
	movq	$15, %rcx
	shrq	%cl, %rax
	andq	$510, %rax              # imm = 0x1FE
	movl	target_flags(%rip), %edx
	movzbl	mode_bitsize(%rax), %eax
	movq	$20, %rcx
	shrq	%cl, %rdx
	andq	$32, %rdx
	addq	$32, %rdx
	movabsq	$4294967264, %rcx       # imm = 0xFFFFFFE0
	andq	%rdx, %rcx
	cmpq	%rcx, %rax
	ja	.LBB12_12
# BB#10:                                # %land.lhs.true40
	callq	subreg_lowpart_p
	movabsq	$4294967295, %rcx       # imm = 0xFFFFFFFF
	testq	%rcx, %rax
	je	.LBB12_12
# BB#11:                                # %if.then45
	movq	16(%r15), %rsi
	movzbl	2(%r14), %edi
	callq	gen_lowpart_for_combine
	movq	%r14, %rdi
	movq	%rbx, %rsi
	movq	%rax, %rdx
	jmp	.LBB12_14
.LBB12_23:                              # %if.end80
	popq	%rbx
	popq	%r14
	popq	%r15
	retq
.LBB12_12:                              # %if.else53
	xorq	%rdx, %rdx
	jmp	.LBB12_13
.LBB12_6:                               # %if.then12
	movq	16(%r15), %rdx
.LBB12_13:                              # %if.else53
	movq	%r14, %rdi
	movq	%rbx, %rsi
.LBB12_14:                              # %if.else53
	popq	%rbx
	popq	%r14
	popq	%r15
	jmp	record_value_for_reg  # TAILCALL
.LBB12_24:                              # %if.then.i
	movabsq	$.L.str2, %rax
	movabsq	$.L__FUNCTION__.insn_cuid, %rcx
	movq	$12750, %rsi            # imm = 0x31CE
	movq	%rax, %rdi
	movq	%rcx, %rdx
	callq	fancy_abort
.Ltmp162:
	.size	record_dead_and_set_regs_1, .Ltmp162-record_dead_and_set_regs_1
	.cfi_endproc

	.align	16, 0x90
	.type	gen_lowpart_for_combine,@function
gen_lowpart_for_combine:                # @gen_lowpart_for_combine
	.cfi_startproc
# BB#0:                                 # %entry
	pushq	%r15
.Ltmp168:
	.cfi_def_cfa_offset 16
	pushq	%r14
.Ltmp169:
	.cfi_def_cfa_offset 24
	pushq	%r12
.Ltmp170:
	.cfi_def_cfa_offset 32
	pushq	%rbx
.Ltmp171:
	.cfi_def_cfa_offset 40
	pushq	%rax
.Ltmp172:
	.cfi_def_cfa_offset 48
.Ltmp173:
	.cfi_offset %rbx, -40
.Ltmp174:
	.cfi_offset %r12, -32
.Ltmp175:
	.cfi_offset %r14, -24
.Ltmp176:
	.cfi_offset %r15, -16
	movq	%rsi, %rbx
	movl	(%rbx), %eax
	movq	%rdi, %r14
	movabsq	$4294967295, %r15       # imm = 0xFFFFFFFF
	movq	%r14, %rdx
	andq	%r15, %rdx
	movq	$16, %rcx
	movq	%rax, %rsi
	shrq	%cl, %rsi
	andq	$255, %rsi
	cmpq	%rdx, %rsi
	jne	.LBB13_3
# BB#1:
	movq	%rbx, %rax
	jmp	.LBB13_2
.LBB13_3:                               # %if.end
	movq	$32, %rcx
	movq	%r14, %rdx
	shlq	%cl, %rdx
	movq	$32, %rcx
	sarq	%cl, %rdx
	movl	target_flags(%rip), %edi
	movzbl	mode_size(%rdx), %r12d
	movq	$23, %rcx
	shrq	%cl, %rdi
	andq	$4, %rdi
	addq	$4, %rdi
	movabsq	$4294967292, %rcx       # imm = 0xFFFFFFFC
	andq	%rdi, %rcx
	cmpq	%rcx, %r12
	jbe	.LBB13_10
# BB#4:                                 # %land.lhs.true
	testq	%rsi, %rsi
	jne	.LBB13_6
# BB#5:                                 # %land.lhs.true
	movq	%rax, %rcx
	andq	$65534, %rcx            # imm = 0xFFFE
	cmpq	$54, %rcx
	je	.LBB13_10
.LBB13_6:                               # %lor.lhs.false17
	movzbl	mode_size(%rsi), %ecx
	cmpq	%r12, %rcx
	jne	.LBB13_7
.LBB13_10:                              # %if.end33
	andq	$65535, %rax            # imm = 0xFFFF
	cmpq	$63, %rax
	jne	.LBB13_13
# BB#11:                                # %land.lhs.true38
	movq	8(%rbx), %rax
	movl	(%rax), %edx
	movq	%rdx, %rcx
	andq	$65535, %rcx            # imm = 0xFFFF
	cmpq	$66, %rcx
	jne	.LBB13_13
# BB#12:                                # %if.then44
	movq	$16, %rcx
	shrq	%cl, %rdx
	andq	$255, %rdx
	movq	%r14, %rcx
	andq	%r15, %rcx
	cmpq	%rcx, %rdx
	movq	%rax, %rbx
	je	.LBB13_2
.LBB13_13:                              # %if.end55
	movq	%r14, %rdi
	movq	%rbx, %rsi
	callq	gen_lowpart_common
	testq	%rax, %rax
	jne	.LBB13_2
# BB#14:                                # %if.end59
	movl	(%rbx), %esi
	movq	%rsi, %rdi
	andq	$65535, %rdi            # imm = 0xFFFF
	cmpq	$66, %rdi
	jne	.LBB13_20
# BB#15:                                # %if.then64
	testq	$134217728, %rsi        # imm = 0x8000000
	jne	.LBB13_17
# BB#16:                                # %lor.lhs.false69
	movq	8(%rbx), %rdi
	callq	mode_dependent_address_p
	movl	(%rbx), %esi
	testq	%r15, %rax
	je	.LBB13_18
.LBB13_17:                              # %if.then75
	movq	$16, %rcx
	movq	const_int_rtx+512(%rip), %rdx
	shrq	%cl, %rsi
	andq	$255, %rsi
	jmp	.LBB13_8
.LBB13_20:                              # %if.else
	movzbl	rtx_class(%rdi), %eax
	cmpq	$60, %rax
	jne	.LBB13_21
# BB#26:                                # %if.then104
	movq	8(%rbx), %rdx
	movq	16(%rbx), %rcx
	movq	%r14, %rsi
	addq	$8, %rsp
	popq	%rbx
	popq	%r12
	popq	%r14
	popq	%r15
	jmp	gen_rtx_fmt_ee  # TAILCALL
.LBB13_7:                               # %if.then29
	movq	const_int_rtx+512(%rip), %rdx
.LBB13_8:                               # %if.then29
	movq	$49, %rdi
.LBB13_9:                               # %if.then29
	addq	$8, %rsp
	popq	%rbx
	popq	%r12
	popq	%r14
	popq	%r15
	jmp	gen_rtx_fmt_e  # TAILCALL
.LBB13_21:                              # %if.else114
	movq	$16, %rcx
	shrq	%cl, %rsi
	andq	$255, %rsi
	je	.LBB13_22
# BB#23:                                # %if.end126
	movq	%r14, %rdi
	callq	subreg_lowpart_offset
	movzbl	2(%rbx), %edx
	movq	%r14, %rdi
	movq	%rbx, %rsi
	movq	%rax, %rcx
	callq	simplify_gen_subreg
	testq	%rax, %rax
	je	.LBB13_24
.LBB13_2:                               # %return
	addq	$8, %rsp
	popq	%rbx
	popq	%r12
	popq	%r14
	popq	%r15
	retq
.LBB13_22:                              # %if.then121
	movq	const_int_rtx+512(%rip), %rdx
	movq	$49, %rdi
	xorq	%rsi, %rsi
	jmp	.LBB13_9
.LBB13_18:                              # %if.end80
	movq	$16, %rcx
	shrq	%cl, %rsi
	andq	$255, %rsi
	movzbl	mode_size(%rsi), %eax
	xorq	%rdx, %rdx
	cmpq	%r12, %rax
	jae	.LBB13_19
# BB#25:                                # %if.then92
	movq	%r14, %rdi
	movq	%rbx, %rsi
	addq	$8, %rsp
	popq	%rbx
	popq	%r12
	popq	%r14
	popq	%r15
	jmp	gen_rtx_SUBREG  # TAILCALL
.LBB13_24:                              # %if.end137
	movq	const_int_rtx+512(%rip), %rdx
	movzbl	2(%rbx), %esi
	jmp	.LBB13_8
.LBB13_19:                              # %if.end94
	xorq	%rcx, %rcx
	movq	$1, %r8
	movq	%rbx, %rdi
	movq	%r14, %rsi
	addq	$8, %rsp
	popq	%rbx
	popq	%r12
	popq	%r14
	popq	%r15
	jmp	adjust_address_1  # TAILCALL
.Ltmp177:
	.size	gen_lowpart_for_combine, .Ltmp177-gen_lowpart_for_combine
	.cfi_endproc

	.align	16, 0x90
	.type	get_last_value,@function
get_last_value:                         # @get_last_value
	.cfi_startproc
# BB#0:                                 # %entry
	pushq	%r15
.Ltmp182:
	.cfi_def_cfa_offset 16
	pushq	%r14
.Ltmp183:
	.cfi_def_cfa_offset 24
	pushq	%rbx
.Ltmp184:
	.cfi_def_cfa_offset 32
	subq	$16, %rsp
.Ltmp185:
	.cfi_def_cfa_offset 48
.Ltmp186:
	.cfi_offset %rbx, -32
.Ltmp187:
	.cfi_offset %r14, -24
.Ltmp188:
	.cfi_offset %r15, -16
	movq	%rdi, %rbx
	movzbl	(%rbx), %eax
	cmpq	$63, %rax
	jne	.LBB14_4
# BB#1:                                 # %land.lhs.true
	movq	%rbx, %rdi
	callq	subreg_lowpart_p
	movabsq	$4294967295, %rcx       # imm = 0xFFFFFFFF
	testq	%rcx, %rax
	je	.LBB14_4
# BB#2:                                 # %land.lhs.true1
	movq	8(%rbx), %rdi
	movzbl	2(%rbx), %eax
	movzbl	2(%rdi), %ecx
	movzbl	mode_size(%rax), %eax
	movzbl	mode_size(%rcx), %ecx
	cmpq	%rcx, %rax
	ja	.LBB14_4
# BB#3:                                 # %land.lhs.true13
	callq	get_last_value
	testq	%rax, %rax
	movq	%rax, 8(%rsp)
	je	.LBB14_4
# BB#22:                                # %if.then
	movzbl	2(%rbx), %edi
	movq	%rax, %rsi
	addq	$16, %rsp
	popq	%rbx
	popq	%r14
	popq	%r15
	jmp	gen_lowpart_for_combine  # TAILCALL
.LBB14_4:                               # %if.end
	movzbl	(%rbx), %eax
	xorq	%r15, %r15
	cmpq	$61, %rax
	jne	.LBB14_21
# BB#5:                                 # %if.end29
	movl	8(%rbx), %r14d
	movq	reg_last_set_value(%rip), %rax
	movq	(%rax,%r14,8), %rax
	testq	%rax, %rax
	movq	%rax, 8(%rsp)
	je	.LBB14_21
# BB#6:                                 # %lor.lhs.false
	movq	reg_last_set_label(%rip), %rax
	movl	(%rax,%r14,4), %eax
	movl	label_tick(%rip), %ecx
	cmpq	%rcx, %rax
	je	.LBB14_10
# BB#7:                                 # %land.lhs.true40
	cmpq	$53, %r14
	jb	.LBB14_21
# BB#8:                                 # %lor.lhs.false43
	movq	reg_n_info(%rip), %rax
	movq	32(%rax,%r14,8), %rax
	movl	12(%rax), %eax
	cmpq	$1, %rax
	jne	.LBB14_21
# BB#9:                                 # %lor.lhs.false48
	movq	basic_block_info(%rip), %rax
	movq	32(%rax), %rax
	movq	64(%rax), %rdi
	movq	%r14, %rsi
	callq	bitmap_bit_p
	movabsq	$4294967295, %rcx       # imm = 0xFFFFFFFF
	testq	%rcx, %rax
	jne	.LBB14_21
.LBB14_10:                              # %if.end54
	movq	reg_last_set(%rip), %rax
	movq	(%rax,%r14,8), %rsi
	movslq	8(%rsi), %rcx
	movslq	max_uid_cuid(%rip), %rax
	cmpq	%rax, %rcx
	jle	.LBB14_16
# BB#11:                                # %land.lhs.true2.i.lr.ph
	leaq	8(%rsi), %rcx
	movq	%rsi, %rdx
	.align	16, 0x90
.LBB14_12:                              # %land.lhs.true2.i
                                        # =>This Inner Loop Header: Depth=1
	movzbl	(%rdx), %edi
	cmpq	$32, %rdi
	jne	.LBB14_15
# BB#13:                                # %land.rhs.i
                                        #   in Loop: Header=BB14_12 Depth=1
	movq	32(%rdx), %rdi
	movzbl	(%rdi), %edi
	cmpq	$48, %rdi
	jne	.LBB14_15
# BB#14:                                # %while.body.i
                                        #   in Loop: Header=BB14_12 Depth=1
	movq	24(%rdx), %rdx
	movslq	8(%rdx), %rdi
	leaq	8(%rdx), %rcx
	cmpq	%rax, %rdi
	jg	.LBB14_12
.LBB14_15:                              # %while.end.i
	movslq	(%rcx), %rcx
	cmpq	%rax, %rcx
	jg	.LBB14_23
.LBB14_16:                              # %cond.false
	movq	uid_cuid(%rip), %rax
	leaq	(%rax,%rcx,4), %rax
	movslq	(%rax), %rax
	movslq	subst_low_cuid(%rip), %rcx
	cmpq	%rcx, %rax
	jge	.LBB14_21
# BB#17:                                # %if.end74
	movq	reg_last_set_label(%rip), %rax
	movl	(%rax,%r14,4), %edx
	leaq	8(%rsp), %rdi
	xorq	%rcx, %rcx
	callq	get_last_value_validate
	movq	8(%rsp), %r15
	movabsq	$4294967295, %rbx       # imm = 0xFFFFFFFF
	testq	%rbx, %rax
	je	.LBB14_18
.LBB14_21:                              # %return
	movq	%r15, %rax
.LBB14_20:                              # %if.end82
	addq	$16, %rsp
	popq	%rbx
	popq	%r14
	popq	%r15
	retq
.LBB14_18:                              # %if.end82
	movq	%r15, %rdi
	callq	copy_rtx
	movq	reg_last_set(%rip), %rcx
	movq	reg_last_set_label(%rip), %rdx
	movq	%rax, 8(%rsp)
	movq	(%rcx,%r14,8), %rsi
	movl	(%rdx,%r14,4), %edx
	leaq	8(%rsp), %rdi
	movq	$1, %rcx
	callq	get_last_value_validate
	andq	%rbx, %rax
	je	.LBB14_20
# BB#19:                                # %if.end82
	movq	8(%rsp), %rax
	jmp	.LBB14_20
.LBB14_23:                              # %if.then.i
	movabsq	$.L.str2, %rax
	movabsq	$.L__FUNCTION__.insn_cuid, %rcx
	movq	$12750, %rsi            # imm = 0x31CE
	movq	%rax, %rdi
	movq	%rcx, %rdx
	callq	fancy_abort
.Ltmp189:
	.size	get_last_value, .Ltmp189-get_last_value
	.cfi_endproc

	.align	16, 0x90
	.type	update_table_tick,@function
update_table_tick:                      # @update_table_tick
	.cfi_startproc
# BB#0:                                 # %entry
	pushq	%r15
.Ltmp194:
	.cfi_def_cfa_offset 16
	pushq	%r14
.Ltmp195:
	.cfi_def_cfa_offset 24
	pushq	%rbx
.Ltmp196:
	.cfi_def_cfa_offset 32
.Ltmp197:
	.cfi_offset %rbx, -32
.Ltmp198:
	.cfi_offset %r14, -24
.Ltmp199:
	.cfi_offset %r15, -16
	movq	%rdi, %r14
	movl	(%r14), %edx
	movq	%rdx, %rax
	andq	$65535, %rax            # imm = 0xFFFF
	cmpq	$61, %rax
	jne	.LBB15_19
# BB#1:                                 # %if.then
	movl	8(%r14), %esi
	cmpq	$52, %rsi
	movq	$1, %rax
	ja	.LBB15_16
# BB#2:                                 # %cond.true
	movabsq	$4294967288, %rax       # imm = 0xFFFFFFF8
	andq	%rsi, %rax
	movq	$16, %rcx
	shrq	%cl, %rdx
	andq	$255, %rdx
	cmpq	$8, %rax
	je	.LBB15_6
# BB#3:                                 # %cond.true
	leaq	-21(%rsi), %rcx
	movabsq	$4294967295, %rax       # imm = 0xFFFFFFFF
	andq	%rax, %rcx
	cmpq	$8, %rcx
	jb	.LBB15_6
# BB#4:                                 # %cond.true
	leaq	-45(%rsi), %rcx
	andq	%rax, %rcx
	cmpq	$8, %rcx
	jb	.LBB15_6
# BB#5:                                 # %cond.true
	leaq	-29(%rsi), %rcx
	andq	%rax, %rcx
	cmpq	$7, %rcx
	jbe	.LBB15_6
# BB#11:                                # %cond.false
	cmpq	$24, %rdx
	jne	.LBB15_12
# BB#14:                                # %cond.true39
	movzbl	target_flags+3(%rip), %eax
	andq	$2, %rax
	xorq	$6, %rax
	jmp	.LBB15_16
.LBB15_19:                              # %if.end
	movzbl	rtx_length(%rax), %ebx
	testq	%rbx, %rbx
	je	.LBB15_23
# BB#20:                                # %for.body75.lr.ph
	movq	rtx_format(,%rax,8), %r15
	decq	%rbx
	.align	16, 0x90
.LBB15_21:                              # %for.body75
                                        # =>This Inner Loop Header: Depth=1
	movzbl	(%r15,%rbx), %eax
	cmpq	$101, %rax
	jne	.LBB15_22
# BB#24:                                # %if.then81
                                        #   in Loop: Header=BB15_21 Depth=1
	movq	8(%r14,%rbx,8), %rdi
	callq	update_table_tick
.LBB15_22:                              # %for.cond72.backedge
                                        #   in Loop: Header=BB15_21 Depth=1
	movq	$32, %rcx
	movq	%rbx, %rax
	shlq	%cl, %rax
	movq	$32, %rcx
	sarq	%cl, %rax
	decq	%rbx
	testq	%rax, %rax
	jg	.LBB15_21
	jmp	.LBB15_23
.LBB15_6:                               # %cond.true16
	movl	mode_class(,%rdx,4), %ecx
	cmpq	$5, %rcx
	movq	$2, %rax
	je	.LBB15_16
# BB#7:                                 # %lor.rhs
	cmpq	$6, %rcx
	jne	.LBB15_8
# BB#9:                                 # %lor.rhs
	movabsq	$1, %rax
	incq	%rax
	jmp	.LBB15_16
.LBB15_12:                              # %cond.false
	cmpq	$18, %rdx
	jne	.LBB15_15
# BB#13:                                # %cond.true32
	movl	target_flags(%rip), %eax
	movq	$25, %rcx
	shrq	%cl, %rax
	andq	$1, %rax
	xorq	$3, %rax
	jmp	.LBB15_16
.LBB15_8:
	movabsq	$0, %rax
	incq	%rax
	jmp	.LBB15_16
.LBB15_15:                              # %cond.false43
	movl	target_flags(%rip), %edi
	movzbl	mode_size(%rdx), %eax
	movq	$23, %rcx
	shrq	%cl, %rdi
	andq	$4, %rdi
	leaq	3(%rax,%rdi), %rax
	addq	$4, %rdi
	cqto
	idivq	%rdi
.LBB15_16:                              # %cond.end61
	addq	%rsi, %rax
	movabsq	$4294967295, %rcx       # imm = 0xFFFFFFFF
	andq	%rcx, %rax
	cmpq	%rax, %rsi
	jae	.LBB15_23
# BB#17:                                # %for.body.lr.ph
	movq	reg_last_set_table_tick(%rip), %rdx
	leaq	(%rdx,%rsi,4), %rdx
	.align	16, 0x90
.LBB15_18:                              # %for.body
                                        # =>This Inner Loop Header: Depth=1
	movl	label_tick(%rip), %edi
	movl	%edi, (%rdx)
	incq	%rsi
	movq	%rsi, %rdi
	andq	%rcx, %rdi
	addq	$4, %rdx
	cmpq	%rax, %rdi
	jne	.LBB15_18
.LBB15_23:                              # %for.end87
	popq	%rbx
	popq	%r14
	popq	%r15
	retq
.Ltmp200:
	.size	update_table_tick, .Ltmp200-update_table_tick
	.cfi_endproc

	.align	16, 0x90
	.type	get_last_value_validate,@function
get_last_value_validate:                # @get_last_value_validate
	.cfi_startproc
# BB#0:                                 # %entry
	pushq	%r15
.Ltmp207:
	.cfi_def_cfa_offset 16
	pushq	%r14
.Ltmp208:
	.cfi_def_cfa_offset 24
	pushq	%r13
.Ltmp209:
	.cfi_def_cfa_offset 32
	pushq	%r12
.Ltmp210:
	.cfi_def_cfa_offset 40
	pushq	%rbx
.Ltmp211:
	.cfi_def_cfa_offset 48
	subq	$32, %rsp
.Ltmp212:
	.cfi_def_cfa_offset 80
.Ltmp213:
	.cfi_offset %rbx, -48
.Ltmp214:
	.cfi_offset %r12, -40
.Ltmp215:
	.cfi_offset %r13, -32
.Ltmp216:
	.cfi_offset %r14, -24
.Ltmp217:
	.cfi_offset %r15, -16
	movq	%rdi, %r14
	movq	(%r14), %r13
	movl	(%r13), %eax
	movq	%rax, %rdi
	andq	$65535, %rdi            # imm = 0xFFFF
	movq	rtx_format(,%rdi,8), %r12
	movzbl	rtx_length(%rdi), %r15d
	movq	%rcx, 16(%rsp)          # 8-byte Spill
	movq	%rdx, 24(%rsp)          # 8-byte Spill
	cmpq	$66, %rdi
	jne	.LBB16_1
# BB#32:                                # %land.lhs.true120
	testq	$67108864, %rax         # imm = 0x4000000
	jne	.LBB16_33
# BB#35:                                # %land.lhs.true125
	movslq	8(%rsi), %rdx
	movslq	max_uid_cuid(%rip), %rcx
	cmpq	%rcx, %rdx
	jle	.LBB16_41
# BB#36:                                # %land.lhs.true2.i.lr.ph
	leaq	8(%rsi), %rdx
	movq	%rsi, %rbx
	.align	16, 0x90
.LBB16_37:                              # %land.lhs.true2.i
                                        # =>This Inner Loop Header: Depth=1
	movzbl	(%rbx), %edi
	cmpq	$32, %rdi
	jne	.LBB16_40
# BB#38:                                # %land.rhs.i
                                        #   in Loop: Header=BB16_37 Depth=1
	movq	32(%rbx), %rdi
	movzbl	(%rdi), %edi
	cmpq	$48, %rdi
	jne	.LBB16_40
# BB#39:                                # %while.body.i
                                        #   in Loop: Header=BB16_37 Depth=1
	movq	24(%rbx), %rbx
	movslq	8(%rbx), %rdi
	leaq	8(%rbx), %rdx
	cmpq	%rcx, %rdi
	jg	.LBB16_37
.LBB16_40:                              # %while.end.i
	movslq	(%rdx), %rdx
	cmpq	%rcx, %rdx
	jg	.LBB16_50
.LBB16_41:                              # %cond.false132
	movq	uid_cuid(%rip), %rcx
	leaq	(%rcx,%rdx,4), %rcx
	movslq	(%rcx), %rcx
	movslq	mem_last_set(%rip), %rdx
	cmpq	%rdx, %rcx
	jg	.LBB16_33
# BB#42:                                # %if.then142
	xorq	%rbx, %rbx
	movabsq	$4294967295, %rcx       # imm = 0xFFFFFFFF
	movq	16(%rsp), %rdx          # 8-byte Reload
	testq	%rcx, %rdx
	je	.LBB16_49
# BB#43:                                # %if.then144
	movq	const_int_rtx+512(%rip), %rdx
	movq	$16, %rcx
	shrq	%cl, %rax
	andq	$255, %rax
	movq	$49, %rdi
	movq	%rax, %rsi
	jmp	.LBB16_30
.LBB16_1:                               # %entry
	cmpq	$61, %rdi
	jne	.LBB16_33
# BB#2:                                 # %if.then
	movl	8(%r13), %r12d
	cmpq	$52, %r12
	movq	$1, %rbx
	movq	$1, %r8
	ja	.LBB16_17
# BB#3:                                 # %cond.true
	movabsq	$4294967288, %rdx       # imm = 0xFFFFFFF8
	andq	%r12, %rdx
	movq	$16, %rcx
	shrq	%cl, %rax
	andq	$255, %rax
	cmpq	$8, %rdx
	je	.LBB16_7
# BB#4:                                 # %cond.true
	leaq	-21(%r12), %rdx
	movabsq	$4294967295, %rcx       # imm = 0xFFFFFFFF
	andq	%rcx, %rdx
	cmpq	$8, %rdx
	jb	.LBB16_7
# BB#5:                                 # %cond.true
	leaq	-45(%r12), %rdx
	andq	%rcx, %rdx
	cmpq	$8, %rdx
	jb	.LBB16_7
# BB#6:                                 # %cond.true
	leaq	-29(%r12), %rdx
	andq	%rcx, %rdx
	cmpq	$7, %rdx
	jbe	.LBB16_7
# BB#12:                                # %cond.false
	cmpq	$24, %rax
	jne	.LBB16_13
# BB#15:                                # %cond.true59
	movzbl	target_flags+3(%rip), %r8d
	andq	$2, %r8
	xorq	$6, %r8
	jmp	.LBB16_17
.LBB16_33:                              # %for.cond152.preheader
	movq	%rsi, 8(%rsp)           # 8-byte Spill
	movq	$1, %rbx
	testq	%r15, %r15
	je	.LBB16_49
# BB#34:                                # %for.body155.preheader
	addq	$8, %r13
	movq	$1, %r14
	.align	16, 0x90
.LBB16_45:                              # %for.body155
                                        # =>This Inner Loop Header: Depth=1
	movzbl	-1(%r12,%r14), %eax
	cmpq	$101, %rax
	jne	.LBB16_48
# BB#46:                                # %land.lhs.true161
                                        #   in Loop: Header=BB16_45 Depth=1
	movq	%r13, %rdi
	movq	8(%rsp), %rsi           # 8-byte Reload
	movq	24(%rsp), %rdx          # 8-byte Reload
	movq	16(%rsp), %rcx          # 8-byte Reload
	callq	get_last_value_validate
	xorq	%rbx, %rbx
	movabsq	$4294967295, %rcx       # imm = 0xFFFFFFFF
	testq	%rcx, %rax
	je	.LBB16_49
# BB#47:                                # %lor.lhs.false168thread-pre-split
                                        #   in Loop: Header=BB16_45 Depth=1
	movzbl	-1(%r12,%r14), %eax
.LBB16_48:                              # %lor.lhs.false168
                                        #   in Loop: Header=BB16_45 Depth=1
	andq	$255, %rax
	xorq	%rbx, %rbx
	cmpq	$69, %rax
	je	.LBB16_49
# BB#44:                                # %for.cond152
                                        #   in Loop: Header=BB16_45 Depth=1
	movq	$32, %rcx
	movq	%r14, %rax
	shlq	%cl, %rax
	movq	$32, %rcx
	sarq	%cl, %rax
	incq	%r14
	addq	$8, %r13
	cmpq	%r15, %rax
	movq	$1, %rbx
	jl	.LBB16_45
	jmp	.LBB16_49
.LBB16_7:                               # %cond.true32
	movl	mode_class(,%rax,4), %eax
	cmpq	$5, %rax
	movq	$2, %r8
	je	.LBB16_17
# BB#8:                                 # %lor.rhs
	cmpq	$6, %rax
	jne	.LBB16_9
# BB#10:                                # %lor.rhs
	movabsq	$1, %r8
	incq	%r8
	jmp	.LBB16_17
.LBB16_13:                              # %cond.false
	cmpq	$18, %rax
	jne	.LBB16_16
# BB#14:                                # %cond.true51
	movl	target_flags(%rip), %r8d
	movq	$25, %rcx
	shrq	%cl, %r8
	andq	$1, %r8
	xorq	$3, %r8
	jmp	.LBB16_17
.LBB16_9:
	movabsq	$0, %r8
	incq	%r8
	jmp	.LBB16_17
.LBB16_16:                              # %cond.false63
	movl	target_flags(%rip), %esi
	movzbl	mode_size(%rax), %eax
	movq	$23, %rcx
	shrq	%cl, %rsi
	andq	$4, %rsi
	leaq	3(%rax,%rsi), %rax
	addq	$4, %rsi
	cqto
	idivq	%rsi
	movq	%rax, %r8
.LBB16_17:                              # %cond.end82
	addq	%r12, %r8
	movabsq	$4294967295, %rdi       # imm = 0xFFFFFFFF
	andq	%rdi, %r8
	movq	%r8, 8(%rsp)            # 8-byte Spill
	cmpq	%r8, %r12
	jae	.LBB16_49
# BB#18:                                # %for.body.lr.ph
	movq	%r14, (%rsp)            # 8-byte Spill
	cmpq	$52, %r12
	jbe	.LBB16_25
# BB#19:
	movq	%r12, %r14
	.align	16, 0x90
.LBB16_20:                              # %for.body.us
                                        # =>This Inner Loop Header: Depth=1
	movq	reg_last_set_invalid(%rip), %rax
	movq	%r14, %r15
	andq	%rdi, %r15
	movzbl	(%rax,%r15), %eax
	testq	%rax, %rax
	jne	.LBB16_28
# BB#21:                                # %land.lhs.true94.us
                                        #   in Loop: Header=BB16_20 Depth=1
	movq	reg_n_info(%rip), %rax
	movq	32(%rax,%r12,8), %rax
	movl	12(%rax), %eax
	cmpq	$1, %rax
	jne	.LBB16_23
# BB#22:                                # %land.lhs.true99.us
                                        #   in Loop: Header=BB16_20 Depth=1
	movq	basic_block_info(%rip), %rax
	movq	32(%rax), %rax
	movq	64(%rax), %rdi
	movq	%r12, %rsi
	callq	bitmap_bit_p
	movabsq	$4294967295, %rdi       # imm = 0xFFFFFFFF
	movq	8(%rsp), %r8            # 8-byte Reload
	testq	%rdi, %rax
	je	.LBB16_24
.LBB16_23:                              # %land.lhs.true103.us
                                        #   in Loop: Header=BB16_20 Depth=1
	movq	reg_last_set_label(%rip), %rax
	movslq	(%rax,%r15,4), %rax
	movq	$32, %rcx
	movq	24(%rsp), %rdx          # 8-byte Reload
	shlq	%cl, %rdx
	movq	$32, %rcx
	sarq	%cl, %rdx
	cmpq	%rdx, %rax
	jg	.LBB16_28
.LBB16_24:                              # %for.inc.us
                                        #   in Loop: Header=BB16_20 Depth=1
	incq	%r14
	movq	%r14, %rax
	andq	%rdi, %rax
	cmpq	%r8, %rax
	jb	.LBB16_20
	jmp	.LBB16_49
.LBB16_25:                              # %for.body.lr.ph.for.body.lr.ph.split_crit_edge
	movq	reg_last_set_invalid(%rip), %rax
	.align	16, 0x90
.LBB16_26:                              # %for.body
                                        # =>This Inner Loop Header: Depth=1
	movq	%r12, %rcx
	andq	%rdi, %rcx
	movzbl	(%rax,%rcx), %edx
	testq	%rdx, %rdx
	jne	.LBB16_28
# BB#27:                                # %land.lhs.true103
                                        #   in Loop: Header=BB16_26 Depth=1
	movq	reg_last_set_label(%rip), %rdx
	movslq	(%rdx,%rcx,4), %rdx
	movq	$32, %rcx
	movq	24(%rsp), %rsi          # 8-byte Reload
	shlq	%cl, %rsi
	movq	$32, %rcx
	sarq	%cl, %rsi
	cmpq	%rsi, %rdx
	jg	.LBB16_28
# BB#31:                                # %for.inc
                                        #   in Loop: Header=BB16_26 Depth=1
	incq	%r12
	movq	%r12, %rcx
	andq	%rdi, %rcx
	cmpq	%r8, %rcx
	jb	.LBB16_26
	jmp	.LBB16_49
.LBB16_28:                              # %if.then108
	xorq	%rbx, %rbx
	movq	16(%rsp), %rax          # 8-byte Reload
	testq	%rdi, %rax
	movq	(%rsp), %r14            # 8-byte Reload
	je	.LBB16_49
# BB#29:                                # %if.then110
	movq	const_int_rtx+512(%rip), %rdx
	movzbl	2(%r13), %esi
	movq	$49, %rdi
.LBB16_30:                              # %return
	callq	gen_rtx_fmt_e
	movq	%rax, (%r14)
	movq	16(%rsp), %rbx          # 8-byte Reload
.LBB16_49:                              # %return
	movq	%rbx, %rax
	addq	$32, %rsp
	popq	%rbx
	popq	%r12
	popq	%r13
	popq	%r14
	popq	%r15
	retq
.LBB16_50:                              # %if.then.i
	movabsq	$.L.str2, %rax
	movabsq	$.L__FUNCTION__.insn_cuid, %rcx
	movq	$12750, %rsi            # imm = 0x31CE
	movq	%rax, %rdi
	movq	%rcx, %rdx
	callq	fancy_abort
.Ltmp218:
	.size	get_last_value_validate, .Ltmp218-get_last_value_validate
	.cfi_endproc

	.align	16, 0x90
	.type	cant_combine_insn_p,@function
cant_combine_insn_p:                    # @cant_combine_insn_p
	.cfi_startproc
# BB#0:                                 # %entry
	pushq	%rbx
.Ltmp221:
	.cfi_def_cfa_offset 16
.Ltmp222:
	.cfi_offset %rbx, -16
	movzbl	(%rdi), %eax
	movzbl	rtx_class(%rax), %eax
	cmpq	$105, %rax
	movq	$1, %rbx
	jne	.LBB17_15
# BB#1:                                 # %cond.true
	movq	32(%rdi), %rax
	movzbl	(%rax), %ecx
	cmpq	$47, %rcx
	je	.LBB17_3
# BB#2:                                 # %cond.false
	movq	%rax, %rsi
	callq	single_set_2
.LBB17_3:                               # %cond.end22
	testq	%rax, %rax
	je	.LBB17_14
# BB#4:                                 # %if.end25
	movq	16(%rax), %rcx
	movzbl	(%rcx), %edx
	movq	8(%rax), %rax
	cmpq	$63, %rdx
	jne	.LBB17_6
# BB#5:                                 # %if.then36
	movq	8(%rcx), %rcx
.LBB17_6:                               # %if.end40
	movzbl	(%rax), %edx
	cmpq	$63, %rdx
	jne	.LBB17_8
# BB#7:                                 # %if.then45
	movq	8(%rax), %rax
.LBB17_8:                               # %if.end49
	movzbl	(%rcx), %edx
	cmpq	$61, %rdx
	jne	.LBB17_14
