	.file	"cse.c.bc"
	.text
	.globl	dump_class
	.align	16, 0x90
	.type	dump_class,@function
dump_class:                             # @dump_class
	.cfi_startproc
# BB#0:                                 # %entry
	pushq	%r14
.Ltmp3:
	.cfi_def_cfa_offset 16
	pushq	%rbx
.Ltmp4:
	.cfi_def_cfa_offset 24
	pushq	%rax
.Ltmp5:
	.cfi_def_cfa_offset 32
.Ltmp6:
	.cfi_offset %rbx, -24
.Ltmp7:
	.cfi_offset %r14, -16
	movq	stderr(%rip), %r14
	movq	%rdi, %rbx
	movabsq	$.L.str, %rdi
	movq	$22, %rsi
	movq	$1, %rdx
	movq	%r14, %rcx
	callq	fwrite
	movq	(%rbx), %rsi
	movq	%r14, %rdi
	callq	print_rtl
	movabsq	$.L.str1, %rdi
	movq	$3, %rsi
	movq	$1, %rdx
	movq	%r14, %rcx
	callq	fwrite
	movq	48(%rbx), %rbx
	jmp	.LBB0_2
	.align	16, 0x90
.LBB0_1:                                # %for.body
                                        #   in Loop: Header=BB0_2 Depth=1
	movq	(%rbx), %rsi
	movq	%r14, %rdi
	callq	print_rtl
	movq	$10, %rdi
	movq	%r14, %rsi
	callq	fputc
	movq	32(%rbx), %rbx
.LBB0_2:                                # %for.body
                                        # =>This Inner Loop Header: Depth=1
	testq	%rbx, %rbx
	jne	.LBB0_1
# BB#3:                                 # %for.end
	addq	$8, %rsp
	popq	%rbx
	popq	%r14
	retq
.Ltmp8:
	.size	dump_class, .Ltmp8-dump_class
	.cfi_endproc

	.globl	rtx_cost
	.align	16, 0x90
	.type	rtx_cost,@function
rtx_cost:                               # @rtx_cost
	.cfi_startproc
# BB#0:                                 # %entry
	pushq	%r15
.Ltmp15:
	.cfi_def_cfa_offset 16
	pushq	%r14
.Ltmp16:
	.cfi_def_cfa_offset 24
	pushq	%r13
.Ltmp17:
	.cfi_def_cfa_offset 32
	pushq	%r12
.Ltmp18:
	.cfi_def_cfa_offset 40
	pushq	%rbx
.Ltmp19:
	.cfi_def_cfa_offset 48
	subq	$32, %rsp
.Ltmp20:
	.cfi_def_cfa_offset 80
.Ltmp21:
	.cfi_offset %rbx, -48
.Ltmp22:
	.cfi_offset %r12, -40
.Ltmp23:
	.cfi_offset %r13, -32
.Ltmp24:
	.cfi_offset %r14, -24
.Ltmp25:
	.cfi_offset %r15, -16
	movq	%rsi, %r15
	movq	%rdi, 24(%rsp)          # 8-byte Spill
	xorq	%r13, %r13
	testq	%rdi, %rdi
	je	.LBB1_33
# BB#1:                                 # %if.end
	movq	24(%rsp), %rax          # 8-byte Reload
	movzbl	(%rax), %ebx
	movq	$28, %rax
	leaq	-79(%rbx), %rcx
	movabsq	$4294967295, %r14       # imm = 0xFFFFFFFF
	andq	%r14, %rcx
	cmpq	$4, %rcx
	jb	.LBB1_8
# BB#2:                                 # %if.end
	xorq	%rax, %rax
	cmpq	$48, %rbx
	je	.LBB1_46
# BB#3:                                 # %if.end
	cmpq	$78, %rbx
	jne	.LBB1_7
# BB#4:                                 # %sw.bb
	movq	24(%rsp), %rax          # 8-byte Reload
	movq	16(%rax), %rax
	movzbl	(%rax), %ecx
	cmpq	$54, %rcx
	jne	.LBB1_6
# BB#5:                                 # %land.lhs.true
	movq	8(%rax), %rdi
	callq	exact_log2_wide
	movq	$32, %rcx
	shlq	%cl, %rax
	movq	$32, %rcx
	sarq	%cl, %rax
	testq	%rax, %rax
	movq	$2, %rax
	jns	.LBB1_8
.LBB1_6:                                # %if.else
	movq	$20, %rax
	jmp	.LBB1_8
.LBB1_7:                                # %sw.default
	movq	$4, %rax
.LBB1_8:                                # %sw.epilog
	cmpq	$119, %rbx
	jg	.LBB1_11
# BB#9:                                 # %sw.epilog
	leaq	-54(%rbx), %rcx
	andq	%r14, %rcx
	cmpq	$37, %rcx
	ja	.LBB1_46
# BB#10:                                # %sw.epilog
	xorq	%r13, %r13
	jmpq	*.LJTI1_0(,%rcx,8)
.LBB1_107:                              # %sw.bb653
	movl	target_flags(%rip), %eax
	testq	$33554432, %rax         # imm = 0x2000000
	je	.LBB1_110
# BB#108:                               # %land.lhs.true656
	movq	24(%rsp), %rdi          # 8-byte Reload
	callq	x86_64_sign_extended_value
	testq	%r14, %rax
	movq	$3, %r13
	je	.LBB1_33
# BB#109:                               # %land.lhs.true656.if.end660_crit_edge
	movl	target_flags(%rip), %eax
.LBB1_110:                              # %if.end660
	testq	$33554432, %rax         # imm = 0x2000000
	je	.LBB1_112
# BB#111:                               # %land.lhs.true663
	movq	24(%rsp), %rdi          # 8-byte Reload
	callq	x86_64_zero_extended_value
	testq	%r14, %rax
	movq	$2, %r13
	je	.LBB1_33
.LBB1_112:                              # %if.end667
	movl	flag_pic(%rip), %eax
	xorq	%r13, %r13
	testq	%rax, %rax
	je	.LBB1_33
# BB#113:                               # %land.rhs
	movq	24(%rsp), %rax          # 8-byte Reload
	movzbl	(%rax), %eax
	leaq	-67(%rax), %rcx
	andq	%r14, %rcx
	cmpq	$2, %rcx
	movq	$1, %r13
	jb	.LBB1_33
# BB#114:                               # %lor.rhs
	cmpq	$58, %rax
	movabsq	$0, %r13
	jne	.LBB1_33
# BB#115:                               # %land.rhs682
	movq	24(%rsp), %rdi          # 8-byte Reload
	callq	symbolic_reference_mentioned_p
	testq	%r14, %rax
	je	.LBB1_116
# BB#117:                               # %land.rhs682
	movabsq	$1, %r13
	jmp	.LBB1_33
.LBB1_11:                               # %sw.epilog
	cmpq	$120, %rbx
	jne	.LBB1_12
# BB#35:                                # %do.body126
	movq	ix86_cost(%rip), %rax
	movl	28(%rax), %eax
	jmp	.LBB1_44
.LBB1_12:                               # %sw.epilog
	cmpq	$121, %rbx
	jne	.LBB1_46
# BB#13:                                # %sw.bb98
	movzbl	target_flags+3(%rip), %eax
	testq	$2, %rax
	je	.LBB1_16
# BB#14:                                # %land.lhs.true101
	movq	24(%rsp), %rax          # 8-byte Reload
	movl	(%rax), %eax
	andq	$16711680, %rax         # imm = 0xFF0000
	cmpq	$327680, %rax           # imm = 0x50000
	jne	.LBB1_16
# BB#15:                                # %land.lhs.true107
	movq	24(%rsp), %rax          # 8-byte Reload
	movq	8(%rax), %rax
	movl	(%rax), %eax
	andq	$16711680, %rax         # imm = 0xFF0000
	cmpq	$262144, %rax           # imm = 0x40000
	movq	$1, %rax
	je	.LBB1_46
.LBB1_16:                               # %do.body
	movl	ix86_cpu(%rip), %ecx
	movl	x86_zero_extend_with_and(%rip), %edx
	movq	$1, %rsi
	movq	ix86_cost(%rip), %rax
	shlq	%cl, %rsi
	andq	%rdx, %rsi
	testq	%r14, %rsi
	jne	.LBB1_18
# BB#17:
	addq	$32, %rax
.LBB1_18:                               # %do.body
	movl	(%rax), %eax
	jmp	.LBB1_44
.LBB1_71:                               # %do.body300
	movq	ix86_cost(%rip), %rax
	movl	24(%rax), %eax
	jmp	.LBB1_44
.LBB1_102:                              # %sw.epilog.sw.bb633_crit_edge
	movl	target_flags(%rip), %eax
	jmp	.LBB1_103
.LBB1_118:                              # %sw.bb687
	movq	24(%rsp), %rax          # 8-byte Reload
	movzbl	2(%rax), %eax
	testq	%rax, %rax
	je	.LBB1_33
# BB#119:                               # %if.end695
	movq	24(%rsp), %rdi          # 8-byte Reload
	callq	standard_80387_constant_p
	andq	%r14, %rax
	cmpq	$1, %rax
	movq	$1, %r13
	je	.LBB1_33
# BB#120:                               # %cond.false700
	cmpq	$2, %rax
	je	.LBB1_121
# BB#122:                               # %cond.false700
	movabsq	$1, %r13
	orq	$2, %r13
	jmp	.LBB1_33
.LBB1_19:                               # %sw.bb15
	movq	24(%rsp), %rdx          # 8-byte Reload
	movq	8(%rdx), %rcx
	movl	(%rdx), %edi
	movl	(%rcx), %r8d
	movq	$16, %rcx
	movq	%rdi, %rdx
	shrq	%cl, %rdx
	andq	$255, %rdx
	movq	$16, %rcx
	movq	%r8, %rsi
	shrq	%cl, %rsi
	andq	$255, %rsi
	cmpq	%rsi, %rdx
	je	.LBB1_46
# BB#20:                                # %lor.lhs.false
	leaq	-3(%rdx), %rcx
	andq	%r14, %rcx
	cmpq	$2, %rcx
	jb	.LBB1_26
# BB#21:                                # %lor.lhs.false
	cmpq	$2, %rdx
	jne	.LBB1_24
# BB#22:                                # %land.lhs.true39
	movzbl	target_flags+3(%rip), %ecx
	testq	$2, %rcx
	jne	.LBB1_26
# BB#23:                                # %lor.lhs.false40
	movl	ix86_cpu(%rip), %ecx
	movl	x86_partial_reg_stall(%rip), %r9d
	movq	$1, %r10
	shlq	%cl, %r10
	andq	%r9, %r10
	testq	%r14, %r10
	je	.LBB1_26
.LBB1_24:                               # %lor.lhs.false43
	movq	%rdi, %rcx
	andq	$16711680, %rcx         # imm = 0xFF0000
	cmpq	$327680, %rcx           # imm = 0x50000
	jne	.LBB1_32
# BB#25:                                # %land.lhs.true48
	movzbl	target_flags+3(%rip), %ecx
	testq	$2, %rcx
	je	.LBB1_32
.LBB1_26:                               # %land.lhs.true51
	addq	$-3, %rsi
	andq	%r14, %rsi
	cmpq	$2, %rsi
	jb	.LBB1_46
# BB#27:                                # %lor.lhs.false67
	andq	$16711680, %rdi         # imm = 0xFF0000
	cmpq	$131072, %rdi           # imm = 0x20000
	jne	.LBB1_30
# BB#28:                                # %land.lhs.true72
	movzbl	target_flags+3(%rip), %ecx
	testq	$2, %rcx
	jne	.LBB1_46
# BB#29:                                # %lor.lhs.false75
	movl	ix86_cpu(%rip), %ecx
	movl	x86_partial_reg_stall(%rip), %esi
	movq	$1, %rdi
	shlq	%cl, %rdi
	andq	%rsi, %rdi
	testq	%r14, %rdi
	je	.LBB1_46
.LBB1_30:                               # %lor.lhs.false79
	andq	$16711680, %r8          # imm = 0xFF0000
	cmpq	$327680, %r8            # imm = 0x50000
	jne	.LBB1_32
# BB#31:                                # %land.lhs.true87
	movzbl	target_flags+3(%rip), %ecx
	testq	$2, %rcx
	jne	.LBB1_46
.LBB1_32:                               # %if.then90
	movl	target_flags(%rip), %esi
	movzbl	mode_size(%rdx), %eax
	movq	$23, %rcx
	shrq	%cl, %rsi
	andq	$4, %rsi
	addq	$4, %rsi
	xorq	%rdx, %rdx
	idivq	%rsi
	leaq	8(,%rax,4), %r13
	jmp	.LBB1_33
.LBB1_72:                               # %sw.bb303
	movl	ix86_cpu(%rip), %ecx
	movl	x86_decompose_lea(%rip), %eax
	movq	$1, %rdx
	shlq	%cl, %rdx
	andq	%rax, %rdx
	testq	%r14, %rdx
	jne	.LBB1_95
# BB#73:                                # %land.lhs.true307
	movq	24(%rsp), %rax          # 8-byte Reload
	movzbl	2(%rax), %eax
	movl	mode_class(,%rax,4), %ecx
	cmpq	$7, %rcx
	ja	.LBB1_95
# BB#74:                                # %land.lhs.true307
	movq	$1, %rdx
	shlq	%cl, %rdx
	testq	$170, %rdx
	je	.LBB1_95
# BB#75:                                # %land.lhs.true339
	movl	target_flags(%rip), %edx
	movzbl	mode_bitsize(%rax,%rax), %eax
	movq	$25, %rcx
	shrq	%cl, %rdx
	andq	$1, %rdx
	movzbl	mode_bitsize+8(%rdx,%rdx), %ecx
	cmpq	%rcx, %rax
	ja	.LBB1_95
# BB#76:                                # %if.then354
	movq	24(%rsp), %rax          # 8-byte Reload
	movq	8(%rax), %rax
	movzbl	(%rax), %edx
	cmpq	$75, %rdx
	jne	.LBB1_82
# BB#77:                                # %land.lhs.true362
	movq	8(%rax), %rcx
	movzbl	(%rcx), %esi
	cmpq	$78, %rsi
	jne	.LBB1_94
# BB#78:                                # %land.lhs.true373
	movq	16(%rcx), %rsi
	movzbl	(%rsi), %ecx
	cmpq	$54, %rcx
	jne	.LBB1_82
# BB#79:                                # %land.lhs.true387
	movq	24(%rsp), %rcx          # 8-byte Reload
	movq	16(%rcx), %rcx
	movzbl	(%rcx), %ecx
	cmpq	$133, %rcx
	jg	.LBB1_88
# BB#80:                                # %land.lhs.true387
	addq	$-54, %rcx
	andq	%r14, %rcx
	cmpq	$14, %rcx
	ja	.LBB1_82
# BB#81:                                # %land.lhs.true387
	movq	$1, %rdi
	shlq	%cl, %rdi
	testq	$24599, %rdi            # imm = 0x6017
	jne	.LBB1_90
	jmp	.LBB1_82
.LBB1_65:                               # %sw.bb267
	movq	24(%rsp), %rax          # 8-byte Reload
	movq	16(%rax), %rax
	movzbl	(%rax), %ecx
	cmpq	$54, %rcx
	jne	.LBB1_70
# BB#66:                                # %if.then275
	movq	8(%rax), %rax
	xorq	%rdx, %rdx
	testq	%rax, %rax
	je	.LBB1_69
# BB#67:
	movq	$1, %rcx
.LBB1_68:                               # %while.body
                                        # =>This Inner Loop Header: Depth=1
	incq	%rdx
	shrq	%cl, %rax
	testq	%rax, %rax
	jne	.LBB1_68
.LBB1_69:                               # %do.body285
	movq	ix86_cost(%rip), %rcx
	movl	20(%rcx), %eax
	movl	16(%rcx), %ecx
	imulq	%rdx, %rax
	addq	%rcx, %rax
	jmp	.LBB1_44
.LBB1_36:                               # %sw.bb129
	movq	24(%rsp), %rax          # 8-byte Reload
	movq	16(%rax), %rax
	movzbl	(%rax), %ecx
	cmpq	$54, %rcx
	jne	.LBB1_55
# BB#37:                                # %land.lhs.true137
	movq	24(%rsp), %rcx          # 8-byte Reload
	movq	8(%rcx), %rcx
	movl	(%rcx), %ecx
	andq	$16711680, %rcx         # imm = 0xFF0000
	cmpq	$327680, %rcx           # imm = 0x50000
	jne	.LBB1_39
# BB#38:                                # %lor.lhs.false146
	movzbl	target_flags+3(%rip), %ecx
	testq	$2, %rcx
	je	.LBB1_55
.LBB1_39:                               # %if.then149
	movq	8(%rax), %rax
	cmpq	$1, %rax
	je	.LBB1_40
# BB#41:                                # %if.end163
	andq	$-2, %rax
	cmpq	$2, %rax
	jne	.LBB1_55
# BB#42:                                # %land.lhs.true169
	movl	ix86_cpu(%rip), %ecx
	movl	x86_decompose_lea(%rip), %eax
	movq	$1, %rdx
	shlq	%cl, %rdx
	andq	%rax, %rdx
	testq	%r14, %rdx
	jne	.LBB1_55
# BB#43:                                # %land.lhs.true173
	movq	ix86_cost(%rip), %rcx
	movslq	4(%rcx), %rax
	movslq	12(%rcx), %rcx
	cmpq	%rcx, %rax
	jle	.LBB1_44
.LBB1_55:                               # %sw.bb183
	movzbl	target_flags+3(%rip), %eax
	testq	$2, %rax
	jne	.LBB1_62
# BB#56:                                # %land.lhs.true186
	movq	24(%rsp), %rax          # 8-byte Reload
	movq	8(%rax), %rax
	movl	(%rax), %eax
	andq	$16711680, %rax         # imm = 0xFF0000
	cmpq	$327680, %rax           # imm = 0x50000
	jne	.LBB1_62
# BB#57:                                # %if.then195
	movq	24(%rsp), %rax          # 8-byte Reload
	movq	16(%rax), %rax
	movzbl	(%rax), %ecx
	cmpq	$54, %rcx
	jne	.LBB1_60
# BB#58:                                # %if.then203
	movq	ix86_cost(%rip), %rcx
	movq	8(%rax), %rdx
	movl	12(%rcx), %eax
	cmpq	$33, %rdx
	jl	.LBB1_106
# BB#59:                                # %do.body213
	leaq	8(,%rax,4), %rax
	jmp	.LBB1_46
.LBB1_62:                               # %if.else247
	movq	24(%rsp), %rax          # 8-byte Reload
	movq	16(%rax), %rax
	movzbl	(%rax), %ecx
	movq	ix86_cost(%rip), %rax
	cmpq	$54, %rcx
	jne	.LBB1_64
# BB#63:                                # %do.body256
	movl	12(%rax), %eax
	jmp	.LBB1_44
.LBB1_64:                               # %do.body261
	movl	8(%rax), %eax
	jmp	.LBB1_44
.LBB1_70:                               # %do.body291
	movq	ix86_cost(%rip), %rax
	movl	20(%rax), %ecx
	movl	16(%rax), %edx
	imulq	$7, %rcx, %rax
	addq	%rdx, %rax
	jmp	.LBB1_44
.LBB1_60:                               # %if.else225
	movq	ix86_cost(%rip), %rax
	movl	8(%rax), %eax
	cmpq	$83, %rcx
	je	.LBB1_106
# BB#61:                                # %do.body239
	leaq	(%rax,%rax,2), %rax
	leaq	8(,%rax,8), %rax
	jmp	.LBB1_46
.LBB1_116:
	movabsq	$0, %r13
	jmp	.LBB1_33
.LBB1_121:
	movabsq	$0, %r13
	orq	$2, %r13
	jmp	.LBB1_33
.LBB1_88:                               # %land.lhs.true387
	cmpq	$134, %rcx
	je	.LBB1_90
# BB#89:                                # %land.lhs.true387
	cmpq	$140, %rcx
	jne	.LBB1_82
.LBB1_90:                               # %if.then451
	movq	8(%rsi), %rcx
	cmpq	$8, %rcx
	ja	.LBB1_95
# BB#91:                                # %if.then451
	movq	$1, %rdx
	shlq	%cl, %rdx
	testq	$276, %rdx              # imm = 0x114
	je	.LBB1_95
# BB#92:                                # %if.then472
	movq	ix86_cost(%rip), %rcx
	movl	4(%rcx), %ebx
	movq	16(%rax), %rax
	movq	%rax, %rdi
	movq	%r15, %rsi
	callq	rtx_cost
	movq	24(%rsp), %r14          # 8-byte Reload
	movq	8(%r14), %rcx
	movq	8(%rcx), %rcx
	movq	8(%rcx), %rcx
	leaq	(%rax,%rbx,4), %rbx
	movq	%rcx, %rdi
	movq	%r15, %rsi
	callq	rtx_cost
	movq	16(%r14), %rcx
	movq	%rax, %r14
	addq	%rbx, %r14
	movq	%rcx, %rdi
	movq	%r15, %rsi
	callq	rtx_cost
	addq	%r14, %rax
	jmp	.LBB1_34
.LBB1_82:                               # %if.else500
	cmpq	$78, %rdx
	jne	.LBB1_93
# BB#83:                                # %land.lhs.true508
	movq	16(%rax), %rcx
	movzbl	(%rcx), %esi
	cmpq	$54, %rsi
	jne	.LBB1_93
# BB#84:                                # %if.then519
	movq	8(%rcx), %rcx
	cmpq	$8, %rcx
	ja	.LBB1_95
# BB#85:                                # %if.then519
	movq	$1, %rdx
	shlq	%cl, %rdx
	testq	$276, %rdx              # imm = 0x114
	je	.LBB1_95
# BB#86:                                # %if.then538
	movq	ix86_cost(%rip), %rcx
	movq	8(%rax), %rax
	movl	4(%rcx), %ebx
	movq	%rax, %rdi
	movq	%r15, %rsi
	callq	rtx_cost
	movq	24(%rsp), %rcx          # 8-byte Reload
	movq	16(%rcx), %rcx
	leaq	(%rax,%rbx,4), %rbx
	movq	%rcx, %rdi
	jmp	.LBB1_87
.LBB1_93:                               # %if.else555
	cmpq	$75, %rdx
	jne	.LBB1_95
.LBB1_94:                               # %if.then563
	movq	ix86_cost(%rip), %rcx
	movl	4(%rcx), %r14d
	movq	8(%rax), %rdi
	movq	%r15, %rsi
	callq	rtx_cost
	movq	24(%rsp), %rbx          # 8-byte Reload
	movq	8(%rbx), %rcx
	movq	16(%rcx), %rdi
	leaq	(%rax,%r14,4), %r14
	movq	%r15, %rsi
	callq	rtx_cost
	movq	16(%rbx), %rdi
	movq	%rax, %rbx
	addq	%r14, %rbx
.LBB1_87:                               # %if.then538
	movq	%r15, %rsi
	callq	rtx_cost
	addq	%rbx, %rax
	jmp	.LBB1_34
.LBB1_95:                               # %sw.bb591
	movl	target_flags(%rip), %eax
	testq	$33554432, %rax         # imm = 0x2000000
	jne	.LBB1_103
# BB#96:                                # %land.lhs.true594
	movq	24(%rsp), %rcx          # 8-byte Reload
	movl	(%rcx), %ecx
	andq	$16711680, %rcx         # imm = 0xFF0000
	cmpq	$327680, %rcx           # imm = 0x50000
	jne	.LBB1_103
# BB#97:                                # %if.then600
	movq	ix86_cost(%rip), %rax
	movl	(%rax), %eax
	movq	%rax, 16(%rsp)          # 8-byte Spill
	movq	24(%rsp), %rbx          # 8-byte Reload
	movq	8(%rbx), %rdi
	movq	%r15, %rsi
	callq	rtx_cost
	movq	8(%rbx), %rcx
	movl	(%rcx), %ecx
	movq	16(%rbx), %rdi
	movq	%rbx, %r13
	andq	$16711680, %rcx         # imm = 0xFF0000
	cmpq	$327680, %rcx           # imm = 0x50000
	movabsq	$0, %r12
	movabsq	$1, %r14
	movq	%r12, %rcx
	je	.LBB1_99
# BB#98:                                # %if.then600
	movq	%r14, %rcx
.LBB1_99:                               # %if.then600
	shlq	%cl, %rax
	movq	16(%rsp), %rcx          # 8-byte Reload
	leaq	(%rax,%rcx,8), %rbx
	movq	%r15, %rsi
	callq	rtx_cost
	movq	16(%r13), %rcx
	movl	(%rcx), %ecx
	andq	$16711680, %rcx         # imm = 0xFF0000
	cmpq	$327680, %rcx           # imm = 0x50000
	je	.LBB1_101
# BB#100:                               # %if.then600
	movq	%r14, %r12
.LBB1_101:                              # %if.then600
	movq	%r12, %rcx
	shlq	%cl, %rax
	addq	%rax, %rbx
	movq	%rbx, %rax
	jmp	.LBB1_34
.LBB1_103:                              # %sw.bb633
	testq	$33554432, %rax         # imm = 0x2000000
	jne	.LBB1_40
# BB#104:                               # %land.lhs.true636
	movq	24(%rsp), %rax          # 8-byte Reload
	movl	(%rax), %eax
	andq	$16711680, %rax         # imm = 0xFF0000
	cmpq	$327680, %rax           # imm = 0x50000
	jne	.LBB1_40
# BB#105:                               # %do.body643
	movq	ix86_cost(%rip), %rax
	movl	(%rax), %eax
.LBB1_106:                              # %do.body219
	movq	$3, %rcx
	jmp	.LBB1_45
.LBB1_40:                               # %do.body159
	movq	ix86_cost(%rip), %rax
	movl	(%rax), %eax
.LBB1_44:                               # %do.body177
	movq	$2, %rcx
.LBB1_45:                               # %sw.epilog707
	shlq	%cl, %rax
.LBB1_46:                               # %sw.epilog707
	movq	%rbx, 16(%rsp)          # 8-byte Spill
	movq	rtx_format(,%rbx,8), %r15
	movzbl	rtx_length(%rbx), %r14d
	movq	%rbx, %r12
	movq	%rax, %r13
	jmp	.LBB1_47
	.align	16, 0x90
.LBB1_124:                              # %if.then720
                                        #   in Loop: Header=BB1_47 Depth=1
	movq	24(%rsp), %rax          # 8-byte Reload
	movq	(%rax,%rbx,8), %rdi
	movq	%r12, %rsi
	callq	rtx_cost
	addq	%rax, %r13
.LBB1_47:                               # %for.cond.outer
                                        # =>This Loop Header: Depth=1
                                        #     Child Loop BB1_48 Depth 2
                                        #     Child Loop BB1_53 Depth 2
	movq	$32, %rcx
	shlq	%cl, %r14
	movq	$32, %rcx
	sarq	%cl, %r14
.LBB1_48:                               # %for.cond
                                        #   Parent Loop BB1_47 Depth=1
                                        # =>  This Inner Loop Header: Depth=2
	movq	%r14, %rbx
	movq	$32, %rcx
	movq	%rbx, %rax
	shlq	%cl, %rax
	movq	$32, %rcx
	sarq	%cl, %rax
	testq	%rax, %rax
	jle	.LBB1_33
# BB#49:                                # %for.body
                                        #   in Loop: Header=BB1_48 Depth=2
	movzbl	-1(%r15,%rbx), %eax
	leaq	-1(%rbx), %r14
	cmpq	$101, %rax
	je	.LBB1_124
# BB#50:                                # %for.body
                                        #   in Loop: Header=BB1_48 Depth=2
	cmpq	$69, %rax
	jne	.LBB1_48
# BB#51:                                # %for.cond734.preheader
                                        #   in Loop: Header=BB1_47 Depth=1
	movq	24(%rsp), %rax          # 8-byte Reload
	movq	(%rax,%rbx,8), %rax
	movslq	(%rax), %rcx
	testq	%rcx, %rcx
	jle	.LBB1_47
# BB#52:                                # %for.body740.preheader
                                        #   in Loop: Header=BB1_47 Depth=1
	movq	$1, %rcx
.LBB1_53:                               # %for.body740
                                        #   Parent Loop BB1_47 Depth=1
                                        # =>  This Inner Loop Header: Depth=2
	movq	(%rax,%rcx,8), %rdi
	movq	%r13, 8(%rsp)           # 8-byte Spill
	movq	16(%rsp), %rsi          # 8-byte Reload
	movq	%rcx, %r12
	callq	rtx_cost
	movq	%rax, %r13
	movq	24(%rsp), %rax          # 8-byte Reload
	movq	(%rax,%rbx,8), %rax
	movq	8(%rsp), %rcx           # 8-byte Reload
	addq	%rcx, %r13
	movslq	(%rax), %rdx
	movq	$32, %rcx
	movq	%r12, %rsi
	shlq	%cl, %rsi
	movq	$32, %rcx
	sarq	%cl, %rsi
	movq	%r12, %rcx
	incq	%rcx
	cmpq	%rdx, %rsi
	jl	.LBB1_53
# BB#54:                                #   in Loop: Header=BB1_47 Depth=1
	movq	16(%rsp), %r12          # 8-byte Reload
	jmp	.LBB1_47
.LBB1_33:                               # %return
	movq	%r13, %rax
.LBB1_34:                               # %return
	addq	$32, %rsp
	popq	%rbx
	popq	%r12
	popq	%r13
	popq	%r14
	popq	%r15
	retq
.Ltmp26:
	.size	rtx_cost, .Ltmp26-rtx_cost
	.cfi_endproc
	.section	.rodata,"a",@progbits
	.align	8
.LJTI1_0:
	.quad	.LBB1_107
	.quad	.LBB1_118
	.quad	.LBB1_46
	.quad	.LBB1_46
	.quad	.LBB1_107
	.quad	.LBB1_46
	.quad	.LBB1_46
	.quad	.LBB1_33
	.quad	.LBB1_46
	.quad	.LBB1_19
	.quad	.LBB1_46
	.quad	.LBB1_46
	.quad	.LBB1_46
	.quad	.LBB1_107
	.quad	.LBB1_107
	.quad	.LBB1_46
	.quad	.LBB1_46
	.quad	.LBB1_46
	.quad	.LBB1_46
	.quad	.LBB1_46
	.quad	.LBB1_46
	.quad	.LBB1_72
	.quad	.LBB1_95
	.quad	.LBB1_102
	.quad	.LBB1_65
	.quad	.LBB1_71
	.quad	.LBB1_71
	.quad	.LBB1_71
	.quad	.LBB1_71
	.quad	.LBB1_95
	.quad	.LBB1_95
	.quad	.LBB1_95
	.quad	.LBB1_102
	.quad	.LBB1_36
	.quad	.LBB1_55
	.quad	.LBB1_55
	.quad	.LBB1_55
	.quad	.LBB1_55

	.text
	.globl	address_cost
	.align	16, 0x90
	.type	address_cost,@function
address_cost:                           # @address_cost
	.cfi_startproc
# BB#0:                                 # %entry
	pushq	%rbx
.Ltmp29:
	.cfi_def_cfa_offset 16
.Ltmp30:
	.cfi_offset %rbx, -16
	movq	%rdi, %rbx
	movzbl	(%rbx), %eax
	cmpq	$70, %rax
	jne	.LBB2_3
# BB#1:                                 # %land.lhs.true
	movq	8(%rbx), %rax
	movzbl	(%rax), %eax
	cmpq	$61, %rax
	jne	.LBB2_3
# BB#2:
	movabsq	$4294967295, %rax       # imm = 0xFFFFFFFF
	popq	%rbx
	retq
.LBB2_3:                                # %if.end
	movq	%rsi, %rdi
	movq	%rbx, %rsi
	callq	memory_address_p
	movabsq	$4294967295, %rcx       # imm = 0xFFFFFFFF
	testq	%rcx, %rax
	movq	$1000, %rax             # imm = 0x3E8
	je	.LBB2_4
# BB#5:                                 # %if.end5
	movq	%rbx, %rdi
	popq	%rbx
	jmp	ix86_address_cost  # TAILCALL
.LBB2_4:                                # %return
	popq	%rbx
	retq
.Ltmp31:
	.size	address_cost, .Ltmp31-address_cost
	.cfi_endproc

	.globl	gen_lowpart_if_possible
	.align	16, 0x90
	.type	gen_lowpart_if_possible,@function
gen_lowpart_if_possible:                # @gen_lowpart_if_possible
	.cfi_startproc
# BB#0:                                 # %entry
	pushq	%r14
.Ltmp35:
	.cfi_def_cfa_offset 16
	pushq	%rbx
.Ltmp36:
	.cfi_def_cfa_offset 24
	pushq	%rax
.Ltmp37:
	.cfi_def_cfa_offset 32
.Ltmp38:
	.cfi_offset %rbx, -24
.Ltmp39:
	.cfi_offset %r14, -16
	movq	%rsi, %rbx
	movq	%rdi, %r14
                                        # kill: RDI<def> R14<kill>
                                        # kill: RSI<def> RBX<kill>
	callq	gen_lowpart_common
	testq	%rax, %rax
	jne	.LBB3_4
# BB#1:                                 # %if.else
	movzbl	(%rbx), %ecx
	xorq	%rax, %rax
	cmpq	$66, %rcx
	jne	.LBB3_4
# BB#2:                                 # %if.then1
	xorq	%rdx, %rdx
	xorq	%rcx, %rcx
	movq	$1, %r8
	movq	%rbx, %rdi
	movq	%r14, %rsi
	callq	adjust_address_1
	movq	%rax, %rbx
	movq	8(%rbx), %rsi
	movq	%r14, %rdi
	callq	memory_address_p
	movq	%rax, %rcx
	movabsq	$4294967295, %rax       # imm = 0xFFFFFFFF
	andq	%rcx, %rax
	je	.LBB3_4
# BB#3:                                 # %if.then1
	movq	%rbx, %rax
.LBB3_4:                                # %return
	addq	$8, %rsp
	popq	%rbx
	popq	%r14
	retq
.Ltmp40:
	.size	gen_lowpart_if_possible, .Ltmp40-gen_lowpart_if_possible
	.cfi_endproc

	.globl	cse_end_of_basic_block
	.align	16, 0x90
	.type	cse_end_of_basic_block,@function
cse_end_of_basic_block:                 # @cse_end_of_basic_block
	.cfi_startproc
# BB#0:                                 # %entry
	pushq	%r15
.Ltmp47:
	.cfi_def_cfa_offset 16
	pushq	%r14
.Ltmp48:
	.cfi_def_cfa_offset 24
	pushq	%r13
.Ltmp49:
	.cfi_def_cfa_offset 32
	pushq	%r12
.Ltmp50:
	.cfi_def_cfa_offset 40
	pushq	%rbx
.Ltmp51:
	.cfi_def_cfa_offset 48
	subq	$144, %rsp
.Ltmp52:
	.cfi_def_cfa_offset 192
.Ltmp53:
	.cfi_offset %rbx, -48
.Ltmp54:
	.cfi_offset %r12, -40
.Ltmp55:
	.cfi_offset %r13, -32
.Ltmp56:
	.cfi_offset %r14, -24
.Ltmp57:
	.cfi_offset %r15, -16
	movq	%rdi, %r13
	movslq	8(%r13), %rax
	movzbl	(%r13), %edi
	movq	uid_cuid(%rip), %rbx
	movzbl	rtx_class(%rdi), %edi
	movl	(%rbx,%rax,4), %r12d
	movq	%r8, %r14
	movq	%rcx, 80(%rsp)          # 8-byte Spill
	movq	%rdx, 136(%rsp)         # 8-byte Spill
	movq	%rsi, %rbx
	cmpq	$105, %rdi
	movq	%r13, 40(%rsp)          # 8-byte Spill
	je	.LBB4_2
# BB#1:                                 # %cond.false
	movq	%r13, %rdi
	callq	next_real_insn
	movq	%rax, 40(%rsp)          # 8-byte Spill
.LBB4_2:                                # %cond.end
	movq	%rbx, 64(%rsp)          # 8-byte Spill
	movslq	24(%rbx), %rdx
	movq	$4, %rcx
	movq	%rdx, %rax
	shlq	%cl, %rax
	leaq	40(%rax,%rbx), %rax
	.align	16, 0x90
.LBB4_3:                                # %while.cond
                                        # =>This Inner Loop Header: Depth=1
	movq	%rdx, %r15
	movq	$32, %rcx
                                        # kill: RDX<def> R15<kill>
	shlq	%cl, %rdx
	movq	$32, %rcx
	sarq	%cl, %rdx
	testq	%rdx, %rdx
	jle	.LBB4_6
# BB#4:                                 # %while.body
                                        #   in Loop: Header=BB4_3 Depth=1
	movl	-16(%rax), %ecx
	leaq	-1(%r15), %rdx
	addq	$-16, %rax
	cmpq	$1, %rcx
	je	.LBB4_3
# BB#5:                                 # %if.then
	movq	$1, %rcx
	movl	%ecx, (%rax)
.LBB4_6:                                # %while.end
	movl	(%r13), %eax
	andq	$16711680, %rax         # imm = 0xFF0000
	cmpq	$131072, %rax           # imm = 0x20000
	movabsq	$0, %rax
	movq	%rax, 24(%rsp)          # 8-byte Spill
	je	.LBB4_8
# BB#7:                                 # %while.end
	movq	%r14, 24(%rsp)          # 8-byte Spill
.LBB4_8:                                # %while.end
	movabsq	$0, %rax
	movq	%rax, 56(%rsp)          # 8-byte Spill
	movq	%r12, %r14
	je	.LBB4_10
# BB#9:                                 # %while.end
	movq	136(%rsp), %rax         # 8-byte Reload
	movq	%rax, 56(%rsp)          # 8-byte Spill
.LBB4_10:                               # %while.end
	testq	%r13, %r13
	movabsq	$0, %r9
	je	.LBB4_11
# BB#12:                                # %land.rhs.lr.ph.lr.ph
	movq	56(%rsp), %rcx          # 8-byte Reload
	movq	24(%rsp), %rax          # 8-byte Reload
	orq	%rax, %rcx
	movq	%rcx, 48(%rsp)          # 8-byte Spill
	movq	64(%rsp), %rax          # 8-byte Reload
	leaq	32(%rax), %rax
	movq	%rax, 16(%rsp)          # 8-byte Spill
	movabsq	$0, %r10
	movabsq	$4294967201, %r11       # imm = 0xFFFFFFA1
	movq	$0, 120(%rsp)           # 8-byte Folded Spill
	movq	%r14, %r8
	xorq	%r9, %r9
	jmp	.LBB4_13
.LBB4_11:
	xorq	%rax, %rax
	movq	%r14, %r8
	jmp	.LBB4_100
.LBB4_44:                               # %if.then144
                                        #   in Loop: Header=BB4_13 Depth=1
	movq	$4, %rcx
	movq	32(%rsp), %rdx          # 8-byte Reload
	shlq	%cl, %rdx
	movq	64(%rsp), %rax          # 8-byte Reload
	movl	40(%rax,%rdx), %eax
	cmpq	$1, %rax
	movq	%rbx, %r8
	je	.LBB4_46
# BB#45:                                # %if.then151
                                        #   in Loop: Header=BB4_13 Depth=1
	movq	64(%r13), %r13
.LBB4_46:                               # %if.end155
                                        #   in Loop: Header=BB4_13 Depth=1
	incq	120(%rsp)               # 8-byte Folded Spill
	jmp	.LBB4_99
.LBB4_71:                               # %for.cond281.preheader
                                        #   in Loop: Header=BB4_13 Depth=1
	movq	$32, %rcx
	movq	120(%rsp), %rbx         # 8-byte Reload
	movq	%rbx, %rdx
	shlq	%cl, %rdx
	movq	$32, %rcx
	sarq	%cl, %rdx
	xorq	%rax, %rax
	testq	%rdx, %rdx
	movq	%r14, %r11
	jle	.LBB4_72
# BB#73:                                #   in Loop: Header=BB4_13 Depth=1
	movq	16(%rsp), %rdx          # 8-byte Reload
	movq	112(%rsp), %r13         # 8-byte Reload
	movq	104(%rsp), %r8          # 8-byte Reload
	.align	16, 0x90
.LBB4_77:                               # %for.body284
                                        #   Parent Loop BB4_13 Depth=1
                                        # =>  This Inner Loop Header: Depth=2
	movq	(%rdx), %rcx
	cmpq	%r13, %rcx
	je	.LBB4_78
# BB#76:                                # %for.cond281
                                        #   in Loop: Header=BB4_77 Depth=2
	incq	%rax
	movq	$32, %rcx
	movq	%rax, %rsi
	shlq	%cl, %rsi
	movq	$32, %rcx
	sarq	%cl, %rsi
	movq	$32, %rcx
	movq	%rbx, %rdi
	shlq	%cl, %rdi
	movq	$32, %rcx
	sarq	%cl, %rdi
	addq	$16, %rdx
	cmpq	%rdi, %rsi
	jl	.LBB4_77
	jmp	.LBB4_78
.LBB4_85:                               # %for.cond336.preheader
                                        #   in Loop: Header=BB4_13 Depth=1
	movq	$32, %rcx
	movq	120(%rsp), %r8          # 8-byte Reload
	movq	%r8, %rdx
	shlq	%cl, %rdx
	movq	$32, %rcx
	sarq	%cl, %rdx
	xorq	%rax, %rax
	testq	%rdx, %rdx
	movq	%r14, %r11
	jle	.LBB4_86
# BB#87:                                #   in Loop: Header=BB4_13 Depth=1
	movq	16(%rsp), %rdx          # 8-byte Reload
	movq	112(%rsp), %r13         # 8-byte Reload
	.align	16, 0x90
.LBB4_89:                               # %for.body339
                                        #   Parent Loop BB4_13 Depth=1
                                        # =>  This Inner Loop Header: Depth=2
	movq	(%rdx), %rcx
	cmpq	%r13, %rcx
	je	.LBB4_90
# BB#88:                                # %for.cond336
                                        #   in Loop: Header=BB4_89 Depth=2
	incq	%rax
	movq	$32, %rcx
	movq	%rax, %rsi
	shlq	%cl, %rsi
	movq	$32, %rcx
	sarq	%cl, %rsi
	movq	$32, %rcx
	movq	%r8, %rdi
	shlq	%cl, %rdi
	movq	$32, %rcx
	sarq	%cl, %rdi
	addq	$16, %rdx
	cmpq	%rdi, %rsi
	jl	.LBB4_89
	jmp	.LBB4_90
.LBB4_83:                               #   in Loop: Header=BB4_13 Depth=1
	movq	88(%rsp), %r15          # 8-byte Reload
	movq	112(%rsp), %r13         # 8-byte Reload
	movq	104(%rsp), %r8          # 8-byte Reload
	movq	%rcx, %r14
	jmp	.LBB4_99
.LBB4_72:                               #   in Loop: Header=BB4_13 Depth=1
	movq	112(%rsp), %r13         # 8-byte Reload
	movq	104(%rsp), %r8          # 8-byte Reload
.LBB4_78:                               # %for.end295
                                        #   in Loop: Header=BB4_13 Depth=1
	movq	%rbx, %rcx
	movabsq	$4294967295, %rdx       # imm = 0xFFFFFFFF
	andq	%rdx, %rcx
	andq	%rdx, %rax
	cmpq	%rcx, %rax
	movq	%r12, %r10
	jne	.LBB4_79
# BB#80:                                # %if.end299
                                        #   in Loop: Header=BB4_13 Depth=1
	movq	72(%rsp), %rax          # 8-byte Reload
	movq	%r13, (%rax)
	movq	$4, %rcx
	movq	32(%rsp), %rdx          # 8-byte Reload
	shlq	%cl, %rdx
	movq	64(%rsp), %rax          # 8-byte Reload
	xorq	%rcx, %rcx
	movl	%ecx, 40(%rax,%rdx)
	movq	64(%r13), %r13
	movq	24(%r13), %rax
	incq	%rbx
	movq	%rbx, 120(%rsp)         # 8-byte Spill
	movq	$2, %rcx
	movb	%cl, 2(%rax)
	movq	%rbx, %r15
	jmp	.LBB4_98
.LBB4_86:                               #   in Loop: Header=BB4_13 Depth=1
	movq	112(%rsp), %r13         # 8-byte Reload
.LBB4_90:                               # %for.end350
                                        #   in Loop: Header=BB4_13 Depth=1
	movq	%r8, %rcx
	movabsq	$4294967295, %rdx       # imm = 0xFFFFFFFF
	andq	%rdx, %rcx
	andq	%rdx, %rax
	cmpq	%rcx, %rax
	movq	%r13, %rax
	movq	%r12, %r10
	jne	.LBB4_91
	.align	16, 0x90
.LBB4_92:                               # %for.cond358
                                        #   Parent Loop BB4_13 Depth=1
                                        # =>  This Inner Loop Header: Depth=2
	movq	24(%rax), %rax
	testq	%rax, %rax
	je	.LBB4_95
# BB#93:                                # %for.cond358
                                        #   in Loop: Header=BB4_92 Depth=2
	cmpq	%rbx, %rax
	je	.LBB4_95
# BB#94:                                # %for.body364
                                        #   in Loop: Header=BB4_92 Depth=2
	movzbl	(%rax), %ecx
	cmpq	$36, %rcx
	jne	.LBB4_92
	jmp	.LBB4_97
.LBB4_95:                               # %for.end375
                                        #   in Loop: Header=BB4_13 Depth=1
	cmpq	%rbx, %rax
	jne	.LBB4_97
# BB#96:                                # %if.then378
                                        #   in Loop: Header=BB4_13 Depth=1
	movq	72(%rsp), %rax          # 8-byte Reload
	movq	%r13, (%rax)
	movq	$4, %rcx
	movq	32(%rsp), %rdx          # 8-byte Reload
	shlq	%cl, %rdx
	movq	64(%rsp), %rax          # 8-byte Reload
	movq	$2, %rcx
	movl	%ecx, 40(%rax,%rdx)
	movq	64(%r13), %r13
	movq	24(%r13), %rax
	movq	120(%rsp), %rdx         # 8-byte Reload
	incq	%rdx
	movq	%rdx, 120(%rsp)         # 8-byte Spill
	movb	%cl, 2(%rax)
	movq	%rdx, %r15
.LBB4_97:                               # %if.end401
                                        #   in Loop: Header=BB4_13 Depth=1
	movq	104(%rsp), %r8          # 8-byte Reload
.LBB4_98:                               # %if.end401
                                        #   in Loop: Header=BB4_13 Depth=1
	movq	96(%rsp), %r14          # 8-byte Reload
	jmp	.LBB4_99
	.align	16, 0x90
.LBB4_13:                               # %land.rhs.lr.ph
                                        # =>This Loop Header: Depth=1
                                        #     Child Loop BB4_18 Depth 2
                                        #       Child Loop BB4_56 Depth 3
                                        #     Child Loop BB4_89 Depth 2
                                        #     Child Loop BB4_92 Depth 2
                                        #     Child Loop BB4_77 Depth 2
	movq	%r15, 88(%rsp)          # 8-byte Spill
	movq	48(%rsp), %rax          # 8-byte Reload
	movabsq	$4294967295, %rcx       # imm = 0xFFFFFFFF
	testq	%rcx, %rax
	movq	%r10, 128(%rsp)         # 8-byte Spill
	je	.LBB4_15
# BB#14:                                # %land.rhs.lr.ph
                                        #   in Loop: Header=BB4_13 Depth=1
	movabsq	$1, %rax
	movq	%rax, 128(%rsp)         # 8-byte Spill
.LBB4_15:                               # %land.rhs.lr.ph
                                        #   in Loop: Header=BB4_13 Depth=1
	movq	%r14, %rdi
	movq	$32, %rcx
	movq	120(%rsp), %rax         # 8-byte Reload
	shlq	%cl, %rax
	movq	$32, %rcx
	sarq	%cl, %rax
	movq	%rax, 32(%rsp)          # 8-byte Spill
	movq	$4, %rcx
	shlq	%cl, %rax
	movq	$32, %rcx
	movq	%r15, %rdx
	shlq	%cl, %rdx
	movq	$32, %rcx
	sarq	%cl, %rdx
	cmpq	$9, %rdx
	movq	%r10, %rcx
	jge	.LBB4_17
# BB#16:                                # %land.rhs.lr.ph
                                        #   in Loop: Header=BB4_13 Depth=1
	movabsq	$1, %rcx
.LBB4_17:                               # %land.rhs.lr.ph
                                        #   in Loop: Header=BB4_13 Depth=1
	movq	64(%rsp), %rdx          # 8-byte Reload
	leaq	32(%rdx,%rax), %rax
	movq	%rax, 72(%rsp)          # 8-byte Spill
	andq	%rcx, 128(%rsp)         # 8-byte Folded Spill
.LBB4_18:                               # %land.rhs
                                        #   Parent Loop BB4_13 Depth=1
                                        # =>  This Loop Header: Depth=2
                                        #       Child Loop BB4_56 Depth 3
	movl	(%r13), %eax
	movq	%rax, %rcx
	andq	$65535, %rcx            # imm = 0xFFFF
	cmpq	$36, %rcx
	je	.LBB4_19
# BB#20:                                # %while.body33
                                        #   in Loop: Header=BB4_18 Depth=2
	movq	80(%rsp), %rdx          # 8-byte Reload
	movabsq	$4294967295, %rsi       # imm = 0xFFFFFFFF
	testq	%rsi, %rdx
	movq	%rdi, %r14
	jne	.LBB4_24
# BB#21:                                # %while.body33
                                        #   in Loop: Header=BB4_18 Depth=2
	cmpq	$37, %rcx
	jne	.LBB4_24
# BB#22:                                # %land.lhs.true39
                                        #   in Loop: Header=BB4_18 Depth=2
	movl	40(%r13), %ecx
	cmpq	%r11, %rcx
	je	.LBB4_23
.LBB4_24:                               # %if.end46
                                        #   in Loop: Header=BB4_18 Depth=2
	movq	%r9, 136(%rsp)          # 8-byte Spill
	movq	16(%r13), %rdi
	testq	%rdi, %rdi
	je	.LBB4_29
# BB#25:                                # %land.lhs.true50
                                        #   in Loop: Header=BB4_18 Depth=2
	movzbl	(%rdi), %ecx
	cmpq	$34, %rcx
	jne	.LBB4_29
# BB#26:                                # %land.lhs.true58
                                        #   in Loop: Header=BB4_18 Depth=2
	movq	%r14, 96(%rsp)          # 8-byte Spill
	movq	%r8, %r12
	movq	%r11, %r14
	movq	%r10, %rbx
	movq	$28, %rsi
	xorq	%rdx, %rdx
	callq	find_reg_note
	testq	%rax, %rax
	jne	.LBB4_27
# BB#28:                                # %land.lhs.true58.if.end65_crit_edge
                                        #   in Loop: Header=BB4_18 Depth=2
	movl	(%r13), %eax
	movq	%rbx, %r10
	movq	%r14, %r11
	movq	%r12, %r8
	movq	96(%rsp), %r14          # 8-byte Reload
.LBB4_29:                               # %if.end65
                                        #   in Loop: Header=BB4_18 Depth=2
	andq	$65535, %rax            # imm = 0xFFFF
	movzbl	rtx_class(%rax), %ecx
	cmpq	$105, %rcx
	jne	.LBB4_32
# BB#30:                                # %land.lhs.true73
                                        #   in Loop: Header=BB4_18 Depth=2
	movq	32(%r13), %rcx
	movzbl	(%rcx), %edx
	cmpq	$39, %rdx
	jne	.LBB4_32
# BB#31:                                # %if.then81
                                        #   in Loop: Header=BB4_18 Depth=2
	movq	%r8, %rdx
	movq	8(%rcx), %rcx
	movl	(%rcx), %r8d
	jmp	.LBB4_35
	.align	16, 0x90
.LBB4_32:                               # %if.else87
                                        #   in Loop: Header=BB4_18 Depth=2
	movq	%r14, %r12
	movq	%r8, %rdx
	cmpq	$37, %rax
	movq	%r10, %r8
	je	.LBB4_34
# BB#33:                                # %if.else87
                                        #   in Loop: Header=BB4_18 Depth=2
	movabsq	$1, %r8
.LBB4_34:                               # %if.else87
                                        #   in Loop: Header=BB4_18 Depth=2
	movq	%r12, %r14
.LBB4_35:                               # %if.end95
                                        #   in Loop: Header=BB4_18 Depth=2
	movslq	8(%r13), %rdi
	movslq	max_uid(%rip), %rcx
	cmpq	%rcx, %rdi
	jle	.LBB4_37
# BB#36:                                #   in Loop: Header=BB4_18 Depth=2
	movq	%rdx, %rbx
	jmp	.LBB4_42
	.align	16, 0x90
.LBB4_37:                               # %land.lhs.true121
                                        #   in Loop: Header=BB4_18 Depth=2
	movq	uid_cuid(%rip), %rbx
	movslq	(%rbx,%rdi,4), %r9
	movq	$32, %rcx
	movq	%rdx, %rsi
                                        # kill: RDX<def> RSI<kill>
	shlq	%cl, %rdx
	movq	$32, %rcx
	sarq	%cl, %rdx
	cmpq	%rdx, %r9
	jge	.LBB4_39
# BB#38:                                # %land.lhs.true121
                                        #   in Loop: Header=BB4_18 Depth=2
	movq	%rsi, %r9
.LBB4_39:                               # %land.lhs.true121
                                        #   in Loop: Header=BB4_18 Depth=2
	movslq	(%rbx,%rdi,4), %rdi
	movq	$32, %rcx
	movq	%r14, %rdx
	shlq	%cl, %rdx
	movq	$32, %rcx
	sarq	%cl, %rdx
	cmpq	%rdx, %rdi
	jle	.LBB4_41
# BB#40:                                # %land.lhs.true121
                                        #   in Loop: Header=BB4_18 Depth=2
	movq	%r14, %rdi
.LBB4_41:                               # %land.lhs.true121
                                        #   in Loop: Header=BB4_18 Depth=2
	movq	%r9, %rbx
	movq	%rdi, %r14
.LBB4_42:                               # %if.end135
                                        #   in Loop: Header=BB4_18 Depth=2
	movq	136(%rsp), %r9          # 8-byte Reload
	addq	%r8, %r9
	movq	$32, %rcx
	movq	%r15, %rdx
	shlq	%cl, %rdx
	movq	$32, %rcx
	sarq	%cl, %rdx
	movq	$32, %rcx
	movq	120(%rsp), %rsi         # 8-byte Reload
	shlq	%cl, %rsi
	movq	$32, %rcx
	sarq	%cl, %rsi
	cmpq	%rdx, %rsi
	jge	.LBB4_47
# BB#43:                                # %land.lhs.true138
                                        #   in Loop: Header=BB4_18 Depth=2
	movq	72(%rsp), %rcx          # 8-byte Reload
	movq	(%rcx), %rcx
	cmpq	%r13, %rcx
	je	.LBB4_44
.LBB4_47:                               # %if.else156
                                        #   in Loop: Header=BB4_18 Depth=2
	cmpq	$33, %rax
	movq	%r10, %rax
	movq	%rbx, %r8
	jne	.LBB4_49
# BB#48:                                # %if.else156
                                        #   in Loop: Header=BB4_18 Depth=2
	movabsq	$1, %rax
.LBB4_49:                               # %if.else156
                                        #   in Loop: Header=BB4_18 Depth=2
	movq	128(%rsp), %rcx         # 8-byte Reload
	andq	%rcx, %rax
	cmpq	$1, %rax
	jne	.LBB4_99
# BB#50:                                # %land.lhs.true167
                                        #   in Loop: Header=BB4_18 Depth=2
	movq	32(%r13), %rax
	movzbl	(%rax), %ecx
	cmpq	$47, %rcx
	jne	.LBB4_99
# BB#51:                                # %land.lhs.true175
                                        #   in Loop: Header=BB4_18 Depth=2
	movq	16(%rax), %rax
	movzbl	(%rax), %eax
	cmpq	$72, %rax
	jne	.LBB4_99
# BB#52:                                # %land.lhs.true186
                                        #   in Loop: Header=BB4_18 Depth=2
	movq	64(%r13), %rax
	testq	%rax, %rax
	je	.LBB4_99
# BB#53:                                # %land.lhs.true192
                                        #   in Loop: Header=BB4_18 Depth=2
	movl	32(%rax), %ecx
	cmpq	$1, %rcx
	jne	.LBB4_99
# BB#54:                                # %land.lhs.true201
                                        #   in Loop: Header=BB4_18 Depth=2
	cmpq	$0, 24(%rax)
	je	.LBB4_99
# BB#55:                                # %for.cond.preheader
                                        #   in Loop: Header=BB4_18 Depth=2
	movq	%r8, 104(%rsp)          # 8-byte Spill
	movq	%r13, 112(%rsp)         # 8-byte Spill
	movq	%r9, 136(%rsp)          # 8-byte Spill
	movq	16(%rax), %rbx
	jmp	.LBB4_56
	.align	16, 0x90
.LBB4_67:                               # %for.cond.backedge
                                        #   in Loop: Header=BB4_56 Depth=3
	movq	(%r12), %rbx
.LBB4_56:                               # %for.cond.preheader
                                        #   Parent Loop BB4_13 Depth=1
                                        #     Parent Loop BB4_18 Depth=2
                                        # =>    This Inner Loop Header: Depth=3
	testq	%rbx, %rbx
	je	.LBB4_57
# BB#58:                                # %for.body
                                        #   in Loop: Header=BB4_56 Depth=3
	movl	(%rbx), %eax
	movq	%rax, %rcx
	andq	$65535, %rcx            # imm = 0xFFFF
	cmpq	$37, %rcx
	jne	.LBB4_64
# BB#59:                                # %lor.lhs.false222
                                        #   in Loop: Header=BB4_56 Depth=3
	movl	40(%rbx), %ecx
	cmpq	%r11, %rcx
	je	.LBB4_64
# BB#60:                                # %lor.lhs.false228
                                        #   in Loop: Header=BB4_56 Depth=3
	movq	16(%rbx), %rdi
	leaq	16(%rbx), %r12
	testq	%rdi, %rdi
	je	.LBB4_67
# BB#61:                                # %land.lhs.true233
                                        #   in Loop: Header=BB4_56 Depth=3
	movzbl	(%rdi), %eax
	cmpq	$34, %rax
	jne	.LBB4_67
# BB#62:                                # %land.lhs.true241
                                        #   in Loop: Header=BB4_56 Depth=3
	movq	$28, %rsi
	xorq	%rdx, %rdx
	movq	%r10, %r13
	movq	%r11, %r15
	callq	find_reg_note
	movq	%r15, %r11
	movq	%r13, %r10
	testq	%rax, %rax
	je	.LBB4_67
# BB#63:                                # %land.lhs.true241.land.lhs.true247_crit_edge
                                        #   in Loop: Header=BB4_56 Depth=3
	movl	(%rbx), %eax
	.align	16, 0x90
.LBB4_64:                               # %land.lhs.true247
                                        #   in Loop: Header=BB4_56 Depth=3
	andq	$65535, %rax            # imm = 0xFFFF
	cmpq	$36, %rax
	jne	.LBB4_68
# BB#65:                                # %lor.lhs.false252
                                        #   in Loop: Header=BB4_56 Depth=3
	movl	32(%rbx), %ecx
	testq	%rcx, %rcx
	jne	.LBB4_68
# BB#66:                                # %lor.lhs.false252.for.cond.backedge_crit_edge
                                        #   in Loop: Header=BB4_56 Depth=3
	addq	$16, %rbx
	movq	%rbx, %r12
	jmp	.LBB4_67
	.align	16, 0x90
.LBB4_68:                               # %for.end
                                        #   in Loop: Header=BB4_18 Depth=2
	movq	56(%rsp), %rcx          # 8-byte Reload
	movabsq	$4294967295, %rdx       # imm = 0xFFFFFFFF
	testq	%rdx, %rcx
	je	.LBB4_81
# BB#69:                                # %for.end
                                        #   in Loop: Header=BB4_18 Depth=2
	cmpq	$35, %rax
	jne	.LBB4_81
# BB#70:                                # %if.then272
                                        #   in Loop: Header=BB4_18 Depth=2
	movq	%r14, %rax
	movq	%r11, %r14
	movq	%rax, 96(%rsp)          # 8-byte Spill
	movq	%r10, %r12
	movq	%rbx, %rdi
	callq	next_real_insn
	movq	40(%rsp), %rcx          # 8-byte Reload
	cmpq	%rcx, %rax
	movq	136(%rsp), %r9          # 8-byte Reload
	movq	88(%rsp), %r15          # 8-byte Reload
	je	.LBB4_74
	jmp	.LBB4_71
	.align	16, 0x90
.LBB4_81:                               # %if.else317
                                        #   in Loop: Header=BB4_18 Depth=2
	movq	24(%rsp), %rcx          # 8-byte Reload
	movabsq	$4294967295, %rdx       # imm = 0xFFFFFFFF
	testq	%rdx, %rcx
	je	.LBB4_57
# BB#82:                                # %if.else317
                                        #   in Loop: Header=BB4_18 Depth=2
	movq	%r14, %rcx
	cmpq	$36, %rax
	movq	136(%rsp), %r9          # 8-byte Reload
	je	.LBB4_83
# BB#84:                                # %if.then327
                                        #   in Loop: Header=BB4_18 Depth=2
	movq	%r11, %r14
	movq	%rcx, 96(%rsp)          # 8-byte Spill
	movq	%r10, %r12
	movq	%rbx, %rdi
	movq	%r9, %r15
	callq	next_real_insn
	movq	%r15, %r9
	movq	40(%rsp), %rcx          # 8-byte Reload
	cmpq	%rcx, %rax
	movq	88(%rsp), %r15          # 8-byte Reload
	jne	.LBB4_85
.LBB4_74:                               # %while.cond28.backedge
                                        #   in Loop: Header=BB4_18 Depth=2
	movq	112(%rsp), %r13         # 8-byte Reload
	movq	24(%r13), %r13
	xorq	%rax, %rax
	testq	%r13, %r13
	movq	104(%rsp), %r8          # 8-byte Reload
	movq	%r12, %r10
	movq	96(%rsp), %rdi          # 8-byte Reload
	movq	%r14, %r11
	jne	.LBB4_18
	jmp	.LBB4_75
	.align	16, 0x90
.LBB4_57:                               #   in Loop: Header=BB4_13 Depth=1
	movq	136(%rsp), %r9          # 8-byte Reload
	movq	88(%rsp), %r15          # 8-byte Reload
	movq	112(%rsp), %r13         # 8-byte Reload
	movq	104(%rsp), %r8          # 8-byte Reload
.LBB4_99:                               # %if.end401
                                        #   in Loop: Header=BB4_13 Depth=1
	movq	24(%r13), %r13
	xorq	%rax, %rax
	testq	%r13, %r13
	jne	.LBB4_13
	jmp	.LBB4_100
.LBB4_19:
	movq	%r13, %rax
	movq	%rdi, %r14
	jmp	.LBB4_100
.LBB4_23:
	movq	%r13, %rax
	jmp	.LBB4_100
.LBB4_75:
	movq	%rdi, %r14
	jmp	.LBB4_100
.LBB4_27:
	movq	%r13, %rax
	movq	136(%rsp), %r9          # 8-byte Reload
	movq	%r12, %r8
	movq	96(%rsp), %r14          # 8-byte Reload
.LBB4_100:                              # %while.end405
	movq	64(%rsp), %rdi          # 8-byte Reload
	movl	%r14d, (%rdi)
	movl	%r8d, 4(%rdi)
	movl	%r9d, 8(%rdi)
	movq	%rax, 16(%rdi)
	movq	$32, %rcx
	movq	%r15, %rax
	shlq	%cl, %rax
	movq	$32, %rcx
	sarq	%cl, %rax
	movq	$4, %rcx
	movq	%rax, %rdx
	shlq	%cl, %rdx
	leaq	24(%rdx,%rdi), %rsi
	movq	%rdi, %rbx
	movq	%rax, %rcx
	.align	16, 0x90
.LBB4_101:                              # %for.cond410
                                        # =>This Inner Loop Header: Depth=1
	movq	%rcx, %rdx
	movq	$32, %rcx
	movq	%rdx, %rdi
	shlq	%cl, %rdi
	movq	$32, %rcx
	sarq	%cl, %rdi
	testq	%rdi, %rdi
	jle	.LBB4_103
# BB#102:                               # %for.body413
                                        #   in Loop: Header=BB4_101 Depth=1
	movl	(%rsi), %edi
	leaq	-1(%rdx), %rcx
	addq	$-16, %rsi
	cmpq	$1, %rdi
	je	.LBB4_101
.LBB4_103:                              # %for.end424
	movabsq	$4294967295, %rcx       # imm = 0xFFFFFFFF
	andq	%rcx, %rdx
	je	.LBB4_105
# BB#104:                               # %for.end424
	movq	%r15, %rdx
.LBB4_105:                              # %for.end424
	movl	%edx, 24(%rbx)
	movq	$4, %rcx
	shlq	%cl, %rax
	movq	$0, 32(%rbx,%rax)
	addq	$144, %rsp
	popq	%rbx
	popq	%r12
	popq	%r13
	popq	%r14
	popq	%r15
	retq
.LBB4_79:
	movq	%r13, %rax
	movq	96(%rsp), %r14          # 8-byte Reload
	jmp	.LBB4_100
.LBB4_91:
	movq	%r13, %rax
	movq	104(%rsp), %r8          # 8-byte Reload
	movq	96(%rsp), %r14          # 8-byte Reload
	jmp	.LBB4_100
.Ltmp58:
	.size	cse_end_of_basic_block, .Ltmp58-cse_end_of_basic_block
	.cfi_endproc

	.globl	cse_main
	.align	16, 0x90
	.type	cse_main,@function
cse_main:                               # @cse_main
	.cfi_startproc
# BB#0:                                 # %entry
	pushq	%r15
.Ltmp65:
	.cfi_def_cfa_offset 16
	pushq	%r14
.Ltmp66:
	.cfi_def_cfa_offset 24
	pushq	%r13
.Ltmp67:
	.cfi_def_cfa_offset 32
	pushq	%r12
.Ltmp68:
	.cfi_def_cfa_offset 40
	pushq	%rbx
.Ltmp69:
	.cfi_def_cfa_offset 48
	subq	$208, %rsp
.Ltmp70:
	.cfi_def_cfa_offset 256
.Ltmp71:
	.cfi_offset %rbx, -48
.Ltmp72:
	.cfi_offset %r12, -40
.Ltmp73:
	.cfi_offset %r13, -32
.Ltmp74:
	.cfi_offset %r14, -24
.Ltmp75:
	.cfi_offset %r15, -16
	movq	%rcx, 8(%rsp)           # 8-byte Spill
	movq	%rdx, %r15
	movq	%rsi, %r12
	movq	%rdi, %r14
	xorq	%rbx, %rbx
	movl	%ebx, cse_jumps_altered(%rip)
	movb	%bl, recorded_label_ref(%rip)
	movl	%ebx, constant_pool_entries_cost(%rip)
	movl	%ebx, 40(%rsp)
	callq	init_recog
	callq	init_alias_analysis
	movl	%r12d, max_reg(%rip)
	callq	get_max_uid
	movl	%eax, max_insn_uid(%rip)
	movq	$32, %rcx
	shlq	%cl, %r12
	movq	$32, %rcx
	sarq	%cl, %r12
	movq	$3, %rcx
	shlq	%cl, %r12
	movq	%r12, %rdi
	callq	xmalloc
	movq	%rax, reg_eqv_table(%rip)
	movl	%ebx, n_elements_made(%rip)
	callq	get_max_uid
	movl	%eax, max_uid(%rip)
	leaq	1(%rax), %rdi
	movq	$32, %rcx
	shlq	%cl, %rdi
	movq	$32, %rcx
	sarq	%cl, %rdi
	movq	$4, %rsi
	callq	xcalloc
	testq	%r14, %r14
	movq	%rax, uid_cuid(%rip)
	je	.LBB5_32
# BB#1:
	movq	%r14, %rcx
	.align	16, 0x90
.LBB5_2:                                # %for.body
                                        # =>This Inner Loop Header: Depth=1
	movzbl	(%rcx), %edx
	cmpq	$37, %rdx
	jne	.LBB5_4
# BB#3:                                 # %lor.lhs.false
                                        #   in Loop: Header=BB5_2 Depth=1
	movslq	40(%rcx), %rdx
	testq	%rdx, %rdx
	jns	.LBB5_5
.LBB5_4:                                # %if.then
                                        #   in Loop: Header=BB5_2 Depth=1
	movslq	8(%rcx), %rdx
	incq	%rbx
	jmp	.LBB5_6
	.align	16, 0x90
.LBB5_5:                                # %if.else
                                        #   in Loop: Header=BB5_2 Depth=1
	movslq	8(%rcx), %rdx
.LBB5_6:                                # %for.inc
                                        #   in Loop: Header=BB5_2 Depth=1
	movl	%ebx, (%rax,%rdx,4)
	movq	24(%rcx), %rcx
	testq	%rcx, %rcx
	jne	.LBB5_2
# BB#7:                                 # %for.end
	callq	ggc_push_context
	testq	%r14, %r14
	je	.LBB5_33
# BB#8:                                 # %while.body.lr.ph
	movabsq	$4294967295, %rax       # imm = 0xFFFFFFFF
	testq	%rax, %r15
	jne	.LBB5_9
# BB#10:                                # %while.body.lr.ph
	movabsq	$1, %rax
	jmp	.LBB5_11
.LBB5_32:                               # %for.end.thread
	callq	ggc_push_context
	jmp	.LBB5_33
.LBB5_9:
	movabsq	$0, %rax
.LBB5_11:                               # %while.body.lr.ph
	movq	%rax, (%rsp)            # 8-byte Spill
	xorq	%r12, %r12
	leaq	16(%rsp), %rbx
	.align	16, 0x90
.LBB5_12:                               # %while.body
                                        # =>This Inner Loop Header: Depth=1
	movl	flag_cse_skip_blocks(%rip), %r8d
	movl	flag_cse_follow_jumps(%rip), %edx
	movb	%r12b, cse_altered(%rip)
	movq	%r14, %rdi
	movq	%rbx, %rsi
	movq	%r15, %rcx
	callq	cse_end_of_basic_block
	movl	24(%rsp), %r8d
	movl	(%r14), %eax
	testq	%r8, %r8
	je	.LBB5_14
# BB#13:                                # %while.body
                                        #   in Loop: Header=BB5_12 Depth=1
	movq	%rax, %rcx
	andq	$16711680, %rcx         # imm = 0xFF0000
	movabsq	$4294967295, %rdx       # imm = 0xFFFFFFFF
	andq	%rdx, %rcx
	cmpq	$131072, %rcx           # imm = 0x20000
	je	.LBB5_14
# BB#18:                                # %if.end36
                                        #   in Loop: Header=BB5_12 Depth=1
	movq	16(%rsp), %rdx
	movq	$32, %rcx
	movq	%rdx, %rsi
	shrq	%cl, %rsi
	leaq	(%r8,%r8), %rax
	cmpq	$0, 8(%rsp)             # 8-byte Folded Reload
	movl	%edx, cse_basic_block_start(%rip)
	movl	%esi, cse_basic_block_end(%rip)
	movl	%eax, max_qty(%rip)
	je	.LBB5_22
# BB#19:                                # %if.then40
                                        #   in Loop: Header=BB5_12 Depth=1
	movq	32(%rsp), %rax
	movl	8(%r14), %edx
	xorq	%rcx, %rcx
	testq	%rax, %rax
	je	.LBB5_21
# BB#20:                                # %cond.true46
                                        #   in Loop: Header=BB5_12 Depth=1
	movl	8(%rax), %ecx
.LBB5_21:                               # %cond.end52
                                        #   in Loop: Header=BB5_12 Depth=1
	xorq	%rax, %rax
	movq	8(%rsp), %rdi           # 8-byte Reload
	movabsq	$.L.str3, %rsi
	callq	fnotice
	movl	max_qty(%rip), %eax
.LBB5_22:                               # %if.end55
                                        #   in Loop: Header=BB5_12 Depth=1
	movq	$32, %rcx
	movq	%rax, %rdx
	shlq	%cl, %rdx
	movq	$32, %rcx
	sarq	%cl, %rdx
	cmpq	$499, %rdx              # imm = 0x1F3
	jg	.LBB5_24
# BB#23:                                # %if.then58
                                        #   in Loop: Header=BB5_12 Depth=1
	movq	$500, %rax              # imm = 0x1F4
	movl	%eax, max_qty(%rip)
.LBB5_24:                               # %if.end59
                                        #   in Loop: Header=BB5_12 Depth=1
	movl	max_reg(%rip), %ecx
	movslq	40(%rsp), %rdx
	addq	%rax, %rcx
	movl	%ecx, max_qty(%rip)
	testq	%rdx, %rdx
	jle	.LBB5_26
# BB#25:                                # %if.then64
                                        #   in Loop: Header=BB5_12 Depth=1
	movq	32(%rsp), %rsi
	xorq	%rcx, %rcx
	movq	%r14, %rdi
	leaq	48(%rsp), %rdx
	callq	cse_basic_block
	jmp	.LBB5_30
	.align	16, 0x90
.LBB5_14:                               # %if.then27
                                        #   in Loop: Header=BB5_12 Depth=1
	movabsq	$4278255615, %rcx       # imm = 0xFF00FFFF
	andq	%rcx, %rax
	movl	%eax, (%r14)
	movq	32(%rsp), %rax
	xorq	%r14, %r14
	testq	%rax, %rax
	je	.LBB5_16
# BB#15:                                # %cond.true
                                        #   in Loop: Header=BB5_12 Depth=1
	movq	24(%rax), %r14
.LBB5_16:                               # %cond.end
                                        #   in Loop: Header=BB5_12 Depth=1
	movl	%r12d, 40(%rsp)
	jmp	.LBB5_17
	.align	16, 0x90
.LBB5_26:                               # %if.else67
                                        #   in Loop: Header=BB5_12 Depth=1
	movl	cse_jumps_altered(%rip), %r13d
	movq	32(%rsp), %rsi
	movl	%r12d, cse_jumps_altered(%rip)
	movq	%r14, %rdi
	leaq	48(%rsp), %rdx
	movq	(%rsp), %rcx            # 8-byte Reload
	callq	cse_basic_block
	movl	cse_jumps_altered(%rip), %ecx
	testq	%rcx, %rcx
	je	.LBB5_28
# BB#27:                                # %lor.lhs.false75
                                        #   in Loop: Header=BB5_12 Depth=1
	movl	flag_cse_follow_jumps(%rip), %edx
	movl	flag_cse_skip_blocks(%rip), %esi
	orq	%rdx, %rsi
	movabsq	$4294967295, %rdx       # imm = 0xFFFFFFFF
	testq	%rdx, %rsi
	jne	.LBB5_29
.LBB5_28:                               # %if.then80
                                        #   in Loop: Header=BB5_12 Depth=1
	movq	%rax, %r14
.LBB5_29:                               # %if.end81
                                        #   in Loop: Header=BB5_12 Depth=1
	orq	%r13, %rcx
	movl	%ecx, cse_jumps_altered(%rip)
.LBB5_30:                               # %if.end82
                                        #   in Loop: Header=BB5_12 Depth=1
	movzbl	cse_altered(%rip), %eax
	cmpq	$1, %rax
	jne	.LBB5_17
# BB#31:                                # %if.then84
                                        #   in Loop: Header=BB5_12 Depth=1
	callq	ggc_collect
.LBB5_17:                               # %while.cond.backedge
                                        #   in Loop: Header=BB5_12 Depth=1
	testq	%r14, %r14
	jne	.LBB5_12
.LBB5_33:                               # %while.end
	callq	ggc_pop_context
	movslq	max_elements_made(%rip), %rcx
	movslq	n_elements_made(%rip), %rax
	cmpq	%rax, %rcx
	jge	.LBB5_35
# BB#34:                                # %if.then88
	movl	%eax, max_elements_made(%rip)
.LBB5_35:                               # %if.end89
	callq	end_alias_analysis
	movq	uid_cuid(%rip), %rdi
	callq	free
	movq	reg_eqv_table(%rip), %rdi
	callq	free
	movl	cse_jumps_altered(%rip), %ecx
	movzbl	recorded_label_ref(%rip), %eax
	testq	%rcx, %rcx
	je	.LBB5_36
# BB#37:                                # %if.end89
	movabsq	$1, %rcx
	jmp	.LBB5_38
.LBB5_36:
	movabsq	$0, %rcx
.LBB5_38:                               # %if.end89
	orq	%rcx, %rax
	andq	$1, %rax
	addq	$208, %rsp
	popq	%rbx
	popq	%r12
	popq	%r13
	popq	%r14
	popq	%r15
	retq
.Ltmp76:
	.size	cse_main, .Ltmp76-cse_main
	.cfi_endproc

	.align	16, 0x90
	.type	cse_basic_block,@function
cse_basic_block:                        # @cse_basic_block
	.cfi_startproc
# BB#0:                                 # %entry
	pushq	%r15
.Ltmp83:
	.cfi_def_cfa_offset 16
	pushq	%r14
.Ltmp84:
	.cfi_def_cfa_offset 24
	pushq	%r13
.Ltmp85:
	.cfi_def_cfa_offset 32
	pushq	%r12
.Ltmp86:
	.cfi_def_cfa_offset 40
	pushq	%rbx
.Ltmp87:
	.cfi_def_cfa_offset 48
	subq	$240, %rsp
.Ltmp88:
	.cfi_def_cfa_offset 288
.Ltmp89:
	.cfi_offset %rbx, -48
.Ltmp90:
	.cfi_offset %r12, -40
.Ltmp91:
	.cfi_offset %r13, -32
.Ltmp92:
	.cfi_offset %r14, -24
.Ltmp93:
	.cfi_offset %r15, -16
	movl	max_qty(%rip), %eax
	movl	max_reg(%rip), %ebx
	movq	%rcx, 16(%rsp)          # 8-byte Spill
	movq	%rdx, 40(%rsp)          # 8-byte Spill
	movq	%rsi, %r14
	movq	%rdi, %r15
	subq	%rbx, %rax
	movq	$32, %rcx
	shlq	%cl, %rax
	movq	$32, %rcx
	sarq	%cl, %rax
	movq	$4, %rcx
	shlq	%cl, %rax
	leaq	(%rax,%rax,2), %rdi
	callq	xmalloc
	movslq	max_reg(%rip), %rdx
	movq	%rdx, %rcx
	negq	%rcx
	leaq	(%rcx,%rcx,2), %rsi
	movq	$4, %rcx
	shlq	%cl, %rsi
	addq	%rax, %rsi
	movq	%rsi, qty_table(%rip)
	movl	%edx, next_qty(%rip)
	movabsq	$reg_hash, %rdi
	xorq	%rsi, %rsi
	movq	$1024, %rdx             # imm = 0x400
	xorq	%rbx, %rbx
	callq	memset
	cmpq	$0, cse_reg_info_used_list(%rip)
	je	.LBB6_2
# BB#1:                                 # %if.then.i
	movq	cse_reg_info_free_list(%rip), %rax
	movq	cse_reg_info_used_list_end(%rip), %rcx
	movq	%rax, 8(%rcx)
	movq	cse_reg_info_used_list(%rip), %rax
	movq	%rax, cse_reg_info_free_list(%rip)
	movq	$0, cse_reg_info_used_list_end(%rip)
	movq	$0, cse_reg_info_used_list(%rip)
.LBB6_2:                                # %if.end.i
	movq	$0, cached_cse_reg_info(%rip)
	movq	$0, hard_regs_in_table(%rip)
	.align	16, 0x90
.LBB6_3:                                # %for.body.i
                                        # =>This Loop Header: Depth=1
                                        #     Child Loop BB6_5 Depth 2
	movq	table(,%rbx,8), %rax
	testq	%rax, %rax
	je	.LBB6_7
# BB#4:                                 # %if.then2.i
                                        #   in Loop: Header=BB6_3 Depth=1
	movq	$0, table(,%rbx,8)
	movq	%rax, %rdx
	.align	16, 0x90
.LBB6_5:                                # %while.cond.i
                                        #   Parent Loop BB6_3 Depth=1
                                        # =>  This Inner Loop Header: Depth=2
	movq	%rdx, %rcx
	movq	16(%rcx), %rdx
	testq	%rdx, %rdx
	jne	.LBB6_5
# BB#6:                                 # %while.end.i
                                        #   in Loop: Header=BB6_3 Depth=1
	movq	free_element_chain(%rip), %rdx
	movq	%rdx, 16(%rcx)
	movq	%rax, free_element_chain(%rip)
.LBB6_7:                                # %for.inc.i
                                        #   in Loop: Header=BB6_3 Depth=1
	incq	%rbx
	cmpq	$32, %rbx
	jne	.LBB6_3
# BB#8:                                 # %new_basic_block.exit
	xorq	%r12, %r12
	testq	%r14, %r14
	je	.LBB6_12
# BB#9:                                 # %land.lhs.true
	movzbl	(%r14), %eax
	cmpq	$36, %rax
	jne	.LBB6_11
# BB#10:                                # %if.then
	movl	32(%r14), %eax
	incq	%rax
	movl	%eax, 32(%r14)
.LBB6_11:                               # %for.cond.preheader
	movq	%r14, %r12
.LBB6_12:                               # %for.cond.preheader
	cmpq	%r15, %r12
	je	.LBB6_13
# BB#14:                                # %for.body.lr.ph
	xorq	%r13, %r13
	movq	$0, 24(%rsp)            # 8-byte Folded Spill
	movq	$0, 32(%rsp)            # 8-byte Folded Spill
	.align	16, 0x90
.LBB6_15:                               # %for.body
                                        # =>This Loop Header: Depth=1
                                        #     Child Loop BB6_18 Depth 2
                                        #       Child Loop BB6_25 Depth 3
                                        #       Child Loop BB6_32 Depth 3
                                        #       Child Loop BB6_37 Depth 3
                                        #     Child Loop BB6_57 Depth 2
                                        #       Child Loop BB6_62 Depth 3
                                        #         Child Loop BB6_63 Depth 4
                                        #           Child Loop BB6_73 Depth 5
                                        #           Child Loop BB6_80 Depth 5
                                        #           Child Loop BB6_85 Depth 5
	movzbl	(%r15), %r14d
	cmpq	$37, %r14
	je	.LBB6_43
# BB#16:                                # %land.lhs.true10
                                        #   in Loop: Header=BB6_15 Depth=1
	movq	$32, %rcx
	movq	%r13, %rax
	shlq	%cl, %rax
	movq	$32, %rcx
	sarq	%cl, %rax
	xorq	%rbx, %rbx
	cmpq	$1001, %rax             # imm = 0x3E9
	jge	.LBB6_18
# BB#17:                                #   in Loop: Header=BB6_15 Depth=1
	incq	%r13
	jmp	.LBB6_43
	.align	16, 0x90
.LBB6_41:                               # %remove_from_table.exit
                                        #   in Loop: Header=BB6_18 Depth=2
	movq	free_element_chain(%rip), %rcx
	movq	%rcx, 16(%rax)
	movq	%rax, free_element_chain(%rip)
.LBB6_18:                               # %for.body.i311
                                        #   Parent Loop BB6_15 Depth=1
                                        # =>  This Loop Header: Depth=2
                                        #       Child Loop BB6_25 Depth 3
                                        #       Child Loop BB6_32 Depth 3
                                        #       Child Loop BB6_37 Depth 3
	movq	table(,%rbx,8), %rax
	testq	%rax, %rax
	jne	.LBB6_19
# BB#42:                                # %for.inc7.i
                                        #   in Loop: Header=BB6_18 Depth=2
	incq	%rbx
	xorq	%r13, %r13
	cmpq	$32, %rbx
	jne	.LBB6_18
	jmp	.LBB6_43
	.align	16, 0x90
.LBB6_19:                               # %for.body2.i
                                        #   in Loop: Header=BB6_18 Depth=2
	movq	(%rax), %rdi
	movzbl	(%rdi), %ecx
	cmpq	$61, %rcx
	jne	.LBB6_21
# BB#20:                                # %if.then.i315
                                        #   in Loop: Header=BB6_18 Depth=2
	movl	72(%rax), %esi
	callq	invalidate
	jmp	.LBB6_18
	.align	16, 0x90
.LBB6_21:                               # %if.end.i324
                                        #   in Loop: Header=BB6_18 Depth=2
	movq	$0, 48(%rax)
	movq	32(%rax), %rcx
	movq	40(%rax), %rdx
	testq	%rcx, %rcx
	je	.LBB6_23
# BB#22:                                # %if.then1.i
                                        #   in Loop: Header=BB6_18 Depth=2
	movq	%rdx, 40(%rcx)
.LBB6_23:                               # %if.end3.i
                                        #   in Loop: Header=BB6_18 Depth=2
	testq	%rdx, %rdx
	jne	.LBB6_166
# BB#24:                                # %while.cond.preheader.i
                                        #   in Loop: Header=BB6_18 Depth=2
	testq	%rcx, %rcx
	movq	%rcx, %rdx
	je	.LBB6_26
	.align	16, 0x90
.LBB6_25:                               # %while.body.i
                                        #   Parent Loop BB6_15 Depth=1
                                        #     Parent Loop BB6_18 Depth=2
                                        # =>    This Inner Loop Header: Depth=3
	movq	%rcx, 48(%rdx)
	movq	32(%rdx), %rdx
	testq	%rdx, %rdx
	jne	.LBB6_25
	jmp	.LBB6_26
.LBB6_166:                              # %if.then5.i
                                        #   in Loop: Header=BB6_18 Depth=2
	movq	%rcx, 32(%rdx)
.LBB6_26:                               # %if.end10.i
                                        #   in Loop: Header=BB6_18 Depth=2
	movq	16(%rax), %rcx
	movq	24(%rax), %rdx
	testq	%rcx, %rcx
	je	.LBB6_28
# BB#27:                                # %if.then14.i
                                        #   in Loop: Header=BB6_18 Depth=2
	movq	%rdx, 24(%rcx)
.LBB6_28:                               # %if.end16.i
                                        #   in Loop: Header=BB6_18 Depth=2
	testq	%rdx, %rdx
	jne	.LBB6_29
# BB#30:                                # %if.else20.i
                                        #   in Loop: Header=BB6_18 Depth=2
	movq	table(,%rbx,8), %rdx
	cmpq	%rax, %rdx
	movq	$-256, %rdx
	jne	.LBB6_32
# BB#31:                                # %if.then22.i
                                        #   in Loop: Header=BB6_18 Depth=2
	movq	%rcx, table(,%rbx,8)
	jmp	.LBB6_35
	.align	16, 0x90
.LBB6_32:                               # %for.body.i329
                                        #   Parent Loop BB6_15 Depth=1
                                        #     Parent Loop BB6_18 Depth=2
                                        # =>    This Inner Loop Header: Depth=3
	movq	table+256(%rdx), %rsi
	cmpq	%rax, %rsi
	jne	.LBB6_34
# BB#33:                                # %if.then30.i
                                        #   in Loop: Header=BB6_32 Depth=3
	movq	%rcx, table+256(%rdx)
.LBB6_34:                               # %for.inc.i332
                                        #   in Loop: Header=BB6_32 Depth=3
	addq	$8, %rdx
	jne	.LBB6_32
	jmp	.LBB6_35
.LBB6_29:                               # %if.then18.i
                                        #   in Loop: Header=BB6_18 Depth=2
	movq	%rcx, 16(%rdx)
.LBB6_35:                               # %if.end35.i
                                        #   in Loop: Header=BB6_18 Depth=2
	movq	56(%rax), %rcx
	testq	%rcx, %rcx
	je	.LBB6_41
# BB#36:                                # %if.end35.i
                                        #   in Loop: Header=BB6_18 Depth=2
	cmpq	%rax, %rcx
	movq	%rcx, %rsi
	je	.LBB6_41
	.align	16, 0x90
.LBB6_37:                               # %while.cond41.i
                                        #   Parent Loop BB6_15 Depth=1
                                        #     Parent Loop BB6_18 Depth=2
                                        # =>    This Inner Loop Header: Depth=3
	movq	%rsi, %rdx
	movq	56(%rdx), %rsi
	cmpq	%rax, %rsi
	jne	.LBB6_37
# BB#38:                                # %while.end46.i
                                        #   in Loop: Header=BB6_18 Depth=2
	xorq	%rsi, %rsi
	cmpq	%rdx, %rcx
	je	.LBB6_40
# BB#39:                                # %while.end46.i
                                        #   in Loop: Header=BB6_18 Depth=2
	movq	%rcx, %rsi
.LBB6_40:                               # %while.end46.i
                                        #   in Loop: Header=BB6_18 Depth=2
	movq	%rsi, 56(%rdx)
	jmp	.LBB6_41
	.align	16, 0x90
.LBB6_43:                               # %if.end15
                                        #   in Loop: Header=BB6_15 Depth=1
	movq	40(%rsp), %rcx          # 8-byte Reload
	movq	(%rcx), %rax
	cmpq	%r15, %rax
	jne	.LBB6_46
# BB#44:                                # %if.then18
                                        #   in Loop: Header=BB6_15 Depth=1
	movl	8(%rcx), %eax
	addq	$16, %rcx
	cmpq	$1, %rax
	jne	.LBB6_53
# BB#45:                                #   in Loop: Header=BB6_15 Depth=1
	movq	%rcx, 40(%rsp)          # 8-byte Spill
.LBB6_46:                               # %if.end33
                                        #   in Loop: Header=BB6_15 Depth=1
	movl	(%r15), %eax
	movq	%rax, %rcx
	andq	$16711680, %rcx         # imm = 0xFF0000
	cmpq	$131072, %rcx           # imm = 0x20000
	jne	.LBB6_48
# BB#47:                                # %if.then38
                                        #   in Loop: Header=BB6_15 Depth=1
	movabsq	$4278255615, %rcx       # imm = 0xFF00FFFF
	andq	%rcx, %rax
	movl	%eax, (%r15)
.LBB6_48:                               # %if.end41
                                        #   in Loop: Header=BB6_15 Depth=1
	movzbl	rtx_class(%r14), %eax
	cmpq	$105, %rax
	jne	.LBB6_96
# BB#49:                                # %if.then46
                                        #   in Loop: Header=BB6_15 Depth=1
	movq	56(%r15), %rdi
	testq	%rdi, %rdi
	je	.LBB6_92
# BB#50:                                # %if.end58
                                        #   in Loop: Header=BB6_15 Depth=1
	xorq	%rsi, %rsi
	callq	cse_process_notes
	testq	%rax, %rax
	movq	%rax, 56(%r15)
	je	.LBB6_92
# BB#51:                                # %if.then64
                                        #   in Loop: Header=BB6_15 Depth=1
	movq	$7, %rsi
	xorq	%rdx, %rdx
	movq	%r15, %rdi
	callq	find_reg_note
	testq	%rax, %rax
	jne	.LBB6_52
# BB#90:                                # %if.else71
                                        #   in Loop: Header=BB6_15 Depth=1
	movq	$6, %rsi
	xorq	%rdx, %rdx
	movq	%r15, %rdi
	callq	find_reg_note
	testq	%rax, %rax
	je	.LBB6_92
# BB#91:                                # %if.else71
                                        #   in Loop: Header=BB6_15 Depth=1
	movq	$0, 24(%rsp)            # 8-byte Folded Spill
	jmp	.LBB6_92
	.align	16, 0x90
.LBB6_53:                               # %if.then18
                                        #   in Loop: Header=BB6_15 Depth=1
	testq	%rax, %rax
	jne	.LBB6_56
# BB#54:                                # %if.then25
                                        #   in Loop: Header=BB6_15 Depth=1
	movq	%rcx, 40(%rsp)          # 8-byte Spill
	movq	$1, %rsi
	movq	%r15, %rdi
	callq	record_jump_equiv
	jmp	.LBB6_55
.LBB6_56:                               # %if.else
                                        #   in Loop: Header=BB6_15 Depth=1
	movq	%rcx, 40(%rsp)          # 8-byte Spill
	movq	24(%r15), %r14
	jmp	.LBB6_57
	.align	16, 0x90
.LBB6_68:                               # %for.inc.i343
                                        #   in Loop: Header=BB6_57 Depth=2
	movq	24(%r14), %r14
.LBB6_57:                               # %if.else
                                        #   Parent Loop BB6_15 Depth=1
                                        # =>  This Loop Header: Depth=2
                                        #       Child Loop BB6_62 Depth 3
                                        #         Child Loop BB6_63 Depth 4
                                        #           Child Loop BB6_73 Depth 5
                                        #           Child Loop BB6_80 Depth 5
                                        #           Child Loop BB6_85 Depth 5
	testq	%r14, %r14
	je	.LBB6_55
# BB#58:                                # %land.rhs.i337
                                        #   in Loop: Header=BB6_57 Depth=2
	movl	(%r14), %ecx
	movq	%rcx, %rax
	andq	$65535, %rax            # imm = 0xFFFF
	cmpq	$36, %rax
	je	.LBB6_55
# BB#59:                                # %for.body.i340
                                        #   in Loop: Header=BB6_57 Depth=2
	movzbl	rtx_class(%rax), %edx
	cmpq	$105, %rdx
	jne	.LBB6_68
# BB#60:                                # %if.end.i341
                                        #   in Loop: Header=BB6_57 Depth=2
	cmpq	$34, %rax
	jne	.LBB6_67
# BB#61:                                # %if.then9.i
                                        #   in Loop: Header=BB6_57 Depth=2
	xorq	%rax, %rax
	testq	$67108864, %rcx         # imm = 0x4000000
	jne	.LBB6_66
	.align	16, 0x90
.LBB6_62:                               # %for.body.i.i
                                        #   Parent Loop BB6_15 Depth=1
                                        #     Parent Loop BB6_57 Depth=2
                                        # =>    This Loop Header: Depth=3
                                        #         Child Loop BB6_63 Depth 4
                                        #           Child Loop BB6_73 Depth 5
                                        #           Child Loop BB6_80 Depth 5
                                        #           Child Loop BB6_85 Depth 5
	movq	table(,%rax,8), %rcx
	testq	%rcx, %rcx
	je	.LBB6_65
	.align	16, 0x90
.LBB6_63:                               # %for.body2.i.i
                                        #   Parent Loop BB6_15 Depth=1
                                        #     Parent Loop BB6_57 Depth=2
                                        #       Parent Loop BB6_62 Depth=3
                                        # =>      This Loop Header: Depth=4
                                        #           Child Loop BB6_73 Depth 5
                                        #           Child Loop BB6_80 Depth 5
                                        #           Child Loop BB6_85 Depth 5
	movzbl	76(%rcx), %esi
	movq	16(%rcx), %rdx
	testq	%rsi, %rsi
	je	.LBB6_64
# BB#69:                                # %if.end.i.i
                                        #   in Loop: Header=BB6_63 Depth=4
	movq	$0, 48(%rcx)
	movq	32(%rcx), %rsi
	movq	40(%rcx), %rdi
	testq	%rsi, %rsi
	je	.LBB6_71
# BB#70:                                # %if.then1.i.i
                                        #   in Loop: Header=BB6_63 Depth=4
	movq	%rdi, 40(%rsi)
.LBB6_71:                               # %if.end3.i.i
                                        #   in Loop: Header=BB6_63 Depth=4
	testq	%rdi, %rdi
	jne	.LBB6_167
# BB#72:                                # %while.cond.preheader.i.i
                                        #   in Loop: Header=BB6_63 Depth=4
	testq	%rsi, %rsi
	movq	%rsi, %rdi
	je	.LBB6_74
	.align	16, 0x90
.LBB6_73:                               # %while.body.i.i
                                        #   Parent Loop BB6_15 Depth=1
                                        #     Parent Loop BB6_57 Depth=2
                                        #       Parent Loop BB6_62 Depth=3
                                        #         Parent Loop BB6_63 Depth=4
                                        # =>        This Inner Loop Header: Depth=5
	movq	%rsi, 48(%rdi)
	movq	32(%rdi), %rdi
	testq	%rdi, %rdi
	jne	.LBB6_73
	jmp	.LBB6_74
	.align	16, 0x90
.LBB6_167:                              # %if.then5.i.i
                                        #   in Loop: Header=BB6_63 Depth=4
	movq	%rsi, 32(%rdi)
.LBB6_74:                               # %if.end10.i.i
                                        #   in Loop: Header=BB6_63 Depth=4
	movq	24(%rcx), %rsi
	testq	%rdx, %rdx
	je	.LBB6_76
# BB#75:                                # %if.then14.i.i
                                        #   in Loop: Header=BB6_63 Depth=4
	movq	%rsi, 24(%rdx)
.LBB6_76:                               # %if.end16.i.i
                                        #   in Loop: Header=BB6_63 Depth=4
	testq	%rsi, %rsi
	jne	.LBB6_77
# BB#78:                                # %if.else20.i.i
                                        #   in Loop: Header=BB6_63 Depth=4
	movq	table(,%rax,8), %rsi
	cmpq	%rcx, %rsi
	movq	$-256, %rsi
	jne	.LBB6_80
# BB#79:                                # %if.then22.i.i
                                        #   in Loop: Header=BB6_63 Depth=4
	movq	%rdx, table(,%rax,8)
	jmp	.LBB6_83
	.align	16, 0x90
.LBB6_80:                               # %for.body.i35.i
                                        #   Parent Loop BB6_15 Depth=1
                                        #     Parent Loop BB6_57 Depth=2
                                        #       Parent Loop BB6_62 Depth=3
                                        #         Parent Loop BB6_63 Depth=4
                                        # =>        This Inner Loop Header: Depth=5
	movq	table+256(%rsi), %rdi
	cmpq	%rcx, %rdi
	jne	.LBB6_82
# BB#81:                                # %if.then30.i.i
                                        #   in Loop: Header=BB6_80 Depth=5
	movq	%rdx, table+256(%rsi)
.LBB6_82:                               # %for.inc.i.i
                                        #   in Loop: Header=BB6_80 Depth=5
	addq	$8, %rsi
	jne	.LBB6_80
	jmp	.LBB6_83
	.align	16, 0x90
.LBB6_77:                               # %if.then18.i.i
                                        #   in Loop: Header=BB6_63 Depth=4
	movq	%rdx, 16(%rsi)
.LBB6_83:                               # %if.end35.i.i
                                        #   in Loop: Header=BB6_63 Depth=4
	movq	56(%rcx), %rsi
	testq	%rsi, %rsi
	je	.LBB6_89
# BB#84:                                # %if.end35.i.i
                                        #   in Loop: Header=BB6_63 Depth=4
	cmpq	%rcx, %rsi
	movq	%rsi, %rdi
	je	.LBB6_89
	.align	16, 0x90
.LBB6_85:                               # %while.cond41.i.i
                                        #   Parent Loop BB6_15 Depth=1
                                        #     Parent Loop BB6_57 Depth=2
                                        #       Parent Loop BB6_62 Depth=3
                                        #         Parent Loop BB6_63 Depth=4
                                        # =>        This Inner Loop Header: Depth=5
	movq	%rdi, %rbx
	movq	56(%rbx), %rdi
	cmpq	%rcx, %rdi
	jne	.LBB6_85
# BB#86:                                # %while.end46.i.i
                                        #   in Loop: Header=BB6_63 Depth=4
	xorq	%rdi, %rdi
	cmpq	%rbx, %rsi
	je	.LBB6_88
# BB#87:                                # %while.end46.i.i
                                        #   in Loop: Header=BB6_63 Depth=4
	movq	%rsi, %rdi
.LBB6_88:                               # %while.end46.i.i
                                        #   in Loop: Header=BB6_63 Depth=4
	movq	%rdi, 56(%rbx)
.LBB6_89:                               # %remove_from_table.exit.i
                                        #   in Loop: Header=BB6_63 Depth=4
	movq	free_element_chain(%rip), %rsi
	movq	%rsi, 16(%rcx)
	movq	%rcx, free_element_chain(%rip)
.LBB6_64:                               # %for.cond1.backedge.i.i
                                        #   in Loop: Header=BB6_63 Depth=4
	testq	%rdx, %rdx
	movq	%rdx, %rcx
	jne	.LBB6_63
.LBB6_65:                               # %for.inc4.i.i
                                        #   in Loop: Header=BB6_62 Depth=3
	incq	%rax
	cmpq	$32, %rax
	jne	.LBB6_62
.LBB6_66:                               # %if.end14.i
                                        #   in Loop: Header=BB6_57 Depth=2
	callq	invalidate_for_call
.LBB6_67:                               # %if.end15.i
                                        #   in Loop: Header=BB6_57 Depth=2
	movq	32(%r14), %rdi
	callq	invalidate_from_clobbers
	movq	32(%r14), %rdi
	xorq	%rdx, %rdx
	movabsq	$invalidate_skipped_set, %rsi
	callq	note_stores
	jmp	.LBB6_68
	.align	16, 0x90
.LBB6_55:                               # %if.end28
                                        #   in Loop: Header=BB6_15 Depth=1
	movq	%r15, prev_insn(%rip)
	movq	64(%r15), %r15
	jmp	.LBB6_118
.LBB6_52:                               # %if.then67
                                        #   in Loop: Header=BB6_15 Depth=1
	movq	8(%rax), %rax
	movq	%rax, 24(%rsp)          # 8-byte Spill
	.align	16, 0x90
.LBB6_92:                               # %if.end77
                                        #   in Loop: Header=BB6_15 Depth=1
	movq	%r15, %rdi
	movq	24(%rsp), %rsi          # 8-byte Reload
	callq	cse_insn
	movzbl	(%r15), %eax
	cmpq	$32, %rax
	jne	.LBB6_96
# BB#93:                                # %if.end77
                                        #   in Loop: Header=BB6_15 Depth=1
	movzbl	recorded_label_ref(%rip), %eax
	testq	$1, %rax
	jne	.LBB6_96
# BB#94:                                # %land.lhs.true84
                                        #   in Loop: Header=BB6_15 Depth=1
	leaq	32(%r15), %rdi
	movabsq	$check_for_label_ref, %rsi
	movq	%r15, %rdx
	callq	for_each_rtx
	movabsq	$4294967295, %rcx       # imm = 0xFFFFFFFF
	testq	%rcx, %rax
	je	.LBB6_96
# BB#95:                                # %if.then90
                                        #   in Loop: Header=BB6_15 Depth=1
	movq	$1, %rax
	movb	%al, recorded_label_ref(%rip)
	.align	16, 0x90
.LBB6_96:                               # %if.end92
                                        #   in Loop: Header=BB6_15 Depth=1
	movq	%r15, %rdi
	callq	any_uncondjump_p
	movabsq	$4294967295, %rcx       # imm = 0xFFFFFFFF
	testq	%rcx, %rax
	je	.LBB6_104
# BB#97:                                # %if.then95
                                        #   in Loop: Header=BB6_15 Depth=1
	testq	%r12, %r12
	je	.LBB6_98
# BB#100:                               # %if.end101
                                        #   in Loop: Header=BB6_15 Depth=1
	movzbl	3(%r12), %eax
	testq	$8, %rax
	jne	.LBB6_119
# BB#101:                               # %if.end114
                                        #   in Loop: Header=BB6_15 Depth=1
	movq	64(%r15), %rax
	cmpq	%r12, %rax
	movq	$1, %rax
	je	.LBB6_103
# BB#102:                               # %select.mid
                                        #   in Loop: Header=BB6_15 Depth=1
	movq	32(%rsp), %rax          # 8-byte Reload
.LBB6_103:                              # %select.end
                                        #   in Loop: Header=BB6_15 Depth=1
	movq	16(%r12), %r15
	movq	%rax, 32(%rsp)          # 8-byte Spill
.LBB6_104:                              # %if.end118
                                        #   in Loop: Header=BB6_15 Depth=1
	testq	%r12, %r12
	jne	.LBB6_106
# BB#105:                               #   in Loop: Header=BB6_15 Depth=1
	xorq	%r12, %r12
	jmp	.LBB6_118
	.align	16, 0x90
.LBB6_106:                              # %land.lhs.true121
                                        #   in Loop: Header=BB6_15 Depth=1
	movq	24(%r15), %rax
	cmpq	%r12, %rax
	jne	.LBB6_118
# BB#107:                               # %land.lhs.true127
                                        #   in Loop: Header=BB6_15 Depth=1
	movzbl	(%r12), %eax
	cmpq	$36, %rax
	jne	.LBB6_118
# BB#108:                               # %land.lhs.true132
                                        #   in Loop: Header=BB6_15 Depth=1
	movl	32(%r12), %eax
	decq	%rax
	movq	%rax, %rcx
	movabsq	$4294967295, %rdx       # imm = 0xFFFFFFFF
	movq	%rdx, %rsi
	andq	%rsi, %rcx
	movq	32(%rsp), %rdx          # 8-byte Reload
	andq	%rsi, %rdx
	cmpq	%rdx, %rcx
	movl	%eax, 32(%r12)
	jne	.LBB6_118
# BB#109:                               # %if.then138
                                        #   in Loop: Header=BB6_15 Depth=1
	movq	24(%r12), %rbx
	testq	%rbx, %rbx
	je	.LBB6_98
# BB#110:                               # %if.end147
                                        #   in Loop: Header=BB6_15 Depth=1
	movq	%r12, %rdi
	callq	prev_nonnote_insn
	testq	%rax, %rax
	je	.LBB6_113
# BB#111:                               # %land.lhs.true150
                                        #   in Loop: Header=BB6_15 Depth=1
	movzbl	(%rax), %eax
	cmpq	$35, %rax
	je	.LBB6_112
.LBB6_113:                              # %if.end158
                                        #   in Loop: Header=BB6_15 Depth=1
	xorq	%rax, %rax
	movl	%eax, 72(%rsp)
	xorq	%rdx, %rdx
	xorq	%rcx, %rcx
	xorq	%r8, %r8
	movq	%rbx, %rdi
	leaq	48(%rsp), %rsi
	callq	cse_end_of_basic_block
	movl	56(%rsp), %eax
	movl	next_qty(%rip), %ecx
	leaq	(%rcx,%rax,2), %rax
	movq	$32, %rcx
	movslq	max_qty(%rip), %rdx
	shlq	%cl, %rax
	movq	$32, %rcx
	sarq	%cl, %rax
	cmpq	%rdx, %rax
	jg	.LBB6_119
# BB#114:                               # %if.end163
                                        #   in Loop: Header=BB6_15 Depth=1
	movq	48(%rsp), %rax
	movl	%eax, cse_basic_block_start(%rip)
	movq	64(%rsp), %r12
	movq	$32, %rcx
	shrq	%cl, %rax
	movl	%eax, cse_basic_block_end(%rip)
	testq	%r12, %r12
	je	.LBB6_117
# BB#115:                               # %land.lhs.true166
                                        #   in Loop: Header=BB6_15 Depth=1
	movzbl	(%r12), %eax
	cmpq	$36, %rax
	jne	.LBB6_117
# BB#116:                               # %if.then171
                                        #   in Loop: Header=BB6_15 Depth=1
	movl	32(%r12), %eax
	incq	%rax
	movl	%eax, 32(%r12)
.LBB6_117:                              # %cleanup.thread345
                                        #   in Loop: Header=BB6_15 Depth=1
	movq	16(%rbx), %r15
	movq	$0, 32(%rsp)            # 8-byte Folded Spill
	.align	16, 0x90
.LBB6_118:                              # %for.inc
                                        #   in Loop: Header=BB6_15 Depth=1
	movq	24(%r15), %r15
	cmpq	%r12, %r15
	jne	.LBB6_15
	jmp	.LBB6_119
.LBB6_13:
	movq	%r15, %r12
.LBB6_119:                              # %for.end
	movslq	next_qty(%rip), %rax
	movslq	max_qty(%rip), %rcx
	cmpq	%rcx, %rax
	jg	.LBB6_168
# BB#120:                               # %if.end187
	movq	%r12, %rdi
	callq	prev_nonnote_insn
	movl	cse_jumps_altered(%rip), %ecx
	testq	%rcx, %rcx
	je	.LBB6_125
# BB#121:                               # %lor.lhs.false
	movl	flag_cse_follow_jumps(%rip), %ecx
	movl	flag_cse_skip_blocks(%rip), %edx
	orq	%rcx, %rdx
	movabsq	$4294967295, %rcx       # imm = 0xFFFFFFFF
	testq	%rcx, %rdx
	je	.LBB6_122
	jmp	.LBB6_123
.LBB6_125:                              # %land.lhs.true196
	movabsq	$4294967295, %rcx       # imm = 0xFFFFFFFF
.LBB6_122:                              # %lor.lhs.false
	movq	16(%rsp), %rdx          # 8-byte Reload
	testq	%rcx, %rdx
	je	.LBB6_123
# BB#126:                               # %land.lhs.true196
	testq	%r12, %r12
	je	.LBB6_123
# BB#127:                               # %land.lhs.true201
	movzbl	(%r12), %ecx
	cmpq	$37, %rcx
	jne	.LBB6_123
# BB#128:                               # %land.lhs.true206
	movl	40(%r12), %ecx
	movabsq	$4294967201, %rbx       # imm = 0xFFFFFFA1
	cmpq	%rbx, %rcx
	jne	.LBB6_123
# BB#129:                               # %land.lhs.true212
	movzbl	(%rax), %ecx
	cmpq	$33, %rcx
	jne	.LBB6_123
# BB#130:                               # %land.lhs.true217
	movq	64(%rax), %r15
	testq	%r15, %r15
	je	.LBB6_123
# BB#131:                               # %land.lhs.true223
	movl	32(%r15), %eax
	cmpq	$1, %rax
	jne	.LBB6_123
# BB#132:
	movq	%r15, %rax
.LBB6_133:                              # %for.cond.i
                                        # =>This Inner Loop Header: Depth=1
	movq	16(%rax), %rax
	testq	%rax, %rax
	je	.LBB6_123
# BB#134:                               # %land.rhs.i
                                        #   in Loop: Header=BB6_133 Depth=1
	movzbl	(%rax), %ecx
	cmpq	$37, %rcx
	jne	.LBB6_123
# BB#135:                               # %land.rhs1.i
                                        #   in Loop: Header=BB6_133 Depth=1
	movslq	40(%rax), %rcx
	testq	%rcx, %rcx
	jns	.LBB6_133
# BB#136:                               # %lor.lhs.false13.i
	movabsq	$4294967295, %rdx       # imm = 0xFFFFFFFF
	andq	%rdx, %rcx
	movabsq	$4294967200, %rax       # imm = 0xFFFFFFA0
	cmpq	%rax, %rcx
	jne	.LBB6_123
# BB#137:                               # %if.end.i306
	movq	%rdx, %rcx
	movq	last_jump_equiv_class(%rip), %rax
	testq	%rax, %rax
	movq	%r15, %r14
	je	.LBB6_150
# BB#138:                               # %if.then19.i
	movq	48(%rax), %r13
	testq	%r13, %r13
	movq	%r15, %r14
	je	.LBB6_150
# BB#139:
	movq	%rcx, %r14
.LBB6_140:                              # %for.body22.i
                                        # =>This Inner Loop Header: Depth=1
	movq	(%r13), %rdi
	movl	(%rdi), %esi
	movq	%rsi, %rax
	andq	$65535, %rax            # imm = 0xFFFF
	cmpq	$132, %rax
	jg	.LBB6_145
# BB#141:                               # %for.body22.i
                                        #   in Loop: Header=BB6_140 Depth=1
	addq	$-61, %rax
	andq	%r14, %rax
	cmpq	$5, %rax
	ja	.LBB6_148
# BB#142:                               # %for.body22.i
                                        #   in Loop: Header=BB6_140 Depth=1
	jmpq	*.LJTI6_0(,%rax,8)
.LBB6_143:                              # %land.lhs.true.i
                                        #   in Loop: Header=BB6_140 Depth=1
	movq	8(%rdi), %rax
	movzbl	(%rax), %eax
	cmpq	$61, %rax
	jne	.LBB6_148
.LBB6_144:                              # %if.then43.i
                                        #   in Loop: Header=BB6_140 Depth=1
	xorq	%rsi, %rsi
	jmp	.LBB6_147
.LBB6_145:                              # %for.body22.i
                                        #   in Loop: Header=BB6_140 Depth=1
	cmpq	$133, %rax
	jne	.LBB6_148
.LBB6_146:                              # %if.then54.i
                                        #   in Loop: Header=BB6_140 Depth=1
	movq	8(%rdi), %rdi
	movq	$16, %rcx
	shrq	%cl, %rsi
	andq	$255, %rsi
.LBB6_147:                              # %for.inc64.i
                                        #   in Loop: Header=BB6_140 Depth=1
	callq	invalidate
.LBB6_148:                              # %for.inc64.i
                                        #   in Loop: Header=BB6_140 Depth=1
	movq	32(%r13), %r13
	testq	%r13, %r13
	jne	.LBB6_140
# BB#149:
	movq	%r15, %r14
	jmp	.LBB6_150
.LBB6_98:                               # %if.then98
	movslq	max_reg(%rip), %rax
	movq	qty_table(%rip), %rdx
	leaq	(%rax,%rax,2), %rdi
	movq	$4, %rcx
	shlq	%cl, %rdi
	addq	%rdx, %rdi
	callq	free
	xorq	%rbx, %rbx
	jmp	.LBB6_99
.LBB6_112:                              # %if.then155
	movslq	max_reg(%rip), %rax
	movq	qty_table(%rip), %rdx
	leaq	(%rax,%rax,2), %rdi
	movq	$4, %rcx
	shlq	%cl, %rdi
	addq	%rdx, %rdi
	callq	free
	jmp	.LBB6_99
.LBB6_159:                              # %if.then116.i
                                        #   in Loop: Header=BB6_150 Depth=1
	movq	%r14, %rsi
	movq	%r15, %rdx
	callq	cse_set_around_loop
.LBB6_150:                              # %for.cond70.i
                                        # =>This Loop Header: Depth=1
                                        #     Child Loop BB6_161 Depth 2
	movq	24(%r14), %r14
	movzbl	(%r14), %eax
	cmpq	$34, %rax
	je	.LBB6_123
# BB#151:                               # %for.cond70.i
                                        #   in Loop: Header=BB6_150 Depth=1
	cmpq	$36, %rax
	je	.LBB6_123
# BB#152:                               # %land.lhs.true78.i
                                        #   in Loop: Header=BB6_150 Depth=1
	movslq	8(%r14), %rcx
	movslq	max_insn_uid(%rip), %rdx
	cmpq	%rdx, %rcx
	jge	.LBB6_123
# BB#153:                               # %land.rhs83.i
                                        #   in Loop: Header=BB6_150 Depth=1
	cmpq	$37, %rax
	jne	.LBB6_155
# BB#154:                               # %land.rhs87.i
                                        #   in Loop: Header=BB6_150 Depth=1
	movl	40(%r14), %ecx
	cmpq	%rbx, %rcx
	je	.LBB6_123
.LBB6_155:                              # %for.body94.i
                                        #   in Loop: Header=BB6_150 Depth=1
	movzbl	rtx_class(%rax), %eax
	cmpq	$105, %rax
	jne	.LBB6_150
# BB#156:                               # %land.lhs.true100.i
                                        #   in Loop: Header=BB6_150 Depth=1
	movq	32(%r14), %rdi
	movzbl	(%rdi), %eax
	cmpq	$39, %rax
	je	.LBB6_160
# BB#157:                               # %land.lhs.true100.i
                                        #   in Loop: Header=BB6_150 Depth=1
	cmpq	$47, %rax
	je	.LBB6_159
# BB#158:                               # %land.lhs.true100.i
                                        #   in Loop: Header=BB6_150 Depth=1
	cmpq	$49, %rax
	jne	.LBB6_150
	jmp	.LBB6_159
.LBB6_160:                              # %if.then136.i
                                        #   in Loop: Header=BB6_150 Depth=1
	movq	8(%rdi), %rax
	movslq	(%rax), %r13
	testq	%r13, %r13
	jle	.LBB6_150
	jmp	.LBB6_161
.LBB6_164:                              # %for.cond142.backedge.for.body145_crit_edge.i
                                        #   in Loop: Header=BB6_161 Depth=2
	movq	32(%r14), %rax
	movq	8(%rax), %rax
.LBB6_161:                              # %for.body145.lr.ph.i
                                        #   Parent Loop BB6_150 Depth=1
                                        # =>  This Inner Loop Header: Depth=2
	decq	%r13
	movq	8(%rax,%r13,8), %rdi
	movzbl	(%rdi), %eax
	cmpq	$47, %rax
	je	.LBB6_165
# BB#162:                               # %for.body145.i
                                        #   in Loop: Header=BB6_161 Depth=2
	cmpq	$49, %rax
	jne	.LBB6_163
.LBB6_165:                              # %if.then172.i
                                        #   in Loop: Header=BB6_161 Depth=2
	movq	%r14, %rsi
	movq	%r15, %rdx
	callq	cse_set_around_loop
.LBB6_163:                              # %for.cond142.backedge.i
                                        #   in Loop: Header=BB6_161 Depth=2
	movq	$32, %rcx
	movq	%r13, %rax
	shlq	%cl, %rax
	movq	$32, %rcx
	sarq	%cl, %rax
	testq	%rax, %rax
	jg	.LBB6_164
	jmp	.LBB6_150
.LBB6_123:                              # %if.end236
	movslq	max_reg(%rip), %rax
	movq	qty_table(%rip), %rdx
	leaq	(%rax,%rax,2), %rdi
	movq	$4, %rcx
	shlq	%cl, %rdi
	addq	%rdx, %rdi
	callq	free
	xorq	%rbx, %rbx
	testq	%r12, %r12
	je	.LBB6_99
# BB#124:                               # %cond.true
	movq	24(%r12), %rbx
.LBB6_99:                               # %return
	movq	%rbx, %rax
	addq	$240, %rsp
	popq	%rbx
	popq	%r12
	popq	%r13
	popq	%r14
	popq	%r15
	retq
.LBB6_168:                              # %if.then186
	movabsq	$.L.str4, %rax
	movabsq	$.L__FUNCTION__.cse_basic_block, %rcx
	movq	$7379, %rsi             # imm = 0x1CD3
	movq	%rax, %rdi
	movq	%rcx, %rdx
	callq	fancy_abort
.Ltmp94:
	.size	cse_basic_block, .Ltmp94-cse_basic_block
	.cfi_endproc
	.section	.rodata,"a",@progbits
	.align	8
.LJTI6_0:
	.quad	.LBB6_144
	.quad	.LBB6_148
	.quad	.LBB6_143
	.quad	.LBB6_146
	.quad	.LBB6_148
	.quad	.LBB6_144

	.text
	.globl	delete_trivially_dead_insns
	.align	16, 0x90
	.type	delete_trivially_dead_insns,@function
delete_trivially_dead_insns:            # @delete_trivially_dead_insns
	.cfi_startproc
# BB#0:                                 # %entry
	pushq	%r15
.Ltmp101:
	.cfi_def_cfa_offset 16
	pushq	%r14
.Ltmp102:
	.cfi_def_cfa_offset 24
	pushq	%r13
.Ltmp103:
	.cfi_def_cfa_offset 32
	pushq	%r12
.Ltmp104:
	.cfi_def_cfa_offset 40
	pushq	%rbx
.Ltmp105:
	.cfi_def_cfa_offset 48
	subq	$32, %rsp
.Ltmp106:
	.cfi_def_cfa_offset 80
.Ltmp107:
	.cfi_offset %rbx, -48
.Ltmp108:
	.cfi_offset %r12, -40
.Ltmp109:
	.cfi_offset %r13, -32
.Ltmp110:
	.cfi_offset %r14, -24
.Ltmp111:
	.cfi_offset %r15, -16
	movq	%rdx, %r14
	movq	%rsi, %rax
	movq	%rdi, %rbx
	movq	$32, %rcx
	shlq	%cl, %rax
	movq	$32, %rcx
	sarq	%cl, %rax
	movq	$4, %rsi
	movq	%rax, %rdi
	callq	xcalloc
	movq	%rax, %r15
	jmp	.LBB7_2
	.align	16, 0x90
.LBB7_1:                                # %for.body
                                        #   in Loop: Header=BB7_2 Depth=1
	xorq	%rdx, %rdx
	movq	$1, %rcx
	movq	%rbx, %rdi
	movq	%r15, %rsi
	callq	count_reg_usage
.LBB7_2:                                # %for.body
                                        # =>This Inner Loop Header: Depth=1
	movq	%rbx, %rdi
	callq	next_real_insn
	movq	%rax, %rbx
	testq	%rbx, %rbx
	jne	.LBB7_1
# BB#3:                                 # %for.end
	movq	%r15, (%rsp)            # 8-byte Spill
	callq	get_last_insn
	movq	%rax, %r12
	movzbl	(%r12), %eax
	movzbl	rtx_class(%rax), %eax
	cmpq	$105, %rax
	je	.LBB7_5
# BB#4:                                 # %if.then
	movq	%r12, %rdi
	callq	prev_real_insn
	movq	%rax, %r12
.LBB7_5:                                # %if.end
	movabsq	$4294967295, %rax       # imm = 0xFFFFFFFF
	testq	%rax, %r14
	je	.LBB7_18
# BB#6:                                 # %for.cond37.preheader
	movslq	n_basic_blocks(%rip), %rax
	testq	%rax, %rax
	jle	.LBB7_79
# BB#7:
	xorq	%r13, %r13
	movq	$0, 16(%rsp)            # 8-byte Folded Spill
	xorq	%r15, %r15
	.align	16, 0x90
.LBB7_8:                                # %for.body40
                                        # =>This Loop Header: Depth=1
                                        #     Child Loop BB7_9 Depth 2
                                        #       Child Loop BB7_10 Depth 3
                                        #       Child Loop BB7_68 Depth 3
	movq	basic_block_info(%rip), %rax
	movq	32(%rax,%r13,8), %r14
	movq	%r14, 24(%rsp)          # 8-byte Spill
	movq	8(%r14), %r12
	jmp	.LBB7_9
	.align	16, 0x90
.LBB7_17:                               # %if.end78
                                        #   in Loop: Header=BB7_9 Depth=2
	movq	$0, 16(%rsp)            # 8-byte Folded Spill
.LBB7_9:                                # %for.cond44.outer
                                        #   Parent Loop BB7_8 Depth=1
                                        # =>  This Loop Header: Depth=2
                                        #       Child Loop BB7_10 Depth 3
                                        #       Child Loop BB7_68 Depth 3
	movq	(%r14), %rax
	.align	16, 0x90
.LBB7_10:                               # %for.cond44
                                        #   Parent Loop BB7_8 Depth=1
                                        #     Parent Loop BB7_9 Depth=2
                                        # =>    This Inner Loop Header: Depth=3
	movq	%r12, %rbx
	cmpq	%rax, %rbx
	je	.LBB7_78
# BB#11:                                # %for.body47
                                        #   in Loop: Header=BB7_10 Depth=3
	movzbl	(%rbx), %ecx
	movzbl	rtx_class(%rcx), %ecx
	movq	16(%rbx), %r12
	cmpq	$105, %rcx
	jne	.LBB7_10
# BB#12:                                # %if.end58
                                        #   in Loop: Header=BB7_9 Depth=2
	movq	$6, %rsi
	xorq	%rdx, %rdx
	movq	%rbx, %rdi
	callq	find_reg_note
	testq	%rax, %rax
	jne	.LBB7_13
# BB#53:                                # %if.else64
                                        #   in Loop: Header=BB7_9 Depth=2
	movabsq	$4294967295, %r8        # imm = 0xFFFFFFFF
	testq	%r8, %r15
	jne	.LBB7_54
# BB#56:                                # %if.else70
                                        #   in Loop: Header=BB7_9 Depth=2
	movq	32(%rbx), %r14
	movzbl	(%r14), %eax
	cmpq	$39, %rax
	jne	.LBB7_57
# BB#67:                                # %if.then10.i137
                                        #   in Loop: Header=BB7_9 Depth=2
	movq	%r15, 8(%rsp)           # 8-byte Spill
	movq	8(%r14), %rax
	movslq	(%rax), %r15
	testq	%r15, %r15
	jle	.LBB7_65
	jmp	.LBB7_68
	.align	16, 0x90
.LBB7_71:                               # %for.cond.backedge.for.body_crit_edge.i151
                                        #   in Loop: Header=BB7_68 Depth=3
	movq	32(%rbx), %rax
	movq	8(%rax), %rax
.LBB7_68:                               # %for.body.lr.ph.i138
                                        #   Parent Loop BB7_8 Depth=1
                                        #     Parent Loop BB7_9 Depth=2
                                        # =>    This Inner Loop Header: Depth=3
	decq	%r15
	movq	8(%rax,%r15,8), %r14
	movzbl	(%r14), %eax
	cmpq	$47, %rax
	je	.LBB7_72
# BB#69:                                # %for.body.i144
                                        #   in Loop: Header=BB7_68 Depth=3
	addq	$-48, %rax
	andq	%r8, %rax
	cmpq	$1, %rax
	jbe	.LBB7_70
	jmp	.LBB7_58
	.align	16, 0x90
.LBB7_72:                               # %if.then27.i152
                                        #   in Loop: Header=BB7_68 Depth=3
	movq	%r14, %rdi
	callq	set_noop_p
	movabsq	$4294967295, %r8        # imm = 0xFFFFFFFF
	testq	%r8, %rax
	jne	.LBB7_70
# BB#73:                                # %if.else.i162
                                        #   in Loop: Header=BB7_68 Depth=3
	movq	8(%r14), %rax
	movzbl	(%rax), %ecx
	cmpq	$61, %rcx
	jne	.LBB7_58
# BB#74:                                # %lor.lhs.false.i166
                                        #   in Loop: Header=BB7_68 Depth=3
	movl	8(%rax), %eax
	cmpq	$53, %rax
	jb	.LBB7_58
# BB#75:                                # %lor.lhs.false7.i170
                                        #   in Loop: Header=BB7_68 Depth=3
	movq	(%rsp), %rcx            # 8-byte Reload
	movl	(%rcx,%rax,4), %eax
	testq	%rax, %rax
	jne	.LBB7_58
# BB#76:                                # %lor.lhs.false16.i175
                                        #   in Loop: Header=BB7_68 Depth=3
	movq	16(%r14), %rdi
	callq	side_effects_p
	movabsq	$4294967295, %r8        # imm = 0xFFFFFFFF
	testq	%r8, %rax
	jne	.LBB7_58
# BB#77:                                # %lor.lhs.false22.i178
                                        #   in Loop: Header=BB7_68 Depth=3
	movq	cfun(%rip), %rax
	movq	8(%r14), %rcx
	movq	128(%rax), %rax
	cmpq	%rax, %rcx
	je	.LBB7_58
	.align	16, 0x90
.LBB7_70:                               # %for.cond.backedge.i146
                                        #   in Loop: Header=BB7_68 Depth=3
	movq	$32, %rcx
	movq	%r15, %rax
	shlq	%cl, %rax
	movq	$32, %rcx
	sarq	%cl, %rax
	testq	%rax, %rax
	jg	.LBB7_71
	jmp	.LBB7_65
	.align	16, 0x90
.LBB7_13:                               # %if.end74.thread
                                        #   in Loop: Header=BB7_9 Depth=2
	movq	%rbx, %rdi
	callq	dead_libcall_p
	movq	%rax, 16(%rsp)          # 8-byte Spill
	movq	$1, %r15
	jmp	.LBB7_14
.LBB7_54:                               # %if.then66
                                        #   in Loop: Header=BB7_9 Depth=2
	movq	%r15, 8(%rsp)           # 8-byte Spill
	movq	16(%rsp), %rax          # 8-byte Reload
	testq	%r8, %rax
	jne	.LBB7_65
# BB#55:                                #   in Loop: Header=BB7_9 Depth=2
	movq	$0, 16(%rsp)            # 8-byte Folded Spill
	jmp	.LBB7_66
.LBB7_57:                               # %if.else70
                                        #   in Loop: Header=BB7_9 Depth=2
	cmpq	$47, %rax
	jne	.LBB7_58
# BB#59:                                # %if.then.i132
                                        #   in Loop: Header=BB7_9 Depth=2
	movq	%r15, 8(%rsp)           # 8-byte Spill
	movq	%r14, %rdi
	callq	set_noop_p
	movabsq	$4294967295, %r8        # imm = 0xFFFFFFFF
	testq	%r8, %rax
	jne	.LBB7_65
# BB#60:                                # %if.else.i215
                                        #   in Loop: Header=BB7_9 Depth=2
	movq	8(%r14), %rax
	movzbl	(%rax), %ecx
	cmpq	$61, %rcx
	jne	.LBB7_58
# BB#61:                                # %lor.lhs.false.i219
                                        #   in Loop: Header=BB7_9 Depth=2
	movl	8(%rax), %eax
	cmpq	$53, %rax
	jb	.LBB7_58
# BB#62:                                # %lor.lhs.false7.i223
                                        #   in Loop: Header=BB7_9 Depth=2
	movq	(%rsp), %rcx            # 8-byte Reload
	movl	(%rcx,%rax,4), %eax
	testq	%rax, %rax
	jne	.LBB7_58
# BB#63:                                # %lor.lhs.false16.i228
                                        #   in Loop: Header=BB7_9 Depth=2
	movq	16(%r14), %rdi
	callq	side_effects_p
	movabsq	$4294967295, %r8        # imm = 0xFFFFFFFF
	testq	%r8, %rax
	jne	.LBB7_58
# BB#64:                                # %lor.lhs.false22.i231
                                        #   in Loop: Header=BB7_9 Depth=2
	movq	cfun(%rip), %rax
	movq	8(%r14), %rcx
	movq	128(%rax), %rax
	cmpq	%rax, %rcx
	jne	.LBB7_65
.LBB7_58:                               #   in Loop: Header=BB7_9 Depth=2
	xorq	%r15, %r15
	movq	24(%rsp), %r14          # 8-byte Reload
	jmp	.LBB7_14
.LBB7_65:                               # %if.then76
                                        #   in Loop: Header=BB7_9 Depth=2
	xorq	%rdx, %rdx
	movq	%rbx, %rdi
	movq	(%rsp), %rsi            # 8-byte Reload
	movq	%r8, %rcx
	callq	count_reg_usage
	movq	%rbx, %rdi
	callq	delete_insn
.LBB7_66:                               # %if.end78
                                        #   in Loop: Header=BB7_9 Depth=2
	movq	24(%rsp), %r14          # 8-byte Reload
	movq	8(%rsp), %r15           # 8-byte Reload
.LBB7_14:                               # %if.end78
                                        #   in Loop: Header=BB7_9 Depth=2
	movq	$7, %rsi
	xorq	%rdx, %rdx
	movq	%rbx, %rdi
	callq	find_reg_note
	testq	%rax, %rax
	je	.LBB7_16
# BB#15:                                # %if.end78
                                        #   in Loop: Header=BB7_9 Depth=2
	movabsq	$0, %r15
.LBB7_16:                               # %if.end78
                                        #   in Loop: Header=BB7_9 Depth=2
	je	.LBB7_9
	jmp	.LBB7_17
	.align	16, 0x90
.LBB7_78:                               # %for.inc85
                                        #   in Loop: Header=BB7_8 Depth=1
	incq	%r13
	movslq	n_basic_blocks(%rip), %rax
	movq	$32, %rcx
	movq	%r13, %rdx
	shlq	%cl, %rdx
	movq	$32, %rcx
	sarq	%cl, %rdx
	cmpq	%rax, %rdx
	jl	.LBB7_8
	jmp	.LBB7_79
.LBB7_18:                               # %for.cond9.preheader
	testq	%r12, %r12
	je	.LBB7_79
# BB#19:
	xorq	%r14, %r14
	xorq	%r15, %r15
	.align	16, 0x90
.LBB7_20:                               # %for.body11
                                        # =>This Loop Header: Depth=1
                                        #     Child Loop BB7_43 Depth 2
	movq	%r12, %rdi
	callq	prev_real_insn
	movq	%rax, %rbx
	movq	$6, %rsi
	xorq	%rdx, %rdx
	movq	%r12, %rdi
	callq	find_reg_note
	testq	%rax, %rax
	jne	.LBB7_21
# BB#27:                                # %if.else
                                        #   in Loop: Header=BB7_20 Depth=1
	movq	%rbx, 16(%rsp)          # 8-byte Spill
	movq	%r14, 24(%rsp)          # 8-byte Spill
	movabsq	$4294967295, %r8        # imm = 0xFFFFFFFF
	testq	%r8, %r15
	jne	.LBB7_28
# BB#30:                                # %if.else21
                                        #   in Loop: Header=BB7_20 Depth=1
	movq	32(%r12), %r14
	movzbl	(%r14), %eax
	cmpq	$39, %rax
	jne	.LBB7_31
# BB#42:                                # %if.then10.i
                                        #   in Loop: Header=BB7_20 Depth=1
	movq	8(%r14), %rax
	movslq	(%rax), %r14
	testq	%r14, %r14
	jle	.LBB7_39
	jmp	.LBB7_43
	.align	16, 0x90
.LBB7_46:                               # %for.cond.backedge.for.body_crit_edge.i
                                        #   in Loop: Header=BB7_43 Depth=2
	movq	32(%r12), %rax
	movq	8(%rax), %rax
.LBB7_43:                               # %for.body.lr.ph.i
                                        #   Parent Loop BB7_20 Depth=1
                                        # =>  This Inner Loop Header: Depth=2
	decq	%r14
	movq	8(%rax,%r14,8), %rbx
	movzbl	(%rbx), %eax
	cmpq	$47, %rax
	je	.LBB7_47
# BB#44:                                # %for.body.i
                                        #   in Loop: Header=BB7_43 Depth=2
	addq	$-48, %rax
	andq	%r8, %rax
	cmpq	$1, %rax
	jbe	.LBB7_45
	jmp	.LBB7_32
	.align	16, 0x90
.LBB7_47:                               # %if.then27.i
                                        #   in Loop: Header=BB7_43 Depth=2
	movq	%rbx, %rdi
	movq	%r15, %r13
	movq	%r8, %r15
	callq	set_noop_p
	movq	%r15, %r8
	movq	%r13, %r15
	testq	%r8, %rax
	jne	.LBB7_45
# BB#48:                                # %if.else.i
                                        #   in Loop: Header=BB7_43 Depth=2
	movq	8(%rbx), %rax
	movzbl	(%rax), %ecx
	cmpq	$61, %rcx
	jne	.LBB7_32
# BB#49:                                # %lor.lhs.false.i
                                        #   in Loop: Header=BB7_43 Depth=2
	movl	8(%rax), %eax
	cmpq	$53, %rax
	jb	.LBB7_32
# BB#50:                                # %lor.lhs.false7.i
                                        #   in Loop: Header=BB7_43 Depth=2
	movq	(%rsp), %rcx            # 8-byte Reload
	movl	(%rcx,%rax,4), %eax
	testq	%rax, %rax
	jne	.LBB7_32
# BB#51:                                # %lor.lhs.false16.i
                                        #   in Loop: Header=BB7_43 Depth=2
	movq	16(%rbx), %rdi
	callq	side_effects_p
	movabsq	$4294967295, %r8        # imm = 0xFFFFFFFF
	testq	%r8, %rax
	jne	.LBB7_32
# BB#52:                                # %lor.lhs.false22.i
                                        #   in Loop: Header=BB7_43 Depth=2
	movq	cfun(%rip), %rax
	movq	8(%rbx), %rcx
	movq	128(%rax), %rax
	cmpq	%rax, %rcx
	je	.LBB7_32
	.align	16, 0x90
.LBB7_45:                               # %for.cond.backedge.i
                                        #   in Loop: Header=BB7_43 Depth=2
	movq	$32, %rcx
	movq	%r14, %rax
	shlq	%cl, %rax
	movq	$32, %rcx
	sarq	%cl, %rax
	testq	%rax, %rax
	jg	.LBB7_46
	jmp	.LBB7_39
	.align	16, 0x90
.LBB7_21:                               # %if.end25.thread
                                        #   in Loop: Header=BB7_20 Depth=1
	movq	%r12, %rdi
	callq	dead_libcall_p
	movq	%rax, %r14
	movq	$1, %r15
	jmp	.LBB7_22
	.align	16, 0x90
.LBB7_28:                               # %if.then19
                                        #   in Loop: Header=BB7_20 Depth=1
	movq	24(%rsp), %rax          # 8-byte Reload
	testq	%r8, %rax
	jne	.LBB7_39
# BB#29:                                #   in Loop: Header=BB7_20 Depth=1
	xorq	%r14, %r14
	movq	16(%rsp), %rbx          # 8-byte Reload
	jmp	.LBB7_22
.LBB7_31:                               # %if.else21
                                        #   in Loop: Header=BB7_20 Depth=1
	cmpq	$47, %rax
	jne	.LBB7_32
# BB#33:                                # %if.then.i
                                        #   in Loop: Header=BB7_20 Depth=1
	movq	%r14, %rdi
	callq	set_noop_p
	movabsq	$4294967295, %r8        # imm = 0xFFFFFFFF
	testq	%r8, %rax
	jne	.LBB7_39
# BB#34:                                # %if.else.i189
                                        #   in Loop: Header=BB7_20 Depth=1
	movq	8(%r14), %rax
	movzbl	(%rax), %ecx
	cmpq	$61, %rcx
	jne	.LBB7_32
# BB#35:                                # %lor.lhs.false.i193
                                        #   in Loop: Header=BB7_20 Depth=1
	movl	8(%rax), %eax
	cmpq	$53, %rax
	jb	.LBB7_32
# BB#36:                                # %lor.lhs.false7.i197
                                        #   in Loop: Header=BB7_20 Depth=1
	movq	(%rsp), %rcx            # 8-byte Reload
	movl	(%rcx,%rax,4), %eax
	testq	%rax, %rax
	jne	.LBB7_32
# BB#37:                                # %lor.lhs.false16.i202
                                        #   in Loop: Header=BB7_20 Depth=1
	movq	16(%r14), %rdi
	callq	side_effects_p
	movabsq	$4294967295, %r8        # imm = 0xFFFFFFFF
	testq	%r8, %rax
	jne	.LBB7_32
# BB#38:                                # %lor.lhs.false22.i205
                                        #   in Loop: Header=BB7_20 Depth=1
	movq	cfun(%rip), %rax
	movq	8(%r14), %rcx
	movq	128(%rax), %rax
	cmpq	%rax, %rcx
	jne	.LBB7_39
.LBB7_32:                               #   in Loop: Header=BB7_20 Depth=1
	xorq	%r15, %r15
	jmp	.LBB7_40
	.align	16, 0x90
.LBB7_39:                               # %if.then27
                                        #   in Loop: Header=BB7_20 Depth=1
	xorq	%rdx, %rdx
	movq	%r12, %rdi
	movq	(%rsp), %rsi            # 8-byte Reload
	movq	%r8, %rcx
	callq	count_reg_usage
	movq	%r12, %rdi
	callq	delete_related_insns
.LBB7_40:                               # %if.end29
                                        #   in Loop: Header=BB7_20 Depth=1
	movq	24(%rsp), %r14          # 8-byte Reload
	movq	16(%rsp), %rbx          # 8-byte Reload
.LBB7_22:                               # %if.end29
                                        #   in Loop: Header=BB7_20 Depth=1
	movq	$7, %rsi
	xorq	%rdx, %rdx
	movq	%r12, %rdi
	callq	find_reg_note
	testq	%rax, %rax
	je	.LBB7_24
# BB#23:                                # %if.end29
                                        #   in Loop: Header=BB7_20 Depth=1
	movabsq	$0, %r15
.LBB7_24:                               # %if.end29
                                        #   in Loop: Header=BB7_20 Depth=1
	je	.LBB7_26
# BB#25:                                # %if.end29
                                        #   in Loop: Header=BB7_20 Depth=1
	xorq	%r14, %r14
.LBB7_26:                               # %if.end29
                                        #   in Loop: Header=BB7_20 Depth=1
	testq	%rbx, %rbx
	movq	%rbx, %r12
	jne	.LBB7_20
.LBB7_79:                               # %if.end87
	movq	(%rsp), %rdi            # 8-byte Reload
	addq	$32, %rsp
	popq	%rbx
	popq	%r12
	popq	%r13
	popq	%r14
	popq	%r15
	jmp	free  # TAILCALL
.Ltmp112:
	.size	delete_trivially_dead_insns, .Ltmp112-delete_trivially_dead_insns
	.cfi_endproc

	.align	16, 0x90
	.type	count_reg_usage,@function
count_reg_usage:                        # @count_reg_usage
	.cfi_startproc
# BB#0:                                 # %entry
	pushq	%r15
.Ltmp119:
	.cfi_def_cfa_offset 16
	pushq	%r14
.Ltmp120:
	.cfi_def_cfa_offset 24
	pushq	%r13
.Ltmp121:
	.cfi_def_cfa_offset 32
	pushq	%r12
.Ltmp122:
	.cfi_def_cfa_offset 40
	pushq	%rbx
.Ltmp123:
	.cfi_def_cfa_offset 48
	subq	$32, %rsp
.Ltmp124:
	.cfi_def_cfa_offset 80
.Ltmp125:
	.cfi_offset %rbx, -48
.Ltmp126:
	.cfi_offset %r12, -40
.Ltmp127:
	.cfi_offset %r13, -32
.Ltmp128:
	.cfi_offset %r14, -24
.Ltmp129:
	.cfi_offset %r15, -16
	movq	%rcx, 24(%rsp)          # 8-byte Spill
	movq	%rdx, %r12
	movq	%rsi, %r15
	movq	%rdi, %rbx
	testq	%rbx, %rbx
	je	.LBB8_27
# BB#1:
	movabsq	$4294967295, %r14       # imm = 0xFFFFFFFF
	jmp	.LBB8_2
.LBB8_18:                               # %sw.bb20
                                        #   in Loop: Header=BB8_2 Depth=1
	movq	8(%rbx), %rdi
	movzbl	(%rdi), %eax
	cmpq	$61, %rax
	je	.LBB8_20
# BB#19:                                # %if.then27
                                        #   in Loop: Header=BB8_2 Depth=1
	xorq	%rdx, %rdx
	movq	%r15, %rsi
	movq	24(%rsp), %rcx          # 8-byte Reload
	callq	count_reg_usage
.LBB8_20:                               # %if.end31
                                        #   in Loop: Header=BB8_2 Depth=1
	movq	16(%rbx), %r13
	movq	%r13, %rdi
	callq	side_effects_p
	xorq	%r12, %r12
	testq	%r14, %rax
	jne	.LBB8_26
# BB#21:                                # %cond.false
                                        #   in Loop: Header=BB8_2 Depth=1
	movq	8(%rbx), %r12
	jmp	.LBB8_26
.LBB8_22:                               # %land.lhs.true
                                        #   in Loop: Header=BB8_2 Depth=1
	movq	8(%rbx), %rdi
	movzbl	(%rdi), %eax
	cmpq	$48, %rax
	jne	.LBB8_24
.LBB8_23:                               # %if.then66
                                        #   in Loop: Header=BB8_2 Depth=1
	xorq	%rdx, %rdx
	movq	%r15, %rsi
	movq	24(%rsp), %rcx          # 8-byte Reload
	callq	count_reg_usage
.LBB8_24:                               # %if.end70
                                        #   in Loop: Header=BB8_2 Depth=1
	movq	16(%rbx), %r13
.LBB8_25:                               # %tailrecurse.backedge
                                        #   in Loop: Header=BB8_2 Depth=1
	xorq	%r12, %r12
.LBB8_26:                               # %tailrecurse.backedge
                                        #   in Loop: Header=BB8_2 Depth=1
	testq	%r13, %r13
	movq	%r13, %rbx
	jne	.LBB8_2
	jmp	.LBB8_27
.LBB8_16:                               # %sw.bb6
                                        #   in Loop: Header=BB8_2 Depth=1
	movq	8(%rbx), %rax
	movzbl	(%rax), %ecx
	cmpq	$66, %rcx
	jne	.LBB8_27
# BB#17:                                # %if.then12
                                        #   in Loop: Header=BB8_2 Depth=1
	movq	8(%rax), %r13
	jmp	.LBB8_25
	.align	16, 0x90
.LBB8_2:                                # %if.end
                                        # =>This Inner Loop Header: Depth=1
	movl	(%rbx), %edx
	movq	%rdx, %rax
	andq	$65535, %rax            # imm = 0xFFFF
	cmpq	$31, %rax
	jg	.LBB8_7
# BB#3:                                 # %if.end
                                        #   in Loop: Header=BB8_2 Depth=1
	leaq	-3(%rax), %rcx
	andq	%r14, %rcx
	cmpq	$2, %rcx
	jae	.LBB8_28
# BB#4:                                 # %sw.bb52
                                        #   in Loop: Header=BB8_2 Depth=1
	movq	$16, %rcx
	shrq	%cl, %rdx
	andq	$255, %rdx
	cmpq	$8, %rdx
	je	.LBB8_24
# BB#5:                                 # %sw.bb52
                                        #   in Loop: Header=BB8_2 Depth=1
	cmpq	$4, %rdx
	jne	.LBB8_22
# BB#6:                                 # %sw.bb52.if.then66_crit_edge
                                        #   in Loop: Header=BB8_2 Depth=1
	movq	8(%rbx), %rdi
	jmp	.LBB8_23
	.align	16, 0x90
.LBB8_7:                                # %if.end
                                        #   in Loop: Header=BB8_2 Depth=1
	cmpq	$46, %rax
	jg	.LBB8_12
# BB#8:                                 # %if.end
                                        #   in Loop: Header=BB8_2 Depth=1
	leaq	-32(%rax), %rcx
	andq	%r14, %rcx
	cmpq	$2, %rcx
	jb	.LBB8_11
# BB#9:                                 # %if.end
                                        #   in Loop: Header=BB8_2 Depth=1
	cmpq	$34, %rax
	jne	.LBB8_28
# BB#10:                                # %sw.bb41
                                        #   in Loop: Header=BB8_2 Depth=1
	movq	64(%rbx), %rdi
	xorq	%rdx, %rdx
	movq	%r15, %rsi
	movq	24(%rsp), %rcx          # 8-byte Reload
	callq	count_reg_usage
.LBB8_11:                               # %sw.bb45
                                        #   in Loop: Header=BB8_2 Depth=1
	movq	32(%rbx), %rdi
	xorq	%rdx, %rdx
	xorq	%r12, %r12
	movq	%r15, %rsi
	movq	24(%rsp), %rcx          # 8-byte Reload
	callq	count_reg_usage
	movq	56(%rbx), %r13
	jmp	.LBB8_26
	.align	16, 0x90
.LBB8_12:                               # %if.end
                                        #   in Loop: Header=BB8_2 Depth=1
	leaq	-47(%rax), %rcx
	andq	%r14, %rcx
	cmpq	$22, %rcx
	ja	.LBB8_28
# BB#13:                                # %if.end
                                        #   in Loop: Header=BB8_2 Depth=1
	jmpq	*.LJTI8_0(,%rcx,8)
.LBB8_28:                               # %sw.epilog
	movzbl	rtx_length(%rax), %edx
	testq	%rdx, %rdx
	je	.LBB8_27
# BB#29:                                # %for.body.lr.ph
	movq	rtx_format(,%rax,8), %rax
	movq	%rax, 8(%rsp)           # 8-byte Spill
	.align	16, 0x90
.LBB8_30:                               # %for.body
                                        # =>This Loop Header: Depth=1
                                        #     Child Loop BB8_35 Depth 2
	movq	%rdx, %r13
	movq	8(%rsp), %rax           # 8-byte Reload
	movzbl	-1(%rax,%r13), %eax
	leaq	-1(%r13), %rcx
	movq	%rcx, 16(%rsp)          # 8-byte Spill
	cmpq	$69, %rax
	jne	.LBB8_31
# BB#34:                                # %if.then95
                                        #   in Loop: Header=BB8_30 Depth=1
	movq	(%rbx,%r13,8), %rax
	movslq	(%rax), %r14
	testq	%r14, %r14
	jle	.LBB8_32
	jmp	.LBB8_35
	.align	16, 0x90
.LBB8_36:                               # %for.body103.for.body103_crit_edge
                                        #   in Loop: Header=BB8_35 Depth=2
	movq	(%rbx,%r13,8), %rax
.LBB8_35:                               # %for.body103.lr.ph
                                        #   Parent Loop BB8_30 Depth=1
                                        # =>  This Inner Loop Header: Depth=2
	decq	%r14
	movq	8(%rax,%r14,8), %rdi
	movq	%r15, %rsi
	movq	%r12, %rdx
	movq	24(%rsp), %rcx          # 8-byte Reload
	callq	count_reg_usage
	movq	$32, %rcx
	movq	%r14, %rax
	shlq	%cl, %rax
	movq	$32, %rcx
	sarq	%cl, %rax
	testq	%rax, %rax
	jg	.LBB8_36
	jmp	.LBB8_32
	.align	16, 0x90
.LBB8_31:                               # %for.body
                                        #   in Loop: Header=BB8_30 Depth=1
	cmpq	$101, %rax
	jne	.LBB8_32
# BB#33:                                # %if.then85
                                        #   in Loop: Header=BB8_30 Depth=1
	movq	(%rbx,%r13,8), %rdi
	movq	%r15, %rsi
	movq	%r12, %rdx
	movq	24(%rsp), %rcx          # 8-byte Reload
	callq	count_reg_usage
.LBB8_32:                               # %for.cond.backedge
                                        #   in Loop: Header=BB8_30 Depth=1
	movq	$32, %rcx
	movq	16(%rsp), %rdx          # 8-byte Reload
	movq	%rdx, %rax
	shlq	%cl, %rax
	movq	$32, %rcx
	sarq	%cl, %rax
	testq	%rax, %rax
	jg	.LBB8_30
	jmp	.LBB8_27
.LBB8_14:                               # %sw.bb
	cmpq	%r12, %rbx
	je	.LBB8_27
# BB#15:                                # %if.then2
	movl	8(%rbx), %eax
	movl	(%r15,%rax,4), %ecx
	movq	24(%rsp), %rdx          # 8-byte Reload
	addq	%rdx, %rcx
	movl	%ecx, (%r15,%rax,4)
.LBB8_27:                               # %for.end114
	addq	$32, %rsp
	popq	%rbx
	popq	%r12
	popq	%r13
	popq	%r14
	popq	%r15
	retq
.Ltmp130:
	.size	count_reg_usage, .Ltmp130-count_reg_usage
	.cfi_endproc
	.section	.rodata,"a",@progbits
	.align	8
.LJTI8_0:
	.quad	.LBB8_18
	.quad	.LBB8_28
	.quad	.LBB8_16
	.quad	.LBB8_28
	.quad	.LBB8_28
	.quad	.LBB8_28
	.quad	.LBB8_28
	.quad	.LBB8_27
	.quad	.LBB8_27
	.quad	.LBB8_27
	.quad	.LBB8_28
	.quad	.LBB8_27
	.quad	.LBB8_27
	.quad	.LBB8_28
	.quad	.LBB8_14
	.quad	.LBB8_28
	.quad	.LBB8_28
	.quad	.LBB8_28
	.quad	.LBB8_28
	.quad	.LBB8_28
	.quad	.LBB8_27
	.quad	.LBB8_27
	.quad	.LBB8_27

	.text
	.align	16, 0x90
	.type	dead_libcall_p,@function
dead_libcall_p:                         # @dead_libcall_p
	.cfi_startproc
# BB#0:                                 # %entry
	pushq	%r15
.Ltmp136:
	.cfi_def_cfa_offset 16
	pushq	%r14
.Ltmp137:
	.cfi_def_cfa_offset 24
	pushq	%r12
.Ltmp138:
	.cfi_def_cfa_offset 32
	pushq	%rbx
.Ltmp139:
	.cfi_def_cfa_offset 40
	pushq	%rax
.Ltmp140:
	.cfi_def_cfa_offset 48
.Ltmp141:
	.cfi_offset %rbx, -40
.Ltmp142:
	.cfi_offset %r12, -32
.Ltmp143:
	.cfi_offset %r14, -24
.Ltmp144:
	.cfi_offset %r15, -16
	movq	%rdi, %r14
	movq	$4, %rsi
	xorq	%rdx, %rdx
	xorq	%rbx, %rbx
                                        # kill: RDI<def> R14<kill>
	callq	find_reg_note
	movq	%rax, %r15
	testq	%r15, %r15
	je	.LBB9_9
# BB#1:                                 # %if.then
	movzbl	(%r14), %eax
	movzbl	rtx_class(%rax), %eax
	xorq	%r12, %r12
	cmpq	$105, %rax
	jne	.LBB9_4
# BB#2:                                 # %cond.true
	movq	32(%r14), %r12
	movzbl	(%r12), %eax
	cmpq	$47, %rax
	je	.LBB9_4
# BB#3:                                 # %cond.false
	movq	%r14, %rdi
	movq	%r12, %rsi
	callq	single_set_2
	movq	%rax, %r12
.LBB9_4:                                # %cond.end16
	movq	8(%r15), %rdi
	callq	simplify_rtx
	testq	%rax, %rax
	jne	.LBB9_6
# BB#5:                                 # %if.then23
	movq	8(%r15), %rax
.LBB9_6:                                # %if.end
	xorq	%rbx, %rbx
	testq	%r12, %r12
	je	.LBB9_9
# BB#7:                                 # %land.lhs.true
	addq	$16, %r12
	xorq	%rcx, %rcx
	xorq	%rbx, %rbx
	movq	%r14, %rdi
	movq	%r12, %rsi
	movq	%rax, %rdx
	callq	validate_change
	movabsq	$4294967295, %rcx       # imm = 0xFFFFFFFF
	testq	%rcx, %rax
	je	.LBB9_9
# BB#8:                                 # %if.then33
	movq	$6, %rsi
	xorq	%rdx, %rdx
	movq	%r14, %rdi
	callq	find_reg_note
	movq	%r14, %rdi
	movq	%rax, %rsi
	callq	remove_note
	movq	$1, %rbx
.LBB9_9:                                # %return
	movq	%rbx, %rax
	addq	$8, %rsp
	popq	%rbx
	popq	%r12
	popq	%r14
	popq	%r15
	retq
.Ltmp145:
	.size	dead_libcall_p, .Ltmp145-dead_libcall_p
	.cfi_endproc

	.align	16, 0x90
	.type	record_jump_equiv,@function
record_jump_equiv:                      # @record_jump_equiv
	.cfi_startproc
# BB#0:                                 # %entry
	pushq	%r15
.Ltmp152:
	.cfi_def_cfa_offset 16
	pushq	%r14
.Ltmp153:
	.cfi_def_cfa_offset 24
	pushq	%r13
.Ltmp154:
	.cfi_def_cfa_offset 32
	pushq	%r12
.Ltmp155:
	.cfi_def_cfa_offset 40
	pushq	%rbx
.Ltmp156:
	.cfi_def_cfa_offset 48
	subq	$32, %rsp
.Ltmp157:
	.cfi_def_cfa_offset 80
.Ltmp158:
	.cfi_offset %rbx, -48
.Ltmp159:
	.cfi_offset %r12, -40
.Ltmp160:
	.cfi_offset %r13, -32
.Ltmp161:
	.cfi_offset %r14, -24
.Ltmp162:
	.cfi_offset %r15, -16
	movq	%rsi, %rbx
	movq	%rdi, %r12
                                        # kill: RDI<def> R12<kill>
	callq	any_condjump_p
	movabsq	$4294967295, %r15       # imm = 0xFFFFFFFF
	testq	%r15, %rax
	je	.LBB10_12
# BB#1:                                 # %if.end
	movq	%r12, %rdi
	callq	pc_set
	movq	%rax, %r14
	movq	16(%r14), %rax
	testq	%r15, %rbx
	je	.LBB10_4
# BB#2:                                 # %if.then3
	movq	24(%rax), %rcx
	movq	global_rtl(%rip), %rdx
	cmpq	%rdx, %rcx
	je	.LBB10_6
# BB#3:
	movabsq	$0, %r13
	jmp	.LBB10_7
.LBB10_4:                               # %if.else
	movq	16(%rax), %rcx
	movq	global_rtl(%rip), %rdx
	cmpq	%rdx, %rcx
	jne	.LBB10_5
.LBB10_6:                               # %if.else
	movabsq	$1, %r13
	jmp	.LBB10_7
.LBB10_5:
	movabsq	$0, %r13
.LBB10_7:                               # %if.end15
	movq	8(%rax), %rax
	movq	8(%rax), %rdi
	movzbl	(%rax), %ebx
	movq	%r12, %rsi
	callq	fold_rtx
	movq	%rax, 24(%rsp)
	movq	16(%r14), %rax
	movq	8(%rax), %rax
	movq	16(%rax), %rdi
	movq	%r12, %rsi
	callq	fold_rtx
	movq	%rax, 16(%rsp)
	leaq	24(%rsp), %rsi
	leaq	16(%rsp), %rdx
	leaq	12(%rsp), %rcx
	leaq	8(%rsp), %r8
	movq	%rbx, %rdi
	callq	find_comparison_args
	movq	24(%rsp), %r14
	movq	16(%rsp), %r15
	testq	%r13, %r13
	jne	.LBB10_9
# BB#8:                                 # %if.then44
	movq	%rax, %rdi
	movq	%r14, %rsi
	movq	%r15, %rdx
	movq	%r12, %rcx
	callq	reversed_comparison_code_parts
	movabsq	$4294967295, %rcx       # imm = 0xFFFFFFFF
	testq	%rcx, %rax
	je	.LBB10_12
.LBB10_9:                               # %if.end50
	movl	8(%rsp), %esi
	testq	%rsi, %rsi
	jne	.LBB10_11
# BB#10:
	movl	12(%rsp), %esi
.LBB10_11:                              # %if.end50
	movq	%rax, %rdi
	movq	%r14, %rdx
	movq	%r15, %rcx
	addq	$32, %rsp
	popq	%rbx
	popq	%r12
	popq	%r13
	popq	%r14
	popq	%r15
	jmp	record_jump_cond  # TAILCALL
.LBB10_12:                              # %return
	addq	$32, %rsp
	popq	%rbx
	popq	%r12
	popq	%r13
	popq	%r14
	popq	%r15
	retq
.Ltmp163:
	.size	record_jump_equiv, .Ltmp163-record_jump_equiv
	.cfi_endproc

	.align	16, 0x90
	.type	cse_process_notes,@function
cse_process_notes:                      # @cse_process_notes
	.cfi_startproc
# BB#0:                                 # %entry
	pushq	%r15
.Ltmp170:
	.cfi_def_cfa_offset 16
	pushq	%r14
.Ltmp171:
	.cfi_def_cfa_offset 24
	pushq	%r13
.Ltmp172:
	.cfi_def_cfa_offset 32
	pushq	%r12
.Ltmp173:
	.cfi_def_cfa_offset 40
	pushq	%rbx
.Ltmp174:
	.cfi_def_cfa_offset 48
	subq	$16, %rsp
.Ltmp175:
	.cfi_def_cfa_offset 64
.Ltmp176:
	.cfi_offset %rbx, -48
.Ltmp177:
	.cfi_offset %r12, -40
.Ltmp178:
	.cfi_offset %r13, -32
.Ltmp179:
	.cfi_offset %r14, -24
.Ltmp180:
	.cfi_offset %r15, -16
	movq	%rdi, %r14
	movl	(%r14), %ecx
	movq	%rcx, %rax
	andq	$65535, %rax            # imm = 0xFFFF
	movq	rtx_format(,%rax,8), %r12
	movq	%rsi, %r15
	cmpq	$53, %rax
	jg	.LBB11_4
# BB#1:                                 # %entry
	leaq	-3(%rax), %rdx
	movabsq	$4294967295, %rsi       # imm = 0xFFFFFFFF
	andq	%rdx, %rsi
	cmpq	$2, %rsi
	jae	.LBB11_2
# BB#11:                                # %sw.bb7
	andq	$16711680, %rcx         # imm = 0xFF0000
	cmpq	$262144, %rcx           # imm = 0x40000
	jne	.LBB11_13
# BB#12:                                # %if.then
	movq	8(%r14), %rdi
	xorq	%rsi, %rsi
	callq	cse_process_notes
	movq	%rax, 8(%r14)
.LBB11_13:                              # %if.end
	movq	16(%r14), %rdi
	testq	%rdi, %rdi
	je	.LBB11_14
# BB#15:                                # %if.then20
	xorq	%rsi, %rsi
	callq	cse_process_notes
	movq	%rax, 16(%r14)
.LBB11_16:                              # %if.then20
	movq	%r14, %rax
	jmp	.LBB11_17
.LBB11_4:                               # %entry
	cmpq	$119, %rax
	jg	.LBB11_7
# BB#5:                                 # %entry
	leaq	-54(%rax), %rcx
	movabsq	$4294967295, %r13       # imm = 0xFFFFFFFF
	andq	%r13, %rcx
	cmpq	$15, %rcx
	ja	.LBB11_2
# BB#6:                                 # %entry
	movq	%r14, %rbx
	jmpq	*.LJTI11_0(,%rcx,8)
.LBB11_21:                              # %sw.bb44
	movl	8(%r14), %ebx
	movl	cached_regno(%rip), %eax
	cmpq	%rax, %rbx
	jne	.LBB11_23
# BB#22:                                # %sw.bb44
	movq	cached_cse_reg_info(%rip), %rax
	testq	%rax, %rax
	movq	%rbx, %r12
	jne	.LBB11_33
.LBB11_23:                              # %cond.false
	movq	$7, %rcx
	movq	%rbx, %r15
	shrq	%cl, %r15
	xorq	%rbx, %r15
	andq	$127, %r15
	movq	reg_hash(,%r15,8), %rcx
	testq	%rcx, %rcx
	je	.LBB11_27
# BB#24:
	movq	%rcx, %rax
.LBB11_26:                              # %for.body.i222
                                        # =>This Inner Loop Header: Depth=1
	movl	16(%rax), %edx
	cmpq	%rbx, %rdx
	je	.LBB11_32
# BB#25:                                # %for.cond.i218
                                        #   in Loop: Header=BB11_26 Depth=1
	movq	(%rax), %rax
	testq	%rax, %rax
	jne	.LBB11_26
.LBB11_27:                              # %if.then4.i224
	movq	cse_reg_info_free_list(%rip), %rax
	testq	%rax, %rax
	je	.LBB11_29
# BB#28:                                # %if.then5.i226
	movq	8(%rax), %rdx
	movq	%rdx, cse_reg_info_free_list(%rip)
	jmp	.LBB11_30
.LBB11_7:                               # %entry
	leaq	-120(%rax), %rcx
	movabsq	$4294967295, %rdx       # imm = 0xFFFFFFFF
	andq	%rcx, %rdx
	cmpq	$2, %rdx
	jae	.LBB11_8
.LBB11_18:                              # %sw.bb29
	movq	8(%r14), %rdi
	movq	%r15, %rsi
	callq	cse_process_notes
	movzbl	2(%rax), %ecx
	testq	%rcx, %rcx
	je	.LBB11_19
# BB#20:                                # %if.then38
	leaq	8(%r14), %rsi
	xorq	%rcx, %rcx
	movq	%r15, %rdi
	movq	%rax, %rdx
	callq	validate_change
	movq	%r14, %rbx
	movq	%rbx, %rax
	jmp	.LBB11_17
.LBB11_14:
	movq	%r14, %rbx
	movq	%rbx, %rax
	jmp	.LBB11_17
.LBB11_8:                               # %entry
	cmpq	$135, %rax
	jne	.LBB11_2
# BB#9:
	movq	%r14, %rbx
	movq	%rbx, %rax
	jmp	.LBB11_17
.LBB11_2:                               # %for.cond.preheader
	movzbl	rtx_length(%rax), %r13d
	testq	%r13, %r13
	je	.LBB11_3
# BB#57:                                # %for.body.lr.ph
	leaq	8(%r14), %rbx
	movq	%r14, 8(%rsp)           # 8-byte Spill
	movq	$1, %r14
	.align	16, 0x90
.LBB11_58:                              # %for.body
                                        # =>This Inner Loop Header: Depth=1
	movzbl	-1(%r12,%r14), %eax
	cmpq	$101, %rax
	jne	.LBB11_60
# BB#59:                                # %if.then142
                                        #   in Loop: Header=BB11_58 Depth=1
	movq	(%rbx), %rdi
	movq	%r15, %rsi
	callq	cse_process_notes
	xorq	%rcx, %rcx
	movq	%r15, %rdi
	movq	%rbx, %rsi
	movq	%rax, %rdx
	callq	validate_change
.LBB11_60:                              # %for.inc
                                        #   in Loop: Header=BB11_58 Depth=1
	movq	$32, %rcx
	movq	%r14, %rax
	shlq	%cl, %rax
	movq	$32, %rcx
	sarq	%cl, %rax
	incq	%r14
	addq	$8, %rbx
	cmpq	%r13, %rax
	jl	.LBB11_58
# BB#61:
	movq	8(%rsp), %rbx           # 8-byte Reload
.LBB11_62:                              # %return
	movq	%rbx, %rax
	jmp	.LBB11_17
.LBB11_3:
	movq	%r14, %rbx
	movq	%rbx, %rax
	jmp	.LBB11_17
.LBB11_19:
	movq	%r14, %rbx
	movq	%rbx, %rax
.LBB11_17:                              # %if.then20
	addq	$16, %rsp
	popq	%rbx
	popq	%r12
	popq	%r13
	popq	%r14
	popq	%r15
	retq
.LBB11_10:                              # %sw.bb1
	movq	8(%r14), %rdi
	leaq	8(%r14), %rbx
	movq	%r14, %rsi
	callq	cse_process_notes
	xorq	%rcx, %rcx
	movq	%r14, %rdi
	movq	%rbx, %rsi
	movq	%rax, %rdx
	callq	validate_change
	jmp	.LBB11_16
.LBB11_29:                              # %if.else.i229
	movq	$32, %rdi
	callq	xmalloc
	movq	reg_hash(,%r15,8), %rcx
.LBB11_30:                              # %if.end6.i238
	movq	%rcx, (%rax)
	movq	%rax, reg_hash(,%r15,8)
	movq	$1, %rcx
	movl	%ecx, 24(%rax)
	movl	%r13d, 28(%rax)
	movl	%ebx, 20(%rax)
	movl	%ebx, 16(%rax)
	movq	cse_reg_info_used_list(%rip), %rcx
	movq	%rcx, 8(%rax)
	cmpq	$0, cse_reg_info_used_list_end(%rip)
	movq	%rax, cse_reg_info_used_list(%rip)
	jne	.LBB11_32
# BB#31:                                # %if.then11.i239
	movq	%rax, cse_reg_info_used_list_end(%rip)
.LBB11_32:                              # %get_cse_reg_info.exit241
	movl	%ebx, cached_regno(%rip)
	movq	%rax, cached_cse_reg_info(%rip)
	movl	8(%r14), %r12d
.LBB11_33:                              # %cond.end
	movslq	20(%rax), %r15
	movq	%r12, %rdx
	andq	%r13, %rdx
	cmpq	%rbx, %rdx
	jne	.LBB11_35
# BB#34:                                # %cond.end
	testq	%rax, %rax
	movq	%r15, %rax
	jne	.LBB11_45
.LBB11_35:                              # %cond.false60
	movq	$7, %rcx
	movq	%r12, %rbx
	shrq	%cl, %rbx
	xorq	%r12, %rbx
	andq	$127, %rbx
	movq	reg_hash(,%rbx,8), %rcx
	testq	%rcx, %rcx
	je	.LBB11_39
# BB#36:
	movq	%rcx, %rax
.LBB11_38:                              # %for.body.i
                                        # =>This Inner Loop Header: Depth=1
	movl	16(%rax), %esi
	cmpq	%rdx, %rsi
	je	.LBB11_44
# BB#37:                                # %for.cond.i
                                        #   in Loop: Header=BB11_38 Depth=1
	movq	(%rax), %rax
	testq	%rax, %rax
	jne	.LBB11_38
.LBB11_39:                              # %if.then4.i
	movq	cse_reg_info_free_list(%rip), %rax
	testq	%rax, %rax
	je	.LBB11_41
# BB#40:                                # %if.then5.i
	movq	8(%rax), %rdx
	movq	%rdx, cse_reg_info_free_list(%rip)
	jmp	.LBB11_42
.LBB11_41:                              # %if.else.i207
	movq	$32, %rdi
	callq	xmalloc
	movq	reg_hash(,%rbx,8), %rcx
.LBB11_42:                              # %if.end6.i
	movq	%rcx, (%rax)
	movq	%rax, reg_hash(,%rbx,8)
	movq	$1, %rcx
	movl	%ecx, 24(%rax)
	movl	%r13d, 28(%rax)
	movl	%r12d, 20(%rax)
	movl	%r12d, 16(%rax)
	movq	cse_reg_info_used_list(%rip), %rcx
	movq	%rcx, 8(%rax)
	cmpq	$0, cse_reg_info_used_list_end(%rip)
	movq	%rax, cse_reg_info_used_list(%rip)
	jne	.LBB11_44
# BB#43:                                # %if.then11.i
	movq	%rax, cse_reg_info_used_list_end(%rip)
.LBB11_44:                              # %get_cse_reg_info.exit
	movl	%r12d, cached_regno(%rip)
	movq	%rax, cached_cse_reg_info(%rip)
	movl	20(%rax), %eax
	movl	8(%r14), %ebx
.LBB11_45:                              # %cond.end65
	andq	%r13, %rbx
	andq	%r13, %rax
	cmpq	%rbx, %rax
	je	.LBB11_56
# BB#46:                                # %if.then72
	movq	qty_table(%rip), %rax
	leaq	(%r15,%r15,2), %rdx
	movq	$4, %rcx
	shlq	%cl, %rdx
	movq	(%rax,%rdx), %r15
	testq	%r15, %r15
	je	.LBB11_56
# BB#47:                                # %land.lhs.true76
	movzbl	(%r15), %ecx
	cmpq	$133, %rcx
	jg	.LBB11_50
# BB#48:                                # %land.lhs.true76
	addq	$-54, %rcx
	andq	%r13, %rcx
	cmpq	$14, %rcx
	ja	.LBB11_56
# BB#49:                                # %land.lhs.true76
	movq	$1, %rax
	shlq	%cl, %rax
	testq	$24727, %rax            # imm = 0x6097
	jne	.LBB11_52
	jmp	.LBB11_56
.LBB11_50:                              # %land.lhs.true76
	cmpq	$134, %rcx
	je	.LBB11_52
# BB#51:                                # %land.lhs.true76
	cmpq	$140, %rcx
	jne	.LBB11_56
.LBB11_52:                              # %if.then120
	movzbl	2(%r14), %r12d
	movq	%r12, %rdi
	movq	%r15, %rsi
	callq	gen_lowpart_common
	movq	%rax, %rbx
	testq	%rbx, %rbx
	jne	.LBB11_62
# BB#53:                                # %if.else.i
	movzbl	(%r15), %eax
	cmpq	$66, %rax
	jne	.LBB11_56
# BB#54:                                # %if.then1.i
	xorq	%rdx, %rdx
	xorq	%rcx, %rcx
	movq	$1, %r8
	movq	%r15, %rdi
	movq	%r12, %rsi
	callq	adjust_address_1
	movq	%rax, %rbx
	movq	8(%rbx), %rsi
	movq	%r12, %rdi
	callq	memory_address_p
	testq	%r13, %rax
	je	.LBB11_56
# BB#55:                                # %if.then1.i
	testq	%rbx, %rbx
	jne	.LBB11_62
.LBB11_56:                              # %if.end131
	xorq	%rsi, %rsi
	movq	%r14, %rdi
	addq	$16, %rsp
	popq	%rbx
	popq	%r12
	popq	%r13
	popq	%r14
	popq	%r15
	jmp	canon_reg  # TAILCALL
.Ltmp181:
	.size	cse_process_notes, .Ltmp181-cse_process_notes
	.cfi_endproc
	.section	.rodata,"a",@progbits
	.align	8
.LJTI11_0:
	.quad	.LBB11_62
	.quad	.LBB11_62
	.quad	.LBB11_62
	.quad	.LBB11_2
	.quad	.LBB11_62
	.quad	.LBB11_62
	.quad	.LBB11_2
	.quad	.LBB11_21
	.quad	.LBB11_2
	.quad	.LBB11_18
	.quad	.LBB11_2
	.quad	.LBB11_2
	.quad	.LBB11_10
	.quad	.LBB11_62
	.quad	.LBB11_62
	.quad	.LBB11_62

	.text
	.align	16, 0x90
	.type	cse_insn,@function
cse_insn:                               # @cse_insn
	.cfi_startproc
# BB#0:                                 # %entry
	pushq	%rbp
.Ltmp185:
	.cfi_def_cfa_offset 16
.Ltmp186:
	.cfi_offset %rbp, -16
	movq	%rsp, %rbp
.Ltmp187:
	.cfi_def_cfa_register %rbp
	pushq	%r15
	pushq	%r14
	pushq	%r13
	pushq	%r12
	pushq	%rbx
	subq	$360, %rsp              # imm = 0x168
.Ltmp188:
	.cfi_offset %rbx, -56
.Ltmp189:
	.cfi_offset %r12, -48
.Ltmp190:
	.cfi_offset %r13, -40
.Ltmp191:
	.cfi_offset %r14, -32
.Ltmp192:
	.cfi_offset %r15, -24
	movq	%rdi, %r14
	movq	32(%r14), %rax
	movq	%rax, -160(%rbp)        # 8-byte Spill
	movq	%r14, this_insn(%rip)
	movzbl	(%r14), %eax
	movq	%rsi, -208(%rbp)        # 8-byte Spill
	cmpq	$34, %rax
	jne	.LBB12_6
# BB#1:                                 # %if.then
	movq	64(%r14), %rbx
	jmp	.LBB12_2
	.align	16, 0x90
.LBB12_5:                               # %if.end
                                        #   in Loop: Header=BB12_2 Depth=1
	movq	%r14, %rsi
	callq	canon_reg
	movq	%rax, 8(%rbx)
	movq	16(%rbx), %rbx
.LBB12_2:                               # %if.then
                                        # =>This Inner Loop Header: Depth=1
	testq	%rbx, %rbx
	je	.LBB12_6
# BB#3:                                 # %for.body
                                        #   in Loop: Header=BB12_2 Depth=1
	movq	8(%rbx), %rdi
	movzbl	(%rdi), %eax
	cmpq	$49, %rax
	jne	.LBB12_5
# BB#4:                                 # %if.then10
                                        #   in Loop: Header=BB12_2 Depth=1
	movq	8(%rdi), %rdi
	xorq	%rsi, %rsi
	callq	invalidate
	movq	8(%rbx), %rdi
	jmp	.LBB12_5
.LBB12_6:                               # %if.end26
	movq	-160(%rbp), %rax        # 8-byte Reload
	movzbl	(%rax), %eax
	movq	$0, -104(%rbp)          # 8-byte Folded Spill
	movq	$0, -80(%rbp)           # 8-byte Folded Spill
	leaq	-39(%rax), %rcx
	movabsq	$4294967295, %rdx       # imm = 0xFFFFFFFF
	andq	%rdx, %rcx
	xorq	%r13, %r13
	cmpq	$11, %rcx
	ja	.LBB12_55
# BB#7:                                 # %if.end26
	jmpq	*.LJTI12_0(,%rcx,8)
.LBB12_13:                              # %if.then69
	movq	-160(%rbp), %rax        # 8-byte Reload
	movq	8(%rax), %rax
	movslq	(%rax), %r15
	movq	$4, %rcx
	movq	%r15, %rax
	shlq	%cl, %rax
	leaq	(%rax,%rax,4), %rax
	movq	%rsp, %rcx
	subq	%rax, %rcx
	movq	%rcx, -80(%rbp)         # 8-byte Spill
	movq	%rcx, %rsp
	testq	%r15, %r15
	movabsq	$0, %r13
	jle	.LBB12_55
# BB#14:
	movq	%r14, -96(%rbp)         # 8-byte Spill
	movq	$1, %rbx
	movabsq	$4294967295, %r14       # imm = 0xFFFFFFFF
	.align	16, 0x90
.LBB12_15:                              # %for.body75
                                        # =>This Inner Loop Header: Depth=1
	movq	-160(%rbp), %rax        # 8-byte Reload
	movq	8(%rax), %rax
	movq	(%rax,%rbx,8), %rax
	movzbl	(%rax), %ecx
	cmpq	$49, %rcx
	jne	.LBB12_26
# BB#16:                                # %if.then84
                                        #   in Loop: Header=BB12_15 Depth=1
	movq	8(%rax), %rdi
	movl	(%rdi), %esi
	movq	%rsi, %rax
	andq	$65535, %rax            # imm = 0xFFFF
	cmpq	$132, %rax
	jg	.LBB12_23
# BB#17:                                # %if.then84
                                        #   in Loop: Header=BB12_15 Depth=1
	movq	%rdx, %r12
	cmpq	$61, %rax
	je	.LBB12_22
# BB#18:                                # %if.then84
                                        #   in Loop: Header=BB12_15 Depth=1
	cmpq	$63, %rax
	jne	.LBB12_19
.LBB12_22:                              # %if.then96
                                        #   in Loop: Header=BB12_15 Depth=1
	xorq	%rsi, %rsi
	jmp	.LBB12_25
	.align	16, 0x90
.LBB12_23:                              # %if.then84
                                        #   in Loop: Header=BB12_15 Depth=1
	cmpq	$133, %rax
	jne	.LBB12_26
	jmp	.LBB12_24
.LBB12_19:                              # %if.then84
                                        #   in Loop: Header=BB12_15 Depth=1
	cmpq	$64, %rax
	movq	%r12, %rdx
	jne	.LBB12_26
.LBB12_24:                              # %if.then107
                                        #   in Loop: Header=BB12_15 Depth=1
	movq	8(%rdi), %rdi
	movq	$16, %rcx
	shrq	%cl, %rsi
	andq	$255, %rsi
	movq	%rdx, %r12
.LBB12_25:                              # %for.inc116
                                        #   in Loop: Header=BB12_15 Depth=1
	callq	invalidate
	movq	%r12, %rdx
.LBB12_26:                              # %for.inc116
                                        #   in Loop: Header=BB12_15 Depth=1
	movq	%rbx, %rax
	andq	%r14, %rax
	movq	%r15, %r12
	andq	%r14, %r12
	incq	%rbx
	cmpq	%r12, %rax
	jne	.LBB12_15
# BB#20:                                # %for.cond118.preheader
	xorq	%r13, %r13
	testq	%r15, %r15
	jle	.LBB12_21
# BB#27:
	movq	$0, -88(%rbp)           # 8-byte Folded Spill
	movq	$1, %r13
	jmp	.LBB12_28
.LBB12_8:                               # %if.then30
	movq	%rsp, %rax
	leaq	-80(%rax), %rbx
	movq	%rbx, %rsp
	movq	-160(%rbp), %rdx        # 8-byte Reload
	movq	%rdx, -80(%rax)
	movq	16(%rdx), %rdi
	movq	global_rtl(%rip), %rcx
	movl	(%rdi), %eax
	movq	8(%rdx), %rdx
	andq	$65535, %rax            # imm = 0xFFFF
	cmpq	%rcx, %rdx
	jne	.LBB12_11
# BB#9:                                 # %if.then30
	cmpq	$67, %rax
	jne	.LBB12_11
# BB#10:
	movq	%rbx, -80(%rbp)         # 8-byte Spill
	jmp	.LBB12_54
.LBB12_50:                              # %land.lhs.true258
	movq	-160(%rbp), %rcx        # 8-byte Reload
	movq	8(%rcx), %rdi
	movzbl	(%rdi), %ecx
	cmpq	$61, %rcx
	jne	.LBB12_49
# BB#51:                                # %land.lhs.true266
	movl	8(%rdi), %ecx
	cmpq	$53, %rcx
	jae	.LBB12_49
# BB#52:                                # %if.else280
	movq	$0, -80(%rbp)           # 8-byte Folded Spill
	cmpq	$50, %rax
	movabsq	$0, %r13
	jne	.LBB12_55
.LBB12_53:                              # %if.then285
	movq	-160(%rbp), %rbx        # 8-byte Reload
	movq	%rbx, %rdi
	movq	%r14, %rsi
	callq	canon_reg
	callq	apply_change_group
	movq	%rbx, %rdi
	movq	%r14, %rsi
	callq	fold_rtx
	movq	$0, -80(%rbp)           # 8-byte Folded Spill
	jmp	.LBB12_54
.LBB12_48:                              # %if.then239
	movq	-160(%rbp), %rax        # 8-byte Reload
	movq	8(%rax), %rdi
	movzbl	(%rdi), %eax
	movq	$0, -80(%rbp)           # 8-byte Folded Spill
	cmpq	$66, %rax
	movabsq	$0, %r13
	jne	.LBB12_55
.LBB12_49:                              # %if.then247
	xorq	%rsi, %rsi
	movq	$0, -80(%rbp)           # 8-byte Folded Spill
	callq	canon_reg
.LBB12_54:                              # %for.end2546.thread.thread
	xorq	%r13, %r13
.LBB12_55:                              # %for.end2546.thread.thread
	callq	apply_change_group
	movq	$0, -112(%rbp)          # 8-byte Folded Spill
.LBB12_985:                             # %for.end2857
	movq	-160(%rbp), %rdi        # 8-byte Reload
	callq	invalidate_from_clobbers
	movl	(%r14), %eax
	movq	%rax, %rcx
	andq	$65535, %rcx            # imm = 0xFFFF
	cmpq	$34, %rcx
	jne	.LBB12_993
# BB#986:                               # %if.then2862
	testq	$67108864, %rax         # imm = 0x4000000
	jne	.LBB12_992
# BB#987:
	xorq	%rax, %rax
	.align	16, 0x90
.LBB12_988:                             # %for.body.i6290
                                        # =>This Loop Header: Depth=1
                                        #     Child Loop BB12_989 Depth 2
                                        #       Child Loop BB12_1007 Depth 3
                                        #       Child Loop BB12_1014 Depth 3
                                        #       Child Loop BB12_1019 Depth 3
	movq	table(,%rax,8), %rcx
	testq	%rcx, %rcx
	je	.LBB12_991
	.align	16, 0x90
.LBB12_989:                             # %for.body2.i
                                        #   Parent Loop BB12_988 Depth=1
                                        # =>  This Loop Header: Depth=2
                                        #       Child Loop BB12_1007 Depth 3
                                        #       Child Loop BB12_1014 Depth 3
                                        #       Child Loop BB12_1019 Depth 3
	movzbl	76(%rcx), %esi
	movq	16(%rcx), %rdx
	testq	%rsi, %rsi
	je	.LBB12_990
# BB#1003:                              # %if.end.i6298
                                        #   in Loop: Header=BB12_989 Depth=2
	movq	$0, 48(%rcx)
	movq	32(%rcx), %rsi
	movq	40(%rcx), %rdi
	testq	%rsi, %rsi
	je	.LBB12_1005
# BB#1004:                              # %if.then1.i6299
                                        #   in Loop: Header=BB12_989 Depth=2
	movq	%rdi, 40(%rsi)
.LBB12_1005:                            # %if.end3.i
                                        #   in Loop: Header=BB12_989 Depth=2
	testq	%rdi, %rdi
	jne	.LBB12_1327
# BB#1006:                              # %while.cond.preheader.i
                                        #   in Loop: Header=BB12_989 Depth=2
	testq	%rsi, %rsi
	movq	%rsi, %rdi
	je	.LBB12_1008
	.align	16, 0x90
.LBB12_1007:                            # %while.body.i6302
                                        #   Parent Loop BB12_988 Depth=1
                                        #     Parent Loop BB12_989 Depth=2
                                        # =>    This Inner Loop Header: Depth=3
	movq	%rsi, 48(%rdi)
	movq	32(%rdi), %rdi
	testq	%rdi, %rdi
	jne	.LBB12_1007
	jmp	.LBB12_1008
	.align	16, 0x90
.LBB12_1327:                            # %if.then5.i6301
                                        #   in Loop: Header=BB12_989 Depth=2
	movq	%rsi, 32(%rdi)
.LBB12_1008:                            # %if.end10.i
                                        #   in Loop: Header=BB12_989 Depth=2
	movq	24(%rcx), %rsi
	testq	%rdx, %rdx
	je	.LBB12_1010
# BB#1009:                              # %if.then14.i
                                        #   in Loop: Header=BB12_989 Depth=2
	movq	%rsi, 24(%rdx)
.LBB12_1010:                            # %if.end16.i6304
                                        #   in Loop: Header=BB12_989 Depth=2
	testq	%rsi, %rsi
	jne	.LBB12_1011
# BB#1012:                              # %if.else20.i
                                        #   in Loop: Header=BB12_989 Depth=2
	movq	table(,%rax,8), %rsi
	cmpq	%rcx, %rsi
	movq	$-256, %rsi
	jne	.LBB12_1014
# BB#1013:                              # %if.then22.i
                                        #   in Loop: Header=BB12_989 Depth=2
	movq	%rdx, table(,%rax,8)
	jmp	.LBB12_1017
	.align	16, 0x90
.LBB12_1014:                            # %for.body.i6308
                                        #   Parent Loop BB12_988 Depth=1
                                        #     Parent Loop BB12_989 Depth=2
                                        # =>    This Inner Loop Header: Depth=3
	movq	table+256(%rsi), %rdi
	cmpq	%rcx, %rdi
	jne	.LBB12_1016
# BB#1015:                              # %if.then30.i
                                        #   in Loop: Header=BB12_1014 Depth=3
	movq	%rdx, table+256(%rsi)
.LBB12_1016:                            # %for.inc.i6311
                                        #   in Loop: Header=BB12_1014 Depth=3
	addq	$8, %rsi
	jne	.LBB12_1014
	jmp	.LBB12_1017
	.align	16, 0x90
.LBB12_1011:                            # %if.then18.i
                                        #   in Loop: Header=BB12_989 Depth=2
	movq	%rdx, 16(%rsi)
.LBB12_1017:                            # %if.end35.i
                                        #   in Loop: Header=BB12_989 Depth=2
	movq	56(%rcx), %rsi
	testq	%rsi, %rsi
	je	.LBB12_1023
# BB#1018:                              # %if.end35.i
                                        #   in Loop: Header=BB12_989 Depth=2
	cmpq	%rcx, %rsi
	movq	%rsi, %rdi
	je	.LBB12_1023
	.align	16, 0x90
.LBB12_1019:                            # %while.cond41.i
                                        #   Parent Loop BB12_988 Depth=1
                                        #     Parent Loop BB12_989 Depth=2
                                        # =>    This Inner Loop Header: Depth=3
	movq	%rdi, %rbx
	movq	56(%rbx), %rdi
	cmpq	%rcx, %rdi
	jne	.LBB12_1019
# BB#1020:                              # %while.end46.i
                                        #   in Loop: Header=BB12_989 Depth=2
	xorq	%rdi, %rdi
	cmpq	%rbx, %rsi
	je	.LBB12_1022
# BB#1021:                              # %while.end46.i
                                        #   in Loop: Header=BB12_989 Depth=2
	movq	%rsi, %rdi
.LBB12_1022:                            # %while.end46.i
                                        #   in Loop: Header=BB12_989 Depth=2
	movq	%rdi, 56(%rbx)
.LBB12_1023:                            # %remove_from_table.exit
                                        #   in Loop: Header=BB12_989 Depth=2
	movq	free_element_chain(%rip), %rsi
	movq	%rsi, 16(%rcx)
	movq	%rcx, free_element_chain(%rip)
.LBB12_990:                             # %for.cond1.backedge.i
                                        #   in Loop: Header=BB12_989 Depth=2
	testq	%rdx, %rdx
	movq	%rdx, %rcx
	jne	.LBB12_989
.LBB12_991:                             # %for.inc4.i
                                        #   in Loop: Header=BB12_988 Depth=1
	incq	%rax
	cmpq	$32, %rax
	jne	.LBB12_988
.LBB12_992:                             # %if.end2868
	callq	invalidate_for_call
.LBB12_993:                             # %for.cond2870.preheader
	movq	%r13, -88(%rbp)         # 8-byte Spill
	cmpq	$0, -104(%rbp)          # 8-byte Folded Reload
	je	.LBB12_1030
# BB#994:                               # %for.body2873.lr.ph
	cmpq	$0, -208(%rbp)          # 8-byte Folded Reload
	movabsq	$0, %rax
	movabsq	$1, %rcx
	movq	%rax, %rsi
	jne	.LBB12_996
# BB#995:                               # %for.body2873.lr.ph
	movq	%rcx, %rsi
.LBB12_996:                             # %for.body2873.lr.ph
	movq	-208(%rbp), %rdx        # 8-byte Reload
	cmpq	%rdx, %r14
	jne	.LBB12_998
# BB#997:                               # %for.body2873.lr.ph
	movq	%rcx, %rax
.LBB12_998:                             # %for.body2873.lr.ph
	orq	%rax, %rsi
	movq	%rsi, -48(%rbp)         # 8-byte Spill
	movq	$1, %r13
	movabsq	$4294967295, %r15       # imm = 0xFFFFFFFF
	movq	-88(%rbp), %r12         # 8-byte Reload
	andq	%r15, %r12
	movq	-80(%rbp), %rbx         # 8-byte Reload
	.align	16, 0x90
.LBB12_999:                             # %for.body2873
                                        # =>This Inner Loop Header: Depth=1
	movq	(%rbx), %rax
	testq	%rax, %rax
	je	.LBB12_1029
# BB#1000:                              # %if.then2878
                                        #   in Loop: Header=BB12_999 Depth=1
	movq	8(%rax), %rdi
	movl	(%rdi), %esi
	movq	%rsi, %rax
	andq	$65535, %rax            # imm = 0xFFFF
	cmpq	$132, %rax
	jg	.LBB12_1026
# BB#1001:                              # %if.then2878
                                        #   in Loop: Header=BB12_999 Depth=1
	addq	$-61, %rax
	andq	%r15, %rax
	cmpq	$5, %rax
	ja	.LBB12_1029
# BB#1002:                              # %if.then2878
                                        #   in Loop: Header=BB12_999 Depth=1
	jmpq	*.LJTI12_3(,%rax,8)
.LBB12_1024:                            # %if.then2901
                                        #   in Loop: Header=BB12_999 Depth=1
	cmpq	$0, -48(%rbp)           # 8-byte Folded Reload
	je	.LBB12_1029
.LBB12_1025:                            # %if.then2895
                                        #   in Loop: Header=BB12_999 Depth=1
	xorq	%rsi, %rsi
	jmp	.LBB12_1028
	.align	16, 0x90
.LBB12_1026:                            # %if.then2878
                                        #   in Loop: Header=BB12_999 Depth=1
	cmpq	$133, %rax
	jne	.LBB12_1029
.LBB12_1027:                            # %if.then2918
                                        #   in Loop: Header=BB12_999 Depth=1
	movq	8(%rdi), %rdi
	movq	$16, %rcx
	shrq	%cl, %rsi
	andq	$255, %rsi
.LBB12_1028:                            # %for.inc2929
                                        #   in Loop: Header=BB12_999 Depth=1
	callq	invalidate
.LBB12_1029:                            # %for.inc2929
                                        #   in Loop: Header=BB12_999 Depth=1
	movq	%r13, %rax
	andq	%r15, %rax
	incq	%r13
	addq	$80, %rbx
	cmpq	%r12, %rax
	jne	.LBB12_999
.LBB12_1030:                            # %for.end2931
	movzbl	(%r14), %eax
	cmpq	$32, %rax
	jne	.LBB12_1058
# BB#1031:                              # %land.lhs.true2936
	movq	32(%r14), %rax
	movl	(%rax), %eax
	andq	$134283263, %rax        # imm = 0x800FFFF
	cmpq	$134217769, %rax        # imm = 0x8000029
	jne	.LBB12_1058
# BB#1032:
	xorq	%rbx, %rbx
	jmp	.LBB12_1033
	.align	16, 0x90
.LBB12_1056:                            # %remove_from_table.exit6389
                                        #   in Loop: Header=BB12_1033 Depth=1
	movq	free_element_chain(%rip), %rcx
	movq	%rcx, 16(%rax)
	movq	%rax, free_element_chain(%rip)
.LBB12_1033:                            # %for.body.i6320
                                        # =>This Loop Header: Depth=1
                                        #     Child Loop BB12_1040 Depth 2
                                        #     Child Loop BB12_1047 Depth 2
                                        #     Child Loop BB12_1052 Depth 2
	movq	table(,%rbx,8), %rax
	testq	%rax, %rax
	jne	.LBB12_1034
# BB#1057:                              # %for.inc7.i
                                        #   in Loop: Header=BB12_1033 Depth=1
	incq	%rbx
	cmpq	$32, %rbx
	jne	.LBB12_1033
	jmp	.LBB12_1058
	.align	16, 0x90
.LBB12_1034:                            # %for.body2.i6326
                                        #   in Loop: Header=BB12_1033 Depth=1
	movq	(%rax), %rdi
	movzbl	(%rdi), %ecx
	cmpq	$61, %rcx
	jne	.LBB12_1036
# BB#1035:                              # %if.then.i6327
                                        #   in Loop: Header=BB12_1033 Depth=1
	movl	72(%rax), %esi
	callq	invalidate
	jmp	.LBB12_1033
	.align	16, 0x90
.LBB12_1036:                            # %if.end.i6339
                                        #   in Loop: Header=BB12_1033 Depth=1
	movq	$0, 48(%rax)
	movq	32(%rax), %rcx
	movq	40(%rax), %rdx
	testq	%rcx, %rcx
	je	.LBB12_1038
# BB#1037:                              # %if.then1.i6341
                                        #   in Loop: Header=BB12_1033 Depth=1
	movq	%rdx, 40(%rcx)
.LBB12_1038:                            # %if.end3.i6343
                                        #   in Loop: Header=BB12_1033 Depth=1
	testq	%rdx, %rdx
	jne	.LBB12_1328
# BB#1039:                              # %while.cond.preheader.i6344
                                        #   in Loop: Header=BB12_1033 Depth=1
	testq	%rcx, %rcx
	movq	%rcx, %rdx
	je	.LBB12_1041
	.align	16, 0x90
.LBB12_1040:                            # %while.body.i6351
                                        #   Parent Loop BB12_1033 Depth=1
                                        # =>  This Inner Loop Header: Depth=2
	movq	%rcx, 48(%rdx)
	movq	32(%rdx), %rdx
	testq	%rdx, %rdx
	jne	.LBB12_1040
	jmp	.LBB12_1041
.LBB12_1328:                            # %if.then5.i6346
                                        #   in Loop: Header=BB12_1033 Depth=1
	movq	%rcx, 32(%rdx)
.LBB12_1041:                            # %if.end10.i6355
                                        #   in Loop: Header=BB12_1033 Depth=1
	movq	16(%rax), %rcx
	movq	24(%rax), %rdx
	testq	%rcx, %rcx
	je	.LBB12_1043
# BB#1042:                              # %if.then14.i6357
                                        #   in Loop: Header=BB12_1033 Depth=1
	movq	%rdx, 24(%rcx)
.LBB12_1043:                            # %if.end16.i6359
                                        #   in Loop: Header=BB12_1033 Depth=1
	testq	%rdx, %rdx
	jne	.LBB12_1044
# BB#1045:                              # %if.else20.i6365
                                        #   in Loop: Header=BB12_1033 Depth=1
	movq	table(,%rbx,8), %rdx
	cmpq	%rax, %rdx
	movq	$-256, %rdx
	jne	.LBB12_1047
# BB#1046:                              # %if.then22.i6366
                                        #   in Loop: Header=BB12_1033 Depth=1
	movq	%rcx, table(,%rbx,8)
	jmp	.LBB12_1050
	.align	16, 0x90
.LBB12_1047:                            # %for.body.i6370
                                        #   Parent Loop BB12_1033 Depth=1
                                        # =>  This Inner Loop Header: Depth=2
	movq	table+256(%rdx), %rsi
	cmpq	%rax, %rsi
	jne	.LBB12_1049
# BB#1048:                              # %if.then30.i6371
                                        #   in Loop: Header=BB12_1047 Depth=2
	movq	%rcx, table+256(%rdx)
.LBB12_1049:                            # %for.inc.i6374
                                        #   in Loop: Header=BB12_1047 Depth=2
	addq	$8, %rdx
	jne	.LBB12_1047
	jmp	.LBB12_1050
.LBB12_1044:                            # %if.then18.i6361
                                        #   in Loop: Header=BB12_1033 Depth=1
	movq	%rcx, 16(%rdx)
.LBB12_1050:                            # %if.end35.i6379
                                        #   in Loop: Header=BB12_1033 Depth=1
	movq	56(%rax), %rcx
	testq	%rcx, %rcx
	je	.LBB12_1056
# BB#1051:                              # %if.end35.i6379
                                        #   in Loop: Header=BB12_1033 Depth=1
	cmpq	%rax, %rcx
	movq	%rcx, %rsi
	je	.LBB12_1056
	.align	16, 0x90
.LBB12_1052:                            # %while.cond41.i6383
                                        #   Parent Loop BB12_1033 Depth=1
                                        # =>  This Inner Loop Header: Depth=2
	movq	%rsi, %rdx
	movq	56(%rdx), %rsi
	cmpq	%rax, %rsi
	jne	.LBB12_1052
# BB#1053:                              # %while.end46.i6386
                                        #   in Loop: Header=BB12_1033 Depth=1
	xorq	%rsi, %rsi
	cmpq	%rdx, %rcx
	je	.LBB12_1055
# BB#1054:                              # %while.end46.i6386
                                        #   in Loop: Header=BB12_1033 Depth=1
	movq	%rcx, %rsi
.LBB12_1055:                            # %while.end46.i6386
                                        #   in Loop: Header=BB12_1033 Depth=1
	movq	%rsi, 56(%rdx)
	jmp	.LBB12_1056
.LBB12_1058:                            # %for.cond2954.preheader
	movq	%r14, -96(%rbp)         # 8-byte Spill
	cmpq	$0, -104(%rbp)          # 8-byte Folded Reload
	movq	-88(%rbp), %rax         # 8-byte Reload
	je	.LBB12_1272
# BB#1059:
	xorq	%rcx, %rcx
	movabsq	$4294967295, %r14       # imm = 0xFFFFFFFF
	andq	%r14, %rax
	movq	%rax, -88(%rbp)         # 8-byte Spill
	.align	16, 0x90
.LBB12_1060:                            # %for.body2957
                                        # =>This Loop Header: Depth=1
                                        #     Child Loop BB12_1107 Depth 2
                                        #       Child Loop BB12_1113 Depth 3
                                        #       Child Loop BB12_1119 Depth 3
                                        #         Child Loop BB12_1120 Depth 4
                                        #           Child Loop BB12_1127 Depth 5
                                        #           Child Loop BB12_1134 Depth 5
                                        #           Child Loop BB12_1139 Depth 5
                                        #       Child Loop BB12_1151 Depth 3
	movq	%rcx, -72(%rbp)         # 8-byte Spill
	leaq	(%rcx,%rcx,4), %rax
	movq	$4, %rcx
	shlq	%cl, %rax
	movq	-80(%rbp), %rcx         # 8-byte Reload
	movq	(%rcx,%rax), %rax
	testq	%rax, %rax
	je	.LBB12_1158
# BB#1061:                              # %if.then2962
                                        #   in Loop: Header=BB12_1060 Depth=1
	movq	8(%rax), %rdi
	movl	(%rdi), %ebx
	movq	%rbx, %rcx
	andq	$65535, %rcx            # imm = 0xFFFF
	cmpq	$61, %rcx
	jne	.LBB12_1062
# BB#1092:                              # %if.else2976
                                        #   in Loop: Header=BB12_1060 Depth=1
	movl	8(%rdi), %r12d
	cmpq	$52, %r12
	movq	$1, %rax
	ja	.LBB12_1106
# BB#1093:                              # %cond.false2983
                                        #   in Loop: Header=BB12_1060 Depth=1
	movq	%r12, %rdx
	movabsq	$4294967288, %rcx       # imm = 0xFFFFFFF8
	andq	%rcx, %rdx
	movq	$16, %rcx
	shrq	%cl, %rbx
	andq	$255, %rbx
	cmpq	$8, %rdx
	je	.LBB12_1097
# BB#1094:                              # %cond.false2983
                                        #   in Loop: Header=BB12_1060 Depth=1
	leaq	-21(%r12), %rcx
	andq	%r14, %rcx
	cmpq	$8, %rcx
	jb	.LBB12_1097
# BB#1095:                              # %cond.false2983
                                        #   in Loop: Header=BB12_1060 Depth=1
	leaq	-45(%r12), %rcx
	andq	%r14, %rcx
	cmpq	$8, %rcx
	jb	.LBB12_1097
# BB#1096:                              # %cond.false2983
                                        #   in Loop: Header=BB12_1060 Depth=1
	leaq	-29(%r12), %rcx
	andq	%r14, %rcx
	cmpq	$7, %rcx
	jbe	.LBB12_1097
# BB#1101:                              # %cond.false3025
                                        #   in Loop: Header=BB12_1060 Depth=1
	cmpq	$24, %rbx
	jne	.LBB12_1102
# BB#1104:                              # %cond.true3041
                                        #   in Loop: Header=BB12_1060 Depth=1
	movzbl	target_flags+3(%rip), %eax
	andq	$2, %rax
	xorq	$6, %rax
	jmp	.LBB12_1106
	.align	16, 0x90
.LBB12_1062:                            # %if.then2974
                                        #   in Loop: Header=BB12_1060 Depth=1
	callq	mention_regs
	jmp	.LBB12_1158
.LBB12_1097:                            # %cond.true3007
                                        #   in Loop: Header=BB12_1060 Depth=1
	movl	mode_class(,%rbx,4), %ecx
	cmpq	$5, %rcx
	movq	$2, %rax
	je	.LBB12_1106
# BB#1098:                              # %lor.rhs3015
                                        #   in Loop: Header=BB12_1060 Depth=1
	cmpq	$6, %rcx
	movabsq	$0, %rax
	jne	.LBB12_1100
# BB#1099:                              # %lor.rhs3015
                                        #   in Loop: Header=BB12_1060 Depth=1
	movabsq	$1, %rax
.LBB12_1100:                            # %lor.rhs3015
                                        #   in Loop: Header=BB12_1060 Depth=1
	incq	%rax
	jmp	.LBB12_1106
.LBB12_1102:                            # %cond.false3025
                                        #   in Loop: Header=BB12_1060 Depth=1
	cmpq	$18, %rbx
	jne	.LBB12_1105
# BB#1103:                              # %cond.true3031
                                        #   in Loop: Header=BB12_1060 Depth=1
	movl	target_flags(%rip), %eax
	movq	$25, %rcx
	shrq	%cl, %rax
	andq	$1, %rax
	xorq	$3, %rax
	jmp	.LBB12_1106
.LBB12_1105:                            # %cond.false3045
                                        #   in Loop: Header=BB12_1060 Depth=1
	movl	target_flags(%rip), %esi
	movzbl	mode_size(%rbx), %eax
	movq	$23, %rcx
	shrq	%cl, %rsi
	andq	$4, %rsi
	leaq	3(%rax,%rsi), %rax
	addq	$4, %rsi
	cqto
	idivq	%rsi
	.align	16, 0x90
.LBB12_1106:                            # %cond.end3065
                                        #   in Loop: Header=BB12_1060 Depth=1
	addq	%r12, %rax
	andq	%r14, %rax
	movq	%rax, -64(%rbp)         # 8-byte Spill
	cmpq	%rax, %r12
	jae	.LBB12_1158
	.align	16, 0x90
.LBB12_1107:                            # %for.body3072
                                        #   Parent Loop BB12_1060 Depth=1
                                        # =>  This Loop Header: Depth=2
                                        #       Child Loop BB12_1113 Depth 3
                                        #       Child Loop BB12_1119 Depth 3
                                        #         Child Loop BB12_1120 Depth 4
                                        #           Child Loop BB12_1127 Depth 5
                                        #           Child Loop BB12_1134 Depth 5
                                        #           Child Loop BB12_1139 Depth 5
                                        #       Child Loop BB12_1151 Depth 3
	movl	cached_regno(%rip), %eax
	movq	%r12, %rbx
	andq	%r14, %rbx
	cmpq	%rax, %rbx
	jne	.LBB12_1109
# BB#1108:                              # %for.body3072
                                        #   in Loop: Header=BB12_1107 Depth=2
	movq	cached_cse_reg_info(%rip), %rax
	testq	%rax, %rax
	jne	.LBB12_1118
.LBB12_1109:                            # %cond.false3078
                                        #   in Loop: Header=BB12_1107 Depth=2
	movq	$7, %rcx
	movq	%r12, %r15
	shrq	%cl, %r15
	xorq	%r12, %r15
	andq	$127, %r15
	movq	reg_hash(,%r15,8), %rcx
	testq	%rcx, %rcx
	movq	%rcx, %rax
	je	.LBB12_1110
	.align	16, 0x90
.LBB12_1113:                            # %for.body.i6404
                                        #   Parent Loop BB12_1060 Depth=1
                                        #     Parent Loop BB12_1107 Depth=2
                                        # =>    This Inner Loop Header: Depth=3
	movl	16(%rax), %edx
	cmpq	%rbx, %rdx
	je	.LBB12_1117
# BB#1112:                              # %for.cond.i6400
                                        #   in Loop: Header=BB12_1113 Depth=3
	movq	(%rax), %rax
	testq	%rax, %rax
	jne	.LBB12_1113
.LBB12_1110:                            # %if.then4.i6406
                                        #   in Loop: Header=BB12_1107 Depth=2
	movq	cse_reg_info_free_list(%rip), %rax
	testq	%rax, %rax
	jne	.LBB12_1111
# BB#1114:                              # %if.else.i6411
                                        #   in Loop: Header=BB12_1107 Depth=2
	movq	$32, %rdi
	callq	xmalloc
	movq	reg_hash(,%r15,8), %rcx
	jmp	.LBB12_1115
.LBB12_1111:                            # %if.then5.i6408
                                        #   in Loop: Header=BB12_1107 Depth=2
	movq	8(%rax), %rdx
	movq	%rdx, cse_reg_info_free_list(%rip)
.LBB12_1115:                            # %if.end6.i6420
                                        #   in Loop: Header=BB12_1107 Depth=2
	movq	%rcx, (%rax)
	movq	%rax, reg_hash(,%r15,8)
	movq	$1, %rcx
	movl	%ecx, 24(%rax)
	movl	%r14d, 28(%rax)
	movl	%r12d, 20(%rax)
	movl	%r12d, 16(%rax)
	movq	cse_reg_info_used_list(%rip), %rcx
	movq	%rcx, 8(%rax)
	cmpq	$0, cse_reg_info_used_list_end(%rip)
	movq	%rax, cse_reg_info_used_list(%rip)
	jne	.LBB12_1117
# BB#1116:                              # %if.then11.i6421
                                        #   in Loop: Header=BB12_1107 Depth=2
	movq	%rax, cse_reg_info_used_list_end(%rip)
.LBB12_1117:                            # %get_cse_reg_info.exit6423
                                        #   in Loop: Header=BB12_1107 Depth=2
	movl	%r12d, cached_regno(%rip)
	movq	%rax, cached_cse_reg_info(%rip)
.LBB12_1118:                            # %cond.end3080
                                        #   in Loop: Header=BB12_1107 Depth=2
	movq	%rbx, -56(%rbp)         # 8-byte Spill
	movq	%r14, %r15
	movslq	28(%rax), %rax
	leaq	1(%r12), %rcx
	movq	%rcx, -48(%rbp)         # 8-byte Spill
	movq	%r12, %rbx
	xorq	%r13, %r13
	testq	%rax, %rax
	js	.LBB12_1157
	.align	16, 0x90
.LBB12_1119:                            # %for.body.i6426
                                        #   Parent Loop BB12_1060 Depth=1
                                        #     Parent Loop BB12_1107 Depth=2
                                        # =>    This Loop Header: Depth=3
                                        #         Child Loop BB12_1120 Depth 4
                                        #           Child Loop BB12_1127 Depth 5
                                        #           Child Loop BB12_1134 Depth 5
                                        #           Child Loop BB12_1139 Depth 5
	movq	table(,%r13,8), %r12
	jmp	.LBB12_1120
.LBB12_1143:                            # %if.end54.i6493
                                        #   in Loop: Header=BB12_1120 Depth=4
	movq	free_element_chain(%rip), %rax
	movq	%rax, 16(%r14)
	movq	%r14, free_element_chain(%rip)
	.align	16, 0x90
.LBB12_1120:                            # %for.body.i6426
                                        #   Parent Loop BB12_1060 Depth=1
                                        #     Parent Loop BB12_1107 Depth=2
                                        #       Parent Loop BB12_1119 Depth=3
                                        # =>      This Loop Header: Depth=4
                                        #           Child Loop BB12_1127 Depth 5
                                        #           Child Loop BB12_1134 Depth 5
                                        #           Child Loop BB12_1139 Depth 5
	testq	%r12, %r12
	je	.LBB12_1144
# BB#1121:                              # %for.body2.i6432
                                        #   in Loop: Header=BB12_1120 Depth=4
	movq	%r12, %r14
	movq	(%r14), %rdx
	movzbl	(%rdx), %eax
	movq	16(%r14), %r12
	cmpq	$61, %rax
	je	.LBB12_1120
# BB#1122:                              # %land.lhs.true.i6434
                                        #   in Loop: Header=BB12_1120 Depth=4
	xorq	%rcx, %rcx
	movq	%rbx, %rdi
	movq	-48(%rbp), %rsi         # 8-byte Reload
	callq	refers_to_regno_p
	testq	%r15, %rax
	je	.LBB12_1120
# BB#1123:                              # %if.end.i6445
                                        #   in Loop: Header=BB12_1120 Depth=4
	movq	$0, 48(%r14)
	movq	32(%r14), %rax
	movq	40(%r14), %rcx
	testq	%rax, %rax
	je	.LBB12_1125
# BB#1124:                              # %if.then1.i6447
                                        #   in Loop: Header=BB12_1120 Depth=4
	movq	%rcx, 40(%rax)
.LBB12_1125:                            # %if.end3.i6449
                                        #   in Loop: Header=BB12_1120 Depth=4
	testq	%rcx, %rcx
	jne	.LBB12_1329
# BB#1126:                              # %while.cond.preheader.i6450
                                        #   in Loop: Header=BB12_1120 Depth=4
	testq	%rax, %rax
	movq	%rax, %rcx
	je	.LBB12_1128
	.align	16, 0x90
.LBB12_1127:                            # %while.body.i6457
                                        #   Parent Loop BB12_1060 Depth=1
                                        #     Parent Loop BB12_1107 Depth=2
                                        #       Parent Loop BB12_1119 Depth=3
                                        #         Parent Loop BB12_1120 Depth=4
                                        # =>        This Inner Loop Header: Depth=5
	movq	%rax, 48(%rcx)
	movq	32(%rcx), %rcx
	testq	%rcx, %rcx
	jne	.LBB12_1127
	jmp	.LBB12_1128
.LBB12_1329:                            # %if.then5.i6452
                                        #   in Loop: Header=BB12_1120 Depth=4
	movq	%rax, 32(%rcx)
.LBB12_1128:                            # %if.end10.i6461
                                        #   in Loop: Header=BB12_1120 Depth=4
	movq	16(%r14), %rax
	movq	24(%r14), %rcx
	testq	%rax, %rax
	je	.LBB12_1130
# BB#1129:                              # %if.then14.i6463
                                        #   in Loop: Header=BB12_1120 Depth=4
	movq	%rcx, 24(%rax)
.LBB12_1130:                            # %if.end16.i6465
                                        #   in Loop: Header=BB12_1120 Depth=4
	testq	%rcx, %rcx
	jne	.LBB12_1131
# BB#1132:                              # %if.else20.i6471
                                        #   in Loop: Header=BB12_1120 Depth=4
	movq	table(,%r13,8), %rcx
	cmpq	%r14, %rcx
	movq	$-256, %rcx
	jne	.LBB12_1134
# BB#1133:                              # %if.then22.i6472
                                        #   in Loop: Header=BB12_1120 Depth=4
	movq	%rax, table(,%r13,8)
	jmp	.LBB12_1137
	.align	16, 0x90
.LBB12_1134:                            # %for.body.i6476
                                        #   Parent Loop BB12_1060 Depth=1
                                        #     Parent Loop BB12_1107 Depth=2
                                        #       Parent Loop BB12_1119 Depth=3
                                        #         Parent Loop BB12_1120 Depth=4
                                        # =>        This Inner Loop Header: Depth=5
	movq	table+256(%rcx), %rdx
	cmpq	%r14, %rdx
	jne	.LBB12_1136
# BB#1135:                              # %if.then30.i6477
                                        #   in Loop: Header=BB12_1134 Depth=5
	movq	%rax, table+256(%rcx)
.LBB12_1136:                            # %for.inc.i6480
                                        #   in Loop: Header=BB12_1134 Depth=5
	addq	$8, %rcx
	jne	.LBB12_1134
	jmp	.LBB12_1137
.LBB12_1131:                            # %if.then18.i6467
                                        #   in Loop: Header=BB12_1120 Depth=4
	movq	%rax, 16(%rcx)
.LBB12_1137:                            # %if.end35.i6485
                                        #   in Loop: Header=BB12_1120 Depth=4
	movq	56(%r14), %rax
	testq	%rax, %rax
	je	.LBB12_1143
# BB#1138:                              # %if.end35.i6485
                                        #   in Loop: Header=BB12_1120 Depth=4
	cmpq	%r14, %rax
	movq	%rax, %rdx
	je	.LBB12_1143
	.align	16, 0x90
.LBB12_1139:                            # %while.cond41.i6489
                                        #   Parent Loop BB12_1060 Depth=1
                                        #     Parent Loop BB12_1107 Depth=2
                                        #       Parent Loop BB12_1119 Depth=3
                                        #         Parent Loop BB12_1120 Depth=4
                                        # =>        This Inner Loop Header: Depth=5
	movq	%rdx, %rcx
	movq	56(%rcx), %rdx
	cmpq	%r14, %rdx
	jne	.LBB12_1139
# BB#1140:                              # %while.end46.i6492
                                        #   in Loop: Header=BB12_1120 Depth=4
	xorq	%rdx, %rdx
	cmpq	%rcx, %rax
	je	.LBB12_1142
# BB#1141:                              # %while.end46.i6492
                                        #   in Loop: Header=BB12_1120 Depth=4
	movq	%rax, %rdx
.LBB12_1142:                            # %while.end46.i6492
                                        #   in Loop: Header=BB12_1120 Depth=4
	movq	%rdx, 56(%rcx)
	jmp	.LBB12_1143
	.align	16, 0x90
.LBB12_1144:                            # %for.inc6.i
                                        #   in Loop: Header=BB12_1119 Depth=3
	incq	%r13
	cmpq	$32, %r13
	jne	.LBB12_1119
# BB#1145:                              # %remove_invalid_refs.exit
                                        #   in Loop: Header=BB12_1107 Depth=2
	movl	cached_regno(%rip), %eax
	movq	-56(%rbp), %rsi         # 8-byte Reload
	cmpq	%rax, %rsi
	jne	.LBB12_1147
# BB#1146:                              # %remove_invalid_refs.exit
                                        #   in Loop: Header=BB12_1107 Depth=2
	movq	cached_cse_reg_info(%rip), %rax
	testq	%rax, %rax
	jne	.LBB12_1156
.LBB12_1147:                            # %cond.false3090
                                        #   in Loop: Header=BB12_1107 Depth=2
	movq	$7, %rcx
	movq	%rbx, %r14
	shrq	%cl, %r14
	xorq	%rbx, %r14
	andq	$127, %r14
	movq	reg_hash(,%r14,8), %rcx
	testq	%rcx, %rcx
	movq	%rcx, %rax
	je	.LBB12_1148
	.align	16, 0x90
.LBB12_1151:                            # %for.body.i6510
                                        #   Parent Loop BB12_1060 Depth=1
                                        #     Parent Loop BB12_1107 Depth=2
                                        # =>    This Inner Loop Header: Depth=3
	movl	16(%rax), %edx
	cmpq	%rsi, %rdx
	je	.LBB12_1155
# BB#1150:                              # %for.cond.i6506
                                        #   in Loop: Header=BB12_1151 Depth=3
	movq	(%rax), %rax
	testq	%rax, %rax
	jne	.LBB12_1151
.LBB12_1148:                            # %if.then4.i6512
                                        #   in Loop: Header=BB12_1107 Depth=2
	movq	cse_reg_info_free_list(%rip), %rax
	testq	%rax, %rax
	jne	.LBB12_1149
# BB#1152:                              # %if.else.i6517
                                        #   in Loop: Header=BB12_1107 Depth=2
	movq	$32, %rdi
	callq	xmalloc
	movq	reg_hash(,%r14,8), %rcx
	jmp	.LBB12_1153
.LBB12_1149:                            # %if.then5.i6514
                                        #   in Loop: Header=BB12_1107 Depth=2
	movq	8(%rax), %rdx
	movq	%rdx, cse_reg_info_free_list(%rip)
.LBB12_1153:                            # %if.end6.i6526
                                        #   in Loop: Header=BB12_1107 Depth=2
	movq	%rcx, (%rax)
	movq	%rax, reg_hash(,%r14,8)
	movq	$1, %rcx
	movl	%ecx, 24(%rax)
	movl	%r15d, 28(%rax)
	movl	%ebx, 20(%rax)
	movl	%ebx, 16(%rax)
	movq	cse_reg_info_used_list(%rip), %rcx
	movq	%rcx, 8(%rax)
	cmpq	$0, cse_reg_info_used_list_end(%rip)
	movq	%rax, cse_reg_info_used_list(%rip)
	jne	.LBB12_1155
# BB#1154:                              # %if.then11.i6527
                                        #   in Loop: Header=BB12_1107 Depth=2
	movq	%rax, cse_reg_info_used_list_end(%rip)
.LBB12_1155:                            # %get_cse_reg_info.exit6529
                                        #   in Loop: Header=BB12_1107 Depth=2
	movl	%ebx, cached_regno(%rip)
	movq	%rax, cached_cse_reg_info(%rip)
.LBB12_1156:                            # %cond.end3092
                                        #   in Loop: Header=BB12_1107 Depth=2
	movl	%r15d, 28(%rax)
.LBB12_1157:                            # %for.inc3096
                                        #   in Loop: Header=BB12_1107 Depth=2
	movq	-48(%rbp), %rdx         # 8-byte Reload
	movq	%rdx, %rax
	movq	%r15, %r14
	andq	%r14, %rax
	movq	-64(%rbp), %rcx         # 8-byte Reload
	cmpq	%rcx, %rax
	movq	%rdx, %r12
	jne	.LBB12_1107
	.align	16, 0x90
.LBB12_1158:                            # %for.inc3101
                                        #   in Loop: Header=BB12_1060 Depth=1
	movq	-72(%rbp), %rcx         # 8-byte Reload
	incq	%rcx
	movq	%rcx, %rax
	andq	%r14, %rax
	movq	-88(%rbp), %rbx         # 8-byte Reload
	cmpq	%rbx, %rax
	jne	.LBB12_1060
# BB#1063:                              # %for.cond3104.preheader
	cmpq	$0, -104(%rbp)          # 8-byte Folded Reload
	je	.LBB12_1272
# BB#1064:
	xorq	%rax, %rax
	movq	-80(%rbp), %rdi         # 8-byte Reload
	.align	16, 0x90
.LBB12_1065:                            # %for.body3107
                                        # =>This Loop Header: Depth=1
                                        #     Child Loop BB12_1069 Depth 2
                                        #     Child Loop BB12_1071 Depth 2
	leaq	(%rax,%rax,4), %rdx
	movq	$4, %rcx
	movq	%rdx, %rsi
	shlq	%cl, %rsi
	cmpq	$0, (%rdi,%rsi)
	je	.LBB12_1075
# BB#1066:                              # %if.then3112
                                        #   in Loop: Header=BB12_1065 Depth=1
	movq	$4, %rcx
	shlq	%cl, %rdx
	movq	16(%rdi,%rdx), %rsi
	testq	%rsi, %rsi
	je	.LBB12_1075
# BB#1067:                              # %land.lhs.true3117
                                        #   in Loop: Header=BB12_1065 Depth=1
	cmpq	$0, 48(%rsi)
	jne	.LBB12_1075
# BB#1068:                              #   in Loop: Header=BB12_1065 Depth=1
	leaq	16(%rdi,%rdx), %rcx
	.align	16, 0x90
.LBB12_1069:                            # %while.cond3129
                                        #   Parent Loop BB12_1065 Depth=1
                                        # =>  This Inner Loop Header: Depth=2
	movq	%rsi, %rdx
	testq	%rdx, %rdx
	je	.LBB12_1073
# BB#1070:                              # %land.rhs3131
                                        #   in Loop: Header=BB12_1069 Depth=2
	movq	40(%rdx), %rsi
	testq	%rsi, %rsi
	jne	.LBB12_1069
	.align	16, 0x90
.LBB12_1071:                            # %land.rhs3139
                                        #   Parent Loop BB12_1065 Depth=1
                                        # =>  This Inner Loop Header: Depth=2
	movq	48(%rdx), %rsi
	testq	%rsi, %rsi
	jne	.LBB12_1074
# BB#1072:                              # %while.body3144
                                        #   in Loop: Header=BB12_1071 Depth=2
	movq	32(%rdx), %rdx
	testq	%rdx, %rdx
	jne	.LBB12_1071
.LBB12_1073:                            #   in Loop: Header=BB12_1065 Depth=1
	xorq	%rsi, %rsi
.LBB12_1074:                            # %cond.end3151
                                        #   in Loop: Header=BB12_1065 Depth=1
	movq	%rsi, (%rcx)
	.align	16, 0x90
.LBB12_1075:                            # %for.inc3158
                                        #   in Loop: Header=BB12_1065 Depth=1
	incq	%rax
	movq	%rax, %rcx
	andq	%r14, %rcx
	cmpq	%rbx, %rcx
	jne	.LBB12_1065
# BB#1076:                              # %for.cond3161.preheader
	cmpq	$0, -104(%rbp)          # 8-byte Folded Reload
	je	.LBB12_1272
# BB#1077:                              # %for.body3164.lr.ph
	xorq	%r15, %r15
	.align	16, 0x90
.LBB12_1078:                            # %for.body3164
                                        # =>This Loop Header: Depth=1
                                        #     Child Loop BB12_1170 Depth 2
                                        #     Child Loop BB12_1205 Depth 2
                                        #       Child Loop BB12_1224 Depth 3
                                        #       Child Loop BB12_1232 Depth 3
                                        #       Child Loop BB12_1250 Depth 3
                                        #       Child Loop BB12_1263 Depth 3
	leaq	(%r15,%r15,4), %r12
	movq	$4, %rcx
	movq	%r12, %rax
	shlq	%cl, %rax
	movq	-80(%rbp), %rcx         # 8-byte Reload
	movq	(%rcx,%rax), %rax
	testq	%rax, %rax
	je	.LBB12_1271
# BB#1079:                              # %if.then3169
                                        #   in Loop: Header=BB12_1078 Depth=1
	movq	8(%rax), %r13
	movq	$4, %rcx
	movq	%r12, %rdi
	movl	(%r13), %r8d
	shlq	%cl, %rdi
	movl	flag_float_store(%rip), %eax
	movq	-80(%rbp), %rcx         # 8-byte Reload
	movq	32(%rcx,%rdi), %r9
	movq	%r8, %rdx
	andq	$65535, %rdx            # imm = 0xFFFF
	testq	%rax, %rax
	je	.LBB12_1083
# BB#1080:                              # %if.then3169
                                        #   in Loop: Header=BB12_1078 Depth=1
	cmpq	$66, %rdx
	jne	.LBB12_1083
# BB#1081:                              # %land.lhs.true3188
                                        #   in Loop: Header=BB12_1078 Depth=1
	movq	$14, %rcx
	movq	%r8, %rax
	shrq	%cl, %rax
	andq	$1020, %rax             # imm = 0x3FC
	movl	mode_class(%rax), %ecx
	cmpq	$8, %rcx
	ja	.LBB12_1083
# BB#1082:                              # %land.lhs.true3188
                                        #   in Loop: Header=BB12_1078 Depth=1
	movq	$1, %rax
	shlq	%cl, %rax
	testq	$324, %rax              # imm = 0x144
	jne	.LBB12_1271
	.align	16, 0x90
.LBB12_1083:                            # %lor.lhs.false3212
                                        #   in Loop: Header=BB12_1078 Depth=1
	movq	$16, %rcx
	movq	%r8, %rax
	shrq	%cl, %rax
	andq	$255, %rax
	cmpq	$51, %rax
	je	.LBB12_1271
# BB#1084:                              # %lor.lhs.false3212
                                        #   in Loop: Header=BB12_1078 Depth=1
	cmpq	$0, -208(%rbp)          # 8-byte Folded Reload
	jne	.LBB12_1271
# BB#1085:                              # %lor.lhs.false3220
                                        #   in Loop: Header=BB12_1078 Depth=1
	movq	$4, %rcx
	movq	%r12, %rbx
	shlq	%cl, %rbx
	movq	-80(%rbp), %rcx         # 8-byte Reload
	movq	16(%rcx,%rbx), %rsi
	testq	%rsi, %rsi
	je	.LBB12_1271
# BB#1086:                              # %lor.lhs.false3226
                                        #   in Loop: Header=BB12_1078 Depth=1
	movq	-80(%rbp), %rcx         # 8-byte Reload
	leaq	32(%rcx,%rdi), %rdi
	leaq	16(%rcx,%rbx), %rcx
	movq	%rcx, -48(%rbp)         # 8-byte Spill
	cmpq	$64, %rdx
	je	.LBB12_1159
# BB#1087:                              # %lor.lhs.false3226
                                        #   in Loop: Header=BB12_1078 Depth=1
	movq	%r9, %rbx
	cmpq	$63, %rdx
	jne	.LBB12_1160
# BB#1088:                              # %land.lhs.true3231
                                        #   in Loop: Header=BB12_1078 Depth=1
	movq	8(%r13), %rcx
	movzbl	2(%rcx), %ecx
	movzbl	mode_size(%rax), %eax
	movzbl	mode_size(%rcx), %ecx
	cmpq	%rcx, %rax
	jbe	.LBB12_1160
# BB#1089:                              # %land.lhs.true3249
                                        #   in Loop: Header=BB12_1078 Depth=1
	movq	$4, %rcx
	movq	%r12, %rax
	shlq	%cl, %rax
	movq	-80(%rbp), %rcx         # 8-byte Reload
	movq	8(%rcx,%rax), %rax
	movl	(%rax), %eax
	andq	$65534, %rax            # imm = 0xFFFE
	cmpq	$120, %rax
	movq	%rbx, %r9
	je	.LBB12_1271
# BB#1090:                              # %if.end3266
                                        #   in Loop: Header=BB12_1078 Depth=1
	cmpq	$64, %rdx
	jne	.LBB12_1091
.LBB12_1159:                            # %if.then3271
                                        #   in Loop: Header=BB12_1078 Depth=1
	movq	%r9, %rbx
	movq	8(%r13), %rax
	movq	8(%rax), %r13
	movl	(%r13), %r8d
.LBB12_1160:                            # %if.end3278
                                        #   in Loop: Header=BB12_1078 Depth=1
	movq	%rdi, -56(%rbp)         # 8-byte Spill
	orq	$2, %r8
	andq	$65535, %r8             # imm = 0xFFFF
	cmpq	$63, %r8
	jne	.LBB12_1178
# BB#1161:                              # %if.then3288
                                        #   in Loop: Header=BB12_1078 Depth=1
	movq	$1, %rdx
	movq	%r13, %rdi
	callq	insert_regs
	testq	%r14, %rax
	je	.LBB12_1178
# BB#1162:                              # %if.then3294
                                        #   in Loop: Header=BB12_1078 Depth=1
	movq	%r13, %rdi
	callq	rehash_using_reg
	movl	(%r13), %esi
	movq	%rsi, %rax
	andq	$65535, %rax            # imm = 0xFFFF
	cmpq	$61, %rax
	jne	.LBB12_1176
# BB#1163:                              # %land.lhs.true3299
                                        #   in Loop: Header=BB12_1078 Depth=1
	movl	8(%r13), %edi
	cmpq	$53, %rdi
	jb	.LBB12_1176
# BB#1164:                              # %cond.true3305
                                        #   in Loop: Header=BB12_1078 Depth=1
	movl	cached_regno(%rip), %eax
	cmpq	%rax, %rdi
	jne	.LBB12_1166
# BB#1165:                              # %cond.true3305
                                        #   in Loop: Header=BB12_1078 Depth=1
	movq	cached_cse_reg_info(%rip), %rax
	testq	%rax, %rax
	jne	.LBB12_1175
.LBB12_1166:                            # %cond.false3314
                                        #   in Loop: Header=BB12_1078 Depth=1
	movq	$7, %rcx
	movq	%rdi, %rsi
	shrq	%cl, %rsi
	xorq	%rdi, %rsi
	andq	$127, %rsi
	movq	reg_hash(,%rsi,8), %rcx
	testq	%rcx, %rcx
	movq	%rcx, %rax
	je	.LBB12_1167
.LBB12_1170:                            # %for.body.i6544
                                        #   Parent Loop BB12_1078 Depth=1
                                        # =>  This Inner Loop Header: Depth=2
	movl	16(%rax), %edx
	cmpq	%rdi, %rdx
	je	.LBB12_1174
# BB#1169:                              # %for.cond.i6540
                                        #   in Loop: Header=BB12_1170 Depth=2
	movq	(%rax), %rax
	testq	%rax, %rax
	jne	.LBB12_1170
.LBB12_1167:                            # %if.then4.i6546
                                        #   in Loop: Header=BB12_1078 Depth=1
	movq	%rsi, -64(%rbp)         # 8-byte Spill
	movq	cse_reg_info_free_list(%rip), %rax
	testq	%rax, %rax
	jne	.LBB12_1168
# BB#1171:                              # %if.else.i6551
                                        #   in Loop: Header=BB12_1078 Depth=1
	movq	$32, %rdi
	callq	xmalloc
	movq	-64(%rbp), %rdx         # 8-byte Reload
	movq	reg_hash(,%rdx,8), %rcx
	movl	8(%r13), %edi
	jmp	.LBB12_1172
.LBB12_1176:                            # %cond.false3323
                                        #   in Loop: Header=BB12_1078 Depth=1
	movq	$16, %rcx
	shrq	%cl, %rsi
	andq	$255, %rsi
	movq	%r13, %rdi
	callq	canon_hash
	jmp	.LBB12_1177
.LBB12_1091:                            #   in Loop: Header=BB12_1078 Depth=1
	movq	%r9, %rbx
	jmp	.LBB12_1160
.LBB12_1168:                            # %if.then5.i6548
                                        #   in Loop: Header=BB12_1078 Depth=1
	movq	8(%rax), %rdx
	movq	%rdx, cse_reg_info_free_list(%rip)
	movl	8(%r13), %edi
	movq	-64(%rbp), %rdx         # 8-byte Reload
.LBB12_1172:                            # %if.end6.i6560
                                        #   in Loop: Header=BB12_1078 Depth=1
	movq	%rcx, (%rax)
	movq	%rax, reg_hash(,%rdx,8)
	movq	$1, %rcx
	movl	%ecx, 24(%rax)
	movl	%r14d, 28(%rax)
	movl	%edi, 20(%rax)
	movl	%edi, 16(%rax)
	movq	cse_reg_info_used_list(%rip), %rcx
	movq	%rcx, 8(%rax)
	cmpq	$0, cse_reg_info_used_list_end(%rip)
	movq	%rax, cse_reg_info_used_list(%rip)
	jne	.LBB12_1174
# BB#1173:                              # %if.then11.i6561
                                        #   in Loop: Header=BB12_1078 Depth=1
	movq	%rax, cse_reg_info_used_list_end(%rip)
.LBB12_1174:                            # %get_cse_reg_info.exit6563
                                        #   in Loop: Header=BB12_1078 Depth=1
	movl	%edi, cached_regno(%rip)
	movq	%rax, cached_cse_reg_info(%rip)
.LBB12_1175:                            # %cond.end3319
                                        #   in Loop: Header=BB12_1078 Depth=1
	movl	20(%rax), %eax
	addq	$7808, %rax             # imm = 0x1E80
.LBB12_1177:                            # %cond.end3328
                                        #   in Loop: Header=BB12_1078 Depth=1
	andq	$31, %rax
	movq	$4, %rcx
	movq	%r12, %rdx
	shlq	%cl, %rdx
	movq	-80(%rbp), %rcx         # 8-byte Reload
	movl	%eax, 28(%rcx,%rdx)
.LBB12_1178:                            # %if.end3335
                                        #   in Loop: Header=BB12_1078 Depth=1
	movzbl	(%rbx), %eax
	cmpq	$66, %rax
	jne	.LBB12_1181
# BB#1179:                              # %land.lhs.true3340
                                        #   in Loop: Header=BB12_1078 Depth=1
	movq	8(%rbx), %rax
	movzbl	(%rax), %eax
	cmpq	$70, %rax
	jne	.LBB12_1181
# BB#1180:                              # %if.then3348
                                        #   in Loop: Header=BB12_1078 Depth=1
	movq	$4, %rcx
	shlq	%cl, %r12
	movq	-80(%rbp), %rax         # 8-byte Reload
	movl	28(%rax,%r12), %edx
	movzbl	2(%r13), %ecx
	xorq	%rsi, %rsi
	movq	%r13, %rdi
	callq	insert
	movq	-48(%rbp), %rbx         # 8-byte Reload
	jmp	.LBB12_1182
.LBB12_1181:                            # %if.else3356
                                        #   in Loop: Header=BB12_1078 Depth=1
	movq	-48(%rbp), %rbx         # 8-byte Reload
	movq	(%rbx), %rsi
	movq	$4, %rcx
	shlq	%cl, %r12
	movq	-80(%rbp), %rax         # 8-byte Reload
	movl	28(%rax,%r12), %edx
	movzbl	2(%r13), %ecx
	movq	%r13, %rdi
	callq	insert
.LBB12_1182:                            # %if.end3367
                                        #   in Loop: Header=BB12_1078 Depth=1
	movq	-56(%rbp), %rcx         # 8-byte Reload
	movq	(%rcx), %rdx
	movl	(%rdx), %esi
	movq	%rsi, %rdi
	andq	$65535, %rdi            # imm = 0xFFFF
	xorq	%rcx, %rcx
	cmpq	$66, %rdi
	jne	.LBB12_1200
# BB#1183:                              # %land.rhs3375
                                        #   in Loop: Header=BB12_1078 Depth=1
	testq	$67108864, %rsi         # imm = 0x4000000
	movq	$1, %rcx
	je	.LBB12_1200
# BB#1184:                              # %lor.rhs3383
                                        #   in Loop: Header=BB12_1078 Depth=1
	movq	8(%rdx), %rdx
	movq	global_rtl+24(%rip), %rsi
	cmpq	%rsi, %rdx
	je	.LBB12_1200
# BB#1185:                              # %lor.rhs3383
                                        #   in Loop: Header=BB12_1078 Depth=1
	movq	global_rtl+32(%rip), %rdi
	cmpq	%rdi, %rdx
	je	.LBB12_1200
# BB#1186:                              # %lor.lhs.false3401
                                        #   in Loop: Header=BB12_1078 Depth=1
	movq	%rbx, %r8
	movq	global_rtl+40(%rip), %rbx
	cmpq	%rbx, %rdx
	jne	.LBB12_1189
# BB#1187:                              # %lor.lhs.false3401
                                        #   in Loop: Header=BB12_1078 Depth=1
	movzbl	fixed_regs+16(%rip), %ebx
	testq	$255, %rbx
	je	.LBB12_1189
# BB#1188:                              #   in Loop: Header=BB12_1078 Depth=1
	movq	%r8, %rbx
	jmp	.LBB12_1200
.LBB12_1189:                            # %lor.lhs.false3413
                                        #   in Loop: Header=BB12_1078 Depth=1
	movq	global_rtl+56(%rip), %r10
	cmpq	%r10, %rdx
	je	.LBB12_1190
# BB#1191:                              # %lor.lhs.false3413
                                        #   in Loop: Header=BB12_1078 Depth=1
	movq	global_rtl+48(%rip), %r9
	cmpq	%r9, %rdx
	movq	%r8, %rbx
	je	.LBB12_1200
# BB#1192:                              # %lor.lhs.false3431
                                        #   in Loop: Header=BB12_1078 Depth=1
	movzbl	(%rdx), %r8d
	cmpq	$75, %r8
	jne	.LBB12_1198
# BB#1193:                              # %land.lhs.true3442
                                        #   in Loop: Header=BB12_1078 Depth=1
	movq	%rbx, %r11
	movq	16(%rdx), %rbx
	movzbl	(%rbx), %ebx
	cmpq	$54, %rbx
	movq	%r11, %rbx
	jne	.LBB12_1198
# BB#1194:                              # %land.lhs.true3456
                                        #   in Loop: Header=BB12_1078 Depth=1
	movq	8(%rdx), %rdx
	cmpq	%rsi, %rdx
	je	.LBB12_1200
# BB#1195:                              # %land.lhs.true3456
                                        #   in Loop: Header=BB12_1078 Depth=1
	cmpq	%rdi, %rdx
	je	.LBB12_1200
# BB#1196:                              # %lor.lhs.false3492
                                        #   in Loop: Header=BB12_1078 Depth=1
	cmpq	%r10, %rdx
	je	.LBB12_1200
# BB#1197:                              # %lor.lhs.false3492
                                        #   in Loop: Header=BB12_1078 Depth=1
	cmpq	%r9, %rdx
	je	.LBB12_1200
.LBB12_1198:                            # %lor.rhs3516
                                        #   in Loop: Header=BB12_1078 Depth=1
	cmpq	$70, %r8
	movabsq	$0, %rcx
	jne	.LBB12_1200
# BB#1199:                              # %lor.rhs3516
                                        #   in Loop: Header=BB12_1078 Depth=1
	movabsq	$1, %rcx
	jmp	.LBB12_1200
.LBB12_1190:                            #   in Loop: Header=BB12_1078 Depth=1
	movq	%r8, %rbx
.LBB12_1200:                            # %land.end3529
                                        #   in Loop: Header=BB12_1078 Depth=1
	movb	%cl, 76(%rax)
	movl	(%r13), %edx
	movq	%rdx, %rax
	andq	$65535, %rax            # imm = 0xFFFF
	cmpq	$63, %rax
	jne	.LBB12_1271
# BB#1201:                              # %land.lhs.true3536
                                        #   in Loop: Header=BB12_1078 Depth=1
	movq	8(%r13), %rax
	movzbl	2(%rax), %eax
	movq	%rax, -48(%rbp)         # 8-byte Spill
	movzbl	mode_size(%rax), %esi
	leaq	-1(%rsi), %rax
	movq	%rbx, %r8
	movl	target_flags(%rip), %ebx
	movq	$23, %rcx
	shrq	%cl, %rbx
	andq	$4, %rbx
	movq	$16, %rcx
	shrq	%cl, %rdx
	andq	$255, %rdx
	movzbl	mode_size(%rdx), %edi
	addq	$4, %rbx
	cqto
	idivq	%rbx
	movq	%rax, %rcx
	leaq	-1(%rdi), %rax
	cqto
	idivq	%rbx
	andq	%r14, %rcx
	andq	%r14, %rax
	cmpq	%rax, %rcx
	jne	.LBB12_1271
# BB#1202:                              # %land.lhs.true3536
                                        #   in Loop: Header=BB12_1078 Depth=1
	cmpq	%rsi, %rdi
	jb	.LBB12_1271
# BB#1203:                              # %land.lhs.true3582
                                        #   in Loop: Header=BB12_1078 Depth=1
	movq	(%r8), %rax
	testq	%rax, %rax
	je	.LBB12_1271
# BB#1204:                              # %if.then3588
                                        #   in Loop: Header=BB12_1078 Depth=1
	movq	48(%rax), %rbx
	movq	$0, -64(%rbp)           # 8-byte Folded Spill
	jmp	.LBB12_1205
.LBB12_1269:                            # %for.inc3733
                                        #   in Loop: Header=BB12_1205 Depth=2
	movq	-56(%rbp), %rbx         # 8-byte Reload
	movq	32(%rbx), %rbx
.LBB12_1205:                            # %if.then3588
                                        #   Parent Loop BB12_1078 Depth=1
                                        # =>  This Loop Header: Depth=2
                                        #       Child Loop BB12_1224 Depth 3
                                        #       Child Loop BB12_1232 Depth 3
                                        #       Child Loop BB12_1250 Depth 3
                                        #       Child Loop BB12_1263 Depth 3
	testq	%rbx, %rbx
	je	.LBB12_1271
# BB#1206:                              # %for.body3603
                                        #   in Loop: Header=BB12_1205 Depth=2
	movq	(%rbx), %r12
	movzbl	(%r12), %eax
	cmpq	$61, %rax
	jne	.LBB12_1208
# BB#1207:                              #   in Loop: Header=BB12_1205 Depth=2
	movq	%r14, %r13
	jmp	.LBB12_1211
.LBB12_1208:                            # %land.lhs.true3612
                                        #   in Loop: Header=BB12_1205 Depth=2
	movq	$1, %rdx
	movq	%r12, %rdi
	movq	%r12, %rsi
	callq	exp_equiv_p
	movq	%r14, %r13
	testq	%r13, %rax
	jne	.LBB12_1210
# BB#1209:                              #   in Loop: Header=BB12_1205 Depth=2
	movq	%r13, %r14
	movq	32(%rbx), %rbx
	jmp	.LBB12_1205
.LBB12_1210:                            # %land.lhs.true3612.if.end3618_crit_edge
                                        #   in Loop: Header=BB12_1205 Depth=2
	movq	(%rbx), %r12
.LBB12_1211:                            # %if.end3618
                                        #   in Loop: Header=BB12_1205 Depth=2
	movq	-48(%rbp), %rdi         # 8-byte Reload
	movq	%r12, %rsi
	callq	gen_lowpart_common
	movq	%rax, %r14
	testq	%r14, %r14
	jne	.LBB12_1216
# BB#1212:                              # %if.else.i6569
                                        #   in Loop: Header=BB12_1205 Depth=2
	movzbl	(%r12), %eax
	cmpq	$66, %rax
	jne	.LBB12_1215
# BB#1213:                              # %if.then1.i6576
                                        #   in Loop: Header=BB12_1205 Depth=2
	xorq	%rdx, %rdx
	xorq	%rcx, %rcx
	movq	$1, %r8
	movq	%r12, %rdi
	movq	-48(%rbp), %r12         # 8-byte Reload
	movq	%r12, %rsi
	callq	adjust_address_1
	movq	%rax, %r14
	movq	8(%r14), %rsi
	movq	%r12, %rdi
	callq	memory_address_p
	testq	%r13, %rax
	je	.LBB12_1215
# BB#1214:                              # %if.then1.i6576
                                        #   in Loop: Header=BB12_1205 Depth=2
	testq	%r14, %r14
	jne	.LBB12_1216
.LBB12_1215:                            # %if.then3623
                                        #   in Loop: Header=BB12_1205 Depth=2
	movq	(%rbx), %rsi
	xorq	%rdx, %rdx
	movq	-48(%rbp), %rdi         # 8-byte Reload
	callq	gen_rtx_SUBREG
	movq	%rax, %r14
.LBB12_1216:                            # %if.end3626
                                        #   in Loop: Header=BB12_1205 Depth=2
	movq	%rbx, -56(%rbp)         # 8-byte Spill
	movzbl	(%r14), %eax
	cmpq	$61, %rax
	jne	.LBB12_1230
# BB#1217:                              # %land.lhs.true3631
                                        #   in Loop: Header=BB12_1205 Depth=2
	movl	8(%r14), %r12d
	cmpq	$53, %r12
	jb	.LBB12_1230
# BB#1218:                              # %cond.true3637
                                        #   in Loop: Header=BB12_1205 Depth=2
	movl	cached_regno(%rip), %eax
	cmpq	%rax, %r12
	jne	.LBB12_1220
# BB#1219:                              # %cond.true3637
                                        #   in Loop: Header=BB12_1205 Depth=2
	movq	cached_cse_reg_info(%rip), %rax
	testq	%rax, %rax
	jne	.LBB12_1229
.LBB12_1220:                            # %cond.false3646
                                        #   in Loop: Header=BB12_1205 Depth=2
	movq	$7, %rcx
	movq	%r12, %rbx
	shrq	%cl, %rbx
	xorq	%r12, %rbx
	andq	$127, %rbx
	movq	reg_hash(,%rbx,8), %rcx
	testq	%rcx, %rcx
	movq	%rcx, %rax
	je	.LBB12_1221
.LBB12_1224:                            # %for.body.i6594
                                        #   Parent Loop BB12_1078 Depth=1
                                        #     Parent Loop BB12_1205 Depth=2
                                        # =>    This Inner Loop Header: Depth=3
	movl	16(%rax), %edx
	cmpq	%r12, %rdx
	je	.LBB12_1228
# BB#1223:                              # %for.cond.i6590
                                        #   in Loop: Header=BB12_1224 Depth=3
	movq	(%rax), %rax
	testq	%rax, %rax
	jne	.LBB12_1224
.LBB12_1221:                            # %if.then4.i6596
                                        #   in Loop: Header=BB12_1205 Depth=2
	movq	cse_reg_info_free_list(%rip), %rax
	testq	%rax, %rax
	jne	.LBB12_1222
# BB#1225:                              # %if.else.i6601
                                        #   in Loop: Header=BB12_1205 Depth=2
	movq	$32, %rdi
	callq	xmalloc
	movq	reg_hash(,%rbx,8), %rcx
	jmp	.LBB12_1226
.LBB12_1230:                            # %cond.false3655
                                        #   in Loop: Header=BB12_1205 Depth=2
	movq	%r13, %r12
	movq	%r14, %rdi
	movq	-48(%rbp), %rsi         # 8-byte Reload
	callq	canon_hash
	movq	%rax, %r13
	jmp	.LBB12_1231
.LBB12_1222:                            # %if.then5.i6598
                                        #   in Loop: Header=BB12_1205 Depth=2
	movq	8(%rax), %rdx
	movq	%rdx, cse_reg_info_free_list(%rip)
.LBB12_1226:                            # %if.end6.i6610
                                        #   in Loop: Header=BB12_1205 Depth=2
	movq	%rcx, (%rax)
	movq	%rax, reg_hash(,%rbx,8)
	movq	$1, %rcx
	movl	%ecx, 24(%rax)
	movl	%r13d, 28(%rax)
	movl	%r12d, 20(%rax)
	movl	%r12d, 16(%rax)
	movq	cse_reg_info_used_list(%rip), %rcx
	movq	%rcx, 8(%rax)
	cmpq	$0, cse_reg_info_used_list_end(%rip)
	movq	%rax, cse_reg_info_used_list(%rip)
	jne	.LBB12_1228
# BB#1227:                              # %if.then11.i6611
                                        #   in Loop: Header=BB12_1205 Depth=2
	movq	%rax, cse_reg_info_used_list_end(%rip)
.LBB12_1228:                            # %get_cse_reg_info.exit6613
                                        #   in Loop: Header=BB12_1205 Depth=2
	movl	%r12d, cached_regno(%rip)
	movq	%rax, cached_cse_reg_info(%rip)
.LBB12_1229:                            # %cond.end3651
                                        #   in Loop: Header=BB12_1205 Depth=2
	movq	%r13, %r12
	movl	20(%rax), %r13d
	addq	$7808, %r13             # imm = 0x1E80
.LBB12_1231:                            # %cond.end3657
                                        #   in Loop: Header=BB12_1205 Depth=2
	andq	$31, %r13
	movq	table(,%r13,8), %rbx
	jmp	.LBB12_1232
.LBB12_1239:                            # %for.inc.i6638
                                        #   in Loop: Header=BB12_1232 Depth=3
	movq	16(%rbx), %rbx
.LBB12_1232:                            # %cond.end3657
                                        #   Parent Loop BB12_1078 Depth=1
                                        #     Parent Loop BB12_1205 Depth=2
                                        # =>    This Inner Loop Header: Depth=3
	testq	%rbx, %rbx
	je	.LBB12_1241
# BB#1233:                              # %for.body.i6621
                                        #   in Loop: Header=BB12_1232 Depth=3
	movl	72(%rbx), %eax
	movq	-48(%rbp), %rcx         # 8-byte Reload
	cmpq	%rcx, %rax
	jne	.LBB12_1239
# BB#1234:                              # %land.lhs.true.i6628
                                        #   in Loop: Header=BB12_1232 Depth=3
	movq	(%rbx), %rsi
	movzbl	(%r14), %eax
	cmpq	%r14, %rsi
	jne	.LBB12_1236
# BB#1235:                              # %land.lhs.true.i6628
                                        #   in Loop: Header=BB12_1232 Depth=3
	cmpq	$61, %rax
	je	.LBB12_1240
.LBB12_1236:                            # %lor.lhs.false.i6634
                                        #   in Loop: Header=BB12_1232 Depth=3
	cmpq	$61, %rax
	movabsq	$0, %rdx
	je	.LBB12_1238
# BB#1237:                              # %lor.lhs.false.i6634
                                        #   in Loop: Header=BB12_1232 Depth=3
	movabsq	$1, %rdx
.LBB12_1238:                            # %lor.lhs.false.i6634
                                        #   in Loop: Header=BB12_1232 Depth=3
	movq	%r14, %rdi
	callq	exp_equiv_p
	testq	%r12, %rax
	je	.LBB12_1239
.LBB12_1240:                            # %lookup.exit6641
                                        #   in Loop: Header=BB12_1205 Depth=2
	testq	%rbx, %rbx
	jne	.LBB12_1259
.LBB12_1241:                            # %if.then3663
                                        #   in Loop: Header=BB12_1205 Depth=2
	xorq	%rdx, %rdx
	movq	%r14, %rdi
	movq	-64(%rbp), %rbx         # 8-byte Reload
	movq	%rbx, %rsi
	callq	insert_regs
	testq	%r12, %rax
	je	.LBB12_1258
# BB#1242:                              # %if.then3666
                                        #   in Loop: Header=BB12_1205 Depth=2
	movq	%r14, %rdi
	callq	rehash_using_reg
	movzbl	(%r14), %eax
	cmpq	$61, %rax
	jne	.LBB12_1256
# BB#1243:                              # %land.lhs.true3671
                                        #   in Loop: Header=BB12_1205 Depth=2
	movl	8(%r14), %r13d
	cmpq	$53, %r13
	jb	.LBB12_1256
# BB#1244:                              # %cond.true3677
                                        #   in Loop: Header=BB12_1205 Depth=2
	movl	cached_regno(%rip), %eax
	cmpq	%rax, %r13
	jne	.LBB12_1246
# BB#1245:                              # %cond.true3677
                                        #   in Loop: Header=BB12_1205 Depth=2
	movq	cached_cse_reg_info(%rip), %rax
	testq	%rax, %rax
	jne	.LBB12_1255
.LBB12_1246:                            # %cond.false3686
                                        #   in Loop: Header=BB12_1205 Depth=2
	movq	$7, %rcx
	movq	%r13, %rbx
	shrq	%cl, %rbx
	xorq	%r13, %rbx
	andq	$127, %rbx
	movq	reg_hash(,%rbx,8), %rcx
	testq	%rcx, %rcx
	movq	%rcx, %rax
	je	.LBB12_1247
.LBB12_1250:                            # %for.body.i6656
                                        #   Parent Loop BB12_1078 Depth=1
                                        #     Parent Loop BB12_1205 Depth=2
                                        # =>    This Inner Loop Header: Depth=3
	movl	16(%rax), %edx
	cmpq	%r13, %rdx
	je	.LBB12_1254
# BB#1249:                              # %for.cond.i6652
                                        #   in Loop: Header=BB12_1250 Depth=3
	movq	(%rax), %rax
	testq	%rax, %rax
	jne	.LBB12_1250
.LBB12_1247:                            # %if.then4.i6658
                                        #   in Loop: Header=BB12_1205 Depth=2
	movq	cse_reg_info_free_list(%rip), %rax
	testq	%rax, %rax
	jne	.LBB12_1248
# BB#1251:                              # %if.else.i6663
                                        #   in Loop: Header=BB12_1205 Depth=2
	movq	$32, %rdi
	callq	xmalloc
	movq	reg_hash(,%rbx,8), %rcx
	jmp	.LBB12_1252
.LBB12_1256:                            # %cond.false3695
                                        #   in Loop: Header=BB12_1205 Depth=2
	movq	%r14, %rdi
	movq	-48(%rbp), %rsi         # 8-byte Reload
	callq	canon_hash
	movq	%rax, %r13
	jmp	.LBB12_1257
.LBB12_1248:                            # %if.then5.i6660
                                        #   in Loop: Header=BB12_1205 Depth=2
	movq	8(%rax), %rdx
	movq	%rdx, cse_reg_info_free_list(%rip)
.LBB12_1252:                            # %if.end6.i6672
                                        #   in Loop: Header=BB12_1205 Depth=2
	movq	%rcx, (%rax)
	movq	%rax, reg_hash(,%rbx,8)
	movq	$1, %rcx
	movl	%ecx, 24(%rax)
	movl	%r12d, 28(%rax)
	movl	%r13d, 20(%rax)
	movl	%r13d, 16(%rax)
	movq	cse_reg_info_used_list(%rip), %rcx
	movq	%rcx, 8(%rax)
	cmpq	$0, cse_reg_info_used_list_end(%rip)
	movq	%rax, cse_reg_info_used_list(%rip)
	jne	.LBB12_1254
# BB#1253:                              # %if.then11.i6673
                                        #   in Loop: Header=BB12_1205 Depth=2
	movq	%rax, cse_reg_info_used_list_end(%rip)
.LBB12_1254:                            # %get_cse_reg_info.exit6675
                                        #   in Loop: Header=BB12_1205 Depth=2
	movl	%r13d, cached_regno(%rip)
	movq	%rax, cached_cse_reg_info(%rip)
.LBB12_1255:                            # %cond.end3691
                                        #   in Loop: Header=BB12_1205 Depth=2
	movl	20(%rax), %r13d
	addq	$7808, %r13             # imm = 0x1E80
	movq	-64(%rbp), %rbx         # 8-byte Reload
.LBB12_1257:                            # %cond.end3697
                                        #   in Loop: Header=BB12_1205 Depth=2
	andq	$31, %r13
.LBB12_1258:                            # %if.end3700
                                        #   in Loop: Header=BB12_1205 Depth=2
	movq	%r14, %rdi
	movq	%rbx, %rsi
	movq	%r13, %rdx
	movq	-48(%rbp), %rcx         # 8-byte Reload
	callq	insert
	movq	-56(%rbp), %rcx         # 8-byte Reload
	movzbl	76(%rcx), %ecx
	movq	%rax, %rbx
	movb	%cl, 76(%rbx)
.LBB12_1262:                            # %if.end3712
                                        #   in Loop: Header=BB12_1205 Depth=2
	movq	48(%rbx), %rbx
	movq	$0, -64(%rbp)           # 8-byte Folded Spill
	jmp	.LBB12_1263
.LBB12_1265:                            # %while.cond3714
                                        #   in Loop: Header=BB12_1263 Depth=3
	movq	32(%rbx), %rbx
.LBB12_1263:                            # %if.end3712
                                        #   Parent Loop BB12_1078 Depth=1
                                        #     Parent Loop BB12_1205 Depth=2
                                        # =>    This Inner Loop Header: Depth=3
	testq	%rbx, %rbx
	je	.LBB12_1264
# BB#1266:                              # %land.lhs.true3716
                                        #   in Loop: Header=BB12_1263 Depth=3
	movq	(%rbx), %rdi
	movzbl	(%rdi), %eax
	cmpq	$61, %rax
	je	.LBB12_1268
# BB#1267:                              # %land.rhs3722
                                        #   in Loop: Header=BB12_1263 Depth=3
	movq	$1, %rdx
	movq	%rdi, %rsi
	callq	exp_equiv_p
	testq	%r12, %rax
	je	.LBB12_1265
.LBB12_1268:                            #   in Loop: Header=BB12_1205 Depth=2
	movq	%r12, %r14
	movq	%rbx, -64(%rbp)         # 8-byte Spill
	jmp	.LBB12_1269
.LBB12_1264:                            #   in Loop: Header=BB12_1205 Depth=2
	movq	%r12, %r14
	jmp	.LBB12_1269
.LBB12_1259:                            # %if.else3704
                                        #   in Loop: Header=BB12_1205 Depth=2
	movq	-64(%rbp), %rax         # 8-byte Reload
	testq	%rax, %rax
	je	.LBB12_1262
# BB#1260:                              # %land.lhs.true3706
                                        #   in Loop: Header=BB12_1205 Depth=2
	movq	48(%rbx), %rdi
	cmpq	%rdi, %rax
	je	.LBB12_1262
# BB#1261:                              # %if.then3710
                                        #   in Loop: Header=BB12_1205 Depth=2
	movq	48(%rax), %rsi
	callq	merge_equiv_classes
	jmp	.LBB12_1262
	.align	16, 0x90
.LBB12_1271:                            # %for.inc3738
                                        #   in Loop: Header=BB12_1078 Depth=1
	incq	%r15
	movq	%r15, %rax
	andq	%r14, %rax
	movq	-88(%rbp), %rcx         # 8-byte Reload
	cmpq	%rcx, %rax
	jne	.LBB12_1078
.LBB12_1272:                            # %for.end3740
	cmpq	$0, -112(%rbp)          # 8-byte Folded Reload
	je	.LBB12_1273
# BB#1274:                              # %land.lhs.true3743
	movq	-80(%rbp), %rax         # 8-byte Reload
	movq	(%rax), %rdx
	testq	%rdx, %rdx
	je	.LBB12_1320
# BB#1275:                              # %land.lhs.true3747
	movq	8(%rdx), %rax
	movzbl	(%rax), %eax
	cmpq	$61, %rax
	jne	.LBB12_1320
# BB#1276:                              # %land.lhs.true3757
	movq	-96(%rbp), %rcx         # 8-byte Reload
	movq	16(%rcx), %rax
	movq	24(%rax), %rax
	cmpq	%rcx, %rax
	jne	.LBB12_1320
# BB#1277:                              # %land.lhs.true3766
	movq	16(%rdx), %rax
	movzbl	(%rax), %ecx
	cmpq	$61, %rcx
	jne	.LBB12_1320
# BB#1278:                              # %land.lhs.true3776
	movl	8(%rax), %r12d
	cmpq	$53, %r12
	jb	.LBB12_1320
# BB#1279:                              # %land.lhs.true3787
	movl	cached_regno(%rip), %eax
	cmpq	%rax, %r12
	jne	.LBB12_1281
# BB#1280:                              # %land.lhs.true3787
	movq	cached_cse_reg_info(%rip), %rax
	testq	%rax, %rax
	movq	%r12, %r14
	jne	.LBB12_1292
.LBB12_1281:                            # %cond.false3801
	movq	$7, %rcx
	movq	%r12, %rbx
	shrq	%cl, %rbx
	xorq	%r12, %rbx
	andq	$127, %rbx
	movq	reg_hash(,%rbx,8), %rcx
	testq	%rcx, %rcx
	je	.LBB12_1286
# BB#1282:
	movq	%rcx, %rax
.LBB12_1284:                            # %for.body.i6690
                                        # =>This Inner Loop Header: Depth=1
	movl	16(%rax), %edx
	cmpq	%r12, %rdx
	je	.LBB12_1285
# BB#1283:                              # %for.cond.i6686
                                        #   in Loop: Header=BB12_1284 Depth=1
	movq	(%rax), %rax
	testq	%rax, %rax
	jne	.LBB12_1284
.LBB12_1286:                            # %if.then4.i6692
	movq	cse_reg_info_free_list(%rip), %rax
	testq	%rax, %rax
	je	.LBB12_1288
# BB#1287:                              # %if.then5.i6694
	movq	8(%rax), %rdx
	movq	%rdx, cse_reg_info_free_list(%rip)
	jmp	.LBB12_1289
.LBB12_1273:                            # %if.end3973.thread
	movq	$0, last_jump_equiv_class(%rip)
	movq	-96(%rbp), %rbx         # 8-byte Reload
	jmp	.LBB12_1324
.LBB12_32:                              # %if.else154
                                        #   in Loop: Header=BB12_28 Depth=1
	movq	8(%r15), %rcx
	movq	global_rtl(%rip), %rdx
	cmpq	%rdx, %rcx
	movabsq	$4294967295, %rdx       # imm = 0xFFFFFFFF
	jne	.LBB12_34
# BB#33:                                # %if.else154
                                        #   in Loop: Header=BB12_28 Depth=1
	cmpq	$67, %rax
	je	.LBB12_44
.LBB12_34:                              # %if.else169
                                        #   in Loop: Header=BB12_28 Depth=1
	movq	$32, %rcx
	movq	-88(%rbp), %rsi         # 8-byte Reload
	leaq	1(%rsi), %rax
	shlq	%cl, %rsi
	movq	$32, %rcx
	sarq	%cl, %rsi
	leaq	(%rsi,%rsi,4), %rsi
	movq	$4, %rcx
	shlq	%cl, %rsi
	movq	-80(%rbp), %rcx         # 8-byte Reload
	movq	%r15, (%rcx,%rsi)
	movq	%rax, -88(%rbp)         # 8-byte Spill
	jmp	.LBB12_44
	.align	16, 0x90
.LBB12_28:                              # %for.body121
                                        # =>This Inner Loop Header: Depth=1
	movq	-160(%rbp), %rax        # 8-byte Reload
	movq	8(%rax), %rax
	movq	(%rax,%r13,8), %r15
	movzbl	(%r15), %eax
	leaq	-47(%rax), %rcx
	andq	%r14, %rcx
	cmpq	$3, %rcx
	ja	.LBB12_44
# BB#29:                                # %for.body121
                                        #   in Loop: Header=BB12_28 Depth=1
	jmpq	*.LJTI12_1(,%rcx,8)
.LBB12_30:                              # %if.then133
                                        #   in Loop: Header=BB12_28 Depth=1
	movq	16(%r15), %rdi
	movzbl	(%rdi), %eax
	cmpq	$50, %rax
	jne	.LBB12_32
# BB#31:                                # %if.then141
                                        #   in Loop: Header=BB12_28 Depth=1
	movq	-96(%rbp), %rbx         # 8-byte Reload
	movq	%rbx, %rsi
	callq	canon_reg
	callq	apply_change_group
	movq	16(%r15), %rdi
	movq	%rbx, %rsi
	callq	fold_rtx
	movq	8(%r15), %rdi
	xorq	%rsi, %rsi
	callq	invalidate
	jmp	.LBB12_43
.LBB12_38:                              # %land.lhs.true200
                                        #   in Loop: Header=BB12_28 Depth=1
	movq	%rdx, %rbx
	movq	8(%r15), %rcx
	movzbl	(%rcx), %edx
	cmpq	$61, %rdx
	jne	.LBB12_40
# BB#39:                                # %land.lhs.true208
                                        #   in Loop: Header=BB12_28 Depth=1
	movl	8(%rcx), %ecx
	cmpq	$53, %rcx
	jae	.LBB12_40
# BB#41:                                # %if.else218
                                        #   in Loop: Header=BB12_28 Depth=1
	cmpq	$50, %rax
	movq	%rbx, %rdx
	jne	.LBB12_44
.LBB12_42:                              # %if.then223
                                        #   in Loop: Header=BB12_28 Depth=1
	movq	%r15, %rdi
	movq	-96(%rbp), %rbx         # 8-byte Reload
	movq	%rbx, %rsi
	callq	canon_reg
	callq	apply_change_group
	movq	%r15, %rdi
	movq	%rbx, %rsi
	callq	fold_rtx
.LBB12_43:                              # %for.inc231
                                        #   in Loop: Header=BB12_28 Depth=1
	movabsq	$4294967295, %rdx       # imm = 0xFFFFFFFF
	jmp	.LBB12_44
.LBB12_35:                              # %if.then181
                                        #   in Loop: Header=BB12_28 Depth=1
	movq	8(%r15), %rdi
	movzbl	(%rdi), %eax
	cmpq	$66, %rax
	jne	.LBB12_44
# BB#36:                                # %if.then189
                                        #   in Loop: Header=BB12_28 Depth=1
	xorq	%rsi, %rsi
	movq	%rdx, %rbx
	jmp	.LBB12_37
.LBB12_40:                              # %if.then216
                                        #   in Loop: Header=BB12_28 Depth=1
	xorq	%rsi, %rsi
	movq	%r15, %rdi
.LBB12_37:                              # %for.inc231
                                        #   in Loop: Header=BB12_28 Depth=1
	callq	canon_reg
	movq	%rbx, %rdx
	.align	16, 0x90
.LBB12_44:                              # %for.inc231
                                        #   in Loop: Header=BB12_28 Depth=1
	movq	%r13, %rax
	andq	%r14, %rax
	incq	%r13
	cmpq	%r12, %rax
	jne	.LBB12_28
# BB#45:                                # %if.end293
	movq	-88(%rbp), %r13         # 8-byte Reload
	andq	%r13, %r14
	cmpq	$1, %r14
	movq	-96(%rbp), %r14         # 8-byte Reload
	movq	-80(%rbp), %rbx         # 8-byte Reload
	je	.LBB12_46
# BB#61:                                # %if.end336
	movq	$32, %rcx
	movq	%r13, %rax
	shlq	%cl, %rax
	movq	$32, %rcx
	sarq	%cl, %rax
	xorq	%r12, %r12
	testq	%rax, %rax
	movabsq	$0, %rax
	movq	%rax, -112(%rbp)        # 8-byte Spill
	jg	.LBB12_62
	jmp	.LBB12_55
.LBB12_11:                              # %if.else
	cmpq	$50, %rax
	jne	.LBB12_46
# BB#12:                                # %if.then49
	movq	%rbx, -80(%rbp)         # 8-byte Spill
	movq	%r14, %rsi
	callq	canon_reg
	callq	apply_change_group
	movq	-160(%rbp), %rbx        # 8-byte Reload
	movq	16(%rbx), %rdi
	movq	%r14, %rsi
	callq	fold_rtx
	movq	8(%rbx), %rdi
	xorq	%rsi, %rsi
	xorq	%r13, %r13
	callq	invalidate
	jmp	.LBB12_55
.LBB12_46:                              # %land.lhs.true296
	cmpq	$0, 56(%r14)
	je	.LBB12_47
# BB#56:                                # %land.lhs.true302
	movq	$4, %rsi
	xorq	%rdx, %rdx
	xorq	%r12, %r12
	movq	%r14, %rdi
	callq	find_reg_note
	movq	%rax, %r15
	testq	%r15, %r15
	movq	$1, %r13
	je	.LBB12_57
# BB#58:                                # %land.lhs.true306
	movq	(%rbx), %rax
	movq	8(%r15), %rdi
	movq	16(%rax), %rsi
	callq	rtx_equal_p
	movabsq	$4294967295, %rcx       # imm = 0xFFFFFFFF
	testq	%rcx, %rax
	je	.LBB12_60
# BB#59:                                # %lor.lhs.false317
	movq	(%rbx), %rax
	movq	8(%rax), %rax
	movzbl	(%rax), %eax
	cmpq	$64, %rax
	movq	$1, %r13
	jne	.LBB12_57
.LBB12_60:                              # %if.then327
	movq	%rbx, -80(%rbp)         # 8-byte Spill
	movq	8(%r15), %rdi
	xorq	%rsi, %rsi
	callq	canon_reg
	movq	%rax, %rdi
	movq	%r14, %rsi
	callq	fold_rtx
	movq	%rax, %r12
	movq	%r12, 8(%r15)
	movq	$1, %r13
	movq	$1, -112(%rbp)          # 8-byte Folded Spill
	jmp	.LBB12_62
.LBB12_21:
	movq	-96(%rbp), %r14         # 8-byte Reload
	jmp	.LBB12_55
.LBB12_47:
	movq	%rbx, -80(%rbp)         # 8-byte Spill
	movq	$1, %r13
	xorq	%r12, %r12
	movq	$1, -112(%rbp)          # 8-byte Folded Spill
	jmp	.LBB12_62
.LBB12_57:
	movq	%rbx, -80(%rbp)         # 8-byte Spill
	movq	$1, -112(%rbp)          # 8-byte Folded Spill
.LBB12_62:                              # %for.body340.lr.ph
	movq	%r12, -288(%rbp)        # 8-byte Spill
	movq	%r13, -88(%rbp)         # 8-byte Spill
	xorq	%rcx, %rcx
	movq	-80(%rbp), %r15         # 8-byte Reload
	.align	16, 0x90
.LBB12_63:                              # %for.body340
                                        # =>This Loop Header: Depth=1
                                        #     Child Loop BB12_74 Depth 2
	movq	%rcx, -56(%rbp)         # 8-byte Spill
	leaq	(%rcx,%rcx,4), %r12
	movq	$4, %rcx
	shlq	%cl, %r12
	movq	(%r15,%r12), %rax
	movq	8(%rax), %rbx
	movq	16(%rax), %r13
	leaq	(%r15,%r12), %rax
	movq	%rax, -48(%rbp)         # 8-byte Spill
	movq	%r13, %rdi
	movq	%r14, %rsi
	callq	canon_reg
	movq	%rax, %rdx
	movq	%r13, 56(%r15,%r12)
	movq	%r14, %r12
	movzbl	(%rdx), %eax
	cmpq	$61, %rax
	jne	.LBB12_66
# BB#64:                                # %land.lhs.true360
                                        #   in Loop: Header=BB12_63 Depth=1
	movzbl	(%r13), %eax
	cmpq	$61, %rax
	jne	.LBB12_66
# BB#65:                                # %land.lhs.true365
                                        #   in Loop: Header=BB12_63 Depth=1
	movl	8(%rdx), %eax
	movl	8(%r13), %ecx
	cmpq	$53, %rax
	sbbq	%rax, %rax
	andq	$1, %rax
	cmpq	$53, %rcx
	sbbq	%rcx, %rcx
	andq	$1, %rcx
	xorq	%rax, %rcx
	jne	.LBB12_69
	.align	16, 0x90
.LBB12_66:                              # %lor.lhs.false378
                                        #   in Loop: Header=BB12_63 Depth=1
	movslq	40(%r12), %rax
	testq	%rax, %rax
	jns	.LBB12_68
# BB#67:                                # %cond.end
                                        #   in Loop: Header=BB12_63 Depth=1
	movq	%r12, %rdi
	movq	%rdx, %r14
	callq	recog_memoized_1
	movq	$32, %rcx
	movq	%rax, %rdx
	shlq	%cl, %rdx
	movq	$32, %rcx
	sarq	%cl, %rdx
	testq	%rdx, %rdx
	movq	%r14, %rdx
	js	.LBB12_69
.LBB12_68:                              # %lor.lhs.false389
                                        #   in Loop: Header=BB12_63 Depth=1
	movq	$32, %rcx
	shlq	%cl, %rax
	movq	$32, %rcx
	sarq	%cl, %rax
	leaq	(%rax,%rax,4), %rax
	movsbq	insn_data+33(,%rax,8), %rax
	testq	%rax, %rax
	jle	.LBB12_70
.LBB12_69:                              # %if.then395
                                        #   in Loop: Header=BB12_63 Depth=1
	movq	-48(%rbp), %rax         # 8-byte Reload
	movq	(%rax), %rsi
	addq	$16, %rsi
	movq	$1, %rcx
	movq	%r12, %rdi
	callq	validate_change
	jmp	.LBB12_71
	.align	16, 0x90
.LBB12_70:                              # %if.else403
                                        #   in Loop: Header=BB12_63 Depth=1
	movq	-48(%rbp), %rax         # 8-byte Reload
	movq	(%rax), %rax
	movq	%rdx, 16(%rax)
.LBB12_71:                              # %if.end410
                                        #   in Loop: Header=BB12_63 Depth=1
	movq	-88(%rbp), %r13         # 8-byte Reload
	movl	(%rbx), %eax
	andq	$65534, %rax            # imm = 0xFFFE
	cmpq	$132, %rax
	movq	-80(%rbp), %r15         # 8-byte Reload
	jne	.LBB12_73
# BB#72:                                # %if.then420
                                        #   in Loop: Header=BB12_63 Depth=1
	movq	16(%rbx), %rdi
	leaq	16(%rbx), %r14
	movq	%r12, %rsi
	callq	canon_reg
	movq	$1, %rcx
	movq	%r12, %rdi
	movq	%r14, %rsi
	movq	%rax, %rdx
	callq	validate_change
	movq	24(%rbx), %rdi
	leaq	24(%rbx), %r14
	movq	%r12, %rsi
	callq	canon_reg
	movq	$1, %rcx
	movq	%r12, %rdi
	movq	%r14, %rsi
	movq	%rax, %rdx
	callq	validate_change
.LBB12_73:                              # %while.cond
                                        #   in Loop: Header=BB12_63 Depth=1
	movabsq	$4294967295, %rdx       # imm = 0xFFFFFFFF
	jmp	.LBB12_74
	.align	16, 0x90
.LBB12_77:                              # %while.body
                                        #   in Loop: Header=BB12_74 Depth=2
	movq	8(%rbx), %rbx
.LBB12_74:                              # %while.cond
                                        #   Parent Loop BB12_63 Depth=1
                                        # =>  This Inner Loop Header: Depth=2
	movzbl	(%rbx), %eax
	leaq	-63(%rax), %rcx
	andq	%rdx, %rcx
	cmpq	$2, %rcx
	jb	.LBB12_77
# BB#75:                                # %while.cond
                                        #   in Loop: Header=BB12_74 Depth=2
	cmpq	$66, %rax
	je	.LBB12_78
# BB#76:                                # %while.cond
                                        #   in Loop: Header=BB12_74 Depth=2
	addq	$-132, %rax
	andq	%rdx, %rax
	cmpq	$1, %rax
	jbe	.LBB12_77
	jmp	.LBB12_79
	.align	16, 0x90
.LBB12_78:                              # %if.then463
                                        #   in Loop: Header=BB12_63 Depth=1
	movq	%rbx, %rdi
	movq	%r12, %rsi
	movq	%rdx, %rbx
	callq	canon_reg
	movq	%rbx, %rdx
.LBB12_79:                              # %for.inc466
                                        #   in Loop: Header=BB12_63 Depth=1
	movq	%r12, %r14
	movq	-56(%rbp), %rcx         # 8-byte Reload
	incq	%rcx
	movq	%rcx, %rax
	andq	%rdx, %rax
	andq	%rdx, %r13
	cmpq	%r13, %rax
	jne	.LBB12_63
# BB#80:                                # %for.end468
	movq	%r13, -368(%rbp)        # 8-byte Spill
	callq	apply_change_group
	xorq	%rbx, %rbx
	xorq	%r13, %r13
	movq	$0, -376(%rbp)          # 8-byte Folded Spill
	movq	$0, -384(%rbp)          # 8-byte Folded Spill
	movq	$0, -360(%rbp)          # 8-byte Folded Spill
	movq	%r14, -96(%rbp)         # 8-byte Spill
	movabsq	$4294967295, %r9        # imm = 0xFFFFFFFF
	jmp	.LBB12_81
.LBB12_827:                             # %land.lhs.true2143
                                        #   in Loop: Header=BB12_81 Depth=1
	movq	8(%rax), %rdi
	movq	-48(%rbp), %rsi         # 8-byte Reload
	callq	rtx_equal_p
	movq	%r12, %r9
	testq	%r9, %rax
	je	.LBB12_831
# BB#828:                               # %if.then2149
                                        #   in Loop: Header=BB12_81 Depth=1
	testq	%rbx, %rbx
	jne	.LBB12_829
# BB#830:                               # %if.else2155
                                        #   in Loop: Header=BB12_81 Depth=1
	movq	-96(%rbp), %rbx         # 8-byte Reload
	movq	56(%rbx), %rcx
	movq	$4, %rdi
	movq	$5, %rsi
	movq	%r14, %rdx
	movq	%r9, %r14
	callq	gen_rtx_fmt_ue
	movq	%r14, %r9
	movq	%rax, 56(%rbx)
	jmp	.LBB12_831
.LBB12_720:                             # %if.then1875
                                        #   in Loop: Header=BB12_81 Depth=1
	andq	%r9, %r15
	cmpq	%r15, %r14
	jne	.LBB12_722
# BB#721:                               # %if.then1875
                                        #   in Loop: Header=BB12_81 Depth=1
	testq	%rax, %rax
	jne	.LBB12_731
.LBB12_722:                             # %cond.false1884
                                        #   in Loop: Header=BB12_81 Depth=1
	movq	$7, %rcx
	movq	%r14, %rbx
	shrq	%cl, %rbx
	xorq	%r14, %rbx
	andq	$127, %rbx
	movq	reg_hash(,%rbx,8), %rcx
	testq	%rcx, %rcx
	movq	%rcx, %rax
	je	.LBB12_723
.LBB12_726:                             # %for.body.i5937
                                        #   Parent Loop BB12_81 Depth=1
                                        # =>  This Inner Loop Header: Depth=2
	movl	16(%rax), %edx
	cmpq	%r14, %rdx
	je	.LBB12_730
# BB#725:                               # %for.cond.i5933
                                        #   in Loop: Header=BB12_726 Depth=2
	movq	(%rax), %rax
	testq	%rax, %rax
	jne	.LBB12_726
.LBB12_723:                             # %if.then4.i5939
                                        #   in Loop: Header=BB12_81 Depth=1
	movq	cse_reg_info_free_list(%rip), %rax
	testq	%rax, %rax
	jne	.LBB12_724
# BB#727:                               # %if.else.i5944
                                        #   in Loop: Header=BB12_81 Depth=1
	movq	%rdi, -56(%rbp)         # 8-byte Spill
	movq	$32, %rdi
	movq	%r9, %r15
	callq	xmalloc
	movq	-56(%rbp), %rdi         # 8-byte Reload
	movq	%r15, %r9
	movq	reg_hash(,%rbx,8), %rcx
	jmp	.LBB12_728
.LBB12_829:                             # %if.then2151
                                        #   in Loop: Header=BB12_81 Depth=1
	movq	%r14, 8(%rbx)
.LBB12_831:                             # %if.end2167
                                        #   in Loop: Header=BB12_81 Depth=1
	movq	-80(%rbp), %rax         # 8-byte Reload
.LBB12_832:                             # %if.end2167
                                        #   in Loop: Header=BB12_81 Depth=1
	movq	-48(%rbp), %r12         # 8-byte Reload
	movq	%r15, %rdi
	movq	%rax, %r15
	jmp	.LBB12_833
.LBB12_724:                             # %if.then5.i5941
                                        #   in Loop: Header=BB12_81 Depth=1
	movq	8(%rax), %rdx
	movq	%rdx, cse_reg_info_free_list(%rip)
.LBB12_728:                             # %if.end6.i5953
                                        #   in Loop: Header=BB12_81 Depth=1
	movq	%rcx, (%rax)
	movq	%rax, reg_hash(,%rbx,8)
	movq	$1, %rcx
	movl	%ecx, 24(%rax)
	movl	%r9d, 28(%rax)
	movl	%r14d, 20(%rax)
	movl	%r14d, 16(%rax)
	movq	cse_reg_info_used_list(%rip), %rcx
	movq	%rcx, 8(%rax)
	cmpq	$0, cse_reg_info_used_list_end(%rip)
	movq	%rax, cse_reg_info_used_list(%rip)
	jne	.LBB12_730
# BB#729:                               # %if.then11.i5954
                                        #   in Loop: Header=BB12_81 Depth=1
	movq	%rax, cse_reg_info_used_list_end(%rip)
.LBB12_730:                             # %get_cse_reg_info.exit5956
                                        #   in Loop: Header=BB12_81 Depth=1
	movl	%r14d, cached_regno(%rip)
	movq	%rax, cached_cse_reg_info(%rip)
	movslq	20(%rax), %rax
	movq	qty_table(%rip), %rdx
	leaq	(%rax,%rax,2), %rax
	movq	$4, %rcx
	shlq	%cl, %rax
	movl	28(%rdx,%rax), %esi
.LBB12_731:                             # %cond.end1889
                                        #   in Loop: Header=BB12_81 Depth=1
	movq	%r9, %r15
	movq	$32, %rcx
	movq	%rsi, %rax
	shlq	%cl, %rax
	movq	$32, %rcx
	sarq	%cl, %rax
	cmpq	$53, %rax
	movq	-80(%rbp), %r14         # 8-byte Reload
	jl	.LBB12_733
# BB#732:                               # %cond.true1897
                                        #   in Loop: Header=BB12_81 Depth=1
	movq	%rdi, %rbx
	movq	cfun(%rip), %rax
	movq	24(%rax), %rax
	movq	$32, %rcx
	movq	80(%rax), %rax
	shlq	%cl, %rsi
	movq	$32, %rcx
	sarq	%cl, %rsi
	movq	(%rax,%rsi,8), %rdx
	jmp	.LBB12_734
.LBB12_733:                             # %cond.false1900
                                        #   in Loop: Header=BB12_81 Depth=1
	movq	%rdi, %rax
	movzbl	2(%rax), %edi
	movq	%rax, %rbx
	callq	gen_rtx_REG
	movq	%rax, %rdx
.LBB12_734:                             # %cond.end1905
                                        #   in Loop: Header=BB12_81 Depth=1
	movq	%rdx, -56(%rbp)         # 8-byte Spill
	movq	-136(%rbp), %rax        # 8-byte Reload
	movq	(%rax), %rsi
	addq	$16, %rsi
	xorq	%rcx, %rcx
	movq	-96(%rbp), %rdi         # 8-byte Reload
	callq	validate_change
	movq	%r15, %r9
	andq	%r9, %rax
	je	.LBB12_736
# BB#735:                               # %cond.end1905
                                        #   in Loop: Header=BB12_81 Depth=1
	movq	-56(%rbp), %rbx         # 8-byte Reload
.LBB12_736:                             # %cond.end1905
                                        #   in Loop: Header=BB12_81 Depth=1
	testq	%rax, %rax
	movq	-200(%rbp), %rcx        # 8-byte Reload
	movq	%r14, %r15
	je	.LBB12_737
# BB#738:                               # %cond.end1905
                                        #   in Loop: Header=BB12_81 Depth=1
	movq	-240(%rbp), %rax        # 8-byte Reload
	xorq	$1, %rax
	movq	%rbx, %rdi
	jne	.LBB12_761
# BB#739:                               # %land.lhs.true1917
                                        #   in Loop: Header=BB12_81 Depth=1
	movq	-248(%rbp), %rax        # 8-byte Reload
	movl	(%rax), %eax
	movq	%rax, %rcx
	andq	$65535, %rcx            # imm = 0xFFFF
	xorq	%r13, %r13
	cmpq	$61, %rcx
	movabsq	$0, %rbx
	je	.LBB12_747
# BB#740:                               # %land.lhs.true1917
                                        #   in Loop: Header=BB12_81 Depth=1
	cmpq	$63, %rcx
	jne	.LBB12_746
# BB#741:                               # %land.lhs.true.i5965
                                        #   in Loop: Header=BB12_81 Depth=1
	movq	-248(%rbp), %rcx        # 8-byte Reload
	movq	8(%rcx), %rcx
	movl	(%rcx), %edx
	movq	%rdx, %rcx
	andq	$65535, %rcx            # imm = 0xFFFF
	cmpq	$61, %rcx
	jne	.LBB12_746
# BB#742:                               # %land.lhs.true4.i5971
                                        #   in Loop: Header=BB12_81 Depth=1
	movq	$16, %rcx
	shrq	%cl, %rax
	andq	$255, %rax
	movl	mode_class(,%rax,4), %ecx
	cmpq	$1, %rcx
	jne	.LBB12_746
# BB#743:                               # %land.lhs.true9.i5977
                                        #   in Loop: Header=BB12_81 Depth=1
	movq	$16, %rcx
	shrq	%cl, %rdx
	andq	$255, %rdx
	movl	mode_class(,%rdx,4), %ecx
	cmpq	$1, %rcx
	jne	.LBB12_746
# BB#744:                               # %land.lhs.true19.i5981
                                        #   in Loop: Header=BB12_81 Depth=1
	movzbl	mode_size(%rax), %eax
	movzbl	mode_size(%rdx), %ecx
	cmpq	%rcx, %rax
	jae	.LBB12_746
# BB#745:                               # %land.lhs.true36.i5984
                                        #   in Loop: Header=BB12_81 Depth=1
	movq	-248(%rbp), %rdi        # 8-byte Reload
	movq	%r9, %rbx
	callq	subreg_lowpart_p
	movq	%rbx, %r9
	testq	%r9, %rax
	movabsq	$0, %rbx
	jne	.LBB12_747
.LBB12_746:                             # %cond.false.i5987
                                        #   in Loop: Header=BB12_81 Depth=1
	movq	$47, %rsi
	movq	-248(%rbp), %rdi        # 8-byte Reload
	movq	%r9, %rbx
	callq	rtx_cost
	movq	%rbx, %r9
	movq	%rax, %rbx
	addq	%rbx, %rbx
.LBB12_747:                             # %cond.end1925
                                        #   in Loop: Header=BB12_81 Depth=1
	movq	%r9, %r12
	movq	-56(%rbp), %rdi         # 8-byte Reload
	movl	(%rdi), %eax
	movq	%rax, %rcx
	andq	$65535, %rcx            # imm = 0xFFFF
	cmpq	$61, %rcx
	je	.LBB12_755
# BB#748:                               # %cond.end1925
                                        #   in Loop: Header=BB12_81 Depth=1
	cmpq	$63, %rcx
	jne	.LBB12_754
# BB#749:                               # %land.lhs.true.i5998
                                        #   in Loop: Header=BB12_81 Depth=1
	movq	8(%rdi), %rcx
	movl	(%rcx), %edx
	movq	%rdx, %rcx
	andq	$65535, %rcx            # imm = 0xFFFF
	cmpq	$61, %rcx
	jne	.LBB12_754
# BB#750:                               # %land.lhs.true4.i6004
                                        #   in Loop: Header=BB12_81 Depth=1
	movq	$16, %rcx
	shrq	%cl, %rax
	andq	$255, %rax
	movl	mode_class(,%rax,4), %ecx
	cmpq	$1, %rcx
	jne	.LBB12_754
# BB#751:                               # %land.lhs.true9.i6010
                                        #   in Loop: Header=BB12_81 Depth=1
	movq	$16, %rcx
	shrq	%cl, %rdx
	andq	$255, %rdx
	movl	mode_class(,%rdx,4), %ecx
	cmpq	$1, %rcx
	jne	.LBB12_754
# BB#752:                               # %land.lhs.true19.i6014
                                        #   in Loop: Header=BB12_81 Depth=1
	movzbl	mode_size(%rax), %eax
	movzbl	mode_size(%rdx), %ecx
	cmpq	%rcx, %rax
	jae	.LBB12_754
# BB#753:                               # %land.lhs.true36.i6017
                                        #   in Loop: Header=BB12_81 Depth=1
	movq	%rdi, %r14
	callq	subreg_lowpart_p
	movq	%r14, %rdi
	testq	%r12, %rax
	jne	.LBB12_755
.LBB12_754:                             # %cond.false.i6020
                                        #   in Loop: Header=BB12_81 Depth=1
	movq	$47, %rsi
	movq	%rdi, %r14
	callq	rtx_cost
	movq	%r14, %rdi
	movq	%rax, %r13
	addq	%r13, %r13
.LBB12_755:                             # %cond.end1934
                                        #   in Loop: Header=BB12_81 Depth=1
	movq	$32, %rcx
	shlq	%cl, %r13
	movq	$32, %rcx
	sarq	%cl, %r13
	movq	$32, %rcx
	shlq	%cl, %rbx
	movq	$32, %rcx
	sarq	%cl, %rbx
	cmpq	%r13, %rbx
	jge	.LBB12_756
# BB#757:                               # %land.lhs.true1938
                                        #   in Loop: Header=BB12_81 Depth=1
	movq	%rdi, %rbx
	movq	-136(%rbp), %rax        # 8-byte Reload
	movq	(%rax), %rsi
	addq	$16, %rsi
	xorq	%rcx, %rcx
	movq	-96(%rbp), %rdi         # 8-byte Reload
	movq	-248(%rbp), %rdx        # 8-byte Reload
	callq	validate_change
	movq	%r12, %r9
	testq	%r9, %rax
	movq	-312(%rbp), %r13        # 8-byte Reload
	je	.LBB12_759
# BB#758:                               # %land.lhs.true1938
                                        #   in Loop: Header=BB12_81 Depth=1
	movq	-248(%rbp), %rbx        # 8-byte Reload
.LBB12_759:                             # %land.lhs.true1938
                                        #   in Loop: Header=BB12_81 Depth=1
	movq	%rbx, %rdi
	movq	-48(%rbp), %r12         # 8-byte Reload
	jmp	.LBB12_760
.LBB12_737:                             #   in Loop: Header=BB12_81 Depth=1
	movq	%rbx, %rdi
	jmp	.LBB12_761
.LBB12_756:                             #   in Loop: Header=BB12_81 Depth=1
	movq	%r12, %r9
	movq	-48(%rbp), %r12         # 8-byte Reload
	jmp	.LBB12_660
.LBB12_368:                             #   in Loop: Header=BB12_81 Depth=1
	movq	%r15, %rdx
	movq	-72(%rbp), %rcx         # 8-byte Reload
	movq	%rax, %r14
	movq	%r12, %r8
	jmp	.LBB12_334
.LBB12_370:                             #   in Loop: Header=BB12_81 Depth=1
	movq	%r9, %rdx
	movq	-72(%rbp), %rcx         # 8-byte Reload
	movq	%rax, %r14
	jmp	.LBB12_334
.LBB12_415:                             #   in Loop: Header=BB12_81 Depth=1
	movq	%rax, %r14
	movq	-48(%rbp), %r12         # 8-byte Reload
	jmp	.LBB12_424
.LBB12_420:                             #   in Loop: Header=BB12_81 Depth=1
	movq	%r15, %r14
	movq	-48(%rbp), %r12         # 8-byte Reload
	jmp	.LBB12_424
	.align	16, 0x90
.LBB12_81:                              # %for.body473
                                        # =>This Loop Header: Depth=1
                                        #     Child Loop BB12_95 Depth 2
                                        #     Child Loop BB12_104 Depth 2
                                        #     Child Loop BB12_125 Depth 2
                                        #     Child Loop BB12_139 Depth 2
                                        #     Child Loop BB12_161 Depth 2
                                        #     Child Loop BB12_172 Depth 2
                                        #     Child Loop BB12_190 Depth 2
                                        #     Child Loop BB12_222 Depth 2
                                        #     Child Loop BB12_230 Depth 2
                                        #     Child Loop BB12_268 Depth 2
                                        #     Child Loop BB12_279 Depth 2
                                        #       Child Loop BB12_282 Depth 3
                                        #     Child Loop BB12_299 Depth 2
                                        #     Child Loop BB12_307 Depth 2
                                        #     Child Loop BB12_338 Depth 2
                                        #       Child Loop BB12_346 Depth 3
                                        #       Child Loop BB12_354 Depth 3
                                        #       Child Loop BB12_364 Depth 3
                                        #     Child Loop BB12_381 Depth 2
                                        #       Child Loop BB12_393 Depth 3
                                        #       Child Loop BB12_401 Depth 3
                                        #       Child Loop BB12_412 Depth 3
                                        #     Child Loop BB12_430 Depth 2
                                        #     Child Loop BB12_520 Depth 2
                                        #     Child Loop BB12_692 Depth 2
                                        #     Child Loop BB12_705 Depth 2
                                        #     Child Loop BB12_726 Depth 2
                                        #     Child Loop BB12_770 Depth 2
                                        #     Child Loop BB12_778 Depth 2
                                        #     Child Loop BB12_802 Depth 2
                                        #     Child Loop BB12_815 Depth 2
                                        #     Child Loop BB12_834 Depth 2
                                        #     Child Loop BB12_851 Depth 2
                                        #     Child Loop BB12_903 Depth 2
	leaq	(%rbx,%rbx,4), %rax
	movq	%rax, -216(%rbp)        # 8-byte Spill
	movq	$4, %rcx
	shlq	%cl, %rax
	movq	%rax, -136(%rbp)        # 8-byte Spill
	movq	(%r15,%rax), %rax
	movq	16(%rax), %rcx
	movq	%rcx, -64(%rbp)         # 8-byte Spill
	movl	(%rcx), %edx
	movq	8(%rax), %rax
	testq	$16711680, %rdx         # imm = 0xFF0000
	jne	.LBB12_83
# BB#82:                                # %cond.true493
                                        #   in Loop: Header=BB12_81 Depth=1
	movl	(%rax), %edx
.LBB12_83:                              # %cond.end501
                                        #   in Loop: Header=BB12_81 Depth=1
	movq	%rax, -48(%rbp)         # 8-byte Spill
	movq	$16, %rcx
	shrq	%cl, %rdx
	andq	$255, %rdx
	movq	$4, %rcx
	movq	-216(%rbp), %rax        # 8-byte Reload
	shlq	%cl, %rax
	movq	%rdx, %rcx
	movl	%ecx, 44(%r15,%rax)
	movq	-288(%rbp), %r12        # 8-byte Reload
	testq	%r12, %r12
	jne	.LBB12_85
# BB#84:                                #   in Loop: Header=BB12_81 Depth=1
	movq	%rbx, -296(%rbp)        # 8-byte Spill
	movq	%r13, -224(%rbp)        # 8-byte Spill
	movq	%r12, %rdx
	jmp	.LBB12_115
.LBB12_85:                              # %if.then507
                                        #   in Loop: Header=BB12_81 Depth=1
	movq	%rbx, -296(%rbp)        # 8-byte Spill
	movq	-48(%rbp), %rax         # 8-byte Reload
	movzbl	(%rax), %eax
	cmpq	$64, %rax
	movq	%rcx, %r15
	jne	.LBB12_87
# BB#86:                                # %if.then512
                                        #   in Loop: Header=BB12_81 Depth=1
	movq	-48(%rbp), %rax         # 8-byte Reload
	movq	8(%rax), %rax
	movq	8(%rax), %rax
	movzbl	2(%rax), %r15d
.LBB12_87:                              # %if.end522
                                        #   in Loop: Header=BB12_81 Depth=1
	movq	%r9, %rbx
	xorq	%rax, %rax
	movb	%al, do_not_record(%rip)
	movb	%al, hash_arg_in_memory(%rip)
	movzbl	(%r12), %eax
	cmpq	$61, %rax
	jne	.LBB12_101
# BB#88:                                # %land.lhs.true527
                                        #   in Loop: Header=BB12_81 Depth=1
	movl	8(%r12), %r14d
	cmpq	$53, %r14
	jb	.LBB12_101
# BB#89:                                # %cond.true533
                                        #   in Loop: Header=BB12_81 Depth=1
	movl	cached_regno(%rip), %eax
	cmpq	%rax, %r14
	movq	%rbx, %r9
	jne	.LBB12_91
# BB#90:                                # %cond.true533
                                        #   in Loop: Header=BB12_81 Depth=1
	movq	cached_cse_reg_info(%rip), %rax
	testq	%rax, %rax
	jne	.LBB12_100
.LBB12_91:                              # %cond.false542
                                        #   in Loop: Header=BB12_81 Depth=1
	movq	%rcx, -200(%rbp)        # 8-byte Spill
	movq	$7, %rcx
	movq	%r14, %rbx
	shrq	%cl, %rbx
	xorq	%r14, %rbx
	andq	$127, %rbx
	movq	reg_hash(,%rbx,8), %rcx
	testq	%rcx, %rcx
	movq	%rcx, %rax
	je	.LBB12_92
.LBB12_95:                              # %for.body.i
                                        #   Parent Loop BB12_81 Depth=1
                                        # =>  This Inner Loop Header: Depth=2
	movl	16(%rax), %edx
	cmpq	%r14, %rdx
	je	.LBB12_99
# BB#94:                                # %for.cond.i
                                        #   in Loop: Header=BB12_95 Depth=2
	movq	(%rax), %rax
	testq	%rax, %rax
	jne	.LBB12_95
.LBB12_92:                              # %if.then4.i
                                        #   in Loop: Header=BB12_81 Depth=1
	movq	cse_reg_info_free_list(%rip), %rax
	testq	%rax, %rax
	jne	.LBB12_93
# BB#96:                                # %if.else.i
                                        #   in Loop: Header=BB12_81 Depth=1
	movq	$32, %rdi
	movq	%r13, -224(%rbp)        # 8-byte Spill
	movq	%r12, %r13
	movq	%r9, %r12
	callq	xmalloc
	movq	%r12, %r9
	movq	%r13, %r12
	movq	-224(%rbp), %r13        # 8-byte Reload
	movq	reg_hash(,%rbx,8), %rcx
	jmp	.LBB12_97
.LBB12_101:                             # %cond.false549
                                        #   in Loop: Header=BB12_81 Depth=1
	movq	%rcx, -200(%rbp)        # 8-byte Spill
	movq	%r12, %rdi
	movq	%r15, %rsi
	callq	canon_hash
	movq	%rbx, %r9
	jmp	.LBB12_102
.LBB12_93:                              # %if.then5.i
                                        #   in Loop: Header=BB12_81 Depth=1
	movq	8(%rax), %rdx
	movq	%rdx, cse_reg_info_free_list(%rip)
.LBB12_97:                              # %if.end6.i
                                        #   in Loop: Header=BB12_81 Depth=1
	movq	%rcx, (%rax)
	movq	%rax, reg_hash(,%rbx,8)
	movq	$1, %rcx
	movl	%ecx, 24(%rax)
	movl	%r9d, 28(%rax)
	movl	%r14d, 20(%rax)
	movl	%r14d, 16(%rax)
	movq	cse_reg_info_used_list(%rip), %rcx
	movq	%rcx, 8(%rax)
	cmpq	$0, cse_reg_info_used_list_end(%rip)
	movq	%rax, cse_reg_info_used_list(%rip)
	jne	.LBB12_99
# BB#98:                                # %if.then11.i
                                        #   in Loop: Header=BB12_81 Depth=1
	movq	%rax, cse_reg_info_used_list_end(%rip)
.LBB12_99:                              # %get_cse_reg_info.exit
                                        #   in Loop: Header=BB12_81 Depth=1
	movq	-200(%rbp), %rcx        # 8-byte Reload
	movl	%r14d, cached_regno(%rip)
	movq	%rax, cached_cse_reg_info(%rip)
.LBB12_100:                             # %cond.end547
                                        #   in Loop: Header=BB12_81 Depth=1
	movq	%rcx, -200(%rbp)        # 8-byte Spill
	movl	20(%rax), %eax
	addq	$7808, %rax             # imm = 0x1E80
.LBB12_102:                             # %cond.end551
                                        #   in Loop: Header=BB12_81 Depth=1
	movzbl	do_not_record(%rip), %ecx
	andq	$31, %rax
	movq	%rax, -360(%rbp)        # 8-byte Spill
	movq	$1, %rax
	testq	%rcx, %rcx
	jne	.LBB12_114
# BB#103:                               # %if.then554
                                        #   in Loop: Header=BB12_81 Depth=1
	movq	-360(%rbp), %rax        # 8-byte Reload
	andq	%r9, %rax
	movq	table(,%rax,8), %rbx
	xorq	%rax, %rax
	testq	%rbx, %rbx
	movabsq	$0, %r13
	je	.LBB12_114
	.align	16, 0x90
.LBB12_104:                             # %for.body.i5134
                                        #   Parent Loop BB12_81 Depth=1
                                        # =>  This Inner Loop Header: Depth=2
	movl	72(%rbx), %eax
	cmpq	%r15, %rax
	jne	.LBB12_112
# BB#105:                               # %land.lhs.true.i
                                        #   in Loop: Header=BB12_104 Depth=2
	movq	(%rbx), %rsi
	movzbl	(%r12), %eax
	cmpq	%r12, %rsi
	jne	.LBB12_108
# BB#106:                               # %land.lhs.true.i
                                        #   in Loop: Header=BB12_104 Depth=2
	cmpq	$61, %rax
	je	.LBB12_107
.LBB12_108:                             # %lor.lhs.false.i
                                        #   in Loop: Header=BB12_104 Depth=2
	movq	%r9, %r14
	cmpq	$61, %rax
	movabsq	$0, %rdx
	je	.LBB12_110
# BB#109:                               # %lor.lhs.false.i
                                        #   in Loop: Header=BB12_104 Depth=2
	movabsq	$1, %rdx
.LBB12_110:                             # %lor.lhs.false.i
                                        #   in Loop: Header=BB12_104 Depth=2
	movq	%r12, %rdi
	callq	exp_equiv_p
	movq	%r14, %r9
	testq	%r9, %rax
	jne	.LBB12_111
.LBB12_112:                             # %for.inc.i
                                        #   in Loop: Header=BB12_104 Depth=2
	movq	16(%rbx), %rbx
	xorq	%r13, %r13
	testq	%rbx, %rbx
	jne	.LBB12_104
	jmp	.LBB12_113
.LBB12_107:                             #   in Loop: Header=BB12_81 Depth=1
	movq	%rbx, %r13
	jmp	.LBB12_113
.LBB12_111:                             #   in Loop: Header=BB12_81 Depth=1
	movq	%rbx, %r13
.LBB12_113:                             # %if.end556.loopexit
                                        #   in Loop: Header=BB12_81 Depth=1
	movzbl	do_not_record(%rip), %eax
.LBB12_114:                             # %if.end556
                                        #   in Loop: Header=BB12_81 Depth=1
	movq	%r13, -224(%rbp)        # 8-byte Spill
	movq	%r12, %rdx
	movq	%rax, %rcx
	movzbl	hash_arg_in_memory(%rip), %eax
	movq	%rax, -384(%rbp)        # 8-byte Spill
	andq	$1, %rcx
	movq	%rcx, -376(%rbp)        # 8-byte Spill
	movq	-80(%rbp), %r15         # 8-byte Reload
	movq	-200(%rbp), %rcx        # 8-byte Reload
.LBB12_115:                             # %if.end557
                                        #   in Loop: Header=BB12_81 Depth=1
	movq	%rcx, -200(%rbp)        # 8-byte Spill
	movq	%r9, %r12
	movq	-48(%rbp), %rax         # 8-byte Reload
	movzbl	(%rax), %eax
	xorq	%rbx, %rbx
	cmpq	$64, %rax
	movabsq	$0, %rax
	je	.LBB12_117
# BB#116:                               # %if.end557
                                        #   in Loop: Header=BB12_81 Depth=1
	movq	%rdx, %rax
.LBB12_117:                             # %if.end557
                                        #   in Loop: Header=BB12_81 Depth=1
	movq	%rax, -56(%rbp)         # 8-byte Spill
	addq	%r15, -136(%rbp)        # 8-byte Folded Spill
	movq	-64(%rbp), %r14         # 8-byte Reload
	movq	%r14, %rdi
	movq	-96(%rbp), %rsi         # 8-byte Reload
	callq	fold_rtx
	movq	$4, %rcx
	movq	-216(%rbp), %rdx        # 8-byte Reload
	shlq	%cl, %rdx
	movb	%bl, do_not_record(%rip)
	movb	%bl, hash_arg_in_memory(%rip)
	movq	%r14, 8(%r15,%rdx)
	movzbl	(%r14), %ecx
	movq	%rax, -104(%rbp)        # 8-byte Spill
	leaq	8(%r15,%rdx), %rax
	movq	%rax, -312(%rbp)        # 8-byte Spill
	cmpq	$61, %rcx
	jne	.LBB12_131
# BB#118:                               # %land.lhs.true573
                                        #   in Loop: Header=BB12_81 Depth=1
	movl	8(%r14), %r13d
	cmpq	$53, %r13
	jb	.LBB12_131
# BB#119:                               # %cond.true579
                                        #   in Loop: Header=BB12_81 Depth=1
	movl	cached_regno(%rip), %eax
	cmpq	%rax, %r13
	movq	%r12, %r8
	jne	.LBB12_121
# BB#120:                               # %cond.true579
                                        #   in Loop: Header=BB12_81 Depth=1
	movq	cached_cse_reg_info(%rip), %rax
	testq	%rax, %rax
	jne	.LBB12_130
.LBB12_121:                             # %cond.false588
                                        #   in Loop: Header=BB12_81 Depth=1
