	.file	"fold-const.c.bc"
	.text
	.globl	force_fit_type
	.align	16, 0x90
	.type	force_fit_type,@function
force_fit_type:                         # @force_fit_type
	.cfi_startproc
# BB#0:                                 # %entry
	pushq	%rbx
.Ltmp2:
	.cfi_def_cfa_offset 16
.Ltmp3:
	.cfi_offset %rbx, -16
	movzbl	16(%rdi), %eax
	cmpq	$25, %rax
	jne	.LBB0_23
# BB#1:                                 # %if.end7
	movq	8(%rdi), %r11
	movl	16(%r11), %eax
	movq	32(%rdi), %r9
	movq	40(%rdi), %r8
	orq	$2, %rax
	andq	$255, %rax
	cmpq	$15, %rax
	jne	.LBB0_3
# BB#2:                                 # %if.then26
	movl	target_flags(%rip), %eax
	movq	$20, %rcx
	shrq	%cl, %rax
	andq	$32, %rax
	addq	$32, %rax
	jmp	.LBB0_4
.LBB0_3:                                # %if.else27
	movl	60(%r11), %eax
	andq	$511, %rax              # imm = 0x1FF
.LBB0_4:                                # %if.end33
	movabsq	$4294967295, %rbx       # imm = 0xFFFFFFFF
	andq	%rax, %rbx
	cmpq	$128, %rbx
	movq	%r8, %rdx
	movq	%r9, %r10
	je	.LBB0_10
# BB#5:                                 # %if.else36
	cmpq	$65, %rbx
	jb	.LBB0_7
# BB#6:                                 # %if.then38
	leaq	-64(%rax), %rcx
	movq	$-1, %rdx
	shlq	%cl, %rdx
	notq	%rdx
	andq	%r8, %rdx
	movq	%rdx, 40(%rdi)
	movq	%r9, %r10
	jmp	.LBB0_10
.LBB0_7:                                # %if.else43
	movq	$0, 40(%rdi)
	xorq	%rdx, %rdx
	cmpq	$63, %rbx
	ja	.LBB0_8
# BB#9:                                 # %if.then48
	movq	$-1, %r10
	movq	%rax, %rcx
	shlq	%cl, %r10
	notq	%r10
	andq	%r9, %r10
	movq	%r10, 32(%rdi)
	jmp	.LBB0_10
.LBB0_8:
	movq	%r9, %r10
.LBB0_10:                               # %if.end58
	movl	16(%r11), %ecx
	testq	$8192, %rcx             # imm = 0x2000
	je	.LBB0_13
# BB#11:                                # %land.lhs.true
	andq	$255, %rcx
	cmpq	$6, %rcx
	jne	.LBB0_23
# BB#12:                                # %land.lhs.true72
	movzbl	62(%r11), %ecx
	testq	$2, %rcx
	je	.LBB0_23
.LBB0_13:                               # %if.end81
	cmpq	$128, %rbx
	je	.LBB0_20
# BB#14:                                # %land.lhs.true83
	cmpq	$65, %rbx
	jb	.LBB0_17
# BB#15:                                # %cond.true
	leaq	-65(%rax), %rcx
	movq	$1, %rbx
	shlq	%cl, %rbx
	testq	%rbx, %rdx
	je	.LBB0_20
# BB#16:                                # %if.then104
	addq	$-64, %rax
	movq	$-1, %rbx
	movq	%rax, %rcx
	shlq	%cl, %rbx
	orq	%rbx, %rdx
	movq	%rdx, 40(%rdi)
	jmp	.LBB0_20
.LBB0_17:                               # %cond.false
	leaq	-1(%rax), %rcx
	movq	$1, %r11
	shlq	%cl, %r11
	testq	%r11, %r10
	je	.LBB0_20
# BB#18:                                # %if.else111
	movq	$-1, 40(%rdi)
	movq	$-1, %rdx
	cmpq	$63, %rbx
	ja	.LBB0_20
# BB#19:                                # %if.then116
	movq	$-1, %rdx
	movq	$-1, %rbx
	movq	%rax, %rcx
	shlq	%cl, %rbx
	orq	%rbx, %r10
	movq	%r10, 32(%rdi)
.LBB0_20:                               # %if.end125
	movq	$32, %rcx
	shlq	%cl, %rsi
	movq	$32, %rcx
	sarq	%cl, %rsi
	xorq	%r9, %r10
	orq	%rsi, %r10
	xorq	%r8, %rdx
	orq	%r10, %rdx
	je	.LBB0_21
# BB#22:                                # %if.end125
	movabsq	$1, %rsi
	jmp	.LBB0_23
.LBB0_21:
	movabsq	$0, %rsi
.LBB0_23:                               # %return
	movq	%rsi, %rax
	popq	%rbx
	retq
.Ltmp4:
	.size	force_fit_type, .Ltmp4-force_fit_type
	.cfi_endproc

	.globl	add_double
	.align	16, 0x90
	.type	add_double,@function
add_double:                             # @add_double
	.cfi_startproc
# BB#0:                                 # %entry
	addq	%rdx, %rdi
	sbbq	%rdx, %rdx
	leaq	(%rcx,%rsi), %rax
	subq	%rdx, %rax
	movq	%rdi, (%r8)
	movq	%rax, (%r9)
	xorq	%rsi, %rcx
	notq	%rcx
	xorq	%rsi, %rax
	andq	%rcx, %rax
	movq	$63, %rcx
	shrq	%cl, %rax
	retq
.Ltmp5:
	.size	add_double, .Ltmp5-add_double
	.cfi_endproc

	.globl	neg_double
	.align	16, 0x90
	.type	neg_double,@function
neg_double:                             # @neg_double
	.cfi_startproc
# BB#0:                                 # %entry
	testq	%rdi, %rdi
	je	.LBB2_1
# BB#2:                                 # %if.else
	negq	%rdi
	movq	%rdi, (%rdx)
	notq	%rsi
	movq	%rsi, (%rcx)
	xorq	%rax, %rax
	retq
.LBB2_1:                                # %if.then
	movq	$0, (%rdx)
	movq	%rsi, %rax
	negq	%rax
	movq	%rax, (%rcx)
	andq	%rsi, %rax
	movq	$63, %rcx
	shrq	%cl, %rax
	retq
.Ltmp6:
	.size	neg_double, .Ltmp6-neg_double
	.cfi_endproc

	.globl	mul_double
	.align	16, 0x90
	.type	mul_double,@function
mul_double:                             # @mul_double
	.cfi_startproc
# BB#0:                                 # %entry
	pushq	%r15
.Ltmp13:
	.cfi_def_cfa_offset 16
	pushq	%r14
.Ltmp14:
	.cfi_def_cfa_offset 24
	pushq	%r13
.Ltmp15:
	.cfi_def_cfa_offset 32
	pushq	%r12
.Ltmp16:
	.cfi_def_cfa_offset 40
	pushq	%rbx
.Ltmp17:
	.cfi_def_cfa_offset 48
.Ltmp18:
	.cfi_offset %rbx, -48
.Ltmp19:
	.cfi_offset %r12, -40
.Ltmp20:
	.cfi_offset %r13, -32
.Ltmp21:
	.cfi_offset %r14, -24
.Ltmp22:
	.cfi_offset %r15, -16
	movq	%r9, -120(%rsp)         # 8-byte Spill
	movq	%r8, -128(%rsp)         # 8-byte Spill
	movq	%rcx, %rax
	movq	%rax, -112(%rsp)        # 8-byte Spill
	movq	%rdi, -104(%rsp)        # 8-byte Spill
	movabsq	$4294967295, %r11       # imm = 0xFFFFFFFF
	movq	%rdi, %r9
	andq	%r11, %r9
	movq	%r9, -32(%rsp)
	movq	$32, %rcx
	movq	%rdi, %rbx
	shrq	%cl, %rbx
	movq	%rbx, -24(%rsp)
	movq	%rsi, %rcx
	andq	%r11, %rcx
	movq	%rcx, -16(%rsp)
	movq	$32, %rcx
	movq	%rsi, %rbx
	shrq	%cl, %rbx
	movq	%rbx, -8(%rsp)
	movq	%rdx, %r8
	andq	%r11, %r8
	movq	$32, %rcx
	movq	%rdx, %r15
	shrq	%cl, %r15
	movq	%rax, %r12
	andq	%r11, %r12
	movq	$32, %rcx
	movq	%rax, %r13
	shrq	%cl, %r13
	movq	$0, -40(%rsp)
	movq	$0, -48(%rsp)
	movq	$0, -56(%rsp)
	movq	$0, -64(%rsp)
	movq	$0, -72(%rsp)
	movq	$0, -80(%rsp)
	movq	$0, -88(%rsp)
	movq	$0, -96(%rsp)
	xorq	%rcx, %rcx
	xorq	%rbx, %rbx
	jmp	.LBB3_1
	.align	16, 0x90
.LBB3_2:                                # %for.cond3.preheader.for.cond3.preheader_crit_edge
                                        #   in Loop: Header=BB3_1 Depth=1
	movq	-24(%rsp,%rbx,8), %r9
	movq	-88(%rsp,%rbx,8), %rcx
	leaq	1(%rbx), %rbx
.LBB3_1:                                # %for.cond3.preheader
                                        # =>This Inner Loop Header: Depth=1
	movq	%r8, %r14
	imulq	%r9, %r14
	addq	%rcx, %r14
	movq	%r14, %rcx
	andq	%r11, %rcx
	movq	%rcx, -96(%rsp,%rbx,8)
	movq	$32, %rcx
	shrq	%cl, %r14
	movq	%r15, %rcx
	imulq	%r9, %rcx
	movq	-88(%rsp,%rbx,8), %r10
	addq	%r14, %rcx
	addq	%rcx, %r10
	movq	%r10, %rcx
	andq	%r11, %rcx
	movq	%rcx, -88(%rsp,%rbx,8)
	movq	$32, %rcx
	shrq	%cl, %r10
	movq	%r12, %rcx
	imulq	%r9, %rcx
	movq	-80(%rsp,%rbx,8), %rax
	addq	%r10, %rcx
	addq	%rcx, %rax
	movq	%rax, %rcx
	andq	%r11, %rcx
	movq	%rcx, -80(%rsp,%rbx,8)
	movq	$32, %rcx
	shrq	%cl, %rax
	imulq	%r13, %r9
	movq	-72(%rsp,%rbx,8), %rdi
	addq	%rax, %r9
	addq	%r9, %rdi
	movq	%rdi, %rax
	andq	%r11, %rax
	movq	$32, %rcx
	shrq	%cl, %rdi
	cmpq	$3, %rbx
	movq	%rax, -72(%rsp,%rbx,8)
	movq	%rdi, -64(%rsp,%rbx,8)
	jne	.LBB3_2
# BB#3:                                 # %for.end19
	movq	-88(%rsp), %rax
	movq	-96(%rsp), %rdi
	movq	$32, %rcx
	shlq	%cl, %rax
	addq	%rdi, %rax
	movq	-128(%rsp), %rcx        # 8-byte Reload
	movq	%rax, (%rcx)
	movq	-72(%rsp), %r8
	movq	-80(%rsp), %rax
	movq	$32, %rcx
	shlq	%cl, %r8
	addq	%rax, %r8
	movq	-120(%rsp), %rax        # 8-byte Reload
	movq	%r8, (%rax)
	movq	-64(%rsp), %rdi
	movq	-56(%rsp), %r9
	movq	$32, %rcx
	shlq	%cl, %r9
	movq	-40(%rsp), %rax
	movq	-48(%rsp), %rbx
	addq	%rdi, %r9
	movq	$32, %rcx
	shlq	%cl, %rax
	addq	%rbx, %rax
	testq	%rsi, %rsi
	movq	-112(%rsp), %rbx        # 8-byte Reload
	js	.LBB3_5
# BB#4:
	movq	-104(%rsp), %rdi        # 8-byte Reload
	jmp	.LBB3_9
.LBB3_5:                                # %if.then
	testq	%rdx, %rdx
	je	.LBB3_6
# BB#7:                                 # %if.else.i73
	negq	%rdx
	movq	%rbx, %rcx
	notq	%rcx
	jmp	.LBB3_8
.LBB3_6:                                # %if.then.i70
	movq	%rbx, %rcx
	negq	%rcx
	xorq	%rdx, %rdx
.LBB3_8:                                # %neg_double.exit75
	movq	-104(%rsp), %rdi        # 8-byte Reload
	addq	%rdx, %r9
	sbbq	%rdx, %rdx
	addq	%rax, %rcx
	subq	%rdx, %rcx
	movq	%rcx, %rax
.LBB3_9:                                # %if.end
	testq	%rbx, %rbx
	jns	.LBB3_14
# BB#10:                                # %if.then25
	testq	%rdi, %rdi
	je	.LBB3_11
# BB#12:                                # %if.else.i
	negq	%rdi
	notq	%rsi
	jmp	.LBB3_13
.LBB3_11:                               # %if.then.i
	negq	%rsi
	xorq	%rdi, %rdi
.LBB3_13:                               # %neg_double.exit
	addq	%rdi, %r9
	sbbq	%rcx, %rcx
	addq	%rax, %rsi
	subq	%rcx, %rsi
	movq	%rsi, %rax
.LBB3_14:                               # %if.end28
	testq	%r8, %r8
	js	.LBB3_15
# BB#16:                                # %cond.false
	orq	%r9, %rax
	jmp	.LBB3_17
.LBB3_15:                               # %cond.true
	andq	%r9, %rax
	notq	%rax
.LBB3_17:                               # %cond.end
	testq	%rax, %rax
	je	.LBB3_18
# BB#19:                                # %cond.end
	movabsq	$1, %rax
	jmp	.LBB3_20
.LBB3_18:
	movabsq	$0, %rax
.LBB3_20:                               # %cond.end
	popq	%rbx
	popq	%r12
	popq	%r13
	popq	%r14
	popq	%r15
	retq
.Ltmp23:
	.size	mul_double, .Ltmp23-mul_double
	.cfi_endproc

	.globl	lshift_double
	.align	16, 0x90
	.type	lshift_double,@function
lshift_double:                          # @lshift_double
	.cfi_startproc
# BB#0:                                 # %entry
	pushq	%r14
.Ltmp27:
	.cfi_def_cfa_offset 16
	pushq	%rbx
.Ltmp28:
	.cfi_def_cfa_offset 24
.Ltmp29:
	.cfi_offset %rbx, -24
.Ltmp30:
	.cfi_offset %r14, -16
	movq	%rcx, %r10
	testq	%rdx, %rdx
	js	.LBB4_1
# BB#15:                                # %if.end
	cmpq	$128, %rdx
	jl	.LBB4_18
# BB#16:                                # %if.then2
	movq	$0, (%r9)
	jmp	.LBB4_17
.LBB4_1:                                # %if.then
	movq	24(%rsp), %r11
	movq	%rdx, %rax
	negq	%rax
	movabsq	$4294967295, %r14       # imm = 0xFFFFFFFF
	andq	%r14, %r11
	movq	$63, %rcx
	movq	%rsi, %rbx
	sarq	%cl, %rbx
	testq	%r11, %r11
	je	.LBB4_3
# BB#2:                                 # %if.then
	movq	%rbx, %r11
.LBB4_3:                                # %if.then
	cmpq	$128, %rax
	jl	.LBB4_5
# BB#4:                                 # %if.then.i
	movq	$0, (%r9)
	movq	$0, (%r8)
	jmp	.LBB4_9
.LBB4_18:                               # %if.else
	cmpq	$64, %rdx
	jl	.LBB4_20
# BB#19:                                # %if.then4
	addq	$-64, %rdx
	movq	%rdx, %rcx
	shlq	%cl, %rdi
	movq	%rdi, (%r9)
.LBB4_17:                               # %if.end13
	movq	$0, (%r8)
	xorq	%rdi, %rdi
	jmp	.LBB4_21
.LBB4_5:                                # %if.else.i
	cmpq	$64, %rax
	jl	.LBB4_7
# BB#6:                                 # %if.then2.i
	movq	$0, (%r9)
	movq	$-64, %rcx
	subq	%rdx, %rcx
	shrq	%cl, %rsi
	jmp	.LBB4_8
.LBB4_20:                               # %if.else6
	movq	%rdx, %rcx
	shlq	%cl, %rsi
	movq	$63, %rcx
	subq	%rdx, %rcx
	movq	%rdi, %rax
	shrq	%cl, %rax
	movq	$1, %rcx
	shrq	%cl, %rax
	orq	%rsi, %rax
	movq	%rax, (%r9)
	movq	%rdx, %rcx
	shlq	%cl, %rdi
	movq	%rdi, (%r8)
.LBB4_21:                               # %if.end13
	movabsq	$4294967295, %rdx       # imm = 0xFFFFFFFF
	movq	%r10, %rax
	andq	%rdx, %rax
	cmpq	$65, %rax
	jb	.LBB4_23
# BB#22:                                # %cond.true
	movq	(%r9), %rdi
	leaq	-65(%r10), %rcx
	andq	%rdx, %rcx
	sarq	%cl, %rdi
	jmp	.LBB4_24
.LBB4_23:                               # %cond.false
	leaq	-1(%r10), %rcx
	andq	%rdx, %rcx
	shrq	%cl, %rdi
.LBB4_24:                               # %cond.end
	cmpq	$127, %rax
	ja	.LBB4_28
# BB#25:                                # %if.else24
	andq	$1, %rdi
	negq	%rdi
	cmpq	$64, %rax
	jb	.LBB4_27
# BB#26:                                # %if.then26
	addq	$-64, %r10
	movq	$-1, %rax
	movq	(%r9), %rdx
	movq	%r10, %rcx
	shlq	%cl, %rax
	notq	%rax
	andq	%rax, %rdx
	movq	%r10, %rcx
	shlq	%cl, %rdi
	orq	%rdx, %rdi
	movq	%rdi, (%r9)
	jmp	.LBB4_28
.LBB4_27:                               # %if.else35
	movq	%rdi, (%r9)
	movq	$-1, %rax
	movq	(%r8), %rdx
	movq	%r10, %rcx
	shlq	%cl, %rax
	notq	%rax
	andq	%rax, %rdx
	movq	%r10, %rcx
	shlq	%cl, %rdi
	orq	%rdx, %rdi
	movq	%rdi, (%r8)
	jmp	.LBB4_28
.LBB4_7:                                # %if.else5.i
	movq	%rsi, %rbx
	movq	%rax, %rcx
	shrq	%cl, %rbx
	movq	%rbx, (%r9)
	movq	%rax, %rcx
	shrq	%cl, %rdi
	leaq	63(%rdx), %rcx
	shlq	%cl, %rsi
	addq	%rsi, %rsi
	orq	%rdi, %rsi
.LBB4_8:                                # %if.end11.i
	movq	%rsi, (%r8)
.LBB4_9:                                # %if.end11.i
	andq	%r14, %r10
	cmpq	%rax, %r10
	jle	.LBB4_10
# BB#11:                                # %if.else15.i
	addq	%rdx, %r10
	cmpq	$127, %r10
	jg	.LBB4_28
# BB#12:                                # %if.else21.i
	cmpq	$64, %r10
	jl	.LBB4_14
# BB#13:                                # %if.then26.i
	addq	$-64, %r10
	movq	$-1, %rax
	movq	(%r9), %rdx
	movq	%r10, %rcx
	shlq	%cl, %rax
	notq	%rax
	andq	%rax, %rdx
	movq	%r10, %rcx
	shlq	%cl, %r11
	orq	%rdx, %r11
	movq	%r11, (%r9)
	jmp	.LBB4_28
.LBB4_10:                               # %if.then14.i
	movq	%r11, (%r9)
	movq	%r11, (%r8)
	jmp	.LBB4_28
.LBB4_14:                               # %if.else36.i
	movq	%r11, (%r9)
	movq	$-1, %rax
	movq	(%r8), %rdx
	movq	%r10, %rcx
	shlq	%cl, %rax
	notq	%rax
	andq	%rax, %rdx
	movq	%r10, %rcx
	shlq	%cl, %r11
	orq	%rdx, %r11
	movq	%r11, (%r8)
.LBB4_28:                               # %if.end44
	popq	%rbx
	popq	%r14
	retq
.Ltmp31:
	.size	lshift_double, .Ltmp31-lshift_double
	.cfi_endproc

	.globl	rshift_double
	.align	16, 0x90
	.type	rshift_double,@function
rshift_double:                          # @rshift_double
	.cfi_startproc
# BB#0:                                 # %entry
	movl	8(%rsp), %r10d
	movq	%rcx, %r11
	movq	$63, %rcx
	movq	%rsi, %rax
	sarq	%cl, %rax
	testq	%r10, %r10
	je	.LBB5_2
# BB#1:                                 # %entry
	movq	%rax, %r10
.LBB5_2:                                # %entry
	cmpq	$128, %rdx
	jl	.LBB5_4
# BB#3:                                 # %if.then
	movq	$0, (%r9)
	movq	$0, (%r8)
	jmp	.LBB5_8
.LBB5_4:                                # %if.else
	cmpq	$64, %rdx
	jl	.LBB5_6
# BB#5:                                 # %if.then2
	movq	$0, (%r9)
	leaq	-64(%rdx), %rcx
	shrq	%cl, %rsi
	jmp	.LBB5_7
.LBB5_6:                                # %if.else5
	movq	%rsi, %rax
	movq	%rdx, %rcx
	shrq	%cl, %rax
	movq	%rax, (%r9)
	movq	%rdx, %rcx
	shrq	%cl, %rdi
	movq	$63, %rcx
	subq	%rdx, %rcx
	shlq	%cl, %rsi
	addq	%rsi, %rsi
	orq	%rdi, %rsi
.LBB5_7:                                # %if.end11
	movq	%rsi, (%r8)
.LBB5_8:                                # %if.end11
	movabsq	$4294967295, %rax       # imm = 0xFFFFFFFF
	andq	%rax, %r11
	subq	%rdx, %r11
	jle	.LBB5_9
# BB#10:                                # %if.else15
	cmpq	$127, %r11
	jg	.LBB5_15
# BB#11:                                # %if.else21
	cmpq	$64, %r11
	jl	.LBB5_13
# BB#12:                                # %if.then26
	addq	$-64, %r11
	movq	$-1, %rax
	movq	(%r9), %rdx
	movq	%r11, %rcx
	shlq	%cl, %rax
	notq	%rax
	andq	%rax, %rdx
	movq	%r11, %rcx
	shlq	%cl, %r10
	orq	%rdx, %r10
	movq	%r10, (%r9)
	retq
.LBB5_9:                                # %if.then14
	movq	%r10, (%r9)
	jmp	.LBB5_14
.LBB5_13:                               # %if.else36
	movq	%r10, (%r9)
	movq	$-1, %rax
	movq	(%r8), %rdx
	movq	%r11, %rcx
	shlq	%cl, %rax
	notq	%rax
	andq	%rax, %rdx
	movq	%r11, %rcx
	shlq	%cl, %r10
	orq	%rdx, %r10
.LBB5_14:                               # %if.end48
	movq	%r10, (%r8)
.LBB5_15:                               # %if.end48
	retq
.Ltmp32:
	.size	rshift_double, .Ltmp32-rshift_double
	.cfi_endproc

	.globl	lrotate_double
	.align	16, 0x90
	.type	lrotate_double,@function
lrotate_double:                         # @lrotate_double
	.cfi_startproc
# BB#0:                                 # %entry
	pushq	%r15
.Ltmp39:
	.cfi_def_cfa_offset 16
	pushq	%r14
.Ltmp40:
	.cfi_def_cfa_offset 24
	pushq	%r13
.Ltmp41:
	.cfi_def_cfa_offset 32
	pushq	%r12
.Ltmp42:
	.cfi_def_cfa_offset 40
	pushq	%rbx
.Ltmp43:
	.cfi_def_cfa_offset 48
	subq	$32, %rsp
.Ltmp44:
	.cfi_def_cfa_offset 80
.Ltmp45:
	.cfi_offset %rbx, -48
.Ltmp46:
	.cfi_offset %r12, -40
.Ltmp47:
	.cfi_offset %r13, -32
.Ltmp48:
	.cfi_offset %r14, -24
.Ltmp49:
	.cfi_offset %r15, -16
	movq	%r9, 8(%rsp)            # 8-byte Spill
	movq	%r8, %r15
	movq	%rcx, %r10
	movq	%rsi, %r12
	movq	%rdi, %r13
	movabsq	$4294967295, %r14       # imm = 0xFFFFFFFF
	andq	%r10, %r14
	movq	%rdx, %rax
	cqto
	idivq	%r14
	movq	$63, %rcx
	movq	%rdx, %rbx
	sarq	%cl, %rbx
	andq	%r14, %rbx
	addq	%rdx, %rbx
	leaq	24(%rsp), %r8
	leaq	16(%rsp), %r9
	movq	$0, (%rsp)
                                        # kill: RDI<def> R13<kill>
                                        # kill: RSI<def> R12<kill>
	movq	%rbx, %rdx
	movq	%r10, %rcx
	callq	lshift_double
	subq	%rbx, %r14
	xorq	%rax, %rax
	cmpq	$127, %r14
	movabsq	$0, %rdx
	movabsq	$0, %rsi
	jg	.LBB6_4
# BB#1:                                 # %if.else.i
	cmpq	$64, %r14
	jl	.LBB6_3
# BB#2:                                 # %if.then2.i
	addq	$-64, %r14
	movq	%r14, %rcx
	shrq	%cl, %r12
	movq	%r12, %rdx
	xorq	%rsi, %rsi
	jmp	.LBB6_4
.LBB6_3:                                # %if.else5.i
	movq	%r12, %rsi
	movq	%r14, %rcx
	shrq	%cl, %rsi
	movq	%r14, %rcx
	shrq	%cl, %r13
	movq	$63, %rcx
	subq	%r14, %rcx
	shlq	%cl, %r12
	addq	%r12, %r12
	orq	%r13, %r12
	movq	%r12, %rdx
.LBB6_4:                                # %if.end11.i
	testq	%rbx, %rbx
	jle	.LBB6_5
# BB#6:                                 # %if.else15.i
	cmpq	$127, %rbx
	jle	.LBB6_8
# BB#7:
	movq	%rsi, %rax
	jmp	.LBB6_11
.LBB6_5:
	xorq	%rdx, %rdx
	jmp	.LBB6_11
.LBB6_8:                                # %if.else21.i
	cmpq	$64, %rbx
	jl	.LBB6_10
# BB#9:                                 # %if.then26.i
	addq	$-64, %rbx
	movq	$-1, %rax
	movq	%rbx, %rcx
	shlq	%cl, %rax
	notq	%rax
	andq	%rax, %rsi
	movq	%rsi, %rax
	jmp	.LBB6_11
.LBB6_10:                               # %if.else36.i
	movq	$-1, %rsi
	movq	%rbx, %rcx
	shlq	%cl, %rsi
	notq	%rsi
	andq	%rsi, %rdx
.LBB6_11:                               # %rshift_double.exit
	movq	24(%rsp), %rcx
	orq	%rdx, %rcx
	movq	%rcx, (%r15)
	movq	16(%rsp), %rcx
	orq	%rax, %rcx
	movq	8(%rsp), %rax           # 8-byte Reload
	movq	%rcx, (%rax)
	addq	$32, %rsp
	popq	%rbx
	popq	%r12
	popq	%r13
	popq	%r14
	popq	%r15
	retq
.Ltmp50:
	.size	lrotate_double, .Ltmp50-lrotate_double
	.cfi_endproc

	.globl	rrotate_double
	.align	16, 0x90
	.type	rrotate_double,@function
rrotate_double:                         # @rrotate_double
	.cfi_startproc
# BB#0:                                 # %entry
	pushq	%r15
.Ltmp57:
	.cfi_def_cfa_offset 16
	pushq	%r14
.Ltmp58:
	.cfi_def_cfa_offset 24
	pushq	%r13
.Ltmp59:
	.cfi_def_cfa_offset 32
	pushq	%r12
.Ltmp60:
	.cfi_def_cfa_offset 40
	pushq	%rbx
.Ltmp61:
	.cfi_def_cfa_offset 48
	subq	$32, %rsp
.Ltmp62:
	.cfi_def_cfa_offset 80
.Ltmp63:
	.cfi_offset %rbx, -48
.Ltmp64:
	.cfi_offset %r12, -40
.Ltmp65:
	.cfi_offset %r13, -32
.Ltmp66:
	.cfi_offset %r14, -24
.Ltmp67:
	.cfi_offset %r15, -16
	movq	%r9, %r14
	movq	%r8, %r15
	movq	%rcx, %r10
	movabsq	$4294967295, %rbx       # imm = 0xFFFFFFFF
	andq	%r10, %rbx
	movq	%rdx, %rax
	cqto
	idivq	%rbx
	movq	$63, %rcx
	movq	%rdx, %rax
	sarq	%cl, %rax
	andq	%rbx, %rax
	addq	%rdx, %rax
	xorq	%r12, %r12
	cmpq	$127, %rax
	movabsq	$0, %r13
	movabsq	$0, %rdx
	jg	.LBB7_4
# BB#1:                                 # %if.else.i
	cmpq	$64, %rax
	jl	.LBB7_3
# BB#2:                                 # %if.then2.i
	leaq	-64(%rax), %rcx
	movq	%rsi, %r13
	shrq	%cl, %r13
	xorq	%rdx, %rdx
	jmp	.LBB7_4
.LBB7_3:                                # %if.else5.i
	movq	%rsi, %rdx
	movq	%rax, %rcx
	shrq	%cl, %rdx
	movq	%rdi, %r8
	movq	%rax, %rcx
	shrq	%cl, %r8
	movq	$63, %rcx
	subq	%rax, %rcx
	movq	%rsi, %r13
	shlq	%cl, %r13
	addq	%r13, %r13
	orq	%r8, %r13
.LBB7_4:                                # %if.end11.i
	subq	%rax, %rbx
	jle	.LBB7_5
# BB#6:                                 # %if.else15.i
	cmpq	$127, %rbx
	jle	.LBB7_8
# BB#7:
	movq	%rdx, %r12
	jmp	.LBB7_11
.LBB7_5:
	xorq	%r13, %r13
	jmp	.LBB7_11
.LBB7_8:                                # %if.else21.i
	cmpq	$64, %rbx
	jl	.LBB7_10
# BB#9:                                 # %if.then26.i
	leaq	-64(%rbx), %rcx
	movq	$-1, %rax
	shlq	%cl, %rax
	notq	%rax
	andq	%rax, %rdx
	movq	%rdx, %r12
	jmp	.LBB7_11
.LBB7_10:                               # %if.else36.i
	movq	$-1, %rax
	movq	%rbx, %rcx
	shlq	%cl, %rax
	notq	%rax
	andq	%rax, %r13
.LBB7_11:                               # %rshift_double.exit
	leaq	24(%rsp), %r8
	leaq	16(%rsp), %r9
	movq	$0, (%rsp)
	movq	%rbx, %rdx
	movq	%r10, %rcx
	callq	lshift_double
	movq	24(%rsp), %rax
	orq	%r13, %rax
	movq	%rax, (%r15)
	movq	16(%rsp), %rax
	orq	%r12, %rax
	movq	%rax, (%r14)
	addq	$32, %rsp
	popq	%rbx
	popq	%r12
	popq	%r13
	popq	%r14
	popq	%r15
	retq
.Ltmp68:
	.size	rrotate_double, .Ltmp68-rrotate_double
	.cfi_endproc

	.globl	div_and_round_double
	.align	16, 0x90
	.type	div_and_round_double,@function
div_and_round_double:                   # @div_and_round_double
	.cfi_startproc
# BB#0:                                 # %entry
	pushq	%r15
.Ltmp75:
	.cfi_def_cfa_offset 16
	pushq	%r14
.Ltmp76:
	.cfi_def_cfa_offset 24
	pushq	%r13
.Ltmp77:
	.cfi_def_cfa_offset 32
	pushq	%r12
.Ltmp78:
	.cfi_def_cfa_offset 40
	pushq	%rbx
.Ltmp79:
	.cfi_def_cfa_offset 48
	subq	$240, %rsp
.Ltmp80:
	.cfi_def_cfa_offset 288
.Ltmp81:
	.cfi_offset %rbx, -48
.Ltmp82:
	.cfi_offset %r12, -40
.Ltmp83:
	.cfi_offset %r13, -32
.Ltmp84:
	.cfi_offset %r14, -24
.Ltmp85:
	.cfi_offset %r15, -16
	movq	312(%rsp), %r12
	movq	288(%rsp), %r11
	movq	%r9, %rax
	orq	%r8, %rax
	movq	%rcx, %r13
	jne	.LBB8_1
# BB#2:                                 # %entry
	movq	%rdi, 40(%rsp)          # 8-byte Spill
	movabsq	$1, %rcx
	jmp	.LBB8_3
.LBB8_1:
	movq	%rdi, 40(%rsp)          # 8-byte Spill
	movabsq	$0, %rcx
.LBB8_3:                                # %entry
	movq	$1, %r14
	je	.LBB8_5
# BB#4:                                 # %entry
	movq	%r8, %r14
.LBB8_5:                                # %entry
	xorq	%rdi, %rdi
	movabsq	$4294967295, %r15       # imm = 0xFFFFFFFF
	testq	%r15, %rsi
	je	.LBB8_7
# BB#6:
	movq	%rcx, 32(%rsp)          # 8-byte Spill
	movq	%rdx, %r10
	movq	%r13, %rsi
	movq	%r9, %rbx
	jmp	.LBB8_20
.LBB8_7:                                # %if.then2
	xorq	%rdi, %rdi
	testq	%r13, %r13
	js	.LBB8_9
# BB#8:
	movq	%rdx, %r10
	movq	%r13, %rsi
	jmp	.LBB8_15
.LBB8_9:                                # %if.then4
	testq	%rdx, %rdx
	je	.LBB8_11
# BB#10:                                # %neg_double.exit.thread
	movq	%rdx, %r10
	negq	%r10
	movq	%r13, %rsi
	notq	%rsi
	movabsq	$4294967295, %rdi       # imm = 0xFFFFFFFF
	jmp	.LBB8_15
.LBB8_11:                               # %neg_double.exit
	movq	%r13, %rsi
	negq	%rsi
	xorq	%r10, %r10
	testq	%r13, %rsi
	movabsq	$4294967295, %rdi       # imm = 0xFFFFFFFF
	jns	.LBB8_15
# BB#12:                                # %land.lhs.true6
	movq	%r14, %rax
	andq	%r9, %rax
	cmpq	$-1, %rax
	movq	$1, %rax
	je	.LBB8_14
# BB#13:                                # %land.lhs.true6
	movq	%rcx, %rax
.LBB8_14:                               # %land.lhs.true6
	movq	%rax, %rcx
.LBB8_15:                               # %if.end10
	testq	%r9, %r9
	js	.LBB8_17
# BB#16:
	movq	%rcx, 32(%rsp)          # 8-byte Spill
	movq	%r9, %rbx
	jmp	.LBB8_20
.LBB8_17:                               # %if.then12
	notq	%rdi
	testq	%r14, %r14
	je	.LBB8_18
# BB#19:                                # %if.else.i426
	movq	%rcx, 32(%rsp)          # 8-byte Spill
	negq	%r14
	movq	%r9, %rbx
	notq	%rbx
	jmp	.LBB8_20
.LBB8_18:                               # %if.then.i423
	movq	%rcx, 32(%rsp)          # 8-byte Spill
	movq	%r9, %rbx
	negq	%rbx
	xorq	%r14, %r14
.LBB8_20:                               # %if.end16
	movq	%rbx, %rax
	orq	%rsi, %rax
	je	.LBB8_21
# BB#22:                                # %if.end21
	testq	%rsi, %rsi
	je	.LBB8_23
# BB#24:                                # %if.end24
	movq	%r8, 56(%rsp)           # 8-byte Spill
	movq	%rdi, 8(%rsp)           # 8-byte Spill
	movq	%r9, 64(%rsp)           # 8-byte Spill
	movq	%r13, 96(%rsp)          # 8-byte Spill
	movabsq	$4294967296, %r8        # imm = 0x100000000
	movq	$0, 152(%rsp)
	movq	$0, 144(%rsp)
	movq	$0, 136(%rsp)
	movq	$0, 128(%rsp)
	movq	$0, 224(%rsp)
	movq	$0, 216(%rsp)
	movq	$0, 208(%rsp)
	movq	$0, 200(%rsp)
	movq	$0, 192(%rsp)
	movq	$0, 184(%rsp)
	movq	$0, 176(%rsp)
	movq	$0, 168(%rsp)
	movq	$0, 160(%rsp)
	movq	%r10, %r11
	andq	%r15, %r11
	movq	%r11, 192(%rsp)
	movq	$32, %rcx
	shrq	%cl, %r10
	movq	%r10, 200(%rsp)
	movq	%rsi, %rdi
	andq	%r15, %rdi
	movq	%rdi, 208(%rsp)
	movq	$32, %rcx
	shrq	%cl, %rsi
	movq	%rsi, 216(%rsp)
	movq	%r14, %r13
	andq	%r15, %r13
	movq	%r13, 160(%rsp)
	movq	$32, %rcx
	movq	%r14, %r12
	shrq	%cl, %r12
	movq	%r12, 168(%rsp)
	movq	%r14, %rax
	movq	%rbx, 16(%rsp)          # 8-byte Spill
	movq	%rbx, %r14
	andq	%r15, %r14
	movq	$32, %rcx
	movq	%rbx, %r9
	shrq	%cl, %r9
	testq	%rbx, %rbx
	movq	%r14, 176(%rsp)
	movq	%r9, 184(%rsp)
	jne	.LBB8_25
# BB#28:                                # %if.end24
	movq	%rdx, 48(%rsp)          # 8-byte Spill
	cmpq	%r8, %rax
	movq	%rax, 24(%rsp)          # 8-byte Spill
	movq	%r9, %rcx
	movq	$3, %rbx
	jae	.LBB8_26
# BB#29:                                # %for.cond.preheader
	xorq	%rdx, %rdx
	movq	%rsi, %rax
	movq	24(%rsp), %rbx          # 8-byte Reload
	divq	%rbx
	movq	%rax, %r8
	movq	%r8, 152(%rsp)
	movq	$32, %rcx
	shlq	%cl, %rdx
	orq	%rdx, %rdi
	xorq	%rdx, %rdx
	movq	%rdi, %rax
	divq	%rbx
	movq	%rax, %r12
	movq	%r12, 144(%rsp)
	movq	$32, %rcx
	shlq	%cl, %rdx
	orq	%rdx, %r10
	xorq	%rdx, %rdx
	movq	%r10, %rax
	divq	%rbx
	movq	%rax, %rsi
	movq	%rsi, 136(%rsp)
	movq	$32, %rcx
	shlq	%cl, %rdx
	orq	%rdx, %r11
	xorq	%rdx, %rdx
	movq	%r11, %rax
	divq	%rbx
	movq	%rax, 128(%rsp)
	jmp	.LBB8_62
.LBB8_21:                               # %if.then20
	movq	%rbx, 16(%rsp)          # 8-byte Spill
	movq	%rdx, 48(%rsp)          # 8-byte Spill
	movq	$0, (%r12)
	movq	296(%rsp), %rcx
	movq	$0, (%rcx)
	xorq	%rdx, %rdx
	movq	%r10, %rax
	divq	%r14
	movq	%r14, 24(%rsp)          # 8-byte Spill
	movq	%rax, (%r11)
	movq	304(%rsp), %rbx
	jmp	.LBB8_63
.LBB8_23:                               # %if.then23
	movq	%rbx, 16(%rsp)          # 8-byte Spill
	movq	%r14, 24(%rsp)          # 8-byte Spill
	movq	%rdx, 48(%rsp)          # 8-byte Spill
	movq	$0, (%r11)
	movq	296(%rsp), %rcx
	movq	$0, (%rcx)
	movq	$0, (%r12)
	movq	304(%rsp), %rbx
	movq	%r10, (%rbx)
	jmp	.LBB8_63
.LBB8_25:
	movq	%rax, 24(%rsp)          # 8-byte Spill
	movq	%rdx, 48(%rsp)          # 8-byte Spill
	movq	%r9, %rcx
	movq	$3, %rbx
	jmp	.LBB8_26
	.align	16, 0x90
.LBB8_27:                               # %for.cond37.for.cond37_crit_edge
                                        #   in Loop: Header=BB8_26 Depth=1
	movq	152(%rsp,%rbx,8), %rcx
	decq	%rbx
.LBB8_26:                               # %for.cond37
                                        # =>This Inner Loop Header: Depth=1
	testq	%rcx, %rcx
	je	.LBB8_27
# BB#30:                                # %if.then41
	incq	%rcx
	xorq	%r8, %r8
	xorq	%rdx, %rdx
	movabsq	$4294967296, %rax       # imm = 0x100000000
	divq	%rcx
	cmpq	$2, %rax
	jb	.LBB8_39
# BB#31:                                # %for.cond52.preheader
	imulq	%rax, %r11
	movabsq	$4294967295, %rdx       # imm = 0xFFFFFFFF
	movq	%r11, %rcx
	andq	%rdx, %rcx
	movq	%rcx, 192(%rsp)
	movq	$32, %rcx
	shrq	%cl, %r11
	imulq	%rax, %r10
	addq	%r11, %r10
	movq	%r10, %rcx
	andq	%rdx, %rcx
	movq	%rcx, 200(%rsp)
	movq	$32, %rcx
	shrq	%cl, %r10
	imulq	%rax, %rdi
	addq	%r10, %rdi
	movq	%rdi, %rcx
	andq	%rdx, %rcx
	movq	%rcx, 208(%rsp)
	movq	$32, %rcx
	shrq	%cl, %rdi
	imulq	%rax, %rsi
	addq	%rdi, %rsi
	movq	%rsi, %rcx
	andq	%rdx, %rcx
	movq	%rcx, 216(%rsp)
	movq	$32, %rcx
	shrq	%cl, %rsi
	movq	%rsi, 224(%rsp)
	imulq	%rax, %r13
	movq	%r13, %rsi
	andq	%rdx, %rsi
	movq	$32, %rcx
	shrq	%cl, %r13
	testq	%rsi, %rsi
	movq	%rsi, 160(%rsp)
	je	.LBB8_33
# BB#32:                                # %for.cond52.preheader
	xorq	%rbx, %rbx
.LBB8_33:                               # %for.cond52.preheader
	imulq	%rax, %r12
	addq	%r13, %r12
	movq	%r12, %rsi
	andq	%rdx, %rsi
	movq	$32, %rcx
	shrq	%cl, %r12
	testq	%rsi, %rsi
	movq	%rsi, 168(%rsp)
	je	.LBB8_35
# BB#34:                                # %for.cond52.preheader
	movq	$1, %rbx
.LBB8_35:                               # %for.cond52.preheader
	imulq	%rax, %r14
	addq	%r12, %r14
	movq	%r14, %rsi
	andq	%rdx, %rsi
	movq	$32, %rcx
	shrq	%cl, %r14
	testq	%rsi, %rsi
	movq	%rsi, 176(%rsp)
	je	.LBB8_37
# BB#36:                                # %for.cond52.preheader
	movq	$2, %rbx
.LBB8_37:                               # %for.cond52.preheader
	imulq	%rax, %r9
	addq	%r14, %r9
	andq	%rdx, %r9
	movq	%r9, 184(%rsp)
	je	.LBB8_39
# BB#38:                                # %for.cond52.preheader
	movq	$3, %rbx
.LBB8_39:                               # %if.end84
	movq	$4, %r11
	subq	%rbx, %r11
	movq	$32, %rcx
	movq	%r11, %rax
	shlq	%cl, %rax
	movq	$32, %rcx
	sarq	%cl, %rax
	testq	%rax, %rax
	movabsq	$0, %r12
	movabsq	$0, %rsi
	movabsq	$0, %rax
	jle	.LBB8_62
# BB#40:                                # %for.body88.lr.ph
	movq	$32, %rcx
	movq	%rbx, %rsi
	movq	%rsi, %rdx
	shlq	%cl, %rdx
	movq	$32, %rcx
	sarq	%cl, %rdx
	leaq	-1(%rsi), %rax
	movq	$32, %rcx
	shlq	%cl, %rax
	movq	$32, %rcx
	sarq	%cl, %rax
	movq	%rax, 72(%rsp)          # 8-byte Spill
	movq	160(%rsp,%rdx,8), %rdi
	movq	%rdi, 88(%rsp)          # 8-byte Spill
	movq	$3, %rax
	subq	%rsi, %rax
	testq	%rdx, %rdx
	js	.LBB8_55
# BB#41:                                # %for.body88.lr.ph.for.body88.lr.ph.split_crit_edge
	leaq	1(%rsi), %r10
	movq	$3, %r8
	subq	%rsi, %r8
	movq	$32, %rcx
	shlq	%cl, %r8
	movq	$32, %rcx
	sarq	%cl, %r8
	movabsq	$0, %r13
	movabsq	$1, %r9
	movq	%rsi, %rdx
	movq	%rdx, 80(%rsp)          # 8-byte Spill
	.align	16, 0x90
.LBB8_42:                               # %for.body88
                                        # =>This Loop Header: Depth=1
                                        #     Child Loop BB8_47 Depth 2
                                        #     Child Loop BB8_52 Depth 2
	movq	%rax, %rsi
	movq	%rsi, 104(%rsp)         # 8-byte Spill
	addq	%rdx, %r11
	movq	$32, %rcx
	movq	%r11, %r14
	shlq	%cl, %r14
	movq	$32, %rcx
	sarq	%cl, %r14
	movq	192(%rsp,%r14,8), %rax
	leaq	(%rsi,%rdx), %rdx
	movq	$32, %rcx
	movq	%rax, %rsi
	shlq	%cl, %rsi
	movq	$32, %rcx
	shlq	%cl, %rdx
	movq	$32, %rcx
	sarq	%cl, %rdx
	movq	192(%rsp,%rdx,8), %r12
	addq	%rsi, %r12
	cmpq	%rdi, %rax
	movq	%r15, %rax
	je	.LBB8_44
# BB#43:                                # %if.then103
                                        #   in Loop: Header=BB8_42 Depth=1
	xorq	%rdx, %rdx
	movq	%r12, %rax
	divq	%rdi
.LBB8_44:                               # %if.end108
                                        #   in Loop: Header=BB8_42 Depth=1
	movq	%rdi, %rcx
	imulq	%rax, %rcx
	subq	%rcx, %r12
	movabsq	$4294967296, %rcx       # imm = 0x100000000
	cmpq	%rcx, %r12
	jae	.LBB8_46
# BB#45:                                # %land.lhs.true114
                                        #   in Loop: Header=BB8_42 Depth=1
	movq	72(%rsp), %rcx          # 8-byte Reload
	movq	160(%rsp,%rcx,8), %rdx
	movq	$32, %rcx
	shlq	%cl, %r12
	addq	$-2, %r11
	movq	$32, %rcx
	shlq	%cl, %r11
	movq	$32, %rcx
	sarq	%cl, %r11
	movq	192(%rsp,%r11,8), %rcx
	imulq	%rax, %rdx
	addq	%r12, %rcx
	cmpq	%rdx, %rcx
	sbbq	%rcx, %rcx
	andq	$1, %rcx
	subq	%rcx, %rax
.LBB8_46:                               # %for.body130.lr.ph
                                        #   in Loop: Header=BB8_42 Depth=1
	xorq	%rcx, %rcx
	movq	$1, %rdi
	leaq	192(%rsp), %rbx
	.align	16, 0x90
.LBB8_47:                               # %for.body130
                                        #   Parent Loop BB8_42 Depth=1
                                        # =>  This Inner Loop Header: Depth=2
	movq	152(%rsp,%rdi,8), %rsi
	imulq	%rax, %rsi
	addq	%rcx, %rsi
	movq	$32, %rcx
	movq	%rsi, %r11
	shrq	%cl, %r11
	movq	(%rbx,%r8,8), %rdx
	andq	%r15, %rsi
	subq	%rsi, %rdx
	movq	%rdx, %rcx
	andq	%r15, %rcx
	movq	%rcx, (%rbx,%r8,8)
	movq	$32, %rcx
	shrq	%cl, %rdx
	testq	%rdx, %rdx
	movq	%r13, %rcx
	je	.LBB8_49
# BB#48:                                # %for.body130
                                        #   in Loop: Header=BB8_47 Depth=2
	movq	%r9, %rcx
.LBB8_49:                               # %for.body130
                                        #   in Loop: Header=BB8_47 Depth=2
	addq	%r11, %rcx
	movq	%rdi, %rsi
	andq	%r15, %rsi
	movq	%r10, %rdx
	andq	%r15, %rdx
	incq	%rdi
	addq	$8, %rbx
	cmpq	%rdx, %rsi
	jne	.LBB8_47
# BB#50:                                # %for.end151
                                        #   in Loop: Header=BB8_42 Depth=1
	movq	192(%rsp,%r14,8), %rsi
	cmpq	%rcx, %rsi
	jae	.LBB8_54
# BB#51:                                # %for.body161.lr.ph
                                        #   in Loop: Header=BB8_42 Depth=1
	decq	%rax
	xorq	%rdi, %rdi
	movq	$1, %r11
	leaq	192(%rsp), %rbx
	.align	16, 0x90
.LBB8_52:                               # %for.body161
                                        #   Parent Loop BB8_42 Depth=1
                                        # =>  This Inner Loop Header: Depth=2
	movq	(%rbx,%r8,8), %rsi
	movq	152(%rsp,%r11,8), %rcx
	addq	%rdi, %rsi
	addq	%rcx, %rsi
	movq	$32, %rcx
	movq	%rsi, %rdi
	shrq	%cl, %rdi
	andq	%r15, %rsi
	movq	%rsi, (%rbx,%r8,8)
	movq	%r11, %rcx
	andq	%r15, %rcx
	incq	%r11
	addq	$8, %rbx
	cmpq	%rdx, %rcx
	jne	.LBB8_52
# BB#53:                                # %for.end176
                                        #   in Loop: Header=BB8_42 Depth=1
	addq	%rdi, 192(%rsp,%r14,8)
.LBB8_54:                               # %if.end180
                                        #   in Loop: Header=BB8_42 Depth=1
	movq	104(%rsp), %r11         # 8-byte Reload
	movq	88(%rsp), %rdi          # 8-byte Reload
	movq	%rax, 128(%rsp,%r8,8)
	leaq	-1(%r11), %rax
	movq	$32, %rcx
	movq	%r8, %rdx
	shlq	%cl, %rdx
	movq	$32, %rcx
	sarq	%cl, %rdx
	decq	%r8
	testq	%rdx, %rdx
	movq	80(%rsp), %rdx          # 8-byte Reload
	jg	.LBB8_42
	jmp	.LBB8_61
.LBB8_55:                               # %for.body88.lr.ph.split.us
	movq	$3, %r8
	subq	%rsi, %r8
	movq	$32, %rcx
	shlq	%cl, %r8
	movq	$32, %rcx
	sarq	%cl, %r8
	movabsq	$4294967295, %r9        # imm = 0xFFFFFFFF
	movq	%rsi, %r10
	.align	16, 0x90
.LBB8_56:                               # %for.body88.us
                                        # =>This Inner Loop Header: Depth=1
	movq	%r11, %rbx
	movq	%rax, %r11
	addq	%r10, %rbx
	movq	$32, %rcx
	movq	%rbx, %rax
	shlq	%cl, %rax
	movq	$32, %rcx
	sarq	%cl, %rax
	movq	%rdi, %r14
	movq	192(%rsp,%rax,8), %rdi
	leaq	(%r11,%r10), %rdx
	movq	$32, %rcx
	movq	%rdi, %rax
	shlq	%cl, %rax
	movq	$32, %rcx
	shlq	%cl, %rdx
	movq	$32, %rcx
	sarq	%cl, %rdx
	movq	192(%rsp,%rdx,8), %rsi
	addq	%rax, %rsi
	cmpq	%r14, %rdi
	movq	%r14, %rdi
	movq	%r9, %rax
	je	.LBB8_58
# BB#57:                                # %if.then103.us
                                        #   in Loop: Header=BB8_56 Depth=1
	xorq	%rdx, %rdx
	movq	%rsi, %rax
	divq	%rdi
.LBB8_58:                               # %if.end108.us
                                        #   in Loop: Header=BB8_56 Depth=1
	movq	%rdi, %rcx
	imulq	%rax, %rcx
	subq	%rcx, %rsi
	movabsq	$4294967296, %rcx       # imm = 0x100000000
	cmpq	%rcx, %rsi
	jae	.LBB8_60
# BB#59:                                # %land.lhs.true114.us
                                        #   in Loop: Header=BB8_56 Depth=1
	movq	72(%rsp), %rcx          # 8-byte Reload
	movq	160(%rsp,%rcx,8), %rdx
	movq	$32, %rcx
	shlq	%cl, %rsi
	addq	$-2, %rbx
	movq	$32, %rcx
	shlq	%cl, %rbx
	movq	$32, %rcx
	sarq	%cl, %rbx
	movq	192(%rsp,%rbx,8), %rcx
	imulq	%rax, %rdx
	addq	%rsi, %rcx
	cmpq	%rdx, %rcx
	sbbq	%rcx, %rcx
	andq	$1, %rcx
	subq	%rcx, %rax
.LBB8_60:                               # %if.end180.us
                                        #   in Loop: Header=BB8_56 Depth=1
	movq	%rax, 128(%rsp,%r8,8)
	leaq	-1(%r11), %rax
	movq	$32, %rcx
	movq	%r8, %rdx
	shlq	%cl, %rdx
	movq	$32, %rcx
	sarq	%cl, %rdx
	decq	%r8
	testq	%rdx, %rdx
	jg	.LBB8_56
.LBB8_61:                               # %for.cond86.if.end186.loopexit566_crit_edge
	movq	128(%rsp), %rax
	movq	136(%rsp), %rsi
	movq	144(%rsp), %r12
	movq	152(%rsp), %r8
.LBB8_62:                               # %if.end186
	movq	$32, %rcx
	shlq	%cl, %rsi
	addq	%rax, %rsi
	movq	288(%rsp), %r11
	movq	%rsi, (%r11)
	movq	$32, %rcx
	shlq	%cl, %r8
	addq	%r12, %r8
	movq	296(%rsp), %rcx
	movq	%r8, (%rcx)
	movq	312(%rsp), %rbx
	movq	%rbx, %r12
	movq	304(%rsp), %rbx
	movq	96(%rsp), %r13          # 8-byte Reload
	movq	64(%rsp), %r9           # 8-byte Reload
	movq	8(%rsp), %rdi           # 8-byte Reload
	movq	56(%rsp), %r8           # 8-byte Reload
.LBB8_63:                               # %finish_up
	movabsq	$4294967295, %r14       # imm = 0xFFFFFFFF
	testq	%r14, %rdi
	je	.LBB8_64
# BB#65:                                # %if.then189
	movq	%r13, 96(%rsp)          # 8-byte Spill
	movq	(%r11), %rax
	movq	(%rcx), %rsi
	movq	%rdi, %r13
	testq	%rax, %rax
	je	.LBB8_66
# BB#67:                                # %if.else.i520
	negq	%rax
	movq	%rax, (%r11)
	notq	%rsi
	jmp	.LBB8_68
.LBB8_64:                               # %finish_up.if.end191_crit_edge
	movq	%r13, 96(%rsp)          # 8-byte Spill
	movq	%rdi, %r13
	movq	(%rcx), %rsi
	jmp	.LBB8_69
.LBB8_66:                               # %if.then.i517
	movq	$0, (%r11)
	negq	%rsi
.LBB8_68:                               # %if.end191
	movq	%rsi, (%rcx)
.LBB8_69:                               # %if.end191
	movq	(%r11), %rdi
	movq	%r11, %r15
	movq	%r8, %rdx
	movq	%r8, 56(%rsp)           # 8-byte Spill
	movq	%r9, %rcx
	movq	%r9, 64(%rsp)           # 8-byte Spill
	movq	%rbx, %r8
	movq	%r12, %r9
	callq	mul_double
	movq	(%rbx), %rax
	movq	(%r12), %rcx
	testq	%rax, %rax
	je	.LBB8_70
# BB#71:                                # %if.else.i503
	negq	%rax
	movq	%rax, (%rbx)
	notq	%rcx
	jmp	.LBB8_72
.LBB8_70:                               # %if.then.i500
	movq	$0, (%rbx)
	negq	%rcx
.LBB8_72:                               # %neg_double.exit505
	movq	48(%rsp), %rsi          # 8-byte Reload
	movq	%rcx, (%r12)
	movq	(%rbx), %rax
	addq	%rsi, %rax
	sbbq	%rdx, %rdx
	movq	96(%rsp), %rdi          # 8-byte Reload
	addq	%rdi, %rcx
	subq	%rdx, %rcx
	movq	%rax, (%rbx)
	movq	%rcx, (%r12)
	movq	40(%rsp), %rax          # 8-byte Reload
	addq	$-62, %rax
	andq	%r14, %rax
	cmpq	$9, %rax
	ja	.LBB8_103
# BB#73:                                # %neg_double.exit505
	jmpq	*.LJTI8_0(,%rax,8)
.LBB8_77:                               # %sw.bb206
	testq	%r14, %r13
	jne	.LBB8_102
# BB#78:                                # %land.lhs.true208
	movq	(%rbx), %rax
	orq	%rcx, %rax
	je	.LBB8_102
# BB#79:                                # %if.then214
	movq	%rsi, %r14
	movq	(%r15), %rax
	movq	296(%rsp), %rcx
	movq	%rcx, %rdx
	movq	(%rdx), %rcx
	addq	$1, %rax
	sbbq	%rsi, %rsi
	andq	$1, %rsi
	jmp	.LBB8_96
.LBB8_74:                               # %sw.bb195
	testq	%r14, %r13
	je	.LBB8_102
# BB#75:                                # %land.lhs.true197
	movq	(%rbx), %rax
	orq	%rcx, %rax
	je	.LBB8_102
# BB#76:                                # %if.then202
	movq	%rsi, %r14
	movq	(%r15), %rax
	movq	296(%rsp), %rcx
	movq	(%rcx), %rsi
	addq	$-1, %rax
	sbbq	%rdx, %rdx
	negq	%rdx
	leaq	-1(%rsi,%rdx), %rsi
	movq	%rax, (%r15)
	movq	%rsi, (%rcx)
	jmp	.LBB8_98
.LBB8_80:                               # %sw.bb218
	movq	(%rbx), %rdx
	testq	%rcx, %rcx
	js	.LBB8_82
# BB#81:
	movq	16(%rsp), %rax          # 8-byte Reload
	jmp	.LBB8_85
.LBB8_82:                               # %if.then227
	testq	%rdx, %rdx
	movq	16(%rsp), %rax          # 8-byte Reload
	je	.LBB8_83
# BB#84:                                # %if.else.i465
	negq	%rdx
	notq	%rcx
	jmp	.LBB8_85
.LBB8_103:                              # %sw.default
	movabsq	$.L.str, %rdi
	movabsq	$.L__FUNCTION__.div_and_round_double, %rdx
	movq	$823, %rsi              # imm = 0x337
	callq	fancy_abort
.LBB8_83:                               # %if.then.i462
	negq	%rcx
	xorq	%rdx, %rdx
.LBB8_85:                               # %if.end229
	testq	%rax, %rax
	movq	%rax, %rdi
	js	.LBB8_87
# BB#86:
	movq	%rsi, %r14
	movq	%rdi, %r15
	jmp	.LBB8_90
.LBB8_87:                               # %if.then232
	movq	24(%rsp), %rax          # 8-byte Reload
	movq	%rsi, %r14
	testq	%rax, %rax
	je	.LBB8_88
# BB#89:                                # %if.else.i455
	negq	%rax
	movq	%rax, 24(%rsp)          # 8-byte Spill
	movq	%rdi, %r15
	notq	%r15
	jmp	.LBB8_90
.LBB8_88:                               # %if.then.i452
	movq	%rdi, %r15
	negq	%r15
	movq	$0, 24(%rsp)            # 8-byte Folded Spill
.LBB8_90:                               # %if.end234
	leaq	120(%rsp), %r8
	leaq	112(%rsp), %r9
	movq	$2, %rdi
	movabsq	$0, %rsi
	callq	mul_double
	movq	112(%rsp), %rax
	cmpq	%rax, %r15
	movq	288(%rsp), %r15
	jb	.LBB8_93
# BB#91:                                # %lor.lhs.false238
	jne	.LBB8_102
# BB#92:                                # %lor.lhs.false238
	movq	120(%rsp), %rax
	cmpq	%rax, 24(%rsp)          # 8-byte Folded Reload
	jae	.LBB8_102
.LBB8_93:                               # %if.then244
	movq	296(%rsp), %rdx
	movq	(%rdx), %rsi
	movq	(%r15), %rax
	testq	%rsi, %rsi
	js	.LBB8_94
# BB#95:                                # %if.else249
	addq	$1, %rax
	sbbq	%rcx, %rcx
	andq	$1, %rcx
.LBB8_96:                               # %sw.epilog
	addq	%rcx, %rsi
	jmp	.LBB8_97
.LBB8_94:                               # %if.then247
	addq	$-1, %rax
	sbbq	%rcx, %rcx
	subq	%rcx, %rsi
	decq	%rsi
.LBB8_97:                               # %sw.epilog
	movq	%rax, (%r15)
	movq	%rsi, (%rdx)
.LBB8_98:                               # %sw.epilog
	movq	64(%rsp), %rcx          # 8-byte Reload
	movq	56(%rsp), %rdx          # 8-byte Reload
	movq	96(%rsp), %r13          # 8-byte Reload
	movq	(%r15), %rdi
	movq	%rbx, %r8
	movq	%r12, %r9
	callq	mul_double
	movq	(%rbx), %rcx
	movq	(%r12), %rax
	testq	%rcx, %rcx
	je	.LBB8_99
# BB#100:                               # %if.else.i416
	negq	%rcx
	movq	%rcx, (%rbx)
	notq	%rax
	jmp	.LBB8_101
.LBB8_99:                               # %if.then.i413
	movq	$0, (%rbx)
	negq	%rax
.LBB8_101:                              # %neg_double.exit418
	movq	%rax, (%r12)
	movq	(%rbx), %rcx
	addq	%rcx, %r14
	sbbq	%rcx, %rcx
	addq	%rax, %r13
	subq	%rcx, %r13
	movq	%r14, (%rbx)
	movq	%r13, (%r12)
.LBB8_102:                              # %cleanup
	movq	32(%rsp), %rax          # 8-byte Reload
	addq	$240, %rsp
	popq	%rbx
	popq	%r12
	popq	%r13
	popq	%r14
	popq	%r15
	retq
.Ltmp86:
	.size	div_and_round_double, .Ltmp86-div_and_round_double
	.cfi_endproc
	.section	.rodata,"a",@progbits
	.align	8
.LJTI8_0:
	.quad	.LBB8_102
	.quad	.LBB8_77
	.quad	.LBB8_74
	.quad	.LBB8_80
	.quad	.LBB8_102
	.quad	.LBB8_77
	.quad	.LBB8_74
	.quad	.LBB8_80
	.quad	.LBB8_103
	.quad	.LBB8_102

	.text
	.globl	size_int_wide
	.align	16, 0x90
	.type	size_int_wide,@function
size_int_wide:                          # @size_int_wide
	.cfi_startproc
# BB#0:                                 # %entry
	movq	$32, %rcx
	shlq	%cl, %rsi
	movq	$32, %rcx
	sarq	%cl, %rsi
	movq	sizetype_tab(,%rsi,8), %rsi
	jmp	size_int_type_wide  # TAILCALL
.Ltmp87:
	.size	size_int_wide, .Ltmp87-size_int_wide
	.cfi_endproc

	.globl	size_int_type_wide
	.align	16, 0x90
	.type	size_int_type_wide,@function
size_int_type_wide:                     # @size_int_type_wide
	.cfi_startproc
# BB#0:                                 # %entry
	pushq	%r14
.Ltmp91:
	.cfi_def_cfa_offset 16
	pushq	%rbx
.Ltmp92:
	.cfi_def_cfa_offset 24
	pushq	%rax
.Ltmp93:
	.cfi_def_cfa_offset 32
.Ltmp94:
	.cfi_offset %rbx, -24
.Ltmp95:
	.cfi_offset %r14, -16
	cmpq	$0, size_int_type_wide.size_htab(%rip)
	movq	%rsi, %r14
	movq	%rdi, %rbx
	jne	.LBB10_2
# BB#1:                                 # %if.then
	movabsq	$size_htab_hash, %rsi
	movabsq	$size_htab_eq, %rdx
	movq	$1024, %rdi             # imm = 0x400
	xorq	%rcx, %rcx
	callq	htab_create
	movq	%rax, size_int_type_wide.size_htab(%rip)
	xorq	%rsi, %rsi
	xorq	%rdx, %rdx
	movq	%rax, %rdi
	callq	ggc_add_deletable_htab
	movq	$25, %rdi
	callq	make_node
	movq	%rax, size_int_type_wide.new_const(%rip)
	movabsq	$size_int_type_wide.new_const, %rdi
	movq	$1, %rsi
	callq	ggc_add_tree_root
.LBB10_2:                               # %if.end
	movq	size_int_type_wide.new_const(%rip), %rax
	movq	%rbx, 32(%rax)
	movq	$63, %rcx
	sarq	%cl, %rbx
	movq	%rbx, 40(%rax)
	movq	%r14, 8(%rax)
	movq	size_int_type_wide.new_const(%rip), %rdi
	xorq	%rsi, %rsi
	callq	force_fit_type
	movq	size_int_type_wide.new_const(%rip), %rdx
	movl	16(%rdx), %esi
	andq	$1, %rax
	movq	$18, %rcx
	movq	%rax, %rdi
	shlq	%cl, %rdi
	movabsq	$4294705151, %rcx       # imm = 0xFFFBFFFF
	andq	%rsi, %rcx
	orq	%rdi, %rcx
	movl	%ecx, 16(%rdx)
	movq	size_int_type_wide.new_const(%rip), %rdx
	movl	16(%rdx), %esi
	movq	$19, %rcx
	shlq	%cl, %rax
	movabsq	$4294443007, %rcx       # imm = 0xFFF7FFFF
	andq	%rsi, %rcx
	orq	%rax, %rcx
	movl	%ecx, 16(%rdx)
	movq	size_int_type_wide.size_htab(%rip), %rdi
	movq	size_int_type_wide.new_const(%rip), %rsi
	movq	$1, %rdx
	callq	htab_find_slot
	movq	(%rax), %rbx
	testq	%rbx, %rbx
	jne	.LBB10_4
# BB#3:                                 # %if.then18
	movq	size_int_type_wide.new_const(%rip), %rbx
	movq	%rbx, (%rax)
	movq	$25, %rdi
	callq	make_node
	movq	%rax, size_int_type_wide.new_const(%rip)
.LBB10_4:                               # %return
	movq	%rbx, %rax
	addq	$8, %rsp
	popq	%rbx
	popq	%r14
	retq
.Ltmp96:
	.size	size_int_type_wide, .Ltmp96-size_int_type_wide
	.cfi_endproc

	.align	16, 0x90
	.type	size_htab_hash,@function
size_htab_hash:                         # @size_htab_hash
	.cfi_startproc
# BB#0:                                 # %entry
	movq	40(%rdi), %rax
	movq	8(%rdi), %rdx
	movq	32(%rdi), %rsi
	xorq	%rax, %rsi
	movl	16(%rdi), %eax
	movq	$3, %rcx
	shrq	%cl, %rdx
	xorq	%rsi, %rdx
	addq	%rax, %rax
	andq	$1048576, %rax          # imm = 0x100000
	xorq	%rdx, %rax
	retq
.Ltmp97:
	.size	size_htab_hash, .Ltmp97-size_htab_hash
	.cfi_endproc

	.align	16, 0x90
	.type	size_htab_eq,@function
size_htab_eq:                           # @size_htab_eq
	.cfi_startproc
# BB#0:                                 # %entry
	movq	40(%rdi), %rcx
	movq	40(%rsi), %rdx
	xorq	%rax, %rax
	cmpq	%rdx, %rcx
	jne	.LBB12_6
# BB#1:                                 # %land.lhs.true
	movq	32(%rdi), %rcx
	movq	32(%rsi), %rdx
	cmpq	%rdx, %rcx
	jne	.LBB12_6
# BB#2:                                 # %land.lhs.true11
	movq	8(%rdi), %rcx
	movq	8(%rsi), %rdx
	cmpq	%rdx, %rcx
	jne	.LBB12_6
# BB#3:                                 # %land.rhs
	movl	16(%rdi), %eax
	movl	16(%rsi), %ecx
	xorq	%rax, %rcx
	testq	$524288, %rcx           # imm = 0x80000
	jne	.LBB12_4
# BB#5:                                 # %land.rhs
	movabsq	$1, %rax
.LBB12_6:                               # %land.end
	retq
.LBB12_4:
	movabsq	$0, %rax
	retq
.Ltmp98:
	.size	size_htab_eq, .Ltmp98-size_htab_eq
	.cfi_endproc

	.globl	size_binop
	.align	16, 0x90
	.type	size_binop,@function
size_binop:                             # @size_binop
	.cfi_startproc
# BB#0:                                 # %entry
	pushq	%r15
.Ltmp105:
	.cfi_def_cfa_offset 16
	pushq	%r14
.Ltmp106:
	.cfi_def_cfa_offset 24
	pushq	%r13
.Ltmp107:
	.cfi_def_cfa_offset 32
	pushq	%r12
.Ltmp108:
	.cfi_def_cfa_offset 40
	pushq	%rbx
.Ltmp109:
	.cfi_def_cfa_offset 48
.Ltmp110:
	.cfi_offset %rbx, -48
.Ltmp111:
	.cfi_offset %r12, -40
.Ltmp112:
	.cfi_offset %r13, -32
.Ltmp113:
	.cfi_offset %r14, -24
.Ltmp114:
	.cfi_offset %r15, -16
	movq	%rsi, %rbx
	movq	8(%rbx), %rsi
	movzbl	16(%rsi), %eax
	movq	%rdx, %r14
	movq	%rdi, %r15
	cmpq	$6, %rax
	jne	.LBB13_18
# BB#1:                                 # %lor.lhs.false
	movzbl	62(%rsi), %eax
	testq	$2, %rax
	je	.LBB13_18
# BB#2:                                 # %lor.lhs.false7
	movq	8(%r14), %rax
	cmpq	%rax, %rsi
	jne	.LBB13_18
# BB#3:                                 # %if.end
	movzbl	16(%rbx), %eax
	cmpq	$25, %rax
	jne	.LBB13_15
# BB#4:                                 # %land.lhs.true
	movzbl	16(%r14), %eax
	cmpq	$25, %rax
	jne	.LBB13_15
# BB#5:                                 # %if.then21
	movabsq	$4294967295, %r12       # imm = 0xFFFFFFFF
	movq	%r15, %r13
	andq	%r12, %r13
	cmpq	$59, %r13
	jne	.LBB13_8
# BB#6:                                 # %land.lhs.true23
	movq	%rbx, %rdi
	callq	integer_zerop
	testq	%r12, %rax
	je	.LBB13_9
# BB#7:
	movq	%r14, %rax
	jmp	.LBB13_17
.LBB13_15:                              # %if.end43
	movq	global_trees(%rip), %rax
	cmpq	%rbx, %rax
	je	.LBB13_17
# BB#16:                                # %if.end43
	cmpq	%r14, %rax
	je	.LBB13_17
# BB#19:                                # %if.end48
	xorq	%rax, %rax
	movq	%r15, %rdi
	movq	%rbx, %rdx
	movq	%r14, %rcx
	callq	build
	movq	%rax, %rdi
	popq	%rbx
	popq	%r12
	popq	%r13
	popq	%r14
	popq	%r15
	jmp	fold  # TAILCALL
.LBB13_8:                               # %if.else
	leaq	-59(%r15), %rax
	andq	%r12, %rax
	cmpq	$1, %rax
	ja	.LBB13_11
.LBB13_9:                               # %land.lhs.true29
	movq	%r14, %rdi
	callq	integer_zerop
	testq	%r12, %rax
	je	.LBB13_11
# BB#10:
	movq	%rbx, %rax
	jmp	.LBB13_17
.LBB13_11:                              # %if.else33
	cmpq	$61, %r13
	jne	.LBB13_14
# BB#12:                                # %land.lhs.true35
	movq	%rbx, %rdi
	callq	integer_onep
	testq	%r12, %rax
	je	.LBB13_14
# BB#13:
	movq	%r14, %rax
.LBB13_17:                              # %return
	popq	%rbx
	popq	%r12
	popq	%r13
	popq	%r14
	popq	%r15
	retq
.LBB13_14:                              # %if.end41
	movq	%r15, %rdi
	movq	%rbx, %rsi
	movq	%r14, %rdx
	popq	%rbx
	popq	%r12
	popq	%r13
	popq	%r14
	popq	%r15
	jmp	int_const_binop  # TAILCALL
.LBB13_18:                              # %if.then
	movabsq	$.L.str, %rax
	movabsq	$.L__FUNCTION__.size_binop, %rcx
	movq	$2014, %rsi             # imm = 0x7DE
	movq	%rax, %rdi
	movq	%rcx, %rdx
	callq	fancy_abort
.Ltmp115:
	.size	size_binop, .Ltmp115-size_binop
	.cfi_endproc

	.align	16, 0x90
	.type	int_const_binop,@function
int_const_binop:                        # @int_const_binop
	.cfi_startproc
# BB#0:                                 # %entry
	pushq	%r15
.Ltmp122:
	.cfi_def_cfa_offset 16
	pushq	%r14
.Ltmp123:
	.cfi_def_cfa_offset 24
	pushq	%r13
.Ltmp124:
	.cfi_def_cfa_offset 32
	pushq	%r12
.Ltmp125:
	.cfi_def_cfa_offset 40
	pushq	%rbx
.Ltmp126:
	.cfi_def_cfa_offset 48
	subq	$112, %rsp
.Ltmp127:
	.cfi_def_cfa_offset 160
.Ltmp128:
	.cfi_offset %rbx, -48
.Ltmp129:
	.cfi_offset %r12, -40
.Ltmp130:
	.cfi_offset %r13, -32
.Ltmp131:
	.cfi_offset %r14, -24
.Ltmp132:
	.cfi_offset %r15, -16
	movq	%rsi, %rbx
	movq	8(%rbx), %r15
	movl	16(%r15), %eax
	movq	$13, %rcx
	movq	%rax, %r13
	shrq	%cl, %r13
	andq	$255, %rax
	xorq	%r12, %r12
	cmpq	$6, %rax
	jne	.LBB14_2
# BB#1:                                 # %land.rhs
	movzbl	62(%r15), %r12d
	andq	$2, %r12
	movq	$1, %rcx
	shrq	%cl, %r12
.LBB14_2:                               # %land.end
	leaq	-59(%rdi), %rcx
	movabsq	$4294967295, %rax       # imm = 0xFFFFFFFF
	andq	%rax, %rcx
	cmpq	$30, %rcx
	ja	.LBB14_78
# BB#3:                                 # %land.end
	movq	32(%rbx), %r14
	movq	40(%rbx), %r11
	movq	32(%rdx), %r8
	movq	40(%rdx), %r10
	andq	$1, %r13
	movabsq	$-9223372036854775808, %rax # imm = 0x8000000000000000
	jmpq	*.LJTI14_0(,%rcx,8)
.LBB14_28:                              # %sw.bb54
	testq	%r10, %r10
	jne	.LBB14_39
# BB#29:                                # %sw.bb54
	testq	%r8, %r8
	jle	.LBB14_39
# BB#30:                                # %land.lhs.true59
	movzbl	18(%rbx), %eax
	testq	$4, %rax
	jne	.LBB14_39
# BB#31:                                # %land.lhs.true65
	movl	16(%rdx), %eax
	testq	$262144, %rax           # imm = 0x40000
	jne	.LBB14_39
# BB#32:                                # %land.lhs.true65
	testq	%r11, %r11
	jne	.LBB14_39
# BB#33:                                # %land.lhs.true65
	testq	%r14, %r14
	js	.LBB14_39
# BB#34:                                # %if.then
	movabsq	$4294967295, %rax       # imm = 0xFFFFFFFF
	andq	%rax, %rdi
	cmpq	$63, %rdi
	jne	.LBB14_35
# BB#36:                                # %if.then80
	movq	%rdx, 48(%rsp)          # 8-byte Spill
	leaq	-1(%r14,%r8), %r14
	jmp	.LBB14_37
.LBB14_39:                              # %sw.bb83
	testq	%r10, %r10
	jne	.LBB14_42
# BB#40:                                # %sw.bb83
	cmpq	$1, %r8
	jne	.LBB14_42
# BB#41:                                # %if.then89
	movq	%rdx, 48(%rsp)          # 8-byte Spill
	jmp	.LBB14_72
.LBB14_49:                              # %sw.bb105
	testq	%r10, %r10
	jne	.LBB14_59
# BB#50:                                # %sw.bb105
	testq	%r8, %r8
	jle	.LBB14_59
# BB#51:                                # %land.lhs.true111
	movzbl	18(%rbx), %eax
	testq	$4, %rax
	jne	.LBB14_59
# BB#52:                                # %land.lhs.true118
	movl	16(%rdx), %eax
	testq	$262144, %rax           # imm = 0x40000
	jne	.LBB14_59
# BB#53:                                # %land.lhs.true118
	testq	%r11, %r11
	jne	.LBB14_59
# BB#54:                                # %land.lhs.true118
	testq	%r14, %r14
	js	.LBB14_59
# BB#55:                                # %if.then131
	movabsq	$4294967295, %rax       # imm = 0xFFFFFFFF
	andq	%rax, %rdi
	cmpq	$67, %rdi
	jne	.LBB14_56
# BB#57:                                # %if.then134
	movq	%rdx, 48(%rsp)          # 8-byte Spill
	leaq	-1(%r14,%r8), %r14
	jmp	.LBB14_58
.LBB14_59:                              # %sw.bb139
	movq	%rdx, 48(%rsp)          # 8-byte Spill
	leaq	80(%rsp), %rax
	movq	%rax, 24(%rsp)
	leaq	88(%rsp), %rax
	movq	%rax, 16(%rsp)
	leaq	64(%rsp), %rax
	movq	%rax, 8(%rsp)
	leaq	72(%rsp), %rax
	jmp	.LBB14_47
.LBB14_42:                              # %if.end90
	cmpq	%r10, %r11
	jne	.LBB14_46
# BB#43:                                # %if.end90
	cmpq	%r8, %r14
	jne	.LBB14_46
# BB#44:                                # %if.end90
	movq	%r11, %rax
	orq	%r14, %rax
	je	.LBB14_46
# BB#45:                                # %if.then102
	movq	%rdx, 48(%rsp)          # 8-byte Spill
	movq	$1, 88(%rsp)
	movq	$0, 80(%rsp)
	jmp	.LBB14_74
.LBB14_60:                              # %sw.bb141
	testq	%r13, %r13
	je	.LBB14_67
# BB#61:                                # %if.then143
	cmpq	%r10, %r11
	jb	.LBB14_75
# BB#62:                                # %lor.rhs
	je	.LBB14_64
# BB#63:
	movabsq	$0, %rcx
	jmp	.LBB14_65
.LBB14_78:                              # %sw.default
	movabsq	$.L.str, %rdi
	movabsq	$.L__FUNCTION__.int_const_binop, %rdx
	movq	$1671, %rsi             # imm = 0x687
	callq	fancy_abort
.LBB14_46:                              # %if.end103
	movq	%rdx, 48(%rsp)          # 8-byte Spill
	leaq	64(%rsp), %rax
	movq	%rax, 24(%rsp)
	leaq	72(%rsp), %rax
	movq	%rax, 16(%rsp)
	leaq	80(%rsp), %rax
	movq	%rax, 8(%rsp)
	leaq	88(%rsp), %rax
.LBB14_47:                              # %sw.epilog
	movq	%rax, (%rsp)
	movq	%r13, %rsi
	movq	%r14, %rdx
	movq	%r11, %rcx
	movq	%r10, %r9
	callq	div_and_round_double
	jmp	.LBB14_48
.LBB14_79:                              # %sw.bb43
	movq	%rdx, 48(%rsp)          # 8-byte Spill
	addq	%r8, %r14
	sbbq	%rcx, %rcx
	xorq	%r11, %rax
	xorq	%r10, %rax
	movq	%r14, %rdx
	leaq	(%r10,%r11), %r14
	subq	%rcx, %r14
	movq	%rdx, 88(%rsp)
	movq	%r14, 80(%rsp)
	xorq	%r11, %r14
	andq	%rax, %r14
	movq	$63, %rcx
	shrq	%cl, %r14
	movq	$0, 40(%rsp)            # 8-byte Folded Spill
	movq	%r14, %r10
	jmp	.LBB14_80
.LBB14_23:                              # %sw.bb44
	testq	%r8, %r8
	je	.LBB14_24
# BB#25:                                # %if.else.i
	movq	%rdx, 48(%rsp)          # 8-byte Spill
	negq	%r8
	movq	%r8, 88(%rsp)
	movq	%r10, %rcx
	notq	%rcx
	jmp	.LBB14_26
.LBB14_27:                              # %sw.bb52
	movq	%rdx, 48(%rsp)          # 8-byte Spill
	leaq	88(%rsp), %rax
	leaq	80(%rsp), %r9
	movq	%r14, %rdi
	movq	%r11, %rsi
	movq	%r8, %rdx
	movq	%r10, %rcx
	movq	%rax, %r8
	callq	mul_double
.LBB14_48:                              # %sw.epilog
	movq	%rax, %r10
	movq	$0, 40(%rsp)            # 8-byte Folded Spill
	jmp	.LBB14_80
.LBB14_8:                               # %sw.bb30
	negq	%r8
.LBB14_9:                               # %sw.bb31
	movq	%rdx, 48(%rsp)          # 8-byte Spill
	movl	60(%r15), %ecx
	andq	$511, %rcx              # imm = 0x1FF
	movq	%r13, %rdx
	xorq	$1, %rdx
	leaq	88(%rsp), %rax
	leaq	80(%rsp), %r9
	movq	%rdx, (%rsp)
	movq	%r14, %rdi
	movq	%r11, %rsi
	movq	%r8, %rdx
	movq	%rax, %r8
	callq	lshift_double
	movq	$1, 40(%rsp)            # 8-byte Folded Spill
	xorq	%r10, %r10
	jmp	.LBB14_80
.LBB14_10:                              # %sw.bb36
	negq	%r8
.LBB14_11:                              # %sw.bb38
	movq	%rdx, 48(%rsp)          # 8-byte Spill
	movq	%r15, %rax
	movq	%rax, 32(%rsp)          # 8-byte Spill
	movq	%rbx, 56(%rsp)          # 8-byte Spill
	movl	60(%rax), %ebx
	andq	$511, %rbx              # imm = 0x1FF
	movq	%r8, %rax
	cqto
	idivq	%rbx
	movq	$63, %rcx
	movq	%r14, %rdi
	movq	%rdi, 40(%rsp)          # 8-byte Spill
	movq	%rdx, %r14
	sarq	%cl, %r14
	andq	%rbx, %r14
	addq	%rdx, %r14
	leaq	104(%rsp), %r8
	leaq	96(%rsp), %r9
	movq	$0, (%rsp)
	movq	%r11, %rsi
	movq	%r11, %r15
	movq	%r14, %rdx
	movq	%rbx, %rcx
	callq	lshift_double
	subq	%r14, %rbx
	xorq	%rax, %rax
	cmpq	$127, %rbx
	movabsq	$0, %rdx
	movabsq	$0, %rsi
	jg	.LBB14_15
# BB#12:                                # %if.else.i.i
	cmpq	$64, %rbx
	jl	.LBB14_14
# BB#13:                                # %if.then2.i.i
	addq	$-64, %rbx
	movq	%rbx, %rcx
	shrq	%cl, %r15
	movq	%r15, %rdx
	xorq	%rsi, %rsi
	jmp	.LBB14_15
.LBB14_4:                               # %sw.bb
	movq	%rdx, 48(%rsp)          # 8-byte Spill
	orq	%r14, %r8
	movq	%r8, 88(%rsp)
	orq	%r11, %r10
	movq	%r10, 80(%rsp)
	jmp	.LBB14_74
.LBB14_5:                               # %sw.bb22
	movq	%rdx, 48(%rsp)          # 8-byte Spill
	xorq	%r14, %r8
	movq	%r8, 88(%rsp)
	xorq	%r11, %r10
	movq	%r10, 80(%rsp)
	jmp	.LBB14_74
.LBB14_6:                               # %sw.bb24
	movq	%rdx, 48(%rsp)          # 8-byte Spill
	andq	%r14, %r8
	movq	%r8, 88(%rsp)
	andq	%r11, %r10
	movq	%r10, 80(%rsp)
	jmp	.LBB14_74
.LBB14_7:                               # %sw.bb26
	movq	%rdx, 48(%rsp)          # 8-byte Spill
	notq	%r8
	andq	%r8, %r14
	movq	%r14, 88(%rsp)
	notq	%r10
	andq	%r10, %r11
	jmp	.LBB14_73
.LBB14_67:                              # %if.else
	cmpq	%r10, %r11
	jge	.LBB14_68
.LBB14_75:                              # %if.end167.thr_comm
	movq	%rdx, 48(%rsp)          # 8-byte Spill
	movq	$1, 88(%rsp)
	movabsq	$4294967295, %rax       # imm = 0xFFFFFFFF
	andq	%rax, %rdi
	cmpq	$78, %rdi
	je	.LBB14_72
	jmp	.LBB14_76
.LBB14_14:                              # %if.else5.i.i
	movq	%r15, %rsi
	movq	%rbx, %rcx
	shrq	%cl, %rsi
	movq	%rbx, %rcx
	movq	40(%rsp), %rdx          # 8-byte Reload
	shrq	%cl, %rdx
	movq	$63, %rcx
	subq	%rbx, %rcx
	shlq	%cl, %r15
	addq	%r15, %r15
	orq	%rdx, %r15
	movq	%r15, %rdx
.LBB14_15:                              # %if.end11.i.i
	testq	%r14, %r14
	movq	56(%rsp), %rbx          # 8-byte Reload
	jle	.LBB14_16
# BB#17:                                # %if.else15.i.i
	cmpq	$127, %r14
	movq	32(%rsp), %r15          # 8-byte Reload
	jle	.LBB14_19
# BB#18:
	movq	%rsi, %rax
	jmp	.LBB14_22
.LBB14_16:
	xorq	%rdx, %rdx
	movq	32(%rsp), %r15          # 8-byte Reload
	jmp	.LBB14_22
.LBB14_19:                              # %if.else21.i.i
	cmpq	$64, %r14
	jl	.LBB14_21
# BB#20:                                # %if.then26.i.i
	addq	$-64, %r14
	movq	$-1, %rax
	movq	%r14, %rcx
	shlq	%cl, %rax
	notq	%rax
	andq	%rax, %rsi
	movq	%rsi, %rax
	jmp	.LBB14_22
.LBB14_24:                              # %if.then.i
	movq	%rdx, 48(%rsp)          # 8-byte Spill
	movq	$0, 88(%rsp)
	movq	%r10, %rcx
	negq	%rcx
	xorq	%r8, %r8
.LBB14_26:                              # %neg_double.exit
	addq	%r8, %r14
	sbbq	%rdx, %rdx
	addq	%r11, %rcx
	subq	%rdx, %rcx
	movq	%r14, 88(%rsp)
	movq	%rcx, 80(%rsp)
	xorq	%rcx, %r11
	xorq	%rax, %r10
	xorq	%rcx, %r10
	andq	%r11, %r10
	movq	$63, %rcx
	shrq	%cl, %r10
	movq	$0, 40(%rsp)            # 8-byte Folded Spill
	jmp	.LBB14_80
.LBB14_68:                              # %lor.rhs156
	jne	.LBB14_69
.LBB14_64:                              # %lor.rhs
	movabsq	$1, %rcx
	jmp	.LBB14_65
.LBB14_21:                              # %if.else36.i.i
	movq	$-1, %rsi
	movq	%r14, %rcx
	shlq	%cl, %rsi
	notq	%rsi
	andq	%rsi, %rdx
.LBB14_22:                              # %lrotate_double.exit
	movq	104(%rsp), %rcx
	orq	%rdx, %rcx
	movq	96(%rsp), %rdx
	movq	%rcx, 88(%rsp)
	orq	%rax, %rdx
	movq	%rdx, 80(%rsp)
	jmp	.LBB14_74
.LBB14_35:
	movq	%rdx, 48(%rsp)          # 8-byte Spill
.LBB14_37:                              # %if.end
	xorq	%r10, %r10
	xorq	%rdx, %rdx
	movq	%r14, %rax
	divq	%r8
	movq	%rax, 88(%rsp)
	jmp	.LBB14_38
.LBB14_69:
	movabsq	$0, %rcx
.LBB14_65:                              # %lor.rhs
	movq	%rdx, 48(%rsp)          # 8-byte Spill
	cmpq	%r8, %r14
	sbbq	%rax, %rax
	andq	%rcx, %rax
	movq	%rax, 88(%rsp)
	movabsq	$4294967295, %rcx       # imm = 0xFFFFFFFF
	andq	%rcx, %rdi
	cmpq	$78, %rdi
	jne	.LBB14_66
# BB#70:                                # %if.end167
	movabsq	$1, %rcx
	jmp	.LBB14_71
.LBB14_66:
	movabsq	$0, %rcx
.LBB14_71:                              # %if.end167
	xorq	%rcx, %rax
	je	.LBB14_72
.LBB14_76:                              # %if.else174
	movq	%r8, 88(%rsp)
	movq	%r10, 80(%rsp)
	jmp	.LBB14_74
.LBB14_72:                              # %if.then173
	movq	%r14, 88(%rsp)
.LBB14_73:                              # %sw.epilog
	movq	%r11, 80(%rsp)
.LBB14_74:                              # %sw.epilog
	xorq	%r10, %r10
	movq	$0, 40(%rsp)            # 8-byte Folded Spill
.LBB14_80:                              # %sw.epilog
	testq	%r12, %r12
	je	.LBB14_81
# BB#97:                                # %land.lhs.true177
	movq	%r12, 56(%rsp)          # 8-byte Spill
	movq	80(%rsp), %rsi
	movq	88(%rsp), %rdi
	testq	%rsi, %rsi
	jne	.LBB14_99
# BB#98:                                # %land.lhs.true177
	testq	%rdi, %rdi
	js	.LBB14_99
# BB#105:                               # %land.lhs.true188
	movabsq	$4294967295, %rax       # imm = 0xFFFFFFFF
	testq	%rax, %r10
	je	.LBB14_107
# BB#106:
	movq	%r10, %r14
	xorq	%rsi, %rsi
	jmp	.LBB14_82
.LBB14_81:                              # %sw.epilog.if.else206_crit_edge
	movq	%r10, %r14
	movq	%r12, 56(%rsp)          # 8-byte Spill
	movq	88(%rsp), %rdi
	movq	80(%rsp), %rsi
	jmp	.LBB14_82
.LBB14_99:                              # %lor.lhs.false
	cmpq	$-1, %rsi
	jne	.LBB14_100
# BB#101:                               # %lor.lhs.false
	testq	%rdi, %rdi
	jns	.LBB14_102
# BB#103:                               # %lor.lhs.false
	movabsq	$4294967295, %rax       # imm = 0xFFFFFFFF
	testq	%rax, %r10
	jne	.LBB14_104
.LBB14_107:                             # %land.lhs.true191
	movzbl	18(%rbx), %eax
	movq	%r10, %r14
	testq	$8, %rax
	jne	.LBB14_82
# BB#108:                               # %land.lhs.true197
	movq	48(%rsp), %rax          # 8-byte Reload
	movzbl	18(%rax), %eax
	testq	$8, %rax
	jne	.LBB14_82
# BB#109:                               # %if.then204
	movq	%r15, %rsi
	callq	size_int_type_wide
	movq	%rax, %r15
	jmp	.LBB14_110
.LBB14_104:
	movq	%r10, %r14
	jmp	.LBB14_82
.LBB14_100:
	movq	%r10, %r14
	jmp	.LBB14_82
.LBB14_102:
	movq	%r10, %r14
.LBB14_82:                              # %if.else206
	callq	build_int_2_wide
	movq	%rax, %r15
	movq	8(%rbx), %rax
	movq	%rbx, %r12
	movq	%rax, 8(%r15)
	testq	%r13, %r13
	movabsq	$0, %rbx
	movabsq	$1, %r13
	movq	%rbx, %rsi
	jne	.LBB14_84
# BB#83:                                # %if.else206
	movq	%r13, %rsi
.LBB14_84:                              # %if.else206
	movq	56(%rsp), %rax          # 8-byte Reload
	orq	%rax, %rsi
	movabsq	$4294967295, %rax       # imm = 0xFFFFFFFF
	testq	%rax, %r14
	movq	%rbx, %rax
	je	.LBB14_86
# BB#85:                                # %if.else206
	movq	%r13, %rax
.LBB14_86:                              # %if.else206
	andq	%rax, %rsi
	movq	%r15, %rdi
	callq	force_fit_type
	cmpq	$0, 40(%rsp)            # 8-byte Folded Reload
	movq	%rbx, %rsi
	jne	.LBB14_88
# BB#87:                                # %if.else206
	movq	%r13, %rsi
.LBB14_88:                              # %if.else206
	movabsq	$4294967295, %rcx       # imm = 0xFFFFFFFF
	testq	%rcx, %rax
	movq	%rbx, %rax
	movq	48(%rsp), %rdi          # 8-byte Reload
	je	.LBB14_90
# BB#89:                                # %if.else206
	movq	%r13, %rax
.LBB14_90:                              # %if.else206
	andq	%rax, %rsi
	movl	16(%r12), %r8d
	movl	16(%rdi), %eax
	movl	16(%r15), %edx
	movq	$19, %rcx
	shlq	%cl, %rsi
	orq	%r8, %rax
	andq	$524288, %rax           # imm = 0x80000
	movq	%rdx, %rcx
	andq	$-524289, %rcx          # imm = 0xFFFFFFFFFFF7FFFF
	orq	%rsi, %rax
	jne	.LBB14_92
# BB#91:                                # %if.else206
	movq	%r13, %rbx
.LBB14_92:                              # %if.else206
	orq	%rcx, %rax
	movl	%eax, 16(%r15)
	movq	56(%rsp), %rcx          # 8-byte Reload
	testq	%rbx, %rcx
	je	.LBB14_96
# BB#93:                                # %land.lhs.true260
	movq	40(%r15), %rcx
	movq	80(%rsp), %rsi
	cmpq	%rsi, %rcx
	jne	.LBB14_95
# BB#94:                                # %lor.lhs.false266
	movq	32(%r15), %rcx
	movq	88(%rsp), %rsi
	cmpq	%rsi, %rcx
	je	.LBB14_96
.LBB14_95:                              # %if.then272
	orq	$524288, %rdx           # imm = 0x80000
	movl	%edx, 16(%r15)
	movq	%rdx, %rax
.LBB14_96:                              # %if.end278
	movl	16(%r12), %edx
	movl	16(%rdi), %esi
	movq	$1, %rcx
	movq	%rax, %rdi
	shrq	%cl, %rdi
	orq	%rdx, %rdi
	orq	%rsi, %rdi
	andq	$262144, %rdi           # imm = 0x40000
	movabsq	$4294705151, %rcx       # imm = 0xFFFBFFFF
	andq	%rax, %rcx
	orq	%rdi, %rcx
	movl	%ecx, 16(%r15)
.LBB14_110:                             # %return
	movq	%r15, %rax
	addq	$112, %rsp
	popq	%rbx
	popq	%r12
	popq	%r13
	popq	%r14
	popq	%r15
	retq
.LBB14_56:
	movq	%rdx, 48(%rsp)          # 8-byte Spill
.LBB14_58:                              # %if.end137
	xorq	%r10, %r10
	xorq	%rdx, %rdx
	movq	%r14, %rax
	divq	%r8
	movq	%rdx, 88(%rsp)
.LBB14_38:                              # %sw.epilog
	movq	$0, 80(%rsp)
	movq	$0, 40(%rsp)            # 8-byte Folded Spill
	jmp	.LBB14_80
.Ltmp133:
	.size	int_const_binop, .Ltmp133-int_const_binop
	.cfi_endproc
	.section	.rodata,"a",@progbits
	.align	8
.LJTI14_0:
	.quad	.LBB14_79
	.quad	.LBB14_23
	.quad	.LBB14_27
	.quad	.LBB14_28
	.quad	.LBB14_28
	.quad	.LBB14_28
	.quad	.LBB14_39
	.quad	.LBB14_49
	.quad	.LBB14_49
	.quad	.LBB14_49
	.quad	.LBB14_59
	.quad	.LBB14_78
	.quad	.LBB14_28
	.quad	.LBB14_78
	.quad	.LBB14_78
	.quad	.LBB14_78
	.quad	.LBB14_78
	.quad	.LBB14_78
	.quad	.LBB14_78
	.quad	.LBB14_60
	.quad	.LBB14_60
	.quad	.LBB14_78
	.quad	.LBB14_78
	.quad	.LBB14_9
	.quad	.LBB14_8
	.quad	.LBB14_11
	.quad	.LBB14_10
	.quad	.LBB14_4
	.quad	.LBB14_5
	.quad	.LBB14_6
	.quad	.LBB14_7

	.text
	.globl	fold
	.align	16, 0x90
	.type	fold,@function
fold:                                   # @fold
	.cfi_startproc
# BB#0:                                 # %entry
	pushq	%r15
.Ltmp140:
	.cfi_def_cfa_offset 16
	pushq	%r14
.Ltmp141:
	.cfi_def_cfa_offset 24
	pushq	%r13
.Ltmp142:
	.cfi_def_cfa_offset 32
	pushq	%r12
.Ltmp143:
	.cfi_def_cfa_offset 40
	pushq	%rbx
.Ltmp144:
	.cfi_def_cfa_offset 48
	subq	$576, %rsp              # imm = 0x240
.Ltmp145:
	.cfi_def_cfa_offset 624
.Ltmp146:
	.cfi_offset %rbx, -48
.Ltmp147:
	.cfi_offset %r12, -40
.Ltmp148:
	.cfi_offset %r13, -32
.Ltmp149:
	.cfi_offset %r14, -24
.Ltmp150:
	.cfi_offset %r15, -16
	movq	%rdi, %r14
	movl	16(%r14), %eax
	movq	%rax, %rdi
	andq	$255, %rdi
	cmpq	$120, %rdi
	jne	.LBB15_2
# BB#1:
	movq	%r14, %r9
	jmp	.LBB15_1954
.LBB15_2:                               # %entry
	movq	%rax, 136(%rsp)         # 8-byte Spill
	movq	8(%r14), %rcx
	movzbl	tree_code_type(%rdi), %ebx
	cmpq	$118, %rdi
	jne	.LBB15_7
# BB#3:                                 # %land.lhs.true
	cmpq	$0, 48(%r14)
	jne	.LBB15_4
# BB#5:                                 # %land.lhs.true
	movq	%rcx, 128(%rsp)         # 8-byte Spill
	movq	%rbx, %rax
	andq	$255, %rax
	cmpq	$99, %rax
	jne	.LBB15_24
# BB#6:
	movq	%r14, %r9
	jmp	.LBB15_1954
.LBB15_7:                               # %if.end
	movq	%rbx, %rax
	andq	$255, %rax
	cmpq	$99, %rax
	jne	.LBB15_9
# BB#8:
	movq	%r14, %r9
	jmp	.LBB15_1954
.LBB15_9:                               # %if.end13
	movq	%rcx, 128(%rsp)         # 8-byte Spill
	leaq	-76(%rdi), %rcx
	movabsq	$4294967295, %r8        # imm = 0xFFFFFFFF
	andq	%r8, %rcx
	cmpq	$39, %rcx
	ja	.LBB15_24
# BB#10:                                # %if.end13
	movq	$1, %rax
	shlq	%cl, %rax
	movabsq	$824633720833, %rcx     # imm = 0xC000000001
	testq	%rcx, %rax
	je	.LBB15_24
# BB#11:                                # %if.then22
	movq	%rdi, 144(%rsp)         # 8-byte Spill
	movq	32(%r14), %rdi
	movq	$0, 168(%rsp)           # 8-byte Folded Spill
	testq	%rdi, %rdi
	je	.LBB15_12
# BB#13:                                # %while.cond.preheader
	movq	$1, 152(%rsp)           # 8-byte Folded Spill
	movq	global_trees(%rip), %r10
	.align	16, 0x90
.LBB15_14:                              # %while.cond
                                        # =>This Inner Loop Header: Depth=1
	movq	%rdi, %r9
	movl	16(%r9), %ecx
	movq	%rcx, %rsi
	andq	$255, %rsi
	leaq	-114(%rsi), %rax
	andq	%r8, %rax
	cmpq	$2, %rax
	ja	.LBB15_18
# BB#15:                                # %land.lhs.true49
                                        #   in Loop: Header=BB15_14 Depth=1
	movq	32(%r9), %rdi
	cmpq	%r10, %rdi
	je	.LBB15_20
# BB#16:                                # %land.lhs.true55
                                        #   in Loop: Header=BB15_14 Depth=1
	movq	8(%r9), %rbx
	movq	8(%rdi), %rax
	movl	60(%rbx), %r11d
	movl	60(%rax), %edx
	xorq	%r11, %rdx
	testq	$65024, %rdx            # imm = 0xFE00
	jne	.LBB15_20
# BB#17:                                # %land.rhs
                                        #   in Loop: Header=BB15_14 Depth=1
	movl	16(%rbx), %edx
	movl	16(%rax), %eax
	xorq	%rdx, %rax
	testq	$8192, %rax             # imm = 0x2000
	je	.LBB15_14
.LBB15_18:                              # %if.end94
	testq	%r9, %r9
	je	.LBB15_19
.LBB15_20:                              # %land.lhs.true97
	cmpq	$27, %rsi
	jne	.LBB15_23
# BB#21:                                # %if.end105
	movq	32(%r9), %rax
	testq	%rax, %rax
	je	.LBB15_55
# BB#22:                                # %if.end105.land.lhs.true108_crit_edge
	movl	16(%rax), %ecx
.LBB15_23:                              # %land.lhs.true108
	andq	$255, %rcx
	addq	$-25, %rcx
	andq	%r8, %rcx
	cmpq	$2, %rcx
	sbbq	%rax, %rax
	andq	$1, %rax
	movq	%rax, 152(%rsp)         # 8-byte Spill
	jmp	.LBB15_55
.LBB15_24:                              # %if.else124
	movq	$0, 168(%rsp)           # 8-byte Folded Spill
	movq	$56, %rcx
	movq	%rbx, %rax
	shlq	%cl, %rax
	movq	$56, %rcx
	sarq	%cl, %rax
	cmpq	$113, %rax
	jg	.LBB15_29
# BB#25:                                # %if.else124
	leaq	-49(%rbx), %rcx
	andq	$255, %rcx
	cmpq	$52, %rcx
	jbe	.LBB15_27
# BB#26:
	movq	$1, 152(%rsp)           # 8-byte Folded Spill
	jmp	.LBB15_28
.LBB15_29:                              # %if.else124
	movq	$1, 152(%rsp)           # 8-byte Folded Spill
	movq	%rbx, %rax
	andq	$255, %rax
	cmpq	$114, %rax
	jne	.LBB15_28
	jmp	.LBB15_30
.LBB15_4:
	movq	%r14, %r9
	jmp	.LBB15_1954
.LBB15_27:                              # %if.else124
	movq	$1, 152(%rsp)           # 8-byte Folded Spill
	movq	$1, %rax
	shlq	%cl, %rax
	movabsq	$4503599627372547, %rcx # imm = 0x10000000000803
	testq	%rcx, %rax
	je	.LBB15_28
.LBB15_30:                              # %if.then139
	movq	%rdi, 144(%rsp)         # 8-byte Spill
	callq	first_rtl_op
	movq	$32, %rcx
	movq	%rax, %rdx
	shlq	%cl, %rdx
	movq	$32, %rcx
	sarq	%cl, %rdx
	testq	%rdx, %rdx
	movabsq	$0, %r9
	jle	.LBB15_55
# BB#31:                                # %for.body.lr.ph
	andq	$255, %rbx
	cmpq	$60, %rbx
	movabsq	$0, %rcx
	movabsq	$1, %rdx
	movq	%rcx, 160(%rsp)         # 8-byte Spill
	jne	.LBB15_33
# BB#32:                                # %for.body.lr.ph
	movq	%rdx, 160(%rsp)         # 8-byte Spill
.LBB15_33:                              # %for.body.lr.ph
	cmpq	$83, 144(%rsp)          # 8-byte Folded Reload
	jne	.LBB15_35
# BB#34:                                # %for.body.lr.ph
	movq	%rdx, %rcx
.LBB15_35:                              # %for.body.lr.ph
	orq	%rcx, 160(%rsp)         # 8-byte Folded Spill
	movq	$1, 152(%rsp)           # 8-byte Folded Spill
	xorq	%r12, %r12
	movq	global_trees(%rip), %r11
	movabsq	$4294967295, %r10       # imm = 0xFFFFFFFF
	andq	%r10, %rax
	xorq	%r9, %r9
	movq	$0, 168(%rsp)           # 8-byte Folded Spill
	.align	16, 0x90
.LBB15_36:                              # %for.body
                                        # =>This Loop Header: Depth=1
                                        #     Child Loop BB15_42 Depth 2
                                        #     Child Loop BB15_38 Depth 2
	movq	32(%r14,%r12,8), %rcx
	testq	%rcx, %rcx
	je	.LBB15_54
# BB#37:                                # %if.end150
                                        #   in Loop: Header=BB15_36 Depth=1
	movq	%r14, %r8
	cmpq	$0, 160(%rsp)           # 8-byte Folded Reload
	je	.LBB15_42
	.align	16, 0x90
.LBB15_38:                              # %while.cond157
                                        #   Parent Loop BB15_36 Depth=1
                                        # =>  This Inner Loop Header: Depth=2
	movq	%rcx, %rbx
	movl	16(%rbx), %edx
	movq	%rdx, %rcx
	andq	$255, %rcx
	addq	$-114, %rcx
	andq	%r10, %rcx
	cmpq	$2, %rcx
	ja	.LBB15_45
# BB#39:                                # %land.lhs.true178
                                        #   in Loop: Header=BB15_38 Depth=2
	movq	32(%rbx), %rcx
	cmpq	%r11, %rcx
	je	.LBB15_45
# BB#40:                                # %land.lhs.true184
                                        #   in Loop: Header=BB15_38 Depth=2
	movq	8(%rbx), %rdi
	movq	8(%rcx), %r15
	movl	60(%rdi), %r14d
	movl	60(%r15), %r13d
	xorq	%r14, %r13
	testq	$65024, %r13            # imm = 0xFE00
	jne	.LBB15_45
# BB#41:                                # %land.rhs204
                                        #   in Loop: Header=BB15_38 Depth=2
	movl	16(%rdi), %edi
	movl	16(%r15), %esi
	xorq	%rdi, %rsi
	testq	$8192, %rsi             # imm = 0x2000
	je	.LBB15_38
	jmp	.LBB15_45
	.align	16, 0x90
.LBB15_42:                              # %while.cond231
                                        #   Parent Loop BB15_36 Depth=1
                                        # =>  This Inner Loop Header: Depth=2
	movq	%rcx, %rbx
	movl	16(%rbx), %edx
	movq	%rdx, %rcx
	andq	$255, %rcx
	addq	$-114, %rcx
	andq	%r10, %rcx
	cmpq	$2, %rcx
	ja	.LBB15_45
# BB#43:                                # %land.lhs.true252
                                        #   in Loop: Header=BB15_42 Depth=2
	movq	32(%rbx), %rcx
	cmpq	%r11, %rcx
	je	.LBB15_45
# BB#44:                                # %land.rhs258
                                        #   in Loop: Header=BB15_42 Depth=2
	movq	8(%rbx), %rsi
	movq	8(%rcx), %rdi
	movl	60(%rsi), %esi
	movl	60(%rdi), %edi
	xorq	%rsi, %rdi
	testq	$65024, %rdi            # imm = 0xFE00
	je	.LBB15_42
	.align	16, 0x90
.LBB15_45:                              # %if.end284
                                        #   in Loop: Header=BB15_36 Depth=1
	movq	%rdx, %rcx
	andq	$255, %rcx
	cmpq	$27, %rcx
	jne	.LBB15_47
# BB#46:                                # %if.then291
                                        #   in Loop: Header=BB15_36 Depth=1
	movq	32(%rbx), %rcx
	movl	16(%rcx), %edx
.LBB15_47:                              # %if.end295
                                        #   in Loop: Header=BB15_36 Depth=1
	andq	$255, %rdx
	addq	$-25, %rdx
	andq	%r10, %rdx
	cmpq	$2, %rdx
	jb	.LBB15_49
# BB#48:                                # %if.end295
                                        #   in Loop: Header=BB15_36 Depth=1
	movq	$0, 152(%rsp)           # 8-byte Folded Spill
.LBB15_49:                              # %if.end295
                                        #   in Loop: Header=BB15_36 Depth=1
	testq	%r10, %r12
	movq	%r8, %r14
	jne	.LBB15_51
# BB#50:                                #   in Loop: Header=BB15_36 Depth=1
	movq	%rbx, %r9
	jmp	.LBB15_54
	.align	16, 0x90
.LBB15_51:                              # %if.else314
                                        #   in Loop: Header=BB15_36 Depth=1
	movq	%r12, %rcx
	andq	%r10, %rcx
	cmpq	$1, %rcx
	je	.LBB15_53
# BB#52:                                # %if.else314
                                        #   in Loop: Header=BB15_36 Depth=1
	movq	168(%rsp), %rbx         # 8-byte Reload
.LBB15_53:                              # %if.else314
                                        #   in Loop: Header=BB15_36 Depth=1
	movq	%rbx, 168(%rsp)         # 8-byte Spill
.LBB15_54:                              # %for.inc
                                        #   in Loop: Header=BB15_36 Depth=1
	incq	%r12
	movq	%r12, %rcx
	andq	%r10, %rcx
	cmpq	%rax, %rcx
	jne	.LBB15_36
	jmp	.LBB15_55
.LBB15_28:
	movq	%rdi, 144(%rsp)         # 8-byte Spill
	xorq	%r9, %r9
.LBB15_55:                              # %if.end321
	movq	144(%rsp), %rbx         # 8-byte Reload
	leaq	-59(%rbx), %rcx
	movabsq	$4294967295, %rdx       # imm = 0xFFFFFFFF
	andq	%rdx, %rcx
	cmpq	$29, %rcx
	jbe	.LBB15_57
# BB#56:
	movq	%r14, 120(%rsp)         # 8-byte Spill
	movq	168(%rsp), %r15         # 8-byte Reload
	movq	%r9, %r13
	jmp	.LBB15_61
.LBB15_57:                              # %if.end321
	movq	$1, %rax
	shlq	%cl, %rax
	testq	$941096965, %rax        # imm = 0x38180005
	movq	168(%rsp), %r13         # 8-byte Reload
	je	.LBB15_58
# BB#59:                                # %land.lhs.true342
	movzbl	16(%r9), %eax
	addq	$-25, %rax
	andq	%rdx, %rax
	cmpq	$1, %rax
	ja	.LBB15_58
# BB#60:                                # %if.then356
	movq	32(%r14), %rax
	movq	40(%r14), %rcx
	movq	%rcx, 32(%r14)
	movq	%rax, 40(%r14)
	movq	%r14, 120(%rsp)         # 8-byte Spill
	movq	%r9, %r15
	jmp	.LBB15_61
.LBB15_58:
	movq	%r14, 120(%rsp)         # 8-byte Spill
	movq	%r13, %r15
	movq	%r9, %r13
.LBB15_61:                              # %if.end369
	leaq	-86(%rbx), %rcx
	andq	%rdx, %rcx
	cmpq	$16, %rcx
	ja	.LBB15_102
# BB#62:                                # %if.end369
	movq	$1, %rax
	shlq	%cl, %rax
	testq	$98309, %rax            # imm = 0x18005
	je	.LBB15_102
# BB#63:                                # %land.lhs.true381
	movzbl	16(%r13), %eax
	movzbl	tree_code_type(%rax), %ecx
	cmpq	$60, %rcx
	je	.LBB15_70
# BB#64:                                # %land.lhs.true381
	cmpq	$93, %rax
	je	.LBB15_70
# BB#65:                                # %land.lhs.true381
	cmpq	$91, %rax
	je	.LBB15_70
# BB#66:                                # %land.lhs.true381
	cmpq	$94, %rax
	je	.LBB15_70
# BB#67:                                # %land.lhs.true381
	cmpq	$92, %rax
	je	.LBB15_70
# BB#68:                                # %land.lhs.true381
	cmpq	$95, %rax
	je	.LBB15_70
# BB#69:                                # %land.lhs.true381
	cmpq	$96, %rax
	jne	.LBB15_79
.LBB15_70:                              # %land.lhs.true387
	movzbl	16(%r15), %eax
	movzbl	tree_code_type(%rax), %ecx
	cmpq	$60, %rcx
	je	.LBB15_95
# BB#71:                                # %land.lhs.true387
	cmpq	$93, %rax
	je	.LBB15_95
# BB#72:                                # %land.lhs.true387
	cmpq	$91, %rax
	je	.LBB15_95
# BB#73:                                # %land.lhs.true387
	cmpq	$94, %rax
	je	.LBB15_95
# BB#74:                                # %land.lhs.true387
	cmpq	$92, %rax
	je	.LBB15_95
# BB#75:                                # %land.lhs.true387
	cmpq	$95, %rax
	je	.LBB15_95
# BB#76:                                # %land.lhs.true387
	cmpq	$96, %rax
	je	.LBB15_95
# BB#77:                                # %lor.lhs.false394
	cmpq	$88, %rax
	jne	.LBB15_79
# BB#78:                                # %land.lhs.true401
	movq	40(%r15), %rdi
	movq	%rdx, %r14
	callq	integer_onep
	movq	%r14, %rdx
	testq	%rdx, %rax
	jne	.LBB15_95
.LBB15_79:                              # %lor.lhs.false407
	movzbl	16(%r15), %eax
	movzbl	tree_code_type(%rax), %ecx
	cmpq	$60, %rcx
	je	.LBB15_86
# BB#80:                                # %lor.lhs.false407
	cmpq	$93, %rax
	je	.LBB15_86
# BB#81:                                # %lor.lhs.false407
	cmpq	$91, %rax
	je	.LBB15_86
# BB#82:                                # %lor.lhs.false407
	cmpq	$94, %rax
	je	.LBB15_86
# BB#83:                                # %lor.lhs.false407
	cmpq	$92, %rax
	je	.LBB15_86
# BB#84:                                # %lor.lhs.false407
	cmpq	$95, %rax
	je	.LBB15_86
# BB#85:                                # %lor.lhs.false407
	cmpq	$96, %rax
	jne	.LBB15_102
.LBB15_86:                              # %land.lhs.true414
	movzbl	16(%r13), %eax
	movzbl	tree_code_type(%rax), %ecx
	cmpq	$60, %rcx
	je	.LBB15_95
# BB#87:                                # %land.lhs.true414
	cmpq	$93, %rax
	je	.LBB15_95
# BB#88:                                # %land.lhs.true414
	cmpq	$91, %rax
	je	.LBB15_95
# BB#89:                                # %land.lhs.true414
	cmpq	$94, %rax
	je	.LBB15_95
# BB#90:                                # %land.lhs.true414
	cmpq	$92, %rax
	je	.LBB15_95
# BB#91:                                # %land.lhs.true414
	cmpq	$95, %rax
	je	.LBB15_95
# BB#92:                                # %land.lhs.true414
	cmpq	$96, %rax
	je	.LBB15_95
# BB#93:                                # %lor.lhs.false421
	cmpq	$88, %rax
	jne	.LBB15_102
# BB#94:                                # %land.lhs.true428
	movq	40(%r13), %rdi
	movq	%rdx, %r14
	callq	integer_onep
	movq	%r14, %rdx
	testq	%rdx, %rax
	je	.LBB15_102
.LBB15_95:                              # %if.then434
	movq	$93, %rdi
	cmpq	$88, %rbx
	movq	128(%rsp), %rsi         # 8-byte Reload
	je	.LBB15_100
# BB#96:                                # %cond.false
	cmpq	$86, %rbx
	je	.LBB15_97
# BB#98:                                # %cond.false
	movabsq	$1, %rdi
	jmp	.LBB15_99
.LBB15_102:                             # %if.end447
	movzbl	tree_code_type(%rbx), %eax
	cmpq	$60, %rax
	je	.LBB15_124
# BB#103:                               # %if.end447
	cmpq	$50, %rax
	jne	.LBB15_104
.LBB15_124:                             # %if.then712
	movzbl	16(%r15), %ecx
	cmpq	$51, %rcx
	je	.LBB15_130
# BB#125:                               # %if.then712
	movq	%rdx, %rsi
	movq	%r13, %rdx
	cmpq	$47, %rcx
	jne	.LBB15_128
# BB#126:                               # %if.then719
	movq	32(%r15), %r12
	movq	40(%r15), %rcx
	xorq	%rax, %rax
	movq	144(%rsp), %rdi         # 8-byte Reload
	movq	128(%rsp), %rbx         # 8-byte Reload
	movq	%rbx, %rsi
	jmp	.LBB15_127
.LBB15_104:                             # %if.end447
	cmpq	$49, %rax
	jne	.LBB15_148
# BB#105:                               # %if.then453
	movzbl	16(%r13), %eax
	cmpq	$51, %rax
	jne	.LBB15_106
# BB#108:                               # %if.then477
	movq	32(%r13), %r12
	movq	40(%r13), %rdx
	movq	144(%rsp), %r14         # 8-byte Reload
	movq	%r14, %rdi
	movq	%r13, %rbx
	movq	128(%rsp), %r13         # 8-byte Reload
	movq	%r13, %rsi
	callq	build1
	movq	%rax, %rdi
	callq	fold
	movq	48(%rbx), %rdx
	movq	%rax, %r15
	movq	%r14, %rdi
	movq	%r13, %rsi
	callq	build1
	movq	%rax, %rdi
	callq	fold
	movq	%rax, %r8
	movq	$51, %rdi
	xorq	%rax, %rax
	movq	%r13, %rsi
	movq	%r12, %rdx
	movq	%r15, %rcx
	callq	build
	movq	%rax, %rdi
	callq	fold
	movq	%rax, %r9
	movq	136(%rsp), %rax         # 8-byte Reload
	andq	$254, %rax
	cmpq	$114, %rax
	je	.LBB15_110
# BB#109:                               # %if.then477
	cmpq	$116, %r14
	jne	.LBB15_1954
.LBB15_110:                             # %land.lhs.true501
	movzbl	16(%r9), %eax
	cmpq	$51, %rax
	jne	.LBB15_1954
# BB#111:                               # %land.lhs.true508
	movq	40(%r9), %rax
	movzbl	16(%rax), %ecx
	cmpq	%r14, %rcx
	jne	.LBB15_1954
# BB#112:                               # %land.lhs.true518
	movq	48(%r9), %rcx
	movzbl	16(%rcx), %edx
	cmpq	%r14, %rdx
	movq	%r14, %rbx
	jne	.LBB15_1954
# BB#113:                               # %land.lhs.true528
	movq	%r9, %rdi
	movq	32(%rax), %r9
	movq	32(%rcx), %r8
	movq	8(%r9), %rsi
	movq	8(%r8), %rax
	cmpq	%rax, %rsi
	je	.LBB15_115
# BB#114:
	movq	%rdi, %r9
	jmp	.LBB15_1954
.LBB15_128:                             # %lor.lhs.false736
	movzbl	tree_code_type(%rcx), %ecx
	cmpq	$60, %rcx
	movq	%rdx, %r13
	movq	%rsi, %rdx
	jne	.LBB15_137
# BB#129:                               # %lor.lhs.false736
	cmpq	$60, %rax
	je	.LBB15_137
.LBB15_130:                             # %land.lhs.true752
	movl	16(%r13), %r12d
	movq	%r12, %rax
	andq	$255, %rax
	cmpq	$51, %rax
	jne	.LBB15_132
# BB#131:                               # %lor.lhs.false759
	movq	%rdx, %r14
	movq	$25, %rsi
	movq	%r13, %rdi
	callq	count_cond
	movq	%rax, %rbx
	movq	$25, %rsi
	movq	%r15, %rdi
	callq	count_cond
	movq	%r14, %rdx
	addq	%rbx, %rax
	movq	$32, %rcx
	shlq	%cl, %rax
	movq	$32, %rcx
	sarq	%cl, %rax
	cmpq	$25, %rax
	jg	.LBB15_137
.LBB15_132:                             # %land.lhs.true764
	testq	$256, %r12              # imm = 0x100
	je	.LBB15_135
# BB#133:                               # %lor.lhs.false770
	movq	%rdx, %rbx
	callq	global_bindings_p
	movq	%rbx, %rdx
	testq	%rdx, %rax
	jne	.LBB15_137
# BB#134:                               # %land.lhs.true774
	movq	%r13, %rdi
	movq	%rdx, %rbx
	callq	contains_placeholder_p
	movq	%rbx, %rdx
	testq	%rdx, %rax
	je	.LBB15_135
.LBB15_137:                             # %if.else779
	movzbl	16(%r13), %eax
	cmpq	$51, %rax
	je	.LBB15_142
# BB#138:                               # %if.else779
	cmpq	$47, %rax
	jne	.LBB15_140
# BB#139:                               # %if.then786
	movq	32(%r13), %r12
	movq	40(%r13), %rdx
	xorq	%rax, %rax
	movq	144(%rsp), %rdi         # 8-byte Reload
	movq	128(%rsp), %rbx         # 8-byte Reload
	movq	%rbx, %rsi
	movq	%r15, %rcx
.LBB15_127:                             # %return
	callq	build
	movq	%rax, %rdi
	callq	fold
	movq	%rax, %rcx
	movq	$47, %rdi
	xorq	%rax, %rax
	movq	%rbx, %rsi
	movq	%r12, %rdx
.LBB15_520:                             # %return
	callq	build
	movq	%rax, %r9
	jmp	.LBB15_1954
.LBB15_135:                             # %if.then777
	xorq	%r8, %r8
	movq	144(%rsp), %rdi         # 8-byte Reload
	movq	128(%rsp), %rsi         # 8-byte Reload
	movq	%r15, %rdx
	movq	%r13, %rcx
	jmp	.LBB15_136
.LBB15_12:
	movq	$1, 152(%rsp)           # 8-byte Folded Spill
	xorq	%r9, %r9
	jmp	.LBB15_55
.LBB15_140:                             # %lor.lhs.false803
	movzbl	tree_code_type(%rax), %eax
	cmpq	$60, %rax
	jne	.LBB15_148
# BB#141:                               # %land.lhs.true813
	movq	144(%rsp), %rax         # 8-byte Reload
	movzbl	tree_code_type(%rax), %eax
	cmpq	$60, %rax
	je	.LBB15_148
.LBB15_142:                             # %land.lhs.true819
	movl	16(%r15), %r12d
	movq	%r12, %rax
	andq	$255, %rax
	cmpq	$51, %rax
	jne	.LBB15_144
# BB#143:                               # %lor.lhs.false826
	movq	%rdx, %r14
	movq	$25, %rsi
	movq	%r13, %rdi
	callq	count_cond
	movq	%rax, %rbx
	movq	$25, %rsi
	movq	%r15, %rdi
	callq	count_cond
	movq	%r14, %rdx
	addq	%rbx, %rax
	movq	$32, %rcx
	shlq	%cl, %rax
	movq	$32, %rcx
	sarq	%cl, %rax
	cmpq	$25, %rax
	jg	.LBB15_148
.LBB15_144:                             # %land.lhs.true832
	testq	$256, %r12              # imm = 0x100
	je	.LBB15_147
# BB#145:                               # %lor.lhs.false839
	movq	%rdx, %rbx
	callq	global_bindings_p
	movq	%rbx, %rdx
	testq	%rdx, %rax
	jne	.LBB15_148
# BB#146:                               # %land.lhs.true843
	movq	%r15, %rdi
	movq	%rdx, %rbx
	callq	contains_placeholder_p
	movq	%rbx, %rdx
	testq	%rdx, %rax
	jne	.LBB15_148
.LBB15_147:                             # %if.then846
	movq	$1, %r8
	movq	144(%rsp), %rdi         # 8-byte Reload
	movq	128(%rsp), %rsi         # 8-byte Reload
	movq	%r13, %rdx
	movq	%r15, %rcx
.LBB15_136:                             # %return
	callq	fold_binary_op_with_conditional_arg
	movq	%rax, %r9
	jmp	.LBB15_1954
.LBB15_106:                             # %if.then453
	cmpq	$47, %rax
	jne	.LBB15_122
# BB#107:                               # %if.then460
	movq	32(%r13), %r15
	movq	40(%r13), %rdx
	movq	144(%rsp), %rdi         # 8-byte Reload
	movq	128(%rsp), %rbx         # 8-byte Reload
	movq	%rbx, %rsi
	callq	build1
	movq	%rax, %rdi
	callq	fold
	movq	%rax, %rcx
	movq	$47, %rdi
	xorq	%rax, %rax
	movq	%rbx, %rsi
	movq	%r15, %rdx
	jmp	.LBB15_520
.LBB15_97:
	movabsq	$0, %rdi
.LBB15_99:                              # %cond.false
	orq	$94, %rdi
.LBB15_100:                             # %cond.end
	xorq	%rax, %rax
	movq	%r13, %rdx
	movq	%r15, %rcx
	callq	build
	movq	%rax, %rdi
	callq	fold
	movq	%rax, %r9
	cmpq	$101, %rbx
	jne	.LBB15_1954
# BB#101:                               # %if.then444
	movq	%r9, %rdi
	callq	invert_truthvalue
	movq	%rax, %r9
	jmp	.LBB15_1954
.LBB15_122:                             # %if.else680
	movzbl	tree_code_type(%rax), %eax
	cmpq	$60, %rax
	jne	.LBB15_148
# BB#123:                               # %if.then690
	movq	global_trees+96(%rip), %rdx
	movq	144(%rsp), %r12         # 8-byte Reload
	movq	%r12, %rdi
	movq	%r13, %r15
	movq	128(%rsp), %rbx         # 8-byte Reload
	movq	%rbx, %rsi
	callq	build1
	movq	%rax, %rdi
	callq	fold
	movq	global_trees+88(%rip), %rdx
	movq	%rax, %r14
	movq	%r12, %rdi
	movq	%rbx, %rsi
	callq	build1
	movq	%rax, %rdi
	callq	fold
	movq	%rax, %r8
	movq	$51, %rdi
	xorq	%rax, %rax
	movq	%rbx, %rsi
	movq	%r15, %rdx
	movq	%r14, %rcx
	callq	build
.LBB15_715:                             # %if.else6204
	movq	%rax, %rdi
	callq	fold
	movq	%rax, %r9
	jmp	.LBB15_1954
.LBB15_148:                             # %if.end901
	movq	144(%rsp), %rax         # 8-byte Reload
	leaq	-32(%rax), %rax
	andq	%rdx, %rax
	cmpq	$96, %rax
	ja	.LBB15_1953
# BB#149:                               # %if.end901
	movq	%r13, 168(%rsp)         # 8-byte Spill
	movq	%r15, %r12
	movq	%rdx, %r14
	movq	120(%rsp), %r9          # 8-byte Reload
	jmpq	*.LJTI15_0(,%rax,8)
.LBB15_1086:                            # %sw.bb4366
	movq	168(%rsp), %rbx         # 8-byte Reload
	movq	8(%rbx), %rax
	movzbl	16(%rax), %ecx
	cmpq	$7, %rcx
	movq	%r12, %r13
	je	.LBB15_1089
# BB#1087:                              # %sw.bb4366
	cmpq	$8, %rcx
	jne	.LBB15_1106
# BB#1088:                              # %land.lhs.true4384
	movq	8(%rax), %rax
	movzbl	16(%rax), %eax
	cmpq	$7, %rax
	jne	.LBB15_1106
.LBB15_1089:                            # %if.then4395
	movzbl	16(%rbx), %ecx
	movl	16(%r13), %eax
	cmpq	$77, %rcx
	jne	.LBB15_1102
# BB#1090:                              # %land.lhs.true4402
	andq	$255, %rax
	cmpq	$77, %rax
	jne	.LBB15_1092
# BB#1091:                              # %if.then4409
	movq	32(%r13), %rdx
	movq	32(%rbx), %rcx
.LBB15_1323:                            # %return
	xorq	%rax, %rax
	movq	144(%rsp), %rdi         # 8-byte Reload
	jmp	.LBB15_1324
.LBB15_19:
	xorq	%r9, %r9
	jmp	.LBB15_55
.LBB15_793:                             # %sw.bb3676
	movq	%r12, %rbx
	movq	%rbx, %rdi
	callq	integer_onep
	testq	%r14, %rax
	jne	.LBB15_704
# BB#794:                               # %if.end3682
	movq	%rbx, %rdi
	callq	integer_zerop
	testq	%r14, %rax
	je	.LBB15_796
# BB#795:
	movq	120(%rsp), %r9          # 8-byte Reload
	jmp	.LBB15_1954
.LBB15_804:                             # %sw.bb3715
	movq	%r12, %rbx
	movq	%rbx, %rdi
	callq	integer_onep
	testq	%r14, %rax
	je	.LBB15_807
# BB#805:                               # %if.then3718
	movq	global_trees+88(%rip), %rsi
	movq	128(%rsp), %rbx         # 8-byte Reload
	movq	%rbx, %rdi
	callq	convert
	movq	168(%rsp), %rdx         # 8-byte Reload
	movzbl	17(%rdx), %ecx
	movq	%rax, %r9
	testq	$1, %rcx
	je	.LBB15_706
# BB#806:                               # %if.then.i10717
	movq	$47, %rdi
	xorq	%rax, %rax
	movq	%rbx, %rsi
	movq	%r9, %rcx
	jmp	.LBB15_520
.LBB15_152:                             # %sw.bb904
	movq	120(%rsp), %rax         # 8-byte Reload
	movq	32(%rax), %r9
	movq	8(%rax), %r12
	movq	8(%r9), %rsi
	cmpq	%r12, %rsi
	je	.LBB15_1954
# BB#153:                               # %if.end918
	movl	16(%r9), %r13d
	movq	%r13, %rax
	andq	$254, %rax
	cmpq	$114, %rax
	jne	.LBB15_244
# BB#154:                               # %if.then938
	movq	32(%r9), %rbx
	movq	8(%rbx), %r15
	movl	16(%r15), %r8d
	movq	%r8, %rax
	andq	$255, %rax
	leaq	-6(%rax), %rcx
	movq	%rcx, %rdx
	andq	%r14, %rdx
	cmpq	$7, %rdx
	jae	.LBB15_155
# BB#159:                               # %lor.end
	andq	$127, %rcx
	movq	$113, %r11
	shrq	%cl, %r11
	andq	$1, %r11
	movq	%r8, %rcx
	andq	$253, %rcx
	cmpq	$13, %rcx
	jne	.LBB15_160
# BB#161:                               # %lor.end
	movabsq	$1, %rdi
	jmp	.LBB15_162
.LBB15_813:                             # %sw.bb3741
	movq	%r12, %rbx
	movq	%rbx, %rdi
	callq	integer_zerop
	testq	%r14, %rax
	jne	.LBB15_704
# BB#814:                               # %if.end3747
	movzbl	16(%rbx), %eax
	cmpq	$25, %rax
	jne	.LBB15_817
# BB#815:                               # %land.lhs.true3754
	movq	%rbx, %rdi
	callq	tree_int_cst_sgn
	movq	$32, %rcx
	shlq	%cl, %rax
	movq	$32, %rcx
	sarq	%cl, %rax
	testq	%rax, %rax
	js	.LBB15_816
.LBB15_817:                             # %if.end3759
	movq	144(%rsp), %r12         # 8-byte Reload
	cmpq	$85, %r12
	movq	120(%rsp), %r15         # 8-byte Reload
	je	.LBB15_822
# BB#818:                               # %if.end3759
	cmpq	$84, %r12
	jne	.LBB15_485
# BB#819:                               # %land.lhs.true3762
	movzbl	16(%rbx), %eax
	cmpq	$25, %rax
	movq	$84, %r12
	jne	.LBB15_485
# BB#820:                               # %if.then3769
	movq	$85, %rax
	movb	%al, 16(%r15)
	movq	128(%rsp), %rax         # 8-byte Reload
	movl	60(%rax), %eax
	movq	%r15, %r12
	movq	8(%rbx), %r15
	movq	$8, %rcx
	shrq	%cl, %rax
	andq	$254, %rax
	movzbl	mode_bitsize(%rax), %edi
	xorq	%rsi, %rsi
	callq	build_int_2_wide
	movq	%r15, %rdi
	movq	%r12, %r15
	movq	%rax, %rsi
	callq	convert
	movq	$60, %rdi
	movq	%rax, %rsi
	movq	%rbx, %rdx
	callq	const_binop
	movq	%rax, %rbx
	movq	%rbx, 40(%r15)
	movq	%rbx, %rdi
	callq	tree_int_cst_sgn
	movq	$32, %rcx
	shlq	%cl, %rax
	movq	$32, %rcx
	sarq	%cl, %rax
	testq	%rax, %rax
	js	.LBB15_821
.LBB15_822:                             # %land.lhs.true3799
	movzbl	16(%rbx), %eax
	cmpq	$25, %rax
	movq	$85, %r12
	jne	.LBB15_823
# BB#824:                               # %land.lhs.true3806
	movq	168(%rsp), %rdx         # 8-byte Reload
	movzbl	16(%rdx), %r12d
	leaq	-86(%r12), %rcx
	andq	%r14, %rcx
	cmpq	$3, %rcx
	ja	.LBB15_829
# BB#825:                               # %land.lhs.true3834
	movq	40(%rdx), %rcx
	movzbl	16(%rcx), %ecx
	cmpq	$25, %rcx
	jne	.LBB15_827
# BB#826:                               # %if.then3844
	movq	%rdx, %r14
	movq	32(%r14), %rcx
	movq	$85, %rdi
	xorq	%rax, %rax
	movq	128(%rsp), %r15         # 8-byte Reload
	movq	%r15, %rsi
	movq	%rcx, %rdx
	movq	%rbx, %rcx
	callq	build
	movq	%rax, %rdi
	callq	fold
	movq	40(%r14), %rcx
	movq	%rax, %r14
	movq	$85, %rdi
	xorq	%rax, %rax
	movq	%r15, %rsi
	movq	%rcx, %rdx
	movq	%rbx, %rcx
	callq	build
	movq	%rax, %rdi
	callq	fold
	movq	%rax, %rcx
	xorq	%rax, %rax
	movq	%r12, %rdi
	movq	%r15, %rsi
	jmp	.LBB15_1343
.LBB15_807:                             # %if.end3720
	movq	%rbx, %rdi
	callq	integer_zerop
	testq	%r14, %rax
	je	.LBB15_809
# BB#808:
	movq	120(%rsp), %r9          # 8-byte Reload
	jmp	.LBB15_1954
.LBB15_151:                             # %sw.bb902
	movq	120(%rsp), %rax         # 8-byte Reload
	movq	104(%rax), %rdi
	jmp	.LBB15_1928
.LBB15_294:                             # %sw.bb1469
	movq	168(%rsp), %rcx         # 8-byte Reload
	movzbl	16(%rcx), %eax
	cmpq	$46, %rax
	jne	.LBB15_295
# BB#296:                               # %if.then1476
	movq	40(%rcx), %rsi
	movq	%r12, %rdi
	callq	purpose_member
	testq	%rax, %rax
	movq	120(%rsp), %r9          # 8-byte Reload
	je	.LBB15_1954
# BB#297:                               # %if.then1482
	movq	32(%rax), %r9
	jmp	.LBB15_1954
.LBB15_1881:                            # %sw.bb7402
	movq	168(%rsp), %rax         # 8-byte Reload
	movl	16(%rax), %eax
	movl	pedantic(%rip), %ecx
	andq	$256, %rax              # imm = 0x100
	orq	%rax, %rcx
	testq	%r14, %rcx
	movq	120(%rsp), %r9          # 8-byte Reload
	jne	.LBB15_1954
# BB#1882:                              # %if.end7412
	movq	%r12, %rbx
	movq	%rbx, %rdi
	callq	integer_zerop
	testq	%r14, %rax
	je	.LBB15_1884
# BB#1883:                              # %if.then7415
	movq	$115, %rdi
	movq	128(%rsp), %rsi         # 8-byte Reload
	movq	%rbx, %rdx
	jmp	.LBB15_293
.LBB15_1599:                            # %sw.bb6598
	movq	168(%rsp), %rdi         # 8-byte Reload
	movzbl	16(%rdi), %eax
	cmpq	$25, %rax
	jne	.LBB15_1610
# BB#1600:                              # %if.then6605
	callq	integer_zerop
	testq	%r14, %rax
	je	.LBB15_1601
# BB#1602:                              # %if.then6605
	movabsq	$1, %rax
	jmp	.LBB15_1603
.LBB15_1949:                            # %sw.bb7665
	movq	120(%rsp), %rax         # 8-byte Reload
	movq	32(%rax), %rax
	movzbl	16(%rax), %ecx
	cmpq	$121, %rcx
	jne	.LBB15_1953
# BB#1950:                              # %land.lhs.true7675
	movq	32(%rax), %rax
	movzbl	16(%rax), %ecx
	cmpq	$30, %rcx
	jne	.LBB15_1953
# BB#1951:                              # %land.lhs.true7688
	movzbl	51(%rax), %eax
	testq	$96, %rax
	je	.LBB15_1953
# BB#1952:                              # %if.then7703
	movq	120(%rsp), %rdi         # 8-byte Reload
	callq	fold_builtin
	movq	%rax, %r9
	testq	%r9, %r9
	jne	.LBB15_1954
	jmp	.LBB15_1953
.LBB15_1929:                            # %sw.bb7565
	movq	168(%rsp), %rbx         # 8-byte Reload
	movq	%rbx, %rdi
	callq	has_cleanups
	testq	%r14, %rax
	je	.LBB15_1930
# BB#1931:                              # %if.end7572
	movzbl	16(%rbx), %r12d
	movzbl	tree_code_type(%r12), %eax
	movq	%rbx, %rcx
	movq	32(%rcx), %rbx
	cmpq	$49, %rax
	je	.LBB15_1933
# BB#1932:                              # %if.end7572
	cmpq	$96, %r12
	je	.LBB15_1933
# BB#1934:                              # %if.end7602
	cmpq	$60, %rax
	je	.LBB15_1942
# BB#1935:                              # %if.end7602
	cmpq	$50, %rax
	je	.LBB15_1942
# BB#1936:                              # %if.end7602
	cmpq	$91, %r12
	je	.LBB15_1942
# BB#1937:                              # %if.end7602
	cmpq	$92, %r12
	je	.LBB15_1942
# BB#1938:                              # %if.end7602
	cmpq	$93, %r12
	je	.LBB15_1942
# BB#1939:                              # %if.end7602
	cmpq	$94, %r12
	je	.LBB15_1942
# BB#1940:                              # %if.end7602
	cmpq	$95, %r12
	je	.LBB15_1942
# BB#1941:
	movq	120(%rsp), %r9          # 8-byte Reload
	jmp	.LBB15_1954
.LBB15_361:                             # %sw.bb1889
	movq	%r12, %rdx
	movl	16(%rdx), %eax
	movq	%rax, %rcx
	andq	$255, %rcx
	cmpq	$77, %rcx
	jne	.LBB15_364
# BB#362:                               # %if.then1896
	movq	32(%rdx), %rcx
	movq	$60, %rdi
	jmp	.LBB15_363
.LBB15_555:                             # %sw.bb2978
	movzbl	16(%r12), %eax
	cmpq	$77, %rax
	jne	.LBB15_557
# BB#556:                               # %if.then2985
	movq	32(%r12), %rcx
	movq	$59, %rdi
.LBB15_363:                             # %return
	xorq	%rax, %rax
	movq	128(%rsp), %rsi         # 8-byte Reload
	movq	168(%rsp), %rdx         # 8-byte Reload
	jmp	.LBB15_1926
.LBB15_600:                             # %sw.bb3141
	movq	168(%rsp), %rax         # 8-byte Reload
	movzbl	16(%rax), %eax
	cmpq	$77, %rax
	movq	%r12, %rbx
	jne	.LBB15_603
# BB#601:                               # %land.lhs.true3148
	movzbl	16(%rbx), %eax
	cmpq	$77, %rax
	jne	.LBB15_603
# BB#602:                               # %if.then3155
	movq	168(%rsp), %rax         # 8-byte Reload
	movq	32(%rax), %rdx
	movq	32(%rbx), %rcx
	movq	$61, %rdi
	xorq	%rax, %rax
	movq	128(%rsp), %rsi         # 8-byte Reload
	jmp	.LBB15_1926
.LBB15_773:                             # %sw.bb3569
	movq	168(%rsp), %rax         # 8-byte Reload
	movzbl	16(%rax), %eax
	cmpq	$77, %rax
	movq	%r12, %rbx
	jne	.LBB15_776
# BB#774:                               # %land.lhs.true3576
	movzbl	16(%rbx), %eax
	cmpq	$77, %rax
	jne	.LBB15_776
# BB#775:                               # %if.then3583
	movq	168(%rsp), %rax         # 8-byte Reload
	movq	32(%rax), %rdx
	movq	32(%rbx), %rcx
	movq	$70, %rdi
	xorq	%rax, %rax
.LBB15_1324:                            # %return
	movq	128(%rsp), %rsi         # 8-byte Reload
	callq	build
	jmp	.LBB15_715
.LBB15_299:                             # %sw.bb1493
	movq	168(%rsp), %rcx         # 8-byte Reload
	movzbl	16(%rcx), %eax
	movq	152(%rsp), %rdx         # 8-byte Reload
	testq	%r14, %rdx
	je	.LBB15_316
# BB#300:                               # %if.then1495
	cmpq	$26, %rax
	movq	120(%rsp), %rdx         # 8-byte Reload
	jne	.LBB15_301
# BB#314:                               # %if.then1558
	movq	48(%rcx), %rax
	movq	%rax, 16(%rsp)
	movq	32(%rcx), %rax
	movq	40(%rcx), %rcx
	movq	%rcx, 8(%rsp)
	leaq	344(%rsp), %rdi
	movq	%rax, (%rsp)
	callq	ereal_negate
	movq	360(%rsp), %rax
	movq	%rax, 16(%rsp)
	movq	344(%rsp), %rax
	movq	352(%rsp), %rcx
	jmp	.LBB15_315
.LBB15_839:                             # %sw.bb3930
	xorq	%rdx, %rdx
	movq	168(%rsp), %r15         # 8-byte Reload
	movq	%r15, %rdi
	movq	%r12, %rbx
	movq	%rbx, %rsi
	callq	operand_equal_p
	testq	%r14, %rax
	je	.LBB15_850
# BB#840:                               # %if.then3933
	movq	128(%rsp), %r14         # 8-byte Reload
	movq	%r14, %rdi
	movq	%r15, %rsi
	callq	convert
	movzbl	17(%rbx), %ecx
	movq	%rbx, %rdx
	movq	%rax, %rbx
	testq	$1, %rcx
	jne	.LBB15_841
# BB#842:                               # %if.end.i10685
	movzbl	16(%rbx), %eax
	cmpq	$115, %rax
	jg	.LBB15_846
# BB#843:                               # %if.end.i10685
	cmpq	$29, %rax
	ja	.LBB15_618
# BB#844:                               # %if.end.i10685
	movq	$1, %rdx
	movq	%rax, %rcx
	shlq	%cl, %rdx
	testq	$637534208, %rdx        # imm = 0x26000000
	je	.LBB15_618
# BB#845:
	movq	%rbx, %r9
	jmp	.LBB15_1954
.LBB15_863:                             # %sw.bb3970
	xorq	%rdx, %rdx
	movq	168(%rsp), %r15         # 8-byte Reload
	movq	%r15, %rdi
	movq	%r12, %rbx
	movq	%rbx, %rsi
	callq	operand_equal_p
	testq	%r14, %rax
	je	.LBB15_873
# BB#864:                               # %if.then3973
	movq	128(%rsp), %r14         # 8-byte Reload
	movq	%r14, %rdi
	movq	%r15, %rsi
	callq	convert
	movzbl	17(%rbx), %ecx
	movq	%rbx, %rdx
	movq	%rax, %rbx
	testq	$1, %rcx
	jne	.LBB15_841
# BB#865:                               # %if.end.i10641
	movzbl	16(%rbx), %eax
	cmpq	$115, %rax
	jg	.LBB15_869
# BB#866:                               # %if.end.i10641
	cmpq	$29, %rax
	ja	.LBB15_618
# BB#867:                               # %if.end.i10641
	movq	$1, %rdx
	movq	%rax, %rcx
	shlq	%cl, %rdx
	testq	$637534208, %rdx        # imm = 0x26000000
	je	.LBB15_618
# BB#868:
	movq	%rbx, %r9
	jmp	.LBB15_1954
.LBB15_326:                             # %sw.bb1617
	movq	168(%rsp), %rdx         # 8-byte Reload
	movzbl	16(%rdx), %eax
	movq	152(%rsp), %rcx         # 8-byte Reload
	testq	%r14, %rcx
	je	.LBB15_343
# BB#327:                               # %if.then1619
	cmpq	$26, %rax
	jne	.LBB15_328
# BB#341:                               # %if.then1717
	movq	48(%rdx), %rax
	movq	%rax, 16(%rsp)
	movq	32(%rdx), %rax
	movq	40(%rdx), %rcx
	movq	%rdx, %rbx
	movq	%rcx, 8(%rsp)
	movq	%rax, (%rsp)
	callq	target_negative
	testq	%r14, %rax
	movq	120(%rsp), %r9          # 8-byte Reload
	je	.LBB15_1954
# BB#342:                               # %if.then1722
	addq	$32, %rbx
	movq	16(%rbx), %rax
	movq	%rax, 16(%rsp)
	movq	(%rbx), %rax
	movq	8(%rbx), %rcx
	movq	%rcx, 8(%rsp)
	leaq	320(%rsp), %rdi
	movq	%rax, (%rsp)
	callq	ereal_negate
	movq	336(%rsp), %rax
	movq	%rax, 16(%rsp)
	movq	320(%rsp), %rax
	movq	328(%rsp), %rcx
.LBB15_315:                             # %return
	movq	%rcx, 8(%rsp)
	movq	%rax, (%rsp)
	movq	128(%rsp), %rdi         # 8-byte Reload
	callq	build_real
	movq	%rax, %r9
	jmp	.LBB15_1954
.LBB15_703:                             # %sw.bb3325
	movq	%r12, %rbx
	movq	%rbx, %rdi
	callq	integer_zerop
	testq	%r14, %rax
	jne	.LBB15_704
# BB#712:                               # %if.end3331
	movq	%rbx, %rdi
	callq	integer_all_onesp
	testq	%r14, %rax
	movq	128(%rsp), %rsi         # 8-byte Reload
	je	.LBB15_716
# BB#713:                               # %if.then3334
	movq	$90, %rdi
	movq	168(%rsp), %rdx         # 8-byte Reload
	jmp	.LBB15_714
.LBB15_758:                             # %sw.bb3547
	movq	168(%rsp), %rbx         # 8-byte Reload
	movq	%rbx, %rdi
	callq	integer_all_onesp
	testq	%r14, %rax
	jne	.LBB15_759
# BB#760:                               # %if.end3553
	movq	%rbx, %rdi
	callq	integer_zerop
	testq	%r14, %rax
	movq	%rbx, %rsi
	movq	128(%rsp), %rbx         # 8-byte Reload
	je	.LBB15_771
# BB#761:                               # %if.then3556
	movq	%rbx, %rdi
	callq	convert
	movzbl	17(%r12), %ecx
	movq	%r12, %rdx
	movq	%rax, %r8
	testq	$1, %rcx
	je	.LBB15_763
# BB#762:                               # %if.then.i10767
	movq	$47, %rdi
	xorq	%rax, %rax
	movq	%rbx, %rsi
	movq	%r8, %rcx
	jmp	.LBB15_520
.LBB15_357:                             # %sw.bb1838
	movq	152(%rsp), %rax         # 8-byte Reload
	testq	%r14, %rax
	je	.LBB15_359
# BB#358:                               # %if.then1840
	movq	168(%rsp), %r14         # 8-byte Reload
	movq	32(%r14), %rdi
	movq	40(%r14), %rsi
	notq	%rdi
	notq	%rsi
	callq	build_int_2_wide
	movq	%rax, %rbx
	movq	128(%rsp), %rax         # 8-byte Reload
	movq	%rax, 8(%rbx)
	xorq	%rsi, %rsi
	movq	%rbx, %rdi
	callq	force_fit_type
	movq	%rbx, %r9
	movl	16(%r14), %eax
	movl	16(%r9), %ecx
	andq	$524288, %rax           # imm = 0x80000
	andq	$-524289, %rcx          # imm = 0xFFFFFFFFFFF7FFFF
	orq	%rax, %rcx
	movl	%ecx, 16(%r9)
	movl	16(%r14), %eax
	andq	$262144, %rax           # imm = 0x40000
	movabsq	$4294705151, %rdx       # imm = 0xFFFBFFFF
	andq	%rcx, %rdx
	orq	%rax, %rdx
	movl	%edx, 16(%r9)
	jmp	.LBB15_1954
.LBB15_889:                             # %sw.bb4025
	movq	168(%rsp), %rdi         # 8-byte Reload
	callq	integer_zerop
	testq	%r14, %rax
	je	.LBB15_891
# BB#890:                               # %if.then4028
	movq	128(%rsp), %rdi         # 8-byte Reload
	movq	168(%rsp), %rsi         # 8-byte Reload
	jmp	.LBB15_554
.LBB15_891:                             # %sw.bb4031
	movq	168(%rsp), %rdi         # 8-byte Reload
	movzbl	16(%rdi), %eax
	cmpq	$25, %rax
	jne	.LBB15_901
# BB#892:                               # %land.lhs.true4038
	callq	integer_zerop
	testq	%r14, %rax
	je	.LBB15_893
.LBB15_901:                             # %if.end4044
	movq	%r12, %rbx
	movzbl	16(%rbx), %eax
	cmpq	$25, %rax
	jne	.LBB15_913
# BB#902:                               # %land.lhs.true4051
	movq	%rbx, %rdi
	callq	integer_zerop
	testq	%r14, %rax
	jne	.LBB15_913
# BB#903:                               # %land.lhs.true4054
	cmpq	$91, 144(%rsp)          # 8-byte Folded Reload
	jne	.LBB15_905
# BB#904:                               # %lor.lhs.false4057
	movq	168(%rsp), %rax         # 8-byte Reload
	movzbl	17(%rax), %eax
	testq	$1, %rax
	je	.LBB15_905
.LBB15_913:                             # %if.end4067
	movq	%rbx, %rdi
	callq	integer_zerop
	testq	%r14, %rax
	je	.LBB15_923
# BB#914:                               # %if.then4070
	movq	128(%rsp), %r14         # 8-byte Reload
	movq	%r14, %rdi
	movq	%rbx, %rsi
	callq	convert
	movq	168(%rsp), %rdx         # 8-byte Reload
	movzbl	17(%rdx), %ecx
	movq	%rax, %rbx
	testq	$1, %rcx
	jne	.LBB15_841
# BB#915:                               # %if.end.i10569
	movzbl	16(%rbx), %eax
	cmpq	$115, %rax
	jg	.LBB15_919
# BB#916:                               # %if.end.i10569
	cmpq	$29, %rax
	ja	.LBB15_618
# BB#917:                               # %if.end.i10569
	movq	$1, %rdx
	movq	%rax, %rcx
	shlq	%cl, %rdx
	testq	$637534208, %rdx        # imm = 0x26000000
	je	.LBB15_618
# BB#918:
	movq	%rbx, %r9
	jmp	.LBB15_1954
.LBB15_1016:                            # %sw.bb4265
	movq	168(%rsp), %rdi         # 8-byte Reload
	movzbl	16(%rdi), %eax
	leaq	16(%rdi), %r13
	cmpq	$25, %rax
	jne	.LBB15_1017
# BB#1021:                              # %land.lhs.true4272
	callq	integer_zerop
	testq	%r14, %rax
	movq	128(%rsp), %r15         # 8-byte Reload
	movq	%r12, %rbx
	jne	.LBB15_1018
# BB#1022:                              # %if.then4275
	movq	%r15, %rdi
	movq	168(%rsp), %rsi         # 8-byte Reload
	jmp	.LBB15_554
.LBB15_150:                             # %if.end901.sw.bb4278_crit_edge
	movq	168(%rsp), %rax         # 8-byte Reload
	leaq	16(%rax), %r13
.LBB15_1017:
	movq	128(%rsp), %r15         # 8-byte Reload
	movq	%r12, %rbx
.LBB15_1018:                            # %sw.bb4278
	movzbl	(%r13), %eax
	cmpq	$25, %rax
	jne	.LBB15_1024
# BB#1019:                              # %land.lhs.true4285
	movq	168(%rsp), %rdi         # 8-byte Reload
	callq	integer_zerop
	testq	%r14, %rax
	je	.LBB15_1024
# BB#1020:                              # %if.then4288
	movq	%r15, %rdi
	movq	%rbx, %rsi
	jmp	.LBB15_705
.LBB15_1024:                            # %if.end4291
	movzbl	16(%rbx), %eax
	cmpq	$25, %rax
	movq	144(%rsp), %r12         # 8-byte Reload
	jne	.LBB15_1036
# BB#1025:                              # %land.lhs.true4298
	movq	%rbx, %rdi
	callq	integer_zerop
	testq	%r14, %rax
	je	.LBB15_1036
# BB#1026:                              # %land.lhs.true4301
	cmpq	$92, %r12
	jne	.LBB15_1028
# BB#1027:                              # %lor.lhs.false4304
	movzbl	1(%r13), %eax
	testq	$1, %rax
	je	.LBB15_1028
.LBB15_1036:                            # %if.end4314
	movzbl	16(%rbx), %eax
	cmpq	$25, %rax
	jne	.LBB15_1047
# BB#1037:                              # %land.lhs.true4321
	movq	%rbx, %rdi
	callq	integer_zerop
	testq	%r14, %rax
	je	.LBB15_1038
.LBB15_1047:                            # %if.end4326
	movzbl	(%r13), %eax
	cmpq	$25, %rax
	jne	.LBB15_936
# BB#1048:                              # %land.lhs.true4333
	movq	168(%rsp), %rdi         # 8-byte Reload
	callq	integer_zerop
	testq	%r14, %rax
	jne	.LBB15_936
# BB#1049:                              # %if.then4336
	movq	%r15, %rdi
	movq	%r15, %r14
	movq	168(%rsp), %rsi         # 8-byte Reload
	callq	convert
	movzbl	17(%rbx), %ecx
	movq	%rax, %r8
	testq	$1, %rcx
	jne	.LBB15_925
# BB#1050:                              # %if.end.i10475
	movzbl	16(%r8), %eax
	cmpq	$115, %rax
	jg	.LBB15_1054
# BB#1051:                              # %if.end.i10475
	cmpq	$29, %rax
	ja	.LBB15_1472
# BB#1052:                              # %if.end.i10475
	movq	$1, %rdx
	movq	%rax, %rcx
	shlq	%cl, %rdx
	testq	$637534208, %rdx        # imm = 0x26000000
	je	.LBB15_1472
# BB#1053:
	movq	%r8, %r9
	jmp	.LBB15_1954
.LBB15_1058:                            # %sw.bb4339
	movq	168(%rsp), %rbx         # 8-byte Reload
	movq	%rbx, %rdi
	callq	integer_zerop
	testq	%r14, %rax
	je	.LBB15_1059
.LBB15_759:                             # %if.then3550
	movq	128(%rsp), %rdi         # 8-byte Reload
	movq	%r12, %rsi
	jmp	.LBB15_705
.LBB15_888:                             # %sw.bb4014
	movq	168(%rsp), %rdi         # 8-byte Reload
	callq	invert_truthvalue
	movzbl	16(%rax), %ecx
	cmpq	$96, %rcx
	movq	120(%rsp), %r9          # 8-byte Reload
	je	.LBB15_1954
	jmp	.LBB15_812
.LBB15_298:                             # %sw.bb1485
	movq	120(%rsp), %rdx         # 8-byte Reload
	movl	16(%rdx), %eax
	movq	152(%rsp), %rsi         # 8-byte Reload
	andq	$1, %rsi
	shlq	$9, %rsi
	movabsq	$4294966783, %rcx       # imm = 0xFFFFFDFF
	andq	%rax, %rcx
	orq	%rsi, %rcx
	movl	%ecx, 16(%rdx)
	movq	%rdx, %r9
	jmp	.LBB15_1954
.LBB15_290:                             # %sw.bb1450
	movq	120(%rsp), %rdx         # 8-byte Reload
	movq	32(%rdx), %rax
	movzbl	16(%rax), %ecx
	cmpq	$117, %rcx
	movq	%rdx, %r9
	jne	.LBB15_1954
# BB#291:                               # %if.then1460
	movq	32(%rax), %rdx
	movq	$117, %rdi
	jmp	.LBB15_292
.LBB15_1885:                            # %sw.bb7419
	movq	152(%rsp), %rax         # 8-byte Reload
	testq	%r14, %rax
	movq	120(%rsp), %r9          # 8-byte Reload
	je	.LBB15_1954
# BB#1886:                              # %if.then7421
	movq	128(%rsp), %rdi         # 8-byte Reload
	movq	168(%rsp), %rsi         # 8-byte Reload
	movq	%r12, %rdx
.LBB15_1887:                            # %return
	callq	build_complex
	movq	%rax, %r9
	jmp	.LBB15_1954
.LBB15_346:                             # %sw.bb1751
	movq	168(%rsp), %rsi         # 8-byte Reload
	movq	8(%rsi), %rax
	movzbl	16(%rax), %eax
	cmpq	$8, %rax
	jne	.LBB15_347
# BB#348:                               # %if.else1762
	movzbl	16(%rsi), %ebx
	movq	%rsi, %rcx
	cmpq	$124, %rbx
	jg	.LBB15_352
# BB#349:                               # %if.else1762
	leaq	-59(%rbx), %rax
	andq	%r14, %rax
	cmpq	$2, %rax
	jae	.LBB15_350
# BB#355:                               # %if.then1805
	movq	%rcx, %r14
	movq	32(%r14), %rdx
	movq	$126, %rdi
	movq	128(%rsp), %r15         # 8-byte Reload
	movq	%r15, %rsi
	callq	build1
	movq	%rax, %rdi
	callq	fold
	movq	40(%r14), %rdx
	movq	%rax, %r14
	movq	$126, %rdi
	movq	%r15, %rsi
	callq	build1
	movq	%rax, %rdi
	callq	fold
	movq	%rax, %rcx
	xorq	%rax, %rax
	movq	%rbx, %rdi
	jmp	.LBB15_1925
.LBB15_1888:                            # %sw.bb7424
	movq	168(%rsp), %rcx         # 8-byte Reload
	movq	8(%rcx), %rax
	movzbl	16(%rax), %eax
	cmpq	$8, %rax
	jne	.LBB15_1889
# BB#1890:                              # %if.else7434
	movq	%rcx, %rbx
	movzbl	16(%rbx), %r12d
	leaq	-59(%r12), %rax
	andq	%r14, %rax
	cmpq	$2, %rax
	jae	.LBB15_1891
# BB#1904:                              # %if.then7473
	movq	32(%rbx), %rdx
	movq	$127, %rdi
	movq	128(%rsp), %r15         # 8-byte Reload
	movq	%r15, %rsi
	callq	build1
	movq	%rax, %rdi
	callq	fold
	movq	40(%rbx), %rdx
	movq	%rax, %r14
	movq	$127, %rdi
	jmp	.LBB15_1924
.LBB15_1905:                            # %sw.bb7494
	movq	168(%rsp), %rcx         # 8-byte Reload
	movq	8(%rcx), %rax
	movzbl	16(%rax), %eax
	cmpq	$8, %rax
	jne	.LBB15_1906
# BB#1907:                              # %if.else7505
	movq	%rcx, %rbx
	movzbl	16(%rbx), %r12d
	leaq	-59(%r12), %rax
	andq	%r14, %rax
	cmpq	$2, %rax
	movq	128(%rsp), %r15         # 8-byte Reload
	jae	.LBB15_1908
# BB#1923:                              # %if.then7544
	movq	32(%rbx), %rdx
	movq	$128, %rdi
	movq	%r15, %rsi
	callq	build1
	movq	%rax, %rdi
	callq	fold
	movq	40(%rbx), %rdx
	movq	%rax, %r14
	movq	$128, %rdi
.LBB15_1924:                            # %return
	movq	%r15, %rsi
	callq	build1
	movq	%rax, %rdi
	callq	fold
	movq	%rax, %rcx
	xorq	%rax, %rax
	movq	%r12, %rdi
.LBB15_1925:                            # %return
	movq	%r15, %rsi
	movq	%r14, %rdx
	jmp	.LBB15_1926
.LBB15_1092:                            # %land.lhs.true4425
	movl	16(%r13), %eax
	movq	%rax, %rcx
	andq	$255, %rcx
	cmpq	$26, %rcx
	jne	.LBB15_1102
# BB#1093:                              # %if.then4432
	movq	144(%rsp), %r15         # 8-byte Reload
	leaq	-97(%r15), %rax
	andq	%r14, %rax
	cmpq	$5, %rax
	ja	.LBB15_1098
# BB#1094:                              # %if.then4432
	jmpq	*.LJTI15_4(,%rax,8)
.LBB15_1096:                            # %sw.bb3.i10412
	movq	$99, %r15
	jmp	.LBB15_1101
.LBB15_1102:                            # %if.end4445
	andq	$255, %rax
	cmpq	$26, %rax
	jne	.LBB15_1106
# BB#1103:                              # %land.lhs.true4452
	movq	dconst0+16(%rip), %rax
	movq	%rax, 40(%rsp)
	movq	dconst0+8(%rip), %rax
	movq	%rax, 32(%rsp)
	movq	dconst0(%rip), %rax
	movq	%rax, 24(%rsp)
	movq	48(%r13), %rax
	movq	%rax, 16(%rsp)
	movq	32(%r13), %rax
	movq	40(%r13), %rcx
	movq	%rcx, 8(%rsp)
	movq	%rax, (%rsp)
	callq	ereal_cmp
	testq	%r14, %rax
	jne	.LBB15_1106
# BB#1104:                              # %land.lhs.true4458
	leaq	32(%r13), %rax
	movq	16(%rax), %rcx
	movq	%rcx, 16(%rsp)
	movq	(%rax), %rcx
	movq	8(%rax), %rax
	movq	%rax, 8(%rsp)
	movq	%rcx, (%rsp)
	callq	ereal_isneg
	testq	%r14, %rax
	je	.LBB15_1106
# BB#1105:                              # %if.then4464
	movq	8(%r13), %rdi
	movq	dconst0+16(%rip), %rax
	movq	%rax, 16(%rsp)
	movq	dconst0+8(%rip), %rax
	movq	%rax, 8(%rsp)
	movq	dconst0(%rip), %rax
	movq	%rax, (%rsp)
	callq	build_real
	movq	%rax, %rcx
	xorq	%rax, %rax
	movq	144(%rsp), %rdi         # 8-byte Reload
	jmp	.LBB15_636
.LBB15_1106:                            # %if.end4471
	movl	16(%rbx), %edx
	movq	%rdx, %rax
	andq	$255, %rax
	cmpq	$25, %rax
	jne	.LBB15_1107
# BB#1108:                              # %land.lhs.true4478
	movzbl	16(%r13), %eax
	cmpq	$25, %rax
	jne	.LBB15_1109
.LBB15_1107:
	movq	%r13, %r8
	movq	%rbx, %r13
	jmp	.LBB15_1116
.LBB15_1109:                            # %if.then4485
	movq	120(%rsp), %rdx         # 8-byte Reload
	movq	%r13, 32(%rdx)
	movq	%rbx, 40(%rdx)
	movq	144(%rsp), %rcx         # 8-byte Reload
	leaq	-97(%rcx), %rax
	andq	%r14, %rax
	cmpq	$5, %rax
	ja	.LBB15_1098
# BB#1110:                              # %if.then4485
	jmpq	*.LJTI15_5(,%rax,8)
.LBB15_1112:                            # %sw.bb3.i10405
	movq	$99, %rcx
	jmp	.LBB15_1115
.LBB15_796:                             # %if.end3686
	movq	144(%rsp), %r12         # 8-byte Reload
	leaq	-63(%r12), %rax
	andq	%r14, %rax
	cmpq	$1, %rax
	movq	128(%rsp), %r15         # 8-byte Reload
	ja	.LBB15_800
# BB#797:                               # %land.lhs.true3692
	movq	%r15, %rdi
	movq	168(%rsp), %rsi         # 8-byte Reload
	movq	%rbx, %rdx
	callq	multiple_of_p
	testq	%r14, %rax
	je	.LBB15_800
# BB#798:                               # %if.then3695
	movq	$71, %rdi
	xorq	%rax, %rax
	movq	%r15, %rsi
	movq	168(%rsp), %rdx         # 8-byte Reload
	jmp	.LBB15_799
.LBB15_603:                             # %if.end3164
	movq	128(%rsp), %r15         # 8-byte Reload
	movzbl	16(%r15), %eax
	cmpq	$7, %rax
	je	.LBB15_644
# BB#604:                               # %if.end3164
	cmpq	$8, %rax
	jne	.LBB15_606
# BB#605:                               # %land.lhs.true3178
	movq	8(%r15), %rax
	movzbl	16(%rax), %eax
	cmpq	$7, %rax
	jne	.LBB15_606
.LBB15_644:                             # %if.else3253
	movl	flag_unsafe_math_optimizations(%rip), %eax
	testq	%rax, %rax
	je	.LBB15_658
# BB#645:                               # %land.lhs.true3255
	movq	%rbx, %rdi
	callq	real_zerop
	testq	%r14, %rax
	je	.LBB15_658
# BB#646:                               # %if.then3258
	movq	%r15, %rdi
	movq	%r15, %r14
	movq	%rbx, %rsi
	callq	convert
	movq	168(%rsp), %rcx         # 8-byte Reload
	movzbl	17(%rcx), %ecx
	movq	%rax, %rbx
	testq	$1, %rcx
	jne	.LBB15_647
# BB#650:                               # %if.end.i10956
	movzbl	16(%rbx), %eax
	cmpq	$115, %rax
	jg	.LBB15_654
# BB#651:                               # %if.end.i10956
	cmpq	$29, %rax
	ja	.LBB15_618
# BB#652:                               # %if.end.i10956
	movq	$1, %rdx
	movq	%rax, %rcx
	shlq	%cl, %rdx
	testq	$637534208, %rdx        # imm = 0x26000000
	je	.LBB15_618
# BB#653:
	movq	%rbx, %r9
	jmp	.LBB15_1954
.LBB15_776:                             # %if.end3592
	movq	%rbx, %rdi
	callq	real_onep
	testq	%r14, %rax
	jne	.LBB15_704
# BB#777:                               # %if.end3598
	movzbl	16(%rbx), %eax
	cmpq	$26, %rax
	jne	.LBB15_786
# BB#778:                               # %if.then3605
	movl	flag_unsafe_math_optimizations(%rip), %eax
	testq	%rax, %rax
	je	.LBB15_783
# BB#779:                               # %land.lhs.true3607
	movq	dconst1+16(%rip), %rax
	movq	%rax, 16(%rsp)
	movq	dconst1+8(%rip), %rax
	movq	%rax, 8(%rsp)
	movq	dconst1(%rip), %rax
	movq	%rax, (%rsp)
	movq	128(%rsp), %rdi         # 8-byte Reload
	callq	build_real
	movq	$70, %rdi
	movq	%rax, %rsi
	movq	%rbx, %rdx
	callq	const_binop
	movq	%rax, %rcx
	testq	%rcx, %rcx
	je	.LBB15_783
# BB#780:                               # %if.then3612
	movq	$61, %rdi
	jmp	.LBB15_781
.LBB15_115:                             # %land.lhs.true547
	movq	8(%rdi), %rax
	movzbl	16(%rax), %ecx
	cmpq	$12, %rcx
	ja	.LBB15_121
# BB#116:                               # %land.lhs.true547
	movq	$1, %rdx
	shlq	%cl, %rdx
	testq	$7232, %rdx             # imm = 0x1C40
	je	.LBB15_121
# BB#117:                               # %land.lhs.true583
	movzbl	16(%rsi), %ecx
	cmpq	$12, %rcx
	ja	.LBB15_121
# BB#118:                               # %land.lhs.true583
	movq	$1, %rdx
	shlq	%cl, %rdx
	testq	$7232, %rdx             # imm = 0x1C40
	je	.LBB15_121
# BB#119:                               # %land.lhs.true643
	movl	60(%rax), %eax
	movl	target_flags(%rip), %edx
	andq	$511, %rax              # imm = 0x1FF
	movq	$20, %rcx
	shrq	%cl, %rdx
	andq	$32, %rdx
	addq	$32, %rdx
	movabsq	$4294967264, %rcx       # imm = 0xFFFFFFE0
	andq	%rdx, %rcx
	cmpq	%rcx, %rax
	jbe	.LBB15_120
.LBB15_121:                             # %if.then653
	movq	32(%rdi), %rdx
	movq	$51, %rdi
	xorq	%rax, %rax
	movq	%r9, %rcx
	callq	build
	movq	%rbx, %rdi
	movq	%r13, %rsi
	movq	%rax, %rdx
	jmp	.LBB15_293
.LBB15_155:                             # %lor.rhs1001.thread
	movq	%r8, %rax
	andq	$253, %rax
	cmpq	$13, %rax
	jne	.LBB15_156
# BB#157:                               # %lor.rhs1001.thread
	movabsq	$1, %rdi
	jmp	.LBB15_158
.LBB15_809:                             # %if.end3724
	movzbl	16(%rbx), %eax
	cmpq	$25, %rax
	jne	.LBB15_810
# BB#811:                               # %land.lhs.true3731
	movq	120(%rsp), %rax         # 8-byte Reload
	movq	32(%rax), %rdi
	xorq	%rcx, %rcx
	movq	%rbx, %rsi
	movq	144(%rsp), %r12         # 8-byte Reload
	movq	%r12, %rdx
	callq	extract_muldiv
	testq	%rax, %rax
	je	.LBB15_485
.LBB15_812:                             # %if.then3738
	movq	128(%rsp), %rdi         # 8-byte Reload
	movq	%rax, %rsi
	jmp	.LBB15_554
.LBB15_295:
	movq	120(%rsp), %r9          # 8-byte Reload
	jmp	.LBB15_1954
.LBB15_1610:                            # %if.else6614
	movq	%rdi, %r15
	movq	120(%rsp), %r13         # 8-byte Reload
	movq	48(%r13), %rsi
	xorq	%rdx, %rdx
	movq	%r12, %rbx
	movq	%rbx, %rdi
	callq	operand_equal_p
	testq	%r14, %rax
	je	.LBB15_1622
# BB#1611:                              # %if.then6620
	movq	128(%rsp), %r14         # 8-byte Reload
	movq	%r14, %rdi
	movq	%rbx, %rsi
	callq	convert
	movq	%r15, %rdx
	movzbl	17(%rdx), %ecx
	movq	%rax, %rbx
	testq	$1, %rcx
	je	.LBB15_1612
.LBB15_841:                             # %if.then.i10681
	movq	$47, %rdi
	xorq	%rax, %rax
	movq	%r14, %rsi
	movq	%rbx, %rcx
	jmp	.LBB15_520
.LBB15_364:                             # %if.end1902
	movq	168(%rsp), %rdi         # 8-byte Reload
	movzbl	16(%rdi), %ecx
	cmpq	$77, %rcx
	movq	128(%rsp), %rsi         # 8-byte Reload
	jne	.LBB15_366
# BB#365:                               # %if.then1909
	movq	32(%rdi), %rcx
	movq	$60, %rdi
	xorq	%rax, %rax
	jmp	.LBB15_1926
.LBB15_557:                             # %if.end2991
	movq	168(%rsp), %rcx         # 8-byte Reload
	movzbl	16(%rcx), %ecx
	cmpq	$77, %rcx
	movq	128(%rsp), %rbx         # 8-byte Reload
	jne	.LBB15_560
# BB#558:                               # %if.end2991
	cmpq	$26, %rax
	jne	.LBB15_560
# BB#559:                               # %if.then3005
	movq	8(%r12), %r14
	movq	48(%r12), %rax
	movq	%rax, 16(%rsp)
	movq	32(%r12), %rax
	movq	40(%r12), %rcx
	movq	%rcx, 8(%rsp)
	leaq	248(%rsp), %rdi
	movq	%rax, (%rsp)
	callq	ereal_negate
	movq	264(%rsp), %rax
	movq	%rax, 16(%rsp)
	movq	248(%rsp), %rax
	movq	256(%rsp), %rcx
	movq	%rcx, 8(%rsp)
	movq	%rax, (%rsp)
	movq	%r14, %rdi
	callq	build_real
	movq	168(%rsp), %rcx         # 8-byte Reload
	movq	32(%rcx), %rcx
	movq	%rax, %rdx
	movq	$60, %rdi
	xorq	%rax, %rax
	movq	%rbx, %rsi
	jmp	.LBB15_1926
.LBB15_347:                             # %if.then1760
	movq	128(%rsp), %rdi         # 8-byte Reload
	jmp	.LBB15_554
.LBB15_1889:
	movq	120(%rsp), %r9          # 8-byte Reload
	jmp	.LBB15_1954
.LBB15_1906:                            # %if.then7503
	movq	global_trees+88(%rip), %rsi
	movq	128(%rsp), %rdi         # 8-byte Reload
	jmp	.LBB15_554
.LBB15_1930:                            # %if.then7568
	movq	120(%rsp), %rax         # 8-byte Reload
	movq	32(%rax), %r9
	jmp	.LBB15_1954
.LBB15_316:                             # %if.else1563
	cmpq	$60, %rax
	movq	120(%rsp), %rsi         # 8-byte Reload
	jne	.LBB15_317
# BB#319:                               # %land.lhs.true1581
	movq	%rcx, %rdx
	movq	%r14, %rcx
	movq	128(%rsp), %rax         # 8-byte Reload
	movzbl	16(%rax), %eax
	cmpq	$7, %rax
	jne	.LBB15_320
# BB#323:                               # %lor.lhs.false1604
	movl	flag_unsafe_math_optimizations(%rip), %eax
	testq	%rax, %rax
	jmp	.LBB15_324
.LBB15_850:                             # %if.end3935
	movq	128(%rsp), %rdx         # 8-byte Reload
	movzbl	16(%rdx), %ecx
	cmpq	$12, %rcx
	movq	$78, %r12
	ja	.LBB15_459
# BB#851:                               # %if.end3935
	movq	$1, %rax
	shlq	%cl, %rax
	testq	$7232, %rax             # imm = 0x1C40
	je	.LBB15_459
# BB#852:                               # %land.lhs.true3963
	movq	104(%rdx), %rsi
	movq	$1, %rdx
	movq	%rbx, %rdi
	callq	operand_equal_p
	testq	%r14, %rax
	je	.LBB15_853
# BB#854:                               # %if.then3967
	movq	128(%rsp), %rdi         # 8-byte Reload
	movq	%rbx, %rsi
	callq	convert
	movq	168(%rsp), %rcx         # 8-byte Reload
	movzbl	17(%rcx), %ecx
	movq	%rax, %rbx
	testq	$1, %rcx
	jne	.LBB15_608
# BB#855:                               # %if.end.i10663
	movzbl	16(%rbx), %eax
	cmpq	$115, %rax
	jg	.LBB15_859
# BB#856:                               # %if.end.i10663
	cmpq	$29, %rax
	ja	.LBB15_618
# BB#857:                               # %if.end.i10663
	movq	$1, %rdx
	movq	%rax, %rcx
	shlq	%cl, %rdx
	testq	$637534208, %rdx        # imm = 0x26000000
	je	.LBB15_618
# BB#858:
	movq	%rbx, %r9
	jmp	.LBB15_1954
.LBB15_873:                             # %if.end3975
	movq	128(%rsp), %rdx         # 8-byte Reload
	movzbl	16(%rdx), %ecx
	cmpq	$12, %rcx
	movq	$79, %r12
	ja	.LBB15_459
# BB#874:                               # %if.end3975
	movq	$1, %rax
	shlq	%cl, %rax
	testq	$7232, %rax             # imm = 0x1C40
	je	.LBB15_459
# BB#875:                               # %land.lhs.true4003
	movq	112(%rdx), %rax
	testq	%rax, %rax
	je	.LBB15_876
# BB#877:                               # %land.lhs.true4006
	movq	$1, %rdx
	movq	%rbx, %rdi
	movq	%rax, %rsi
	callq	operand_equal_p
	testq	%r14, %rax
	je	.LBB15_878
# BB#879:                               # %if.then4011
	movq	128(%rsp), %rdi         # 8-byte Reload
	movq	%rbx, %rsi
	callq	convert
	movq	168(%rsp), %rcx         # 8-byte Reload
	movzbl	17(%rcx), %ecx
	movq	%rax, %rbx
	testq	$1, %rcx
	jne	.LBB15_608
# BB#880:                               # %if.end.i10619
	movzbl	16(%rbx), %eax
	cmpq	$115, %rax
	jg	.LBB15_884
# BB#881:                               # %if.end.i10619
	cmpq	$29, %rax
	ja	.LBB15_618
# BB#882:                               # %if.end.i10619
	movq	$1, %rdx
	movq	%rax, %rcx
	shlq	%cl, %rdx
	testq	$637534208, %rdx        # imm = 0x26000000
	je	.LBB15_618
# BB#883:
	movq	%rbx, %r9
	jmp	.LBB15_1954
.LBB15_343:                             # %if.else1730
	cmpq	$77, %rax
	je	.LBB15_345
# BB#344:                               # %if.else1730
	cmpq	$80, %rax
	movq	120(%rsp), %r9          # 8-byte Reload
	jne	.LBB15_1954
.LBB15_345:                             # %if.then1744
	movq	32(%rdx), %rdx
	movq	$80, %rdi
.LBB15_292:                             # %return
	movq	128(%rsp), %rsi         # 8-byte Reload
.LBB15_293:                             # %return
	callq	build1
	movq	%rax, %r9
	jmp	.LBB15_1954
.LBB15_359:                             # %if.else1876
	movq	168(%rsp), %rax         # 8-byte Reload
	movzbl	16(%rax), %eax
	cmpq	$90, %rax
	movq	120(%rsp), %r9          # 8-byte Reload
	jne	.LBB15_1954
# BB#360:                               # %if.then1883
	movq	168(%rsp), %rax         # 8-byte Reload
	movq	32(%rax), %r9
	jmp	.LBB15_1954
.LBB15_1059:                            # %if.end4345
	movq	%rbx, %r15
	movq	%r12, %rbx
	movq	%rbx, %rdi
	callq	integer_zerop
	testq	%r14, %rax
	movq	128(%rsp), %rdi         # 8-byte Reload
	je	.LBB15_1068
# BB#1060:                              # %if.then4348
	movq	%r15, %rsi
	callq	convert
	movzbl	16(%rax), %ecx
	cmpq	$115, %rcx
	jg	.LBB15_1064
# BB#1061:                              # %if.then4348
	cmpq	$29, %rcx
	ja	.LBB15_617
# BB#1062:                              # %if.then4348
	movq	$1, %rdx
	shlq	%cl, %rdx
	testq	$637534208, %rdx        # imm = 0x26000000
	je	.LBB15_617
# BB#1063:
	movq	%rax, %r9
	jmp	.LBB15_1954
.LBB15_800:                             # %if.end3698
	movzbl	16(%rbx), %eax
	cmpq	$25, %rax
	jne	.LBB15_485
# BB#801:                               # %land.lhs.true3705
	movq	120(%rsp), %rax         # 8-byte Reload
	movq	32(%rax), %rdi
	xorq	%rcx, %rcx
	movq	%rbx, %rsi
	movq	%r12, %rdx
	callq	extract_muldiv
	testq	%rax, %rax
	je	.LBB15_485
# BB#802:                               # %if.then3712
	movq	%r15, %rdi
	movq	%rax, %rsi
	jmp	.LBB15_554
.LBB15_160:
	movabsq	$0, %rdi
.LBB15_162:                             # %lor.end
	cmpq	$7, %rax
	jne	.LBB15_164
# BB#163:
	movq	$1, 144(%rsp)           # 8-byte Folded Spill
	jmp	.LBB15_170
.LBB15_816:
	movq	120(%rsp), %r9          # 8-byte Reload
	jmp	.LBB15_1954
.LBB15_823:
	movq	%r15, 120(%rsp)         # 8-byte Spill
	jmp	.LBB15_485
.LBB15_301:                             # %if.then1495
	cmpq	$25, %rax
	movq	%rdx, %r9
	jne	.LBB15_1954
# BB#302:                               # %if.then1502
	movq	%rcx, %rax
	movq	32(%rax), %rcx
	movq	40(%rax), %rdx
	movq	%rax, %rbx
	testq	%rcx, %rcx
	je	.LBB15_303
# BB#307:                               # %if.else.i11044
	negq	%rcx
	notq	%rdx
	movq	$1, %r12
	movq	%rdx, %rax
	jmp	.LBB15_308
.LBB15_328:                             # %if.then1619
	movq	%rdx, %rbx
	cmpq	$25, %rax
	movq	120(%rsp), %r9          # 8-byte Reload
	jne	.LBB15_1954
# BB#329:                               # %if.then1626
	movq	128(%rsp), %rax         # 8-byte Reload
	movzbl	17(%rax), %eax
	testq	$32, %rax
	je	.LBB15_331
# BB#330:
	movq	%rbx, %r9
	jmp	.LBB15_1954
.LBB15_923:                             # %if.end4072
	movq	168(%rsp), %rdi         # 8-byte Reload
	callq	integer_zerop
	testq	%r14, %rax
	movq	128(%rsp), %r15         # 8-byte Reload
	movq	144(%rsp), %r12         # 8-byte Reload
	je	.LBB15_936
# BB#924:                               # %if.then4075
	movq	%r15, %rdi
	movq	%r15, %r14
	movq	168(%rsp), %rsi         # 8-byte Reload
	callq	convert
	movzbl	17(%rbx), %ecx
	movq	%rax, %r8
	testq	$1, %rcx
	je	.LBB15_928
.LBB15_925:                             # %if.then.i10543
	movq	$47, %rdi
	xorq	%rax, %rax
	movq	%r14, %rsi
	jmp	.LBB15_926
.LBB15_936:                             # %truth_andor
	movl	optimize(%rip), %eax
	testq	%rax, %rax
	je	.LBB15_937
# BB#938:                               # %if.end4080
	movq	168(%rsp), %rax         # 8-byte Reload
	movzbl	16(%rax), %eax
	movzbl	16(%rbx), %ecx
	cmpq	%rcx, %rax
	jne	.LBB15_955
# BB#939:                               # %if.end4080
	leaq	-91(%rax), %rcx
	andq	%r14, %rcx
	cmpq	$3, %rcx
	ja	.LBB15_955
# BB#940:                               # %land.lhs.true4119
	movq	168(%rsp), %rcx         # 8-byte Reload
	movq	40(%rcx), %r13
	movzbl	17(%r13), %ecx
	testq	$1, %rcx
	jne	.LBB15_955
# BB#941:                               # %if.then4129
	movq	168(%rsp), %rcx         # 8-byte Reload
	movq	32(%rcx), %rcx
	movq	%rcx, 160(%rsp)         # 8-byte Spill
	movq	%rbx, %rcx
	movq	32(%rcx), %rdx
	movq	%rdx, 152(%rsp)         # 8-byte Spill
	movq	40(%rcx), %rdx
	movq	%rdx, 136(%rsp)         # 8-byte Spill
                                        # kill: RBX<def> RCX<kill>
	addq	$-93, %rax
	andq	%r14, %rax
	movq	$0, 112(%rsp)           # 8-byte Folded Spill
	cmpq	$1, %rax
	ja	.LBB15_943
# BB#942:                               # %land.rhs4160
	leaq	-93(%r12), %rax
	andq	%r14, %rax
	cmpq	$2, %rax
	sbbq	%rax, %rax
	andq	$1, %rax
	movq	%rax, 112(%rsp)         # 8-byte Spill
.LBB15_943:                             # %land.end4168
	xorq	%rdx, %rdx
	movq	160(%rsp), %rdi         # 8-byte Reload
	movq	152(%rsp), %rsi         # 8-byte Reload
	callq	operand_equal_p
	testq	%r14, %rax
	je	.LBB15_946
# BB#944:                               # %if.then4172
	movq	168(%rsp), %rax         # 8-byte Reload
	movzbl	16(%rax), %r14d
	xorq	%rax, %rax
	movq	%r12, %rdi
	movq	%r15, %rsi
	movq	%r13, %rdx
	movq	136(%rsp), %rcx         # 8-byte Reload
	jmp	.LBB15_945
.LBB15_156:
	movabsq	$0, %rdi
.LBB15_158:                             # %lor.rhs1001.thread
	xorq	%r11, %r11
	movq	$0, 144(%rsp)           # 8-byte Folded Spill
	jmp	.LBB15_170
.LBB15_810:
	movq	144(%rsp), %r12         # 8-byte Reload
	jmp	.LBB15_485
.LBB15_164:                             # %lor.rhs1001
	cmpq	$8, %rax
	jne	.LBB15_165
# BB#166:                               # %land.rhs1008
	movq	8(%r15), %rax
	movzbl	16(%rax), %eax
	cmpq	$7, %rax
	jne	.LBB15_167
# BB#168:                               # %land.rhs1008
	movabsq	$1, %rax
	jmp	.LBB15_169
.LBB15_1601:
	movabsq	$0, %rax
.LBB15_1603:                            # %if.then6605
	movq	120(%rsp), %rdx         # 8-byte Reload
	movl	pedantic_lvalues(%rip), %ecx
	movq	40(%rdx,%rax,8), %r9
	testq	%rcx, %rcx
	je	.LBB15_1954
# BB#1604:                              # %if.then.i10099
	movzbl	16(%r9), %eax
	cmpq	$115, %rax
	jg	.LBB15_1607
# BB#1605:                              # %if.then.i10099
	cmpq	$29, %rax
	ja	.LBB15_1609
# BB#1606:                              # %if.then.i10099
	movq	$1, %rdx
	movq	%rax, %rcx
	shlq	%cl, %rdx
	testq	$637534208, %rdx        # imm = 0x26000000
	jne	.LBB15_1954
	jmp	.LBB15_1609
.LBB15_1933:                            # %if.then7595
	movq	8(%rbx), %rsi
	movq	$56, %rdi
	movq	%rbx, %rdx
	callq	build1
	movq	%rax, %rdi
	callq	fold
	movq	%r12, %rdi
	movq	128(%rsp), %rsi         # 8-byte Reload
	jmp	.LBB15_702
.LBB15_893:                             # %if.then4041
	movq	128(%rsp), %rdi         # 8-byte Reload
	movq	%r12, %rsi
	callq	convert
	movzbl	16(%rax), %ecx
	cmpq	$115, %rcx
	jg	.LBB15_897
# BB#894:                               # %if.then4041
	cmpq	$29, %rcx
	ja	.LBB15_617
# BB#895:                               # %if.then4041
	movq	$1, %rdx
	shlq	%cl, %rdx
	testq	$637534208, %rdx        # imm = 0x26000000
	je	.LBB15_617
# BB#896:
	movq	%rax, %r9
	jmp	.LBB15_1954
.LBB15_352:                             # %if.else1762
	cmpq	$126, %rbx
	jne	.LBB15_353
# BB#356:                               # %if.then1829
	movq	32(%rcx), %r9
	jmp	.LBB15_1954
.LBB15_1891:                            # %if.else7434
	cmpq	$27, %r12
	jne	.LBB15_1892
# BB#1903:                              # %if.then7456
	movq	32(%rbx), %r9
	jmp	.LBB15_1954
.LBB15_1908:                            # %if.else7505
	cmpq	$27, %r12
	jne	.LBB15_1909
# BB#1922:                              # %if.then7527
	movq	40(%rbx), %r9
	jmp	.LBB15_1954
.LBB15_366:                             # %if.else1915
	movzbl	16(%rsi), %ecx
	cmpq	$7, %rcx
	je	.LBB15_433
# BB#367:                               # %if.else1915
	cmpq	$8, %rcx
	jne	.LBB15_369
# BB#368:                               # %land.lhs.true1929
	movq	8(%rsi), %rcx
	movzbl	16(%rcx), %ecx
	cmpq	$7, %rcx
	jne	.LBB15_369
.LBB15_433:                             # %if.else2295
	movq	%rdx, %r12
	movl	flag_unsafe_math_optimizations(%rip), %ecx
	testq	%rcx, %rcx
	je	.LBB15_436
# BB#434:                               # %land.lhs.true2297
	movq	%r12, %rdi
	callq	real_zerop
	testq	%r14, %rax
	je	.LBB15_435
# BB#443:                               # %if.then2300
	movq	128(%rsp), %rdi         # 8-byte Reload
	movq	168(%rsp), %rsi         # 8-byte Reload
	callq	convert
	movq	%rax, %rcx
	movzbl	16(%rcx), %eax
	movq	%rcx, %rsi
	cmpq	$115, %rax
	jg	.LBB15_447
# BB#444:                               # %if.then2300
	cmpq	$29, %rax
	ja	.LBB15_686
# BB#445:                               # %if.then2300
	movq	$1, %rdx
	movq	%rax, %rcx
	shlq	%cl, %rdx
	testq	$637534208, %rdx        # imm = 0x26000000
	je	.LBB15_686
# BB#446:
	movq	%rsi, %r9
	jmp	.LBB15_1954
.LBB15_560:                             # %if.end3017
	movzbl	16(%rbx), %eax
	cmpq	$7, %rax
	je	.LBB15_579
# BB#561:                               # %if.end3017
	cmpq	$8, %rax
	jne	.LBB15_563
# BB#562:                               # %land.lhs.true3031
	movq	8(%rbx), %rax
	movzbl	16(%rax), %eax
	cmpq	$7, %rax
	jne	.LBB15_563
.LBB15_579:                             # %if.else3092
	movq	%r12, %rbx
	movl	flag_unsafe_math_optimizations(%rip), %eax
	testq	%rax, %rax
	je	.LBB15_591
# BB#580:                               # %if.then3094
	movq	152(%rsp), %rax         # 8-byte Reload
	testq	%r14, %rax
	jne	.LBB15_582
# BB#581:                               # %land.lhs.true3096
	movq	168(%rsp), %rdi         # 8-byte Reload
	callq	real_zerop
	testq	%r14, %rax
	jne	.LBB15_565
.LBB15_582:                             # %if.end3102
	movq	%rbx, %rdi
	callq	real_zerop
	testq	%r14, %rax
	je	.LBB15_591
# BB#583:                               # %if.then3105
	movq	128(%rsp), %rdi         # 8-byte Reload
	movq	168(%rsp), %rsi         # 8-byte Reload
	callq	convert
	movq	%rax, %rcx
	movzbl	16(%rcx), %eax
	movq	%rcx, %rsi
	cmpq	$115, %rax
	jg	.LBB15_587
# BB#584:                               # %if.then3105
	cmpq	$29, %rax
	ja	.LBB15_686
# BB#585:                               # %if.then3105
	movq	$1, %rdx
	movq	%rax, %rcx
	shlq	%cl, %rdx
	testq	$637534208, %rdx        # imm = 0x26000000
	je	.LBB15_686
# BB#586:
	movq	%rsi, %r9
	jmp	.LBB15_1954
.LBB15_317:                             # %if.else1563
	cmpq	$77, %rax
	movq	%rsi, %r9
	jne	.LBB15_1954
# BB#318:                               # %if.then1570
	movq	32(%rcx), %r9
	jmp	.LBB15_1954
.LBB15_1884:                            # %if.end7417
	movq	128(%rsp), %rdi         # 8-byte Reload
	movq	%rbx, %rsi
	jmp	.LBB15_554
.LBB15_846:                             # %if.end.i10685
	cmpq	$116, %rax
	jne	.LBB15_848
# BB#847:
	movq	%rbx, %r9
	jmp	.LBB15_1954
.LBB15_869:                             # %if.end.i10641
	cmpq	$116, %rax
	jne	.LBB15_871
# BB#870:
	movq	%rbx, %r9
	jmp	.LBB15_1954
.LBB15_716:                             # %if.end3337
	movq	%rbx, %r12
	movq	168(%rsp), %rax         # 8-byte Reload
	movzbl	16(%rax), %eax
	cmpq	$88, %rax
	movq	$87, %r15
	jne	.LBB15_455
# BB#717:                               # %land.lhs.true3344
	movzbl	16(%r12), %eax
	cmpq	$88, %rax
	jne	.LBB15_455
# BB#718:                               # %land.lhs.true3351
	movq	168(%rsp), %rax         # 8-byte Reload
	movq	40(%rax), %rax
	movzbl	16(%rax), %ecx
	cmpq	$25, %rcx
	jne	.LBB15_455
# BB#719:                               # %land.lhs.true3361
	movq	40(%r12), %rcx
	movzbl	16(%rcx), %edx
	cmpq	$25, %rdx
	jne	.LBB15_455
# BB#720:                               # %land.lhs.true3371
	movq	$88, %rdi
	movq	%rax, %rsi
	movq	%rcx, %rdx
	callq	const_binop
	movq	%rax, %rdi
	callq	integer_zerop
	testq	%r14, %rax
	jne	.LBB15_675
	jmp	.LBB15_455
.LBB15_771:                             # %if.end3558
	movzbl	16(%r12), %eax
	cmpq	$25, %rax
	jne	.LBB15_772
# BB#721:                               # %if.then3565
	movq	$90, %rdi
	movq	128(%rsp), %rsi         # 8-byte Reload
	movq	%r12, %rdx
	callq	build1
	movq	%rax, %rdi
	callq	fold
	movq	%rax, %r12
.LBB15_722:                             # %bit_and
	movq	%r12, %rbx
	movq	%rbx, %rdi
	callq	integer_all_onesp
	testq	%r14, %rax
	je	.LBB15_723
.LBB15_704:                             # %if.then3328
	movq	128(%rsp), %rdi         # 8-byte Reload
	movq	168(%rsp), %rsi         # 8-byte Reload
.LBB15_705:                             # %if.then3328
	callq	convert
	movq	%rax, %r9
.LBB15_706:                             # %if.then3328
	movzbl	16(%r9), %ecx
	cmpq	$115, %rcx
	jg	.LBB15_709
# BB#707:                               # %if.then3328
	cmpq	$29, %rcx
	ja	.LBB15_711
# BB#708:                               # %if.then3328
	movq	$1, %rax
	shlq	%cl, %rax
	testq	$637534208, %rax        # imm = 0x26000000
	jne	.LBB15_1954
	jmp	.LBB15_711
.LBB15_709:                             # %if.then3328
	cmpq	$116, %rcx
	je	.LBB15_1954
# BB#710:                               # %if.then3328
	cmpq	$121, %rcx
	je	.LBB15_1954
.LBB15_711:                             # %if.end.i10893
	movq	8(%r9), %rsi
	movq	$116, %rdi
	movq	%r9, %rdx
	movq	%r9, %rbx
.LBB15_619:                             # %return
	callq	build1
	movl	16(%rbx), %ecx
	movl	16(%rax), %edx
	andq	$512, %rcx              # imm = 0x200
	movabsq	$4294966783, %rsi       # imm = 0xFFFFFDFF
	andq	%rdx, %rsi
	orq	%rcx, %rsi
	movl	%esi, 16(%rax)
	movq	%rax, %r9
	jmp	.LBB15_1954
.LBB15_723:                             # %if.end3389
	movq	%rbx, %rdi
	callq	integer_zerop
	testq	%r14, %rax
	movq	128(%rsp), %r15         # 8-byte Reload
	je	.LBB15_734
# BB#724:                               # %if.then3392
	movq	%r15, %rdi
	movq	%rbx, %rsi
	callq	convert
	movq	168(%rsp), %rdx         # 8-byte Reload
	movzbl	17(%rdx), %ecx
	movq	%rax, %rbx
	testq	$1, %rcx
	je	.LBB15_726
# BB#725:                               # %if.then.i10803
	movq	$47, %rdi
	xorq	%rax, %rax
	movq	%r15, %rsi
	movq	%rbx, %rcx
	jmp	.LBB15_520
.LBB15_1028:                            # %if.then4311
	movq	%r15, %rdi
	movq	168(%rsp), %rsi         # 8-byte Reload
	callq	convert
	movzbl	16(%rax), %ecx
	cmpq	$115, %rcx
	jg	.LBB15_1032
# BB#1029:                              # %if.then4311
	cmpq	$29, %rcx
	ja	.LBB15_617
# BB#1030:                              # %if.then4311
	movq	$1, %rdx
	shlq	%cl, %rdx
	testq	$637534208, %rdx        # imm = 0x26000000
	je	.LBB15_617
# BB#1031:
	movq	%rax, %r9
	jmp	.LBB15_1954
.LBB15_1038:                            # %if.then4324
	movq	%r15, %rdi
	movq	%r15, %r14
	movq	%rbx, %rsi
	callq	convert
	movzbl	1(%r13), %ecx
	movq	%rax, %rbx
	testq	$1, %rcx
	je	.LBB15_1039
.LBB15_647:                             # %if.then.i10952
	movq	$47, %rdi
	xorq	%rax, %rax
	movq	%r14, %rsi
	jmp	.LBB15_648
.LBB15_1113:                            # %sw.bb4.i10406
	movq	$100, %rcx
	jmp	.LBB15_1115
.LBB15_1114:                            # %sw.bb1.i10403
	movq	$97, %rcx
	jmp	.LBB15_1115
.LBB15_1111:                            # %sw.bb2.i10404
	movq	$98, %rcx
.LBB15_1115:                            # %swap_tree_comparison.exit10409
	movq	%rcx, 144(%rsp)         # 8-byte Spill
	movb	%cl, 16(%rdx)
	movl	16(%r13), %edx
	movq	%rbx, %r8
.LBB15_1116:                            # %if.end4505
	movl	16(%r8), %eax
	movq	$54, %rcx
	movq	%rax, %rbx
	shlq	%cl, %rbx
	movq	$63, %rcx
	sarq	%cl, %rbx
	movq	%rax, %r12
	andq	$512, %r12              # imm = 0x200
	movq	%rbx, %r15
	andq	%r8, %r15
	andq	%r13, %rbx
	movq	$8, %rcx
	shrq	%cl, %r12
	decq	%r12
	andq	$512, %rdx              # imm = 0x200
	je	.LBB15_1118
# BB#1117:                              # %if.end4505
	movq	%r13, %r15
.LBB15_1118:                            # %if.end4505
	je	.LBB15_1120
# BB#1119:                              # %if.end4505
	movq	%r8, %rbx
.LBB15_1120:                            # %if.end4505
	testq	%rdx, %rdx
	je	.LBB15_1122
# BB#1121:                              # %if.end4505
	xorq	%r12, %r12
.LBB15_1122:                            # %if.end4505
	testq	%r15, %r15
	je	.LBB15_1157
# BB#1123:                              # %land.lhs.true4526
	movzbl	16(%rbx), %ecx
	cmpq	$131, %rcx
	jne	.LBB15_1124
# BB#1153:                              # %if.then4713
	movq	8(%rbx), %rsi
	movzbl	16(%rsi), %ecx
	addq	$-7, %rcx
	andq	%r14, %rcx
	cmpq	$8, %rcx
	ja	.LBB15_1167
# BB#1154:                              # %if.then4713
	jmpq	*.LJTI15_6(,%rcx,8)
.LBB15_1155:                            # %land.lhs.true4749
	movq	8(%rsi), %rcx
	movzbl	16(%rcx), %ecx
	cmpq	$7, %rcx
	je	.LBB15_1157
# BB#1156:                              # %land.lhs.true4749
	movq	144(%rsp), %rcx         # 8-byte Reload
	leaq	-101(%rcx), %rcx
	andq	%r14, %rcx
	cmpq	$2, %rcx
	jb	.LBB15_1168
	jmp	.LBB15_1157
.LBB15_1124:                            # %land.lhs.true4526
	cmpq	$132, %rcx
	jne	.LBB15_1157
# BB#1125:                              # %if.then4533
	movq	8(%rbx), %rsi
	movzbl	16(%rsi), %ecx
	addq	$-7, %rcx
	andq	%r14, %rcx
	cmpq	$8, %rcx
	ja	.LBB15_1129
# BB#1126:                              # %if.then4533
	jmpq	*.LJTI15_7(,%rcx,8)
.LBB15_1127:                            # %land.lhs.true4569
	movq	8(%rsi), %rcx
	movzbl	16(%rcx), %ecx
	cmpq	$7, %rcx
	je	.LBB15_1157
# BB#1128:                              # %land.lhs.true4569
	movq	144(%rsp), %rcx         # 8-byte Reload
	leaq	-101(%rcx), %rcx
	andq	%r14, %rcx
	cmpq	$2, %rcx
	jb	.LBB15_1130
	jmp	.LBB15_1157
.LBB15_1167:                            # %land.lhs.true4760
	movq	144(%rsp), %rcx         # 8-byte Reload
	leaq	-101(%rcx), %rcx
	andq	%r14, %rcx
	cmpq	$1, %rcx
	ja	.LBB15_1157
.LBB15_1168:                            # %if.then4766
	movq	40(%rbx), %rcx
	movq	$60, %rdi
	xorq	%rax, %rax
	movq	%r15, %rdx
	callq	build
	movq	%rax, %rdi
	callq	fold
	movq	8(%rbx), %rsi
	movq	32(%rbx), %rdx
	movq	40(%rbx), %rcx
	movq	%rax, %r13
	movq	$129, %rdi
	xorq	%rax, %rax
	callq	build
	movq	%rax, %rbx
	movq	32(%rbx), %rcx
	movzbl	16(%rcx), %eax
	cmpq	$39, %rax
	jne	.LBB15_1185
# BB#1169:                              # %land.lhs.true4794
	movq	40(%rcx), %rax
	movzbl	49(%rax), %edx
	testq	$16, %rdx
	je	.LBB15_1185
# BB#1170:                              # %if.then4808
	movq	40(%rax), %rax
	movq	32(%rax), %rax
	movq	%rax, 168(%rsp)         # 8-byte Spill
	xorq	%rax, %rax
	testq	%r14, %r12
	je	.LBB15_1171
# BB#1172:                              # %if.else4839
	movq	144(%rsp), %rdi         # 8-byte Reload
	movq	128(%rsp), %rsi         # 8-byte Reload
	movq	%rcx, %rdx
	movq	%r15, %rcx
	jmp	.LBB15_1173
.LBB15_1129:                            # %land.lhs.true4580
	movq	144(%rsp), %rcx         # 8-byte Reload
	leaq	-101(%rcx), %rcx
	andq	%r14, %rcx
	cmpq	$1, %rcx
	ja	.LBB15_1157
.LBB15_1130:                            # %if.then4586
	movq	40(%rbx), %rcx
	movq	$59, %rdi
	xorq	%rax, %rax
	movq	%r15, %rdx
	callq	build
	movq	%rax, %rdi
	callq	fold
	movq	8(%rbx), %rsi
	movq	32(%rbx), %rdx
	movq	40(%rbx), %rcx
	movq	%rax, %r13
	movq	$130, %rdi
	xorq	%rax, %rax
	callq	build
	movq	%rax, %rbx
	movq	32(%rbx), %rcx
	movzbl	16(%rcx), %eax
	cmpq	$39, %rax
	jne	.LBB15_1148
# BB#1131:                              # %land.lhs.true4613
	movq	40(%rcx), %rax
	movzbl	49(%rax), %edx
	testq	$16, %rdx
	je	.LBB15_1148
# BB#1132:                              # %if.then4627
	movq	40(%rax), %rax
	movq	32(%rax), %rax
	movq	%rax, 168(%rsp)         # 8-byte Spill
	xorq	%rax, %rax
	testq	%r14, %r12
	je	.LBB15_1133
# BB#1134:                              # %if.else4654
	movq	144(%rsp), %rdi         # 8-byte Reload
	movq	128(%rsp), %rsi         # 8-byte Reload
	movq	%rcx, %rdx
	movq	%r15, %rcx
	jmp	.LBB15_1135
.LBB15_1157:                            # %if.end4892
	movq	8(%r8), %rdx
	movl	60(%rdx), %esi
	movq	$8, %rcx
	shrq	%cl, %rsi
	movq	%rax, %rcx
	andq	$255, %rcx
	cmpq	$25, %rcx
	jne	.LBB15_1266
# BB#1158:                              # %land.lhs.true4910
	testq	$262144, %rax           # imm = 0x40000
	jne	.LBB15_1266
# BB#1159:                              # %land.lhs.true4910
	andq	$254, %rsi
	movzbl	mode_bitsize(%rsi), %esi
	cmpq	$64, %rsi
	ja	.LBB15_1266
# BB#1160:                              # %land.lhs.true4920
	movl	16(%rdx), %edx
	movq	%rdx, %rax
	andq	$255, %rax
	cmpq	$15, %rax
	ja	.LBB15_1266
# BB#1161:                              # %land.lhs.true4920
	movq	$1, %rdi
	movq	%rax, %rcx
	shlq	%cl, %rdi
	testq	$48192, %rdi            # imm = 0xBC40
	je	.LBB15_1266
# BB#1162:                              # %if.then4974
	movq	40(%r8), %rdi
	testq	%rdi, %rdi
	jne	.LBB15_1209
# BB#1163:                              # %land.lhs.true4980
	movq	32(%r8), %rbx
	leaq	-1(%rsi), %rcx
	movq	%r8, %r9
	movq	$1, %r8
	shlq	%cl, %r8
	decq	%r8
	cmpq	%r8, %rbx
	movq	%r9, %r8
	jne	.LBB15_1233
# BB#1164:                              # %land.lhs.true4990
	testq	$8192, %rdx             # imm = 0x2000
	je	.LBB15_1165
.LBB15_1209:                            # %if.else5022
	movq	%r8, %rbx
	cmpq	$-1, %rdi
	jne	.LBB15_1232
# BB#1210:                              # %land.lhs.true5028
	movq	32(%rbx), %r9
	leaq	-1(%rsi), %rcx
	movq	$1, %r8
	shlq	%cl, %r8
	cmpq	%r8, %r9
	jne	.LBB15_1232
# BB#1211:                              # %land.lhs.true5028
	movq	%rdx, %rcx
	andq	$8192, %rcx             # imm = 0x2000
	testq	%r14, %rcx
	jne	.LBB15_1232
# BB#1212:                              # %if.then5046
	movq	120(%rsp), %rax         # 8-byte Reload
	movl	16(%rax), %eax
	movq	%rax, %rcx
	andq	$255, %rcx
	addq	$-97, %rcx
	andq	%r14, %rcx
	cmpq	$3, %rcx
	movq	%rbx, %r8
	ja	.LBB15_1266
# BB#1213:                              # %if.then5046
	movq	%r8, %rdx
	movq	%r13, %r15
	jmpq	*.LJTI15_9(,%rcx,8)
.LBB15_1214:                            # %sw.bb5051
	movq	global_trees+88(%rip), %rax
	movq	128(%rsp), %rbx         # 8-byte Reload
	movq	%rbx, %rdi
	movq	%rax, %rsi
	callq	convert
	movq	%rbx, %rdi
	movq	%rax, %rsi
	callq	convert
	movzbl	17(%r15), %ecx
	movq	%rax, %r8
	testq	$1, %rcx
	jne	.LBB15_1191
# BB#1215:                              # %if.end.i10301
	movzbl	16(%r8), %eax
	cmpq	$115, %rax
	jg	.LBB15_1219
# BB#1216:                              # %if.end.i10301
	cmpq	$29, %rax
	ja	.LBB15_1472
# BB#1217:                              # %if.end.i10301
	movq	$1, %rdx
	movq	%rax, %rcx
	shlq	%cl, %rdx
	testq	$637534208, %rdx        # imm = 0x26000000
	je	.LBB15_1472
# BB#1218:
	movq	%r8, %r9
	jmp	.LBB15_1954
.LBB15_606:                             # %if.then3187
	movq	%rbx, %rdi
	callq	integer_zerop
	testq	%r14, %rax
	je	.LBB15_620
# BB#607:                               # %if.then3190
	movq	128(%rsp), %rdi         # 8-byte Reload
	movq	%rbx, %rsi
	callq	convert
	movq	168(%rsp), %rcx         # 8-byte Reload
	movzbl	17(%rcx), %ecx
	movq	%rax, %rbx
	testq	$1, %rcx
	je	.LBB15_609
.LBB15_608:                             # %if.then.i10988
	movq	$47, %rdi
	xorq	%rax, %rax
	movq	128(%rsp), %rsi         # 8-byte Reload
.LBB15_648:                             # %return
	movq	168(%rsp), %rdx         # 8-byte Reload
	movq	%rbx, %rcx
	jmp	.LBB15_520
.LBB15_658:                             # %if.end3260
	movq	%rbx, %rdi
	callq	real_onep
	testq	%r14, %rax
	je	.LBB15_667
# BB#659:                               # %if.then3263
	movq	128(%rsp), %rdi         # 8-byte Reload
	movq	168(%rsp), %rsi         # 8-byte Reload
	callq	convert
	movq	%rax, %rcx
	movzbl	16(%rcx), %eax
	movq	%rcx, %rsi
	cmpq	$115, %rax
	jg	.LBB15_663
# BB#660:                               # %if.then3263
	cmpq	$29, %rax
	ja	.LBB15_1880
# BB#661:                               # %if.then3263
	movq	$1, %rdx
	movq	%rax, %rcx
	shlq	%cl, %rdx
	testq	$637534208, %rdx        # imm = 0x26000000
	je	.LBB15_1880
# BB#662:
	movq	%rsi, %r9
	jmp	.LBB15_1954
.LBB15_1622:                            # %if.end6623
	movq	%rbx, %rdi
	movq	%rbx, %r12
	callq	integer_zerop
	testq	%r14, %rax
	movq	%r14, %rbx
	jne	.LBB15_1627
# BB#1623:                              # %lor.lhs.false6626
	movzbl	17(%r12), %eax
	testq	$2, %rax
	je	.LBB15_1625
# BB#1624:                              # %land.lhs.true6633
	movq	48(%r13), %rax
	movzbl	17(%rax), %eax
	testq	$2, %rax
	je	.LBB15_1627
.LBB15_1625:                            # %lor.lhs.false6643
	movzbl	16(%r15), %eax
	movzbl	tree_code_type(%rax), %eax
	cmpq	$60, %rax
	jne	.LBB15_1633
# BB#1626:                              # %land.lhs.true6653
	movq	48(%r13), %rax
	movq	%r15, %rsi
	movq	32(%rsi), %rcx
	movq	40(%rsi), %rdx
                                        # kill: R15<def> RSI<kill>
	movq	%rcx, %rdi
	movq	%rax, %rsi
	callq	operand_equal_for_comparison_p
	testq	%rbx, %rax
	je	.LBB15_1633
.LBB15_1627:                            # %if.then6665
	movq	%r15, %rdi
	callq	invert_truthvalue
	movq	%rax, %r14
	movzbl	16(%r14), %eax
	cmpq	$96, %rax
	je	.LBB15_1633
# BB#1628:                              # %if.then6673
	movq	%r13, %rax
	movq	40(%rax), %r8
	movq	48(%rax), %rcx
	movq	$51, %rdi
	xorq	%rax, %rax
	movq	128(%rsp), %rsi         # 8-byte Reload
	movq	%r14, %rdx
	callq	build
	movq	40(%rax), %rcx
	movq	%rax, %r13
	movq	global_trees(%rip), %rax
.LBB15_1629:                            # %while.cond6684
                                        # =>This Inner Loop Header: Depth=1
	movq	%rcx, %rdx
	movzbl	16(%rdx), %ecx
	movq	%rdx, %r12
	addq	$-114, %rcx
	andq	%rbx, %rcx
	cmpq	$2, %rcx
	ja	.LBB15_1632
# BB#1630:                              # %land.lhs.true6705
                                        #   in Loop: Header=BB15_1629 Depth=1
	movq	32(%r12), %rcx
	cmpq	%rax, %rcx
	je	.LBB15_1632
# BB#1631:                              # %land.rhs6711
                                        #   in Loop: Header=BB15_1629 Depth=1
	movq	8(%r12), %rdx
	movq	8(%rcx), %rsi
	movl	60(%rdx), %edx
	movl	60(%rsi), %esi
	xorq	%rdx, %rsi
	testq	$65024, %rsi            # imm = 0xFE00
	je	.LBB15_1629
.LBB15_1632:
	movq	%r14, %r15
.LBB15_1633:                            # %if.end6739
	movzbl	16(%r15), %eax
	movzbl	tree_code_type(%rax), %eax
	cmpq	$60, %rax
	jne	.LBB15_1833
# BB#1634:                              # %land.lhs.true6749
	movq	32(%r15), %rax
	movq	8(%rax), %rcx
	movzbl	16(%rcx), %edx
	cmpq	$7, %rdx
	jne	.LBB15_1635
# BB#1638:                              # %lor.lhs.false6787
	movl	flag_unsafe_math_optimizations(%rip), %ecx
	testq	%rcx, %rcx
	jne	.LBB15_1639
	jmp	.LBB15_1833
.LBB15_1612:                            # %if.end.i10093
	movl	pedantic_lvalues(%rip), %eax
	testq	%rax, %rax
	je	.LBB15_1613
# BB#1614:                              # %if.then.i.i
	movzbl	16(%rbx), %eax
	cmpq	$115, %rax
	jg	.LBB15_1618
# BB#1615:                              # %if.then.i.i
	cmpq	$29, %rax
	ja	.LBB15_618
# BB#1616:                              # %if.then.i.i
	movq	$1, %rdx
	movq	%rax, %rcx
	shlq	%cl, %rdx
	testq	$637534208, %rdx        # imm = 0x26000000
	je	.LBB15_618
# BB#1617:
	movq	%rbx, %r9
	jmp	.LBB15_1954
.LBB15_320:                             # %land.lhs.true1581
	cmpq	$8, %rax
	jne	.LBB15_325
# BB#321:                               # %land.lhs.true1595
	movq	128(%rsp), %rax         # 8-byte Reload
	movq	8(%rax), %rax
	movzbl	16(%rax), %eax
	cmpq	$7, %rax
	jne	.LBB15_325
# BB#322:                               # %land.lhs.true1595
	movl	flag_unsafe_math_optimizations(%rip), %eax
	testq	%rcx, %rax
.LBB15_324:                             # %lor.lhs.false1604
	movq	%rsi, %r9
	je	.LBB15_1954
.LBB15_325:                             # %if.then1606
	movq	%rdx, %rax
	movq	32(%rax), %rcx
	movq	40(%rax), %rdx
	movq	$60, %rdi
	xorq	%rax, %rax
	movq	128(%rsp), %rsi         # 8-byte Reload
	jmp	.LBB15_520
.LBB15_1068:                            # %if.end4351
	movq	%rdi, %r12
	movq	%r15, %rdi
	callq	integer_onep
	movq	%rbx, %rdi
	testq	%r14, %rax
	je	.LBB15_1077
# BB#1069:                              # %if.then4354
	callq	invert_truthvalue
	movq	%r12, %rdi
	movq	%rax, %rsi
	callq	convert
	movq	%rax, %rcx
	movzbl	16(%rcx), %eax
	movq	%rcx, %rsi
	cmpq	$115, %rax
	jg	.LBB15_1073
# BB#1070:                              # %if.then4354
	cmpq	$29, %rax
	ja	.LBB15_1880
# BB#1071:                              # %if.then4354
	movq	$1, %rdx
	movq	%rax, %rcx
	shlq	%cl, %rdx
	testq	$637534208, %rdx        # imm = 0x26000000
	je	.LBB15_1880
# BB#1072:
	movq	%rsi, %r9
	jmp	.LBB15_1954
.LBB15_1064:                            # %if.then4348
	cmpq	$116, %rcx
	jne	.LBB15_1066
# BB#1065:
	movq	%rax, %r9
	jmp	.LBB15_1954
.LBB15_937:
	movq	120(%rsp), %r9          # 8-byte Reload
	jmp	.LBB15_1954
.LBB15_165:
	movq	$0, 144(%rsp)           # 8-byte Folded Spill
	jmp	.LBB15_170
.LBB15_1607:                            # %if.then.i10099
	cmpq	$116, %rax
	je	.LBB15_1954
# BB#1608:                              # %if.then.i10099
	cmpq	$121, %rax
	je	.LBB15_1954
.LBB15_1609:                            # %if.end.i.i10108
	movq	%r9, %rbx
	jmp	.LBB15_618
.LBB15_897:                             # %if.then4041
	cmpq	$116, %rcx
	jne	.LBB15_899
# BB#898:
	movq	%rax, %r9
	jmp	.LBB15_1954
.LBB15_353:                             # %if.else1762
	cmpq	$125, %rbx
	movq	120(%rsp), %r9          # 8-byte Reload
	jne	.LBB15_1954
# BB#354:                               # %if.then1769
	movq	%rcx, %rax
	movq	32(%rax), %rbx
	movq	40(%rax), %rax
	movq	%rax, %rdi
	callq	negate_expr
	movq	%rax, %rcx
	movq	$125, %rdi
	xorq	%rax, %rax
	movq	128(%rsp), %rsi         # 8-byte Reload
	movq	%rbx, %rdx
	jmp	.LBB15_520
.LBB15_1892:                            # %if.else7434
	cmpq	$125, %r12
	movq	120(%rsp), %r9          # 8-byte Reload
	jne	.LBB15_1954
# BB#1893:                              # %if.then7441
	movq	%rbx, %rcx
	movq	32(%rcx), %rax
	movq	40(%rcx), %r14
	movq	128(%rsp), %rdi         # 8-byte Reload
	movq	%rax, %rsi
	callq	convert
	movzbl	17(%r14), %ecx
	movq	%rax, %rbx
	testq	$1, %rcx
	je	.LBB15_1895
# BB#1894:                              # %if.then.i9815
	movq	$47, %rdi
	xorq	%rax, %rax
	movq	128(%rsp), %rsi         # 8-byte Reload
	jmp	.LBB15_1912
.LBB15_1909:                            # %if.else7505
	cmpq	$125, %r12
	movq	120(%rsp), %r9          # 8-byte Reload
	jne	.LBB15_1954
# BB#1910:                              # %if.then7512
	movq	%rbx, %rax
	movq	32(%rax), %r14
	movq	40(%rax), %rax
	movq	%r15, %rdi
	movq	%rax, %rsi
	callq	convert
	movzbl	17(%r14), %ecx
	movq	%rax, %rbx
	testq	$1, %rcx
	je	.LBB15_1914
# BB#1911:                              # %if.then.i
	movq	$47, %rdi
	xorq	%rax, %rax
	movq	%r15, %rsi
.LBB15_1912:                            # %return
	movq	%r14, %rdx
	movq	%rbx, %rcx
	jmp	.LBB15_520
.LBB15_734:                             # %if.end3394
	movq	$88, %rdi
	movq	%r15, %rsi
	movq	168(%rsp), %rdx         # 8-byte Reload
	movq	%rbx, %rcx
	callq	distribute_bit_expr
	movq	%rax, %r9
	testq	%r9, %r9
	jne	.LBB15_1954
# BB#735:                               # %if.end3399
	movl	16(%rbx), %eax
	movq	168(%rsp), %rcx         # 8-byte Reload
	movzbl	16(%rcx), %edx
	andq	$255, %rax
	cmpq	$25, %rdx
	jne	.LBB15_742
# BB#736:                               # %if.end3399
	cmpq	$115, %rax
	jne	.LBB15_742
# BB#737:                               # %land.lhs.true3413
	movq	32(%rbx), %r9
	movq	8(%r9), %rcx
	movzbl	17(%rcx), %esi
	testq	$32, %rsi
	je	.LBB15_742
# BB#738:                               # %if.then3425
	movl	60(%rcx), %esi
	movl	target_flags(%rip), %edi
	andq	$511, %rsi              # imm = 0x1FF
	movq	$20, %rcx
	shrq	%cl, %rdi
	andq	$32, %rdi
	addq	$32, %rdi
	movabsq	$4294967264, %rcx       # imm = 0xFFFFFFE0
	andq	%rdi, %rcx
	cmpq	%rcx, %rsi
	jae	.LBB15_742
# BB#739:                               # %if.then3425
	movq	%rsi, %rcx
	andq	%r14, %rcx
	cmpq	$63, %rcx
	ja	.LBB15_742
# BB#740:                               # %land.lhs.true3444
	movq	168(%rsp), %rcx         # 8-byte Reload
	movq	32(%rcx), %rdi
	notq	%rdi
	movq	$1, %r8
	movq	%rsi, %rcx
	shlq	%cl, %r8
	decq	%r8
	testq	%rdi, %r8
	je	.LBB15_741
.LBB15_742:                             # %if.end3459
	cmpq	$25, %rax
	jne	.LBB15_753
# BB#743:                               # %if.end3459
	cmpq	$115, %rdx
	jne	.LBB15_753
# BB#744:                               # %land.lhs.true3473
	movq	168(%rsp), %rax         # 8-byte Reload
	movq	32(%rax), %rax
	movq	8(%rax), %rcx
	movzbl	17(%rcx), %edx
	testq	$32, %rdx
	je	.LBB15_745
# BB#746:                               # %if.then3485
	movl	60(%rcx), %edx
	movl	target_flags(%rip), %esi
	andq	$511, %rdx              # imm = 0x1FF
	movq	$20, %rcx
	shrq	%cl, %rsi
	andq	$32, %rsi
	addq	$32, %rsi
	movabsq	$4294967264, %rcx       # imm = 0xFFFFFFE0
	andq	%rsi, %rcx
	cmpq	%rcx, %rdx
	jae	.LBB15_747
# BB#748:                               # %if.then3485
	movq	%rdx, %rcx
	andq	%r14, %rcx
	cmpq	$63, %rcx
	ja	.LBB15_749
# BB#750:                               # %land.lhs.true3505
	movq	32(%rbx), %rsi
	notq	%rsi
	movq	$1, %rdi
	movq	%rdx, %rcx
	shlq	%cl, %rdi
	decq	%rdi
	testq	%rsi, %rdi
	movq	$88, %r12
	jne	.LBB15_459
# BB#751:                               # %if.then3516
	movq	$115, %rdi
	movq	128(%rsp), %rsi         # 8-byte Reload
	movq	%rax, %rdx
	jmp	.LBB15_293
.LBB15_821:
	movq	%r15, %r9
	jmp	.LBB15_1954
.LBB15_827:                             # %land.lhs.true3864
	cmpq	$25, %rax
	jne	.LBB15_828
.LBB15_829:                             # %land.lhs.true3871
	movq	%r15, 120(%rsp)         # 8-byte Spill
	movq	%rdx, 168(%rsp)         # 8-byte Spill
	movzbl	16(%rdx), %eax
	cmpq	$85, %rax
	jne	.LBB15_830
# BB#831:                               # %land.lhs.true3878
	movq	168(%rsp), %rax         # 8-byte Reload
	movq	40(%rax), %rax
	movzbl	16(%rax), %ecx
	cmpq	$25, %rcx
	jne	.LBB15_832
# BB#833:                               # %land.lhs.true3888
	cmpq	$0, 40(%rbx)
	je	.LBB15_835
# BB#834:
	movq	$85, %r12
	jmp	.LBB15_485
.LBB15_1942:                            # %if.then7623
	movzbl	17(%rbx), %eax
	movq	40(%rcx), %r15
	testq	$2, %rax
	jne	.LBB15_1945
# BB#1943:                              # %lor.lhs.false7633
	leaq	-91(%r12), %rax
	andq	%r14, %rax
	cmpq	$1, %rax
	ja	.LBB15_1946
# BB#1944:                              # %land.lhs.true7639
	movq	%rbx, %rdi
	callq	has_cleanups
	testq	%r14, %rax
	je	.LBB15_1945
.LBB15_1946:                            # %if.end7649
	movzbl	17(%r15), %eax
	testq	$2, %rax
	movq	120(%rsp), %r9          # 8-byte Reload
	je	.LBB15_1954
# BB#1947:                              # %if.then7656
	movq	8(%rbx), %rax
	movq	$56, %rdi
	movq	%rax, %rsi
	movq	%rbx, %rdx
	callq	build1
	movq	%rax, %rdi
	callq	fold
	movq	%rax, %rcx
	xorq	%rax, %rax
	movq	%r12, %rdi
	movq	128(%rsp), %rsi         # 8-byte Reload
	jmp	.LBB15_1948
.LBB15_763:                             # %if.end.i10771
	movzbl	16(%r8), %eax
	movq	%r8, %rsi
	cmpq	$115, %rax
	jg	.LBB15_767
# BB#764:                               # %if.end.i10771
	cmpq	$29, %rax
	ja	.LBB15_1880
# BB#765:                               # %if.end.i10771
	movq	$1, %rdx
	movq	%rax, %rcx
	shlq	%cl, %rdx
	testq	$637534208, %rdx        # imm = 0x26000000
	je	.LBB15_1880
# BB#766:
	movq	%rsi, %r9
	jmp	.LBB15_1954
.LBB15_905:                             # %if.then4064
	movq	128(%rsp), %rdi         # 8-byte Reload
	movq	168(%rsp), %rsi         # 8-byte Reload
	callq	convert
	movq	%rax, %rcx
	movzbl	16(%rcx), %eax
	movq	%rcx, %rsi
	cmpq	$115, %rax
	jg	.LBB15_909
# BB#906:                               # %if.then4064
	cmpq	$29, %rax
	ja	.LBB15_1880
# BB#907:                               # %if.then4064
	movq	$1, %rdx
	movq	%rax, %rcx
	shlq	%cl, %rdx
	testq	$637534208, %rdx        # imm = 0x26000000
	je	.LBB15_1880
# BB#908:
	movq	%rsi, %r9
	jmp	.LBB15_1954
.LBB15_919:                             # %if.end.i10569
	cmpq	$116, %rax
	jne	.LBB15_921
# BB#920:
	movq	%rbx, %r9
	jmp	.LBB15_1954
.LBB15_1054:                            # %if.end.i10475
	cmpq	$116, %rax
	jne	.LBB15_1056
# BB#1055:
	movq	%r8, %r9
	jmp	.LBB15_1954
.LBB15_350:                             # %if.else1762
	cmpq	$27, %rbx
	movq	120(%rsp), %r9          # 8-byte Reload
	jne	.LBB15_1954
# BB#351:                               # %if.then1785
	movq	%rcx, %rax
	movq	32(%rax), %rbx
	movq	40(%rax), %rax
	movq	%rax, %rdi
	callq	negate_expr
	movq	128(%rsp), %rdi         # 8-byte Reload
	movq	%rbx, %rsi
	movq	%rax, %rdx
	jmp	.LBB15_1887
.LBB15_1097:                            # %sw.bb4.i10413
	movq	$100, %r15
	jmp	.LBB15_1101
.LBB15_1100:                            # %sw.bb1.i10410
	movq	$97, %r15
	jmp	.LBB15_1101
.LBB15_1095:                            # %sw.bb2.i10411
	movq	$98, %r15
.LBB15_1101:                            # %swap_tree_comparison.exit10416
	movq	32(%rbx), %r14
	movq	8(%r13), %rbx
	movq	48(%r13), %rax
	movq	%rax, 16(%rsp)
	movq	32(%r13), %rax
	movq	40(%r13), %rcx
	movq	%rcx, 8(%rsp)
	leaq	200(%rsp), %rdi
	movq	%rax, (%rsp)
	callq	ereal_negate
	movq	216(%rsp), %rax
	movq	%rax, 16(%rsp)
	movq	200(%rsp), %rax
	movq	208(%rsp), %rcx
	movq	%rcx, 8(%rsp)
	movq	%rax, (%rsp)
	movq	%rbx, %rdi
	callq	build_real
	movq	%rax, %rcx
	xorq	%rax, %rax
	movq	%r15, %rdi
	jmp	.LBB15_1342
.LBB15_654:                             # %if.end.i10956
	cmpq	$116, %rax
	jne	.LBB15_656
# BB#655:
	movq	%rbx, %r9
	jmp	.LBB15_1954
.LBB15_783:                             # %if.else3615
	movl	optimize(%rip), %eax
	testq	%rax, %rax
	je	.LBB15_786
# BB#784:                               # %if.then3617
	movq	48(%rbx), %rax
	movq	%rax, 240(%rsp)
	movq	32(%rbx), %rax
	movq	40(%rbx), %rcx
	movq	%rcx, 232(%rsp)
	movq	%rax, 224(%rsp)
	movq	168(%rsp), %rax         # 8-byte Reload
	movq	8(%rax), %rax
	movl	60(%rax), %eax
	movq	$9, %rcx
	shrq	%cl, %rax
	andq	$127, %rax
	leaq	224(%rsp), %rcx
	movq	%rax, %rdi
	movq	%rcx, %rsi
	callq	exact_real_inverse
	testq	%r14, %rax
	je	.LBB15_786
# BB#785:                               # %if.then3630
	movq	240(%rsp), %rax
	movq	%rax, 16(%rsp)
	movq	224(%rsp), %rax
	movq	232(%rsp), %rcx
	movq	%rcx, 8(%rsp)
	movq	%rax, (%rsp)
	movq	128(%rsp), %rbx         # 8-byte Reload
	movq	%rbx, %rdi
	callq	build_real
	movq	%rax, %rcx
	movq	$61, %rdi
	xorq	%rax, %rax
	movq	%rbx, %rsi
	jmp	.LBB15_782
.LBB15_786:                             # %if.end3637
	movl	flag_unsafe_math_optimizations(%rip), %eax
	testq	%rax, %rax
	je	.LBB15_787
# BB#788:                               # %land.lhs.true3639
	movq	168(%rsp), %rax         # 8-byte Reload
	movzbl	16(%rax), %eax
	cmpq	$70, %rax
	jne	.LBB15_790
# BB#789:                               # %if.then3646
	movq	168(%rsp), %rax         # 8-byte Reload
	movq	32(%rax), %r15
	movq	40(%rax), %rcx
	movq	$61, %rdi
	xorq	%rax, %rax
	movq	128(%rsp), %r14         # 8-byte Reload
	movq	%r14, %rsi
	movq	%rcx, %rdx
	movq	%rbx, %rcx
	callq	build
	movq	%rax, %rcx
	movq	$70, %rdi
	xorq	%rax, %rax
	movq	%r14, %rsi
	movq	%r15, %rdx
	callq	build
	jmp	.LBB15_715
.LBB15_120:
	movq	%rdi, %r9
	jmp	.LBB15_1954
.LBB15_853:
	movq	$78, %r12
	jmp	.LBB15_459
.LBB15_859:                             # %if.end.i10663
	cmpq	$116, %rax
	jne	.LBB15_861
# BB#860:
	movq	%rbx, %r9
	jmp	.LBB15_1954
.LBB15_876:
	movq	$79, %r12
	jmp	.LBB15_459
.LBB15_878:
	movq	$79, %r12
	jmp	.LBB15_459
.LBB15_884:                             # %if.end.i10619
	cmpq	$116, %rax
	jne	.LBB15_886
# BB#885:
	movq	%rbx, %r9
	jmp	.LBB15_1954
.LBB15_303:                             # %if.then.i11043
	movq	%rdx, %rax
	negq	%rax
	testq	%rax, %rdx
	js	.LBB15_304
# BB#305:                               # %if.then.i11043
	movabsq	$1, %r12
	xorq	%rcx, %rcx
	jmp	.LBB15_308
.LBB15_331:                             # %if.else1634
	movq	global_trees+104(%rip), %rax
	movq	40(%rax), %rcx
	movq	40(%rbx), %r14
	cmpq	%r14, %rcx
	jge	.LBB15_333
# BB#332:
	movq	%rbx, %r9
	jmp	.LBB15_1954
.LBB15_928:                             # %if.end.i10547
	movzbl	16(%r8), %eax
	cmpq	$115, %rax
	jg	.LBB15_932
# BB#929:                               # %if.end.i10547
	cmpq	$29, %rax
	ja	.LBB15_1472
# BB#930:                               # %if.end.i10547
	movq	$1, %rdx
	movq	%rax, %rcx
	shlq	%cl, %rdx
	testq	$637534208, %rdx        # imm = 0x26000000
	je	.LBB15_1472
# BB#931:
	movq	%r8, %r9
	jmp	.LBB15_1954
.LBB15_946:                             # %if.else4181
	cmpq	$0, 112(%rsp)           # 8-byte Folded Reload
	je	.LBB15_951
# BB#947:                               # %land.lhs.true4183
	xorq	%rdx, %rdx
	movq	160(%rsp), %rdi         # 8-byte Reload
	movq	136(%rsp), %rsi         # 8-byte Reload
	callq	operand_equal_p
	testq	%r14, %rax
	je	.LBB15_949
# BB#948:                               # %if.then4186
	movq	168(%rsp), %rax         # 8-byte Reload
	movzbl	16(%rax), %r14d
	xorq	%rax, %rax
	movq	%r12, %rdi
	movq	%r15, %rsi
	movq	%r13, %rdx
	movq	152(%rsp), %rcx         # 8-byte Reload
.LBB15_945:                             # %return
	callq	build
	movq	%rax, %rdi
	callq	fold
	movq	%rax, %rcx
	xorq	%rax, %rax
	movq	%r14, %rdi
	movq	%r15, %rsi
	movq	160(%rsp), %rdx         # 8-byte Reload
	callq	build
	jmp	.LBB15_715
.LBB15_167:
	movabsq	$0, %rax
.LBB15_169:                             # %land.rhs1008
	movq	%rax, 144(%rsp)         # 8-byte Spill
.LBB15_170:                             # %lor.end1018
	movl	16(%rsi), %r10d
	movl	60(%r15), %eax
	andq	$511, %rax              # imm = 0x1FF
	movq	%rax, 136(%rsp)         # 8-byte Spill
	movq	$13, %rcx
	shrq	%cl, %r8
	movq	%r10, %rax
	andq	$255, %rax
	leaq	-6(%rax), %rcx
	andq	$1, %r8
	movq	%rcx, %rdx
	andq	%r14, %rdx
	cmpq	$7, %rdx
	jae	.LBB15_171
# BB#175:                               # %lor.end1056
	movq	%r9, 160(%rsp)          # 8-byte Spill
	andq	$127, %rcx
	movq	$113, %r9
	shrq	%cl, %r9
	andq	$1, %r9
	movq	%r10, %rcx
	andq	$253, %rcx
	cmpq	$13, %rcx
	jne	.LBB15_176
# BB#177:                               # %lor.end1056
	movq	%rdi, 128(%rsp)         # 8-byte Spill
	movq	%rbx, 104(%rsp)         # 8-byte Spill
	movabsq	$1, %rcx
	jmp	.LBB15_178
.LBB15_171:                             # %lor.rhs1079.thread
	movq	%r9, 160(%rsp)          # 8-byte Spill
	movq	%r10, %rax
	andq	$253, %rax
	cmpq	$13, %rax
	jne	.LBB15_172
# BB#173:                               # %lor.rhs1079.thread
	movq	%rdi, 128(%rsp)         # 8-byte Spill
	movq	%rbx, 104(%rsp)         # 8-byte Spill
	movabsq	$1, %rax
	jmp	.LBB15_174
.LBB15_176:
	movq	%rdi, 128(%rsp)         # 8-byte Spill
	movq	%rbx, 104(%rsp)         # 8-byte Spill
	movabsq	$0, %rcx
.LBB15_178:                             # %lor.end1056
	movq	%rcx, 112(%rsp)         # 8-byte Spill
	cmpq	$7, %rax
	jne	.LBB15_180
# BB#179:
	movq	$1, 88(%rsp)            # 8-byte Folded Spill
	jmp	.LBB15_186
.LBB15_172:
	movq	%rdi, 128(%rsp)         # 8-byte Spill
	movq	%rbx, 104(%rsp)         # 8-byte Spill
	movabsq	$0, %rax
.LBB15_174:                             # %lor.rhs1079.thread
	movq	%rax, 112(%rsp)         # 8-byte Spill
	xorq	%r9, %r9
	movq	$0, 88(%rsp)            # 8-byte Folded Spill
	jmp	.LBB15_186
.LBB15_180:                             # %lor.rhs1079
	cmpq	$8, %rax
	jne	.LBB15_181
# BB#182:                               # %land.rhs1086
	movq	8(%rsi), %rax
	movzbl	16(%rax), %eax
	cmpq	$7, %rax
	jne	.LBB15_183
# BB#184:                               # %land.rhs1086
	movabsq	$1, %rax
	jmp	.LBB15_185
.LBB15_181:
	movq	$0, 88(%rsp)            # 8-byte Folded Spill
	jmp	.LBB15_186
.LBB15_369:                             # %if.then1938
	movq	%rdx, %rdi
	movq	%rdx, %r12
	callq	integer_zerop
	testq	%r14, %rax
	je	.LBB15_378
# BB#370:                               # %if.then1941
	movq	128(%rsp), %rdi         # 8-byte Reload
	movq	168(%rsp), %rsi         # 8-byte Reload
	callq	convert
	movq	%rax, %rcx
	movzbl	16(%rcx), %eax
	movq	%rcx, %rsi
	cmpq	$115, %rax
	jg	.LBB15_374
# BB#371:                               # %if.then1941
	cmpq	$29, %rax
	ja	.LBB15_686
# BB#372:                               # %if.then1941
	movq	$1, %rdx
	movq	%rax, %rcx
	shlq	%cl, %rdx
	testq	$637534208, %rdx        # imm = 0x26000000
	je	.LBB15_686
# BB#373:
	movq	%rsi, %r9
	jmp	.LBB15_1954
.LBB15_435:                             # %land.lhs.true2297.if.else2303_crit_edge
	movl	16(%r12), %eax
.LBB15_436:                             # %if.else2303
	andq	$255, %rax
	cmpq	$26, %rax
	movq	$59, %r15
	jne	.LBB15_455
# BB#437:                               # %land.lhs.true2310
	movq	dconst0+16(%rip), %rax
	movq	%rax, 40(%rsp)
	movq	dconst0+8(%rip), %rax
	movq	%rax, 32(%rsp)
	movq	dconst0(%rip), %rax
	movq	%rax, 24(%rsp)
	movq	%r12, %rdx
	movq	48(%rdx), %rax
	movq	%rax, 16(%rsp)
	movq	32(%rdx), %rax
	movq	40(%rdx), %rcx
                                        # kill: R12<def> RDX<kill>
	movq	%rcx, 8(%rsp)
	movq	%rax, (%rsp)
	callq	ereal_cmp
	testq	%r14, %rax
	jne	.LBB15_455
# BB#438:                               # %land.lhs.true2316
	leaq	32(%r12), %rax
	movq	16(%rax), %rcx
	movq	%rcx, 16(%rsp)
	movq	(%rax), %rcx
	movq	8(%rax), %rax
	movq	%rax, 8(%rsp)
	movq	%rcx, (%rsp)
	callq	ereal_isneg
	testq	%r14, %rax
	je	.LBB15_455
# BB#439:                               # %if.then2322
	movq	128(%rsp), %rdi         # 8-byte Reload
	movq	168(%rsp), %rsi         # 8-byte Reload
	callq	convert
	movq	%rax, %rcx
	movzbl	16(%rcx), %eax
	movq	%rcx, %rsi
	cmpq	$115, %rax
	jg	.LBB15_451
# BB#440:                               # %if.then2322
	cmpq	$29, %rax
	ja	.LBB15_686
# BB#441:                               # %if.then2322
	movq	$1, %rdx
	movq	%rax, %rcx
	shlq	%cl, %rdx
	testq	$637534208, %rdx        # imm = 0x26000000
	je	.LBB15_686
# BB#442:
	movq	%rsi, %r9
	jmp	.LBB15_1954
.LBB15_447:                             # %if.then2300
	cmpq	$116, %rax
	jne	.LBB15_449
# BB#448:
	movq	%rsi, %r9
	jmp	.LBB15_1954
.LBB15_563:                             # %if.then3040
	movq	%r12, %rbx
	movq	152(%rsp), %rax         # 8-byte Reload
	testq	%r14, %rax
	jne	.LBB15_566
# BB#564:                               # %land.lhs.true3042
	movq	168(%rsp), %rdi         # 8-byte Reload
	callq	integer_zerop
	testq	%r14, %rax
	je	.LBB15_566
.LBB15_565:                             # %if.then3045
	movq	128(%rsp), %rdi         # 8-byte Reload
	movq	%rbx, %rsi
	callq	convert
	movq	%rax, %rdi
	callq	negate_expr
	movq	%rax, %r9
	jmp	.LBB15_1954
.LBB15_587:                             # %if.then3105
	cmpq	$116, %rax
	jne	.LBB15_589
# BB#588:
	movq	%rsi, %r9
	jmp	.LBB15_1954
.LBB15_848:                             # %if.end.i10685
	cmpq	$121, %rax
	jne	.LBB15_618
# BB#849:
	movq	%rbx, %r9
	jmp	.LBB15_1954
.LBB15_871:                             # %if.end.i10641
	cmpq	$121, %rax
	jne	.LBB15_618
# BB#872:
	movq	%rbx, %r9
	jmp	.LBB15_1954
.LBB15_772:
	movq	%r12, %rbx
	movq	$89, %r12
	jmp	.LBB15_485
.LBB15_726:                             # %if.end.i10807
	movzbl	16(%rbx), %eax
	movq	%rbx, %rsi
	cmpq	$115, %rax
	jg	.LBB15_730
# BB#727:                               # %if.end.i10807
	cmpq	$29, %rax
	ja	.LBB15_1880
# BB#728:                               # %if.end.i10807
	movq	$1, %rdx
	movq	%rax, %rcx
	shlq	%cl, %rdx
	testq	$637534208, %rdx        # imm = 0x26000000
	je	.LBB15_1880
# BB#729:
	movq	%rsi, %r9
	jmp	.LBB15_1954
.LBB15_1032:                            # %if.then4311
	cmpq	$116, %rcx
	jne	.LBB15_1034
# BB#1033:
	movq	%rax, %r9
	jmp	.LBB15_1954
.LBB15_1039:                            # %if.end.i10497
	movzbl	16(%rbx), %eax
	cmpq	$115, %rax
	jg	.LBB15_1043
# BB#1040:                              # %if.end.i10497
	cmpq	$29, %rax
	ja	.LBB15_618
# BB#1041:                              # %if.end.i10497
	movq	$1, %rdx
	movq	%rax, %rcx
	shlq	%cl, %rdx
	testq	$637534208, %rdx        # imm = 0x26000000
	je	.LBB15_618
# BB#1042:
	movq	%rbx, %r9
	jmp	.LBB15_1954
.LBB15_1171:                            # %if.then4833
	movq	144(%rsp), %rdi         # 8-byte Reload
	movq	128(%rsp), %rsi         # 8-byte Reload
	movq	%r15, %rdx
.LBB15_1173:                            # %if.end4845
	callq	build
	movq	%rax, %rdi
	callq	fold
	movq	%rax, %r15
	movq	%r15, %rdi
	callq	integer_zerop
	testq	%r14, %rax
	jne	.LBB15_1175
# BB#1174:                              # %lor.lhs.false4848
	movq	%r15, %rdi
	callq	integer_onep
	testq	%r14, %rax
	je	.LBB15_1184
.LBB15_1175:                            # %if.then4851
	movq	128(%rsp), %rdi         # 8-byte Reload
	movq	%r15, %rsi
	callq	convert
	movzbl	17(%rbx), %ecx
	movq	%rax, %r8
	testq	$1, %rcx
	jne	.LBB15_1138
# BB#1176:                              # %if.end.i10368
	movzbl	16(%r8), %eax
	cmpq	$115, %rax
	jg	.LBB15_1180
# BB#1177:                              # %if.end.i10368
	cmpq	$29, %rax
	ja	.LBB15_1472
# BB#1178:                              # %if.end.i10368
	movq	$1, %rdx
	movq	%rax, %rcx
	shlq	%cl, %rdx
	testq	$637534208, %rdx        # imm = 0x26000000
	je	.LBB15_1472
# BB#1179:
	movq	%r8, %r9
	jmp	.LBB15_1954
.LBB15_1133:                            # %if.then4648
	movq	144(%rsp), %rdi         # 8-byte Reload
	movq	128(%rsp), %rsi         # 8-byte Reload
	movq	%r15, %rdx
.LBB15_1135:                            # %if.end4660
	callq	build
	movq	%rax, %rdi
	callq	fold
	movq	%rax, %r15
	movq	%r15, %rdi
	callq	integer_zerop
	testq	%r14, %rax
	jne	.LBB15_1137
# BB#1136:                              # %lor.lhs.false4663
	movq	%r15, %rdi
	callq	integer_onep
	testq	%r14, %rax
	je	.LBB15_1147
.LBB15_1137:                            # %if.then4666
	movq	128(%rsp), %rdi         # 8-byte Reload
	movq	%r15, %rsi
	callq	convert
	movzbl	17(%rbx), %ecx
	movq	%rax, %r8
	testq	$1, %rcx
	jne	.LBB15_1138
# BB#1139:                              # %if.end.i10391
	movzbl	16(%r8), %eax
	cmpq	$115, %rax
	jg	.LBB15_1143
# BB#1140:                              # %if.end.i10391
	cmpq	$29, %rax
	ja	.LBB15_1472
# BB#1141:                              # %if.end.i10391
	movq	$1, %rdx
	movq	%rax, %rcx
	shlq	%cl, %rdx
	testq	$637534208, %rdx        # imm = 0x26000000
	je	.LBB15_1472
# BB#1142:
	movq	%r8, %r9
	jmp	.LBB15_1954
.LBB15_1165:                            # %if.then4999
	movq	120(%rsp), %rax         # 8-byte Reload
	movl	16(%rax), %eax
	movq	%rax, %rcx
	andq	$255, %rcx
	addq	$-97, %rcx
	andq	%r14, %rcx
	cmpq	$3, %rcx
	ja	.LBB15_1266
# BB#1166:                              # %if.then4999
	movq	%r8, %rdx
	movq	%r13, %r15
	jmpq	*.LJTI15_10(,%rcx,8)
.LBB15_1200:                            # %sw.bb5013
	movq	global_trees+96(%rip), %rax
	movq	128(%rsp), %rbx         # 8-byte Reload
	movq	%rbx, %rdi
	movq	%rax, %rsi
	callq	convert
	movq	%rbx, %rdi
	movq	%rax, %rsi
	callq	convert
	movzbl	17(%r15), %ecx
	movq	%rax, %r8
	testq	$1, %rcx
	jne	.LBB15_1191
# BB#1201:                              # %if.end.i10323
	movzbl	16(%r8), %eax
	cmpq	$115, %rax
	jg	.LBB15_1205
# BB#1202:                              # %if.end.i10323
	cmpq	$29, %rax
	ja	.LBB15_1472
# BB#1203:                              # %if.end.i10323
	movq	$1, %rdx
	movq	%rax, %rcx
	shlq	%cl, %rdx
	testq	$637534208, %rdx        # imm = 0x26000000
	je	.LBB15_1472
# BB#1204:
	movq	%r8, %r9
	jmp	.LBB15_1954
.LBB15_1232:                            # %if.else5071
	testq	%rdi, %rdi
	movq	%rbx, %r8
	jne	.LBB15_1266
.LBB15_1233:                            # %land.lhs.true5077
	movq	%r8, %rcx
	movq	%r13, %r8
	movq	32(%rcx), %rdi
	movq	%rcx, %r15
	decq	%rsi
	movq	$1, %rbx
	movq	%rsi, %rcx
	shlq	%cl, %rbx
	decq	%rbx
	andq	$8192, %rdx             # imm = 0x2000
	cmpq	%rbx, %rdi
	jne	.LBB15_1241
# BB#1234:                              # %land.lhs.true5077
	testq	%r14, %rdx
	je	.LBB15_1241
# BB#1235:                              # %land.lhs.true5096
	cmpq	$12, %rax
	ja	.LBB15_1241
# BB#1236:                              # %land.lhs.true5096
	movq	$1, %rbx
	movq	%rax, %rcx
	shlq	%cl, %rbx
	testq	$7232, %rbx             # imm = 0x1C40
	je	.LBB15_1241
# BB#1237:                              # %if.then5132
	movq	120(%rsp), %rax         # 8-byte Reload
	movzbl	16(%rax), %eax
	cmpq	$99, %rax
	jne	.LBB15_1238
# BB#1240:                              # %sw.bb5148
	movq	%r8, %rbx
	movq	8(%rbx), %rax
	movq	%rax, %rdi
	callq	signed_type
	movq	%rax, %rdi
	movq	%rbx, %rsi
	callq	convert
	movq	8(%r15), %rcx
	movq	%rax, %rbx
	movq	%rcx, %rdi
	callq	signed_type
	movq	global_trees+88(%rip), %rcx
	movq	%rax, %rdi
	movq	%rcx, %rsi
	callq	convert
	movq	%rax, %rcx
	movq	$97, %rdi
	jmp	.LBB15_635
.LBB15_1223:                            # %sw.bb5060
	movq	global_trees+96(%rip), %rax
	movq	128(%rsp), %rbx         # 8-byte Reload
	movq	%rbx, %rdi
	movq	%rax, %rsi
	callq	convert
	movq	%rbx, %rdi
	movq	%rax, %rsi
	callq	convert
	movzbl	17(%r15), %ecx
	movq	%rax, %r8
	testq	$1, %rcx
	jne	.LBB15_1191
# BB#1224:                              # %if.end.i10279
	movzbl	16(%r8), %eax
	cmpq	$115, %rax
	jg	.LBB15_1228
# BB#1225:                              # %if.end.i10279
	cmpq	$29, %rax
	ja	.LBB15_1472
# BB#1226:                              # %if.end.i10279
	movq	$1, %rdx
	movq	%rax, %rcx
	shlq	%cl, %rdx
	testq	$637534208, %rdx        # imm = 0x26000000
	je	.LBB15_1472
# BB#1227:
	movq	%r8, %r9
	jmp	.LBB15_1954
.LBB15_1219:                            # %if.end.i10301
	cmpq	$116, %rax
	jne	.LBB15_1221
# BB#1220:
	movq	%r8, %r9
	jmp	.LBB15_1954
.LBB15_620:                             # %if.end3192
	movq	%rbx, %rdi
	callq	integer_onep
	testq	%r14, %rax
	je	.LBB15_629
# BB#621:                               # %if.then3195
	movq	128(%rsp), %rdi         # 8-byte Reload
	movq	168(%rsp), %rsi         # 8-byte Reload
	callq	convert
	movq	%rax, %rcx
	movzbl	16(%rcx), %eax
	movq	%rcx, %rsi
	cmpq	$115, %rax
	jg	.LBB15_625
# BB#622:                               # %if.then3195
	cmpq	$29, %rax
	ja	.LBB15_1880
# BB#623:                               # %if.then3195
	movq	$1, %rdx
	movq	%rax, %rcx
	shlq	%cl, %rdx
	testq	$637534208, %rdx        # imm = 0x26000000
	je	.LBB15_1880
# BB#624:
	movq	%rsi, %r9
	jmp	.LBB15_1954
.LBB15_609:                             # %if.end.i10992
	movzbl	16(%rbx), %eax
	cmpq	$115, %rax
	jg	.LBB15_613
# BB#610:                               # %if.end.i10992
	cmpq	$29, %rax
	ja	.LBB15_618
# BB#611:                               # %if.end.i10992
	movq	$1, %rdx
	movq	%rax, %rcx
	shlq	%cl, %rdx
	testq	$637534208, %rdx        # imm = 0x26000000
	je	.LBB15_618
# BB#612:
	movq	%rbx, %r9
	jmp	.LBB15_1954
.LBB15_667:                             # %if.end3266
	movq	152(%rsp), %rax         # 8-byte Reload
	testq	%r14, %rax
	je	.LBB15_669
# BB#668:
	movq	$61, %r12
	jmp	.LBB15_550
.LBB15_663:                             # %if.then3263
	cmpq	$116, %rax
	jne	.LBB15_665
# BB#664:
	movq	%rsi, %r9
	jmp	.LBB15_1954
.LBB15_1635:                            # %land.lhs.true6749
	cmpq	$8, %rdx
	jne	.LBB15_1639
# BB#1636:                              # %land.lhs.true6773
	movq	8(%rcx), %rcx
	movzbl	16(%rcx), %ecx
	cmpq	$7, %rcx
	jne	.LBB15_1639
# BB#1637:                              # %land.lhs.true6773
	movl	flag_unsafe_math_optimizations(%rip), %ecx
	testq	%rbx, %rcx
	je	.LBB15_1833
.LBB15_1639:                            # %land.lhs.true6789
	movq	40(%r15), %rcx
	movq	%rax, %rdi
	movq	%r12, %rsi
	movq	%rcx, %rdx
	callq	operand_equal_for_comparison_p
	testq	%rbx, %rax
	je	.LBB15_1833
# BB#1640:                              # %if.then6798
	movq	48(%r13), %rcx
	movzbl	16(%r15), %eax
	movq	%rax, 160(%rsp)         # 8-byte Spill
	movq	global_trees(%rip), %rax
.LBB15_1641:                            # %while.cond6808
                                        # =>This Inner Loop Header: Depth=1
	movq	%rcx, 168(%rsp)         # 8-byte Spill
	movzbl	16(%rcx), %ecx
	addq	$-114, %rcx
	andq	%rbx, %rcx
	cmpq	$2, %rcx
	ja	.LBB15_1644
# BB#1642:                              # %land.lhs.true6829
                                        #   in Loop: Header=BB15_1641 Depth=1
	movq	168(%rsp), %rcx         # 8-byte Reload
	movq	32(%rcx), %rcx
	cmpq	%rax, %rcx
	je	.LBB15_1644
# BB#1643:                              # %land.rhs6835
                                        #   in Loop: Header=BB15_1641 Depth=1
	movq	168(%rsp), %rdx         # 8-byte Reload
	movq	8(%rdx), %rdx
	movq	8(%rcx), %rsi
	movl	60(%rdx), %edx
	movl	60(%rsi), %esi
	xorq	%rdx, %rsi
	testq	$65024, %rsi            # imm = 0xFE00
	je	.LBB15_1641
.LBB15_1644:                            # %while.end6861
	movq	40(%r15), %rax
	movq	8(%rax), %rcx
	movzbl	16(%rcx), %edx
	cmpq	$7, %rdx
	je	.LBB15_1647
# BB#1645:                              # %while.end6861
	cmpq	$8, %rdx
	jne	.LBB15_1648
# BB#1646:                              # %land.lhs.true6885
	movq	8(%rcx), %rcx
	movzbl	16(%rcx), %ecx
	cmpq	$7, %rcx
	jne	.LBB15_1648
.LBB15_1647:                            # %cond.true6899
	movq	%rax, %rdi
	callq	real_zerop
	jmp	.LBB15_1649
.LBB15_1613:
	movq	%rbx, %r9
	jmp	.LBB15_1954
.LBB15_1618:                            # %if.then.i.i
	cmpq	$116, %rax
	jne	.LBB15_1620
# BB#1619:
	movq	%rbx, %r9
	jmp	.LBB15_1954
.LBB15_1077:                            # %if.end4358
	callq	integer_onep
	testq	%r14, %rax
	movq	120(%rsp), %r9          # 8-byte Reload
	je	.LBB15_1954
# BB#1078:                              # %if.then4361
	movq	%r15, %rdi
	callq	invert_truthvalue
	movq	%r12, %rdi
	movq	%rax, %rsi
	callq	convert
	movq	%rax, %rcx
	movzbl	16(%rcx), %eax
	movq	%rcx, %rsi
	cmpq	$115, %rax
	jg	.LBB15_1082
# BB#1079:                              # %if.then4361
	cmpq	$29, %rax
	ja	.LBB15_1880
# BB#1080:                              # %if.then4361
	movq	$1, %rdx
	movq	%rax, %rcx
	shlq	%cl, %rdx
	testq	$637534208, %rdx        # imm = 0x26000000
	je	.LBB15_1880
# BB#1081:
	movq	%rsi, %r9
	jmp	.LBB15_1954
.LBB15_1073:                            # %if.then4354
	cmpq	$116, %rax
	jne	.LBB15_1075
# BB#1074:
	movq	%rsi, %r9
	jmp	.LBB15_1954
.LBB15_1066:                            # %if.then4348
	cmpq	$121, %rcx
	jne	.LBB15_617
# BB#1067:
	movq	%rax, %r9
	jmp	.LBB15_1954
.LBB15_899:                             # %if.then4041
	cmpq	$121, %rcx
	jne	.LBB15_617
# BB#900:
	movq	%rax, %r9
	jmp	.LBB15_1954
.LBB15_1895:                            # %if.end.i9819
	movzbl	16(%rbx), %eax
	cmpq	$115, %rax
	jg	.LBB15_1899
# BB#1896:                              # %if.end.i9819
	cmpq	$29, %rax
	ja	.LBB15_687
# BB#1897:                              # %if.end.i9819
	movq	$1, %rdx
	movq	%rax, %rcx
	shlq	%cl, %rdx
	testq	$637534208, %rdx        # imm = 0x26000000
	je	.LBB15_687
# BB#1898:
	movq	%rbx, %r9
	jmp	.LBB15_1954
.LBB15_1914:                            # %if.end.i
	movzbl	16(%rbx), %eax
	cmpq	$115, %rax
	jg	.LBB15_1918
# BB#1915:                              # %if.end.i
	cmpq	$29, %rax
	ja	.LBB15_687
# BB#1916:                              # %if.end.i
	movq	$1, %rdx
	movq	%rax, %rcx
	shlq	%cl, %rdx
	testq	$637534208, %rdx        # imm = 0x26000000
	je	.LBB15_687
# BB#1917:
	movq	%rbx, %r9
	jmp	.LBB15_1954
.LBB15_741:                             # %if.then3453
	movq	$115, %rdi
	movq	128(%rsp), %rsi         # 8-byte Reload
	movq	%r9, %rdx
	jmp	.LBB15_293
.LBB15_753:                             # %if.end3522
	cmpq	$90, %rdx
	jne	.LBB15_754
# BB#755:                               # %if.end3522
	cmpq	$90, %rax
	jne	.LBB15_756
# BB#757:                               # %if.then3536
	movq	168(%rsp), %rax         # 8-byte Reload
	movq	32(%rax), %rcx
	movq	32(%rbx), %rbx
	movq	$86, %rdi
	xorq	%rax, %rax
	movq	128(%rsp), %r14         # 8-byte Reload
	movq	%r14, %rsi
	movq	%rcx, %rdx
	movq	%rbx, %rcx
	callq	build
	movq	$90, %rdi
	movq	%r14, %rsi
	movq	%rax, %rdx
.LBB15_714:                             # %return
	callq	build1
	jmp	.LBB15_715
.LBB15_745:
	movq	$88, %r12
	jmp	.LBB15_459
.LBB15_747:
	movq	$88, %r12
	jmp	.LBB15_459
.LBB15_749:
	movq	$88, %r12
	jmp	.LBB15_459
.LBB15_828:
	movq	%r15, 120(%rsp)         # 8-byte Spill
	movq	$85, %r12
	jmp	.LBB15_485
.LBB15_830:
	movq	$85, %r12
	jmp	.LBB15_485
.LBB15_832:
	movq	$85, %r12
	jmp	.LBB15_485
.LBB15_835:                             # %land.lhs.true3894
	cmpq	$0, 40(%rax)
	je	.LBB15_837
# BB#836:
	movq	$85, %r12
	jmp	.LBB15_485
.LBB15_1945:                            # %if.then7642
	movq	8(%r15), %rax
	movq	$56, %rdi
	movq	%rax, %rsi
	movq	%r15, %rdx
	callq	build1
	movq	%rax, %rdi
	callq	fold
	movq	%rax, %rcx
	xorq	%rax, %rax
	movq	%r12, %rdi
	movq	128(%rsp), %rsi         # 8-byte Reload
	movq	%rbx, %rdx
	jmp	.LBB15_1926
.LBB15_767:                             # %if.end.i10771
	cmpq	$116, %rax
	jne	.LBB15_769
# BB#768:
	movq	%rsi, %r9
	jmp	.LBB15_1954
.LBB15_909:                             # %if.then4064
	cmpq	$116, %rax
	jne	.LBB15_911
# BB#910:
	movq	%rsi, %r9
	jmp	.LBB15_1954
.LBB15_921:                             # %if.end.i10569
	cmpq	$121, %rax
	jne	.LBB15_618
# BB#922:
	movq	%rbx, %r9
	jmp	.LBB15_1954
.LBB15_1056:                            # %if.end.i10475
	cmpq	$121, %rax
	jne	.LBB15_1472
# BB#1057:
	movq	%r8, %r9
	jmp	.LBB15_1954
.LBB15_656:                             # %if.end.i10956
	cmpq	$121, %rax
	jne	.LBB15_618
# BB#657:
	movq	%rbx, %r9
	jmp	.LBB15_1954
.LBB15_787:
	movq	$70, %r12
	jmp	.LBB15_485
.LBB15_790:                             # %land.lhs.true3658
	movzbl	16(%rbx), %eax
	cmpq	$70, %rax
	jne	.LBB15_791
# BB#792:                               # %if.then3665
	movq	%rbx, %r14
	movq	32(%r14), %rcx
	movq	$70, %rdi
	xorq	%rax, %rax
	movq	128(%rsp), %rbx         # 8-byte Reload
	movq	%rbx, %rsi
	movq	168(%rsp), %rdx         # 8-byte Reload
	callq	build
	movq	40(%r14), %rcx
	movq	%rax, %rdx
	movq	$61, %rdi
	xorq	%rax, %rax
	movq	%rbx, %rsi
	callq	build
	jmp	.LBB15_715
.LBB15_861:                             # %if.end.i10663
	cmpq	$121, %rax
	jne	.LBB15_618
# BB#862:
	movq	%rbx, %r9
	jmp	.LBB15_1954
.LBB15_886:                             # %if.end.i10619
	cmpq	$121, %rax
	jne	.LBB15_618
# BB#887:
	movq	%rbx, %r9
	jmp	.LBB15_1954
.LBB15_304:
	movabsq	$0, %r12
	xorq	%rcx, %rcx
.LBB15_308:                             # %neg_double.exit
	movq	%rcx, %rdi
	movq	%rax, %rsi
	callq	build_int_2_wide
	movq	%rax, %rcx
	movq	128(%rsp), %rax         # 8-byte Reload
	movq	%rax, 8(%rcx)
	movq	%rcx, %rdx
	movl	16(%rbx), %r14d
	movq	$19, %rcx
	shrq	%cl, %r14
	xorq	%rax, %rax
	testq	%r12, %r12
	jne	.LBB15_312
# BB#309:                               # %land.rhs1517
	movq	128(%rsp), %rax         # 8-byte Reload
	movzbl	17(%rax), %eax
	testq	$32, %rax
	jne	.LBB15_310
# BB#311:                               # %land.rhs1517
	movabsq	$1, %rax
	jmp	.LBB15_312
.LBB15_333:                             # %lor.lhs.false1643
	jne	.LBB15_334
# BB#337:                               # %land.lhs.true1652
	movq	32(%rax), %rcx
	movq	32(%rbx), %rax
	cmpq	%rax, %rcx
	jae	.LBB15_335
# BB#338:
	movq	%rbx, %r9
	jmp	.LBB15_1954
.LBB15_932:                             # %if.end.i10547
	cmpq	$116, %rax
	jne	.LBB15_934
# BB#933:
	movq	%r8, %r9
	jmp	.LBB15_1954
.LBB15_951:                             # %lor.lhs.false4211
	movq	152(%rsp), %rax         # 8-byte Reload
	movzbl	17(%rax), %eax
	testq	$1, %rax
	jne	.LBB15_955
	jmp	.LBB15_952
.LBB15_949:                             # %land.lhs.true4197
	xorq	%rdx, %rdx
	movq	%r13, %rdi
	movq	152(%rsp), %rsi         # 8-byte Reload
	callq	operand_equal_p
	testq	%r14, %rax
	je	.LBB15_952
# BB#950:                               # %if.then4200
	movq	168(%rsp), %rax         # 8-byte Reload
	movzbl	16(%rax), %r14d
	xorq	%rax, %rax
	movq	%r12, %rdi
	movq	%r15, %rsi
	movq	160(%rsp), %rdx         # 8-byte Reload
	movq	136(%rsp), %rcx         # 8-byte Reload
	callq	build
	movq	%rax, %rdi
	callq	fold
	movq	%rax, %rcx
	xorq	%rax, %rax
	movq	%r14, %rdi
	movq	%r15, %rsi
	movq	%r13, %rdx
	callq	build
	jmp	.LBB15_715
.LBB15_183:
	movabsq	$0, %rax
.LBB15_185:                             # %land.rhs1086
	movq	%rax, 88(%rsp)          # 8-byte Spill
.LBB15_186:                             # %lor.end1096
	movl	16(%r12), %edi
	movl	60(%rsi), %ebx
	movq	%rbx, %rax
	andq	$511, %rax              # imm = 0x1FF
	movq	%rax, 96(%rsp)          # 8-byte Spill
	movq	$13, %rcx
	shrq	%cl, %r10
	movq	%rdi, %rax
	andq	$255, %rax
	leaq	-6(%rax), %rcx
	andq	$1, %r10
	movq	%rcx, %rdx
	andq	%r14, %rdx
	cmpq	$7, %rdx
	jae	.LBB15_187
# BB#191:                               # %lor.end1134
	andq	$127, %rcx
	movq	$113, %rsi
	shrq	%cl, %rsi
	andq	$1, %rsi
	movq	%rdi, %rcx
	andq	$253, %rcx
	cmpq	$13, %rcx
	jne	.LBB15_192
# BB#193:                               # %lor.end1134
	movabsq	$1, %rdx
	jmp	.LBB15_194
.LBB15_187:                             # %lor.rhs1157.thread
	movq	%rdi, %rax
	andq	$253, %rax
	cmpq	$13, %rax
	jne	.LBB15_188
# BB#189:                               # %lor.rhs1157.thread
	movabsq	$1, %rdx
	jmp	.LBB15_190
.LBB15_192:
	movabsq	$0, %rdx
.LBB15_194:                             # %lor.end1134
	cmpq	$7, %rax
	jne	.LBB15_196
# BB#195:
	movq	$1, 64(%rsp)            # 8-byte Folded Spill
	movq	%rbx, 72(%rsp)          # 8-byte Spill
	movq	%r11, 80(%rsp)          # 8-byte Spill
	jmp	.LBB15_201
.LBB15_188:
	movabsq	$0, %rdx
.LBB15_190:                             # %lor.rhs1157.thread
	movq	%rbx, 72(%rsp)          # 8-byte Spill
	movq	%r11, 80(%rsp)          # 8-byte Spill
	xorq	%rsi, %rsi
	movq	$0, 64(%rsp)            # 8-byte Folded Spill
	jmp	.LBB15_201
.LBB15_196:                             # %lor.rhs1157
	movq	%rbx, 72(%rsp)          # 8-byte Spill
	movq	%r11, 80(%rsp)          # 8-byte Spill
	movq	$0, 64(%rsp)            # 8-byte Folded Spill
	cmpq	$8, %rax
	jne	.LBB15_201
# BB#197:                               # %land.rhs1164
	movq	8(%r12), %rax
	movzbl	16(%rax), %eax
	cmpq	$7, %rax
	jne	.LBB15_198
# BB#199:                               # %land.rhs1164
	movabsq	$1, %rax
	jmp	.LBB15_200
.LBB15_378:                             # %if.end1944
	movq	168(%rsp), %rax         # 8-byte Reload
	movl	16(%rax), %r9d
	movq	%r9, %rcx
	andq	$255, %rcx
	cmpq	$88, %rcx
	jne	.LBB15_384
# BB#379:                               # %land.lhs.true1951
	movzbl	16(%r12), %ecx
	cmpq	$88, %rcx
	jne	.LBB15_384
# BB#380:                               # %land.lhs.true1958
	movq	168(%rsp), %rax         # 8-byte Reload
	movq	40(%rax), %rcx
	movzbl	16(%rcx), %edx
	cmpq	$25, %rdx
	jne	.LBB15_384
# BB#381:                               # %land.lhs.true1968
	movq	40(%r12), %rdx
	movzbl	16(%rdx), %esi
	cmpq	$25, %rsi
	jne	.LBB15_384
# BB#382:                               # %land.lhs.true1978
	movq	$88, %rdi
	movq	%rcx, %rsi
	callq	const_binop
	movq	%rax, %rdi
	callq	integer_zerop
	testq	%r14, %rax
	je	.LBB15_383
.LBB15_675:                             # %bit_ior
	movq	%r12, %rbx
	movq	%rbx, %rdi
	callq	integer_all_onesp
	testq	%r14, %rax
	je	.LBB15_688
# BB#676:                               # %if.then3287
	movq	128(%rsp), %r14         # 8-byte Reload
	movq	%r14, %rdi
	movq	%rbx, %rsi
	callq	convert
	movq	168(%rsp), %rdx         # 8-byte Reload
	movzbl	17(%rdx), %ecx
	movq	%rax, %rbx
	testq	$1, %rcx
	je	.LBB15_678
# BB#677:                               # %if.then.i10916
	movq	$47, %rdi
	xorq	%rax, %rax
	movq	%r14, %rsi
	movq	%rbx, %rcx
	jmp	.LBB15_520
.LBB15_688:                             # %if.end3289
	movq	%rbx, %rdi
	callq	integer_zerop
	testq	%r14, %rax
	movq	128(%rsp), %rax         # 8-byte Reload
	je	.LBB15_698
# BB#689:                               # %if.then3292
	movq	%rax, %rdi
	movq	168(%rsp), %rsi         # 8-byte Reload
	callq	convert
	movzbl	16(%rax), %ecx
	cmpq	$115, %rcx
	jg	.LBB15_693
# BB#690:                               # %if.then3292
	cmpq	$29, %rcx
	ja	.LBB15_697
# BB#691:                               # %if.then3292
	movq	$1, %rdx
	shlq	%cl, %rdx
	testq	$637534208, %rdx        # imm = 0x26000000
	je	.LBB15_697
# BB#692:
	movq	%rax, %r9
	jmp	.LBB15_1954
.LBB15_678:                             # %if.end.i10920
	movzbl	16(%rbx), %eax
	cmpq	$115, %rax
	jg	.LBB15_682
# BB#679:                               # %if.end.i10920
	cmpq	$29, %rax
	ja	.LBB15_687
# BB#680:                               # %if.end.i10920
	movq	$1, %rdx
	movq	%rax, %rcx
	shlq	%cl, %rdx
	testq	$637534208, %rdx        # imm = 0x26000000
	je	.LBB15_687
# BB#681:
	movq	%rbx, %r9
	jmp	.LBB15_1954
.LBB15_698:                             # %if.end3295
	movq	$86, %rdi
	movq	$86, %r15
	movq	%rax, %rsi
	movq	168(%rsp), %rdx         # 8-byte Reload
	movq	%rbx, %rcx
	movq	%rbx, %r12
	callq	distribute_bit_expr
	movq	%rax, %r9
	testq	%r9, %r9
	jne	.LBB15_1954
# BB#699:                               # %if.end3300
	movq	168(%rsp), %rax         # 8-byte Reload
	movzbl	16(%rax), %eax
	cmpq	$90, %rax
	jne	.LBB15_455
# BB#700:                               # %land.lhs.true3307
	movzbl	16(%r12), %eax
	cmpq	$90, %rax
	jne	.LBB15_455
# BB#701:                               # %if.then3314
	movq	168(%rsp), %rax         # 8-byte Reload
	movq	32(%rax), %rcx
	movq	32(%r12), %rbx
	movq	$88, %rdi
	xorq	%rax, %rax
	movq	128(%rsp), %r14         # 8-byte Reload
	movq	%r14, %rsi
	movq	%rcx, %rdx
	movq	%rbx, %rcx
	callq	build
	movq	$90, %rdi
	movq	%r14, %rsi
.LBB15_702:                             # %return
	movq	%rax, %rdx
	callq	build1
	jmp	.LBB15_1927
.LBB15_693:                             # %if.then3292
	cmpq	$116, %rcx
	jne	.LBB15_695
# BB#694:
	movq	%rax, %r9
	jmp	.LBB15_1954
.LBB15_682:                             # %if.end.i10920
	cmpq	$116, %rax
	jne	.LBB15_684
# BB#683:
	movq	%rbx, %r9
	jmp	.LBB15_1954
.LBB15_374:                             # %if.then1941
	cmpq	$116, %rax
	jne	.LBB15_376
# BB#375:
	movq	%rsi, %r9
	jmp	.LBB15_1954
.LBB15_451:                             # %if.then2322
	cmpq	$116, %rax
	jne	.LBB15_453
# BB#452:
	movq	%rsi, %r9
	jmp	.LBB15_1954
.LBB15_449:                             # %if.then2300
	cmpq	$121, %rax
	jne	.LBB15_686
# BB#450:
	movq	%rsi, %r9
	jmp	.LBB15_1954
.LBB15_566:                             # %if.end3048
	movq	%rbx, %rdi
	callq	integer_zerop
	testq	%r14, %rax
	je	.LBB15_575
# BB#567:                               # %if.then3051
	movq	128(%rsp), %rdi         # 8-byte Reload
	movq	168(%rsp), %rsi         # 8-byte Reload
	callq	convert
	movq	%rax, %rcx
	movzbl	16(%rcx), %eax
	movq	%rcx, %rsi
	cmpq	$115, %rax
	jg	.LBB15_571
# BB#568:                               # %if.then3051
	cmpq	$29, %rax
	ja	.LBB15_686
# BB#569:                               # %if.then3051
	movq	$1, %rdx
	movq	%rax, %rcx
	shlq	%cl, %rdx
	testq	$637534208, %rdx        # imm = 0x26000000
	je	.LBB15_686
# BB#570:
	movq	%rsi, %r9
	jmp	.LBB15_1954
.LBB15_589:                             # %if.then3105
	cmpq	$121, %rax
	jne	.LBB15_686
# BB#590:
	movq	%rsi, %r9
	jmp	.LBB15_1954
.LBB15_730:                             # %if.end.i10807
	cmpq	$116, %rax
	jne	.LBB15_732
# BB#731:
	movq	%rsi, %r9
	jmp	.LBB15_1954
.LBB15_1034:                            # %if.then4311
	cmpq	$121, %rcx
	jne	.LBB15_617
# BB#1035:
	movq	%rax, %r9
	jmp	.LBB15_1954
.LBB15_1043:                            # %if.end.i10497
	cmpq	$116, %rax
	jne	.LBB15_1045
# BB#1044:
	movq	%rbx, %r9
	jmp	.LBB15_1954
.LBB15_1184:                            # %if.end4853
	movq	$1, %rsi
	movq	168(%rsp), %rdi         # 8-byte Reload
	callq	type_for_size
	movl	60(%rax), %r15d
	andq	$511, %r15              # imm = 0x1FF
	movq	$-1, %rdi
	movq	$-1, %rsi
	callq	build_int_2_wide
	movq	8(%rbx), %rcx
	movq	%rax, 160(%rsp)         # 8-byte Spill
	movq	160(%rsp), %rax         # 8-byte Reload
	movq	%rcx, 8(%rax)
	xorq	%rsi, %rsi
	movq	160(%rsp), %rdi         # 8-byte Reload
	callq	force_fit_type
	movq	sizetype_tab(%rip), %rax
	movq	168(%rsp), %rcx         # 8-byte Reload
	subq	%rcx, %r15
	andq	%r14, %r15
	movq	%r15, %rdi
	movq	%rax, %rsi
	callq	size_int_type_wide
	movq	$83, %rdi
	movq	160(%rsp), %rsi         # 8-byte Reload
	movq	%rax, %rdx
	callq	const_binop
	movq	8(%rbx), %r15
	movq	%r15, %rdi
	movq	%rax, %rsi
	callq	convert
	movq	%rax, %rcx
	movq	$88, %rdi
	xorq	%rax, %rax
	movq	%r15, %rsi
	movq	%r13, %rdx
	callq	build
	movq	%rax, %rdi
	callq	fold
	movq	%rax, %r13
.LBB15_1185:                            # %if.end4876
	andq	%r14, %r12
	movq	%r13, %rdx
	je	.LBB15_1187
# BB#1186:                              # %if.end4876
	movq	%rbx, %rdx
.LBB15_1187:                            # %if.end4876
	cmpq	$1, %r12
	je	.LBB15_1189
# BB#1188:                              # %if.end4876
	movq	%rbx, %r13
.LBB15_1189:                            # %if.end4876
	xorq	%rax, %rax
	movq	144(%rsp), %rdi         # 8-byte Reload
	jmp	.LBB15_518
.LBB15_1180:                            # %if.end.i10368
	cmpq	$116, %rax
	jne	.LBB15_1182
# BB#1181:
	movq	%r8, %r9
	jmp	.LBB15_1954
.LBB15_1147:                            # %if.end4668
	movq	$1, %rsi
	movq	168(%rsp), %rdi         # 8-byte Reload
	callq	type_for_size
	movq	%rax, %r15
	movl	60(%r15), %eax
	movq	%rax, 160(%rsp)         # 8-byte Spill
	andq	$511, 160(%rsp)         # 8-byte Folded Spill
                                        # imm = 0x1FF
	movq	$-1, %rdi
	movq	$-1, %rsi
	callq	build_int_2_wide
	movq	%rax, 152(%rsp)         # 8-byte Spill
	movq	152(%rsp), %rax         # 8-byte Reload
	movq	%r15, 8(%rax)
	xorq	%rsi, %rsi
	movq	152(%rsp), %rdi         # 8-byte Reload
	callq	force_fit_type
	movq	sizetype_tab(%rip), %rax
	movq	168(%rsp), %rcx         # 8-byte Reload
	subq	%rcx, 160(%rsp)         # 8-byte Folded Spill
	andq	%r14, 160(%rsp)         # 8-byte Folded Spill
	movq	160(%rsp), %rdi         # 8-byte Reload
	movq	%rax, %rsi
	callq	size_int_type_wide
	movq	$83, %rdi
	movq	152(%rsp), %rsi         # 8-byte Reload
	movq	%rax, %rdx
	callq	const_binop
	movq	8(%rbx), %r15
	movq	%r15, %rdi
	movq	%rax, %rsi
	callq	convert
	movq	%rax, %rcx
	movq	$88, %rdi
	xorq	%rax, %rax
	movq	%r15, %rsi
	movq	%r13, %rdx
	callq	build
	movq	%rax, %rdi
	callq	fold
	movq	%rax, %r13
.LBB15_1148:                            # %if.end4689
	andq	%r14, %r12
	movq	%r13, %rcx
	je	.LBB15_1150
# BB#1149:                              # %if.end4689
	movq	%rbx, %rcx
.LBB15_1150:                            # %if.end4689
	cmpq	$1, %r12
	je	.LBB15_1152
# BB#1151:                              # %if.end4689
	movq	%rbx, %r13
.LBB15_1152:                            # %if.end4689
	xorq	%rax, %rax
	movq	144(%rsp), %rdi         # 8-byte Reload
	movq	128(%rsp), %rsi         # 8-byte Reload
	movq	%rcx, %rdx
	jmp	.LBB15_519
.LBB15_1143:                            # %if.end.i10391
	cmpq	$116, %rax
	jne	.LBB15_1145
# BB#1144:
	movq	%r8, %r9
	jmp	.LBB15_1954
.LBB15_1190:                            # %sw.bb5004
	movq	global_trees+88(%rip), %rax
	movq	128(%rsp), %rbx         # 8-byte Reload
	movq	%rbx, %rdi
	movq	%rax, %rsi
	callq	convert
	movq	%rbx, %rdi
	movq	%rax, %rsi
	callq	convert
	movzbl	17(%r15), %ecx
	movq	%rax, %r8
	testq	$1, %rcx
	jne	.LBB15_1191
# BB#1192:                              # %if.end.i10345
	movzbl	16(%r8), %eax
	cmpq	$115, %rax
	jg	.LBB15_1196
# BB#1193:                              # %if.end.i10345
	cmpq	$29, %rax
	ja	.LBB15_1472
# BB#1194:                              # %if.end.i10345
	movq	$1, %rdx
	movq	%rax, %rcx
	shlq	%cl, %rdx
	testq	$637534208, %rdx        # imm = 0x26000000
	je	.LBB15_1472
# BB#1195:
	movq	%r8, %r9
	jmp	.LBB15_1954
.LBB15_1205:                            # %if.end.i10323
	cmpq	$116, %rax
	jne	.LBB15_1207
# BB#1206:
	movq	%r8, %r9
	jmp	.LBB15_1954
.LBB15_1241:                            # %land.lhs.true5167
	andq	%r14, %rsi
	movq	$2, %rax
	movq	%rsi, %rcx
	shlq	%cl, %rax
	decq	%rax
	cmpq	%rax, %rdi
	movq	%r8, %r13
	movq	%r15, %r8
	jne	.LBB15_1266
# BB#1242:                              # %land.lhs.true5167
	testq	%r14, %rdx
	je	.LBB15_1266
# BB#1243:                              # %if.then5186
	movq	120(%rsp), %rax         # 8-byte Reload
	movl	16(%rax), %eax
	movq	%rax, %rcx
	andq	$255, %rcx
	addq	$-97, %rcx
	andq	%r14, %rcx
	cmpq	$3, %rcx
	ja	.LBB15_1266
# BB#1244:                              # %if.then5186
	movq	%r8, %rdx
	movq	%r13, %r15
	jmpq	*.LJTI15_8(,%rcx,8)
.LBB15_1264:                            # %sw.bb5203
	movabsq	$4294967040, %rcx       # imm = 0xFFFFFF00
	andq	%rcx, %rax
	orq	$102, %rax
	jmp	.LBB15_1265
.LBB15_1238:                            # %if.then5132
	cmpq	$98, %rax
	movq	%r8, %r13
	movq	%r15, %r8
	jne	.LBB15_1266
# BB#1239:                              # %sw.bb5137
	movq	8(%r13), %rax
	movq	%rax, %rdi
	movq	%r8, %rbx
	callq	signed_type
	movq	%rax, %rdi
	movq	%r13, %rsi
	callq	convert
	movq	8(%rbx), %rcx
	movq	%rax, %rbx
	movq	%rcx, %rdi
	callq	signed_type
	movq	global_trees+88(%rip), %rcx
	movq	%rax, %rdi
	movq	%rcx, %rsi
	callq	convert
	movq	%rax, %rcx
	movq	$100, %rdi
	jmp	.LBB15_635
.LBB15_1228:                            # %if.end.i10279
	cmpq	$116, %rax
	jne	.LBB15_1230
# BB#1229:
	movq	%r8, %r9
	jmp	.LBB15_1954
.LBB15_1221:                            # %if.end.i10301
	cmpq	$121, %rax
	jne	.LBB15_1472
# BB#1222:
	movq	%r8, %r9
	jmp	.LBB15_1954
.LBB15_629:                             # %if.end3198
	movzbl	16(%rbx), %eax
	cmpq	$82, %rax
	jne	.LBB15_632
# BB#630:                               # %land.lhs.true3205
	movq	32(%rbx), %rax
	movq	%rax, %rdi
	callq	integer_onep
	testq	%r14, %rax
	je	.LBB15_632
# BB#631:                               # %if.then3211
	movq	40(%rbx), %rcx
	movq	$82, %rdi
.LBB15_781:                             # %return
	xorq	%rax, %rax
	movq	128(%rsp), %rsi         # 8-byte Reload
.LBB15_782:                             # %return
	movq	168(%rsp), %rdx         # 8-byte Reload
	callq	build
	jmp	.LBB15_715
.LBB15_625:                             # %if.then3195
	cmpq	$116, %rax
	jne	.LBB15_627
# BB#626:
	movq	%rsi, %r9
	jmp	.LBB15_1954
.LBB15_613:                             # %if.end.i10992
	cmpq	$116, %rax
	jne	.LBB15_615
# BB#614:
	movq	%rbx, %r9
	jmp	.LBB15_1954
.LBB15_669:                             # %land.lhs.true3268
	movq	%rbx, %rdi
	callq	real_twop
	testq	%r14, %rax
	je	.LBB15_670
# BB#671:                               # %land.lhs.true3271
	callq	global_bindings_p
	testq	%r14, %rax
	je	.LBB15_673
# BB#672:
	movq	$61, %r12
	jmp	.LBB15_459
.LBB15_665:                             # %if.then3263
	cmpq	$121, %rax
	jne	.LBB15_1880
# BB#666:
	movq	%rsi, %r9
	jmp	.LBB15_1954
.LBB15_1648:                            # %cond.false6905
	movq	%rax, %rdi
	callq	integer_zerop
.LBB15_1649:                            # %cond.false6905
	testq	%rbx, %rax
	je	.LBB15_1699
# BB#1650:                              # %land.lhs.true6911
	movq	168(%rsp), %rax         # 8-byte Reload
	movzbl	16(%rax), %eax
	cmpq	$77, %rax
	jne	.LBB15_1699
# BB#1651:                              # %land.lhs.true6918
	movq	168(%rsp), %rax         # 8-byte Reload
	movq	32(%rax), %rax
	xorq	%rdx, %rdx
	movq	%rax, %rdi
	movq	%r12, %rsi
	callq	operand_equal_p
	testq	%rbx, %rax
	je	.LBB15_1699
# BB#1652:                              # %if.then6924
	movq	160(%rsp), %rax         # 8-byte Reload
	addq	$-97, %rax
	andq	%rbx, %rax
	cmpq	$5, %rax
	ja	.LBB15_1698
# BB#1653:                              # %if.then6924
	jmpq	*.LJTI15_1(,%rax,8)
.LBB15_1686:                            # %sw.bb6959
	movq	8(%r12), %rax
	movzbl	17(%rax), %ecx
	testq	$32, %rcx
	je	.LBB15_1688
# BB#1687:                              # %if.then6968
	movq	%rax, %rdi
	callq	signed_type
	movq	%rax, %rdi
	movq	%r12, %rsi
	callq	convert
	movq	%rax, %rcx
	movq	8(%rcx), %rax
	movq	%rcx, %r12
.LBB15_1688:                            # %if.end6973
	movq	$80, %rdi
	movq	%rax, %rsi
	movq	%r12, %rdx
	callq	build1
	movq	%rax, %rdi
	callq	fold
	movq	128(%rsp), %rdi         # 8-byte Reload
	movq	%rax, %rsi
	callq	convert
	movq	%rax, %rdi
	callq	negate_expr
	movl	pedantic_lvalues(%rip), %ecx
	movq	%rax, %rsi
	testq	%rcx, %rcx
	je	.LBB15_1689
# BB#1690:                              # %if.then.i10026
	movzbl	16(%rsi), %eax
	cmpq	$115, %rax
	jg	.LBB15_1694
# BB#1691:                              # %if.then.i10026
	cmpq	$29, %rax
	ja	.LBB15_1880
# BB#1692:                              # %if.then.i10026
	movq	$1, %rdx
	movq	%rax, %rcx
	shlq	%cl, %rdx
	testq	$637534208, %rdx        # imm = 0x26000000
	je	.LBB15_1880
# BB#1693:
	movq	%rsi, %r9
	jmp	.LBB15_1954
.LBB15_1620:                            # %if.then.i.i
	cmpq	$121, %rax
	jne	.LBB15_618
# BB#1621:
	movq	%rbx, %r9
	jmp	.LBB15_1954
.LBB15_1082:                            # %if.then4361
	cmpq	$116, %rax
	jne	.LBB15_1084
# BB#1083:
	movq	%rsi, %r9
	jmp	.LBB15_1954
.LBB15_1075:                            # %if.then4354
	cmpq	$121, %rax
	jne	.LBB15_1880
# BB#1076:
	movq	%rsi, %r9
	jmp	.LBB15_1954
.LBB15_1899:                            # %if.end.i9819
	cmpq	$116, %rax
	jne	.LBB15_1901
# BB#1900:
	movq	%rbx, %r9
	jmp	.LBB15_1954
.LBB15_1918:                            # %if.end.i
	cmpq	$116, %rax
	jne	.LBB15_1920
# BB#1919:
	movq	%rbx, %r9
	jmp	.LBB15_1954
.LBB15_754:
	movq	$88, %r12
	jmp	.LBB15_459
.LBB15_756:
	movq	$88, %r12
	jmp	.LBB15_459
.LBB15_837:                             # %land.lhs.true3903
	movq	128(%rsp), %rcx         # 8-byte Reload
	movl	60(%rcx), %edx
	movq	$8, %rcx
	shrq	%cl, %rdx
	movq	32(%rbx), %rcx
	movq	32(%rax), %rax
	andq	$254, %rdx
	movzbl	mode_bitsize(%rdx), %edx
	addq	%rcx, %rax
	cmpq	%rdx, %rax
	movq	$85, %r12
	jne	.LBB15_485
# BB#838:                               # %if.then3925
	movq	168(%rsp), %rax         # 8-byte Reload
	movq	32(%rax), %r9
	jmp	.LBB15_1954
.LBB15_769:                             # %if.end.i10771
	cmpq	$121, %rax
	jne	.LBB15_1880
# BB#770:
	movq	%rsi, %r9
	jmp	.LBB15_1954
.LBB15_911:                             # %if.then4064
	cmpq	$121, %rax
	jne	.LBB15_1880
# BB#912:
	movq	%rsi, %r9
	jmp	.LBB15_1954
.LBB15_791:
	movq	$70, %r12
	jmp	.LBB15_485
.LBB15_310:
	movabsq	$0, %rax
	jmp	.LBB15_312
.LBB15_334:                             # %lor.lhs.false1643.if.else1662_crit_edge
	movq	32(%rbx), %rax
.LBB15_335:                             # %if.else1662
	testq	%rax, %rax
	je	.LBB15_336
# BB#339:                               # %if.else.i11053
	negq	%rax
	notq	%r14
	movq	%r14, %rdx
	xorq	%r14, %r14
	jmp	.LBB15_340
.LBB15_934:                             # %if.end.i10547
	cmpq	$121, %rax
	jne	.LBB15_1472
# BB#935:
	movq	%r8, %r9
	jmp	.LBB15_1954
.LBB15_952:                             # %land.lhs.true4218
	xorq	%rdx, %rdx
	movq	%r13, %rdi
	movq	136(%rsp), %rsi         # 8-byte Reload
	callq	operand_equal_p
	testq	%r14, %rax
	je	.LBB15_955
# BB#953:                               # %if.then4221
	movq	168(%rsp), %rax         # 8-byte Reload
	movzbl	16(%rax), %r14d
	xorq	%rax, %rax
	movq	%r12, %rdi
	movq	%r15, %rsi
	movq	160(%rsp), %rdx         # 8-byte Reload
	movq	152(%rsp), %rcx         # 8-byte Reload
	callq	build
	movq	%rax, %rdi
	callq	fold
	movq	%rax, %rcx
	xorq	%rax, %rax
	movq	%r14, %rdi
	movq	%r15, %rsi
	jmp	.LBB15_954
.LBB15_198:
	movabsq	$0, %rax
.LBB15_200:                             # %land.rhs1164
	movq	%rax, 64(%rsp)          # 8-byte Spill
.LBB15_201:                             # %lor.end1174
	movl	60(%r12), %r11d
	movq	128(%r15), %rax
	movq	128(%r12), %rcx
	movq	%r11, %rbx
	andq	$511, %rbx              # imm = 0x1FF
	cmpq	%rcx, %rax
	jne	.LBB15_205
# BB#202:                               # %land.lhs.true1190
	movq	%rbx, %rax
	andq	%r14, %rax
	movq	96(%rsp), %rcx          # 8-byte Reload
	andq	%r14, %rcx
	cmpq	%rax, %rcx
	jb	.LBB15_205
# BB#203:                               # %land.lhs.true1190
	movq	%r9, %r15
	andq	%rsi, %r15
	movq	88(%rsp), %rcx          # 8-byte Reload
	movq	64(%rsp), %rax          # 8-byte Reload
	andq	%rax, %rcx
	orq	%r15, %rcx
	xorq	$1, %rcx
	je	.LBB15_204
.LBB15_205:                             # %if.end1209
	movq	%rdx, 56(%rsp)          # 8-byte Spill
	andq	$8192, %rdi             # imm = 0x2000
	movq	112(%rsp), %rdx         # 8-byte Reload
	orq	%r9, %rdx
	movq	80(%rsp), %rcx          # 8-byte Reload
	movq	128(%rsp), %rax         # 8-byte Reload
	orq	%rax, %rcx
	andq	%rdx, %rcx
	movq	88(%rsp), %rax          # 8-byte Reload
	movq	144(%rsp), %rdx         # 8-byte Reload
	andq	%rdx, %rax
	cmpq	%r8, %r10
	jne	.LBB15_206
# BB#207:                               # %if.end1209
	movabsq	$1, %r15
	jmp	.LBB15_208
.LBB15_383:                             # %land.lhs.true1978.if.end1989_crit_edge
	movq	168(%rsp), %rax         # 8-byte Reload
	movl	16(%rax), %r9d
.LBB15_384:                             # %if.end1989
	movl	16(%r12), %ecx
	andq	$255, %r9
	andq	$255, %rcx
	cmpq	$59, %r9
	jne	.LBB15_386
# BB#385:                               # %if.end1989
	cmpq	$61, %rcx
	je	.LBB15_388
.LBB15_386:                             # %lor.lhs.false2003
	cmpq	$59, %rcx
	jne	.LBB15_404
# BB#387:                               # %land.lhs.true2010
	movq	$59, %r15
	cmpq	$61, %r9
	jne	.LBB15_455
.LBB15_388:                             # %if.then2017
	cmpq	$59, %r9
	movq	%r12, %rbx
	je	.LBB15_390
# BB#389:                               # %if.then2017
	movq	168(%rsp), %rbx         # 8-byte Reload
.LBB15_390:                             # %if.then2017
	movq	168(%rsp), %rdx         # 8-byte Reload
	je	.LBB15_392
# BB#391:                               # %if.then2017
	movq	%r12, %rdx
.LBB15_392:                             # %if.then2017
	movq	32(%rdx), %r8
	movq	40(%rdx), %rdi
	movq	global_trees(%rip), %rdx
.LBB15_393:                             # %while.cond2033
                                        # =>This Inner Loop Header: Depth=1
	movq	%r8, %r15
	movzbl	16(%r15), %esi
	leaq	-114(%rsi), %rax
	andq	%r14, %rax
	cmpq	$2, %rax
	ja	.LBB15_396
# BB#394:                               # %land.lhs.true2054
                                        #   in Loop: Header=BB15_393 Depth=1
	movq	32(%r15), %r8
	cmpq	%rdx, %r8
	je	.LBB15_396
# BB#395:                               # %land.rhs2060
                                        #   in Loop: Header=BB15_393 Depth=1
	movq	8(%r15), %rax
	movq	8(%r8), %r10
	movl	60(%rax), %r11d
	movl	60(%r10), %eax
	xorq	%r11, %rax
	testq	$65024, %rax            # imm = 0xFE00
	je	.LBB15_393
.LBB15_396:                             # %while.cond2087
                                        # =>This Inner Loop Header: Depth=1
	movq	%rdi, %r13
	movzbl	16(%r13), %r8d
	leaq	-114(%r8), %rax
	andq	%r14, %rax
	cmpq	$2, %rax
	ja	.LBB15_399
# BB#397:                               # %land.lhs.true2108
                                        #   in Loop: Header=BB15_396 Depth=1
	movq	32(%r13), %rdi
	cmpq	%rdx, %rdi
	je	.LBB15_399
# BB#398:                               # %land.rhs2114
                                        #   in Loop: Header=BB15_396 Depth=1
	movq	8(%r13), %rax
	movq	8(%rdi), %r10
	movl	60(%rax), %r11d
	movl	60(%r10), %eax
	xorq	%r11, %rax
	testq	$65024, %rax            # imm = 0xFE00
	je	.LBB15_396
.LBB15_399:                             # %while.end2140
	cmpq	$61, %rsi
	jne	.LBB15_402
# BB#400:                               # %land.lhs.true2147
	cmpq	$61, %r8
	je	.LBB15_404
# BB#401:                               # %if.then2154
	movq	$59, %rdi
	xorq	%rax, %rax
	movq	128(%rsp), %r14         # 8-byte Reload
	movq	%r14, %rsi
	movq	%r15, %rdx
	movq	%rbx, %rcx
	callq	build
	movq	%rax, %rdi
	callq	fold
	movq	%rax, %rcx
	movq	$59, %rdi
	xorq	%rax, %rax
	movq	%r14, %rsi
	movq	%rcx, %rdx
	movq	%r13, %rcx
	jmp	.LBB15_1926
.LBB15_695:                             # %if.then3292
	cmpq	$121, %rcx
	jne	.LBB15_697
# BB#696:
	movq	%rax, %r9
	jmp	.LBB15_1954
.LBB15_684:                             # %if.end.i10920
	cmpq	$121, %rax
	jne	.LBB15_687
# BB#685:
	movq	%rbx, %r9
	jmp	.LBB15_1954
.LBB15_376:                             # %if.then1941
	cmpq	$121, %rax
	jne	.LBB15_686
# BB#377:
	movq	%rsi, %r9
	jmp	.LBB15_1954
.LBB15_453:                             # %if.then2322
	cmpq	$121, %rax
	jne	.LBB15_686
# BB#454:
	movq	%rsi, %r9
	jmp	.LBB15_1954
.LBB15_575:                             # %if.end3054
	movq	168(%rsp), %rax         # 8-byte Reload
	movzbl	16(%rax), %eax
	cmpq	$61, %rax
	jne	.LBB15_591
# BB#576:                               # %land.lhs.true3061
	movzbl	16(%rbx), %eax
	cmpq	$61, %rax
	jne	.LBB15_591
# BB#577:                               # %land.lhs.true3068
	movq	168(%rsp), %rax         # 8-byte Reload
	movq	40(%rax), %rax
	movq	40(%rbx), %rcx
	xorq	%rdx, %rdx
	movq	%rax, %rdi
	movq	%rcx, %rsi
	callq	operand_equal_p
	testq	%r14, %rax
	je	.LBB15_591
# BB#578:                               # %if.then3077
	movq	168(%rsp), %r15         # 8-byte Reload
	movq	32(%r15), %rcx
	movq	32(%rbx), %rbx
	movq	$60, %rdi
	xorq	%rax, %rax
	movq	128(%rsp), %r14         # 8-byte Reload
	movq	%r14, %rsi
	movq	%rcx, %rdx
	movq	%rbx, %rcx
	callq	build
	movq	%rax, %rdi
	callq	fold
	movq	40(%r15), %rcx
	movq	%rax, %rdx
	movq	$61, %rdi
	xorq	%rax, %rax
	movq	%r14, %rsi
	jmp	.LBB15_1926
.LBB15_571:                             # %if.then3051
	cmpq	$116, %rax
	jne	.LBB15_573
# BB#572:
	movq	%rsi, %r9
	jmp	.LBB15_1954
.LBB15_732:                             # %if.end.i10807
	cmpq	$121, %rax
	jne	.LBB15_1880
# BB#733:
	movq	%rsi, %r9
	jmp	.LBB15_1954
.LBB15_617:                             # %if.end.i10606
	movq	%rax, %rbx
	jmp	.LBB15_618
.LBB15_1045:                            # %if.end.i10497
	cmpq	$121, %rax
	jne	.LBB15_618
# BB#1046:
	movq	%rbx, %r9
	jmp	.LBB15_1954
.LBB15_1182:                            # %if.end.i10368
	cmpq	$121, %rax
	jne	.LBB15_1472
# BB#1183:
	movq	%r8, %r9
	jmp	.LBB15_1954
.LBB15_1145:                            # %if.end.i10391
	cmpq	$121, %rax
	jne	.LBB15_1472
# BB#1146:
	movq	%r8, %r9
	jmp	.LBB15_1954
.LBB15_1196:                            # %if.end.i10345
	cmpq	$116, %rax
	jne	.LBB15_1198
# BB#1197:
	movq	%r8, %r9
	jmp	.LBB15_1954
.LBB15_1207:                            # %if.end.i10323
	cmpq	$121, %rax
	jne	.LBB15_1472
# BB#1208:
	movq	%r8, %r9
	jmp	.LBB15_1954
.LBB15_1255:                            # %sw.bb5200
	movq	global_trees+96(%rip), %rax
	movq	128(%rsp), %rbx         # 8-byte Reload
	movq	%rbx, %rdi
	movq	%rax, %rsi
	callq	convert
	movq	%rbx, %rdi
	movq	%rax, %rsi
	callq	convert
	movzbl	17(%r15), %ecx
	movq	%rax, %r8
	testq	$1, %rcx
	jne	.LBB15_1191
# BB#1256:                              # %if.end.i10235
	movzbl	16(%r8), %eax
	cmpq	$115, %rax
	jg	.LBB15_1260
# BB#1257:                              # %if.end.i10235
	cmpq	$29, %rax
	ja	.LBB15_1472
# BB#1258:                              # %if.end.i10235
	movq	$1, %rdx
	movq	%rax, %rcx
	shlq	%cl, %rdx
	testq	$637534208, %rdx        # imm = 0x26000000
	je	.LBB15_1472
# BB#1259:
	movq	%r8, %r9
	jmp	.LBB15_1954
.LBB15_1245:                            # %sw.bb5191
	movq	global_trees+88(%rip), %rax
	movq	128(%rsp), %rbx         # 8-byte Reload
	movq	%rbx, %rdi
	movq	%rax, %rsi
	callq	convert
	movq	%rbx, %rdi
	movq	%rax, %rsi
	callq	convert
	movzbl	17(%r15), %ecx
	movq	%rax, %r8
	testq	$1, %rcx
	je	.LBB15_1246
.LBB15_1191:                            # %if.then.i10341
	movq	$47, %rdi
	xorq	%rax, %rax
	movq	%rbx, %rsi
	movq	%r15, %rdx
	movq	%r8, %rcx
	jmp	.LBB15_520
.LBB15_1254:                            # %sw.bb5007
	movabsq	$4294967040, %rcx       # imm = 0xFFFFFF00
	andq	%rcx, %rax
	orq	$101, %rax
.LBB15_1265:                            # %if.end5215
	movq	120(%rsp), %rcx         # 8-byte Reload
	movl	%eax, 16(%rcx)
	movq	%r15, %r13
	movq	%rdx, %r8
.LBB15_1266:                            # %if.end5215
	movzbl	16(%r8), %eax
	cmpq	$25, %rax
	jne	.LBB15_1267
# BB#1268:                              # %land.lhs.true5222
	movzbl	16(%r13), %eax
	cmpq	$25, %rax
	movq	144(%rsp), %r12         # 8-byte Reload
	movq	120(%rsp), %r15         # 8-byte Reload
	jne	.LBB15_1270
# BB#1269:
	movq	%r15, 160(%rsp)         # 8-byte Spill
	jmp	.LBB15_1277
.LBB15_1267:
	movq	120(%rsp), %rax         # 8-byte Reload
	movq	%rax, 160(%rsp)         # 8-byte Spill
	movq	144(%rsp), %r12         # 8-byte Reload
.LBB15_1277:                            # %if.end5252
	movq	%r8, %rdi
	movq	%r8, %rbx
	callq	integer_zerop
	movq	%rbx, %r8
	testq	%r14, %rax
	je	.LBB15_1309
# BB#1278:                              # %land.lhs.true5255
	movq	8(%r8), %rax
	movl	16(%rax), %eax
	movq	%rax, %rcx
	andq	$255, %rcx
	cmpq	$15, %rcx
	ja	.LBB15_1309
# BB#1279:                              # %land.lhs.true5255
	movq	$1, %rdx
	shlq	%cl, %rdx
	testq	$48192, %rdx            # imm = 0xBC40
	je	.LBB15_1309
# BB#1280:                              # %land.lhs.true5309
	testq	$8192, %rax             # imm = 0x2000
	je	.LBB15_1309
# BB#1281:                              # %if.then5318
	movq	160(%rsp), %rax         # 8-byte Reload
	movl	16(%rax), %eax
	movq	%rax, %rcx
	andq	$255, %rcx
	addq	$-97, %rcx
	andq	%r14, %rcx
	cmpq	$3, %rcx
	jbe	.LBB15_1282
.LBB15_1309:                            # %if.end5343
	cmpq	$101, %r12
	movq	%r12, 144(%rsp)         # 8-byte Spill
	movabsq	$0, %r12
	movabsq	$1, %rax
	movq	%r12, %rcx
	jne	.LBB15_1311
# BB#1310:                              # %if.end5343
	movq	%rax, %rcx
.LBB15_1311:                            # %if.end5343
	movq	%rcx, 168(%rsp)         # 8-byte Spill
	cmpq	$102, 144(%rsp)         # 8-byte Folded Reload
	jne	.LBB15_1313
# BB#1312:                              # %if.end5343
	movq	%rax, %r12
.LBB15_1313:                            # %if.end5343
	movq	144(%rsp), %rax         # 8-byte Reload
	leaq	-101(%rax), %rax
	andq	%r14, %rax
	xorq	%r15, %r15
	cmpq	$1, %rax
	movq	$1, %r14
	ja	.LBB15_1333
	jmp	.LBB15_1314
.LBB15_1270:                            # %land.lhs.true5229
	movq	%r8, %rdi
	movq	%r8, %rbx
	callq	tree_int_cst_sgn
	movq	$32, %rcx
	shlq	%cl, %rax
	movq	$32, %rcx
	sarq	%cl, %rax
	testq	%rax, %rax
	jle	.LBB15_1271
# BB#1272:                              # %if.then5233
	movzbl	16(%r15), %eax
	cmpq	$97, %rax
	jne	.LBB15_1273
# BB#1275:                              # %sw.bb5244
	movq	global_trees+96(%rip), %rdx
	movq	$60, %rdi
	movq	%rbx, %rsi
	callq	const_binop
	movq	32(%r15), %rdx
	movq	%rax, %r15
	movq	$98, %rdi
	xorq	%rax, %rax
	movq	$98, %r12
	movq	128(%rsp), %rsi         # 8-byte Reload
	movq	%r15, %rcx
	callq	build
	movq	%r15, %r8
	jmp	.LBB15_1276
.LBB15_1282:                            # %if.then5318
	jmpq	*.LJTI15_11(,%rcx,8)
.LBB15_1294:                            # %sw.bb5338
	movq	global_trees+88(%rip), %rax
	movq	128(%rsp), %r14         # 8-byte Reload
	movq	%r14, %rdi
	movq	%rax, %rsi
	callq	convert
	movq	%r14, %rdi
	movq	%rax, %rsi
	callq	convert
	movzbl	17(%r13), %ecx
	movq	%rax, %rbx
	testq	$1, %rcx
	jne	.LBB15_1285
# BB#1295:                              # %if.end.i10191
	movzbl	16(%rbx), %eax
	cmpq	$115, %rax
	jg	.LBB15_1299
# BB#1296:                              # %if.end.i10191
	cmpq	$29, %rax
	ja	.LBB15_618
# BB#1297:                              # %if.end.i10191
	movq	$1, %rdx
	movq	%rax, %rcx
	shlq	%cl, %rdx
	testq	$637534208, %rdx        # imm = 0x26000000
	je	.LBB15_618
# BB#1298:
	movq	%rbx, %r9
	jmp	.LBB15_1954
.LBB15_1273:                            # %if.then5233
	cmpq	$100, %rax
	jne	.LBB15_1271
# BB#1274:                              # %sw.bb5238
	movq	global_trees+96(%rip), %rax
	movq	$60, %rdi
	movq	%rbx, %rsi
	movq	%rax, %rdx
	callq	const_binop
	movq	32(%r15), %rcx
	movq	%rax, %rbx
	movq	$99, %rdi
	xorq	%rax, %rax
	movq	$99, %r12
	movq	128(%rsp), %rsi         # 8-byte Reload
	movq	%rcx, %rdx
	movq	%rbx, %rcx
	callq	build
	movq	%rbx, %r8
.LBB15_1276:                            # %if.end5252
	movq	%rax, 160(%rsp)         # 8-byte Spill
	jmp	.LBB15_1277
.LBB15_1271:
	movq	%r15, 160(%rsp)         # 8-byte Spill
	movq	%rbx, %r8
	jmp	.LBB15_1277
.LBB15_1230:                            # %if.end.i10279
	cmpq	$121, %rax
	jne	.LBB15_1472
# BB#1231:
	movq	%r8, %r9
	jmp	.LBB15_1954
.LBB15_632:                             # %if.end3217
	movq	168(%rsp), %rax         # 8-byte Reload
	movzbl	16(%rax), %eax
	cmpq	$82, %rax
	jne	.LBB15_639
# BB#633:                               # %land.lhs.true3224
	movq	168(%rsp), %rax         # 8-byte Reload
	movq	32(%rax), %rax
	movq	%rax, %rdi
	callq	integer_onep
	testq	%r14, %rax
	je	.LBB15_639
# BB#634:                               # %if.then3230
	movq	168(%rsp), %rax         # 8-byte Reload
	movq	40(%rax), %rcx
	movq	$82, %rdi
.LBB15_635:                             # %return
	xorq	%rax, %rax
.LBB15_636:                             # %return
	movq	128(%rsp), %rsi         # 8-byte Reload
	jmp	.LBB15_637
.LBB15_627:                             # %if.then3195
	cmpq	$121, %rax
	jne	.LBB15_1880
# BB#628:
	movq	%rsi, %r9
	jmp	.LBB15_1954
.LBB15_615:                             # %if.end.i10992
	cmpq	$121, %rax
	jne	.LBB15_618
# BB#616:
	movq	%rbx, %r9
	jmp	.LBB15_1954
.LBB15_670:
	movq	$61, %r12
	jmp	.LBB15_460
.LBB15_673:                             # %land.lhs.true3275
	movq	168(%rsp), %rdi         # 8-byte Reload
	callq	contains_placeholder_p
	testq	%r14, %rax
	movq	$61, %r12
	jne	.LBB15_459
# BB#674:                               # %if.then3278
	movq	168(%rsp), %rdi         # 8-byte Reload
	callq	save_expr
	movq	%rax, %rcx
	movq	$59, %rdi
	xorq	%rax, %rax
	movq	128(%rsp), %rsi         # 8-byte Reload
	movq	%rcx, %rdx
	jmp	.LBB15_520
.LBB15_1699:                            # %if.end6982
	movq	40(%r15), %rax
	movq	%rax, %rdi
	callq	integer_zerop
	testq	%rbx, %rax
	je	.LBB15_1723
# BB#1700:                              # %land.lhs.true6988
	movq	168(%rsp), %rdi         # 8-byte Reload
	callq	integer_zerop
	testq	%rbx, %rax
	je	.LBB15_1723
# BB#1701:                              # %if.then6991
	cmpq	$101, 160(%rsp)         # 8-byte Folded Reload
	jne	.LBB15_1702
# BB#1713:                              # %if.then7000
	movq	global_trees+88(%rip), %rax
	movq	128(%rsp), %rdi         # 8-byte Reload
	movq	%rax, %rsi
	callq	convert
	movl	pedantic_lvalues(%rip), %ecx
	movq	%rax, %rsi
	testq	%rcx, %rcx
	je	.LBB15_1714
# BB#1715:                              # %if.then.i9994
	movzbl	16(%rsi), %eax
	cmpq	$115, %rax
	jg	.LBB15_1719
# BB#1716:                              # %if.then.i9994
	cmpq	$29, %rax
	ja	.LBB15_1880
# BB#1717:                              # %if.then.i9994
	movq	$1, %rdx
	movq	%rax, %rcx
	shlq	%cl, %rdx
	testq	$637534208, %rdx        # imm = 0x26000000
	je	.LBB15_1880
# BB#1718:
	movq	%rsi, %r9
	jmp	.LBB15_1954
.LBB15_1698:                            # %sw.default6981
	movabsq	$.L.str, %rax
	movabsq	$.L__FUNCTION__.fold, %rcx
	movq	$7202, %rsi             # imm = 0x1C22
	jmp	.LBB15_1099
.LBB15_1674:                            # %sw.bb6938
	movq	8(%r12), %rax
	movzbl	17(%rax), %ecx
	testq	$32, %rcx
	je	.LBB15_1676
# BB#1675:                              # %if.then6947
	movq	%rax, %rdi
	callq	signed_type
	movq	%rax, %rdi
	movq	%r12, %rsi
	callq	convert
	movq	%rax, %rcx
	movq	8(%rcx), %rax
	movq	%rcx, %r12
.LBB15_1676:                            # %if.end6952
	movq	$80, %rdi
	movq	%rax, %rsi
	movq	%r12, %rdx
	callq	build1
	movq	%rax, %rdi
	callq	fold
	movq	128(%rsp), %rdi         # 8-byte Reload
	movq	%rax, %rsi
	callq	convert
	movl	pedantic_lvalues(%rip), %ecx
	movq	%rax, %rsi
	testq	%rcx, %rcx
	je	.LBB15_1677
# BB#1678:                              # %if.then.i10042
	movzbl	16(%rsi), %eax
	cmpq	$115, %rax
	jg	.LBB15_1682
# BB#1679:                              # %if.then.i10042
	cmpq	$29, %rax
	ja	.LBB15_1880
# BB#1680:                              # %if.then.i10042
	movq	$1, %rdx
	movq	%rax, %rcx
	shlq	%cl, %rdx
	testq	$637534208, %rdx        # imm = 0x26000000
	je	.LBB15_1880
# BB#1681:
	movq	%rsi, %r9
	jmp	.LBB15_1954
.LBB15_1654:                            # %sw.bb6925
	movq	40(%r13), %rax
	movq	8(%rax), %rax
	movq	%rax, %rdi
	movq	%r12, %rsi
	callq	convert
	movq	%rax, %rdi
	callq	negate_expr
	movq	128(%rsp), %rdi         # 8-byte Reload
	movq	%rax, %rsi
	callq	convert
	movl	pedantic_lvalues(%rip), %ecx
	movq	%rax, %rsi
	testq	%rcx, %rcx
	je	.LBB15_1655
# BB#1656:                              # %if.then.i10074
	movzbl	16(%rsi), %eax
	cmpq	$115, %rax
	jg	.LBB15_1660
# BB#1657:                              # %if.then.i10074
	cmpq	$29, %rax
	ja	.LBB15_1880
# BB#1658:                              # %if.then.i10074
	movq	$1, %rdx
	movq	%rax, %rcx
	shlq	%cl, %rdx
	testq	$637534208, %rdx        # imm = 0x26000000
	je	.LBB15_1880
# BB#1659:
	movq	%rsi, %r9
	jmp	.LBB15_1954
.LBB15_1664:                            # %sw.bb6935
	movq	128(%rsp), %rdi         # 8-byte Reload
	movq	%r12, %rsi
	callq	convert
	movl	pedantic_lvalues(%rip), %ecx
	movq	%rax, %rsi
	testq	%rcx, %rcx
	je	.LBB15_1665
# BB#1666:                              # %if.then.i10058
	movzbl	16(%rsi), %eax
	cmpq	$115, %rax
	jg	.LBB15_1670
# BB#1667:                              # %if.then.i10058
	cmpq	$29, %rax
	ja	.LBB15_1880
# BB#1668:                              # %if.then.i10058
	movq	$1, %rdx
	movq	%rax, %rcx
	shlq	%cl, %rdx
	testq	$637534208, %rdx        # imm = 0x26000000
	je	.LBB15_1880
# BB#1669:
	movq	%rsi, %r9
	jmp	.LBB15_1954
.LBB15_1689:
	movq	%rsi, %r9
	jmp	.LBB15_1954
.LBB15_1694:                            # %if.then.i10026
	cmpq	$116, %rax
	jne	.LBB15_1696
# BB#1695:
	movq	%rsi, %r9
	jmp	.LBB15_1954
.LBB15_1084:                            # %if.then4361
	cmpq	$121, %rax
	jne	.LBB15_1880
# BB#1085:
	movq	%rsi, %r9
	jmp	.LBB15_1954
.LBB15_1901:                            # %if.end.i9819
	cmpq	$121, %rax
	jne	.LBB15_687
# BB#1902:
	movq	%rbx, %r9
	jmp	.LBB15_1954
.LBB15_1920:                            # %if.end.i
	cmpq	$121, %rax
	jne	.LBB15_687
# BB#1921:
	movq	%rbx, %r9
	jmp	.LBB15_1954
.LBB15_336:                             # %if.then.i11050
	movq	%r14, %rdx
	negq	%rdx
	andq	%rdx, %r14
	movq	$63, %rcx
	shrq	%cl, %r14
	xorq	%rax, %rax
.LBB15_340:                             # %neg_double.exit11055
	movq	%rax, %rdi
	movq	%rdx, %rsi
	callq	build_int_2_wide
	movq	%rax, %r12
	movq	128(%rsp), %rax         # 8-byte Reload
	movq	%rax, 8(%r12)
	movl	16(%rbx), %r15d
	movq	$19, %rcx
	shrq	%cl, %r15
	movq	%r12, %rdi
	movq	%r14, %rsi
	callq	force_fit_type
	movq	%r12, %r9
	orq	%r15, %rax
	jmp	.LBB15_313
.LBB15_955:                             # %if.end4234
	movq	120(%rsp), %r13         # 8-byte Reload
	movl	16(%r13), %eax
	movq	%rax, 160(%rsp)         # 8-byte Spill
	movq	32(%r13), %rax
	andq	$253, 160(%rsp)         # 8-byte Folded Spill
	leaq	540(%rsp), %rcx
	leaq	568(%rsp), %rdx
	leaq	544(%rsp), %r8
	movq	%rax, %rdi
	movq	%rcx, %rsi
	movq	%r8, %rcx
	callq	make_range
	movq	40(%r13), %rcx
	movq	%rax, 152(%rsp)         # 8-byte Spill
	leaq	536(%rsp), %rax
	leaq	560(%rsp), %rdx
	leaq	512(%rsp), %r8
	movq	%rcx, %rdi
	movq	%rax, %rsi
	movq	%r8, %rcx
	callq	make_range
	movq	%rax, 136(%rsp)         # 8-byte Spill
	cmpq	$92, 160(%rsp)          # 8-byte Folded Reload
	jne	.LBB15_961
# BB#956:                               # %if.then.i11107
	movl	540(%rsp), %eax
	testq	%rax, %rax
	movabsq	$0, %rax
	movabsq	$1, %rcx
	movq	%rax, %rdx
	jne	.LBB15_958
# BB#957:                               # %if.then.i11107
	movq	%rcx, %rdx
.LBB15_958:                             # %if.then.i11107
	movl	536(%rsp), %esi
	movl	%edx, 540(%rsp)
	testq	%rsi, %rsi
	jne	.LBB15_960
# BB#959:                               # %if.then.i11107
	movq	%rcx, %rax
.LBB15_960:                             # %if.then.i11107
	movl	%eax, 536(%rsp)
.LBB15_961:                             # %if.end.i11110
	cmpq	$0, 152(%rsp)           # 8-byte Folded Reload
	je	.LBB15_964
# BB#962:                               # %if.end.i11110
	cmpq	$0, 136(%rsp)           # 8-byte Folded Reload
	je	.LBB15_964
# BB#963:                               # %lor.lhs.false17.i
	xorq	%rdx, %rdx
	movq	152(%rsp), %rdi         # 8-byte Reload
	movq	136(%rsp), %rsi         # 8-byte Reload
	callq	operand_equal_p
	testq	%r14, %rax
	je	.LBB15_971
.LBB15_964:                             # %land.lhs.true.i
	movq	568(%rsp), %rax
	movq	544(%rsp), %r10
	movq	560(%rsp), %rcx
	movq	512(%rsp), %rdx
	movl	540(%rsp), %r8d
	movl	536(%rsp), %esi
	movq	%rdx, 16(%rsp)
	movq	%rcx, 8(%rsp)
	leaq	532(%rsp), %rcx
	leaq	552(%rsp), %rdx
	leaq	504(%rsp), %r9
	movq	%rsi, (%rsp)
	movq	%rcx, %rdi
	movq	%rdx, %rsi
	movq	%r9, %rdx
	movq	%r8, %rcx
	movq	%rax, %r8
	movq	%r10, %r9
	callq	merge_ranges
	testq	%r14, %rax
	je	.LBB15_971
# BB#965:                               # %land.lhs.true22.i
	movq	120(%rsp), %rax         # 8-byte Reload
	movq	8(%rax), %rax
	movq	152(%rsp), %rcx         # 8-byte Reload
	testq	%rcx, %rcx
	jne	.LBB15_968
# BB#966:                               # %cond.false.i
	movq	136(%rsp), %rcx         # 8-byte Reload
	testq	%rcx, %rcx
	jne	.LBB15_968
# BB#967:                               # %cond.false.i
	movq	global_trees+88(%rip), %rcx
.LBB15_968:                             # %cond.end28.i
	movq	552(%rsp), %r9
	movq	504(%rsp), %r8
	movl	532(%rsp), %edx
	movq	%rax, %rdi
	movq	%rcx, %rsi
	movq	%r9, %rcx
	callq	build_range_check
	testq	%rax, %rax
	movq	%rax, %r13
	je	.LBB15_971
# BB#969:                               # %if.then32.i
	cmpq	$92, 160(%rsp)          # 8-byte Folded Reload
	jne	.LBB15_1010
# BB#970:                               # %cond.true34.i
	movq	%r13, %rdi
	callq	invert_truthvalue
	jmp	.LBB15_1009
.LBB15_206:
	movabsq	$0, %r15
.LBB15_208:                             # %if.end1209
	orq	%rax, %rcx
	je	.LBB15_216
# BB#209:                               # %if.end1209
	movq	136(%rsp), %rax         # 8-byte Reload
	movq	%r14, %rdx
	andq	%rdx, %rax
	movq	96(%rsp), %rcx          # 8-byte Reload
	andq	%rdx, %rcx
                                        # kill: R14<def> RDX<kill>
	cmpq	%rax, %rcx
	jb	.LBB15_216
# BB#210:                               # %if.end1209
	movq	88(%rsp), %rax          # 8-byte Reload
	orq	%rax, %r15
	je	.LBB15_216
# BB#211:                               # %land.lhs.true1229
	movq	$9, %rcx
	movq	%r11, %rax
	shrq	%cl, %rax
	andq	$127, %rax
	movzbl	mode_bitsize(%rax,%rax), %ecx
	movq	%rbx, %rdx
	andq	%r14, %rdx
	cmpq	%rcx, %rdx
	jne	.LBB15_212
# BB#225:                               # %land.lhs.true1253
	cmpq	$0, 56(%rsp)            # 8-byte Folded Reload
	je	.LBB15_204
	jmp	.LBB15_216
.LBB15_402:                             # %land.lhs.true2166
	cmpq	$61, %r8
	jne	.LBB15_404
# BB#403:                               # %if.then2173
	movq	$59, %rdi
	xorq	%rax, %rax
	movq	128(%rsp), %r14         # 8-byte Reload
	movq	%r14, %rsi
	movq	%r13, %rdx
	movq	%rbx, %rcx
	callq	build
	movq	%rax, %rdi
	callq	fold
	movq	%rax, %rcx
	movq	$59, %rdi
	xorq	%rax, %rax
	movq	%r14, %rsi
.LBB15_1948:                            # %return
	movq	%rcx, %rdx
	movq	%r15, %rcx
	jmp	.LBB15_1926
.LBB15_697:                             # %if.end.i10907
	movq	%rax, %rbx
	jmp	.LBB15_687
.LBB15_591:                             # %if.end3110
	movq	128(%rsp), %rax         # 8-byte Reload
	movzbl	16(%rax), %eax
	cmpq	$7, %rax
	jne	.LBB15_592
# BB#596:                               # %lor.lhs.false3133
	movl	flag_unsafe_math_optimizations(%rip), %eax
	testq	%rax, %rax
	jne	.LBB15_598
# BB#597:
	movq	$60, %r12
	jmp	.LBB15_459
.LBB15_573:                             # %if.then3051
	cmpq	$121, %rax
	jne	.LBB15_686
# BB#574:
	movq	%rsi, %r9
	jmp	.LBB15_1954
.LBB15_1198:                            # %if.end.i10345
	cmpq	$121, %rax
	jne	.LBB15_1472
# BB#1199:
	movq	%r8, %r9
	jmp	.LBB15_1954
.LBB15_1260:                            # %if.end.i10235
	cmpq	$116, %rax
	jne	.LBB15_1262
# BB#1261:
	movq	%r8, %r9
	jmp	.LBB15_1954
.LBB15_1246:                            # %if.end.i10257
	movzbl	16(%r8), %eax
	cmpq	$115, %rax
	jg	.LBB15_1250
# BB#1247:                              # %if.end.i10257
	cmpq	$29, %rax
	ja	.LBB15_1472
# BB#1248:                              # %if.end.i10257
	movq	$1, %rdx
	movq	%rax, %rcx
	shlq	%cl, %rdx
	testq	$637534208, %rdx        # imm = 0x26000000
	je	.LBB15_1472
# BB#1249:
	movq	%r8, %r9
	jmp	.LBB15_1954
.LBB15_1283:                            # %sw.bb5329
	movabsq	$4294967040, %rcx       # imm = 0xFFFFFF00
	andq	%rcx, %rax
	orq	$101, %rax
	movq	$101, 144(%rsp)         # 8-byte Folded Spill
	jmp	.LBB15_1304
.LBB15_1303:                            # %sw.bb5323
	movabsq	$4294967040, %rcx       # imm = 0xFFFFFF00
	andq	%rcx, %rax
	orq	$102, %rax
	movq	$102, 144(%rsp)         # 8-byte Folded Spill
.LBB15_1304:                            # %if.end5343.thread
	movq	160(%rsp), %rcx         # 8-byte Reload
	movl	%eax, 16(%rcx)
	movq	144(%rsp), %rcx         # 8-byte Reload
	movabsq	$4294967295, %rax       # imm = 0xFFFFFFFF
	andq	%rax, %rcx
	cmpq	$101, %rcx
	movabsq	$0, %r12
	movabsq	$1, %rax
	movq	%r12, 168(%rsp)         # 8-byte Spill
	jne	.LBB15_1306
# BB#1305:                              # %if.end5343.thread
	movq	%rax, 168(%rsp)         # 8-byte Spill
.LBB15_1306:                            # %if.end5343.thread
	cmpq	$102, %rcx
	jne	.LBB15_1308
# BB#1307:                              # %if.end5343.thread
	movq	%rax, %r12
.LBB15_1308:                            # %if.end5343.thread
	movq	144(%rsp), %rax         # 8-byte Reload
	leaq	-101(%rax), %rax
	movabsq	$4294967295, %rcx       # imm = 0xFFFFFFFF
	andq	%rcx, %rax
	cmpq	$2, %rax
	sbbq	%r14, %r14
	andq	$1, %r14
.LBB15_1314:                            # %land.lhs.true5349
	movzbl	16(%r8), %eax
	cmpq	$25, %rax
	jne	.LBB15_1325
# BB#1315:                              # %land.lhs.true5356
	movzbl	16(%r13), %ecx
	leaq	-59(%rcx), %rax
	movabsq	$4294967295, %rdx       # imm = 0xFFFFFFFF
	andq	%rdx, %rax
	cmpq	$1, %rax
	ja	.LBB15_1325
# BB#1316:                              # %land.lhs.true5370
	movq	40(%r13), %rax
	movzbl	16(%rax), %edx
	cmpq	$25, %rdx
	jne	.LBB15_1325
# BB#1317:                              # %land.lhs.true5380
	movq	%r8, %rdx
	cmpq	$59, %rcx
	jne	.LBB15_1318
# BB#1319:                              # %land.lhs.true5380
	movabsq	$1, %rcx
	jmp	.LBB15_1320
.LBB15_1284:                            # %sw.bb5335
	movq	global_trees+96(%rip), %rax
	movq	128(%rsp), %r14         # 8-byte Reload
	movq	%r14, %rdi
	movq	%rax, %rsi
	callq	convert
	movq	%r14, %rdi
	movq	%rax, %rsi
	callq	convert
	movzbl	17(%r13), %ecx
	movq	%rax, %rbx
	testq	$1, %rcx
	je	.LBB15_1286
.LBB15_1285:                            # %if.then.i10209
	movq	$47, %rdi
	xorq	%rax, %rax
	movq	%r14, %rsi
	movq	%r13, %rdx
	movq	%rbx, %rcx
	jmp	.LBB15_520
.LBB15_1299:                            # %if.end.i10191
	cmpq	$116, %rax
	jne	.LBB15_1301
# BB#1300:
	movq	%rbx, %r9
	jmp	.LBB15_1954
.LBB15_639:                             # %if.end3236
	movzbl	16(%rbx), %eax
	cmpq	$25, %rax
	jne	.LBB15_640
# BB#641:                               # %land.lhs.true3243
	movq	120(%rsp), %rax         # 8-byte Reload
	movq	32(%rax), %rax
	movq	$61, %rdx
	xorq	%rcx, %rcx
	movq	$61, %r12
	movq	%rax, %rdi
	movq	%rbx, %rsi
	callq	extract_muldiv
	testq	%rax, %rax
	jne	.LBB15_642
	jmp	.LBB15_459
.LBB15_1702:                            # %if.then6991
	cmpq	$102, 160(%rsp)         # 8-byte Folded Reload
	jne	.LBB15_1723
# BB#1703:                              # %if.then6994
	movq	128(%rsp), %rdi         # 8-byte Reload
	movq	%r12, %rsi
	callq	convert
	movl	pedantic_lvalues(%rip), %ecx
	movq	%rax, %rsi
	testq	%rcx, %rcx
	je	.LBB15_1704
# BB#1705:                              # %if.then.i10010
	movzbl	16(%rsi), %eax
	cmpq	$115, %rax
	jg	.LBB15_1709
# BB#1706:                              # %if.then.i10010
	cmpq	$29, %rax
	ja	.LBB15_1880
# BB#1707:                              # %if.then.i10010
	movq	$1, %rdx
	movq	%rax, %rcx
	shlq	%cl, %rdx
	testq	$637534208, %rdx        # imm = 0x26000000
	je	.LBB15_1880
# BB#1708:
	movq	%rsi, %r9
	jmp	.LBB15_1954
.LBB15_1714:
	movq	%rsi, %r9
	jmp	.LBB15_1954
.LBB15_1719:                            # %if.then.i9994
	cmpq	$116, %rax
	jne	.LBB15_1721
# BB#1720:
	movq	%rsi, %r9
	jmp	.LBB15_1954
.LBB15_1677:
	movq	%rsi, %r9
	jmp	.LBB15_1954
.LBB15_1682:                            # %if.then.i10042
	cmpq	$116, %rax
	jne	.LBB15_1684
# BB#1683:
	movq	%rsi, %r9
	jmp	.LBB15_1954
.LBB15_1655:
	movq	%rsi, %r9
	jmp	.LBB15_1954
.LBB15_1660:                            # %if.then.i10074
	cmpq	$116, %rax
	jne	.LBB15_1662
# BB#1661:
	movq	%rsi, %r9
	jmp	.LBB15_1954
.LBB15_1665:
	movq	%rsi, %r9
	jmp	.LBB15_1954
.LBB15_1670:                            # %if.then.i10058
	cmpq	$116, %rax
	jne	.LBB15_1672
# BB#1671:
	movq	%rsi, %r9
	jmp	.LBB15_1954
.LBB15_1696:                            # %if.then.i10026
	cmpq	$121, %rax
	jne	.LBB15_1880
# BB#1697:
	movq	%rsi, %r9
	jmp	.LBB15_1954
.LBB15_971:                             # %if.else.i11113
	movslq	ix86_branch_cost(%rip), %rax
	xorq	%r13, %r13
	cmpq	$2, %rax
	jl	.LBB15_1010
# BB#972:                               # %if.else.i11113
	cmpq	$0, 152(%rsp)           # 8-byte Folded Reload
	je	.LBB15_1010
# BB#973:                               # %if.else.i11113
	cmpq	$0, 136(%rsp)           # 8-byte Folded Reload
	je	.LBB15_1010
# BB#974:                               # %land.lhs.true44.i
	movq	120(%rsp), %rax         # 8-byte Reload
	movzbl	16(%rax), %eax
	addq	$-91, %rax
	andq	%r14, %rax
	cmpq	$1, %rax
	ja	.LBB15_1010
# BB#975:                               # %land.lhs.true56.i
	xorq	%rdx, %rdx
	xorq	%r13, %r13
	movq	152(%rsp), %rdi         # 8-byte Reload
	movq	136(%rsp), %rsi         # 8-byte Reload
	callq	operand_equal_p
	testq	%r14, %rax
	je	.LBB15_1010
# BB#976:
	movq	152(%rsp), %rdx         # 8-byte Reload
.LBB15_977:                             # %while.cond.i.i
                                        # =>This Inner Loop Header: Depth=1
	movq	%rdx, %rcx
	movl	16(%rcx), %eax
	movq	%rax, %rdx
	andq	$254, %rdx
	cmpq	$114, %rdx
	jne	.LBB15_979
# BB#978:                               # %land.rhs.i.i
                                        #   in Loop: Header=BB15_977 Depth=1
	movq	32(%rcx), %rdx
	movq	8(%rcx), %rsi
	movq	8(%rdx), %rdi
	movl	60(%rsi), %esi
	movl	60(%rdi), %edi
	xorq	%rsi, %rdi
	testq	$65024, %rdi            # imm = 0xFE00
	je	.LBB15_977
.LBB15_979:                             # %while.end.i.i
	movq	%rax, %rdx
	andq	$255, %rdx
	movzbl	tree_code_type(%rdx), %edx
	cmpq	$99, %rdx
	je	.LBB15_988
# BB#980:                               # %lor.rhs.i.i
	cmpq	$100, %rdx
	jne	.LBB15_992
# BB#981:                               # %lor.rhs.i.i
	movq	%rax, %rdx
	andq	$1024, %rdx             # imm = 0x400
	testq	%r14, %rdx
	jne	.LBB15_992
# BB#982:                               # %lor.rhs.i.i
	movq	%rax, %rdx
	andq	$2048, %rdx             # imm = 0x800
	testq	%r14, %rdx
	jne	.LBB15_992
# BB#983:                               # %land.lhs.true48.i.i
	movq	48(%rcx), %rcx
	testq	$512, %rcx              # imm = 0x200
	jne	.LBB15_992
# BB#984:                               # %land.lhs.true48.i.i
	movq	%rax, %rdx
	andq	$524288, %rdx           # imm = 0x80000
	testq	%r14, %rdx
	jne	.LBB15_992
# BB#985:                               # %land.lhs.true48.i.i
	movq	%rcx, %rdx
	andq	$256, %rdx              # imm = 0x100
	jne	.LBB15_992
# BB#986:                               # %land.rhs66.i.i
	testq	$262144, %rax           # imm = 0x40000
	je	.LBB15_988
# BB#987:                               # %land.rhs66.i.i
	andq	$1024, %rcx             # imm = 0x400
	jne	.LBB15_988
.LBB15_992:                             # %if.else78.i
	callq	global_bindings_p
	testq	%r14, %rax
	jne	.LBB15_1010
# BB#993:                               # %land.lhs.true81.i
	movq	152(%rsp), %rdi         # 8-byte Reload
	callq	contains_placeholder_p
	testq	%r14, %rax
	jne	.LBB15_1010
# BB#994:                               # %if.then84.i
	movq	152(%rsp), %rdi         # 8-byte Reload
	callq	save_expr
	movq	120(%rsp), %rcx         # 8-byte Reload
	movq	8(%rcx), %rcx
	movl	540(%rsp), %edx
	movq	%rax, 136(%rsp)         # 8-byte Spill
	cmpq	$92, 160(%rsp)          # 8-byte Folded Reload
	jne	.LBB15_998
# BB#995:                               # %cond.true90.i
	testq	%r14, %rdx
	jne	.LBB15_996
# BB#997:                               # %cond.true90.i
	movabsq	$1, %rdx
	jmp	.LBB15_998
.LBB15_212:                             # %land.lhs.true1240
	movq	$9, %rcx
	movq	72(%rsp), %rdx          # 8-byte Reload
	shrq	%cl, %rdx
	andq	$127, %rdx
	andq	%r14, %rax
	cmpq	%rdx, %rax
	jne	.LBB15_213
# BB#214:                               # %land.lhs.true1240
	movabsq	$1, %rax
	jmp	.LBB15_215
.LBB15_404:                             # %if.end2179
	cmpq	$61, %r9
	movq	$59, %r15
	jne	.LBB15_455
# BB#405:                               # %if.end2179
	cmpq	$61, %rcx
	jne	.LBB15_455
# BB#406:                               # %if.then2193
	movq	168(%rsp), %rax         # 8-byte Reload
	movq	32(%rax), %rcx
	movq	%rcx, 144(%rsp)         # 8-byte Spill
	movq	40(%rax), %r13
	movq	%r12, %rax
	movq	32(%rax), %rcx
	movq	%rcx, 160(%rsp)         # 8-byte Spill
	movq	40(%rax), %rbx
                                        # kill: R12<def> RAX<kill>
	xorq	%rdx, %rdx
	movq	%r13, %rdi
	movq	%rbx, %rsi
	callq	operand_equal_p
	testq	%r14, %rax
	je	.LBB15_408
# BB#407:
	movq	%r13, 136(%rsp)         # 8-byte Spill
	movq	160(%rsp), %rbx         # 8-byte Reload
	jmp	.LBB15_431
.LBB15_592:                             # %if.end3110
	cmpq	$8, %rax
	jne	.LBB15_598
# BB#593:                               # %land.lhs.true3124
	movq	128(%rsp), %rax         # 8-byte Reload
	movq	8(%rax), %rax
	movzbl	16(%rax), %eax
	cmpq	$7, %rax
	jne	.LBB15_598
# BB#594:                               # %land.lhs.true3124
	movl	flag_unsafe_math_optimizations(%rip), %eax
	testq	%r14, %rax
	jne	.LBB15_598
# BB#595:
	movq	$60, %r12
	jmp	.LBB15_459
.LBB15_686:                             # %if.end.i11095
	movq	%rsi, %rbx
.LBB15_687:                             # %if.end.i.i10929
	movq	8(%rbx), %rax
	movq	$116, %rdi
	movq	%rax, %rsi
	movq	%rbx, %rdx
	callq	build1
	movl	16(%rbx), %ecx
	movl	16(%rax), %edx
	andq	$512, %rcx              # imm = 0x200
	movabsq	$4294966783, %rsi       # imm = 0xFFFFFDFF
	andq	%rdx, %rsi
	orq	%rcx, %rsi
	movl	%esi, 16(%rax)
	movq	%rax, %r9
	jmp	.LBB15_1954
.LBB15_1262:                            # %if.end.i10235
	cmpq	$121, %rax
	jne	.LBB15_1472
# BB#1263:
	movq	%r8, %r9
	jmp	.LBB15_1954
.LBB15_1250:                            # %if.end.i10257
	cmpq	$116, %rax
	jne	.LBB15_1252
# BB#1251:
	movq	%r8, %r9
	jmp	.LBB15_1954
.LBB15_1318:
	movabsq	$0, %rcx
.LBB15_1320:                            # %land.lhs.true5380
	addq	$59, %rcx
	movq	%rcx, %rdi
	movq	%rdx, %rbx
	movq	%rbx, %rsi
	movq	%rax, %rdx
	callq	const_binop
	movq	%rbx, %r8
	movq	%rax, %rcx
	testq	%rcx, %rcx
	je	.LBB15_1325
# BB#1321:                              # %land.lhs.true5394
	movzbl	18(%rcx), %eax
	testq	$4, %rax
	je	.LBB15_1322
.LBB15_1325:                            # %if.else5407
	xorq	%r15, %r15
	testq	%r14, %r14
	je	.LBB15_1333
# BB#1326:                              # %land.lhs.true5413
	movzbl	16(%r13), %eax
	cmpq	$77, %rax
	jne	.LBB15_1330
# BB#1327:                              # %land.lhs.true5420
	movzbl	16(%r8), %eax
	cmpq	$25, %rax
	jne	.LBB15_1330
# BB#1328:                              # %land.lhs.true5427
	movq	%r8, %rdi
	movq	%r8, %rbx
	callq	negate_expr
	movq	%rbx, %r8
	movq	%rax, %rcx
	testq	%rcx, %rcx
	je	.LBB15_1330
# BB#1329:                              # %land.lhs.true5431
	movl	16(%rcx), %eax
	andq	$262399, %rax           # imm = 0x400FF
	cmpq	$25, %rax
	jne	.LBB15_1330
.LBB15_1322:                            # %if.then5401
	movq	32(%r13), %rdx
	jmp	.LBB15_1323
.LBB15_1330:                            # %land.lhs.true5457
	movq	%r8, %rdi
	movq	%r8, %rbx
	callq	integer_zerop
	movabsq	$4294967295, %rcx       # imm = 0xFFFFFFFF
	testq	%rcx, %rax
	movq	$1, %r15
	je	.LBB15_1332
# BB#1331:                              # %land.lhs.true5460
	movzbl	16(%r13), %eax
	cmpq	$60, %rax
	jne	.LBB15_1332
# BB#1955:                              # %if.then5467
	movq	%r13, %rax
	movq	32(%rax), %rcx
	movq	40(%rax), %rbx
	xorq	%rax, %rax
	movq	144(%rsp), %rdi         # 8-byte Reload
	movq	128(%rsp), %rsi         # 8-byte Reload
	movq	%rcx, %rdx
.LBB15_799:                             # %return
	movq	%rbx, %rcx
	callq	build
	jmp	.LBB15_715
.LBB15_1286:                            # %if.end.i10213
	movzbl	16(%rbx), %eax
	cmpq	$115, %rax
	jg	.LBB15_1290
# BB#1287:                              # %if.end.i10213
	cmpq	$29, %rax
	ja	.LBB15_618
# BB#1288:                              # %if.end.i10213
	movq	$1, %rdx
	movq	%rax, %rcx
	shlq	%cl, %rdx
	testq	$637534208, %rdx        # imm = 0x26000000
	je	.LBB15_618
# BB#1289:
	movq	%rbx, %r9
	jmp	.LBB15_1954
.LBB15_1301:                            # %if.end.i10191
	cmpq	$121, %rax
	jne	.LBB15_618
# BB#1302:
	movq	%rbx, %r9
	jmp	.LBB15_1954
.LBB15_640:
	movq	$61, %r12
	jmp	.LBB15_459
.LBB15_1723:                            # %if.end7005
	movq	%r15, %rdx
	movq	32(%rdx), %rax
	movq	40(%rdx), %rcx
                                        # kill: R15<def> RDX<kill>
	movq	%rcx, %rdi
	movq	168(%rsp), %rsi         # 8-byte Reload
	movq	%rax, %rdx
	callq	operand_equal_for_comparison_p
	testq	%rbx, %rax
	je	.LBB15_1777
# BB#1724:                              # %if.then7014
	movq	%r15, %rcx
	movq	32(%rcx), %rax
	movq	8(%rax), %rsi
	movq	128(%rsi), %rdx
	movq	128(%rsp), %r8          # 8-byte Reload
	movq	128(%r8), %rdi
	movq	40(%rcx), %rcx
	cmpq	%rdi, %rdx
	movq	%r8, %rdx
	movq	%r8, %r14
	je	.LBB15_1726
# BB#1725:                              # %select.mid
	movq	%rsi, %rdx
.LBB15_1726:                            # %select.end
	movq	160(%rsp), %rsi         # 8-byte Reload
	leaq	-97(%rsi), %rsi
	andq	%rbx, %rsi
	cmpq	$5, %rsi
	ja	.LBB15_1776
# BB#1727:                              # %select.end
	jmpq	*.LJTI15_2(,%rsi,8)
.LBB15_1748:                            # %sw.bb7040
	cmpq	$98, 160(%rsp)          # 8-byte Folded Reload
	movq	%rax, %rbx
	je	.LBB15_1750
# BB#1749:                              # %sw.bb7040
	movq	%rcx, %rbx
.LBB15_1750:                            # %sw.bb7040
	je	.LBB15_1752
# BB#1751:                              # %sw.bb7040
	movq	%rax, %rcx
.LBB15_1752:                            # %sw.bb7040
	movq	$78, %rdi
	xorq	%rax, %rax
	movq	%rdx, %rsi
	movq	%rbx, %rdx
	callq	build
	movq	%rax, %rdi
	callq	fold
	movq	%r14, %rdi
	movq	%rax, %rsi
	callq	convert
	movl	pedantic_lvalues(%rip), %ecx
	movq	%rax, %rsi
	testq	%rcx, %rcx
	je	.LBB15_1753
# BB#1754:                              # %if.then.i9946
	movzbl	16(%rsi), %eax
	cmpq	$115, %rax
	jg	.LBB15_1758
# BB#1755:                              # %if.then.i9946
	cmpq	$29, %rax
	ja	.LBB15_1880
# BB#1756:                              # %if.then.i9946
	movq	$1, %rdx
	movq	%rax, %rcx
	shlq	%cl, %rdx
	testq	$637534208, %rdx        # imm = 0x26000000
	je	.LBB15_1880
# BB#1757:
	movq	%rsi, %r9
	jmp	.LBB15_1954
.LBB15_1704:
	movq	%rsi, %r9
	jmp	.LBB15_1954
.LBB15_1709:                            # %if.then.i10010
	cmpq	$116, %rax
	jne	.LBB15_1711
# BB#1710:
	movq	%rsi, %r9
	jmp	.LBB15_1954
.LBB15_1721:                            # %if.then.i9994
	cmpq	$121, %rax
	jne	.LBB15_1880
# BB#1722:
	movq	%rsi, %r9
	jmp	.LBB15_1954
.LBB15_1684:                            # %if.then.i10042
	cmpq	$121, %rax
	jne	.LBB15_1880
# BB#1685:
	movq	%rsi, %r9
	jmp	.LBB15_1954
.LBB15_1662:                            # %if.then.i10074
	cmpq	$121, %rax
	jne	.LBB15_1880
# BB#1663:
	movq	%rsi, %r9
	jmp	.LBB15_1954
.LBB15_1672:                            # %if.then.i10058
	cmpq	$121, %rax
	jne	.LBB15_1880
# BB#1673:
	movq	%rsi, %r9
	jmp	.LBB15_1954
.LBB15_988:                             # %if.then62.i
	movq	120(%rsp), %rax         # 8-byte Reload
	movzbl	16(%rax), %eax
	cmpq	$91, %rax
	jne	.LBB15_989
# BB#990:                               # %if.then62.i
	movabsq	$1, %rcx
	jmp	.LBB15_991
.LBB15_996:
	movabsq	$0, %rdx
.LBB15_998:                             # %cond.end95.i
	movq	568(%rsp), %rax
	movq	544(%rsp), %r8
	movq	%rcx, %rdi
	movq	136(%rsp), %rsi         # 8-byte Reload
	movq	%rax, %rcx
	callq	build_range_check
	movq	%rax, 152(%rsp)         # 8-byte Spill
	testq	%rax, %rax
	je	.LBB15_1010
# BB#999:                               # %land.lhs.true99.i
	movq	120(%rsp), %rax         # 8-byte Reload
	movq	8(%rax), %rax
	movl	536(%rsp), %ecx
	cmpq	$92, 160(%rsp)          # 8-byte Folded Reload
	jne	.LBB15_1003
# BB#1000:                              # %cond.true103.i
	testq	%r14, %rcx
	jne	.LBB15_1001
# BB#1002:                              # %cond.true103.i
	movabsq	$1, %rcx
	jmp	.LBB15_1003
.LBB15_213:
	movabsq	$0, %rax
.LBB15_215:                             # %land.lhs.true1240
	movq	56(%rsp), %rcx          # 8-byte Reload
	orq	%rcx, %rax
	je	.LBB15_204
.LBB15_216:                             # %if.end1263
	movq	80(%rsp), %rax          # 8-byte Reload
	andq	%r9, %rax
	andq	%rax, %rsi
	movq	%rax, %r15
	cmpq	$1, %rsi
	jne	.LBB15_221
# BB#217:                               # %if.end1263
	movq	96(%rsp), %rax          # 8-byte Reload
	movq	%r14, %rdx
	andq	%rdx, %rax
	movq	136(%rsp), %rcx         # 8-byte Reload
	andq	%rdx, %rcx
                                        # kill: R14<def> RDX<kill>
	cmpq	%rax, %rcx
	jae	.LBB15_221
# BB#218:                               # %land.lhs.true1272
	testq	%r8, %r8
	je	.LBB15_221
# BB#219:                               # %land.lhs.true1272
	movq	%rbx, %rcx
	andq	%r14, %rcx
	cmpq	%rcx, %rax
	jae	.LBB15_221
# BB#220:                               # %land.lhs.true1272
	testq	%r10, %r10
	je	.LBB15_204
.LBB15_221:                             # %if.end1287
	movq	%r14, %rcx
	movq	96(%rsp), %rdx          # 8-byte Reload
	andq	%rcx, %rdx
	movq	%rdx, 96(%rsp)          # 8-byte Spill
	movq	136(%rsp), %rax         # 8-byte Reload
	andq	%rcx, %rax
	cmpq	%rdx, %rax
	movq	%rax, %rsi
	sbbq	%rax, %rax
	andq	%rcx, %rbx
                                        # kill: R14<def> RCX<kill>
	cmpq	%rdx, %rbx
	sbbq	%rcx, %rcx
	orq	%rax, %rcx
	andq	$1, %rcx
	cmpq	$1, %rcx
	movq	160(%rsp), %r9          # 8-byte Reload
	jne	.LBB15_244
# BB#222:                               # %if.end1287
	movq	144(%rsp), %rax         # 8-byte Reload
