	.file	"function.c.bc"
	.text
	.globl	find_function_data
	.align	16, 0x90
	.type	find_function_data,@function
find_function_data:                     # @find_function_data
	.cfi_startproc
# BB#0:                                 # %entry
	pushq	%rax
.Ltmp1:
	.cfi_def_cfa_offset 16
	movq	outer_function_chain(%rip), %rax
	jmp	.LBB0_1
	.align	16, 0x90
.LBB0_3:                                # %for.cond
                                        #   in Loop: Header=BB0_1 Depth=1
	movq	56(%rax), %rax
.LBB0_1:                                # %entry
                                        # =>This Inner Loop Header: Depth=1
	testq	%rax, %rax
	je	.LBB0_2
# BB#4:                                 # %for.body
                                        #   in Loop: Header=BB0_1 Depth=1
	movq	48(%rax), %rcx
	cmpq	%rdi, %rcx
	jne	.LBB0_3
# BB#5:                                 # %if.then
	popq	%rdx
	retq
.LBB0_2:                                # %for.end
	movabsq	$.L.str, %rax
	movabsq	$.L__FUNCTION__.find_function_data, %rcx
	movq	$329, %rsi              # imm = 0x149
	movq	%rax, %rdi
	movq	%rcx, %rdx
	callq	fancy_abort
.Ltmp2:
	.size	find_function_data, .Ltmp2-find_function_data
	.cfi_endproc

	.globl	push_function_context_to
	.align	16, 0x90
	.type	push_function_context_to,@function
push_function_context_to:               # @push_function_context_to
	.cfi_startproc
# BB#0:                                 # %entry
	pushq	%rax
.Ltmp4:
	.cfi_def_cfa_offset 16
	testq	%rdi, %rdi
	je	.LBB1_9
# BB#1:                                 # %if.then
	movq	current_function_decl(%rip), %rax
	cmpq	%rdi, %rax
	je	.LBB1_2
# BB#3:                                 # %if.else
	movq	outer_function_chain(%rip), %rax
	jmp	.LBB1_4
	.align	16, 0x90
.LBB1_6:                                # %for.cond.i
                                        #   in Loop: Header=BB1_4 Depth=1
	movq	56(%rax), %rax
.LBB1_4:                                # %if.else
                                        # =>This Inner Loop Header: Depth=1
	testq	%rax, %rax
	je	.LBB1_5
# BB#7:                                 # %for.body.i
                                        #   in Loop: Header=BB1_4 Depth=1
	movq	48(%rax), %rcx
	cmpq	%rdi, %rcx
	jne	.LBB1_6
	jmp	.LBB1_8
.LBB1_2:                                # %if.then1
	movq	cfun(%rip), %rax
.LBB1_8:                                # %find_function_data.exit
	movl	424(%rax), %ecx
	orq	$1024, %rcx             # imm = 0x400
	movl	%ecx, 424(%rax)
.LBB1_9:                                # %if.end6
	movq	cfun(%rip), %rdi
	testq	%rdi, %rdi
	jne	.LBB1_11
# BB#10:                                # %if.then8
	callq	prepare_function_start
	movq	cfun(%rip), %rdi
.LBB1_11:                               # %if.end9
	movq	outer_function_chain(%rip), %rax
	movq	%rax, 56(%rdi)
	movq	%rdi, outer_function_chain(%rip)
	movq	$0, 344(%rdi)
	movq	save_lang_status(%rip), %rax
	testq	%rax, %rax
	je	.LBB1_13
# BB#12:                                # %if.then11
	callq	*%rax
.LBB1_13:                               # %if.end12
	movq	$0, cfun(%rip)
	popq	%rax
	retq
.LBB1_5:                                # %for.end.i
	movabsq	$.L.str, %rax
	movabsq	$.L__FUNCTION__.find_function_data, %rcx
	movq	$329, %rsi              # imm = 0x149
	movq	%rax, %rdi
	movq	%rcx, %rdx
	callq	fancy_abort
.Ltmp5:
	.size	push_function_context_to, .Ltmp5-push_function_context_to
	.cfi_endproc

	.globl	init_dummy_function_start
	.align	16, 0x90
	.type	init_dummy_function_start,@function
init_dummy_function_start:              # @init_dummy_function_start
	.cfi_startproc
# BB#0:                                 # %entry
	jmp	prepare_function_start  # TAILCALL
.Ltmp6:
	.size	init_dummy_function_start, .Ltmp6-init_dummy_function_start
	.cfi_endproc

	.globl	push_function_context
	.align	16, 0x90
	.type	push_function_context,@function
push_function_context:                  # @push_function_context
	.cfi_startproc
# BB#0:                                 # %entry
	pushq	%rax
.Ltmp8:
	.cfi_def_cfa_offset 16
	cmpq	$0, current_function_decl(%rip)
	je	.LBB3_2
# BB#1:                                 # %if.then1.i
	movq	cfun(%rip), %rax
	movl	424(%rax), %ecx
	orq	$1024, %rcx             # imm = 0x400
	movl	%ecx, 424(%rax)
.LBB3_2:                                # %if.end6.i
	movq	cfun(%rip), %rdi
	testq	%rdi, %rdi
	jne	.LBB3_4
# BB#3:                                 # %if.then8.i
	callq	prepare_function_start
	movq	cfun(%rip), %rdi
.LBB3_4:                                # %if.end9.i
	movq	outer_function_chain(%rip), %rax
	movq	%rax, 56(%rdi)
	movq	%rdi, outer_function_chain(%rip)
	movq	$0, 344(%rdi)
	movq	save_lang_status(%rip), %rax
	testq	%rax, %rax
	je	.LBB3_6
# BB#5:                                 # %if.then11.i
	callq	*%rax
.LBB3_6:                                # %push_function_context_to.exit
	movq	$0, cfun(%rip)
	popq	%rax
	retq
.Ltmp9:
	.size	push_function_context, .Ltmp9-push_function_context
	.cfi_endproc

	.globl	pop_function_context_from
	.align	16, 0x90
	.type	pop_function_context_from,@function
pop_function_context_from:              # @pop_function_context_from
	.cfi_startproc
# BB#0:                                 # %entry
	pushq	%r15
.Ltmp14:
	.cfi_def_cfa_offset 16
	pushq	%r14
.Ltmp15:
	.cfi_def_cfa_offset 24
	pushq	%rbx
.Ltmp16:
	.cfi_def_cfa_offset 32
.Ltmp17:
	.cfi_offset %rbx, -32
.Ltmp18:
	.cfi_offset %r14, -24
.Ltmp19:
	.cfi_offset %r15, -16
	movq	outer_function_chain(%rip), %r14
	movq	%r14, cfun(%rip)
	movq	56(%r14), %rax
	movq	%rax, outer_function_chain(%rip)
	movq	48(%r14), %rax
	movq	%rax, current_function_decl(%rip)
	movq	$0, reg_renumber(%rip)
	movq	%r14, %rdi
	callq	restore_emit_status
	movq	restore_lang_status(%rip), %rax
	testq	%rax, %rax
	je	.LBB4_2
# BB#1:                                 # %if.then
	movq	%r14, %rdi
	callq	*%rax
.LBB4_2:                                # %if.end
	movq	344(%r14), %rbx
	testq	%rbx, %rbx
	je	.LBB4_9
# BB#3:                                 # %if.else
	cmpq	$0, 16(%rbx)
	je	.LBB4_10
# BB#4:
	xorq	%r15, %r15
	.align	16, 0x90
.LBB4_5:                                # %for.body
                                        # =>This Inner Loop Header: Depth=1
	movq	(%rbx), %rdx
	movq	$3, %rdi
	xorq	%rsi, %rsi
	movq	%r15, %rcx
	callq	gen_rtx_fmt_ee
	movq	16(%rbx), %rbx
	movq	%rax, %r15
	testq	%rbx, %rbx
	jne	.LBB4_5
# BB#6:                                 # %for.cond16.preheader
	movq	344(%r14), %rbx
	jmp	.LBB4_8
	.align	16, 0x90
.LBB4_7:                                # %for.body18
                                        #   in Loop: Header=BB4_8 Depth=1
	movq	(%rbx), %rdi
	movl	12(%rbx), %edx
	movl	8(%rbx), %esi
	xorq	%r8, %r8
	movq	%r15, %rcx
	callq	fixup_var_refs
	movq	16(%rbx), %rbx
.LBB4_8:                                # %for.body18
                                        # =>This Inner Loop Header: Depth=1
	testq	%rbx, %rbx
	jne	.LBB4_7
	jmp	.LBB4_9
.LBB4_10:                               # %if.then4
	movq	(%rbx), %rdi
	movl	12(%rbx), %edx
	movl	8(%rbx), %esi
	xorq	%r8, %r8
	movq	%rdi, %rcx
	callq	fixup_var_refs
.LBB4_9:                                # %if.end26
	movq	$0, 344(%r14)
	movq	$1, %rax
	movl	%eax, rtx_equal_function_value_matters(%rip)
	xorq	%rcx, %rcx
	movl	%ecx, virtuals_instantiated(%rip)
	movl	%eax, generating_concat_p(%rip)
	popq	%rbx
	popq	%r14
	popq	%r15
	retq
.Ltmp20:
	.size	pop_function_context_from, .Ltmp20-pop_function_context_from
	.cfi_endproc

	.align	16, 0x90
	.type	fixup_var_refs,@function
fixup_var_refs:                         # @fixup_var_refs
	.cfi_startproc
# BB#0:                                 # %entry
	pushq	%r15
.Ltmp27:
	.cfi_def_cfa_offset 16
	pushq	%r14
.Ltmp28:
	.cfi_def_cfa_offset 24
	pushq	%r13
.Ltmp29:
	.cfi_def_cfa_offset 32
	pushq	%r12
.Ltmp30:
	.cfi_def_cfa_offset 40
	pushq	%rbx
.Ltmp31:
	.cfi_def_cfa_offset 48
	subq	$16, %rsp
.Ltmp32:
	.cfi_def_cfa_offset 64
.Ltmp33:
	.cfi_offset %rbx, -48
.Ltmp34:
	.cfi_offset %r12, -40
.Ltmp35:
	.cfi_offset %r13, -32
.Ltmp36:
	.cfi_offset %r14, -24
.Ltmp37:
	.cfi_offset %r15, -16
	movq	%r8, %r14
	movq	%rcx, 8(%rsp)           # 8-byte Spill
	movq	%rdx, %r15
	movq	%rsi, %r12
	movq	%rdi, %r13
	callq	get_insns
	movq	cfun(%rip), %rcx
	movq	24(%rcx), %rdx
	movq	32(%rdx), %rbx
	testq	%r14, %r14
	je	.LBB5_8
# BB#1:                                 # %if.then
	testq	%rbx, %rbx
	jne	.LBB5_21
# BB#2:                                 # %if.end
	xorq	%rdx, %rdx
	xorq	%rcx, %rcx
	movq	%r14, %rdi
	movq	%r13, %rsi
	callq	hash_lookup
	movq	24(%rax), %rbx
	jmp	.LBB5_3
	.align	16, 0x90
.LBB5_6:                                # %for.inc.i
                                        #   in Loop: Header=BB5_3 Depth=1
	movq	16(%rbx), %rbx
.LBB5_3:                                # %if.end
                                        # =>This Inner Loop Header: Depth=1
	testq	%rbx, %rbx
	je	.LBB5_7
# BB#4:                                 # %for.body.i
                                        #   in Loop: Header=BB5_3 Depth=1
	movq	8(%rbx), %rdi
	movzbl	(%rdi), %eax
	movzbl	rtx_class(%rax), %eax
	cmpq	$105, %rax
	jne	.LBB5_6
# BB#5:                                 # %if.then.i
                                        #   in Loop: Header=BB5_3 Depth=1
	movq	$1, %r8
	movq	%r13, %rsi
	movq	%r12, %rdx
	movq	%r15, %rcx
	movq	8(%rsp), %r9            # 8-byte Reload
	callq	fixup_var_refs_insn
	jmp	.LBB5_6
.LBB5_8:                                # %if.end2
	movq	224(%rcx), %r14
	testq	%rbx, %rbx
	jne	.LBB5_9
# BB#10:                                # %if.end2
	movabsq	$1, %r8
	jmp	.LBB5_11
.LBB5_9:
	movabsq	$0, %r8
.LBB5_11:                               # %if.end2
	movq	%rax, %rdi
	movq	%r13, %rsi
	movq	%r12, %rdx
	movq	%r15, %rcx
	movq	8(%rsp), %r9            # 8-byte Reload
	callq	fixup_var_refs_insns
	jmp	.LBB5_12
	.align	16, 0x90
.LBB5_20:                               # %for.body
                                        #   in Loop: Header=BB5_12 Depth=1
	movq	%r13, %rsi
	movq	%r12, %rdx
	movq	%r15, %rcx
	movq	8(%rsp), %r9            # 8-byte Reload
	callq	fixup_var_refs_insns
	callq	get_last_insn
	movq	%rax, 8(%rbx)
	callq	end_sequence
	movq	24(%rbx), %rbx
.LBB5_12:                               # %if.end2
                                        # =>This Inner Loop Header: Depth=1
	testq	%rbx, %rbx
	je	.LBB5_13
# BB#18:                                # %for.body
                                        #   in Loop: Header=BB5_12 Depth=1
	movq	(%rbx), %rdi
	movq	8(%rbx), %rsi
	callq	push_to_full_sequence
	movq	(%rbx), %rdi
	cmpq	$0, 24(%rbx)
	movabsq	$0, %r8
	je	.LBB5_20
# BB#19:                                # %for.body
                                        #   in Loop: Header=BB5_12 Depth=1
	movabsq	$1, %r8
	jmp	.LBB5_20
	.align	16, 0x90
.LBB5_17:                               # %for.inc20
                                        #   in Loop: Header=BB5_13 Depth=1
	movq	(%r14), %r14
.LBB5_13:                               # %for.cond11.preheader
                                        # =>This Inner Loop Header: Depth=1
	testq	%r14, %r14
	je	.LBB5_7
# BB#14:                                # %for.body13
                                        #   in Loop: Header=BB5_13 Depth=1
	movq	32(%r14), %rax
	movq	32(%rax), %rbx
	movq	const_int_rtx+512(%rip), %rax
	cmpq	%rax, %rbx
	je	.LBB5_17
# BB#15:                                # %for.body13
                                        #   in Loop: Header=BB5_13 Depth=1
	testq	%rbx, %rbx
	je	.LBB5_17
# BB#16:                                # %if.then18
                                        #   in Loop: Header=BB5_13 Depth=1
	movq	%rbx, %rdi
	callq	push_to_sequence
	xorq	%r8, %r8
	movq	%rbx, %rdi
	movq	%r13, %rsi
	movq	%r12, %rdx
	movq	%r15, %rcx
	movq	8(%rsp), %r9            # 8-byte Reload
	callq	fixup_var_refs_insns
	callq	end_sequence
	jmp	.LBB5_17
.LBB5_7:                                # %for.end21
	addq	$16, %rsp
	popq	%rbx
	popq	%r12
	popq	%r13
	popq	%r14
	popq	%r15
	retq
.LBB5_21:                               # %if.then1
	movabsq	$.L.str, %rax
	movabsq	$.L__FUNCTION__.fixup_var_refs, %rcx
	movq	$1593, %rsi             # imm = 0x639
	movq	%rax, %rdi
	movq	%rcx, %rdx
	callq	fancy_abort
.Ltmp38:
	.size	fixup_var_refs, .Ltmp38-fixup_var_refs
	.cfi_endproc

	.globl	pop_function_context
	.align	16, 0x90
	.type	pop_function_context,@function
pop_function_context:                   # @pop_function_context
	.cfi_startproc
# BB#0:                                 # %entry
	jmp	pop_function_context_from  # TAILCALL
.Ltmp39:
	.size	pop_function_context, .Ltmp39-pop_function_context
	.cfi_endproc

	.globl	free_after_parsing
	.align	16, 0x90
	.type	free_after_parsing,@function
free_after_parsing:                     # @free_after_parsing
	.cfi_startproc
# BB#0:                                 # %entry
	pushq	%rbx
.Ltmp42:
	.cfi_def_cfa_offset 16
.Ltmp43:
	.cfi_offset %rbx, -16
	movq	free_lang_status(%rip), %rax
	movq	%rdi, %rbx
	testq	%rax, %rax
	je	.LBB7_2
# BB#1:                                 # %if.then
	movq	%rbx, %rdi
	callq	*%rax
.LBB7_2:                                # %if.end
	movq	%rbx, %rdi
	popq	%rbx
	jmp	free_stmt_status  # TAILCALL
.Ltmp44:
	.size	free_after_parsing, .Ltmp44-free_after_parsing
	.cfi_endproc

	.globl	free_after_compilation
	.align	16, 0x90
	.type	free_after_compilation,@function
free_after_compilation:                 # @free_after_compilation
	.cfi_startproc
# BB#0:                                 # %entry
	pushq	%r14
.Ltmp48:
	.cfi_def_cfa_offset 16
	pushq	%rbx
.Ltmp49:
	.cfi_def_cfa_offset 24
	pushq	%rax
.Ltmp50:
	.cfi_def_cfa_offset 32
.Ltmp51:
	.cfi_offset %rbx, -24
.Ltmp52:
	.cfi_offset %r14, -16
	movq	%rdi, %rbx
                                        # kill: RDI<def> RBX<kill>
	callq	free_eh_status
	movq	%rbx, %rdi
	callq	free_expr_status
	movq	%rbx, %rdi
	callq	free_emit_status
	movq	%rbx, %rdi
	callq	free_varasm_status
	movq	free_machine_status(%rip), %rax
	testq	%rax, %rax
	je	.LBB8_2
# BB#1:                                 # %if.then
	movq	%rbx, %rdi
	callq	*%rax
.LBB8_2:                                # %if.end
	movq	312(%rbx), %rdi
	leaq	312(%rbx), %r14
	testq	%rdi, %rdi
	je	.LBB8_4
# BB#3:                                 # %if.then2
	callq	free
.LBB8_4:                                # %if.end4
	movq	$0, 80(%rbx)
	movq	$0, 344(%rbx)
	movq	$0, 416(%rbx)
	movq	$0, 128(%rbx)
	movq	$0, 120(%rbx)
	movq	$0, 256(%rbx)
	movq	$0, 248(%rbx)
	movq	$0, 240(%rbx)
	movq	$0, 232(%rbx)
	movq	$0, 224(%rbx)
	movq	$0, 216(%rbx)
	movq	$0, 208(%rbx)
	movq	$0, 200(%rbx)
	movq	$0, 192(%rbx)
	movq	$0, 184(%rbx)
	movq	$0, 176(%rbx)
	movq	$0, 168(%rbx)
	movq	$0, 160(%rbx)
	movq	$0, 296(%rbx)
	movq	$0, 288(%rbx)
	movq	$0, 280(%rbx)
	movq	$0, 272(%rbx)
	movq	$0, 8(%r14)
	movq	$0, (%r14)
	movq	$0, 376(%rbx)
	movq	$0, 368(%rbx)
	movq	$0, 360(%rbx)
	addq	$8, %rsp
	popq	%rbx
	popq	%r14
	retq
.Ltmp53:
	.size	free_after_compilation, .Ltmp53-free_after_compilation
	.cfi_endproc

	.globl	get_func_frame_size
	.align	16, 0x90
	.type	get_func_frame_size,@function
get_func_frame_size:                    # @get_func_frame_size
	.cfi_startproc
# BB#0:                                 # %entry
	movq	264(%rdi), %rax
	negq	%rax
	retq
.Ltmp54:
	.size	get_func_frame_size, .Ltmp54-get_func_frame_size
	.cfi_endproc

	.globl	get_frame_size
	.align	16, 0x90
	.type	get_frame_size,@function
get_frame_size:                         # @get_frame_size
	.cfi_startproc
# BB#0:                                 # %entry
	movq	cfun(%rip), %rax
	movq	264(%rax), %rax
	negq	%rax
	retq
.Ltmp55:
	.size	get_frame_size, .Ltmp55-get_frame_size
	.cfi_endproc

	.globl	assign_stack_local
	.align	16, 0x90
	.type	assign_stack_local,@function
assign_stack_local:                     # @assign_stack_local
	.cfi_startproc
# BB#0:                                 # %entry
	movq	cfun(%rip), %rcx
	jmp	assign_stack_local_1  # TAILCALL
.Ltmp56:
	.size	assign_stack_local, .Ltmp56-assign_stack_local
	.cfi_endproc

	.align	16, 0x90
	.type	assign_stack_local_1,@function
assign_stack_local_1:                   # @assign_stack_local_1
	.cfi_startproc
# BB#0:                                 # %entry
	pushq	%r15
.Ltmp63:
	.cfi_def_cfa_offset 16
	pushq	%r14
.Ltmp64:
	.cfi_def_cfa_offset 24
	pushq	%r13
.Ltmp65:
	.cfi_def_cfa_offset 32
	pushq	%r12
.Ltmp66:
	.cfi_def_cfa_offset 40
	pushq	%rbx
.Ltmp67:
	.cfi_def_cfa_offset 48
.Ltmp68:
	.cfi_offset %rbx, -48
.Ltmp69:
	.cfi_offset %r12, -40
.Ltmp70:
	.cfi_offset %r13, -32
.Ltmp71:
	.cfi_offset %r14, -24
.Ltmp72:
	.cfi_offset %r15, -16
	movq	%rcx, %r13
	movq	%rsi, %r15
	movq	%rdi, %r14
	movabsq	$4294967295, %r8        # imm = 0xFFFFFFFF
	movq	%rdx, %rax
	andq	%r8, %rax
	cmpq	%r8, %rax
	jne	.LBB12_1
# BB#7:                                 # %if.then9
	addq	$15, %r15
	andq	$-16, %r15
	movq	$16, %rbx
	jmp	.LBB12_9
.LBB12_1:                               # %entry
	testq	%r8, %rdx
	jne	.LBB12_8
# BB#2:                                 # %if.then
	movq	%r14, %rax
	andq	%r8, %rax
	movq	$128, %r12
	cmpq	$51, %rax
	je	.LBB12_4
# BB#3:                                 # %if.else
	movq	%r14, %rdi
	callq	get_mode_alignment
	movq	%rax, %r12
.LBB12_4:                               # %if.end
	xorq	%rsi, %rsi
	movq	%r14, %rdi
	callq	type_for_mode
	testq	%rax, %rax
	je	.LBB12_6
# BB#5:                                 # %if.then4
	movq	%rax, %rdi
	movq	%r12, %rsi
	callq	ix86_local_alignment
	movq	%rax, %r12
.LBB12_6:                               # %if.end6
	movq	$32, %rcx
	movq	%r12, %rbx
	shlq	%cl, %rbx
	movq	$32, %rcx
	sarq	%cl, %rbx
	movq	$60, %rcx
	shrq	%cl, %rbx
	andq	$7, %rbx
	addq	%r12, %rbx
	movq	$32, %rcx
	shlq	%cl, %rbx
	movq	$35, %rcx
	sarq	%cl, %rbx
	movabsq	$4294967295, %r8        # imm = 0xFFFFFFFF
	jmp	.LBB12_9
.LBB12_8:                               # %if.else12
	movq	$32, %rcx
	movq	%rdx, %rbx
	shlq	%cl, %rbx
	movq	$32, %rcx
	sarq	%cl, %rbx
	movq	$60, %rcx
	shrq	%cl, %rbx
	andq	$7, %rbx
	addq	%rdx, %rbx
	movq	$32, %rcx
	shlq	%cl, %rbx
	movq	$35, %rcx
	sarq	%cl, %rbx
.LBB12_9:                               # %if.end15
	movq	264(%r13), %rsi
	subq	%r15, %rsi
	movq	%rsi, 264(%r13)
	movq	$35, %rcx
	movq	%rbx, %rdi
	movslq	ix86_preferred_stack_boundary(%rip), %rdx
	shlq	%cl, %rdi
	movq	$32, %rcx
	sarq	%cl, %rdi
	cmpq	%rdx, %rdi
	jle	.LBB12_11
# BB#10:                                # %if.then19
	movq	$60, %rcx
	movq	%rdx, %rbx
	shrq	%cl, %rbx
	andq	$7, %rbx
	addq	%rdx, %rbx
	movq	$32, %rcx
	shlq	%cl, %rbx
	movq	$35, %rcx
	sarq	%cl, %rbx
.LBB12_11:                              # %if.end21
	movslq	400(%r13), %rdi
	movq	$3, %rcx
	movq	%rbx, %rdx
	shlq	%cl, %rdx
	movq	$35, %rcx
	movq	%rbx, %rax
	shlq	%cl, %rax
	movq	$32, %rcx
	sarq	%cl, %rax
	cmpq	%rax, %rdi
	jge	.LBB12_13
# BB#12:                                # %if.then25
	movl	%edx, 400(%r13)
.LBB12_13:                              # %cond.end
	negq	%rbx
	movq	$32, %rcx
	shlq	%cl, %rbx
	movq	$32, %rcx
	sarq	%cl, %rbx
	andq	%rbx, %rsi
	movq	%rsi, 264(%r13)
	movq	cfun(%rip), %rax
	cmpq	%r13, %rax
	jne	.LBB12_16
# BB#14:                                # %cond.end
	movl	virtuals_instantiated(%rip), %eax
	testq	%r8, %rax
	je	.LBB12_16
# BB#15:                                # %if.then45
	movq	global_rtl+24(%rip), %rdi
	jmp	.LBB12_17
.LBB12_16:                              # %if.else51
	movq	global_rtl+56(%rip), %rdi
.LBB12_17:                              # %if.end56
	callq	plus_constant_wide
	movq	%r14, %rdi
	movq	%rax, %rsi
	callq	gen_rtx_MEM
	movq	216(%r13), %rcx
	movq	%rax, %rbx
	movq	$3, %rdi
	xorq	%rsi, %rsi
	movq	%rbx, %rdx
	callq	gen_rtx_fmt_ee
	movq	%rax, 216(%r13)
	movq	%rbx, %rax
	popq	%rbx
	popq	%r12
	popq	%r13
	popq	%r14
	popq	%r15
	retq
.Ltmp73:
	.size	assign_stack_local_1, .Ltmp73-assign_stack_local_1
	.cfi_endproc

	.globl	assign_stack_temp_for_type
	.align	16, 0x90
	.type	assign_stack_temp_for_type,@function
assign_stack_temp_for_type:             # @assign_stack_temp_for_type
	.cfi_startproc
# BB#0:                                 # %entry
	pushq	%r15
.Ltmp80:
	.cfi_def_cfa_offset 16
	pushq	%r14
.Ltmp81:
	.cfi_def_cfa_offset 24
	pushq	%r13
.Ltmp82:
	.cfi_def_cfa_offset 32
	pushq	%r12
.Ltmp83:
	.cfi_def_cfa_offset 40
	pushq	%rbx
.Ltmp84:
	.cfi_def_cfa_offset 48
	subq	$48, %rsp
.Ltmp85:
	.cfi_def_cfa_offset 96
.Ltmp86:
	.cfi_offset %rbx, -48
.Ltmp87:
	.cfi_offset %r12, -40
.Ltmp88:
	.cfi_offset %r13, -32
.Ltmp89:
	.cfi_offset %r14, -24
.Ltmp90:
	.cfi_offset %r15, -16
	movq	%rsi, %r12
	movq	%rdi, %rbx
	cmpq	$-1, %r12
	je	.LBB13_1
# BB#3:                                 # %if.end
	movq	%rdx, 8(%rsp)           # 8-byte Spill
	movabsq	$4294967295, %rax       # imm = 0xFFFFFFFF
	movq	%rbx, %rdx
	andq	%rax, %rdx
	movq	%rdx, 24(%rsp)          # 8-byte Spill
	movq	$128, %r15
	cmpq	$51, %rdx
	je	.LBB13_5
# BB#4:                                 # %if.else
	movq	%rbx, %rdi
	movq	%rcx, %r14
	callq	get_mode_alignment
	movq	%r14, %rcx
	movq	%rax, %r15
.LBB13_5:                               # %if.end3
	testq	%rcx, %rcx
	jne	.LBB13_8
# BB#6:                                 # %if.end6
	xorq	%rsi, %rsi
	xorq	%r13, %r13
	movq	%rbx, %rdi
	callq	type_for_mode
	movq	%rax, %rcx
	testq	%rcx, %rcx
	je	.LBB13_7
.LBB13_8:                               # %if.then8
	movq	%rbx, 16(%rsp)          # 8-byte Spill
	movq	%rcx, %rdi
	movq	%rcx, %r14
	movq	%r15, %rsi
	callq	ix86_local_alignment
	movq	%rax, 40(%rsp)          # 8-byte Spill
	movq	$1, %r13
.LBB13_9:                               # %if.end10
	movq	%r13, (%rsp)            # 8-byte Spill
	movq	cfun(%rip), %rax
	movq	320(%rax), %rbx
	testq	%rbx, %rbx
	movq	%r14, %rcx
	je	.LBB13_30
# BB#10:
	movq	%rcx, 32(%rsp)          # 8-byte Spill
	xorq	%r13, %r13
	movq	40(%rsp), %r15          # 8-byte Reload
	movabsq	$4294967295, %rax       # imm = 0xFFFFFFFF
	andq	%rax, %r15
	movq	24(%rsp), %rdx          # 8-byte Reload
	.align	16, 0x90
.LBB13_11:                              # %for.body
                                        # =>This Inner Loop Header: Depth=1
	movl	24(%rbx), %eax
	cmpq	%r15, %rax
	jb	.LBB13_17
# BB#12:                                # %land.lhs.true
                                        #   in Loop: Header=BB13_11 Depth=1
	movq	32(%rbx), %rax
	cmpq	%r12, %rax
	jl	.LBB13_17
# BB#13:                                # %land.lhs.true16
                                        #   in Loop: Header=BB13_11 Depth=1
	movq	8(%rbx), %rax
	movzbl	2(%rax), %eax
	cmpq	%rdx, %rax
	jne	.LBB13_17
# BB#14:                                # %land.lhs.true19
                                        #   in Loop: Header=BB13_11 Depth=1
	movzbl	56(%rbx), %eax
	testq	%rax, %rax
	jne	.LBB13_17
# BB#15:                                # %land.lhs.true21
                                        #   in Loop: Header=BB13_11 Depth=1
	movq	%rdx, %r14
	movq	40(%rbx), %rdi
	movq	32(%rsp), %rsi          # 8-byte Reload
	callq	objects_must_conflict_p
	movabsq	$4294967295, %rcx       # imm = 0xFFFFFFFF
	testq	%rcx, %rax
	jne	.LBB13_22
# BB#16:                                #   in Loop: Header=BB13_11 Depth=1
	movq	%r14, %rdx
	jmp	.LBB13_17
.LBB13_22:                              # %land.lhs.true25
                                        #   in Loop: Header=BB13_11 Depth=1
	testq	%r13, %r13
	movq	%r14, %rdx
	je	.LBB13_26
# BB#23:                                # %lor.lhs.false
                                        #   in Loop: Header=BB13_11 Depth=1
	movq	32(%r13), %rax
	movq	32(%rbx), %rcx
	cmpq	%rcx, %rax
	jg	.LBB13_26
# BB#24:                                # %lor.lhs.false30
                                        #   in Loop: Header=BB13_11 Depth=1
	jne	.LBB13_17
# BB#25:                                # %land.lhs.true34
                                        #   in Loop: Header=BB13_11 Depth=1
	movl	24(%r13), %eax
	movl	24(%rbx), %ecx
	cmpq	%rcx, %rax
	jbe	.LBB13_17
.LBB13_26:                              # %if.then38
                                        #   in Loop: Header=BB13_11 Depth=1
	movl	24(%rbx), %eax
	cmpq	%r15, %rax
	movq	%rbx, %r13
	jne	.LBB13_17
# BB#27:                                # %land.lhs.true41
                                        #   in Loop: Header=BB13_11 Depth=1
	movq	32(%rbx), %rax
	cmpq	%r12, %rax
	movq	%rbx, %r13
	je	.LBB13_28
	.align	16, 0x90
.LBB13_17:                              # %for.inc
                                        #   in Loop: Header=BB13_11 Depth=1
	movq	(%rbx), %rbx
	testq	%rbx, %rbx
	jne	.LBB13_11
# BB#18:                                # %for.end
	movq	%rdx, 24(%rsp)          # 8-byte Spill
	testq	%r13, %r13
	movq	32(%rsp), %rcx          # 8-byte Reload
	je	.LBB13_30
# BB#19:                                # %if.then48
	movq	8(%r13), %rax
	movl	(%rax), %eax
	andq	$16711680, %rax         # imm = 0xFF0000
	cmpq	$3342336, %rax          # imm = 0x330000
	jne	.LBB13_38
# BB#20:                                # %if.then54
	movl	24(%r13), %eax
	movq	$3, %rcx
	shrq	%cl, %rax
	movq	32(%r13), %rcx
	leaq	-1(%r12,%rax), %rdx
	movq	%rax, %r15
	negq	%r15
	andq	%rdx, %r15
	subq	%r15, %rcx
	cmpq	%rax, %rcx
	jge	.LBB13_50
# BB#21:
	movq	%r13, %rbx
.LBB13_29:                              # %if.end91
	movq	32(%rsp), %rcx          # 8-byte Reload
	testq	%rbx, %rbx
	movq	%rbx, %r13
	jne	.LBB13_38
.LBB13_30:                              # %if.then94
	movq	%rcx, 32(%rsp)          # 8-byte Spill
	movq	cfun(%rip), %rax
	movq	264(%rax), %r15
	movq	$88, %rdi
	callq	ggc_alloc
	movq	%rax, %r13
	movq	24(%rsp), %rdx          # 8-byte Reload
	cmpq	$51, %rdx
	jne	.LBB13_33
# BB#31:                                # %if.then94
	movq	40(%rsp), %rax          # 8-byte Reload
	movabsq	$4294967295, %rcx       # imm = 0xFFFFFFFF
	andq	%rcx, %rax
	cmpq	$127, %rax
	jbe	.LBB13_32
.LBB13_33:                              # %if.end102
	cmpq	$51, %rdx
	jne	.LBB13_34
# BB#35:                                # %cond.true
	movabsq	$4294967288, %rax       # imm = 0xFFFFFFF8
	movq	40(%rsp), %rbx          # 8-byte Reload
	andq	%rbx, %rax
	movq	$3, %rcx
	shrq	%cl, %rax
	addq	%rax, %r12
	movabsq	$4294967295, %rcx       # imm = 0xFFFFFFFF
	addq	%rcx, %r12
	negq	%rax
	andq	%r12, %rax
	andq	%rcx, %rax
	movq	%rax, %r12
	jmp	.LBB13_36
.LBB13_34:
	movq	40(%rsp), %rbx          # 8-byte Reload
.LBB13_36:                              # %cond.end
	movq	%rbx, 40(%rsp)          # 8-byte Spill
	movq	cfun(%rip), %rcx
	movq	16(%rsp), %rdi          # 8-byte Reload
	movq	%r12, %rsi
	movq	%rbx, %rdx
	callq	assign_stack_local_1
	movq	%rax, 8(%r13)
	movl	%ebx, 24(%r13)
	movq	cfun(%rip), %rax
	movq	264(%rax), %rax
	subq	%rax, %r15
	movq	%r15, 32(%r13)
	movq	%rax, 72(%r13)
	movq	%r15, 80(%r13)
	movq	$0, 16(%r13)
	movq	cfun(%rip), %rax
	movq	320(%rax), %rax
	movq	%rax, (%r13)
	movq	cfun(%rip), %rax
	movq	%r13, 320(%rax)
.LBB13_37:                              # %if.end129
	movq	32(%rsp), %rcx          # 8-byte Reload
.LBB13_38:                              # %if.end129
	movq	$1, %rax
	movw	%ax, 56(%r13)
	movq	cfun(%rip), %rax
	movq	24(%rax), %rax
	movq	24(%rax), %rax
	movq	%rax, 48(%r13)
	movq	%rcx, 40(%r13)
	movq	%rcx, %r14
	movq	8(%rsp), %rdx           # 8-byte Reload
	movq	%rdx, %rax
	movabsq	$4294967295, %rcx       # imm = 0xFFFFFFFF
	andq	%rcx, %rax
	cmpq	$2, %rax
	jne	.LBB13_40
# BB#39:                                # %if.then136
	movq	cfun(%rip), %rax
	movl	336(%rax), %eax
	jmp	.LBB13_42
.LBB13_40:                              # %if.else138
	movq	cfun(%rip), %rcx
	cmpq	$3, %rax
	jne	.LBB13_43
# BB#41:                                # %if.then141
	movl	332(%rcx), %eax
.LBB13_42:                              # %if.end148
	movl	%eax, 60(%r13)
	xorq	%rax, %rax
	movl	%eax, 64(%r13)
	jmp	.LBB13_44
.LBB13_43:                              # %if.else144
	movl	328(%rcx), %eax
	movl	%eax, 60(%r13)
	movl	%edx, 64(%r13)
.LBB13_44:                              # %if.end148
	movq	16(%rsp), %rdi          # 8-byte Reload
	movq	8(%r13), %rax
	movq	8(%rax), %rsi
	callq	gen_rtx_MEM
	movq	cfun(%rip), %rcx
	movq	216(%rcx), %rcx
	movq	%rax, %rbx
	movq	$3, %rdi
	xorq	%rsi, %rsi
	movq	%rbx, %rdx
	callq	gen_rtx_fmt_ee
	movq	cfun(%rip), %rcx
	movq	%rax, 216(%rcx)
	cmpq	$0, (%rsp)              # 8-byte Folded Reload
	je	.LBB13_48
# BB#45:                                # %cond.true158
	movq	%r14, %rdi
	callq	get_alias_set
	movq	%rbx, %rdi
	movq	%rax, %rsi
	callq	set_mem_alias_set
	movq	%rbx, %rdi
	movq	40(%rsp), %rsi          # 8-byte Reload
	callq	set_mem_align
	movl	16(%r14), %edx
	movl	(%rbx), %eax
	movq	$14, %rcx
	shlq	%cl, %rdx
	andq	$67108864, %rdx         # imm = 0x4000000
	andq	$-67108865, %rax        # imm = 0xFFFFFFFFFBFFFFFF
	orq	%rdx, %rax
	movl	%eax, (%rbx)
	movl	16(%r14), %edx
	movq	$16, %rcx
	shlq	%cl, %rdx
	andq	$134217728, %rdx        # imm = 0x8000000
	andq	$-134217729, %rax       # imm = 0xFFFFFFFFF7FFFFFF
	orq	%rdx, %rax
	movl	%eax, (%rbx)
	movzbl	16(%r14), %ecx
	addq	$-18, %rcx
	movabsq	$4294967295, %rdx       # imm = 0xFFFFFFFF
	andq	%rdx, %rcx
	andq	$1879048191, %rax       # imm = 0x6FFFFFFF
	cmpq	$4, %rcx
	ja	.LBB13_47
# BB#46:                                # %if.then213
	orq	$268435456, %rax        # imm = 0x10000000
	movl	%eax, (%rbx)
	jmp	.LBB13_49
.LBB13_48:                              # %if.end226.critedge
	xorq	%rsi, %rsi
	movq	%rbx, %rdi
	callq	set_mem_alias_set
	movq	%rbx, %rdi
	movq	40(%rsp), %rsi          # 8-byte Reload
	callq	set_mem_align
	jmp	.LBB13_49
.LBB13_47:                              # %if.else219
	movabsq	$2147483648, %rcx       # imm = 0x80000000
	orq	%rcx, %rax
	movl	%eax, (%rbx)
.LBB13_49:                              # %if.end226
	movq	%rbx, %rax
	addq	$48, %rsp
	popq	%rbx
	popq	%r12
	popq	%r13
	popq	%r14
	popq	%r15
	retq
.LBB13_7:
	movq	%rbx, 16(%rsp)          # 8-byte Spill
	movq	%r15, 40(%rsp)          # 8-byte Spill
	xorq	%r14, %r14
	jmp	.LBB13_9
.LBB13_50:                              # %if.then63
	movq	$88, %rdi
	callq	ggc_alloc
	movq	%rax, %r12
	xorq	%rax, %rax
	movw	%ax, 56(%r12)
	movq	32(%r13), %rax
	subq	%r15, %rax
	movq	%rax, 32(%r12)
	movq	72(%r13), %rax
	addq	%r15, %rax
	movq	%rax, 72(%r12)
	movq	80(%r13), %rax
	subq	%r15, %rax
	movq	%rax, 80(%r12)
	movq	8(%r13), %rax
	movq	8(%rax), %rdi
	movq	%r15, %rsi
	callq	plus_constant_wide
	movq	$51, %rdi
	movq	%rax, %rsi
	callq	gen_rtx_MEM
	movq	%rax, 8(%r12)
	movl	24(%r13), %ecx
	movl	%ecx, 24(%r12)
	movq	$0, 16(%r12)
	movq	$0, 48(%r12)
	movq	40(%r13), %rcx
	movq	%rcx, 40(%r12)
	movq	cfun(%rip), %rcx
	movq	320(%rcx), %rcx
	movq	%rcx, (%r12)
	movq	cfun(%rip), %rcx
	movq	%r12, 320(%rcx)
	movq	cfun(%rip), %rcx
	movq	216(%rcx), %rcx
	movq	$3, %rdi
	xorq	%rsi, %rsi
	movq	%rax, %rdx
	callq	gen_rtx_fmt_ee
	movq	cfun(%rip), %rcx
	movq	%rax, 216(%rcx)
	movq	%r15, 32(%r13)
	movq	%r15, 80(%r13)
	jmp	.LBB13_37
.LBB13_28:
	movq	%rdx, 24(%rsp)          # 8-byte Spill
	jmp	.LBB13_29
.LBB13_1:                               # %if.then
	movabsq	$.L.str, %rax
	movabsq	$.L__FUNCTION__.assign_stack_temp_for_type, %rcx
	movq	$674, %rsi              # imm = 0x2A2
	jmp	.LBB13_2
.LBB13_32:                              # %if.then101
	movabsq	$.L.str, %rax
	movabsq	$.L__FUNCTION__.assign_stack_temp_for_type, %rcx
	movq	$759, %rsi              # imm = 0x2F7
.LBB13_2:                               # %if.then
	movq	%rax, %rdi
	movq	%rcx, %rdx
	callq	fancy_abort
.Ltmp91:
	.size	assign_stack_temp_for_type, .Ltmp91-assign_stack_temp_for_type
	.cfi_endproc

	.globl	assign_stack_temp
	.align	16, 0x90
	.type	assign_stack_temp,@function
assign_stack_temp:                      # @assign_stack_temp
	.cfi_startproc
# BB#0:                                 # %entry
	xorq	%rcx, %rcx
	jmp	assign_stack_temp_for_type  # TAILCALL
.Ltmp92:
	.size	assign_stack_temp, .Ltmp92-assign_stack_temp
	.cfi_endproc

	.globl	assign_temp
	.align	16, 0x90
	.type	assign_temp,@function
assign_temp:                            # @assign_temp
	.cfi_startproc
# BB#0:                                 # %entry
	pushq	%r15
.Ltmp99:
	.cfi_def_cfa_offset 16
	pushq	%r14
.Ltmp100:
	.cfi_def_cfa_offset 24
	pushq	%r13
.Ltmp101:
	.cfi_def_cfa_offset 32
	pushq	%r12
.Ltmp102:
	.cfi_def_cfa_offset 40
	pushq	%rbx
.Ltmp103:
	.cfi_def_cfa_offset 48
	subq	$16, %rsp
.Ltmp104:
	.cfi_def_cfa_offset 64
.Ltmp105:
	.cfi_offset %rbx, -48
.Ltmp106:
	.cfi_offset %r12, -40
.Ltmp107:
	.cfi_offset %r13, -32
.Ltmp108:
	.cfi_offset %r14, -24
.Ltmp109:
	.cfi_offset %r15, -16
	movq	%rdi, %r12
	movl	16(%r12), %edi
	movq	%rdi, %rax
	andq	$255, %rax
	movzbl	tree_code_type(%rax), %ebx
	movq	%rcx, %rax
	movq	%rsi, %r15
	cmpq	$100, %rbx
	jne	.LBB15_1
# BB#2:                                 # %if.then
	movq	8(%r12), %r14
	movl	16(%r14), %edi
	jmp	.LBB15_3
.LBB15_1:
	movq	%r12, %r14
	xorq	%r12, %r12
.LBB15_3:                               # %if.end
	movl	60(%r14), %ebx
	movq	$9, %rcx
	shrq	%cl, %rbx
	andq	$127, %rbx
	movq	$13, %rcx
	shrq	%cl, %rdi
	andq	$1, %rdi
	cmpq	$51, %rbx
	movl	%edi, 12(%rsp)
	je	.LBB15_5
# BB#4:                                 # %if.end
	movabsq	$4294967295, %rcx       # imm = 0xFFFFFFFF
	testq	%rcx, %rdx
	jne	.LBB15_5
# BB#17:                                # %if.end56
	testq	%rcx, %rax
	jne	.LBB15_19
# BB#18:                                # %if.then58
	leaq	12(%rsp), %rdx
	xorq	%rcx, %rcx
	movq	%r14, %rdi
	movq	%rbx, %rsi
	callq	promote_mode
	movq	%rax, %rbx
.LBB15_19:                              # %if.end60
	movq	%rbx, %rdi
	callq	gen_reg_rtx
	jmp	.LBB15_20
.LBB15_5:                               # %if.then14
	movq	%r14, %rdi
	callq	int_size_in_bytes
	testq	%rax, %rax
	movq	$1, %r13
	je	.LBB15_7
# BB#6:                                 # %if.then14
	movq	%rax, %r13
.LBB15_7:                               # %if.then14
	cmpq	$-1, %r13
	jne	.LBB15_16
# BB#8:                                 # %land.lhs.true
	movzbl	16(%r14), %eax
	cmpq	$18, %rax
	movq	$-1, %r13
	jne	.LBB15_12
# BB#9:                                 # %land.lhs.true27
	movq	112(%r14), %rdi
	testq	%rdi, %rdi
	je	.LBB15_12
# BB#10:                                # %land.lhs.true31
	movq	$1, %rsi
	callq	host_integerp
	movabsq	$4294967295, %rcx       # imm = 0xFFFFFFFF
	testq	%rcx, %rax
	je	.LBB15_12
# BB#11:                                # %if.then36
	movq	112(%r14), %rdi
	movq	$1, %rsi
	callq	tree_low_cst
	movq	%rax, %r13
.LBB15_12:                              # %if.end40
	testq	%r12, %r12
	je	.LBB15_16
# BB#13:                                # %if.end40
	cmpq	$-1, %r13
	jne	.LBB15_16
# BB#14:                                # %land.lhs.true45
	movq	40(%r14), %rax
	movzbl	16(%rax), %eax
	cmpq	$25, %rax
	movq	$-1, %r13
	jne	.LBB15_16
# BB#15:                                # %if.then53
	movabsq	$.L.str1, %rsi
	xorq	%rax, %rax
	movq	%r12, %rdi
	callq	error_with_decl
	movq	$1, %r13
.LBB15_16:                              # %if.end54
	movq	%rbx, %rdi
	movq	%r13, %rsi
	movq	%r15, %rdx
	movq	%r14, %rcx
	callq	assign_stack_temp_for_type
.LBB15_20:                              # %return
	addq	$16, %rsp
	popq	%rbx
	popq	%r12
	popq	%r13
	popq	%r14
	popq	%r15
	retq
.Ltmp110:
	.size	assign_temp, .Ltmp110-assign_temp
	.cfi_endproc

	.globl	combine_temp_slots
	.align	16, 0x90
	.type	combine_temp_slots,@function
combine_temp_slots:                     # @combine_temp_slots
	.cfi_startproc
# BB#0:                                 # %entry
	movl	flag_strict_aliasing(%rip), %eax
	testq	%rax, %rax
	jne	.LBB16_28
# BB#1:                                 # %if.end
	movq	cfun(%rip), %rax
	movl	flag_expensive_optimizations(%rip), %ecx
	movq	320(%rax), %r10
	testq	%rcx, %rcx
	jne	.LBB16_8
# BB#2:                                 # %if.then2
	testq	%r10, %r10
	je	.LBB16_28
# BB#3:                                 # %for.body.lr.ph
	movl	optimize(%rip), %ecx
	xorq	%rdx, %rdx
	movq	%r10, %rsi
	testq	%rcx, %rcx
	je	.LBB16_4
	.align	16, 0x90
.LBB16_6:                               # %for.body
                                        # =>This Inner Loop Header: Depth=1
	movq	$32, %rcx
	movq	%rdx, %rdi
	shlq	%cl, %rdi
	movq	$32, %rcx
	sarq	%cl, %rdi
	cmpq	$100, %rdi
	jg	.LBB16_28
# BB#7:                                 # %for.inc
                                        #   in Loop: Header=BB16_6 Depth=1
	movq	(%rsi), %rsi
	incq	%rdx
	testq	%rsi, %rsi
	jne	.LBB16_6
	jmp	.LBB16_8
	.align	16, 0x90
.LBB16_4:                               # %for.body.us
                                        # =>This Inner Loop Header: Depth=1
	movq	$32, %rcx
	movq	%rdx, %rdi
	shlq	%cl, %rdi
	movq	$32, %rcx
	sarq	%cl, %rdi
	cmpq	$10, %rdi
	jg	.LBB16_28
# BB#5:                                 # %for.inc.us
                                        #   in Loop: Header=BB16_4 Depth=1
	movq	(%rsi), %rsi
	incq	%rdx
	testq	%rsi, %rsi
	jne	.LBB16_4
.LBB16_8:                               # %if.end8
	testq	%r10, %r10
	je	.LBB16_28
# BB#9:
	xorq	%r8, %r8
	.align	16, 0x90
.LBB16_10:                              # %for.body12
                                        # =>This Loop Header: Depth=1
                                        #     Child Loop BB16_14 Depth 2
                                        #       Child Loop BB16_15 Depth 3
	movzbl	56(%r10), %ecx
	testq	%rcx, %rcx
	jne	.LBB16_24
# BB#11:                                # %land.lhs.true14
                                        #   in Loop: Header=BB16_10 Depth=1
	movq	8(%r10), %rcx
	movl	(%rcx), %ecx
	andq	$16711680, %rcx         # imm = 0xFF0000
	cmpq	$3342336, %rcx          # imm = 0x330000
	jne	.LBB16_24
# BB#12:                                # %for.cond18.preheader
                                        #   in Loop: Header=BB16_10 Depth=1
	movq	(%r10), %rdi
	testq	%rdi, %rdi
	je	.LBB16_24
# BB#13:                                # %for.body20.lr.ph.lr.ph
                                        #   in Loop: Header=BB16_10 Depth=1
	movq	%r10, %r9
.LBB16_14:                              # %for.body20.lr.ph
                                        #   Parent Loop BB16_10 Depth=1
                                        # =>  This Loop Header: Depth=2
                                        #       Child Loop BB16_15 Depth 3
	movq	%rdi, %rdx
	.align	16, 0x90
.LBB16_15:                              # %for.body20
                                        #   Parent Loop BB16_10 Depth=1
                                        #     Parent Loop BB16_14 Depth=2
                                        # =>    This Inner Loop Header: Depth=3
	movzbl	56(%rdx), %ecx
	testq	%rcx, %rcx
	jne	.LBB16_20
# BB#16:                                # %land.lhs.true23
                                        #   in Loop: Header=BB16_15 Depth=3
	movq	8(%rdx), %rcx
	movl	(%rcx), %ecx
	andq	$16711680, %rcx         # imm = 0xFF0000
	cmpq	$3342336, %rcx          # imm = 0x330000
	jne	.LBB16_20
# BB#17:                                # %if.then29
                                        #   in Loop: Header=BB16_15 Depth=3
	movq	72(%r10), %rcx
	movq	80(%r10), %rdi
	movq	72(%rdx), %rsi
	leaq	(%rdi,%rcx), %rax
	cmpq	%rsi, %rax
	jne	.LBB16_19
# BB#18:                                # %if.then32
                                        #   in Loop: Header=BB16_15 Depth=3
	movq	32(%rdx), %rax
	addq	%rax, 32(%r10)
	movq	80(%rdx), %rax
	addq	%rax, %rdi
	movq	%rdi, 80(%r10)
	movq	(%rdx), %rdx
	testq	%rdx, %rdx
	movq	%rdx, (%r9)
	jne	.LBB16_15
	jmp	.LBB16_21
	.align	16, 0x90
.LBB16_19:                              # %if.else
                                        #   in Loop: Header=BB16_14 Depth=2
	movq	80(%rdx), %r9
	addq	%r9, %rsi
	cmpq	%rcx, %rsi
	je	.LBB16_22
.LBB16_20:                              # %for.cond18.outer.backedge
                                        #   in Loop: Header=BB16_14 Depth=2
	movq	(%rdx), %rdi
	testq	%rdi, %rdi
	movq	%rdx, %r9
	jne	.LBB16_14
.LBB16_21:                              # %for.inc75
                                        #   in Loop: Header=BB16_10 Depth=1
	testq	%r10, %r10
	jne	.LBB16_24
	jmp	.LBB16_26
.LBB16_22:                              # %if.then43
                                        #   in Loop: Header=BB16_10 Depth=1
	movq	32(%r10), %rax
	addq	%rax, 32(%rdx)
	addq	%rdi, %r9
	movq	%r9, 80(%rdx)
	movq	(%r10), %rax
	testq	%r8, %r8
	jne	.LBB16_23
# BB#25:                                # %for.inc75.thread112
                                        #   in Loop: Header=BB16_10 Depth=1
	movq	cfun(%rip), %rcx
	movq	%rax, 320(%rcx)
.LBB16_26:                              # %cond.false
                                        #   in Loop: Header=BB16_10 Depth=1
	movq	cfun(%rip), %r10
	addq	$320, %r10              # imm = 0x140
	xorq	%r8, %r8
	jmp	.LBB16_27
.LBB16_23:                              # %if.then66
                                        #   in Loop: Header=BB16_10 Depth=1
	movq	%rax, (%r8)
	movq	%r8, %r10
	.align	16, 0x90
.LBB16_24:                              # %cond.true
                                        #   in Loop: Header=BB16_10 Depth=1
	movq	%r10, %r8
.LBB16_27:                              # %for.cond10.backedge
                                        #   in Loop: Header=BB16_10 Depth=1
	movq	(%r10), %r10
	testq	%r10, %r10
	jne	.LBB16_10
.LBB16_28:                              # %for.end79
	retq
.Ltmp111:
	.size	combine_temp_slots, .Ltmp111-combine_temp_slots
	.cfi_endproc

	.globl	update_temp_slot_address
	.align	16, 0x90
	.type	update_temp_slot_address,@function
update_temp_slot_address:               # @update_temp_slot_address
	.cfi_startproc
# BB#0:                                 # %entry
	pushq	%r15
.Ltmp118:
	.cfi_def_cfa_offset 16
	pushq	%r14
.Ltmp119:
	.cfi_def_cfa_offset 24
	pushq	%r13
.Ltmp120:
	.cfi_def_cfa_offset 32
	pushq	%r12
.Ltmp121:
	.cfi_def_cfa_offset 40
	pushq	%rbx
.Ltmp122:
	.cfi_def_cfa_offset 48
.Ltmp123:
	.cfi_offset %rbx, -48
.Ltmp124:
	.cfi_offset %r12, -40
.Ltmp125:
	.cfi_offset %r13, -32
.Ltmp126:
	.cfi_offset %r14, -24
.Ltmp127:
	.cfi_offset %r15, -16
	movq	%rsi, %r14
	movq	%rdi, %r15
                                        # kill: RDI<def> R15<kill>
                                        # kill: RSI<def> R14<kill>
	callq	rtx_equal_p
	movabsq	$4294967295, %r13       # imm = 0xFFFFFFFF
	testq	%r13, %rax
	jne	.LBB17_20
.LBB17_1:                               # %if.end.lr.ph
                                        # =>This Loop Header: Depth=1
                                        #     Child Loop BB17_2 Depth 2
	movq	%r15, %rbx
	.align	16, 0x90
.LBB17_2:                               # %if.end
                                        #   Parent Loop BB17_1 Depth=1
                                        # =>  This Inner Loop Header: Depth=2
	movq	%rbx, %rdi
	callq	find_temp_slot_from_address
	movq	%rax, %r15
	testq	%r15, %r15
	jne	.LBB17_15
# BB#3:                                 # %if.then2
                                        #   in Loop: Header=BB17_2 Depth=2
	movzbl	(%rbx), %eax
	cmpq	$75, %rax
	jne	.LBB17_20
# BB#4:                                 # %if.end5
                                        #   in Loop: Header=BB17_2 Depth=2
	movzbl	(%r14), %eax
	cmpq	$75, %rax
	je	.LBB17_7
# BB#5:                                 # %if.end5
                                        #   in Loop: Header=BB17_2 Depth=2
	cmpq	$61, %rax
	jne	.LBB17_20
# BB#6:                                 # %if.then9
                                        #   in Loop: Header=BB17_2 Depth=2
	movq	8(%rbx), %rdi
	movq	%r14, %rsi
	callq	update_temp_slot_address
	movq	16(%rbx), %rbx
	movq	%rbx, %rdi
	movq	%r14, %rsi
	callq	rtx_equal_p
	testq	%r13, %rax
	je	.LBB17_2
	jmp	.LBB17_20
.LBB17_7:                               # %if.end18
                                        #   in Loop: Header=BB17_1 Depth=1
	movq	8(%rbx), %rdi
	movq	8(%r14), %rsi
	callq	rtx_equal_p
	movq	16(%rbx), %r15
	testq	%r13, %rax
	jne	.LBB17_8
# BB#9:                                 # %if.else34
                                        #   in Loop: Header=BB17_1 Depth=1
	movq	8(%r14), %rsi
	movq	%r15, %rdi
	callq	rtx_equal_p
	movq	8(%rbx), %r15
	movq	16(%r14), %r12
	testq	%r13, %rax
	jne	.LBB17_14
# BB#10:                                # %if.else50
                                        #   in Loop: Header=BB17_1 Depth=1
	movq	%r15, %rdi
	movq	%r12, %rsi
	callq	rtx_equal_p
	movq	16(%rbx), %r15
	testq	%r13, %rax
	jne	.LBB17_13
# BB#11:                                # %if.else66
                                        #   in Loop: Header=BB17_1 Depth=1
	movq	16(%r14), %rsi
	movq	%r15, %rdi
	callq	rtx_equal_p
	testq	%r13, %rax
	je	.LBB17_20
# BB#12:                                # %if.then75
                                        #   in Loop: Header=BB17_1 Depth=1
	movq	8(%rbx), %r15
.LBB17_13:                              # %tailrecurse.outer.backedge
                                        #   in Loop: Header=BB17_1 Depth=1
	movq	8(%r14), %r12
	jmp	.LBB17_14
.LBB17_8:                               # %if.then27
                                        #   in Loop: Header=BB17_1 Depth=1
	movq	16(%r14), %r12
.LBB17_14:                              # %tailrecurse.outer.backedge
                                        #   in Loop: Header=BB17_1 Depth=1
	movq	%r15, %rdi
	movq	%r12, %rsi
	callq	rtx_equal_p
	testq	%r13, %rax
	movq	%r12, %r14
	je	.LBB17_1
	jmp	.LBB17_20
.LBB17_15:                              # %if.else86
	movq	16(%r15), %rax
	testq	%rax, %rax
	je	.LBB17_16
# BB#17:                                # %if.else90
	movzbl	(%rax), %ecx
	cmpq	$3, %rcx
	je	.LBB17_19
# BB#18:                                # %if.then95
	movq	$3, %rdi
	xorq	%rsi, %rsi
	xorq	%rcx, %rcx
	movq	%rax, %rdx
	callq	gen_rtx_fmt_ee
	movq	%rax, 16(%r15)
.LBB17_19:                              # %if.end99
	movq	$3, %rdi
	xorq	%rsi, %rsi
	movq	%r14, %rdx
	movq	%rax, %rcx
	callq	gen_rtx_fmt_ee
	movq	%rax, 16(%r15)
	jmp	.LBB17_20
.LBB17_16:                              # %if.then88
	movq	%r14, 16(%r15)
.LBB17_20:                              # %if.end104
	popq	%rbx
	popq	%r12
	popq	%r13
	popq	%r14
	popq	%r15
	retq
.Ltmp128:
	.size	update_temp_slot_address, .Ltmp128-update_temp_slot_address
	.cfi_endproc

	.align	16, 0x90
	.type	find_temp_slot_from_address,@function
find_temp_slot_from_address:            # @find_temp_slot_from_address
	.cfi_startproc
# BB#0:                                 # %entry
	pushq	%r14
.Ltmp132:
	.cfi_def_cfa_offset 16
	pushq	%rbx
.Ltmp133:
	.cfi_def_cfa_offset 24
	pushq	%rax
.Ltmp134:
	.cfi_def_cfa_offset 32
.Ltmp135:
	.cfi_offset %rbx, -24
.Ltmp136:
	.cfi_offset %r14, -16
	movq	cfun(%rip), %rax
	movq	320(%rax), %rax
	movq	%rdi, %rbx
	testq	%rax, %rax
	je	.LBB18_15
# BB#1:                                 # %for.body.lr.ph
	movq	global_rtl+56(%rip), %r8
	.align	16, 0x90
.LBB18_2:                               # %for.body
                                        # =>This Loop Header: Depth=1
                                        #     Child Loop BB18_12 Depth 2
	movzbl	56(%rax), %edx
	testq	%rdx, %rdx
	je	.LBB18_14
# BB#3:                                 # %if.else
                                        #   in Loop: Header=BB18_2 Depth=1
	movq	8(%rax), %rdx
	movq	8(%rdx), %rdx
	cmpq	%rbx, %rdx
	je	.LBB18_22
# BB#4:                                 # %lor.lhs.false
                                        #   in Loop: Header=BB18_2 Depth=1
	movq	16(%rax), %rdx
	cmpq	%rbx, %rdx
	je	.LBB18_22
# BB#5:                                 # %lor.lhs.false3
                                        #   in Loop: Header=BB18_2 Depth=1
	movzbl	(%rbx), %esi
	cmpq	$75, %rsi
	jne	.LBB18_10
# BB#6:                                 # %land.lhs.true
                                        #   in Loop: Header=BB18_2 Depth=1
	movq	8(%rbx), %rsi
	cmpq	%r8, %rsi
	jne	.LBB18_10
# BB#7:                                 # %land.lhs.true9
                                        #   in Loop: Header=BB18_2 Depth=1
	movq	16(%rbx), %rsi
	movzbl	(%rsi), %edi
	cmpq	$54, %rdi
	jne	.LBB18_10
# BB#8:                                 # %land.lhs.true16
                                        #   in Loop: Header=BB18_2 Depth=1
	movq	8(%rsi), %rsi
	movq	72(%rax), %rdi
	cmpq	%rdi, %rsi
	jl	.LBB18_10
# BB#9:                                 # %land.lhs.true23
                                        #   in Loop: Header=BB18_2 Depth=1
	movq	80(%rax), %rcx
	addq	%rdi, %rcx
	cmpq	%rcx, %rsi
	jl	.LBB18_22
	.align	16, 0x90
.LBB18_10:                              # %if.else33
                                        #   in Loop: Header=BB18_2 Depth=1
	testq	%rdx, %rdx
	je	.LBB18_14
# BB#11:                                # %land.lhs.true36
                                        #   in Loop: Header=BB18_2 Depth=1
	movzbl	(%rdx), %ecx
	cmpq	$3, %rcx
	jne	.LBB18_14
	.align	16, 0x90
.LBB18_12:                              # %for.body45
                                        #   Parent Loop BB18_2 Depth=1
                                        # =>  This Inner Loop Header: Depth=2
	movq	8(%rdx), %rcx
	cmpq	%rbx, %rcx
	je	.LBB18_22
# BB#13:                                # %for.inc
                                        #   in Loop: Header=BB18_12 Depth=2
	movq	16(%rdx), %rdx
	testq	%rdx, %rdx
	jne	.LBB18_12
	.align	16, 0x90
.LBB18_14:                              # %for.inc57
                                        #   in Loop: Header=BB18_2 Depth=1
	movq	(%rax), %rax
	testq	%rax, %rax
	jne	.LBB18_2
.LBB18_15:                              # %for.end59
	movzbl	(%rbx), %r14d
	cmpq	$75, %r14
	jne	.LBB18_21
# BB#16:                                # %land.lhs.true63
	movq	8(%rbx), %rdi
	movzbl	(%rdi), %eax
	cmpq	$61, %rax
	jne	.LBB18_19
# BB#17:                                # %land.lhs.true70
	callq	find_temp_slot_from_address
	testq	%rax, %rax
	jne	.LBB18_22
# BB#18:                                # %if.else76
	cmpq	$75, %r14
	jne	.LBB18_21
.LBB18_19:                              # %land.lhs.true80
	movq	16(%rbx), %rdi
	movzbl	(%rdi), %eax
	cmpq	$61, %rax
	jne	.LBB18_21
# BB#20:                                # %land.lhs.true87
	callq	find_temp_slot_from_address
	testq	%rax, %rax
	jne	.LBB18_22
.LBB18_21:                              # %if.end95
	xorq	%rax, %rax
.LBB18_22:                              # %return
	addq	$8, %rsp
	popq	%rbx
	popq	%r14
	retq
.Ltmp137:
	.size	find_temp_slot_from_address, .Ltmp137-find_temp_slot_from_address
	.cfi_endproc

	.globl	mark_temp_addr_taken
	.align	16, 0x90
	.type	mark_temp_addr_taken,@function
mark_temp_addr_taken:                   # @mark_temp_addr_taken
	.cfi_startproc
# BB#0:                                 # %entry
	pushq	%rax
.Ltmp139:
	.cfi_def_cfa_offset 16
	testq	%rdi, %rdi
	je	.LBB19_9
# BB#1:                                 # %if.end
	movzbl	(%rdi), %eax
	cmpq	$66, %rax
	jne	.LBB19_9
# BB#2:                                 # %lor.lhs.false
	movq	8(%rdi), %rdi
	movzbl	(%rdi), %eax
	cmpq	$133, %rax
	jg	.LBB19_5
# BB#3:                                 # %lor.lhs.false
	addq	$-54, %rax
	movabsq	$4294967295, %rcx       # imm = 0xFFFFFFFF
	andq	%rax, %rcx
	cmpq	$14, %rcx
	ja	.LBB19_7
# BB#4:                                 # %lor.lhs.false
	movq	$1, %rax
	shlq	%cl, %rax
	testq	$24599, %rax            # imm = 0x6017
	jne	.LBB19_9
	jmp	.LBB19_7
.LBB19_5:                               # %lor.lhs.false
	cmpq	$134, %rax
	je	.LBB19_9
# BB#6:                                 # %lor.lhs.false
	cmpq	$140, %rax
	je	.LBB19_9
.LBB19_7:                               # %if.end55
	callq	find_temp_slot_from_address
	testq	%rax, %rax
	je	.LBB19_9
# BB#8:                                 # %if.then60
	movq	$1, %rcx
	movb	%cl, 57(%rax)
.LBB19_9:                               # %if.end61
	popq	%rax
	retq
.Ltmp140:
	.size	mark_temp_addr_taken, .Ltmp140-mark_temp_addr_taken
	.cfi_endproc

	.globl	preserve_temp_slots
	.align	16, 0x90
	.type	preserve_temp_slots,@function
preserve_temp_slots:                    # @preserve_temp_slots
	.cfi_startproc
# BB#0:                                 # %entry
	pushq	%r14
.Ltmp144:
	.cfi_def_cfa_offset 16
	pushq	%rbx
.Ltmp145:
	.cfi_def_cfa_offset 24
	pushq	%rax
.Ltmp146:
	.cfi_def_cfa_offset 32
.Ltmp147:
	.cfi_offset %rbx, -24
.Ltmp148:
	.cfi_offset %r14, -16
	movq	%rdi, %rbx
	testq	%rbx, %rbx
	je	.LBB20_1
# BB#8:                                 # %if.end9
	movl	(%rbx), %r14d
	movabsq	$2147549183, %rax       # imm = 0x8000FFFF
	andq	%r14, %rax
	movabsq	$2147483709, %rcx       # imm = 0x8000003D
	cmpq	%rcx, %rax
	jne	.LBB20_10
# BB#9:                                 # %if.end16
	movq	%rbx, %rdi
	callq	find_temp_slot_from_address
	testq	%rax, %rax
	jne	.LBB20_15
.LBB20_10:                              # %land.lhs.true19
	andq	$65535, %r14            # imm = 0xFFFF
	cmpq	$66, %r14
	jne	.LBB20_27
# BB#11:                                # %lor.lhs.false
	movq	8(%rbx), %rdi
	movzbl	(%rdi), %eax
	cmpq	$133, %rax
	jg	.LBB20_25
# BB#12:                                # %lor.lhs.false
	addq	$-54, %rax
	movabsq	$4294967295, %rcx       # imm = 0xFFFFFFFF
	andq	%rax, %rcx
	cmpq	$14, %rcx
	ja	.LBB20_14
# BB#13:                                # %lor.lhs.false
	movq	$1, %rax
	shlq	%cl, %rax
	testq	$24599, %rax            # imm = 0x6017
	jne	.LBB20_27
	jmp	.LBB20_14
.LBB20_1:                               # %if.then
	movq	cfun(%rip), %rax
	movq	320(%rax), %rcx
	jmp	.LBB20_2
	.align	16, 0x90
.LBB20_7:                               # %for.inc
                                        #   in Loop: Header=BB20_2 Depth=1
	movq	(%rcx), %rcx
.LBB20_2:                               # %if.then
                                        # =>This Inner Loop Header: Depth=1
	testq	%rcx, %rcx
	je	.LBB20_24
# BB#3:                                 # %for.body
                                        #   in Loop: Header=BB20_2 Depth=1
	movzbl	56(%rcx), %edx
	testq	%rdx, %rdx
	je	.LBB20_7
# BB#4:                                 # %land.lhs.true
                                        #   in Loop: Header=BB20_2 Depth=1
	movl	60(%rcx), %edx
	movl	328(%rax), %esi
	cmpq	%rsi, %rdx
	jne	.LBB20_7
# BB#5:                                 # %land.lhs.true4
                                        #   in Loop: Header=BB20_2 Depth=1
	movzbl	57(%rcx), %esi
	testq	%rsi, %rsi
	je	.LBB20_7
# BB#6:                                 # %if.then7
                                        #   in Loop: Header=BB20_2 Depth=1
	decq	%rdx
	movl	%edx, 60(%rcx)
	jmp	.LBB20_7
.LBB20_25:                              # %lor.lhs.false
	cmpq	$134, %rax
	je	.LBB20_27
# BB#26:                                # %lor.lhs.false
	cmpq	$140, %rax
	jne	.LBB20_14
.LBB20_27:                              # %if.then84
	movq	cfun(%rip), %rax
	movq	320(%rax), %rcx
	jmp	.LBB20_28
	.align	16, 0x90
.LBB20_33:                              # %for.inc105
                                        #   in Loop: Header=BB20_28 Depth=1
	movq	(%rcx), %rcx
.LBB20_28:                              # %if.then84
                                        # =>This Inner Loop Header: Depth=1
	testq	%rcx, %rcx
	je	.LBB20_24
# BB#29:                                # %for.body88
                                        #   in Loop: Header=BB20_28 Depth=1
	movzbl	56(%rcx), %edx
	testq	%rdx, %rdx
	je	.LBB20_33
# BB#30:                                # %land.lhs.true92
                                        #   in Loop: Header=BB20_28 Depth=1
	movl	60(%rcx), %edx
	movl	328(%rax), %esi
	cmpq	%rsi, %rdx
	jne	.LBB20_33
# BB#31:                                # %land.lhs.true97
                                        #   in Loop: Header=BB20_28 Depth=1
	movzbl	57(%rcx), %esi
	testq	%rsi, %rsi
	je	.LBB20_33
# BB#32:                                # %if.then101
                                        #   in Loop: Header=BB20_28 Depth=1
	decq	%rdx
	movl	%edx, 60(%rcx)
	jmp	.LBB20_33
.LBB20_14:                              # %if.then111
	callq	find_temp_slot_from_address
	testq	%rax, %rax
	je	.LBB20_34
.LBB20_15:                              # %if.then119
	movq	cfun(%rip), %rcx
	movl	60(%rax), %edx
	movl	328(%rcx), %esi
	cmpq	%rsi, %rdx
	jne	.LBB20_24
# BB#16:                                # %if.then124
	movq	320(%rcx), %rcx
	testq	%rcx, %rcx
	je	.LBB20_23
	.align	16, 0x90
.LBB20_17:                              # %for.body128
                                        # =>This Inner Loop Header: Depth=1
	cmpq	%rax, %rcx
	je	.LBB20_21
# BB#18:                                # %land.lhs.true131
                                        #   in Loop: Header=BB20_17 Depth=1
	movzbl	57(%rcx), %edx
	testq	%rdx, %rdx
	je	.LBB20_21
# BB#19:                                # %land.lhs.true135
                                        #   in Loop: Header=BB20_17 Depth=1
	movl	60(%rcx), %edx
	movl	60(%rax), %esi
	cmpq	%rsi, %rdx
	jne	.LBB20_21
# BB#20:                                # %if.then140
                                        #   in Loop: Header=BB20_17 Depth=1
	decq	%rdx
	movl	%edx, 60(%rcx)
	.align	16, 0x90
.LBB20_21:                              # %for.inc144
                                        #   in Loop: Header=BB20_17 Depth=1
	movq	(%rcx), %rcx
	testq	%rcx, %rcx
	jne	.LBB20_17
# BB#22:                                # %for.cond126.for.end146_crit_edge
	movl	60(%rax), %edx
.LBB20_23:                              # %for.end146
	decq	%rdx
	movl	%edx, 60(%rax)
	xorq	%rcx, %rcx
	movb	%cl, 57(%rax)
	jmp	.LBB20_24
.LBB20_34:                              # %if.end151
	movq	cfun(%rip), %rax
	movq	320(%rax), %rcx
	jmp	.LBB20_35
.LBB20_40:                              # %for.inc170
                                        #   in Loop: Header=BB20_35 Depth=1
	movq	(%rcx), %rcx
.LBB20_35:                              # %if.end151
                                        # =>This Inner Loop Header: Depth=1
	testq	%rcx, %rcx
	je	.LBB20_24
# BB#36:                                # %for.body155
                                        #   in Loop: Header=BB20_35 Depth=1
	movzbl	56(%rcx), %edx
	testq	%rdx, %rdx
	je	.LBB20_40
# BB#37:                                # %land.lhs.true159
                                        #   in Loop: Header=BB20_35 Depth=1
	movl	60(%rcx), %edx
	movl	328(%rax), %esi
	cmpq	%rsi, %rdx
	jne	.LBB20_40
# BB#38:                                # %land.lhs.true164
                                        #   in Loop: Header=BB20_35 Depth=1
	movl	64(%rcx), %esi
	testq	%rsi, %rsi
	jne	.LBB20_40
# BB#39:                                # %if.then166
                                        #   in Loop: Header=BB20_35 Depth=1
	decq	%rdx
	movl	%edx, 60(%rcx)
	jmp	.LBB20_40
.LBB20_24:                              # %for.end172
	addq	$8, %rsp
	popq	%rbx
	popq	%r14
	retq
.Ltmp149:
	.size	preserve_temp_slots, .Ltmp149-preserve_temp_slots
	.cfi_endproc

	.globl	preserve_rtl_expr_result
	.align	16, 0x90
	.type	preserve_rtl_expr_result,@function
preserve_rtl_expr_result:               # @preserve_rtl_expr_result
	.cfi_startproc
# BB#0:                                 # %entry
	pushq	%rax
.Ltmp151:
	.cfi_def_cfa_offset 16
	testq	%rdi, %rdi
	je	.LBB21_11
# BB#1:                                 # %lor.lhs.false
	movzbl	(%rdi), %eax
	cmpq	$66, %rax
	jne	.LBB21_11
# BB#2:                                 # %lor.lhs.false2
	movq	8(%rdi), %rdi
	movzbl	(%rdi), %eax
	cmpq	$133, %rax
	jg	.LBB21_5
# BB#3:                                 # %lor.lhs.false2
	addq	$-54, %rax
	movabsq	$4294967295, %rcx       # imm = 0xFFFFFFFF
	andq	%rax, %rcx
	cmpq	$14, %rcx
	ja	.LBB21_7
# BB#4:                                 # %lor.lhs.false2
	movq	$1, %rax
	shlq	%cl, %rax
	testq	$24599, %rax            # imm = 0x6017
	jne	.LBB21_11
	jmp	.LBB21_7
.LBB21_5:                               # %lor.lhs.false2
	cmpq	$134, %rax
	je	.LBB21_11
# BB#6:                                 # %lor.lhs.false2
	cmpq	$140, %rax
	je	.LBB21_11
.LBB21_7:                               # %if.end
	callq	find_temp_slot_from_address
	testq	%rax, %rax
	je	.LBB21_11
# BB#8:                                 # %if.then59
	movq	cfun(%rip), %rdx
	movslq	60(%rax), %rcx
	movslq	328(%rdx), %rdx
	cmpq	%rdx, %rcx
	jle	.LBB21_10
# BB#9:                                 # %if.then59
	movq	%rdx, %rcx
.LBB21_10:                              # %if.then59
	movl	%ecx, 60(%rax)
	movq	$0, 48(%rax)
.LBB21_11:                              # %return
	popq	%rax
	retq
.Ltmp152:
	.size	preserve_rtl_expr_result, .Ltmp152-preserve_rtl_expr_result
	.cfi_endproc

	.globl	free_temp_slots
	.align	16, 0x90
	.type	free_temp_slots,@function
free_temp_slots:                        # @free_temp_slots
	.cfi_startproc
# BB#0:                                 # %entry
	movq	cfun(%rip), %rax
	movq	320(%rax), %rcx
	testq	%rcx, %rcx
	je	.LBB22_8
# BB#1:                                 # %for.body.lr.ph
	xorq	%rdx, %rdx
	.align	16, 0x90
.LBB22_2:                               # %for.body
                                        # =>This Inner Loop Header: Depth=1
	movzbl	56(%rcx), %esi
	testq	%rsi, %rsi
	je	.LBB22_7
# BB#3:                                 # %land.lhs.true
                                        #   in Loop: Header=BB22_2 Depth=1
	movl	60(%rcx), %esi
	movl	328(%rax), %edi
	cmpq	%rdi, %rsi
	jne	.LBB22_7
# BB#4:                                 # %land.lhs.true3
                                        #   in Loop: Header=BB22_2 Depth=1
	movl	64(%rcx), %esi
	testq	%rsi, %rsi
	jne	.LBB22_7
# BB#5:                                 # %land.lhs.true5
                                        #   in Loop: Header=BB22_2 Depth=1
	cmpq	$0, 48(%rcx)
	jne	.LBB22_7
# BB#6:                                 # %if.then
                                        #   in Loop: Header=BB22_2 Depth=1
	movb	%dl, 56(%rcx)
	.align	16, 0x90
.LBB22_7:                               # %for.inc
                                        #   in Loop: Header=BB22_2 Depth=1
	movq	(%rcx), %rcx
	testq	%rcx, %rcx
	jne	.LBB22_2
.LBB22_8:                               # %for.end
	jmp	combine_temp_slots  # TAILCALL
.Ltmp153:
	.size	free_temp_slots, .Ltmp153-free_temp_slots
	.cfi_endproc

	.globl	free_temps_for_rtl_expr
	.align	16, 0x90
	.type	free_temps_for_rtl_expr,@function
free_temps_for_rtl_expr:                # @free_temps_for_rtl_expr
	.cfi_startproc
# BB#0:                                 # %entry
	movq	cfun(%rip), %rax
	movq	320(%rax), %rax
	testq	%rax, %rax
	je	.LBB23_7
# BB#1:
	xorq	%rcx, %rcx
	.align	16, 0x90
.LBB23_2:                               # %for.body
                                        # =>This Inner Loop Header: Depth=1
	movq	48(%rax), %rdx
	cmpq	%rdi, %rdx
	jne	.LBB23_6
# BB#3:                                 # %if.then
                                        #   in Loop: Header=BB23_2 Depth=1
	movq	cfun(%rip), %rdx
	movslq	328(%rdx), %rdx
	movslq	60(%rax), %rsi
	cmpq	%rsi, %rdx
	jle	.LBB23_4
# BB#5:                                 # %if.else
                                        #   in Loop: Header=BB23_2 Depth=1
	movq	$0, 48(%rax)
	jmp	.LBB23_6
	.align	16, 0x90
.LBB23_4:                               # %if.then2
                                        #   in Loop: Header=BB23_2 Depth=1
	movb	%cl, 56(%rax)
.LBB23_6:                               # %for.inc
                                        #   in Loop: Header=BB23_2 Depth=1
	movq	(%rax), %rax
	testq	%rax, %rax
	jne	.LBB23_2
.LBB23_7:                               # %for.end
	jmp	combine_temp_slots  # TAILCALL
.Ltmp154:
	.size	free_temps_for_rtl_expr, .Ltmp154-free_temps_for_rtl_expr
	.cfi_endproc

	.globl	mark_all_temps_used
	.align	16, 0x90
	.type	mark_all_temps_used,@function
mark_all_temps_used:                    # @mark_all_temps_used
	.cfi_startproc
# BB#0:                                 # %entry
	movq	cfun(%rip), %rcx
	movq	320(%rcx), %rax
	testq	%rax, %rax
	je	.LBB24_5
# BB#1:                                 # %for.body.lr.ph
	movl	328(%rcx), %r8d
	movq	$1, %rsi
	.align	16, 0x90
.LBB24_2:                               # %for.body
                                        # =>This Inner Loop Header: Depth=1
	movl	%esi, 64(%rax)
	movb	%sil, 56(%rax)
	movslq	60(%rax), %rdi
	movq	$32, %rcx
	movq	%r8, %rdx
	shlq	%cl, %rdx
	movq	$32, %rcx
	sarq	%cl, %rdx
	cmpq	%rdx, %rdi
	jle	.LBB24_4
# BB#3:                                 # %for.body
                                        #   in Loop: Header=BB24_2 Depth=1
	movq	%r8, %rdi
.LBB24_4:                               # %for.body
                                        #   in Loop: Header=BB24_2 Depth=1
	movl	%edi, 60(%rax)
	movq	(%rax), %rax
	testq	%rax, %rax
	jne	.LBB24_2
.LBB24_5:                               # %for.end
	retq
.Ltmp155:
	.size	mark_all_temps_used, .Ltmp155-mark_all_temps_used
	.cfi_endproc

	.globl	push_temp_slots
	.align	16, 0x90
	.type	push_temp_slots,@function
push_temp_slots:                        # @push_temp_slots
	.cfi_startproc
# BB#0:                                 # %entry
	movq	cfun(%rip), %rax
	movl	328(%rax), %ecx
	incq	%rcx
	movl	%ecx, 328(%rax)
	retq
.Ltmp156:
	.size	push_temp_slots, .Ltmp156-push_temp_slots
	.cfi_endproc

	.globl	pop_temp_slots
	.align	16, 0x90
	.type	pop_temp_slots,@function
pop_temp_slots:                         # @pop_temp_slots
	.cfi_startproc
# BB#0:                                 # %entry
	pushq	%rax
.Ltmp158:
	.cfi_def_cfa_offset 16
	movq	cfun(%rip), %rax
	movq	320(%rax), %rcx
	testq	%rcx, %rcx
	je	.LBB26_7
# BB#1:                                 # %for.body.lr.ph
	xorq	%rdx, %rdx
	.align	16, 0x90
.LBB26_2:                               # %for.body
                                        # =>This Inner Loop Header: Depth=1
	movzbl	56(%rcx), %esi
	testq	%rsi, %rsi
	je	.LBB26_6
# BB#3:                                 # %land.lhs.true
                                        #   in Loop: Header=BB26_2 Depth=1
	movl	60(%rcx), %esi
	movl	328(%rax), %edi
	cmpq	%rdi, %rsi
	jne	.LBB26_6
# BB#4:                                 # %land.lhs.true3
                                        #   in Loop: Header=BB26_2 Depth=1
	cmpq	$0, 48(%rcx)
	jne	.LBB26_6
# BB#5:                                 # %if.then
                                        #   in Loop: Header=BB26_2 Depth=1
	movb	%dl, 56(%rcx)
	.align	16, 0x90
.LBB26_6:                               # %for.inc
                                        #   in Loop: Header=BB26_2 Depth=1
	movq	(%rcx), %rcx
	testq	%rcx, %rcx
	jne	.LBB26_2
.LBB26_7:                               # %for.end
	callq	combine_temp_slots
	movq	cfun(%rip), %rax
	movl	328(%rax), %ecx
	decq	%rcx
	movl	%ecx, 328(%rax)
	popq	%rax
	retq
.Ltmp159:
	.size	pop_temp_slots, .Ltmp159-pop_temp_slots
	.cfi_endproc

	.globl	init_temp_slots
	.align	16, 0x90
	.type	init_temp_slots,@function
init_temp_slots:                        # @init_temp_slots
	.cfi_startproc
# BB#0:                                 # %entry
	movq	cfun(%rip), %rax
	movq	$0, 320(%rax)
	movq	cfun(%rip), %rax
	xorq	%rcx, %rcx
	movl	%ecx, 328(%rax)
	movl	%ecx, 332(%rax)
	movl	%ecx, 336(%rax)
	retq
.Ltmp160:
	.size	init_temp_slots, .Ltmp160-init_temp_slots
	.cfi_endproc

	.globl	put_var_into_stack
	.align	16, 0x90
	.type	put_var_into_stack,@function
put_var_into_stack:                     # @put_var_into_stack
	.cfi_startproc
# BB#0:                                 # %entry
	pushq	%r15
.Ltmp167:
	.cfi_def_cfa_offset 16
	pushq	%r14
.Ltmp168:
	.cfi_def_cfa_offset 24
	pushq	%r13
.Ltmp169:
	.cfi_def_cfa_offset 32
	pushq	%r12
.Ltmp170:
	.cfi_def_cfa_offset 40
	pushq	%rbx
.Ltmp171:
	.cfi_def_cfa_offset 48
	subq	$96, %rsp
.Ltmp172:
	.cfi_def_cfa_offset 144
.Ltmp173:
	.cfi_offset %rbx, -48
.Ltmp174:
	.cfi_offset %r12, -40
.Ltmp175:
	.cfi_offset %r13, -32
.Ltmp176:
	.cfi_offset %r14, -24
.Ltmp177:
	.cfi_offset %r15, -16
	movq	%rdi, %rbx
	movl	16(%rbx), %r14d
	movq	%r14, %rax
	andq	$255, %rax
	xorq	%rdx, %rdx
	cmpq	$118, %rax
	je	.LBB28_2
# BB#1:                                 # %land.rhs
	movq	%r14, %rdx
	andq	$2048, %rdx             # imm = 0x800
	movq	$11, %rcx
	shrq	%cl, %rdx
.LBB28_2:                               # %land.end
	andq	$65536, %r14            # imm = 0x10000
	movq	$16, %rcx
	shrq	%cl, %r14
	testq	%r14, %r14
	jne	.LBB28_3
# BB#4:                                 # %land.end
	movq	%rdx, 80(%rsp)          # 8-byte Spill
	cmpq	$118, %rax
	je	.LBB28_8
# BB#5:                                 # %land.rhs14
	cmpq	$0, 104(%rbx)
	je	.LBB28_6
# BB#7:                                 # %land.rhs14
	movabsq	$1, %r14
	jmp	.LBB28_8
.LBB28_3:
	movq	%rdx, 80(%rsp)          # 8-byte Spill
	jmp	.LBB28_8
.LBB28_6:
	movabsq	$0, %r14
.LBB28_8:                               # %lor.end
	movq	%rbx, %rdi
	callq	decl_function_context
	movzbl	16(%rbx), %edx
	cmpq	$118, %rdx
	jne	.LBB28_9
# BB#11:                                # %cond.end39
	movq	48(%rbx), %r10
	testq	%r10, %r10
	je	.LBB28_61
# BB#12:                                # %cond.true47
	movq	8(%rbx), %rcx
	movl	60(%rcx), %r8d
	movq	$9, %rcx
	shrq	%cl, %r8
	andq	$127, %r8
	jmp	.LBB28_13
.LBB28_9:                               # %cond.false
	movq	144(%rbx), %r10
	testq	%r10, %r10
	je	.LBB28_61
# BB#10:                                # %cond.false53
	movzbl	48(%rbx), %r8d
.LBB28_13:                              # %cond.end58
	movl	(%r10), %esi
	movq	current_function_decl(%rip), %rdi
	movq	$16, %rcx
	movq	%rsi, %r11
	shrq	%cl, %r11
	xorq	%r9, %r9
	cmpq	%rdi, %rax
	je	.LBB28_20
# BB#14:                                # %cond.end58
	movq	inline_function_decl(%rip), %rcx
	cmpq	%rcx, %rax
	je	.LBB28_20
# BB#15:                                # %for.cond.preheader
	movq	outer_function_chain(%rip), %rcx
	jmp	.LBB28_17
	.align	16, 0x90
.LBB28_16:                              # %for.cond
                                        #   in Loop: Header=BB28_17 Depth=1
	movq	56(%rcx), %rcx
.LBB28_17:                              # %for.cond
                                        # =>This Inner Loop Header: Depth=1
	testq	%rcx, %rcx
	je	.LBB28_20
# BB#18:                                # %for.body
                                        #   in Loop: Header=BB28_17 Depth=1
	movq	48(%rcx), %rdi
	cmpq	%rax, %rdi
	jne	.LBB28_16
# BB#19:
	movq	%rcx, %r9
.LBB28_20:                              # %if.end71
	andq	$255, %r11
	cmpq	$118, %rdx
	je	.LBB28_26
# BB#21:                                # %land.lhs.true77
	testq	$512, 48(%rbx)          # imm = 0x200
	je	.LBB28_26
# BB#22:                                # %land.lhs.true77
	andq	$65535, %rsi            # imm = 0xFFFF
	cmpq	$66, %rsi
	jne	.LBB28_26
# BB#23:                                # %land.lhs.true88
	movq	8(%r10), %rax
	movl	(%rax), %edx
	movq	%rdx, %rcx
	andq	$65535, %rcx            # imm = 0xFFFF
	cmpq	$61, %rcx
	jne	.LBB28_26
# BB#24:                                # %land.lhs.true93
	movl	8(%rax), %ecx
	cmpq	$58, %rcx
	jb	.LBB28_26
# BB#25:                                # %if.then100
	movq	$16, %rcx
	shrq	%cl, %rdx
	andq	$255, %rdx
	movq	%rdx, %r8
	movq	%rdx, %r11
	movq	%rax, %r10
.LBB28_26:                              # %if.end107
	testq	%r9, %r9
	movabsq	$0, %rcx
	movabsq	$1, %rdx
	movq	%rcx, %rax
	jne	.LBB28_28
# BB#27:                                # %if.end107
	movq	%rdx, %rax
.LBB28_28:                              # %if.end107
	movq	%rbx, 72(%rsp)          # 8-byte Spill
	movslq	optimize(%rip), %rsi
	testq	%rsi, %rsi
	movq	%rcx, %rsi
	jle	.LBB28_30
# BB#29:                                # %if.end107
	movq	%rdx, %rsi
.LBB28_30:                              # %if.end107
	andq	%rsi, %rax
	cmpq	%r11, %r8
	jne	.LBB28_32
# BB#31:                                # %if.end107
	movq	%rdx, %rcx
.LBB28_32:                              # %if.end107
	movq	%r9, %r12
	movq	%r10, %r9
	andq	%rcx, %rax
	jne	.LBB28_36
# BB#33:                                # %land.lhs.true116
	movzbl	(%r9), %ecx
	cmpq	$66, %rcx
	jne	.LBB28_36
# BB#34:                                # %land.lhs.true120
	movq	8(%r9), %rcx
	movzbl	(%rcx), %edx
	cmpq	$70, %rdx
	jne	.LBB28_36
# BB#35:                                # %if.then127
	movq	8(%rcx), %r9
.LBB28_36:                              # %if.end134
	movzbl	(%r9), %ecx
	cmpq	$65, %rcx
	jne	.LBB28_37
# BB#40:                                # %if.then149
	movq	%r11, 56(%rsp)          # 8-byte Spill
	movq	8(%r9), %rax
	movzbl	2(%rax), %r15d
	movq	%r15, 48(%rsp)          # 8-byte Spill
	xorq	%rsi, %rsi
	movq	%r15, %rdi
	movq	%r9, 88(%rsp)           # 8-byte Spill
	callq	type_for_mode
	movq	88(%rsp), %rcx          # 8-byte Reload
	movq	8(%rcx), %rcx
	movq	%rcx, 64(%rsp)          # 8-byte Spill
	movq	88(%rsp), %rcx          # 8-byte Reload
	movq	16(%rcx), %rsi
	movq	%rsi, 32(%rsp)          # 8-byte Spill
	movq	%rax, %rbx
	movq	%rbx, 40(%rsp)          # 8-byte Spill
	movq	$0, 16(%rsp)
	movq	$0, 8(%rsp)
	movq	$0, (%rsp)
	movq	%r12, %rdi
	movq	%rbx, %rdx
	movq	%r15, %rcx
	movq	%r15, %r8
	movq	80(%rsp), %r13          # 8-byte Reload
	movq	%r13, %r9
	callq	put_reg_into_stack
	movq	$0, 16(%rsp)
	movq	$0, 8(%rsp)
	movq	$0, (%rsp)
	movq	%r12, %rdi
	movq	64(%rsp), %rsi          # 8-byte Reload
	movq	%rbx, %rdx
	movq	%r15, %rcx
	movq	%r15, %r8
	movq	%r13, %r9
	callq	put_reg_into_stack
	movq	88(%rsp), %rdi          # 8-byte Reload
	movq	$66, %rax
	movw	%ax, (%rdi)
	movq	$0, 16(%rdi)
	movq	72(%rsp), %rsi          # 8-byte Reload
	movzbl	16(%rsi), %eax
	movzbl	tree_code_type(%rax), %eax
	cmpq	$100, %rax
	jne	.LBB28_42
# BB#41:                                # %if.then174
	movq	$0, 144(%rsi)
.LBB28_42:                              # %if.end177
	movq	$1, %rdx
	movq	%rsi, %rbx
	movq	%rdi, %r15
	callq	set_mem_attributes
	movq	%r15, %rcx
	movzbl	16(%rbx), %eax
	movzbl	tree_code_type(%rax), %eax
	cmpq	$100, %rax
	jne	.LBB28_44
# BB#43:                                # %if.then187
	movq	%rcx, 144(%rbx)
.LBB28_44:                              # %if.end190
	movq	8(%rcx), %rax
	movq	8(%rax), %rdi
	movq	%rdi, 8(%rcx)
	movzbl	(%rdi), %eax
	cmpq	$75, %rax
	movq	56(%rsp), %r13          # 8-byte Reload
	jne	.LBB28_46
# BB#45:                                # %if.then207
	movq	%rcx, %r15
	callq	copy_rtx
	movq	%r15, %rcx
	movq	%rax, 8(%rcx)
.LBB28_46:                              # %if.end215
	testq	%r14, %r14
	je	.LBB28_61
# BB#47:                                # %if.then217
	movq	%rcx, 88(%rsp)          # 8-byte Spill
	movq	8(%rbx), %rax
	xorq	%rbx, %rbx
	testq	%rax, %rax
	je	.LBB28_49
# BB#48:                                # %cond.true.i
	movl	16(%rax), %ebx
	movq	$13, %rcx
	shrq	%cl, %rbx
	andq	$1, %rbx
.LBB28_49:                              # %cond.end.i
	testq	%r12, %r12
	movq	%r12, %r14
	je	.LBB28_51
# BB#50:                                # %if.then.i
	movq	$24, %rdi
	callq	ggc_alloc
	movq	88(%rsp), %rcx          # 8-byte Reload
	movq	%rcx, (%rax)
	movl	%r13d, 8(%rax)
	movl	%ebx, 12(%rax)
	movq	344(%r14), %rcx
	movq	%rcx, 16(%rax)
	movq	%rax, 344(%r14)
	jmp	.LBB28_52
.LBB28_37:                              # %if.end134
	cmpq	$61, %rcx
	movq	72(%rsp), %rsi          # 8-byte Reload
	jne	.LBB28_61
# BB#38:                                # %if.then138
	testq	$1, %rax
	movq	%r12, %rdi
	je	.LBB28_39
# BB#62:                                # %if.then140
	movq	%r9, %rdi
	addq	$96, %rsp
	popq	%rbx
	popq	%r12
	popq	%r13
	popq	%r14
	popq	%r15
	jmp	gen_mem_addressof  # TAILCALL
.LBB28_39:                              # %if.else
	movq	8(%rsi), %rdx
	movq	%r14, 8(%rsp)
	movq	$0, 16(%rsp)
	movq	$0, (%rsp)
	movq	%r9, %rsi
	movq	%r11, %rcx
	movq	80(%rsp), %r9           # 8-byte Reload
	callq	put_reg_into_stack
	jmp	.LBB28_61
.LBB28_51:                              # %if.else.i
	xorq	%r8, %r8
	movq	88(%rsp), %rdi          # 8-byte Reload
	movq	%r13, %rsi
	movq	%rbx, %rdx
	movq	%rdi, %rcx
	callq	fixup_var_refs
.LBB28_52:                              # %schedule_fixup_var_refs.exit
	movq	40(%rsp), %r12          # 8-byte Reload
	xorq	%rbx, %rbx
	testq	%r12, %r12
	movq	48(%rsp), %r15          # 8-byte Reload
	je	.LBB28_54
# BB#53:                                # %cond.true.i309
	movl	16(%r12), %ebx
	movq	$13, %rcx
	shrq	%cl, %rbx
	andq	$1, %rbx
.LBB28_54:                              # %cond.end.i312
	testq	%r14, %r14
	je	.LBB28_56
# BB#55:                                # %if.then.i319
	movq	$24, %rdi
	callq	ggc_alloc
	movq	64(%rsp), %rcx          # 8-byte Reload
	movq	%rcx, (%rax)
	movl	%r15d, 8(%rax)
	movl	%ebx, 12(%rax)
	movq	344(%r14), %rcx
	movq	%rcx, 16(%rax)
	movq	%rax, 344(%r14)
	jmp	.LBB28_57
.LBB28_56:                              # %if.else.i320
	xorq	%r8, %r8
	movq	64(%rsp), %rdi          # 8-byte Reload
	movq	%r15, %rsi
	movq	%rbx, %rdx
	movq	%rdi, %rcx
	callq	fixup_var_refs
.LBB28_57:                              # %schedule_fixup_var_refs.exit321
	movq	%r14, %rax
	xorq	%rbx, %rbx
	testq	%r12, %r12
	je	.LBB28_59
# BB#58:                                # %cond.true.i327
	movl	16(%r12), %ebx
	movq	$13, %rcx
	shrq	%cl, %rbx
	andq	$1, %rbx
.LBB28_59:                              # %cond.end.i330
	testq	%rax, %rax
	je	.LBB28_63
# BB#60:                                # %if.then.i337
	movq	$24, %rdi
	movq	%rax, %r14
	callq	ggc_alloc
	movq	32(%rsp), %rcx          # 8-byte Reload
	movq	%rcx, (%rax)
	movl	%r15d, 8(%rax)
	movl	%ebx, 12(%rax)
	movq	344(%r14), %rcx
	movq	%rcx, 16(%rax)
	movq	%rax, 344(%r14)
.LBB28_61:                              # %if.end223
	addq	$96, %rsp
	popq	%rbx
	popq	%r12
	popq	%r13
	popq	%r14
	popq	%r15
	retq
.LBB28_63:                              # %if.else.i338
	xorq	%r8, %r8
	movq	32(%rsp), %rdi          # 8-byte Reload
	movq	%r15, %rsi
	movq	%rbx, %rdx
	movq	%rdi, %rcx
	addq	$96, %rsp
	popq	%rbx
	popq	%r12
	popq	%r13
	popq	%r14
	popq	%r15
	jmp	fixup_var_refs  # TAILCALL
.Ltmp178:
	.size	put_var_into_stack, .Ltmp178-put_var_into_stack
	.cfi_endproc

	.globl	gen_mem_addressof
	.align	16, 0x90
	.type	gen_mem_addressof,@function
gen_mem_addressof:                      # @gen_mem_addressof
	.cfi_startproc
# BB#0:                                 # %entry
	pushq	%r15
.Ltmp185:
	.cfi_def_cfa_offset 16
	pushq	%r14
.Ltmp186:
	.cfi_def_cfa_offset 24
	pushq	%r13
.Ltmp187:
	.cfi_def_cfa_offset 32
	pushq	%r12
.Ltmp188:
	.cfi_def_cfa_offset 40
	pushq	%rbx
.Ltmp189:
	.cfi_def_cfa_offset 48
.Ltmp190:
	.cfi_offset %rbx, -48
.Ltmp191:
	.cfi_offset %r12, -40
.Ltmp192:
	.cfi_offset %r13, -32
.Ltmp193:
	.cfi_offset %r14, -24
.Ltmp194:
	.cfi_offset %r15, -16
	movl	target_flags(%rip), %ebx
	movq	%rsi, %r14
	movq	%rdi, %r13
	movq	$25, %rcx
	movzbl	2(%r13), %edi
	shrq	%cl, %rbx
	andq	$1, %rbx
	orq	$4, %rbx
	callq	gen_reg_rtx
	movl	8(%r13), %ecx
	movq	$70, %rdi
	movq	%rbx, %rsi
	movq	%rax, %rdx
	movq	%r14, %r8
	callq	gen_rtx_fmt_eit
	movq	%rax, %r12
	xorq	%r15, %r15
	testq	%r14, %r14
	je	.LBB29_2
# BB#1:                                 # %cond.true
	movq	%r14, %rdi
	callq	get_alias_set
	movq	%rax, %r15
.LBB29_2:                               # %cond.end
	movq	8(%r12), %rax
	movl	(%r13), %ecx
	movl	(%rax), %edx
	andq	$134217728, %rcx        # imm = 0x8000000
	movabsq	$4160749567, %rsi       # imm = 0xF7FFFFFF
	andq	%rdx, %rsi
	orq	%rcx, %rsi
	movl	%esi, (%rax)
	movq	8(%r12), %rax
	movl	(%r13), %ecx
	movl	(%rax), %edx
	andq	$67108864, %rcx         # imm = 0x4000000
	movabsq	$4227858431, %rsi       # imm = 0xFBFFFFFF
	andq	%rdx, %rsi
	orq	%rcx, %rsi
	movl	%esi, (%rax)
	movl	(%r13), %esi
	movq	%rsi, %rax
	andq	$-65536, %rax           # imm = 0xFFFFFFFFFFFF0000
	orq	$66, %rax
	testq	%r14, %r14
	movl	%eax, (%r13)
	movq	$0, 16(%r13)
	movq	%r12, 8(%r13)
	je	.LBB29_19
# BB#3:                                 # %if.then
	movzbl	16(%r14), %esi
	movzbl	tree_code_type(%rsi), %ecx
	movq	8(%r14), %r12
	cmpq	$100, %rcx
	jne	.LBB29_5
# BB#4:                                 # %cond.true38
	movzbl	48(%r14), %edx
	jmp	.LBB29_6
.LBB29_19:                              # %if.else
	movq	$16, %rcx
	shrq	%cl, %rsi
	andq	$255, %rsi
	xorq	%rdx, %rdx
	jmp	.LBB29_20
.LBB29_5:                               # %cond.false42
	movl	60(%r12), %edx
	movq	$9, %rcx
	shrq	%cl, %rdx
	andq	$127, %rdx
.LBB29_6:                               # %cond.end50
	cmpq	$118, %rsi
	jne	.LBB29_8
# BB#7:                                 # %cond.true58
	leaq	48(%r14), %rcx
	jmp	.LBB29_9
.LBB29_8:                               # %cond.false60
	leaq	144(%r14), %rcx
.LBB29_9:                               # %cond.end79
	movq	(%rcx), %rbx
	movq	$16, %rcx
	shlq	%cl, %rdx
	movabsq	$4278190146, %rcx       # imm = 0xFF000042
	andq	%rcx, %rax
	orq	%rdx, %rax
	movl	%eax, (%r13)
	movzbl	16(%r14), %eax
	movzbl	tree_code_type(%rax), %eax
	cmpq	$100, %rax
	jne	.LBB29_12
# BB#10:                                # %cond.end79
	cmpq	%r13, %rbx
	jne	.LBB29_12
# BB#11:                                # %if.then97
	movq	$0, 144(%r14)
.LBB29_12:                              # %if.end
	movq	$1, %rdx
	movq	%r13, %rdi
	movq	%r14, %rsi
	callq	set_mem_attributes
	movq	%r13, %rdi
	movq	%r15, %rsi
	callq	set_mem_alias_set
	movl	16(%r14), %ecx
	movq	%rcx, %rax
	andq	$255, %rax
	movzbl	tree_code_type(%rax), %edx
	cmpq	$100, %rdx
	jne	.LBB29_15
# BB#13:                                # %if.end
	cmpq	%r13, %rbx
	jne	.LBB29_15
# BB#14:                                # %if.then112
	movq	%r13, 144(%r14)
.LBB29_15:                              # %if.end115
	testq	$65536, %rcx            # imm = 0x10000
	jne	.LBB29_18
# BB#16:                                # %lor.lhs.false
	movzbl	tree_code_type(%rax), %eax
	cmpq	$100, %rax
	jne	.LBB29_21
# BB#17:                                # %land.lhs.true130
	cmpq	$0, 104(%r14)
	je	.LBB29_21
.LBB29_18:                              # %if.then134
	movl	16(%r12), %edx
	movzbl	2(%r13), %esi
	movq	$13, %rcx
	shrq	%cl, %rdx
	andq	$1, %rdx
.LBB29_20:                              # %if.end146
	xorq	%r8, %r8
	movq	%r13, %rdi
	movq	%r13, %rcx
	callq	fixup_var_refs
.LBB29_21:                              # %if.end146
	movq	%r13, %rax
	popq	%rbx
	popq	%r12
	popq	%r13
	popq	%r14
	popq	%r15
	retq
.Ltmp195:
	.size	gen_mem_addressof, .Ltmp195-gen_mem_addressof
	.cfi_endproc

	.align	16, 0x90
	.type	put_reg_into_stack,@function
put_reg_into_stack:                     # @put_reg_into_stack
	.cfi_startproc
# BB#0:                                 # %entry
	pushq	%r15
.Ltmp202:
	.cfi_def_cfa_offset 16
	pushq	%r14
.Ltmp203:
	.cfi_def_cfa_offset 24
	pushq	%r13
.Ltmp204:
	.cfi_def_cfa_offset 32
	pushq	%r12
.Ltmp205:
	.cfi_def_cfa_offset 40
	pushq	%rbx
.Ltmp206:
	.cfi_def_cfa_offset 48
	subq	$32, %rsp
.Ltmp207:
	.cfi_def_cfa_offset 80
.Ltmp208:
	.cfi_offset %rbx, -48
.Ltmp209:
	.cfi_offset %r12, -40
.Ltmp210:
	.cfi_offset %r13, -32
.Ltmp211:
	.cfi_offset %r14, -24
.Ltmp212:
	.cfi_offset %r15, -16
	movq	80(%rsp), %rax
	movq	%r9, %r15
	movq	%r8, %r12
	movq	%rcx, 8(%rsp)           # 8-byte Spill
	movq	%rdx, 24(%rsp)          # 8-byte Spill
	movq	%rsi, %r14
	movq	%rdi, 16(%rsp)          # 8-byte Spill
	testq	%rdi, %rdi
	movq	%rdi, %rbx
	jne	.LBB30_2
# BB#1:                                 # %entry
	movq	cfun(%rip), %rbx
.LBB30_2:                               # %entry
	movabsq	$4294967295, %rsi       # imm = 0xFFFFFFFF
	testq	%rsi, %rax
	jne	.LBB30_4
# BB#3:                                 # %if.then
	movl	8(%r14), %eax
.LBB30_4:                               # %if.end
	movl	304(%rbx), %ecx
	andq	%rsi, %rax
	cmpq	%rcx, %rax
	jae	.LBB30_6
# BB#5:                                 # %if.end4
	movq	312(%rbx), %rcx
	movq	(%rcx,%rax,8), %rax
	testq	%rax, %rax
	jne	.LBB30_7
.LBB30_6:                               # %if.then6
	movq	$32, %rcx
	movq	%r12, %rax
	shlq	%cl, %rax
	movq	$32, %rcx
	sarq	%cl, %rax
	movq	%rsi, %r13
	movzbl	mode_size(%rax), %esi
	xorq	%rdx, %rdx
	movq	%r12, %rdi
	movq	%rbx, %rcx
	callq	assign_stack_local_1
	movq	%r13, %rsi
.LBB30_7:                               # %if.end9
	movl	(%r14), %edx
	andq	$-16777216, %rdx        # imm = 0xFFFFFFFFFF000000
	movq	$16, %rcx
	shlq	%cl, %r12
	andq	$16711680, %r12         # imm = 0xFF0000
	orq	%rdx, %r12
	orq	$66, %r12
	movl	%r12d, (%r14)
	movq	8(%rax), %rcx
	movq	%rcx, 8(%r14)
	movq	$0, 16(%r14)
	andq	$1, %r15
	shlq	$27, %r15
	andq	$-134283198, %r12       # imm = 0xFFFFFFFFF7FF0042
	orq	%r15, %r12
	movl	%r12d, (%r14)
	movq	24(%rsp), %r15          # 8-byte Reload
	testq	%r15, %r15
	je	.LBB30_13
# BB#8:                                 # %do.body
	movzbl	16(%r15), %ecx
	addq	$-18, %rcx
	andq	%rsi, %rcx
	cmpq	$5, %rcx
	jb	.LBB30_10
# BB#9:                                 # %lor.lhs.false58
	movzbl	3(%rax), %eax
	testq	$16, %rax
	je	.LBB30_11
.LBB30_10:                              # %if.then62
	movq	%rsi, %rbx
	andq	$1878982722, %r12       # imm = 0x6FFF0042
	orq	$268435456, %r12        # imm = 0x10000000
	jmp	.LBB30_12
.LBB30_11:                              # %if.else
	movq	%rsi, %rbx
	andq	$1878982722, %r12       # imm = 0x6FFF0042
	orq	$-2147483648, %r12      # imm = 0xFFFFFFFF80000000
.LBB30_12:                              # %do.end
	movl	%r12d, (%r14)
	movq	%r15, %rdi
	callq	get_alias_set
	movq	%r14, %rdi
	movq	%rax, %rsi
	callq	set_mem_alias_set
	movq	%rbx, %rsi
.LBB30_13:                              # %if.end75
	movq	88(%rsp), %rax
	testq	%rsi, %rax
	je	.LBB30_18
# BB#14:                                # %if.then77
	xorq	%rbx, %rbx
	testq	%r15, %r15
	je	.LBB30_16
# BB#15:                                # %cond.true.i
	movl	16(%r15), %ebx
	movq	$13, %rcx
	shrq	%cl, %rbx
	andq	$1, %rbx
.LBB30_16:                              # %cond.end.i
	movq	16(%rsp), %r15          # 8-byte Reload
	testq	%r15, %r15
	je	.LBB30_19
# BB#17:                                # %if.then.i
	movq	$24, %rdi
	callq	ggc_alloc
	movq	%r14, (%rax)
	movq	8(%rsp), %rcx           # 8-byte Reload
	movl	%ecx, 8(%rax)
	movl	%ebx, 12(%rax)
	movq	344(%r15), %rcx
	movq	%rcx, 16(%rax)
	movq	%rax, 344(%r15)
.LBB30_18:                              # %if.end78
	addq	$32, %rsp
	popq	%rbx
	popq	%r12
	popq	%r13
	popq	%r14
	popq	%r15
	retq
.LBB30_19:                              # %if.else.i
	movq	%r14, %rdi
	movq	8(%rsp), %rsi           # 8-byte Reload
	movq	%rbx, %rdx
	movq	%r14, %rcx
	movq	96(%rsp), %r8
	addq	$32, %rsp
	popq	%rbx
	popq	%r12
	popq	%r13
	popq	%r14
	popq	%r15
	jmp	fixup_var_refs  # TAILCALL
.Ltmp213:
	.size	put_reg_into_stack, .Ltmp213-put_reg_into_stack
	.cfi_endproc

	.globl	flush_addressof
	.align	16, 0x90
	.type	flush_addressof,@function
flush_addressof:                        # @flush_addressof
	.cfi_startproc
# BB#0:                                 # %entry
	pushq	%rbx
.Ltmp216:
	.cfi_def_cfa_offset 16
	subq	$32, %rsp
.Ltmp217:
	.cfi_def_cfa_offset 48
.Ltmp218:
	.cfi_offset %rbx, -16
	movq	%rdi, %rbx
	movl	16(%rbx), %eax
	andq	$254, %rax
	cmpq	$34, %rax
	jne	.LBB31_17
# BB#1:                                 # %land.lhs.true
	movq	144(%rbx), %rax
	testq	%rax, %rax
	jne	.LBB31_3
# BB#2:                                 # %cond.end
	xorq	%rsi, %rsi
	movq	%rbx, %rdi
	callq	make_decl_rtl
	movq	144(%rbx), %rax
	testq	%rax, %rax
	je	.LBB31_17
.LBB31_3:                               # %cond.end22
	movzbl	(%rax), %ecx
	cmpq	$66, %rcx
	jne	.LBB31_17
# BB#4:                                 # %cond.end37
	movq	8(%rax), %rdi
	movzbl	(%rdi), %eax
	cmpq	$70, %rax
	jne	.LBB31_17
# BB#5:                                 # %cond.end52
	movq	8(%rdi), %rax
	movzbl	(%rax), %eax
	cmpq	$61, %rax
	jne	.LBB31_17
# BB#6:                                 # %cond.end72
	movq	8(%rdi), %rsi
	movl	(%rsi), %eax
	movq	%rax, %rcx
	andq	$65535, %rcx            # imm = 0xFFFF
	cmpq	$61, %rcx
	jne	.LBB31_18
# BB#7:                                 # %if.end.i
	movq	24(%rdi), %r10
	testq	%r10, %r10
	je	.LBB31_8
# BB#9:                                 # %if.then3.i
	movl	16(%r10), %r8d
	movq	8(%r10), %rdx
	movq	%r8, %rbx
	andq	$255, %rbx
	xorq	%r9, %r9
	cmpq	$118, %rbx
	je	.LBB31_11
# BB#10:                                # %land.rhs.i
	movq	%r8, %r9
	andq	$2048, %r9              # imm = 0x800
	movq	$11, %rcx
	shrq	%cl, %r9
.LBB31_11:                              # %land.end.i
	testq	$65536, %r8             # imm = 0x10000
	movq	$1, %r8
	jne	.LBB31_16
# BB#12:                                # %lor.rhs.i
	movzbl	tree_code_type(%rbx), %ecx
	xorq	%r8, %r8
	cmpq	$100, %rcx
	jne	.LBB31_16
# BB#13:                                # %land.rhs25.i
	cmpq	$0, 104(%r10)
	je	.LBB31_14
# BB#15:                                # %land.rhs25.i
	movabsq	$1, %r8
	jmp	.LBB31_16
.LBB31_8:
	xorq	%r9, %r9
	movq	$1, %r8
	xorq	%rdx, %rdx
.LBB31_16:                              # %put_addressof_into_stack.exit
	movl	16(%rdi), %edi
	movq	$16, %rcx
	shrq	%cl, %rax
	andq	$255, %rax
	movq	%r8, 8(%rsp)
	movq	%rdi, (%rsp)
	xorq	%rdi, %rdi
	movq	$0, 16(%rsp)
	movq	%rax, %rcx
	movq	%rax, %r8
	callq	put_reg_into_stack
.LBB31_17:                              # %if.end
	addq	$32, %rsp
	popq	%rbx
	retq
.LBB31_14:
	movabsq	$0, %r8
	jmp	.LBB31_16
.LBB31_18:                              # %if.then.i
	movabsq	$.L.str, %rax
	movabsq	$.L__FUNCTION__.put_addressof_into_stack, %rcx
	movq	$2997, %rsi             # imm = 0xBB5
	movq	%rax, %rdi
	movq	%rcx, %rdx
	callq	fancy_abort
.Ltmp219:
	.size	flush_addressof, .Ltmp219-flush_addressof
	.cfi_endproc

	.globl	purge_addressof
	.align	16, 0x90
	.type	purge_addressof,@function
purge_addressof:                        # @purge_addressof
	.cfi_startproc
# BB#0:                                 # %entry
	pushq	%r15
.Ltmp226:
	.cfi_def_cfa_offset 16
	pushq	%r14
.Ltmp227:
	.cfi_def_cfa_offset 24
	pushq	%r13
.Ltmp228:
	.cfi_def_cfa_offset 32
	pushq	%r12
.Ltmp229:
	.cfi_def_cfa_offset 40
	pushq	%rbx
.Ltmp230:
	.cfi_def_cfa_offset 48
	subq	$176, %rsp
.Ltmp231:
	.cfi_def_cfa_offset 224
.Ltmp232:
	.cfi_offset %rbx, -48
.Ltmp233:
	.cfi_offset %r12, -40
.Ltmp234:
	.cfi_offset %r13, -32
.Ltmp235:
	.cfi_offset %r14, -24
.Ltmp236:
	.cfi_offset %r15, -16
	movq	%rdi, %r13
	movabsq	$insns_for_mem_newfunc, %rsi
	movabsq	$insns_for_mem_hash, %rdx
	movabsq	$insns_for_mem_comp, %rcx
	leaq	16(%rsp), %rbx
	movq	%rbx, %rdi
	callq	hash_table_init
	xorq	%rax, %rax
	testq	%r13, %r13
	movq	%rbx, 144(%rsp)
	movl	%eax, 160(%rsp)
	je	.LBB32_25
# BB#1:
	movabsq	$insns_for_mem_walk, %r14
	leaq	168(%rsp), %r15
	leaq	144(%rsp), %rbx
	.align	16, 0x90
.LBB32_2:                               # %for.body5.lr.ph.i
                                        # =>This Loop Header: Depth=1
                                        #     Child Loop BB32_3 Depth 2
	movq	%r13, 168(%rsp)
	movq	%r13, %rax
	.align	16, 0x90
.LBB32_3:                               # %for.body5.i
                                        #   Parent Loop BB32_2 Depth=1
                                        # =>  This Inner Loop Header: Depth=2
	movzbl	(%rax), %ecx
	movzbl	rtx_class(%rcx), %ecx
	cmpq	$105, %rcx
	jne	.LBB32_5
# BB#4:                                 # %if.then.i
                                        #   in Loop: Header=BB32_3 Depth=2
	movq	%rax, 152(%rsp)
	movq	%r15, %rdi
	movq	%r14, %rsi
	movq	%rbx, %rdx
	callq	for_each_rtx
	movq	168(%rsp), %rax
.LBB32_5:                               # %for.inc.i
                                        #   in Loop: Header=BB32_3 Depth=2
	movq	24(%rax), %rax
	testq	%rax, %rax
	movq	%rax, 168(%rsp)
	jne	.LBB32_3
# BB#6:                                 # %for.inc10.i
                                        #   in Loop: Header=BB32_2 Depth=1
	movl	160(%rsp), %eax
	incq	%rax
	movq	$32, %rcx
	movq	%rax, %rdx
	shlq	%cl, %rdx
	movq	$32, %rcx
	sarq	%cl, %rdx
	cmpq	$2, %rdx
	movl	%eax, 160(%rsp)
	jl	.LBB32_2
# BB#7:                                 # %for.cond.preheader
	testq	%r13, %r13
	je	.LBB32_24
# BB#8:
	movabsq	$4294967295, %r14       # imm = 0xFFFFFFFF
	leaq	16(%rsp), %r15
	leaq	8(%rsp), %r12
	.align	16, 0x90
.LBB32_9:                               # %for.body
                                        # =>This Loop Header: Depth=1
                                        #     Child Loop BB32_17 Depth 2
	movzbl	(%r13), %eax
	addq	$-32, %rax
	andq	%r14, %rax
	cmpq	$2, %rax
	ja	.LBB32_23
# BB#10:                                # %if.then
                                        #   in Loop: Header=BB32_9 Depth=1
	movq	32(%r13), %rdi
	leaq	32(%r13), %rbx
	callq	asm_noperands
	movq	$32, %rcx
	shlq	%cl, %rax
	movq	$32, %rcx
	sarq	%cl, %rax
	testq	%rax, %rax
	movabsq	$0, %rdx
	jle	.LBB32_12
# BB#11:                                # %if.then
                                        #   in Loop: Header=BB32_9 Depth=1
	movabsq	$1, %rdx
.LBB32_12:                              # %if.then
                                        #   in Loop: Header=BB32_9 Depth=1
	xorq	%rcx, %rcx
	movq	%rbx, %rdi
	movq	%r13, %rsi
	movq	%r15, %r8
	callq	purge_addressof_1
	testq	%rax, %rax
	je	.LBB32_13
# BB#15:                                # %if.end
                                        #   in Loop: Header=BB32_9 Depth=1
	leaq	56(%r13), %rbx
	xorq	%rsi, %rsi
	xorq	%rdx, %rdx
	xorq	%rcx, %rcx
	movq	%rbx, %rdi
	movq	%r15, %r8
	callq	purge_addressof_1
	testq	%rax, %rax
	jne	.LBB32_23
# BB#16:                                # %for.cond22.preheader
                                        #   in Loop: Header=BB32_9 Depth=1
	movq	(%rbx), %rax
	jmp	.LBB32_17
	.align	16, 0x90
.LBB32_22:                              # %for.inc
                                        #   in Loop: Header=BB32_17 Depth=2
	movq	8(%rsp), %rax
	movq	16(%rax), %rax
.LBB32_17:                              # %for.cond22.preheader
                                        #   Parent Loop BB32_9 Depth=1
                                        # =>  This Inner Loop Header: Depth=2
	testq	%rax, %rax
	movq	%rax, 8(%rsp)
	je	.LBB32_23
# BB#18:                                # %for.body24
                                        #   in Loop: Header=BB32_17 Depth=2
	movl	(%rax), %eax
	andq	$16711680, %rax         # imm = 0xFF0000
	cmpq	$393216, %rax           # imm = 0x60000
	je	.LBB32_19
# BB#20:                                # %if.end30
                                        #   in Loop: Header=BB32_17 Depth=2
	xorq	%rdx, %rdx
	movq	%r12, %rdi
	movabsq	$is_addressof, %rsi
	callq	for_each_rtx
	testq	%r14, %rax
	je	.LBB32_22
# BB#21:                                # %if.then33
                                        #   in Loop: Header=BB32_17 Depth=2
	movq	8(%rsp), %rsi
	movq	%r13, %rdi
	callq	remove_note
	jmp	.LBB32_22
	.align	16, 0x90
.LBB32_23:                              # %for.inc40
                                        #   in Loop: Header=BB32_9 Depth=1
	movq	24(%r13), %r13
	testq	%r13, %r13
	jne	.LBB32_9
	jmp	.LBB32_24
.LBB32_25:                              # %for.cond.preheader.thread
	movq	$0, 168(%rsp)
	movq	$2, %rax
	movl	%eax, 160(%rsp)
.LBB32_24:                              # %for.end44
	leaq	16(%rsp), %rdi
	callq	hash_table_free
	movq	$0, purge_bitfield_addressof_replacements(%rip)
	movq	$0, purge_addressof_replacements(%rip)
	callq	get_insns
	movq	%rax, %rdi
	callq	unshare_all_rtl_again
	addq	$176, %rsp
	popq	%rbx
	popq	%r12
	popq	%r13
	popq	%r14
	popq	%r15
	retq
.LBB32_13:                              # %if.then13
	movabsq	$.L.str, %rax
	movabsq	$.L__FUNCTION__.purge_addressof, %rcx
	movq	$3455, %rsi             # imm = 0xD7F
	jmp	.LBB32_14
.LBB32_19:                              # %if.then29
	movabsq	$.L.str, %rax
	movabsq	$.L__FUNCTION__.purge_addressof, %rcx
	movq	$3470, %rsi             # imm = 0xD8E
.LBB32_14:                              # %if.then13
	movq	%rax, %rdi
	movq	%rcx, %rdx
	callq	fancy_abort
.Ltmp237:
	.size	purge_addressof, .Ltmp237-purge_addressof
	.cfi_endproc

	.align	16, 0x90
	.type	insns_for_mem_newfunc,@function
insns_for_mem_newfunc:                  # @insns_for_mem_newfunc
	.cfi_startproc
# BB#0:                                 # %entry
	pushq	%rax
.Ltmp239:
	.cfi_def_cfa_offset 16
	movq	%rsi, %rcx
	movq	%rdi, %rax
	testq	%rax, %rax
	jne	.LBB33_2
# BB#1:                                 # %if.end
	movq	$32, %rsi
	movq	%rcx, %rdi
	callq	hash_allocate
	movq	$0, 24(%rax)
.LBB33_2:                               # %return
	popq	%rdx
	retq
.Ltmp240:
	.size	insns_for_mem_newfunc, .Ltmp240-insns_for_mem_newfunc
	.cfi_endproc

	.align	16, 0x90
	.type	insns_for_mem_hash,@function
insns_for_mem_hash:                     # @insns_for_mem_hash
	.cfi_startproc
# BB#0:                                 # %entry
	movq	%rdi, %rax
	retq
.Ltmp241:
	.size	insns_for_mem_hash, .Ltmp241-insns_for_mem_hash
	.cfi_endproc

	.align	16, 0x90
	.type	insns_for_mem_comp,@function
insns_for_mem_comp:                     # @insns_for_mem_comp
	.cfi_startproc
# BB#0:                                 # %entry
	cmpq	%rsi, %rdi
	jne	.LBB35_1
# BB#2:                                 # %entry
	movabsq	$1, %rax
	retq
.LBB35_1:
	movabsq	$0, %rax
	retq
.Ltmp242:
	.size	insns_for_mem_comp, .Ltmp242-insns_for_mem_comp
	.cfi_endproc

	.align	16, 0x90
	.type	purge_addressof_1,@function
purge_addressof_1:                      # @purge_addressof_1
	.cfi_startproc
# BB#0:                                 # %entry
	pushq	%r15
.Ltmp249:
	.cfi_def_cfa_offset 16
	pushq	%r14
.Ltmp250:
	.cfi_def_cfa_offset 24
	pushq	%r13
.Ltmp251:
	.cfi_def_cfa_offset 32
	pushq	%r12
.Ltmp252:
	.cfi_def_cfa_offset 40
	pushq	%rbx
.Ltmp253:
	.cfi_def_cfa_offset 48
	subq	$192, %rsp
.Ltmp254:
	.cfi_def_cfa_offset 240
.Ltmp255:
	.cfi_offset %rbx, -48
.Ltmp256:
	.cfi_offset %r12, -40
.Ltmp257:
	.cfi_offset %r13, -32
.Ltmp258:
	.cfi_offset %r14, -24
.Ltmp259:
	.cfi_offset %r15, -16
	movq	%rsi, %r14
	movq	%r14, 80(%rsp)          # 8-byte Spill
	movq	%rdi, %rbx
	movabsq	$4294967295, %r15       # imm = 0xFFFFFFFF
	testq	%r15, %rdx
	je	.LBB36_1
# BB#7:                                 # %restart.us
	movq	(%rbx), %r10
	testq	%r10, %r10
	movq	$1, %r12
	je	.LBB36_122
# BB#8:                                 # %if.end.us
	movzbl	(%r10), %r12d
	cmpq	$47, %r12
	je	.LBB36_9
# BB#10:                                # %if.end.us
	cmpq	$70, %r12
	jne	.LBB36_16
# BB#11:
	movq	%r8, 64(%rsp)           # 8-byte Spill
.LBB36_12:                              # %if.then13
	movq	8(%r10), %rsi
	movl	(%rsi), %eax
	movq	%rax, %rcx
	andq	$65535, %rcx            # imm = 0xFFFF
	cmpq	$61, %rcx
	jne	.LBB36_13
# BB#23:                                # %if.end.i
	movq	24(%r10), %rdi
	xorq	%r9, %r9
	testq	%rdi, %rdi
	movq	$1, %r8
	movabsq	$0, %rdx
	je	.LBB36_32
# BB#24:                                # %if.then3.i
	movl	16(%rdi), %r8d
	movq	8(%rdi), %rdx
	movq	%r8, %rbx
	andq	$255, %rbx
	xorq	%r9, %r9
	cmpq	$118, %rbx
	je	.LBB36_26
# BB#25:                                # %land.rhs.i
	movq	%r8, %r9
	andq	$2048, %r9              # imm = 0x800
	movq	$11, %rcx
	shrq	%cl, %r9
.LBB36_26:                              # %land.end.i
	testq	$65536, %r8             # imm = 0x10000
	movq	$1, %r8
	jne	.LBB36_32
# BB#27:                                # %lor.rhs.i
	movzbl	tree_code_type(%rbx), %ecx
	xorq	%r8, %r8
	cmpq	$100, %rcx
	jne	.LBB36_32
# BB#28:                                # %land.rhs25.i
	cmpq	$0, 104(%rdi)
	je	.LBB36_29
# BB#30:                                # %land.rhs25.i
	movq	%r10, %r13
	movabsq	$1, %r8
	jmp	.LBB36_31
.LBB36_1:
	movq	%rcx, 56(%rsp)          # 8-byte Spill
	movq	%r14, %r13
	movq	%rdx, 72(%rsp)          # 8-byte Spill
	movq	%r8, 64(%rsp)           # 8-byte Spill
	.align	16, 0x90
.LBB36_2:                               # %restart
                                        # =>This Inner Loop Header: Depth=1
	movq	(%rbx), %r10
	testq	%r10, %r10
	movq	$1, %r12
	je	.LBB36_122
# BB#3:                                 # %if.end
                                        #   in Loop: Header=BB36_2 Depth=1
	movl	(%r10), %esi
	movq	%rsi, %r12
	andq	$65535, %r12            # imm = 0xFFFF
	cmpq	$66, %r12
	movq	%r13, %r14
	jne	.LBB36_4
# BB#39:                                # %land.lhs.true48
                                        #   in Loop: Header=BB36_2 Depth=1
	movq	8(%r10), %rax
	movzbl	(%rax), %ecx
	cmpq	$70, %rcx
	movq	$66, %r12
	jne	.LBB36_18
# BB#40:                                # %if.then58
                                        #   in Loop: Header=BB36_2 Depth=1
	movq	8(%rax), %r9
	movl	(%r9), %edi
	movq	%rdi, %rax
	andq	$65535, %rax            # imm = 0xFFFF
	cmpq	$61, %rax
	jne	.LBB36_41
# BB#43:                                # %land.lhs.true79
                                        #   in Loop: Header=BB36_2 Depth=1
	testq	$134217728, %rsi        # imm = 0x8000000
	jne	.LBB36_18
# BB#44:                                # %land.lhs.true79
                                        #   in Loop: Header=BB36_2 Depth=1
	movq	%rsi, %rax
	andq	$16711680, %rax         # imm = 0xFF0000
	andq	%r15, %rax
	cmpq	$3342336, %rax          # imm = 0x330000
	je	.LBB36_18
# BB#45:                                # %land.lhs.true96
                                        #   in Loop: Header=BB36_2 Depth=1
	movq	%r10, 88(%rsp)          # 8-byte Spill
	movq	$16, %rcx
	shrq	%cl, %rsi
	andq	$255, %rsi
	movq	$16, %rcx
	shrq	%cl, %rdi
	andq	$255, %rdi
	cmpq	%rdi, %rsi
	jne	.LBB36_46
.LBB36_107:                             # %if.else351
                                        #   in Loop: Header=BB36_2 Depth=1
	xorq	%rcx, %rcx
	movq	%r14, %rdi
	movq	%r14, %r13
	movq	%rbx, %rsi
	movq	%r9, %rdx
	movq	%r9, %r14
	callq	validate_change
	testq	%r15, %rax
	je	.LBB36_108
# BB#109:                               # %if.then354
                                        #   in Loop: Header=BB36_2 Depth=1
	movl	(%r14), %eax
	orq	$2, %rax
	andq	$65535, %rax            # imm = 0xFFFF
	cmpq	$63, %rax
	movq	%r14, %rdx
	movq	88(%rsp), %rax          # 8-byte Reload
	jne	.LBB36_2
	jmp	.LBB36_110
.LBB36_41:                              # %if.then58
                                        #   in Loop: Header=BB36_2 Depth=1
	movq	%r10, 88(%rsp)          # 8-byte Spill
	cmpq	$66, %rax
	jne	.LBB36_107
# BB#42:                                # %if.then70
	movq	$16, %rcx
	shrq	%cl, %rsi
	andq	$255, %rsi
	xorq	%rdx, %rdx
	xorq	%rcx, %rcx
	movq	$1, %r8
	movq	%r9, %rdi
	callq	adjust_address_1
	movq	88(%rsp), %r10          # 8-byte Reload
	jmp	.LBB36_18
.LBB36_9:
	movq	%rdx, 72(%rsp)          # 8-byte Spill
	movq	%r8, 64(%rsp)           # 8-byte Spill
.LBB36_6:                               # %if.then2
	leaq	8(%r10), %rdi
	movq	$1, %rcx
	movq	%r14, %rsi
	movq	72(%rsp), %r15          # 8-byte Reload
	movq	%r15, %rdx
	movq	64(%rsp), %r12          # 8-byte Reload
	movq	%r12, %r8
	movq	%r10, %rbx
	callq	purge_addressof_1
	movq	%rax, %r13
	addq	$16, %rbx
	xorq	%rcx, %rcx
	movq	%rbx, %rdi
	movq	%r14, %rsi
	movq	%r15, %rdx
	movq	%r12, %r8
	callq	purge_addressof_1
	movq	%rax, %r12
	andq	%r13, %r12
	jmp	.LBB36_122
.LBB36_16:                              # %if.end.us
	movq	%rdx, 72(%rsp)          # 8-byte Spill
	movq	%r8, 64(%rsp)           # 8-byte Spill
	cmpq	$66, %r12
	jne	.LBB36_18
# BB#17:                                # %land.lhs.true48.us
	movq	$66, %r12
	jmp	.LBB36_18
.LBB36_13:                              # %if.then13
	movq	%r10, 88(%rsp)          # 8-byte Spill
	cmpq	$66, %rcx
	jne	.LBB36_14
# BB#33:                                # %if.end22
	movq	8(%rsi), %rdi
	callq	copy_rtx
	xorq	%rcx, %rcx
	movq	%r14, %rdi
	movq	%rbx, %rsi
	movq	%rax, %rdx
	movq	%rax, %r13
	callq	validate_change
	testq	%r15, %rax
	movq	$1, %r12
	jne	.LBB36_122
# BB#34:                                # %lor.lhs.false
	movq	%rbx, 48(%rsp)          # 8-byte Spill
	movq	88(%rsp), %rdi          # 8-byte Reload
	movq	%r13, %rsi
	movq	%r14, %rdx
	callq	validate_replace_rtx
	movq	%r15, %rcx
	testq	%rcx, %rax
	jne	.LBB36_122
# BB#35:                                # %if.end35
	movq	%rcx, %r15
	callq	start_sequence
	xorq	%rsi, %rsi
	movq	%r13, %rdi
	callq	force_operand
	movq	%rax, %rbx
	xorq	%rcx, %rcx
	movq	%r14, %rdi
	movq	48(%rsp), %rsi          # 8-byte Reload
	movq	%rbx, %rdx
	callq	validate_change
	testq	%r15, %rax
	jne	.LBB36_38
# BB#36:                                # %land.lhs.true
	movq	88(%rsp), %rdi          # 8-byte Reload
	movq	%rbx, %rsi
	movq	%r14, %rdx
	callq	validate_replace_rtx
	testq	%r15, %rax
	je	.LBB36_37
.LBB36_38:                              # %if.end42
	callq	gen_sequence
	movq	%rax, %r15
	callq	end_sequence
	movq	%r15, %rdi
	movq	%r14, %rsi
	callq	emit_insn_before
	jmp	.LBB36_122
.LBB36_108:
	movq	%r13, %r14
	movq	88(%rsp), %r10          # 8-byte Reload
	jmp	.LBB36_18
.LBB36_46:                              # %if.then105
	testq	%r14, %r14
	movq	88(%rsp), %r10          # 8-byte Reload
	je	.LBB36_47
# BB#67:                                # %if.end238
	movq	%r9, 40(%rsp)           # 8-byte Spill
	movzbl	mode_bitsize(%rsi,%rsi), %ecx
	movzbl	mode_bitsize(%rdi,%rdi), %eax
	cmpq	%rax, %rcx
	ja	.LBB36_18
# BB#68:                                # %land.lhs.true253
	movq	%rcx, 32(%rsp)          # 8-byte Spill
	movq	%r10, %r13
	movq	%rbx, 48(%rsp)          # 8-byte Spill
	callq	int_mode_for_mode
	movq	%r15, %rcx
	andq	%rcx, %rax
	cmpq	$51, %rax
	jne	.LBB36_70
# BB#69:
	movq	%r13, %r10
	jmp	.LBB36_18
.LBB36_110:                             # %for.cond366.preheader
	movq	purge_addressof_replacements(%rip), %rbx
	movq	8(%rax), %r14
	xorq	%rcx, %rcx
	testq	%rbx, %rbx
	je	.LBB36_116
# BB#111:
	movq	%rdx, %r12
	.align	16, 0x90
.LBB36_112:                             # %for.body369
                                        # =>This Inner Loop Header: Depth=1
	movq	%rax, %r13
	movq	8(%rbx), %rsi
	movq	%r14, %rdi
	callq	rtx_equal_p
	movq	16(%rbx), %rcx
	testq	%r15, %rax
	jne	.LBB36_113
# BB#114:                               # %for.inc386
                                        #   in Loop: Header=BB36_112 Depth=1
	movq	16(%rcx), %rbx
	movq	%r13, %rax
	movq	8(%rax), %r14
	testq	%rbx, %rbx
	jne	.LBB36_112
# BB#115:                               # %for.cond366.for.end393_crit_edge
	movq	purge_addressof_replacements(%rip), %rcx
	movq	%r12, %rdx
.LBB36_116:                             # %for.end393
	movq	$3, %rdi
	xorq	%rsi, %rsi
	callq	gen_rtx_fmt_ee
	movq	%rax, %rcx
	movq	$3, %rdi
	xorq	%rsi, %rsi
	xorq	%rax, %rax
	movq	%r14, %rdx
	callq	gen_rtx
	movq	%rax, purge_addressof_replacements(%rip)
	movq	$1, %r12
	jmp	.LBB36_122
.LBB36_4:                               # %if.end
	cmpq	$70, %r12
	je	.LBB36_12
# BB#5:                                 # %if.end
	cmpq	$47, %r12
	jne	.LBB36_18
	jmp	.LBB36_6
.LBB36_47:                              # %for.cond.preheader
	movq	%rbx, %r14
	movq	purge_bitfield_addressof_replacements(%rip), %rbx
	testq	%rbx, %rbx
	je	.LBB36_48
.LBB36_51:                              # %for.body
                                        # =>This Inner Loop Header: Depth=1
	movq	8(%rbx), %rsi
	movq	%r10, %rdi
	movq	%r10, %r12
	callq	rtx_equal_p
	movq	16(%rbx), %rcx
	testq	%r15, %rax
	jne	.LBB36_52
# BB#50:                                # %for.inc
                                        #   in Loop: Header=BB36_51 Depth=1
	movq	16(%rcx), %rbx
	testq	%rbx, %rbx
	movq	%r12, %r10
	jne	.LBB36_51
.LBB36_48:                              # %for.cond129.preheader
	movq	purge_addressof_replacements(%rip), %rbx
	testq	%rbx, %rbx
	je	.LBB36_49
.LBB36_53:                              # %for.body132
                                        # =>This Inner Loop Header: Depth=1
	movq	8(%r10), %rdi
	movq	%r10, %r12
	movq	8(%rbx), %rsi
	callq	rtx_equal_p
	movq	16(%rbx), %rcx
	testq	%r15, %rax
	jne	.LBB36_54
# BB#65:                                # %for.inc230
                                        #   in Loop: Header=BB36_53 Depth=1
	movq	16(%rcx), %rbx
	testq	%rbx, %rbx
	movq	%r12, %r10
	jne	.LBB36_53
# BB#66:
	xorq	%r12, %r12
	jmp	.LBB36_122
.LBB36_113:                             # %if.then378
	movq	%r12, 8(%rcx)
	movq	$1, %r12
	jmp	.LBB36_122
.LBB36_70:                              # %if.then260
	movq	16(%r14), %r15
	movq	%rcx, %rbx
	callq	start_sequence
	movq	56(%rsp), %rax          # 8-byte Reload
	testq	%rbx, %rax
	je	.LBB36_95
# BB#71:                                # %if.then262
	movzbl	2(%r13), %edi
	callq	gen_reg_rtx
	movq	%rax, 56(%rsp)          # 8-byte Spill
	xorq	%rcx, %rcx
	movq	%r14, %rdi
	movq	48(%rsp), %rsi          # 8-byte Reload
	movq	%rax, %rdx
	callq	validate_change
	testq	%rbx, %rax
	je	.LBB36_72
# BB#73:                                # %if.end273
	callq	gen_sequence
	movq	%rax, %r13
	callq	end_sequence
	movq	%r13, %rdi
	movq	%r14, %rsi
	callq	emit_insn_before
	testq	%r15, %r15
	je	.LBB36_75
# BB#74:                                # %cond.true
	movq	24(%r15), %r12
	jmp	.LBB36_76
.LBB36_52:                              # %if.then115
	movq	8(%rcx), %rax
	movq	%rax, (%r14)
	movq	$1, %r12
	jmp	.LBB36_122
.LBB36_49:
	xorq	%r12, %r12
	jmp	.LBB36_122
.LBB36_29:
	movq	%r10, %r13
	movabsq	$0, %r8
.LBB36_31:                              # %land.rhs25.i
	movq	%r13, %r10
.LBB36_32:                              # %put_addressof_into_stack.exit
	movl	16(%r10), %ebx
	movq	$16, %rcx
	shrq	%cl, %rax
	andq	$255, %rax
	movq	64(%rsp), %rcx          # 8-byte Reload
	movq	%rcx, 16(%rsp)
	movq	%r8, 8(%rsp)
	xorq	%rdi, %rdi
	movq	%rbx, (%rsp)
	movq	%rax, %rcx
	movq	%rax, %r8
	callq	put_reg_into_stack
	movq	$1, %r12
	jmp	.LBB36_122
.LBB36_54:                              # %if.then141
	movq	8(%rcx), %rsi
	movl	(%rsi), %eax
	movl	(%r12), %edi
	movq	%rax, %rcx
	xorq	%rdi, %rcx
	testq	$16711680, %rcx         # imm = 0xFF0000
	movq	$1, %r12
	je	.LBB36_57
# BB#55:                                # %lor.lhs.false156
	andq	$65535, %rax            # imm = 0xFFFF
	cmpq	$61, %rax
	je	.LBB36_60
# BB#56:                                # %lor.lhs.false156
	cmpq	$63, %rax
	jne	.LBB36_57
# BB#58:                                # %land.lhs.true184
	movl	16(%rsi), %eax
	testq	%rax, %rax
	jne	.LBB36_60
# BB#59:                                # %if.then189
	movq	8(%rsi), %rsi
.LBB36_60:                              # %if.end193
	movq	$16, %rcx
	shrq	%cl, %rdi
	andq	$255, %rdi
	movl	target_flags(%rip), %edx
	movzbl	mode_size(%rdi), %eax
	movq	$23, %rcx
	shrq	%cl, %rdx
	andq	$4, %rdx
	addq	$4, %rdx
	movabsq	$4294967292, %rcx       # imm = 0xFFFFFFFC
	andq	%rdx, %rcx
	cmpq	%rcx, %rax
	jbe	.LBB36_63
# BB#61:                                # %land.lhs.true203
	movzbl	2(%rsi), %ecx
	movzbl	mode_size(%rcx), %ecx
	cmpq	%rcx, %rax
	jbe	.LBB36_63
# BB#62:                                # %if.then218
	xorq	%rdx, %rdx
	callq	gen_rtx_SUBREG
	movq	%rax, (%r14)
	jmp	.LBB36_122
.LBB36_95:                              # %if.else313
	movq	40(%rsp), %rdi          # 8-byte Reload
	movzbl	2(%rdi), %eax
	movzbl	mode_size(%rax), %eax
	movzbl	2(%r13), %r9d
	movq	%rax, 8(%rsp)
	xorq	%rdx, %rdx
	movq	$1, %rcx
	xorq	%r8, %r8
	movq	%r9, (%rsp)
	movq	32(%rsp), %rsi          # 8-byte Reload
	callq	extract_bit_field
	movq	%rax, 56(%rsp)          # 8-byte Spill
	xorq	%rcx, %rcx
	movq	%r14, %rdi
	movq	48(%rsp), %rsi          # 8-byte Reload
	movq	%rax, %rdx
	callq	validate_change
	testq	%rbx, %rax
	je	.LBB36_72
# BB#96:                                # %if.end335
	callq	gen_sequence
	movq	%rax, %r13
	callq	end_sequence
	movq	%r13, %rdi
	movq	%r14, %rsi
	callq	emit_insn_before
	testq	%r15, %r15
	je	.LBB36_98
# BB#97:                                # %cond.true339
	movq	24(%r15), %r15
	jmp	.LBB36_99
.LBB36_63:                              # %if.else223
	callq	gen_lowpart
	movq	%rax, (%r14)
	jmp	.LBB36_122
.LBB36_72:                              # %if.then272
	callq	end_sequence
	movq	%r13, %r10
.LBB36_18:                              # %give_up
	movq	%r10, 88(%rsp)          # 8-byte Spill
	movzbl	rtx_length(%r12), %eax
	movq	%rax, 40(%rsp)          # 8-byte Spill
	testq	%rax, %rax
	movq	$1, 56(%rsp)            # 8-byte Folded Spill
	je	.LBB36_121
# BB#19:                                # %for.body415.lr.ph
	movq	rtx_format(,%r12,8), %rdx
	movq	$1, 56(%rsp)            # 8-byte Folded Spill
	xorq	%r15, %r15
	.align	16, 0x90
.LBB36_20:                              # %for.body415
                                        # =>This Loop Header: Depth=1
                                        #     Child Loop BB36_119 Depth 2
	movzbl	(%rdx), %eax
	cmpq	$101, %rax
	jne	.LBB36_21
# BB#126:                               # %if.then419
                                        #   in Loop: Header=BB36_20 Depth=1
	movq	%rdx, 48(%rsp)          # 8-byte Spill
	leaq	8(%r10,%r15,8), %rdi
	xorq	%rcx, %rcx
	movq	%r14, %rsi
	movq	72(%rsp), %rdx          # 8-byte Reload
	movq	64(%rsp), %rbx          # 8-byte Reload
	movq	%rbx, %r8
	callq	purge_addressof_1
	movq	56(%rsp), %r12          # 8-byte Reload
	andq	%rax, %r12
	jmp	.LBB36_120
	.align	16, 0x90
.LBB36_21:                              # %for.body415
                                        #   in Loop: Header=BB36_20 Depth=1
	movq	%rdx, 48(%rsp)          # 8-byte Spill
	cmpq	$69, %rax
	jne	.LBB36_22
# BB#117:                               # %for.cond436.preheader
                                        #   in Loop: Header=BB36_20 Depth=1
	movq	8(%r10,%r15,8), %rdi
	movslq	(%rdi), %rax
	testq	%rax, %rax
	jle	.LBB36_22
# BB#118:                               #   in Loop: Header=BB36_20 Depth=1
	movq	$8, %r14
	movq	$1, %r13
	movq	56(%rsp), %r12          # 8-byte Reload
	movq	64(%rsp), %rbx          # 8-byte Reload
	.align	16, 0x90
.LBB36_119:                             # %for.body442
                                        #   Parent Loop BB36_20 Depth=1
                                        # =>  This Inner Loop Header: Depth=2
	addq	%r14, %rdi
	xorq	%rcx, %rcx
	movq	80(%rsp), %rsi          # 8-byte Reload
	movq	72(%rsp), %rdx          # 8-byte Reload
	movq	%rbx, %r8
	callq	purge_addressof_1
	andq	%rax, %r12
	movq	88(%rsp), %rax          # 8-byte Reload
	movq	8(%rax,%r15,8), %rdi
	movslq	(%rdi), %rax
	movq	$32, %rcx
	movq	%r13, %rdx
	shlq	%cl, %rdx
	movq	$32, %rcx
	sarq	%cl, %rdx
	incq	%r13
	addq	$8, %r14
	cmpq	%rax, %rdx
	jl	.LBB36_119
	jmp	.LBB36_120
	.align	16, 0x90
.LBB36_22:                              #   in Loop: Header=BB36_20 Depth=1
	movq	56(%rsp), %r12          # 8-byte Reload
	movq	64(%rsp), %rbx          # 8-byte Reload
.LBB36_120:                             # %for.inc460
                                        #   in Loop: Header=BB36_20 Depth=1
	movq	%rbx, 64(%rsp)          # 8-byte Spill
	movq	%r12, 56(%rsp)          # 8-byte Spill
	incq	%r15
	movq	48(%rsp), %rdx          # 8-byte Reload
	incq	%rdx
	movq	$32, %rcx
	movq	%r15, %rax
	shlq	%cl, %rax
	movq	$32, %rcx
	sarq	%cl, %rax
	movq	40(%rsp), %rcx          # 8-byte Reload
	cmpq	%rcx, %rax
	movq	88(%rsp), %r10          # 8-byte Reload
	movq	80(%rsp), %r14          # 8-byte Reload
	jl	.LBB36_20
.LBB36_121:                             # %for.end462
	movq	56(%rsp), %r12          # 8-byte Reload
	andq	$1, %r12
.LBB36_122:                             # %return
	movq	%r12, %rax
	addq	$192, %rsp
	popq	%rbx
	popq	%r12
	popq	%r13
	popq	%r14
	popq	%r15
	retq
.LBB36_75:                              # %cond.false
	callq	get_insns
	movq	%rax, %r12
.LBB36_76:                              # %cond.end
	movq	64(%rsp), %rax          # 8-byte Reload
	movq	%rax, 160(%rsp)
	movq	%rax, %r15
	xorq	%rax, %rax
	movl	%eax, 176(%rsp)
	cmpq	%r14, %r12
	je	.LBB36_123
# BB#77:
	movabsq	$insns_for_mem_walk, %rbx
	leaq	160(%rsp), %r13
.LBB36_78:                              # %for.body5.lr.ph.i647
                                        # =>This Loop Header: Depth=1
                                        #     Child Loop BB36_79 Depth 2
	movq	%r12, 184(%rsp)
	movq	%r12, %rax
	.align	16, 0x90
.LBB36_79:                              # %for.body5.i654
                                        #   Parent Loop BB36_78 Depth=1
                                        # =>  This Inner Loop Header: Depth=2
	movzbl	(%rax), %ecx
	movzbl	rtx_class(%rcx), %ecx
	cmpq	$105, %rcx
	jne	.LBB36_81
# BB#80:                                # %if.then.i657
                                        #   in Loop: Header=BB36_79 Depth=2
	movq	%rax, 168(%rsp)
	leaq	184(%rsp), %rdi
	movq	%rbx, %rsi
	movq	%r13, %rdx
	callq	for_each_rtx
	movq	184(%rsp), %rax
.LBB36_81:                              # %for.inc.i661
                                        #   in Loop: Header=BB36_79 Depth=2
	movq	24(%rax), %rax
	cmpq	%r14, %rax
	movq	%rax, 184(%rsp)
	jne	.LBB36_79
# BB#82:                                # %for.inc10.i665
                                        #   in Loop: Header=BB36_78 Depth=1
	movl	176(%rsp), %eax
	incq	%rax
	movq	$32, %rcx
	movq	%rax, %rdx
	shlq	%cl, %rdx
	movq	$32, %rcx
	sarq	%cl, %rdx
	cmpq	$2, %rdx
	movl	%eax, 176(%rsp)
	jl	.LBB36_78
	jmp	.LBB36_83
.LBB36_123:                             # %for.inc10.us.i646.preheader
	movq	%r14, 184(%rsp)
	movq	$2, %rax
	movl	%eax, 176(%rsp)
.LBB36_83:                              # %compute_insns_for_mem.exit666
	callq	start_sequence
	movq	40(%rsp), %rdi          # 8-byte Reload
	movzbl	2(%rdi), %eax
	movzbl	mode_size(%rax), %r9d
	movq	88(%rsp), %rax          # 8-byte Reload
	movzbl	2(%rax), %ecx
	xorq	%rdx, %rdx
	xorq	%rbx, %rbx
	movq	32(%rsp), %rsi          # 8-byte Reload
	movq	56(%rsp), %r8           # 8-byte Reload
	callq	store_bit_field
	callq	get_insns
	movq	%rax, %rdi
	callq	unshare_all_rtl_again
	callq	gen_sequence
	movq	%rax, %r13
	callq	end_sequence
	movq	%r13, %rdi
	movq	%r14, %rsi
	callq	emit_insn_after
	movq	24(%r14), %rcx
	testq	%rcx, %rcx
	je	.LBB36_84
# BB#85:                                # %if.then300
	testq	%rax, %rax
	je	.LBB36_87
# BB#86:                                # %cond.true305
	movq	24(%rax), %rbx
.LBB36_87:                              # %cond.end310
	movq	%r15, 128(%rsp)
	xorq	%rax, %rax
	movl	%eax, 144(%rsp)
	cmpq	%rbx, %rcx
	je	.LBB36_124
# BB#88:
	movabsq	$insns_for_mem_walk, %r14
	leaq	152(%rsp), %r12
	leaq	128(%rsp), %r13
.LBB36_89:                              # %for.body5.lr.ph.i613
                                        # =>This Loop Header: Depth=1
                                        #     Child Loop BB36_90 Depth 2
	movq	%rcx, 152(%rsp)
	movq	%rcx, %rax
	movq	%rcx, %r15
	.align	16, 0x90
.LBB36_90:                              # %for.body5.i620
                                        #   Parent Loop BB36_89 Depth=1
                                        # =>  This Inner Loop Header: Depth=2
	movzbl	(%rax), %ecx
	movzbl	rtx_class(%rcx), %ecx
	cmpq	$105, %rcx
	jne	.LBB36_92
# BB#91:                                # %if.then.i623
                                        #   in Loop: Header=BB36_90 Depth=2
	movq	%rax, 136(%rsp)
	movq	%r12, %rdi
	movq	%r14, %rsi
	movq	%r13, %rdx
	callq	for_each_rtx
	movq	152(%rsp), %rax
.LBB36_92:                              # %for.inc.i627
                                        #   in Loop: Header=BB36_90 Depth=2
	movq	24(%rax), %rax
	cmpq	%rbx, %rax
	movq	%rax, 152(%rsp)
	jne	.LBB36_90
# BB#93:                                # %for.inc10.i631
                                        #   in Loop: Header=BB36_89 Depth=1
	movl	144(%rsp), %eax
	incq	%rax
	movq	$32, %rcx
	movq	%rax, %rdx
	shlq	%cl, %rdx
	movq	$32, %rcx
	sarq	%cl, %rdx
	cmpq	$2, %rdx
	movl	%eax, 144(%rsp)
	movq	%r15, %rcx
	jl	.LBB36_89
# BB#94:
	movq	$1, %r12
	jmp	.LBB36_106
.LBB36_84:
	movq	$1, %r12
	jmp	.LBB36_106
.LBB36_98:                              # %cond.false343
	callq	get_insns
	movq	%rax, %r15
.LBB36_99:                              # %cond.end345
	movq	$1, %r12
	movq	64(%rsp), %rax          # 8-byte Reload
	movq	%rax, 96(%rsp)
	xorq	%rax, %rax
	movl	%eax, 112(%rsp)
	cmpq	%r14, %r15
	je	.LBB36_125
# BB#100:
	leaq	120(%rsp), %r13
	leaq	96(%rsp), %rbx
.LBB36_101:                             # %for.body5.lr.ph.i
                                        # =>This Loop Header: Depth=1
                                        #     Child Loop BB36_102 Depth 2
	movq	%r15, 120(%rsp)
	movq	%r15, %rax
	.align	16, 0x90
.LBB36_102:                             # %for.body5.i
                                        #   Parent Loop BB36_101 Depth=1
                                        # =>  This Inner Loop Header: Depth=2
	movzbl	(%rax), %ecx
	movzbl	rtx_class(%rcx), %ecx
	cmpq	$105, %rcx
	jne	.LBB36_104
# BB#103:                               # %if.then.i
                                        #   in Loop: Header=BB36_102 Depth=2
	movq	%rax, 104(%rsp)
	movq	%r13, %rdi
	movabsq	$insns_for_mem_walk, %rsi
	movq	%rbx, %rdx
	callq	for_each_rtx
	movq	120(%rsp), %rax
.LBB36_104:                             # %for.inc.i
                                        #   in Loop: Header=BB36_102 Depth=2
	movq	24(%rax), %rax
	cmpq	%r14, %rax
	movq	%rax, 120(%rsp)
	jne	.LBB36_102
# BB#105:                               # %for.inc10.i
                                        #   in Loop: Header=BB36_101 Depth=1
	movl	112(%rsp), %eax
	incq	%rax
	movq	$32, %rcx
	movq	%rax, %rdx
	shlq	%cl, %rdx
	movq	$32, %rcx
	sarq	%cl, %rdx
	cmpq	$2, %rdx
	movl	%eax, 112(%rsp)
	jl	.LBB36_101
	jmp	.LBB36_106
.LBB36_125:                             # %for.inc10.us.i.preheader
	movq	%r14, 120(%rsp)
	movq	$2, %rax
	movl	%eax, 112(%rsp)
	jmp	.LBB36_106
.LBB36_124:                             # %for.inc10.us.i612.preheader
	movq	%rcx, 152(%rsp)
	movq	$2, %rax
	movl	%eax, 144(%rsp)
	movq	$1, %r12
.LBB36_106:                             # %if.end347
	movq	purge_bitfield_addressof_replacements(%rip), %rcx
	movq	$3, %rdi
	xorq	%rsi, %rsi
	movq	56(%rsp), %rdx          # 8-byte Reload
	callq	gen_rtx_fmt_ee
	movq	$3, %rdi
	xorq	%rsi, %rsi
	movq	88(%rsp), %rdx          # 8-byte Reload
	movq	%rax, %rcx
	callq	gen_rtx_fmt_ee
	movq	%rax, purge_bitfield_addressof_replacements(%rip)
	jmp	.LBB36_122
.LBB36_14:                              # %if.then.i637
	movabsq	$.L.str, %rax
	movabsq	$.L__FUNCTION__.put_addressof_into_stack, %rcx
	movq	$2997, %rsi             # imm = 0xBB5
	jmp	.LBB36_15
.LBB36_37:                              # %if.then41
	movabsq	$.L.str, %rax
	movabsq	$.L__FUNCTION__.purge_addressof_1, %rcx
	movq	$3088, %rsi             # imm = 0xC10
	jmp	.LBB36_15
.LBB36_57:                              # %if.then178
	movabsq	$.L.str, %rax
	movabsq	$.L__FUNCTION__.purge_addressof_1, %rcx
	movq	$3136, %rsi             # imm = 0xC40
.LBB36_15:                              # %if.then.i637
	movq	%rax, %rdi
	movq	%rcx, %rdx
	callq	fancy_abort
.Ltmp260:
	.size	purge_addressof_1, .Ltmp260-purge_addressof_1
	.cfi_endproc

	.align	16, 0x90
	.type	is_addressof,@function
is_addressof:                           # @is_addressof
	.cfi_startproc
# BB#0:                                 # %entry
	movq	(%rdi), %rax
	movzbl	(%rax), %eax
	cmpq	$70, %rax
	jne	.LBB37_1
# BB#2:                                 # %entry
	movabsq	$1, %rax
	retq
.LBB37_1:
	movabsq	$0, %rax
	retq
.Ltmp261:
	.size	is_addressof, .Ltmp261-is_addressof
	.cfi_endproc

	.globl	purge_hard_subreg_sets
	.align	16, 0x90
	.type	purge_hard_subreg_sets,@function
purge_hard_subreg_sets:                 # @purge_hard_subreg_sets
	.cfi_startproc
# BB#0:                                 # %entry
	pushq	%r15
.Ltmp268:
	.cfi_def_cfa_offset 16
	pushq	%r14
.Ltmp269:
	.cfi_def_cfa_offset 24
	pushq	%r13
.Ltmp270:
	.cfi_def_cfa_offset 32
	pushq	%r12
.Ltmp271:
	.cfi_def_cfa_offset 40
	pushq	%rbx
.Ltmp272:
	.cfi_def_cfa_offset 48
	subq	$16, %rsp
.Ltmp273:
	.cfi_def_cfa_offset 64
.Ltmp274:
	.cfi_offset %rbx, -48
.Ltmp275:
	.cfi_offset %r12, -40
.Ltmp276:
	.cfi_offset %r13, -32
.Ltmp277:
	.cfi_offset %r14, -24
.Ltmp278:
	.cfi_offset %r15, -16
	jmp	.LBB38_1
	.align	16, 0x90
.LBB38_12:                              # %for.inc39
                                        #   in Loop: Header=BB38_1 Depth=1
	movq	8(%rsp), %rdi           # 8-byte Reload
	movq	24(%rdi), %rdi
.LBB38_1:                               # %entry
                                        # =>This Loop Header: Depth=1
                                        #     Child Loop BB38_15 Depth 2
	testq	%rdi, %rdi
	je	.LBB38_13
# BB#2:                                 # %for.body
                                        #   in Loop: Header=BB38_1 Depth=1
	movq	%rdi, 8(%rsp)           # 8-byte Spill
	movzbl	(%rdi), %eax
	movzbl	rtx_class(%rax), %eax
	cmpq	$105, %rax
	jne	.LBB38_12
# BB#3:                                 # %if.then
                                        #   in Loop: Header=BB38_1 Depth=1
	movq	8(%rsp), %rax           # 8-byte Reload
	movq	32(%rax), %r15
	movzbl	(%r15), %eax
	cmpq	$39, %rax
	jne	.LBB38_4
# BB#14:                                # %sw.bb13
                                        #   in Loop: Header=BB38_1 Depth=1
	movq	8(%r15), %rax
	movslq	(%rax), %rbx
	testq	%rbx, %rbx
	jle	.LBB38_12
	jmp	.LBB38_15
	.align	16, 0x90
.LBB38_17:                              # %for.cond16.backedge.for.body19_crit_edge
                                        #   in Loop: Header=BB38_15 Depth=2
	movq	8(%r15), %rax
.LBB38_15:                              # %for.body19.lr.ph
                                        #   Parent Loop BB38_1 Depth=1
                                        # =>  This Inner Loop Header: Depth=2
	decq	%rbx
	movq	8(%rax,%rbx,8), %r13
	movzbl	(%r13), %eax
	cmpq	$47, %rax
	jne	.LBB38_16
# BB#18:                                # %land.lhs.true
                                        #   in Loop: Header=BB38_15 Depth=2
	movq	8(%r13), %r12
	movl	(%r12), %edx
	movq	%rdx, %rax
	andq	$65535, %rax            # imm = 0xFFFF
	cmpq	$63, %rax
	jne	.LBB38_16
# BB#19:                                # %land.lhs.true.i68
                                        #   in Loop: Header=BB38_15 Depth=2
	movq	8(%r12), %rdi
	movl	(%rdi), %esi
	movq	$16, %rcx
	movq	%rdx, %r14
	shrq	%cl, %r14
	andq	$255, %r14
	movq	%rsi, %rcx
	andq	$65535, %rcx            # imm = 0xFFFF
	xorq	%rax, %rax
	cmpq	$61, %rcx
	jne	.LBB38_22
# BB#20:                                # %land.lhs.true12.i72
                                        #   in Loop: Header=BB38_15 Depth=2
	movl	8(%rdi), %edi
	cmpq	$52, %rdi
	ja	.LBB38_22
# BB#21:                                # %if.then.i80
                                        #   in Loop: Header=BB38_15 Depth=2
	movl	16(%r12), %edx
	movq	$16, %rcx
	shrq	%cl, %rsi
	andq	$255, %rsi
	movq	%r14, %rcx
	callq	subreg_regno_offset
	movq	8(%r12), %r12
	movl	(%r12), %edx
.LBB38_22:                              # %if.end.i86
                                        #   in Loop: Header=BB38_15 Depth=2
	andq	$65535, %rdx            # imm = 0xFFFF
	cmpq	$61, %rdx
	jne	.LBB38_16
# BB#23:                                # %land.lhs.true43.i90
                                        #   in Loop: Header=BB38_15 Depth=2
	movl	8(%r12), %esi
	cmpq	$52, %rsi
	ja	.LBB38_16
# BB#24:                                # %if.then48.i94
                                        #   in Loop: Header=BB38_15 Depth=2
	addq	%rax, %rsi
	movq	%r14, %rdi
	callq	gen_rtx_REG
	movq	%rax, 8(%r13)
	.align	16, 0x90
.LBB38_16:                              # %for.cond16.backedge
                                        #   in Loop: Header=BB38_15 Depth=2
	movq	$32, %rcx
	movq	%rbx, %rax
	shlq	%cl, %rax
	movq	$32, %rcx
	sarq	%cl, %rax
	testq	%rax, %rax
	jg	.LBB38_17
	jmp	.LBB38_12
.LBB38_4:                               # %if.then
                                        #   in Loop: Header=BB38_1 Depth=1
	cmpq	$47, %rax
	jne	.LBB38_12
# BB#5:                                 # %sw.bb
                                        #   in Loop: Header=BB38_1 Depth=1
	movq	8(%r15), %rbx
	movl	(%rbx), %edx
	movq	%rdx, %rax
	andq	$65535, %rax            # imm = 0xFFFF
	cmpq	$63, %rax
	jne	.LBB38_12
# BB#6:                                 # %land.lhs.true.i
                                        #   in Loop: Header=BB38_1 Depth=1
	movq	8(%rbx), %rdi
	movl	(%rdi), %esi
	movq	$16, %rcx
	movq	%rdx, %r14
	shrq	%cl, %r14
	andq	$255, %r14
	movq	%rsi, %rcx
	andq	$65535, %rcx            # imm = 0xFFFF
	xorq	%rax, %rax
	cmpq	$61, %rcx
	jne	.LBB38_9
# BB#7:                                 # %land.lhs.true12.i
                                        #   in Loop: Header=BB38_1 Depth=1
	movl	8(%rdi), %edi
	cmpq	$52, %rdi
	ja	.LBB38_9
# BB#8:                                 # %if.then.i
                                        #   in Loop: Header=BB38_1 Depth=1
	movl	16(%rbx), %edx
	movq	$16, %rcx
	shrq	%cl, %rsi
	andq	$255, %rsi
	movq	%r14, %rcx
	callq	subreg_regno_offset
	movq	8(%rbx), %rbx
	movl	(%rbx), %edx
.LBB38_9:                               # %if.end.i
                                        #   in Loop: Header=BB38_1 Depth=1
	andq	$65535, %rdx            # imm = 0xFFFF
	cmpq	$61, %rdx
	jne	.LBB38_12
# BB#10:                                # %land.lhs.true43.i
                                        #   in Loop: Header=BB38_1 Depth=1
	movl	8(%rbx), %esi
	cmpq	$52, %rsi
	ja	.LBB38_12
# BB#11:                                # %if.then48.i
                                        #   in Loop: Header=BB38_1 Depth=1
	addq	%rax, %rsi
	movq	%r14, %rdi
	callq	gen_rtx_REG
	movq	%rax, 8(%r15)
	jmp	.LBB38_12
.LBB38_13:                              # %for.end43
	addq	$16, %rsp
	popq	%rbx
	popq	%r12
	popq	%r13
	popq	%r14
	popq	%r15
	retq
.Ltmp279:
	.size	purge_hard_subreg_sets, .Ltmp279-purge_hard_subreg_sets
	.cfi_endproc

	.globl	instantiate_virtual_regs
	.align	16, 0x90
	.type	instantiate_virtual_regs,@function
instantiate_virtual_regs:               # @instantiate_virtual_regs
	.cfi_startproc
# BB#0:                                 # %entry
	pushq	%r15
.Ltmp284:
	.cfi_def_cfa_offset 16
	pushq	%r14
.Ltmp285:
	.cfi_def_cfa_offset 24
	pushq	%rbx
.Ltmp286:
	.cfi_def_cfa_offset 32
.Ltmp287:
	.cfi_offset %rbx, -32
.Ltmp288:
	.cfi_offset %r14, -24
.Ltmp289:
	.cfi_offset %r15, -16
	movzbl	target_flags+1(%rip), %ecx
	movq	%rsi, %rbx
	movq	%rdi, %r14
	xorq	%rax, %rax
	testq	$16, %rcx
	je	.LBB39_2
# BB#1:                                 # %cond.true
	movq	cfun(%rip), %rax
	movl	76(%rax), %eax
.LBB39_2:                               # %cond.end
	movl	%eax, dynamic_offset(%rip)
	movq	$1, %rsi
	movq	%r14, %rdi
	callq	instantiate_decls
	callq	init_recog
	testq	%rbx, %rbx
	je	.LBB39_8
# BB#3:
	movabsq	$4294967295, %r15       # imm = 0xFFFFFFFF
	.align	16, 0x90
.LBB39_4:                               # %for.body
                                        # =>This Inner Loop Header: Depth=1
	movzbl	(%rbx), %eax
	addq	$-32, %rax
	andq	%r15, %rax
	cmpq	$2, %rax
	ja	.LBB39_7
# BB#5:                                 # %if.then
                                        #   in Loop: Header=BB39_4 Depth=1
	leaq	32(%rbx), %rdi
	movq	$1, %rdx
	movq	%rbx, %rsi
	callq	instantiate_virtual_regs_1
	leaq	56(%rbx), %rdi
	xorq	%rsi, %rsi
	xorq	%rdx, %rdx
	callq	instantiate_virtual_regs_1
	movzbl	(%rbx), %eax
	cmpq	$34, %rax
	jne	.LBB39_7
# BB#6:                                 # %if.then17
                                        #   in Loop: Header=BB39_4 Depth=1
	leaq	64(%rbx), %rdi
	xorq	%rsi, %rsi
	xorq	%rdx, %rdx
	callq	instantiate_virtual_regs_1
.LBB39_7:                               # %for.inc
                                        #   in Loop: Header=BB39_4 Depth=1
	movq	24(%rbx), %rbx
	testq	%rbx, %rbx
	jne	.LBB39_4
.LBB39_8:                               # %for.cond26.preheader
	movq	cfun(%rip), %rax
	movl	304(%rax), %ecx
	testq	%rcx, %rcx
	je	.LBB39_13
# BB#9:
	xorq	%rbx, %rbx
	movabsq	$4294967295, %r15       # imm = 0xFFFFFFFF
	.align	16, 0x90
.LBB39_10:                              # %for.body28
                                        # =>This Inner Loop Header: Depth=1
	movq	312(%rax), %rcx
	movq	%rbx, %rdx
	andq	%r15, %rdx
	cmpq	$0, (%rcx,%rdx,8)
	je	.LBB39_12
# BB#11:                                # %if.then31
                                        #   in Loop: Header=BB39_10 Depth=1
	leaq	(%rcx,%rdx,8), %rdi
	xorq	%rsi, %rsi
	xorq	%rdx, %rdx
	callq	instantiate_virtual_regs_1
	movq	cfun(%rip), %rax
.LBB39_12:                              # %for.inc37
                                        #   in Loop: Header=BB39_10 Depth=1
	movl	304(%rax), %ecx
	incq	%rbx
	movq	%rbx, %rdx
	andq	%r15, %rdx
	cmpq	%rcx, %rdx
	jb	.LBB39_10
.LBB39_13:                              # %for.end38
	xorq	%rsi, %rsi
	movq	%r14, %rdi
	callq	instantiate_decls
	movq	$1, %rax
	movl	%eax, virtuals_instantiated(%rip)
	popq	%rbx
	popq	%r14
	popq	%r15
	retq
.Ltmp290:
	.size	instantiate_virtual_regs, .Ltmp290-instantiate_virtual_regs
	.cfi_endproc

	.align	16, 0x90
	.type	instantiate_decls,@function
instantiate_decls:                      # @instantiate_decls
	.cfi_startproc
# BB#0:                                 # %entry
	pushq	%r15
.Ltmp296:
	.cfi_def_cfa_offset 16
	pushq	%r14
.Ltmp297:
	.cfi_def_cfa_offset 24
	pushq	%r12
.Ltmp298:
	.cfi_def_cfa_offset 32
	pushq	%rbx
.Ltmp299:
	.cfi_def_cfa_offset 40
	pushq	%rax
.Ltmp300:
	.cfi_def_cfa_offset 48
.Ltmp301:
	.cfi_offset %rbx, -40
.Ltmp302:
	.cfi_offset %r12, -32
.Ltmp303:
	.cfi_offset %r14, -24
.Ltmp304:
	.cfi_offset %r15, -16
	movq	%rdi, %r14
	movq	88(%r14), %rbx
	movq	%rsi, %r15
	jmp	.LBB40_1
	.align	16, 0x90
.LBB40_6:                               # %cond.end
                                        #   in Loop: Header=BB40_1 Depth=1
	movq	%r15, %rdx
	callq	instantiate_decl
	movq	(%rbx), %rbx
.LBB40_1:                               # %entry
                                        # =>This Inner Loop Header: Depth=1
	testq	%rbx, %rbx
	je	.LBB40_7
# BB#2:                                 # %for.body
                                        #   in Loop: Header=BB40_1 Depth=1
	movq	8(%rbx), %rdi
	callq	int_size_in_bytes
	movq	144(%rbx), %rdi
	movq	%rax, %r12
	testq	%rdi, %rdi
	jne	.LBB40_4
# BB#3:                                 # %cond.false
                                        #   in Loop: Header=BB40_1 Depth=1
	xorq	%rsi, %rsi
	movq	%rbx, %rdi
	callq	make_decl_rtl
	movq	144(%rbx), %rdi
.LBB40_4:                               # %cond.end
                                        #   in Loop: Header=BB40_1 Depth=1
	movq	%r12, %rsi
	movq	%r15, %rdx
	callq	instantiate_decl
	movq	160(%rbx), %rdi
	movzbl	2(%rdi), %eax
	movzbl	mode_size(%rax), %esi
	cmpq	%r12, %rsi
	jge	.LBB40_6
# BB#5:                                 # %cond.end
                                        #   in Loop: Header=BB40_1 Depth=1
	movq	%r12, %rsi
	jmp	.LBB40_6
.LBB40_7:                               # %for.end
	movq	104(%r14), %rdi
	movq	%r15, %rsi
	addq	$8, %rsp
	popq	%rbx
	popq	%r12
	popq	%r14
	popq	%r15
	jmp	instantiate_decls_1  # TAILCALL
.Ltmp305:
	.size	instantiate_decls, .Ltmp305-instantiate_decls
	.cfi_endproc

	.align	16, 0x90
	.type	instantiate_virtual_regs_1,@function
instantiate_virtual_regs_1:             # @instantiate_virtual_regs_1
	.cfi_startproc
# BB#0:                                 # %entry
	pushq	%r15
.Ltmp312:
	.cfi_def_cfa_offset 16
	pushq	%r14
.Ltmp313:
	.cfi_def_cfa_offset 24
	pushq	%r13
.Ltmp314:
	.cfi_def_cfa_offset 32
	pushq	%r12
.Ltmp315:
	.cfi_def_cfa_offset 40
	pushq	%rbx
.Ltmp316:
	.cfi_def_cfa_offset 48
	subq	$64, %rsp
.Ltmp317:
	.cfi_def_cfa_offset 112
.Ltmp318:
	.cfi_offset %rbx, -48
.Ltmp319:
	.cfi_offset %r12, -40
.Ltmp320:
	.cfi_offset %r13, -32
.Ltmp321:
	.cfi_offset %r14, -24
.Ltmp322:
	.cfi_offset %r15, -16
	movq	%rdi, %r12
	movq	(%r12), %r11
	movq	%rdx, 48(%rsp)          # 8-byte Spill
	testq	%r11, %r11
	je	.LBB41_132
# BB#1:                                 # %if.end.lr.ph.lr.ph
	movq	%rsi, 40(%rsp)          # 8-byte Spill
	movabsq	$4294967295, %r10       # imm = 0xFFFFFFFF
	jmp	.LBB41_2
	.align	16, 0x90
.LBB41_3:                               # %if.end
                                        #   in Loop: Header=BB41_2 Depth=1
	movq	$1, %rbx
	jmpq	*.LJTI41_0(,%rcx,8)
.LBB41_65:                              # %if.end.sw.bb227_crit_edge1025
                                        #   in Loop: Header=BB41_2 Depth=1
	movq	16(%r11), %rdi
.LBB41_66:                              # %sw.bb227
                                        #   in Loop: Header=BB41_2 Depth=1
	testq	%rdi, %rdi
	je	.LBB41_73
# BB#67:                                # %land.lhs.true232
                                        #   in Loop: Header=BB41_2 Depth=1
	movzbl	(%rdi), %ecx
	leaq	16(%r11), %rdi
	cmpq	$133, %rcx
	jg	.LBB41_70
# BB#68:                                # %land.lhs.true232
                                        #   in Loop: Header=BB41_2 Depth=1
	addq	$-54, %rcx
	andq	%r10, %rcx
	cmpq	$14, %rcx
	ja	.LBB41_72
# BB#69:                                # %land.lhs.true232
                                        #   in Loop: Header=BB41_2 Depth=1
	movq	$1, %rax
	shlq	%cl, %rax
	testq	$24599, %rax            # imm = 0x6017
	jne	.LBB41_73
	jmp	.LBB41_72
.LBB41_70:                              # %land.lhs.true232
                                        #   in Loop: Header=BB41_2 Depth=1
	cmpq	$134, %rcx
	je	.LBB41_73
# BB#71:                                # %land.lhs.true232
                                        #   in Loop: Header=BB41_2 Depth=1
	cmpq	$140, %rcx
	je	.LBB41_73
.LBB41_72:                              # %if.then288
                                        #   in Loop: Header=BB41_2 Depth=1
	movq	40(%rsp), %rsi          # 8-byte Reload
	movq	48(%rsp), %rdx          # 8-byte Reload
	movq	%r10, %r14
	movq	%r11, %rbx
	callq	instantiate_virtual_regs_1
	movq	%rbx, %r11
	movq	%r14, %r10
	.align	16, 0x90
.LBB41_73:                              # %if.end293
                                        #   in Loop: Header=BB41_2 Depth=1
	addq	$8, %r11
	movq	%r11, %rbx
.LBB41_74:                              # %restart.backedge
                                        #   in Loop: Header=BB41_2 Depth=1
	movq	(%rbx), %r11
	testq	%r11, %r11
.LBB41_25:                              # %restart.outer.backedge
                                        #   in Loop: Header=BB41_2 Depth=1
	movq	%rbx, %r12
	jne	.LBB41_2
	jmp	.LBB41_132
.LBB41_97:                              # %sw.bb453
                                        #   in Loop: Header=BB41_2 Depth=1
	movq	%r10, %r14
	movq	8(%r11), %rax
	movl	(%rax), %ecx
	addq	$8, %r11
	movq	%rcx, %rdx
	andq	$65535, %rdx            # imm = 0xFFFF
	cmpq	$66, %rdx
	jne	.LBB41_100
# BB#98:                                # %land.lhs.true460
                                        #   in Loop: Header=BB41_2 Depth=1
	movq	%r11, %rbx
	leaq	8(%rax), %rdi
	xorq	%rdx, %rdx
	movq	%rax, %rsi
	callq	instantiate_virtual_regs_1
	testq	%r14, %rax
	jne	.LBB41_132
# BB#99:                                # %land.lhs.true460.lor.lhs.false472_crit_edge
                                        #   in Loop: Header=BB41_2 Depth=1
	movq	%rbx, %r11
	movq	(%r11), %rax
	movl	(%rax), %ecx
.LBB41_100:                             # %lor.lhs.false472
                                        #   in Loop: Header=BB41_2 Depth=1
	andq	$65535, %rcx            # imm = 0xFFFF
	cmpq	$61, %rcx
	jne	.LBB41_103
# BB#101:                               # %land.lhs.true479
                                        #   in Loop: Header=BB41_2 Depth=1
	xorq	%rdx, %rdx
	movq	%r11, %rdi
	movq	40(%rsp), %rsi          # 8-byte Reload
	movq	%r11, %rbx
	callq	instantiate_virtual_regs_1
	testq	%r14, %rax
	jne	.LBB41_132
# BB#102:                               # %land.lhs.true479.if.end486_crit_edge
                                        #   in Loop: Header=BB41_2 Depth=1
	movq	(%rbx), %rax
	movq	%rbx, %r11
.LBB41_103:                             # %if.end486
                                        #   in Loop: Header=BB41_2 Depth=1
	movq	%rax, %rdi
	movq	%r11, %rbx
	callq	copy_rtx
	movq	%rax, (%rbx)
	movq	%r14, %r10
	jmp	.LBB41_74
.LBB41_4:                               # %sw.bb1
                                        #   in Loop: Header=BB41_2 Depth=1
	movq	8(%r11), %rcx
	movq	global_rtl+48(%rip), %rax
	leaq	8(%r11), %r14
	xorq	%r12, %r12
	cmpq	%rcx, %rax
	movabsq	$global_rtl+40, %rax
	jne	.LBB41_6
# BB#5:                                 #   in Loop: Header=BB41_2 Depth=1
	movq	%r11, %r15
	movq	%r10, %r13
	jmp	.LBB41_13
.LBB41_75:                              # %sw.bb297
                                        #   in Loop: Header=BB41_2 Depth=1
	movq	8(%r11), %rax
	movzbl	(%rax), %r8d
	leaq	-54(%r8), %rcx
	andq	%r10, %rcx
	cmpq	$14, %rcx
	jbe	.LBB41_76
.LBB41_77:                              # %lor.lhs.false320
                                        #   in Loop: Header=BB41_2 Depth=1
	movq	global_rtl+40(%rip), %rsi
	cmpq	%rsi, %rax
	je	.LBB41_132
# BB#78:                                # %lor.lhs.false320
                                        #   in Loop: Header=BB41_2 Depth=1
	movq	global_rtl+32(%rip), %rdi
	cmpq	%rdi, %rax
	je	.LBB41_132
# BB#79:                                # %lor.lhs.false320
                                        #   in Loop: Header=BB41_2 Depth=1
	movq	global_rtl+24(%rip), %rdx
	cmpq	%rdx, %rax
	je	.LBB41_132
# BB#80:                                # %if.end327
                                        #   in Loop: Header=BB41_2 Depth=1
	cmpq	$75, %r8
	jne	.LBB41_86
# BB#81:                                # %land.lhs.true331
                                        #   in Loop: Header=BB41_2 Depth=1
	movq	16(%rax), %rcx
	movzbl	(%rcx), %ecx
	addq	$-54, %rcx
	andq	%r10, %rcx
	cmpq	$14, %rcx
	ja	.LBB41_86
# BB#82:                                # %land.lhs.true331
                                        #   in Loop: Header=BB41_2 Depth=1
	movq	$1, %rbx
	movq	$1, %r9
	shlq	%cl, %r9
	testq	$24595, %r9             # imm = 0x6013
	je	.LBB41_86
# BB#83:                                # %land.lhs.true366
                                        #   in Loop: Header=BB41_2 Depth=1
	movq	8(%rax), %rcx
	cmpq	%rdx, %rcx
	je	.LBB41_133
# BB#84:                                # %land.lhs.true366
                                        #   in Loop: Header=BB41_2 Depth=1
	cmpq	%rdi, %rcx
	je	.LBB41_133
# BB#85:                                # %land.lhs.true366
                                        #   in Loop: Header=BB41_2 Depth=1
	cmpq	%rsi, %rcx
	je	.LBB41_133
.LBB41_86:                              # %if.end382
                                        #   in Loop: Header=BB41_2 Depth=1
	movq	global_rtl+56(%rip), %rsi
	cmpq	%rsi, %rax
	je	.LBB41_93
# BB#87:                                # %if.end382
                                        #   in Loop: Header=BB41_2 Depth=1
	movq	global_rtl+48(%rip), %rdi
	cmpq	%rdi, %rax
	je	.LBB41_93
# BB#88:                                # %lor.lhs.false386
                                        #   in Loop: Header=BB41_2 Depth=1
	cmpq	$75, %r8
	jne	.LBB41_73
# BB#89:                                # %land.lhs.true390
                                        #   in Loop: Header=BB41_2 Depth=1
	movq	16(%rax), %rcx
	movzbl	(%rcx), %ecx
	addq	$-54, %rcx
	andq	%r10, %rcx
	cmpq	$14, %rcx
	ja	.LBB41_73
# BB#90:                                # %land.lhs.true390
                                        #   in Loop: Header=BB41_2 Depth=1
	movq	$1, %rdx
	shlq	%cl, %rdx
	testq	$24595, %rdx            # imm = 0x6013
	je	.LBB41_73
# BB#91:                                # %land.lhs.true425
                                        #   in Loop: Header=BB41_2 Depth=1
	movq	8(%rax), %rax
	cmpq	%rsi, %rax
	je	.LBB41_93
# BB#92:                                # %land.lhs.true425
                                        #   in Loop: Header=BB41_2 Depth=1
	cmpq	%rdi, %rax
	jne	.LBB41_73
.LBB41_93:                              # %if.then435
                                        #   in Loop: Header=BB41_2 Depth=1
	movq	%r10, %rbx
	leaq	8(%r11), %rdi
	movq	40(%rsp), %rax          # 8-byte Reload
	testq	%rax, %rax
	movq	%rax, %rsi
	jne	.LBB41_95
# BB#94:                                # %if.then435
                                        #   in Loop: Header=BB41_2 Depth=1
	movq	%r11, %rsi
.LBB41_95:                              # %if.then435
                                        #   in Loop: Header=BB41_2 Depth=1
	movq	%r11, %r14
	xorq	%rdx, %rdx
	callq	instantiate_virtual_regs_1
	testq	%rbx, %rax
	jne	.LBB41_132
# BB#96:                                # %if.end446
                                        #   in Loop: Header=BB41_2 Depth=1
	movq	%r14, %rdi
	callq	copy_rtx
	movq	%rbx, %r10
	movq	%rax, %r11
	movq	%r11, (%r12)
	jmp	.LBB41_73
.LBB41_26:                              # %sw.bb44
                                        #   in Loop: Header=BB41_2 Depth=1
	movq	16(%r11), %rdi
	movzbl	(%rdi), %ecx
	leaq	16(%r11), %r14
	cmpq	$133, %rcx
	jg	.LBB41_29
# BB#27:                                # %sw.bb44
                                        #   in Loop: Header=BB41_2 Depth=1
	addq	$-54, %rcx
	andq	%r10, %rcx
	cmpq	$14, %rcx
	ja	.LBB41_66
# BB#28:                                # %sw.bb44
                                        #   in Loop: Header=BB41_2 Depth=1
	movq	$1, %rax
	shlq	%cl, %rax
	testq	$24599, %rax            # imm = 0x6017
	jne	.LBB41_31
	jmp	.LBB41_66
.LBB41_6:                               # %if.else.i
                                        #   in Loop: Header=BB41_2 Depth=1
	movq	global_rtl+56(%rip), %rdx
	cmpq	%rcx, %rdx
	jne	.LBB41_8
# BB#7:                                 #   in Loop: Header=BB41_2 Depth=1
	movq	%r11, %r15
	movq	%r10, %r13
	movabsq	$global_rtl+24, %rax
	jmp	.LBB41_13
.LBB41_29:                              # %sw.bb44
                                        #   in Loop: Header=BB41_2 Depth=1
	cmpq	$134, %rcx
	je	.LBB41_31
# BB#30:                                # %sw.bb44
                                        #   in Loop: Header=BB41_2 Depth=1
	cmpq	$140, %rcx
	jne	.LBB41_66
.LBB41_31:                              # %if.then100
                                        #   in Loop: Header=BB41_2 Depth=1
	movq	8(%r11), %rcx
	movzbl	(%rcx), %r8d
	leaq	8(%r11), %rbx
	cmpq	$75, %r8
	jne	.LBB41_46
# BB#32:                                # %if.then107
                                        #   in Loop: Header=BB41_2 Depth=1
	movq	8(%rcx), %rdx
	movq	global_rtl+48(%rip), %rax
	xorq	%r8, %r8
	cmpq	%rdx, %rax
	movabsq	$global_rtl+40, %rax
	je	.LBB41_40
# BB#33:                                # %if.else.i789
                                        #   in Loop: Header=BB41_2 Depth=1
	movq	global_rtl+56(%rip), %rsi
	cmpq	%rdx, %rsi
	jne	.LBB41_35
# BB#34:                                #   in Loop: Header=BB41_2 Depth=1
	movabsq	$global_rtl+24, %rax
	jmp	.LBB41_40
.LBB41_46:                              # %if.else137
                                        #   in Loop: Header=BB41_2 Depth=1
	movq	global_rtl+48(%rip), %rdx
	xorq	%r15, %r15
	cmpq	%rcx, %rdx
	movabsq	$global_rtl+40, %rdx
	je	.LBB41_54
# BB#47:                                # %if.else.i772
                                        #   in Loop: Header=BB41_2 Depth=1
	movq	global_rtl+56(%rip), %rsi
	cmpq	%rcx, %rsi
	jne	.LBB41_49
# BB#48:                                #   in Loop: Header=BB41_2 Depth=1
	movabsq	$global_rtl+24, %rdx
	jmp	.LBB41_54
.LBB41_8:                               # %if.else5.i
                                        #   in Loop: Header=BB41_2 Depth=1
	movq	global_rtl+64(%rip), %rdx
	movq	%r11, %r15
	movq	%r10, %r13
	cmpq	%rcx, %rdx
	jne	.LBB41_10
# BB#9:                                 # %if.then8.i
                                        #   in Loop: Header=BB41_2 Depth=1
	movslq	dynamic_offset(%rip), %r12
	movabsq	$global_rtl+16, %rax
	jmp	.LBB41_13
.LBB41_10:                              # %if.else10.i
                                        #   in Loop: Header=BB41_2 Depth=1
	movq	global_rtl+72(%rip), %rdx
	cmpq	%rcx, %rdx
	jne	.LBB41_12
# BB#11:                                #   in Loop: Header=BB41_2 Depth=1
	movabsq	$global_rtl+16, %rax
	jmp	.LBB41_13
.LBB41_76:                              # %sw.bb297
                                        #   in Loop: Header=BB41_2 Depth=1
	movq	$1, %rdx
	shlq	%cl, %rdx
	testq	$24595, %rdx            # imm = 0x6013
	je	.LBB41_77
	jmp	.LBB41_132
.LBB41_35:                              # %if.else5.i791
                                        #   in Loop: Header=BB41_2 Depth=1
	movq	global_rtl+64(%rip), %rsi
	cmpq	%rdx, %rsi
	jne	.LBB41_37
# BB#36:                                # %if.then8.i793
                                        #   in Loop: Header=BB41_2 Depth=1
	movslq	dynamic_offset(%rip), %r8
	movabsq	$global_rtl+16, %rax
	jmp	.LBB41_40
.LBB41_49:                              # %if.else5.i774
                                        #   in Loop: Header=BB41_2 Depth=1
	movq	global_rtl+64(%rip), %rsi
	cmpq	%rcx, %rsi
	jne	.LBB41_51
# BB#50:                                # %if.then8.i776
                                        #   in Loop: Header=BB41_2 Depth=1
	movslq	dynamic_offset(%rip), %r15
	movabsq	$global_rtl+16, %rdx
	jmp	.LBB41_54
.LBB41_12:                              # %if.else15.i
                                        #   in Loop: Header=BB41_2 Depth=1
	movq	global_rtl+80(%rip), %rdx
	cmpq	%rcx, %rdx
	jne	.LBB41_23
.LBB41_13:                              # %instantiate_new_reg.exit
                                        #   in Loop: Header=BB41_2 Depth=1
	movq	(%rax), %rbx
	testq	%rbx, %rbx
	jne	.LBB41_14
.LBB41_23:                              # %if.end36
                                        #   in Loop: Header=BB41_2 Depth=1
	movq	%r14, %rdi
	movq	40(%rsp), %rsi          # 8-byte Reload
	movq	48(%rsp), %rdx          # 8-byte Reload
	callq	instantiate_virtual_regs_1
	movq	16(%r15), %rcx
	addq	$16, %r15
	movq	%r15, %rbx
	movq	%r13, %r10
	jmp	.LBB41_24
.LBB41_37:                              # %if.else10.i795
                                        #   in Loop: Header=BB41_2 Depth=1
	movq	global_rtl+72(%rip), %rsi
	cmpq	%rdx, %rsi
	movabsq	$0, %r8
	jne	.LBB41_39
# BB#38:                                #   in Loop: Header=BB41_2 Depth=1
	movabsq	$global_rtl+16, %rax
	jmp	.LBB41_40
.LBB41_51:                              # %if.else10.i778
                                        #   in Loop: Header=BB41_2 Depth=1
	movq	global_rtl+72(%rip), %rsi
	cmpq	%rcx, %rsi
	jne	.LBB41_53
# BB#52:                                #   in Loop: Header=BB41_2 Depth=1
	movabsq	$global_rtl+16, %rdx
	jmp	.LBB41_54
.LBB41_39:                              # %if.else15.i797
                                        #   in Loop: Header=BB41_2 Depth=1
	movq	global_rtl+80(%rip), %rsi
	cmpq	%rdx, %rsi
	jne	.LBB41_74
.LBB41_40:                              # %instantiate_new_reg.exit803
                                        #   in Loop: Header=BB41_2 Depth=1
	movq	(%rax), %r13
	testq	%r13, %r13
	je	.LBB41_24
	jmp	.LBB41_41
.LBB41_53:                              # %if.else15.i780
                                        #   in Loop: Header=BB41_2 Depth=1
	movq	global_rtl+80(%rip), %rsi
	cmpq	%rcx, %rsi
	jne	.LBB41_55
.LBB41_54:                              # %instantiate_new_reg.exit786
                                        #   in Loop: Header=BB41_2 Depth=1
	movq	(%rdx), %rax
	testq	%rax, %rax
	jne	.LBB41_42
.LBB41_55:                              # %if.then143
                                        #   in Loop: Header=BB41_2 Depth=1
	cmpq	$61, %r8
	je	.LBB41_132
.LBB41_24:                              # %restart.outer.backedge
                                        #   in Loop: Header=BB41_2 Depth=1
	testq	%rcx, %rcx
	movq	%rcx, %r11
	jmp	.LBB41_25
	.align	16, 0x90
.LBB41_2:                               # %if.end
                                        # =>This Inner Loop Header: Depth=1
	movzbl	(%r11), %eax
	leaq	-3(%rax), %rcx
	andq	%r10, %rcx
	cmpq	$128, %rcx
	jbe	.LBB41_3
	jmp	.LBB41_122
.LBB41_104:                             # %sw.bb497
	movq	global_rtl+48(%rip), %rax
	xorq	%rsi, %rsi
	cmpq	%r11, %rax
	movabsq	$global_rtl+40, %rax
	je	.LBB41_105
# BB#106:                               # %if.else.i755
	movq	global_rtl+56(%rip), %rcx
	movq	%r10, %r15
	cmpq	%r11, %rcx
	je	.LBB41_107
# BB#108:                               # %if.else5.i757
	movq	global_rtl+64(%rip), %rcx
	cmpq	%r11, %rcx
	je	.LBB41_109
# BB#110:                               # %if.else10.i761
	movq	global_rtl+72(%rip), %rcx
	cmpq	%r11, %rcx
	je	.LBB41_111
# BB#112:                               # %if.else15.i763
	movq	global_rtl+80(%rip), %rcx
	cmpq	%r11, %rcx
	jne	.LBB41_132
	jmp	.LBB41_113
.LBB41_119:                             # %sw.bb520
	movq	8(%r11), %rdi
	movzbl	(%rdi), %ecx
	cmpq	$61, %rcx
	je	.LBB41_132
# BB#120:                               # %sw.bb520
	movq	$70, %rax
	cmpq	$66, %rcx
	jne	.LBB41_122
# BB#121:                               # %if.then535
	addq	$8, %rdi
	xorq	%rsi, %rsi
	xorq	%rdx, %rdx
	callq	instantiate_virtual_regs_1
	jmp	.LBB41_132
.LBB41_122:                             # %sw.epilog
	movzbl	rtx_length(%rax), %ecx
	movq	%rcx, 24(%rsp)          # 8-byte Spill
	testq	%rcx, %rcx
	je	.LBB41_132
# BB#123:                               # %for.body.lr.ph
	movq	rtx_format(,%rax,8), %rdx
	xorq	%r15, %r15
	.align	16, 0x90
.LBB41_124:                             # %for.body
                                        # =>This Loop Header: Depth=1
                                        #     Child Loop BB41_129 Depth 2
	movq	%r10, %r12
	movzbl	(%rdx), %eax
	cmpq	$101, %rax
	jne	.LBB41_125
# BB#130:                               # %if.then553
                                        #   in Loop: Header=BB41_124 Depth=1
	movq	%rdx, 32(%rsp)          # 8-byte Spill
	leaq	8(%r11,%r15,8), %rdi
	movq	40(%rsp), %rsi          # 8-byte Reload
	movq	48(%rsp), %rdx          # 8-byte Reload
	movq	%r11, %rbx
	callq	instantiate_virtual_regs_1
	movq	%rbx, %r11
	xorq	%rbx, %rbx
	movq	%r12, %r10
	testq	%r10, %rax
	jne	.LBB41_131
	jmp	.LBB41_133
	.align	16, 0x90
.LBB41_125:                             # %for.body
                                        #   in Loop: Header=BB41_124 Depth=1
	movq	%rdx, 32(%rsp)          # 8-byte Spill
	cmpq	$69, %rax
	movq	%r12, %r10
	jne	.LBB41_131
# BB#126:                               # %for.cond567.preheader
                                        #   in Loop: Header=BB41_124 Depth=1
	movq	8(%r11,%r15,8), %rdi
	movslq	(%rdi), %rax
	testq	%rax, %rax
	jle	.LBB41_131
# BB#127:                               #   in Loop: Header=BB41_124 Depth=1
	movq	$8, %r12
	movq	$1, %r13
	.align	16, 0x90
.LBB41_129:                             # %for.body573
                                        #   Parent Loop BB41_124 Depth=1
                                        # =>  This Inner Loop Header: Depth=2
	addq	%r12, %rdi
	movq	40(%rsp), %rsi          # 8-byte Reload
	movq	48(%rsp), %rdx          # 8-byte Reload
	movq	%r10, %rbx
	movq	%r11, %r14
	callq	instantiate_virtual_regs_1
	movq	%r14, %r11
	movq	%rbx, %r10
	xorq	%rbx, %rbx
	testq	%r10, %rax
	je	.LBB41_133
# BB#128:                               # %for.cond567
                                        #   in Loop: Header=BB41_129 Depth=2
	movq	8(%r11,%r15,8), %rdi
	movslq	(%rdi), %rax
	movq	$32, %rcx
	movq	%r13, %rdx
	shlq	%cl, %rdx
	movq	$32, %rcx
	sarq	%cl, %rdx
	incq	%r13
	addq	$8, %r12
	cmpq	%rax, %rdx
	jl	.LBB41_129
	.align	16, 0x90
.LBB41_131:                             # %for.inc586
                                        #   in Loop: Header=BB41_124 Depth=1
	incq	%r15
	movq	32(%rsp), %rdx          # 8-byte Reload
	incq	%rdx
	movq	$32, %rcx
	movq	%r15, %rax
	shlq	%cl, %rax
	movq	$32, %rcx
	sarq	%cl, %rax
	movq	24(%rsp), %rcx          # 8-byte Reload
	cmpq	%rcx, %rax
	jl	.LBB41_124
	jmp	.LBB41_132
.LBB41_14:                              # %if.then3
	movq	16(%r15), %rax
	movq	%rax, 56(%rsp)
	leaq	56(%rsp), %rdi
	xorq	%rsi, %rsi
	xorq	%rdx, %rdx
	callq	instantiate_virtual_regs_1
	movq	56(%rsp), %rax
	movzbl	(%rax), %eax
	cmpq	$61, %rax
	je	.LBB41_18
# BB#15:                                # %if.then3
	cmpq	$75, %rax
	jne	.LBB41_16
.LBB41_18:                              # %if.end15
	addq	$16, %r15
	negq	%r12
	callq	start_sequence
	movq	56(%rsp), %rdi
	movzbl	(%rdi), %eax
	cmpq	$61, %rax
	je	.LBB41_20
# BB#19:                                # %if.then19
	xorq	%rsi, %rsi
	callq	force_operand
	movq	%rax, %rdi
.LBB41_20:                              # %if.end21
	movq	%r12, %rsi
	callq	plus_constant_wide
	xorq	%rsi, %rsi
	movq	%rax, %rdi
	callq	force_operand
	movq	%rax, 32(%rsp)          # 8-byte Spill
	callq	get_insns
	movq	%rax, %r12
	callq	end_sequence
	movq	%r12, %rdi
	movq	40(%rsp), %r12          # 8-byte Reload
	movq	%r12, %rsi
	callq	emit_insns_before
	movq	%rbx, (%r14)
	xorq	%rcx, %rcx
	movq	%r12, %rdi
	movq	%r15, %rsi
	movq	32(%rsp), %rdx          # 8-byte Reload
	callq	validate_change
	testq	%r13, %rax
	je	.LBB41_22
# BB#21:                                # %if.end21
	movq	48(%rsp), %rax          # 8-byte Reload
	testq	%r13, %rax
	movq	$1, %rbx
	jne	.LBB41_133
.LBB41_22:                              # %if.then34
	movabsq	$.L.str, %rax
	movabsq	$.L__FUNCTION__.instantiate_virtual_regs_1, %rcx
	movq	$3862, %rsi             # imm = 0xF16
	jmp	.LBB41_17
.LBB41_105:
	movq	%r10, %r15
	jmp	.LBB41_113
.LBB41_107:
	movabsq	$global_rtl+24, %rax
	jmp	.LBB41_113
.LBB41_41:                              # %if.then116
	addq	$16, %rcx
	movq	%rcx, %rdi
	movq	40(%rsp), %rsi          # 8-byte Reload
	movq	48(%rsp), %rdx          # 8-byte Reload
	movq	%r8, 32(%rsp)           # 8-byte Spill
	movq	%r11, %r15
	callq	instantiate_virtual_regs_1
	movq	(%rbx), %rax
	movl	target_flags(%rip), %esi
	movq	$25, %rcx
	movq	16(%rax), %rax
	shrq	%cl, %rsi
	andq	$1, %rsi
	orq	$4, %rsi
	movq	$75, %rdi
	movq	%r13, %rdx
	movq	%rax, %rcx
	callq	gen_rtx_fmt_ee
	movq	%r15, %r11
	movq	32(%rsp), %r15          # 8-byte Reload
	movq	(%r14), %rdi
.LBB41_42:                              # %if.end156
	movq	%rax, %r13
	movq	%r11, 16(%rsp)          # 8-byte Spill
	movq	%r15, %rsi
	callq	plus_constant_wide
	movq	const_int_rtx+512(%rip), %rcx
	cmpq	%rcx, %rax
	jne	.LBB41_44
# BB#43:                                # %land.lhs.true162
	xorq	%rcx, %rcx
	movq	40(%rsp), %rdi          # 8-byte Reload
	movq	%r12, %rsi
	movq	%r13, %rdx
	movq	%rax, 32(%rsp)          # 8-byte Spill
	callq	validate_change
	movabsq	$4294967295, %rcx       # imm = 0xFFFFFFFF
	testq	%rcx, %rax
	movq	32(%rsp), %rax          # 8-byte Reload
	jne	.LBB41_132
.LBB41_44:                              # %if.end166
	movq	(%rbx), %rcx
	movq	%rcx, 24(%rsp)          # 8-byte Spill
	testq	%r15, %r15
	je	.LBB41_45
# BB#56:                                # %cond.false
	movq	%r13, (%rbx)
	xorq	%rcx, %rcx
	movq	40(%rsp), %r15          # 8-byte Reload
	movq	%r15, %rdi
	movq	%r14, %rsi
	movq	%rax, %rdx
	movq	%rax, 32(%rsp)          # 8-byte Spill
	jmp	.LBB41_57
.LBB41_109:                             # %if.then8.i759
	movslq	dynamic_offset(%rip), %rsi
	movabsq	$global_rtl+16, %rax
	jmp	.LBB41_113
.LBB41_111:
	movabsq	$global_rtl+16, %rax
.LBB41_113:                             # %instantiate_new_reg.exit769
	movq	(%rax), %rdi
	testq	%rdi, %rdi
	je	.LBB41_132
# BB#114:                               # %if.then500
	movq	%r11, 16(%rsp)          # 8-byte Spill
	callq	plus_constant_wide
	movq	%rax, %r13
	xorq	%rcx, %rcx
	xorq	%rbx, %rbx
	movq	40(%rsp), %r14          # 8-byte Reload
	movq	%r14, %rdi
	movq	%r12, %rsi
	movq	%r13, %rdx
	callq	validate_change
	testq	%r15, %rax
	jne	.LBB41_132
# BB#115:                               # %if.then504
	movq	%r13, 32(%rsp)          # 8-byte Spill
	movq	48(%rsp), %rax          # 8-byte Reload
	testq	%r15, %rax
	je	.LBB41_133
# BB#116:                               # %if.end507
	movq	%r15, %r13
	callq	start_sequence
	xorq	%rsi, %rsi
	movq	32(%rsp), %rdi          # 8-byte Reload
	callq	force_operand
	movq	%rax, %r15
	callq	get_insns
	movq	%rax, %rbx
	callq	end_sequence
	movq	%rbx, %rdi
	movq	%r14, %rbx
	movq	%rbx, %rsi
	callq	emit_insns_before
	xorq	%rcx, %rcx
	movq	%rbx, %rdi
	movq	%r12, %rsi
	movq	%r15, %rdx
	callq	validate_change
	testq	%r13, %rax
	jne	.LBB41_132
# BB#117:                               # %land.lhs.true513
	movq	16(%rsp), %rdi          # 8-byte Reload
	movq	%r15, %rsi
	movq	%rbx, %rdx
	callq	validate_replace_rtx
	testq	%r13, %rax
	movq	$1, %rbx
	jne	.LBB41_133
# BB#118:                               # %if.then516
	movabsq	$.L.str, %rax
	movabsq	$.L__FUNCTION__.instantiate_virtual_regs_1, %rcx
	movq	$4126, %rsi             # imm = 0x101E
	jmp	.LBB41_17
.LBB41_45:                              # %cond.true
	movq	%rax, 32(%rsp)          # 8-byte Spill
	xorq	%rcx, %rcx
	movq	40(%rsp), %r15          # 8-byte Reload
	movq	%r15, %rdi
	movq	%rbx, %rsi
	movq	%r13, %rdx
.LBB41_57:                              # %cond.false
	callq	validate_change
	movabsq	$4294967295, %rcx       # imm = 0xFFFFFFFF
	testq	%rcx, %rax
	jne	.LBB41_132
# BB#58:                                # %if.then184
	movq	48(%rsp), %rax          # 8-byte Reload
	testq	%rcx, %rax
	je	.LBB41_59
# BB#60:                                # %if.end190
	movl	target_flags(%rip), %edi
	movq	$25, %rcx
	shrq	%cl, %rdi
	andq	$1, %rdi
	orq	$4, %rdi
	callq	gen_reg_rtx
	movq	%r13, 8(%rsp)           # 8-byte Spill
	movq	%r13, (%rbx)
	xorq	%rcx, %rcx
	movq	%r15, %r13
	movq	%r13, %rdi
	movq	%r14, %rsi
	movq	%rax, %r14
	movq	%r14, %rdx
	callq	validate_change
	movabsq	$4294967295, %r8        # imm = 0xFFFFFFFF
	testq	%r8, %rax
	je	.LBB41_62
# BB#61:                                # %if.then203
	movq	%r14, %rdi
	movq	32(%rsp), %rsi          # 8-byte Reload
	callq	gen_move_insn
	movq	%rax, %rdi
	movq	%r13, %rsi
	callq	emit_insn_before
	jmp	.LBB41_132
.LBB41_59:                              # %if.then186
	movq	24(%rsp), %rax          # 8-byte Reload
	movq	%rax, (%rbx)
	xorq	%rbx, %rbx
	jmp	.LBB41_133
.LBB41_62:                              # %if.else206
	movq	24(%rsp), %rax          # 8-byte Reload
	movq	%rax, (%rbx)
	movl	target_flags(%rip), %esi
	movq	$25, %rcx
	shrq	%cl, %rsi
	andq	$1, %rsi
	orq	$4, %rsi
	movq	$75, %rdi
	movq	8(%rsp), %rdx           # 8-byte Reload
	movq	32(%rsp), %rcx          # 8-byte Reload
	movq	%r8, %r14
	callq	gen_rtx_fmt_ee
	movq	%rax, %rbx
	callq	start_sequence
	xorq	%rsi, %rsi
	movq	%rbx, %rdi
	callq	force_operand
	movq	%rax, %r15
	callq	get_insns
	movq	%rax, %rbx
	callq	end_sequence
	movq	%rbx, %rdi
	movq	%r13, %rsi
	callq	emit_insns_before
	xorq	%rcx, %rcx
	movq	%r13, %rdi
	movq	%r12, %rsi
	movq	%r15, %rdx
	callq	validate_change
	testq	%r14, %rax
	movq	%r14, %rbx
	je	.LBB41_63
.LBB41_132:
	movq	$1, %rbx
.LBB41_133:                             # %return
	movq	%rbx, %rax
	addq	$64, %rsp
	popq	%rbx
	popq	%r12
	popq	%r13
	popq	%r14
	popq	%r15
	retq
.LBB41_16:                              # %if.then14
	movabsq	$.L.str, %rax
	movabsq	$.L__FUNCTION__.instantiate_virtual_regs_1, %rcx
	movq	$3846, %rsi             # imm = 0xF06
	jmp	.LBB41_17
.LBB41_63:                              # %land.lhs.true219
	movq	16(%rsp), %rdi          # 8-byte Reload
	movq	%r15, %rsi
	movq	%r13, %rdx
	callq	validate_replace_rtx
	testq	%rbx, %rax
	movq	$1, %rbx
	jne	.LBB41_133
# BB#64:                                # %if.then222
	movabsq	$.L.str, %rax
	movabsq	$.L__FUNCTION__.instantiate_virtual_regs_1, %rcx
	movq	$3972, %rsi             # imm = 0xF84
.LBB41_17:                              # %if.then14
	movq	%rax, %rdi
	movq	%rcx, %rdx
	callq	fancy_abort
.Ltmp323:
	.size	instantiate_virtual_regs_1, .Ltmp323-instantiate_virtual_regs_1
	.cfi_endproc
	.section	.rodata,"a",@progbits
	.align	8
.LJTI41_0:
	.quad	.LBB41_65
	.quad	.LBB41_122
	.quad	.LBB41_122
	.quad	.LBB41_122
	.quad	.LBB41_122
	.quad	.LBB41_122
	.quad	.LBB41_122
	.quad	.LBB41_122
	.quad	.LBB41_122
	.quad	.LBB41_122
	.quad	.LBB41_122
	.quad	.LBB41_122
	.quad	.LBB41_122
	.quad	.LBB41_122
	.quad	.LBB41_122
	.quad	.LBB41_122
	.quad	.LBB41_122
	.quad	.LBB41_122
	.quad	.LBB41_122
	.quad	.LBB41_122
	.quad	.LBB41_122
	.quad	.LBB41_122
	.quad	.LBB41_122
	.quad	.LBB41_122
	.quad	.LBB41_122
	.quad	.LBB41_122
	.quad	.LBB41_122
	.quad	.LBB41_122
	.quad	.LBB41_122
	.quad	.LBB41_122
	.quad	.LBB41_122
	.quad	.LBB41_122
	.quad	.LBB41_122
	.quad	.LBB41_133
	.quad	.LBB41_122
	.quad	.LBB41_122
	.quad	.LBB41_122
	.quad	.LBB41_133
	.quad	.LBB41_122
	.quad	.LBB41_122
	.quad	.LBB41_122
	.quad	.LBB41_133
	.quad	.LBB41_133
	.quad	.LBB41_73
	.quad	.LBB41_4
	.quad	.LBB41_97
	.quad	.LBB41_97
	.quad	.LBB41_65
	.quad	.LBB41_133
	.quad	.LBB41_122
	.quad	.LBB41_122
	.quad	.LBB41_133
	.quad	.LBB41_133
	.quad	.LBB41_133
	.quad	.LBB41_122
	.quad	.LBB41_133
	.quad	.LBB41_133
	.quad	.LBB41_122
	.quad	.LBB41_104
	.quad	.LBB41_122
	.quad	.LBB41_73
	.quad	.LBB41_73
	.quad	.LBB41_122
	.quad	.LBB41_75
	.quad	.LBB41_122
	.quad	.LBB41_133
	.quad	.LBB41_133
	.quad	.LBB41_119
	.quad	.LBB41_122
	.quad	.LBB41_122
	.quad	.LBB41_122
	.quad	.LBB41_65
	.quad	.LBB41_26
	.quad	.LBB41_65
	.quad	.LBB41_73
	.quad	.LBB41_65
	.quad	.LBB41_65
	.quad	.LBB41_65
	.quad	.LBB41_65
	.quad	.LBB41_65
	.quad	.LBB41_65
	.quad	.LBB41_65
	.quad	.LBB41_65
	.quad	.LBB41_73
	.quad	.LBB41_65
	.quad	.LBB41_65
	.quad	.LBB41_65
	.quad	.LBB41_65
	.quad	.LBB41_65
	.quad	.LBB41_122
	.quad	.LBB41_122
	.quad	.LBB41_122
	.quad	.LBB41_122
	.quad	.LBB41_73
	.quad	.LBB41_73
	.quad	.LBB41_73
	.quad	.LBB41_73
	.quad	.LBB41_122
	.quad	.LBB41_122
	.quad	.LBB41_65
	.quad	.LBB41_65
	.quad	.LBB41_65
	.quad	.LBB41_65
	.quad	.LBB41_65
	.quad	.LBB41_65
	.quad	.LBB41_65
	.quad	.LBB41_65
	.quad	.LBB41_65
	.quad	.LBB41_65
	.quad	.LBB41_122
	.quad	.LBB41_122
	.quad	.LBB41_122
	.quad	.LBB41_122
	.quad	.LBB41_122
	.quad	.LBB41_122
	.quad	.LBB41_122
	.quad	.LBB41_122
	.quad	.LBB41_73
	.quad	.LBB41_73
	.quad	.LBB41_73
	.quad	.LBB41_73
	.quad	.LBB41_73
	.quad	.LBB41_73
	.quad	.LBB41_73
	.quad	.LBB41_73
	.quad	.LBB41_73
	.quad	.LBB41_73
	.quad	.LBB41_73
	.quad	.LBB41_73

	.text
	.globl	max_parm_reg_num
	.align	16, 0x90
	.type	max_parm_reg_num,@function
max_parm_reg_num:                       # @max_parm_reg_num
	.cfi_startproc
# BB#0:                                 # %entry
	movq	cfun(%rip), %rax
	movl	304(%rax), %eax
	retq
.Ltmp324:
	.size	max_parm_reg_num, .Ltmp324-max_parm_reg_num
	.cfi_endproc

	.globl	get_first_nonparm_insn
	.align	16, 0x90
	.type	get_first_nonparm_insn,@function
get_first_nonparm_insn:                 # @get_first_nonparm_insn
	.cfi_startproc
# BB#0:                                 # %entry
	movq	cfun(%rip), %rax
	movq	296(%rax), %rax
	testq	%rax, %rax
	je	.LBB43_2
# BB#1:                                 # %return
	movq	24(%rax), %rax
	retq
.LBB43_2:                               # %if.end
	jmp	get_insns  # TAILCALL
.Ltmp325:
	.size	get_first_nonparm_insn, .Ltmp325-get_first_nonparm_insn
	.cfi_endproc

	.globl	get_first_block_beg
	.align	16, 0x90
	.type	get_first_block_beg,@function
get_first_block_beg:                    # @get_first_block_beg
	.cfi_startproc
# BB#0:                                 # %entry
	pushq	%rax
.Ltmp327:
	.cfi_def_cfa_offset 16
	movq	cfun(%rip), %rax
	movq	296(%rax), %rax
	testq	%rax, %rax
	je	.LBB44_2
# BB#1:                                 # %if.then.i
	movq	24(%rax), %rax
	jmp	.LBB44_3
.LBB44_2:                               # %if.end.i
	callq	get_insns
.LBB44_3:                               # %for.cond.preheader
	testq	%rax, %rax
	je	.LBB44_8
# BB#4:
	movabsq	$4294967198, %rcx       # imm = 0xFFFFFF9E
	.align	16, 0x90
.LBB44_5:                               # %for.body
                                        # =>This Inner Loop Header: Depth=1
	movzbl	(%rax), %edx
	cmpq	$37, %rdx
	jne	.LBB44_7
# BB#6:                                 # %land.lhs.true
                                        #   in Loop: Header=BB44_5 Depth=1
	movl	40(%rax), %edx
	cmpq	%rcx, %rdx
	je	.LBB44_9
.LBB44_7:                               # %for.inc
                                        #   in Loop: Header=BB44_5 Depth=1
	movq	24(%rax), %rax
	testq	%rax, %rax
	jne	.LBB44_5
.LBB44_8:                               # %for.end
	movabsq	$.L.str, %rax
	movabsq	$.L__FUNCTION__.get_first_block_beg, %rcx
	movq	$4250, %rsi             # imm = 0x109A
	movq	%rax, %rdi
	movq	%rcx, %rdx
	callq	fancy_abort
.LBB44_9:                               # %if.then
	popq	%rdx
	retq
.Ltmp328:
	.size	get_first_block_beg, .Ltmp328-get_first_block_beg
	.cfi_endproc

	.globl	aggregate_value_p
	.align	16, 0x90
	.type	aggregate_value_p,@function
aggregate_value_p:                      # @aggregate_value_p
	.cfi_startproc
# BB#0:                                 # %entry
	pushq	%r15
.Ltmp333:
	.cfi_def_cfa_offset 16
	pushq	%r14
.Ltmp334:
	.cfi_def_cfa_offset 24
	pushq	%rbx
.Ltmp335:
	.cfi_def_cfa_offset 32
.Ltmp336:
	.cfi_offset %rbx, -32
.Ltmp337:
	.cfi_offset %r14, -24
.Ltmp338:
	.cfi_offset %r15, -16
	movq	%rdi, %rbx
	movl	16(%rbx), %eax
	movq	%rax, %rcx
	andq	$255, %rcx
	movzbl	tree_code_type(%rcx), %ecx
	cmpq	$116, %rcx
	je	.LBB45_2
# BB#1:                                 # %cond.false
	movq	8(%rbx), %rbx
	movl	16(%rbx), %eax
.LBB45_2:                               # %cond.end
	andq	$255, %rax
	xorq	%r14, %r14
	cmpq	$5, %rax
	je	.LBB45_26
# BB#3:                                 # %if.end
	movq	%rbx, %rdi
	callq	ix86_return_in_memory
	movabsq	$4294967295, %r15       # imm = 0xFFFFFFFF
	testq	%r15, %rax
	movq	$1, %r14
	jne	.LBB45_26
# BB#4:                                 # %if.end11
	movl	16(%rbx), %eax
	testq	$1024, %rax             # imm = 0x400
	jne	.LBB45_26
# BB#5:                                 # %if.end17
	movl	flag_pcc_struct_return(%rip), %ecx
	testq	%rcx, %rcx
	je	.LBB45_7
# BB#6:                                 # %land.lhs.true
	andq	$255, %rax
	addq	$-18, %rax
	andq	%r15, %rax
	cmpq	$5, %rax
	jb	.LBB45_26
.LBB45_7:                               # %if.end53
	xorq	%rsi, %rsi
	xorq	%rdx, %rdx
	xorq	%r14, %r14
	movq	%rbx, %rdi
	callq	hard_function_value
	movzbl	(%rax), %ecx
	cmpq	$61, %rcx
	jne	.LBB45_26
# BB#8:                                 # %if.end60
	movl	8(%rax), %edx
	movq	$32, %rcx
	movq	%rdx, %rsi
	shlq	%cl, %rsi
	movq	$32, %rcx
	sarq	%cl, %rsi
	movl	60(%rbx), %eax
	movabsq	$4294967288, %rdi       # imm = 0xFFFFFFF8
	andq	%rdx, %rdi
	movq	$9, %rcx
	shrq	%cl, %rax
	andq	$127, %rax
	cmpq	$8, %rdi
	je	.LBB45_12
# BB#9:                                 # %if.end60
	leaq	-21(%rdx), %rcx
	andq	%r15, %rcx
	cmpq	$8, %rcx
	jb	.LBB45_12
# BB#10:                                # %if.end60
	leaq	-45(%rdx), %rcx
	andq	%r15, %rcx
	cmpq	$8, %rcx
	jb	.LBB45_12
# BB#11:                                # %if.end60
	addq	$-29, %rdx
	andq	%r15, %rdx
	cmpq	$7, %rdx
	jbe	.LBB45_12
# BB#17:                                # %cond.false104
	andq	%r15, %rax
	cmpq	$24, %rax
	jne	.LBB45_18
# BB#21:                                # %cond.true123
	movzbl	target_flags+3(%rip), %eax
	andq	$2, %rax
	xorq	$6, %rax
	jmp	.LBB45_22
.LBB45_12:                              # %cond.true85
	andq	%r15, %rax
	movl	mode_class(,%rax,4), %ecx
	cmpq	$5, %rcx
	movq	$2, %rax
	je	.LBB45_22
# BB#13:                                # %lor.rhs
	cmpq	$6, %rcx
	jne	.LBB45_14
# BB#15:                                # %lor.rhs
	movabsq	$1, %rax
	incq	%rax
	movq	$1, %rdx
	jmp	.LBB45_24
.LBB45_18:                              # %cond.false104
	cmpq	$18, %rax
	jne	.LBB45_20
# BB#19:                                # %cond.true112
	movl	target_flags(%rip), %eax
	movq	$25, %rcx
	shrq	%cl, %rax
	andq	$1, %rax
	xorq	$3, %rax
	movq	$1, %rdx
	jmp	.LBB45_24
.LBB45_20:                              # %cond.end146
	movl	target_flags(%rip), %edi
	movzbl	mode_size(%rax), %eax
	movq	$23, %rcx
	shrq	%cl, %rdi
	andq	$4, %rdi
	leaq	3(%rax,%rdi), %rax
	addq	$4, %rdi
	cqto
	idivq	%rdi
	movq	$32, %rcx
	movq	%rax, %rdx
	shlq	%cl, %rdx
	movq	$32, %rcx
	sarq	%cl, %rdx
	testq	%rdx, %rdx
	jle	.LBB45_26
.LBB45_22:                              # %for.body.lr.ph
	movq	$1, %rdx
	jmp	.LBB45_24
.LBB45_14:
	movabsq	$0, %rax
	incq	%rax
	movq	$1, %rdx
	.align	16, 0x90
.LBB45_24:                              # %for.body
                                        # =>This Inner Loop Header: Depth=1
	movzbl	call_used_regs-1(%rsi,%rdx), %ecx
	testq	%rcx, %rcx
	je	.LBB45_25
# BB#23:                                # %for.cond
                                        #   in Loop: Header=BB45_24 Depth=1
	movq	$32, %rcx
	movq	%rdx, %rdi
	shlq	%cl, %rdi
	movq	$32, %rcx
	sarq	%cl, %rdi
	movq	$32, %rcx
	movq	%rax, %rbx
	shlq	%cl, %rbx
	movq	$32, %rcx
	sarq	%cl, %rbx
	incq	%rdx
	cmpq	%rbx, %rdi
	jl	.LBB45_24
	jmp	.LBB45_26
.LBB45_25:
	movq	$1, %r14
.LBB45_26:                              # %return
	movq	%r14, %rax
	popq	%rbx
	popq	%r14
	popq	%r15
	retq
.Ltmp339:
	.size	aggregate_value_p, .Ltmp339-aggregate_value_p
	.cfi_endproc

	.globl	assign_parms
	.align	16, 0x90
	.type	assign_parms,@function
assign_parms:                           # @assign_parms
	.cfi_startproc
# BB#0:                                 # %entry
	pushq	%r15
.Ltmp346:
	.cfi_def_cfa_offset 16
	pushq	%r14
.Ltmp347:
	.cfi_def_cfa_offset 24
	pushq	%r13
.Ltmp348:
	.cfi_def_cfa_offset 32
	pushq	%r12
.Ltmp349:
	.cfi_def_cfa_offset 40
	pushq	%rbx
.Ltmp350:
	.cfi_def_cfa_offset 48
	subq	$256, %rsp              # imm = 0x100
.Ltmp351:
	.cfi_def_cfa_offset 304
.Ltmp352:
	.cfi_offset %rbx, -48
.Ltmp353:
	.cfi_offset %r12, -40
.Ltmp354:
	.cfi_offset %r13, -32
.Ltmp355:
	.cfi_offset %r14, -24
.Ltmp356:
	.cfi_offset %r15, -16
	movq	cfun(%rip), %rax
	movq	%rdi, 96(%rsp)          # 8-byte Spill
	movq	8(%rdi), %r14
	movl	424(%rax), %eax
	movq	88(%rdi), %r12
	xorq	%r13, %r13
	testq	$65536, %rax            # imm = 0x10000
	movabsq	$0, %r15
	je	.LBB46_7
# BB#1:                                 # %entry
	testq	%r12, %r12
	movabsq	$0, %r15
	je	.LBB46_7
# BB#2:                                 # %land.lhs.true2
	movq	%r12, %rdi
	callq	tree_last
	testq	%rax, %rax
	movabsq	$0, %r15
	je	.LBB46_7
# BB#3:                                 # %land.lhs.true3
	movq	72(%rax), %rax
	testq	%rax, %rax
	movabsq	$0, %r15
	je	.LBB46_7
# BB#4:                                 # %land.rhs
	movq	32(%rax), %rdi
	movabsq	$.L.str2, %rsi
	callq	strcmp
	movabsq	$4294967295, %rcx       # imm = 0xFFFFFFFF
	testq	%rcx, %rax
	jne	.LBB46_5
# BB#6:                                 # %land.rhs
	movabsq	$1, %r15
	jmp	.LBB46_7
.LBB46_5:
	movabsq	$0, %r15
.LBB46_7:                               # %land.end
	movq	%r15, 48(%rsp)          # 8-byte Spill
	movq	24(%r14), %rdi
	testq	%rdi, %rdi
	je	.LBB46_11
# BB#8:                                 # %land.rhs12
	callq	tree_last
	movq	32(%rax), %rax
	movq	global_trees+216(%rip), %rcx
	cmpq	%rcx, %rax
	je	.LBB46_9
# BB#10:                                # %land.rhs12
	movabsq	$1, %r13
	jmp	.LBB46_11
.LBB46_9:
	movabsq	$0, %r13
.LBB46_11:                              # %land.end17
	movq	cfun(%rip), %rax
	movl	424(%rax), %edx
	movq	$17, %rcx
	movq	%r13, %rsi
	shlq	%cl, %rsi
	movabsq	$4294836223, %rcx       # imm = 0xFFFDFFFF
	andq	%rdx, %rcx
	orq	%rsi, %rcx
	movl	%ecx, 424(%rax)
	movzbl	fixed_regs+16(%rip), %ecx
	movq	global_rtl+48(%rip), %rax
	testq	%rcx, %rcx
	jne	.LBB46_13
# BB#12:                                # %if.then
	movq	%rax, %rdi
	callq	copy_to_reg
.LBB46_13:                              # %if.end
	movq	%rax, 56(%rsp)          # 8-byte Spill
	movq	cfun(%rip), %rcx
	movq	%rax, 128(%rcx)
	movq	$0, 208(%rsp)
	movq	$0, 200(%rsp)
	movq	96(%rsp), %rax          # 8-byte Reload
	movq	96(%rax), %rdi
	callq	aggregate_value_p
	movabsq	$4294967295, %rcx       # imm = 0xFFFFFFFF
	testq	%rcx, %rax
	je	.LBB46_14
# BB#15:                                # %land.lhs.true28
	movq	cfun(%rip), %rax
	movl	424(%rax), %eax
	testq	$2, %rax
	jne	.LBB46_16
# BB#17:                                # %land.lhs.true28
	movq	struct_value_incoming_rtx(%rip), %rax
	testq	%rax, %rax
	jne	.LBB46_18
# BB#19:                                # %if.then36
	movq	8(%r14), %rdi
	callq	build_pointer_type
	movq	%r15, %rbx
	movq	%rax, %r15
	movq	$35, %rdi
	xorq	%rsi, %rsi
	movq	%r15, %rdx
	callq	build_decl
	movq	%rax, 120(%rsp)         # 8-byte Spill
	movq	%r15, 104(%rax)
	movq	%rbx, %r15
	movq	%r12, (%rax)
	movq	%rax, %r12
	jmp	.LBB46_20
.LBB46_14:
	movq	$0, 120(%rsp)           # 8-byte Folded Spill
	jmp	.LBB46_20
.LBB46_16:
	movq	$0, 120(%rsp)           # 8-byte Folded Spill
	jmp	.LBB46_20
.LBB46_18:
	movq	$0, 120(%rsp)           # 8-byte Folded Spill
.LBB46_20:                              # %if.end44
	movq	cfun(%rip), %rax
	movq	$58, %rcx
	movl	%ecx, 304(%rax)
	movq	$58, %rdi
	movq	$8, %rsi
	callq	xcalloc
	movq	cfun(%rip), %rcx
	movq	%rax, 312(%rcx)
	leaq	224(%rsp), %rdi
	xorq	%rdx, %rdx
	movq	%r14, %rsi
	callq	init_cumulative_args
	movq	cfun(%rip), %rax
	xorq	%rcx, %rcx
	movl	%ecx, 72(%rax)
	xorq	%rdi, %rdi
	testq	%r12, %r12
	je	.LBB46_21
# BB#22:                                # %for.body.lr.ph
	movq	$0, 72(%rsp)            # 8-byte Folded Spill
	movq	$0, 64(%rsp)            # 8-byte Folded Spill
	movq	%r13, %r14
	movq	%r14, 40(%rsp)          # 8-byte Spill
	jmp	.LBB46_23
.LBB46_39:                              # %if.end141
                                        #   in Loop: Header=BB46_23 Depth=1
	movzbl	50(%r12), %r8d
	movq	%rbx, %rcx
	movq	%r13, %rbx
	xorq	$1, %rbx
	movq	%rbx, 128(%rsp)         # 8-byte Spill
	movq	%rcx, %rbx
	andq	$127, %rdx
	testq	$8, %r8
	movabsq	$0, %r14
	movq	%rdx, %r15
	jne	.LBB46_43
# BB#40:                                # %lor.lhs.false147
                                        #   in Loop: Header=BB46_23 Depth=1
	movzbl	16(%rbx), %ecx
	cmpq	$21, %rcx
	jne	.LBB46_41
# BB#42:                                # %lor.lhs.false147
                                        #   in Loop: Header=BB46_23 Depth=1
	andq	$524288, %rax           # imm = 0x80000
	movabsq	$4294967295, %rcx       # imm = 0xFFFFFFFF
	testq	%rcx, %rax
	je	.LBB46_41
.LBB46_43:                              # %if.then160
                                        #   in Loop: Header=BB46_23 Depth=1
	movq	%rdi, 136(%rsp)         # 8-byte Spill
	movq	%rsi, 88(%rsp)          # 8-byte Spill
	movq	24(%rbx), %rax
	movq	8(%rax), %rbx
	jmp	.LBB46_44
.LBB46_41:                              #   in Loop: Header=BB46_23 Depth=1
	movq	%rdi, 136(%rsp)         # 8-byte Spill
	movq	%rsi, 88(%rsp)          # 8-byte Spill
.LBB46_44:                              # %if.end165
                                        #   in Loop: Header=BB46_23 Depth=1
	movq	32(%rbx), %rdi
	movzbl	16(%rdi), %eax
	cmpq	$25, %rax
	je	.LBB46_46
# BB#45:                                # %land.lhs.true173
                                        #   in Loop: Header=BB46_23 Depth=1
	callq	contains_placeholder_p
	movabsq	$4294967295, %rcx       # imm = 0xFFFFFFFF
	testq	%rcx, %rax
	jne	.LBB46_47
.LBB46_46:                              # %lor.lhs.false178
                                        #   in Loop: Header=BB46_23 Depth=1
	movzbl	17(%rbx), %eax
	movq	$0, 112(%rsp)           # 8-byte Folded Spill
	testq	$4, %rax
	je	.LBB46_48
.LBB46_47:                              # %if.then184
                                        #   in Loop: Header=BB46_23 Depth=1
	movq	%rbx, %rdi
	callq	build_pointer_type
	movl	target_flags(%rip), %r15d
	movq	%rax, 88(%rsp)          # 8-byte Spill
	movq	$25, %rcx
	shrq	%cl, %r15
	andq	$1, %r15
	orq	$4, %r15
	movq	%r15, 136(%rsp)         # 8-byte Spill
	movq	$1, 112(%rsp)           # 8-byte Folded Spill
	movq	%rax, %rbx
.LBB46_48:                              # %if.end188
                                        #   in Loop: Header=BB46_23 Depth=1
	leaq	224(%rsp), %rdi
	movq	%r15, %rsi
	movq	%rbx, %rdx
	movq	128(%rsp), %rcx         # 8-byte Reload
	callq	function_arg
	movq	%rax, 80(%rsp)          # 8-byte Spill
	testq	%r13, %r13
	je	.LBB46_51
# BB#49:                                # %if.end188
                                        #   in Loop: Header=BB46_23 Depth=1
	movabsq	$4294967295, %rax       # imm = 0xFFFFFFFF
	movq	72(%rsp), %rcx          # 8-byte Reload
	testq	%rax, %rcx
	jne	.LBB46_51
# BB#50:                                # %if.then197
                                        #   in Loop: Header=BB46_23 Depth=1
	movq	cfun(%rip), %rcx
	addq	$72, %rcx
	xorq	%r8, %r8
	leaq	224(%rsp), %rdi
	movq	%r15, %rsi
	movq	%rbx, %rdx
	callq	ix86_setup_incoming_varargs
	movq	$1, 72(%rsp)            # 8-byte Folded Spill
.LBB46_51:                              # %if.end199
                                        #   in Loop: Header=BB46_23 Depth=1
	movq	$1, %rcx
	leaq	224(%rsp), %rdi
	movq	%r15, %rsi
	movq	%rbx, %rdx
	callq	function_arg
	testq	%rax, %rax
	movq	%r14, %rdx
	je	.LBB46_53
# BB#52:                                # %if.end199
                                        #   in Loop: Header=BB46_23 Depth=1
	movabsq	$1, %rdx
.LBB46_53:                              # %if.end199
                                        #   in Loop: Header=BB46_23 Depth=1
	leaq	184(%rsp), %rax
	movq	%rax, 8(%rsp)
	leaq	152(%rsp), %rax
	movq	%rax, (%rsp)
	movq	%r15, %rdi
	movq	%rbx, %rsi
	leaq	200(%rsp), %r8
	leaq	168(%rsp), %r9
	callq	locate_and_pad_parm
	movq	176(%rsp), %rsi
	testq	%rsi, %rsi
	jne	.LBB46_55
# BB#54:                                # %cond.true207
                                        #   in Loop: Header=BB46_23 Depth=1
	movq	168(%rsp), %rsi
	xorq	%rdi, %rdi
	callq	gen_rtx_CONST_INT
	jmp	.LBB46_56
.LBB46_55:                              # %cond.false217
                                        #   in Loop: Header=BB46_23 Depth=1
	movq	sizetype_tab+8(%rip), %rdi
	callq	convert
	movq	168(%rsp), %rdi
	movq	%rax, %r14
	movq	$1, %rsi
	callq	size_int_wide
	movq	$59, %rdi
	movq	%r14, %rsi
	movq	%rax, %rdx
	callq	size_binop
	xorq	%rsi, %rsi
	xorq	%rdx, %rdx
	xorq	%rcx, %rcx
	movq	%rax, %rdi
	callq	expand_expr
.LBB46_56:                              # %cond.end226
                                        #   in Loop: Header=BB46_23 Depth=1
	movq	const_int_rtx+512(%rip), %rcx
	cmpq	%rcx, %rax
	movq	56(%rsp), %rdx          # 8-byte Reload
	jne	.LBB46_58
# BB#57:                                # %if.then230
                                        #   in Loop: Header=BB46_23 Depth=1
	movq	%r15, %rdi
	movq	%r15, 144(%rsp)         # 8-byte Spill
	movq	%rdx, %rsi
	jmp	.LBB46_59
.LBB46_58:                              # %if.else232
                                        #   in Loop: Header=BB46_23 Depth=1
	movl	target_flags(%rip), %esi
	movq	$25, %rcx
	shrq	%cl, %rsi
	andq	$1, %rsi
	orq	$4, %rsi
	movq	$75, %rdi
	movq	%rax, %rcx
	callq	gen_rtx_fmt_ee
	movq	%r15, %rdi
	movq	%r15, 144(%rsp)         # 8-byte Spill
	movq	%rax, %rsi
.LBB46_59:                              # %if.end238
                                        #   in Loop: Header=BB46_23 Depth=1
	callq	gen_rtx_MEM
	movq	%rax, %r15
	movq	$1, %rdx
	movq	%r15, %rdi
	movq	%r12, %rsi
	callq	set_mem_attributes
	testq	%rbx, %rbx
	je	.LBB46_65
# BB#60:                                # %land.lhs.true241
                                        #   in Loop: Header=BB46_23 Depth=1
	movq	32(%rbx), %rax
	movzbl	16(%rax), %ecx
	xorq	%rax, %rax
	cmpq	$25, %rcx
	jne	.LBB46_66
# BB#61:                                # %lor.lhs.false250
                                        #   in Loop: Header=BB46_23 Depth=1
	movzbl	17(%rbx), %ecx
	testq	$4, %rcx
	jne	.LBB46_66
# BB#62:                                # %lor.lhs.false250
                                        #   in Loop: Header=BB46_23 Depth=1
	movq	144(%rsp), %rcx         # 8-byte Reload
	movabsq	$4294967295, %rdx       # imm = 0xFFFFFFFF
	andq	%rdx, %rcx
	cmpq	$6, %rcx
	je	.LBB46_66
# BB#63:                                # %lor.lhs.false260
                                        #   in Loop: Header=BB46_23 Depth=1
	cmpq	$51, %rcx
	jne	.LBB46_65
# BB#64:                                # %land.lhs.true275
                                        #   in Loop: Header=BB46_23 Depth=1
	movq	%rbx, %rdi
	callq	int_size_in_bytes
.LBB46_65:                              # %if.end285
                                        #   in Loop: Header=BB46_23 Depth=1
	movq	80(%rsp), %rax          # 8-byte Reload
.LBB46_66:                              # %if.end285
                                        #   in Loop: Header=BB46_23 Depth=1
	movq	%rbx, 104(%rsp)         # 8-byte Spill
	testq	%rax, %rax
	movq	%r15, %rcx
	je	.LBB46_68
# BB#67:                                # %if.end285
                                        #   in Loop: Header=BB46_23 Depth=1
	movq	%rax, %rcx
.LBB46_68:                              # %if.end285
                                        #   in Loop: Header=BB46_23 Depth=1
	cmpq	%r15, %rcx
	movq	%rcx, 160(%r12)
	je	.LBB46_71
# BB#69:                                # %lor.lhs.false337
                                        #   in Loop: Header=BB46_23 Depth=1
	movzbl	(%rcx), %eax
	xorq	%r14, %r14
	cmpq	$39, %rax
	jne	.LBB46_79
# BB#70:                                # %land.lhs.true342
                                        #   in Loop: Header=BB46_23 Depth=1
	movq	8(%rcx), %rax
	movq	8(%rax), %rax
	cmpq	$0, 8(%rax)
	jne	.LBB46_79
.LBB46_71:                              # %if.then350
                                        #   in Loop: Header=BB46_23 Depth=1
	movq	152(%rsp), %rax
	movq	200(%rsp), %rbx
	movq	160(%rsp), %r14
	addq	%rax, %rbx
	movq	%rbx, 200(%rsp)
	testq	%r14, %r14
	jne	.LBB46_73
# BB#72:                                #   in Loop: Header=BB46_23 Depth=1
	movq	%r15, %r14
	jmp	.LBB46_79
.LBB46_73:                              # %do.body
                                        #   in Loop: Header=BB46_23 Depth=1
	movq	%rcx, 80(%rsp)          # 8-byte Spill
	xorq	%rsi, %rsi
	movq	%r14, %rdi
	callq	host_integerp
	movabsq	$4294967295, %rcx       # imm = 0xFFFFFFFF
	testq	%rcx, %rax
	jne	.LBB46_74
# BB#75:                                # %if.else364
                                        #   in Loop: Header=BB46_23 Depth=1
	movq	208(%rsp), %rbx
	movq	sizetype_tab+8(%rip), %rdi
	movq	%r14, %rsi
	callq	convert
	testq	%rbx, %rbx
	je	.LBB46_77
# BB#76:                                # %if.else371
                                        #   in Loop: Header=BB46_23 Depth=1
	movq	$59, %rdi
	movq	%rbx, %rsi
	movq	%rax, %rdx
	callq	size_binop
.LBB46_77:                              # %if.end380
                                        #   in Loop: Header=BB46_23 Depth=1
	movq	%rax, 208(%rsp)
	jmp	.LBB46_78
.LBB46_74:                              # %if.then360
                                        #   in Loop: Header=BB46_23 Depth=1
	xorq	%rsi, %rsi
	movq	%r14, %rdi
	callq	tree_low_cst
	addq	%rax, %rbx
	movq	%rbx, 200(%rsp)
.LBB46_78:                              # %if.end380
                                        #   in Loop: Header=BB46_23 Depth=1
	movq	%r15, %r14
	movq	80(%rsp), %rcx          # 8-byte Reload
.LBB46_79:                              # %if.end380
                                        #   in Loop: Header=BB46_23 Depth=1
	movq	%rcx, %r13
	leaq	224(%rsp), %rdi
	movq	144(%rsp), %rbx         # 8-byte Reload
	movq	%rbx, %rsi
	movq	104(%rsp), %r15         # 8-byte Reload
	movq	%r15, %rdx
	movq	128(%rsp), %rcx         # 8-byte Reload
	callq	function_arg_advance
	movq	%rbx, %rdi
	movq	%r15, %rsi
	callq	ix86_function_arg_boundary
	movq	%rax, %r15
	movabsq	$4294967295, %rax       # imm = 0xFFFFFFFF
	movq	%rax, %rbx
	andq	%rbx, %r15
	movq	136(%rsp), %rdi         # 8-byte Reload
	callq	get_mode_alignment
	andq	%rbx, %rax
	cmpq	%r15, %rax
	movabsq	$0, %r10
	ja	.LBB46_81
# BB#80:                                # %if.end380
                                        #   in Loop: Header=BB46_23 Depth=1
	movq	%r14, %r10
.LBB46_81:                              # %if.end380
                                        #   in Loop: Header=BB46_23 Depth=1
	movq	136(%rsp), %rax         # 8-byte Reload
	movq	%rax, %r8
	movabsq	$4294967295, %rax       # imm = 0xFFFFFFFF
	andq	%rax, %r8
	movq	%r13, %rsi
	testq	%rsi, %rsi
	movabsq	$0, %r14
	movq	%r14, %rax
	jne	.LBB46_83
# BB#82:                                # %if.end380
                                        #   in Loop: Header=BB46_23 Depth=1
	movabsq	$1, %rax
.LBB46_83:                              # %if.end380
                                        #   in Loop: Header=BB46_23 Depth=1
	movabsq	$4294967295, %rcx       # imm = 0xFFFFFFFF
	movq	144(%rsp), %rdx         # 8-byte Reload
	andq	%rcx, %rdx
	cmpq	$51, %r8
	movq	%r14, %rcx
	jne	.LBB46_85
# BB#84:                                # %if.end380
                                        #   in Loop: Header=BB46_23 Depth=1
	movabsq	$1, %rcx
.LBB46_85:                              # %if.end380
                                        #   in Loop: Header=BB46_23 Depth=1
	orq	%rcx, %rax
	cmpq	%rdx, %r8
	movq	%r14, %rcx
	jne	.LBB46_87
# BB#86:                                # %if.end380
                                        #   in Loop: Header=BB46_23 Depth=1
	movabsq	$1, %rcx
.LBB46_87:                              # %if.end380
                                        #   in Loop: Header=BB46_23 Depth=1
	orq	%rax, %rcx
	movq	%r10, %rbx
	jne	.LBB46_89
# BB#88:                                # %if.end380
                                        #   in Loop: Header=BB46_23 Depth=1
	xorq	%rbx, %rbx
.LBB46_89:                              # %if.end380
                                        #   in Loop: Header=BB46_23 Depth=1
	movzbl	(%rsi), %eax
	cmpq	$39, %rax
	jne	.LBB46_90
# BB#91:                                # %if.end380
                                        #   in Loop: Header=BB46_23 Depth=1
	cmpq	$51, %r8
	je	.LBB46_90
# BB#92:                                # %if.end380
                                        #   in Loop: Header=BB46_23 Depth=1
	cmpq	$51, %rdx
	movq	%rdx, 144(%rsp)         # 8-byte Spill
	je	.LBB46_93
# BB#94:                                # %if.then407
                                        #   in Loop: Header=BB46_23 Depth=1
	movq	%rbx, %r9
	movq	8(%rsi), %rax
	movq	%rsi, %r11
	movslq	(%rax), %rdx
	testq	%rdx, %rdx
	movq	$1, %rsi
	jle	.LBB46_101
	.align	16, 0x90
.LBB46_95:                              # %for.body414
                                        #   Parent Loop BB46_23 Depth=1
                                        # =>  This Inner Loop Header: Depth=2
	movq	(%rax,%rsi,8), %rdi
	movq	8(%rdi), %r15
	testq	%r15, %r15
	je	.LBB46_100
# BB#96:                                # %land.lhs.true425
                                        #   in Loop: Header=BB46_95 Depth=2
	movl	(%r15), %ebx
	movq	%rbx, %rcx
	andq	$65535, %rcx            # imm = 0xFFFF
	cmpq	$61, %rcx
	jne	.LBB46_100
# BB#97:                                # %land.lhs.true439
                                        #   in Loop: Header=BB46_95 Depth=2
	movq	$16, %rcx
	shrq	%cl, %rbx
	andq	$255, %rbx
	movq	144(%rsp), %rcx         # 8-byte Reload
	cmpq	%rcx, %rbx
	jne	.LBB46_100
# BB#98:                                # %land.lhs.true454
                                        #   in Loop: Header=BB46_95 Depth=2
	movq	16(%rdi), %rcx
	cmpq	$0, 8(%rcx)
	je	.LBB46_99
	.align	16, 0x90
.LBB46_100:                             # %for.inc482
                                        #   in Loop: Header=BB46_95 Depth=2
	movq	$32, %rcx
	movq	%rsi, %rdi
	shlq	%cl, %rdi
	movq	$32, %rcx
	sarq	%cl, %rdi
	incq	%rsi
	cmpq	%rdx, %rdi
	jl	.LBB46_95
.LBB46_101:                             #   in Loop: Header=BB46_23 Depth=1
	movq	%r11, %r15
.LBB46_102:                             # %if.end485
                                        #   in Loop: Header=BB46_23 Depth=1
	movq	%r9, %rbx
	jmp	.LBB46_103
.LBB46_93:                              #   in Loop: Header=BB46_23 Depth=1
	movq	%rsi, %r15
	jmp	.LBB46_103
.LBB46_90:                              #   in Loop: Header=BB46_23 Depth=1
	movq	%rdx, 144(%rsp)         # 8-byte Spill
	movq	%rsi, %r15
.LBB46_103:                             # %if.end485
                                        #   in Loop: Header=BB46_23 Depth=1
	movl	(%r15), %edi
	movq	%rdi, %rax
	andq	$65535, %rax            # imm = 0xFFFF
	cmpq	$51, %r8
	je	.LBB46_105
# BB#104:                               # %if.end485
                                        #   in Loop: Header=BB46_23 Depth=1
	cmpq	$39, %rax
	je	.LBB46_105
# BB#112:                               # %if.else568
                                        #   in Loop: Header=BB46_23 Depth=1
	movl	optimize(%rip), %eax
	testq	%rax, %rax
	jne	.LBB46_114
# BB#113:                               # %land.lhs.true570
                                        #   in Loop: Header=BB46_23 Depth=1
	movzbl	49(%r12), %eax
	testq	$4, %rax
	je	.LBB46_117
.LBB46_114:                             # %lor.lhs.false577
                                        #   in Loop: Header=BB46_23 Depth=1
	movzbl	17(%r12), %eax
	testq	$1, %rax
	jne	.LBB46_117
# BB#115:                               # %lor.lhs.false583
                                        #   in Loop: Header=BB46_23 Depth=1
	movl	flag_float_store(%rip), %eax
	testq	%rax, %rax
	je	.LBB46_119
# BB#116:                               # %land.lhs.true585
                                        #   in Loop: Header=BB46_23 Depth=1
	movq	8(%r12), %rax
	movzbl	16(%rax), %eax
	cmpq	$7, %rax
	jne	.LBB46_119
.LBB46_117:                             # %lor.lhs.false594
                                        #   in Loop: Header=BB46_23 Depth=1
	cmpq	$0, 112(%rsp)           # 8-byte Folded Reload
	jne	.LBB46_119
# BB#118:                               # %lor.lhs.false594
                                        #   in Loop: Header=BB46_23 Depth=1
	movq	120(%rsp), %rax         # 8-byte Reload
	cmpq	%rax, %r12
	je	.LBB46_119
# BB#209:                               # %if.else1188
                                        #   in Loop: Header=BB46_23 Depth=1
	movq	%rbx, %r13
	cmpq	%r8, 144(%rsp)          # 8-byte Folded Reload
	je	.LBB46_210
# BB#211:                               # %if.then1191
                                        #   in Loop: Header=BB46_23 Depth=1
	movq	%r8, 80(%rsp)           # 8-byte Spill
	movq	$16, %rcx
	shrq	%cl, %rdi
	andq	$255, %rdi
	callq	gen_reg_rtx
	movq	%rax, %rbx
	movq	%r15, %rdi
	callq	validize_mem
	movq	%rbx, %rdi
	movq	%rax, %rsi
	callq	emit_move_insn
	movq	64(%rsp), %rdi          # 8-byte Reload
	callq	push_to_sequence
	movq	8(%r12), %rax
	movl	16(%rax), %edx
	movq	$13, %rcx
	shrq	%cl, %rdx
	andq	$1, %rdx
	movq	136(%rsp), %r14         # 8-byte Reload
	movq	%r14, %rdi
	movq	%rbx, %rsi
	callq	convert_to_mode
	movq	%rax, %r15
	xorq	%rbx, %rbx
	movq	%r13, %rdi
	testq	%rdi, %rdi
	je	.LBB46_213
# BB#212:                               # %if.then1208
                                        #   in Loop: Header=BB46_23 Depth=1
	xorq	%rdx, %rdx
	movq	$1, %rcx
	movq	$1, %r8
	movq	%r14, %rsi
	callq	adjust_address_1
	movq	%rax, %rbx
.LBB46_213:                             # %if.end1210
                                        #   in Loop: Header=BB46_23 Depth=1
	callq	get_insns
	movq	%rax, 64(%rsp)          # 8-byte Spill
	callq	end_sequence
	jmp	.LBB46_214
.LBB46_105:                             # %if.then493
                                        #   in Loop: Header=BB46_23 Depth=1
	movq	%r10, %r13
	cmpq	$39, %rax
	je	.LBB46_107
# BB#106:                               # %if.then493
                                        #   in Loop: Header=BB46_23 Depth=1
	cmpq	$61, %rax
	jne	.LBB46_220
.LBB46_107:                             # %if.then503
                                        #   in Loop: Header=BB46_23 Depth=1
	movq	8(%r12), %rdi
	callq	int_size_in_bytes
	movl	target_flags(%rip), %r14d
	movq	$23, %rcx
	shrq	%cl, %r14
	movq	%r14, %rcx
	andq	$4, %rcx
	addq	%rax, %rcx
	notq	%r14
	movabsq	$4294967299, %rax       # imm = 0x100000003
	addq	%rax, %rcx
	movabsq	$4294967288, %rax       # imm = 0xFFFFFFF8
	orq	%rax, %r14
	andq	%rcx, %r14
	movabsq	$4294967292, %rax       # imm = 0xFFFFFFFC
	andq	%rax, %r14
	testq	%rbx, %rbx
	jne	.LBB46_109
# BB#108:                               # %if.then522
                                        #   in Loop: Header=BB46_23 Depth=1
	movq	$32, %rcx
	movq	%r14, %rsi
	movq	cfun(%rip), %rax
	movzbl	2(%r15), %edi
	shlq	%cl, %rsi
	movq	$32, %rcx
	sarq	%cl, %rsi
	xorq	%rdx, %rdx
	movq	%rax, %rcx
	callq	assign_stack_local_1
	movq	$1, %rdx
	movq	%rax, %rdi
	movq	%rax, %r13
	movq	%r12, %rsi
	callq	set_mem_attributes
.LBB46_109:                             # %if.end540
                                        #   in Loop: Header=BB46_23 Depth=1
	movzbl	(%r15), %eax
	cmpq	$39, %rax
	jne	.LBB46_111
# BB#110:                               # %if.then545
                                        #   in Loop: Header=BB46_23 Depth=1
	movq	%r13, %rbx
	movq	%rbx, %rdi
	callq	validize_mem
	movq	8(%r12), %rdi
	movq	%rax, %r14
	callq	int_size_in_bytes
	movq	%r14, %rdi
	movq	%r15, %rsi
	movq	%rax, %rdx
	callq	emit_group_store
	jmp	.LBB46_220
.LBB46_119:                             # %if.then599
                                        #   in Loop: Header=BB46_23 Depth=1
	movq	%rbx, 128(%rsp)         # 8-byte Spill
	movq	%r8, 80(%rsp)           # 8-byte Spill
	movq	8(%r12), %rdi
	movl	16(%rdi), %eax
	movq	$13, %rcx
	shrq	%cl, %rax
	andq	$1, %rax
	movl	%eax, 220(%rsp)
	xorq	%rcx, %rcx
	movq	136(%rsp), %rsi         # 8-byte Reload
	leaq	220(%rsp), %rdx
	callq	promote_mode
	movq	%rax, %rdi
	movq	%rax, %r13
	callq	gen_reg_rtx
	movq	%rax, %r14
	movq	%r14, %rdi
	callq	mark_user_reg
	cmpq	$0, 112(%rsp)           # 8-byte Folded Reload
	je	.LBB46_121
# BB#120:                               # %if.then611
                                        #   in Loop: Header=BB46_23 Depth=1
	movq	104(%rsp), %rax         # 8-byte Reload
	movq	8(%rax), %rax
	movl	60(%rax), %edi
	movq	$9, %rcx
	shrq	%cl, %rdi
	andq	$127, %rdi
	movq	%r14, %rsi
	callq	gen_rtx_MEM
	movq	%rax, %rbx
	movq	$1, %rdx
	movq	%rbx, %rdi
	movq	%r12, %rsi
	callq	set_mem_attributes
	movq	%rbx, 144(%r12)
	jmp	.LBB46_124
.LBB46_111:                             # %if.else551
                                        #   in Loop: Header=BB46_23 Depth=1
	movq	$32, %rcx
	movl	8(%r15), %eax
	movq	%rax, 144(%rsp)         # 8-byte Spill
	shlq	%cl, %r14
	movq	$32, %rcx
	sarq	%cl, %r14
	movq	%r13, %r15
	movq	%r15, %rdi
	callq	validize_mem
	movq	%rax, %r13
	movl	target_flags(%rip), %esi
	movq	$23, %rcx
	shrq	%cl, %rsi
	andq	$4, %rsi
	addq	$4, %rsi
	movq	%r14, %rax
	cqto
	idivq	%rsi
	movq	%rax, %rbx
	movq	8(%r12), %rdi
	callq	int_size_in_bytes
	movq	144(%rsp), %rdi         # 8-byte Reload
	movq	%r13, %rsi
	movq	%rbx, %rdx
	movq	%rax, %rcx
	callq	move_block_from_reg
	movq	%r15, %rbx
	jmp	.LBB46_220
.LBB46_121:                             # %if.else622
                                        #   in Loop: Header=BB46_23 Depth=1
	movq	%r14, 144(%r12)
	testq	%r14, %r14
	movq	%r14, %rdi
	jne	.LBB46_123
# BB#122:                               # %cond.false631
                                        #   in Loop: Header=BB46_23 Depth=1
	xorq	%rsi, %rsi
	movq	%r12, %rdi
	callq	make_decl_rtl
	movq	144(%r12), %rdi
.LBB46_123:                             # %cond.end634
                                        #   in Loop: Header=BB46_23 Depth=1
	movq	%r12, %rsi
	callq	maybe_set_unchanging
.LBB46_124:                             # %if.end636
                                        #   in Loop: Header=BB46_23 Depth=1
	movq	144(%rsp), %rax         # 8-byte Reload
	movq	80(%rsp), %rcx          # 8-byte Reload
	cmpq	%rax, %rcx
	movabsq	$0, %rax
	jne	.LBB46_126
# BB#125:                               # %if.end636
                                        #   in Loop: Header=BB46_23 Depth=1
	movabsq	$1, %rax
.LBB46_126:                             # %if.end636
                                        #   in Loop: Header=BB46_23 Depth=1
	movabsq	$4294967295, %rcx       # imm = 0xFFFFFFFF
	andq	%rcx, %r13
	movq	144(%rsp), %rcx         # 8-byte Reload
	cmpq	%rcx, %r13
	jne	.LBB46_128
# BB#127:                               # %if.end636
                                        #   in Loop: Header=BB46_23 Depth=1
	testq	%rax, %rax
	je	.LBB46_128
# BB#136:                               # %if.else723
                                        #   in Loop: Header=BB46_23 Depth=1
	movq	%r15, %rdi
	callq	validize_mem
	movq	%r14, %r13
	movq	%r13, %rdi
	movq	%rax, %rsi
	callq	emit_move_insn
	xorq	%r15, %r15
	jmp	.LBB46_137
.LBB46_128:                             # %if.then642
                                        #   in Loop: Header=BB46_23 Depth=1
	movzbl	2(%r15), %edi
	callq	gen_reg_rtx
	movq	%rax, %rbx
	movq	%r15, %rdi
	callq	validize_mem
	movq	%rbx, %rdi
	movq	%rax, %rsi
	callq	emit_move_insn
	movq	64(%rsp), %rdi          # 8-byte Reload
	callq	push_to_sequence
	movl	220(%rsp), %edx
	movq	136(%rsp), %rdi         # 8-byte Reload
	movq	%rbx, %rsi
	callq	convert_to_mode
	movl	(%rax), %edx
	movq	%rdx, %rcx
	andq	$65535, %rcx            # imm = 0xFFFF
	cmpq	$63, %rcx
	jne	.LBB46_135
# BB#129:                               # %land.lhs.true654
                                        #   in Loop: Header=BB46_23 Depth=1
	movq	$16, %rcx
	movq	%rdx, %rsi
	shrq	%cl, %rsi
	andq	$255, %rsi
	movq	80(%rsp), %rcx          # 8-byte Reload
	cmpq	%rcx, %rsi
	jne	.LBB46_135
# BB#130:                               # %land.lhs.true660
                                        #   in Loop: Header=BB46_23 Depth=1
	movq	8(%rax), %rcx
	movl	(%rcx), %esi
	movq	%rsi, %rcx
	andq	$65535, %rcx            # imm = 0xFFFF
	cmpq	$61, %rcx
	jne	.LBB46_135
# BB#131:                               # %land.lhs.true660
                                        #   in Loop: Header=BB46_23 Depth=1
	movq	144(%rsp), %rcx         # 8-byte Reload
	cmpq	%rcx, 80(%rsp)          # 8-byte Folded Reload
	jne	.LBB46_135
# BB#132:                               # %land.lhs.true671
                                        #   in Loop: Header=BB46_23 Depth=1
	movzbl	2(%r15), %edi
	movq	$16, %rcx
	shrq	%cl, %rsi
	andq	$255, %rsi
	cmpq	%rdi, %rsi
	jne	.LBB46_135
# BB#133:                               # %land.lhs.true683
                                        #   in Loop: Header=BB46_23 Depth=1
	movq	80(%rsp), %rcx          # 8-byte Reload
	movzbl	mode_size(%rcx), %ecx
	movzbl	mode_size(%rsi), %esi
	cmpq	%rsi, %rcx
	jae	.LBB46_135
# BB#134:                               # %if.then698
                                        #   in Loop: Header=BB46_23 Depth=1
	orq	$268435456, %rdx        # imm = 0x10000000
	movl	%edx, (%rax)
	movl	220(%rsp), %ecx
	andq	$1, %rcx
	shlq	$26, %rcx
	movabsq	$4227858431, %rsi       # imm = 0xFBFFFFFF
	andq	%rsi, %rdx
	orq	%rcx, %rdx
	movl	%edx, (%rax)
.LBB46_135:                             # %if.end707
                                        #   in Loop: Header=BB46_23 Depth=1
	movl	16(%r12), %ebx
	andq	$65536, %rbx            # imm = 0x10000
	movq	88(%rsp), %rdi          # 8-byte Reload
	movq	%rax, %rsi
	callq	make_tree
	xorq	%rdx, %rdx
	xorq	%rcx, %rcx
	movq	%r12, %rdi
	movq	%rax, %rsi
	callq	expand_assignment
	movl	16(%r12), %eax
	movabsq	$4294901759, %rcx       # imm = 0xFFFEFFFF
	andq	%rcx, %rax
	orq	%rbx, %rax
	movl	%eax, 16(%r12)
	callq	get_insns
	movq	%rax, 64(%rsp)          # 8-byte Spill
	callq	end_sequence
	movq	$1, %r15
	movq	%r14, %r13
.LBB46_137:                             # %if.end726
                                        #   in Loop: Header=BB46_23 Depth=1
	cmpq	$0, 112(%rsp)           # 8-byte Folded Reload
	je	.LBB46_138
# BB#139:                               # %land.lhs.true728
                                        #   in Loop: Header=BB46_23 Depth=1
	movq	8(%r12), %rax
	movl	60(%rax), %ebx
	movq	$9, %rcx
	shrq	%cl, %rbx
	andq	$127, %rbx
	cmpq	$51, %rbx
	jne	.LBB46_141
# BB#140:                               #   in Loop: Header=BB46_23 Depth=1
	movq	128(%rsp), %rdi         # 8-byte Reload
	jmp	.LBB46_166
.LBB46_138:                             #   in Loop: Header=BB46_23 Depth=1
	movq	128(%rsp), %rdi         # 8-byte Reload
	jmp	.LBB46_166
.LBB46_210:                             #   in Loop: Header=BB46_23 Depth=1
	movq	%r8, 80(%rsp)           # 8-byte Spill
	movq	%r13, %rbx
.LBB46_214:                             # %if.end1212
                                        #   in Loop: Header=BB46_23 Depth=1
	cmpq	%rbx, %r15
	je	.LBB46_220
# BB#215:                               # %if.then1215
                                        #   in Loop: Header=BB46_23 Depth=1
	testq	%rbx, %rbx
	jne	.LBB46_217
# BB#216:                               # %if.then1218
                                        #   in Loop: Header=BB46_23 Depth=1
	movzbl	2(%r15), %edi
	movzbl	mode_size(%rdi), %esi
	movq	cfun(%rip), %rcx
	xorq	%rdx, %rdx
	callq	assign_stack_local_1
	movq	%rax, %rbx
	movq	$1, %rdx
	movq	%rbx, %rdi
	movq	%r12, %rsi
	callq	set_mem_attributes
.LBB46_217:                             # %if.end1229
                                        #   in Loop: Header=BB46_23 Depth=1
	movq	80(%rsp), %rax          # 8-byte Reload
	cmpq	%rax, 144(%rsp)         # 8-byte Folded Reload
	je	.LBB46_219
# BB#218:                               # %if.then1232
                                        #   in Loop: Header=BB46_23 Depth=1
	movq	64(%rsp), %rdi          # 8-byte Reload
	callq	push_to_sequence
	movq	%rbx, %rdi
	callq	validize_mem
	movq	%rbx, %r14
	movq	%rax, %rbx
	movq	%r15, %rdi
	callq	validize_mem
	movq	%rbx, %rdi
	movq	%r14, %rbx
	movq	%rax, %rsi
	callq	emit_move_insn
	callq	get_insns
	movq	%rax, 64(%rsp)          # 8-byte Spill
	callq	end_sequence
	jmp	.LBB46_220
.LBB46_141:                             # %land.lhs.true738
                                        #   in Loop: Header=BB46_23 Depth=1
	movq	144(%r12), %rax
	testq	%rax, %rax
	jne	.LBB46_143
# BB#142:                               # %cond.false752
                                        #   in Loop: Header=BB46_23 Depth=1
	xorq	%rsi, %rsi
	movq	%r12, %rdi
	callq	make_decl_rtl
	movq	144(%r12), %rax
.LBB46_143:                             # %cond.end755
                                        #   in Loop: Header=BB46_23 Depth=1
	movzbl	2(%rax), %eax
	movabsq	$4294967295, %rcx       # imm = 0xFFFFFFFF
	andq	%rcx, %rbx
	cmpq	%rax, %rbx
	jne	.LBB46_152
# BB#144:                               # %lor.lhs.false762
                                        #   in Loop: Header=BB46_23 Depth=1
	movl	optimize(%rip), %eax
	testq	%rax, %rax
	jne	.LBB46_147
# BB#145:                               # %land.lhs.true764
                                        #   in Loop: Header=BB46_23 Depth=1
	movzbl	49(%r12), %eax
	testq	$4, %rax
	jne	.LBB46_147
# BB#146:                               #   in Loop: Header=BB46_23 Depth=1
	movq	128(%rsp), %rdi         # 8-byte Reload
	jmp	.LBB46_166
.LBB46_219:                             # %if.else1237
                                        #   in Loop: Header=BB46_23 Depth=1
	movq	%rbx, %rdi
	callq	validize_mem
	movq	%rbx, %r14
	movq	%rax, %rbx
	movq	%r15, %rdi
	callq	validize_mem
	movq	%rbx, %rdi
	movq	%r14, %rbx
	movq	%rax, %rsi
	callq	emit_move_insn
.LBB46_220:                             # %if.end1242
                                        #   in Loop: Header=BB46_23 Depth=1
	movq	%rbx, 144(%r12)
	movq	48(%rsp), %r15          # 8-byte Reload
	jmp	.LBB46_221
.LBB46_147:                             # %lor.lhs.false772
                                        #   in Loop: Header=BB46_23 Depth=1
	movzbl	17(%r12), %eax
	testq	$1, %rax
	jne	.LBB46_148
# BB#149:                               # %lor.lhs.false779
                                        #   in Loop: Header=BB46_23 Depth=1
	movl	flag_float_store(%rip), %eax
	testq	%rax, %rax
	je	.LBB46_152
# BB#150:                               # %land.lhs.true781
                                        #   in Loop: Header=BB46_23 Depth=1
	movq	8(%r12), %rax
	movzbl	16(%rax), %eax
	cmpq	$7, %rax
	jne	.LBB46_152
# BB#151:                               #   in Loop: Header=BB46_23 Depth=1
	movq	128(%rsp), %rdi         # 8-byte Reload
	jmp	.LBB46_166
.LBB46_152:                             # %if.then790
                                        #   in Loop: Header=BB46_23 Depth=1
	movq	8(%r12), %rax
	movl	60(%rax), %edi
	movq	$9, %rcx
	shrq	%cl, %rdi
	andq	$127, %rdi
	callq	gen_reg_rtx
	movq	%rax, %r13
	movq	%r13, %rdi
	callq	mark_user_reg
	movq	144(%r12), %rsi
	movl	(%r13), %ebx
	testq	%rsi, %rsi
	jne	.LBB46_154
# BB#153:                               # %cond.false808
                                        #   in Loop: Header=BB46_23 Depth=1
	xorq	%rsi, %rsi
	movq	%r12, %rdi
	callq	make_decl_rtl
	movq	144(%r12), %rsi
.LBB46_154:                             # %cond.end811
                                        #   in Loop: Header=BB46_23 Depth=1
	movl	(%rsi), %edi
	xorq	%rdi, %rbx
	testq	$16711680, %rbx         # imm = 0xFF0000
	jne	.LBB46_155
# BB#162:                               # %if.else873
                                        #   in Loop: Header=BB46_23 Depth=1
	testq	%rsi, %rsi
	jne	.LBB46_164
# BB#163:                               # %cond.false880
                                        #   in Loop: Header=BB46_23 Depth=1
	xorq	%rsi, %rsi
	movq	%r12, %rdi
	callq	make_decl_rtl
	movq	144(%r12), %rsi
.LBB46_164:                             # %cond.end883
                                        #   in Loop: Header=BB46_23 Depth=1
	movq	%r13, %rdi
	callq	emit_move_insn
	jmp	.LBB46_165
.LBB46_99:                              # %if.then468
                                        #   in Loop: Header=BB46_23 Depth=1
	movq	%r15, 160(%r12)
	jmp	.LBB46_102
.LBB46_155:                             # %if.then818
                                        #   in Loop: Header=BB46_23 Depth=1
	testq	%rsi, %rsi
	jne	.LBB46_157
# BB#156:                               # %cond.false826
                                        #   in Loop: Header=BB46_23 Depth=1
	xorq	%rsi, %rsi
	movq	%r12, %rdi
	callq	make_decl_rtl
	movq	144(%r12), %rax
	movl	(%rax), %edi
.LBB46_157:                             # %cond.end829
                                        #   in Loop: Header=BB46_23 Depth=1
	movq	$16, %rcx
	shrq	%cl, %rdi
	andq	$255, %rdi
	callq	gen_reg_rtx
	movq	8(%r12), %rcx
	movl	16(%rcx), %r14d
	movq	%rax, %r15
	movq	$13, %rcx
	shrq	%cl, %r14
	andq	$1, %r14
	movq	64(%rsp), %rdi          # 8-byte Reload
	callq	push_to_sequence
	movq	144(%r12), %rsi
	testq	%rsi, %rsi
	jne	.LBB46_159
# BB#158:                               # %cond.false848
                                        #   in Loop: Header=BB46_23 Depth=1
	xorq	%rsi, %rsi
	movq	%r12, %rdi
	callq	make_decl_rtl
	movq	144(%r12), %rsi
.LBB46_159:                             # %cond.end851
                                        #   in Loop: Header=BB46_23 Depth=1
	movq	%r15, %rdi
	callq	emit_move_insn
	movzbl	2(%r13), %edi
	movq	%r15, %rsi
	movq	%r14, %rdx
	callq	convert_to_mode
	testq	%rax, %rax
	movq	%rax, 144(%r12)
	jne	.LBB46_161
# BB#160:                               # %cond.false866
                                        #   in Loop: Header=BB46_23 Depth=1
	xorq	%rsi, %rsi
	movq	%r12, %rdi
	callq	make_decl_rtl
	movq	144(%r12), %rax
.LBB46_161:                             # %cond.end869
                                        #   in Loop: Header=BB46_23 Depth=1
	movq	%r13, %rdi
	movq	%rax, %rsi
	callq	emit_move_insn
	callq	get_insns
	movq	%rax, 64(%rsp)          # 8-byte Spill
	callq	end_sequence
	movq	$1, %r15
.LBB46_165:                             # %if.end886
                                        #   in Loop: Header=BB46_23 Depth=1
	movq	%r13, 144(%r12)
	xorq	%rdi, %rdi
	jmp	.LBB46_166
.LBB46_148:                             #   in Loop: Header=BB46_23 Depth=1
	movq	128(%rsp), %rdi         # 8-byte Reload
.LBB46_166:                             # %if.end889
                                        #   in Loop: Header=BB46_23 Depth=1
	movl	(%r13), %eax
	movq	%rax, %rcx
	andq	$65535, %rcx            # imm = 0xFFFF
	cmpq	$65, %rcx
	jne	.LBB46_170
# BB#167:                               # %if.then894
                                        #   in Loop: Header=BB46_23 Depth=1
	movq	8(%r13), %rcx
	movq	16(%r13), %rdx
	movl	8(%rcx), %esi
	movl	8(%rdx), %ecx
	cmpq	%rcx, %rsi
	ja	.LBB46_169
# BB#168:                               # %if.then894
                                        #   in Loop: Header=BB46_23 Depth=1
	movq	%rcx, %rsi
.LBB46_169:                             # %if.then894
                                        #   in Loop: Header=BB46_23 Depth=1
	movq	%rdi, 128(%rsp)         # 8-byte Spill
	jmp	.LBB46_171
.LBB46_170:                             # %if.else925
                                        #   in Loop: Header=BB46_23 Depth=1
	movq	%rdi, 128(%rsp)         # 8-byte Spill
	movl	8(%r13), %esi
.LBB46_171:                             # %if.end929
                                        #   in Loop: Header=BB46_23 Depth=1
	movq	%r15, 104(%rsp)         # 8-byte Spill
	movq	cfun(%rip), %rdx
	movl	304(%rdx), %r14d
	movq	$32, %rcx
	movq	%r14, %rbx
	shlq	%cl, %rbx
	movq	$32, %rcx
	sarq	%cl, %rbx
	movq	%rsi, %rcx
	movabsq	$4294967295, %rdi       # imm = 0xFFFFFFFF
	andq	%rdi, %rcx
	cmpq	%r14, %rcx
	jb	.LBB46_173
# BB#172:                               # %if.then933
                                        #   in Loop: Header=BB46_23 Depth=1
	incq	%rsi
	movl	%esi, 304(%rdx)
	movq	312(%rdx), %rdi
	movabsq	$4294967295, %rax       # imm = 0xFFFFFFFF
	movq	%rax, %r15
	andq	%r15, %rsi
	movq	$3, %rcx
	shlq	%cl, %rsi
	callq	xrealloc
	movq	cfun(%rip), %rcx
	movl	304(%rcx), %edx
	movq	%r13, 136(%rsp)         # 8-byte Spill
	movq	%rax, %r13
	leaq	(%r13,%rbx,8), %rdi
	subq	%r14, %rdx
	andq	%r15, %rdx
	movq	$3, %rcx
	shlq	%cl, %rdx
	xorq	%rsi, %rsi
	callq	memset
	movq	cfun(%rip), %rax
	movq	%r13, 312(%rax)
	movq	136(%rsp), %r13         # 8-byte Reload
	movl	(%r13), %eax
.LBB46_173:                             # %if.end947
                                        #   in Loop: Header=BB46_23 Depth=1
	andq	$65535, %rax            # imm = 0xFFFF
	cmpq	$65, %rax
	movq	144(%rsp), %r15         # 8-byte Reload
	jne	.LBB46_177
# BB#174:                               # %if.then952
                                        #   in Loop: Header=BB46_23 Depth=1
	movq	8(%r13), %rax
	movzbl	2(%rax), %r14d
	movq	%r14, %rdi
	movq	%r13, %rsi
	callq	gen_realpart
	movl	8(%rax), %eax
	movq	%rax, 112(%rsp)         # 8-byte Spill
	movq	%r14, %rdi
	movq	%r13, %rsi
	movq	%r13, 136(%rsp)         # 8-byte Spill
	callq	gen_imagpart
	movl	8(%rax), %r13d
	movq	128(%rsp), %rbx         # 8-byte Reload
	testq	%rbx, %rbx
	jne	.LBB46_175
# BB#176:                               # %if.end993.thread
                                        #   in Loop: Header=BB46_23 Depth=1
	movq	cfun(%rip), %rax
	movq	312(%rax), %rax
	movq	112(%rsp), %rcx         # 8-byte Reload
	movq	$0, (%rax,%rcx,8)
	movq	cfun(%rip), %rax
	movq	312(%rax), %rax
	movq	$0, (%rax,%r13,8)
	movq	48(%rsp), %r15          # 8-byte Reload
	jmp	.LBB46_205
.LBB46_177:                             # %if.else986
                                        #   in Loop: Header=BB46_23 Depth=1
	movq	cfun(%rip), %rax
	movl	8(%r13), %ecx
	movq	%r13, 136(%rsp)         # 8-byte Spill
	movq	312(%rax), %rax
	movq	128(%rsp), %rdx         # 8-byte Reload
	movq	%rdx, (%rax,%rcx,8)
	xorq	%r14, %r14
	xorq	%rdx, %rdx
	movq	80(%rsp), %rax          # 8-byte Reload
	jmp	.LBB46_178
.LBB46_175:                             # %if.then969
                                        #   in Loop: Header=BB46_23 Depth=1
	movq	%r14, %rdi
	movq	%rbx, %rsi
	callq	gen_realpart
	movq	cfun(%rip), %rcx
	movq	312(%rcx), %rcx
	movq	%r13, 88(%rsp)          # 8-byte Spill
	movq	112(%rsp), %r13         # 8-byte Reload
	movq	%rax, (%rcx,%r13,8)
	movq	%r14, %rdi
	movq	%rbx, %rsi
	callq	gen_imagpart
	movq	cfun(%rip), %rcx
	movq	312(%rcx), %rcx
	movq	88(%rsp), %rdx          # 8-byte Reload
	movq	%rax, (%rcx,%rdx,8)
	movq	80(%rsp), %rax          # 8-byte Reload
	movq	%r13, %rdx
	movq	88(%rsp), %r14          # 8-byte Reload
.LBB46_178:                             # %if.end993
                                        #   in Loop: Header=BB46_23 Depth=1
	cmpq	%r15, %rax
	movabsq	$0, %rcx
	movq	%rcx, %rax
	jne	.LBB46_180
# BB#179:                               # %if.end993
                                        #   in Loop: Header=BB46_23 Depth=1
	movabsq	$1, %rax
.LBB46_180:                             # %if.end993
                                        #   in Loop: Header=BB46_23 Depth=1
	movq	%rdx, 112(%rsp)         # 8-byte Spill
	cmpq	$0, 104(%rsp)           # 8-byte Folded Reload
	movq	128(%rsp), %rbx         # 8-byte Reload
	jne	.LBB46_182
# BB#181:                               # %if.end993
                                        #   in Loop: Header=BB46_23 Depth=1
	movabsq	$1, %rcx
.LBB46_182:                             # %if.end993
                                        #   in Loop: Header=BB46_23 Depth=1
	testq	%rbx, %rbx
	movq	48(%rsp), %r15          # 8-byte Reload
	je	.LBB46_205
# BB#183:                               # %if.end993
                                        #   in Loop: Header=BB46_23 Depth=1
	andq	%rcx, %rax
	je	.LBB46_205
# BB#184:                               # %land.lhs.true1001
                                        #   in Loop: Header=BB46_23 Depth=1
	movzbl	(%rbx), %eax
	cmpq	$66, %rax
	jne	.LBB46_205
# BB#185:                               # %land.lhs.true1001
                                        #   in Loop: Header=BB46_23 Depth=1
	movq	176(%rsp), %rax
	testq	%rax, %rax
	jne	.LBB46_205
# BB#186:                               # %land.lhs.true1010
                                        #   in Loop: Header=BB46_23 Depth=1
	movq	global_rtl+48(%rip), %rdi
	movq	8(%rbx), %rsi
	callq	reg_mentioned_p
	movabsq	$4294967295, %rcx       # imm = 0xFFFFFFFF
	testq	%rcx, %rax
	je	.LBB46_205
# BB#187:                               # %if.then1016
                                        #   in Loop: Header=BB46_23 Depth=1
	movq	%r14, %r13
	callq	get_last_insn
	movq	136(%rsp), %rcx         # 8-byte Reload
	movzbl	(%rcx), %ecx
	movq	%rax, %r14
	cmpq	$65, %rcx
	jne	.LBB46_199
# BB#188:                               # %for.cond1023.preheader
                                        #   in Loop: Header=BB46_23 Depth=1
	testq	%r14, %r14
	movq	%r13, %rbx
	je	.LBB46_205
	.align	16, 0x90
.LBB46_189:                             # %for.body1026
                                        #   Parent Loop BB46_23 Depth=1
                                        # =>  This Inner Loop Header: Depth=2
	movzbl	(%r14), %eax
	movzbl	rtx_class(%rax), %eax
	cmpq	$105, %rax
	jne	.LBB46_198
# BB#190:                               # %cond.true1034
                                        #   in Loop: Header=BB46_189 Depth=2
	movq	32(%r14), %rax
	movzbl	(%rax), %ecx
	cmpq	$47, %rcx
	je	.LBB46_192
# BB#191:                               # %cond.false1046
                                        #   in Loop: Header=BB46_189 Depth=2
	movq	%r14, %rdi
	movq	%rax, %rsi
	callq	single_set_2
.LBB46_192:                             # %cond.end1054
                                        #   in Loop: Header=BB46_189 Depth=2
	testq	%rax, %rax
	je	.LBB46_198
# BB#193:                               # %land.lhs.true1058
                                        #   in Loop: Header=BB46_189 Depth=2
	movq	cfun(%rip), %rcx
	movq	24(%rcx), %rdx
	movq	80(%rdx), %rdx
	movq	8(%rax), %rax
	movq	(%rdx,%rbx,8), %rsi
	cmpq	%rsi, %rax
	jne	.LBB46_195
# BB#194:                               # %if.then1066
                                        #   in Loop: Header=BB46_189 Depth=2
	movq	312(%rcx), %rax
	movq	(%rax,%rbx,8), %rdx
	jmp	.LBB46_197
.LBB46_195:                             # %land.lhs.true1080
                                        #   in Loop: Header=BB46_189 Depth=2
	movq	112(%rsp), %rsi         # 8-byte Reload
	movq	(%rdx,%rsi,8), %rdx
	cmpq	%rdx, %rax
	jne	.LBB46_198
# BB#196:                               # %if.then1090
                                        #   in Loop: Header=BB46_189 Depth=2
	movq	312(%rcx), %rax
	movq	112(%rsp), %rcx         # 8-byte Reload
	movq	(%rax,%rcx,8), %rdx
.LBB46_197:                             # %for.inc1103
                                        #   in Loop: Header=BB46_189 Depth=2
	movq	56(%r14), %rcx
	movq	$3, %rdi
	movq	$3, %rsi
	callq	gen_rtx_fmt_ee
	movq	%rax, 56(%r14)
	.align	16, 0x90
.LBB46_198:                             # %for.inc1103
                                        #   in Loop: Header=BB46_189 Depth=2
	movq	%r14, %rdi
	callq	prev_nonnote_insn
	movq	%rax, %r14
	testq	%r14, %r14
	jne	.LBB46_189
	jmp	.LBB46_205
.LBB46_199:                             # %if.else1106
                                        #   in Loop: Header=BB46_23 Depth=1
	movzbl	(%r14), %eax
	movzbl	rtx_class(%rax), %eax
	cmpq	$105, %rax
	jne	.LBB46_205
# BB#200:                               # %cond.true1114
                                        #   in Loop: Header=BB46_23 Depth=1
	movq	32(%r14), %rax
	movzbl	(%rax), %ecx
	cmpq	$47, %rcx
	je	.LBB46_202
# BB#201:                               # %cond.false1126
                                        #   in Loop: Header=BB46_23 Depth=1
	movq	%r14, %rdi
	movq	%rax, %rsi
	callq	single_set_2
.LBB46_202:                             # %cond.end1134
                                        #   in Loop: Header=BB46_23 Depth=1
	testq	%rax, %rax
	je	.LBB46_205
# BB#203:                               # %land.lhs.true1138
                                        #   in Loop: Header=BB46_23 Depth=1
	movq	8(%rax), %rax
	movq	136(%rsp), %rcx         # 8-byte Reload
	cmpq	%rcx, %rax
	jne	.LBB46_205
# BB#204:                               # %if.then1144
                                        #   in Loop: Header=BB46_23 Depth=1
	movq	56(%r14), %rcx
	movq	$3, %rdi
	movq	$3, %rsi
	movq	%rbx, %rdx
	callq	gen_rtx_fmt_ee
	movq	%rax, 56(%r14)
.LBB46_205:                             # %if.end1154
                                        #   in Loop: Header=BB46_23 Depth=1
	movq	8(%r12), %rax
	movl	16(%rax), %ecx
	orq	$2, %rcx
	andq	$255, %rcx
	cmpq	$15, %rcx
	jne	.LBB46_207
# BB#206:                               # %if.then1172
                                        #   in Loop: Header=BB46_23 Depth=1
	movq	8(%rax), %rax
	movl	64(%rax), %esi
	movq	136(%rsp), %rdi         # 8-byte Reload
	callq	mark_reg_pointer
.LBB46_207:                             # %if.end1178
                                        #   in Loop: Header=BB46_23 Depth=1
	movzbl	17(%r12), %eax
	testq	$4, %rax
	je	.LBB46_221
# BB#208:                               # %if.then1185
                                        #   in Loop: Header=BB46_23 Depth=1
	movq	64(%rsp), %rdi          # 8-byte Reload
	callq	push_to_sequence
	movq	%r12, %rdi
	callq	put_var_into_stack
	callq	get_insns
	movq	%rax, 64(%rsp)          # 8-byte Spill
	callq	end_sequence
.LBB46_221:                             # %if.end1246
                                        #   in Loop: Header=BB46_23 Depth=1
	movq	120(%rsp), %rax         # 8-byte Reload
	cmpq	%rax, %r12
	jne	.LBB46_225
# BB#222:                               # %if.then1249
                                        #   in Loop: Header=BB46_23 Depth=1
	movq	120(%rsp), %rax         # 8-byte Reload
	movq	144(%rax), %rsi
	movq	96(%rsp), %rax          # 8-byte Reload
	movq	96(%rax), %r14
	testq	%rsi, %rsi
	jne	.LBB46_224
# BB#223:                               # %cond.false1259
                                        #   in Loop: Header=BB46_23 Depth=1
	xorq	%rsi, %rsi
	movq	120(%rsp), %rbx         # 8-byte Reload
	movq	%rbx, %rdi
	callq	make_decl_rtl
	movq	144(%rbx), %rsi
.LBB46_224:                             # %cond.end1262
                                        #   in Loop: Header=BB46_23 Depth=1
	movzbl	48(%r14), %edi
	callq	gen_rtx_MEM
	movq	%rax, %rbx
	movq	$1, %rdx
	movq	%rbx, %rdi
	movq	%r14, %rsi
	callq	set_mem_attributes
	movq	%rbx, 144(%r14)
.LBB46_225:                             # %if.end1273
                                        #   in Loop: Header=BB46_23 Depth=1
	movq	144(%r12), %rax
	testq	%rax, %rax
	movq	40(%rsp), %r14          # 8-byte Reload
	jne	.LBB46_227
# BB#226:                               # %cond.false1280
                                        #   in Loop: Header=BB46_23 Depth=1
	xorq	%rsi, %rsi
	movq	%r12, %rdi
	callq	make_decl_rtl
	movq	144(%r12), %rax
.LBB46_227:                             # %cond.end1283
                                        #   in Loop: Header=BB46_23 Depth=1
	movl	(%rax), %ecx
	movq	%rcx, %rdx
	andq	$65535, %rdx            # imm = 0xFFFF
	cmpq	$61, %rdx
	jne	.LBB46_231
# BB#228:                               # %if.then1289
                                        #   in Loop: Header=BB46_23 Depth=1
	testq	%rax, %rax
	jne	.LBB46_230
# BB#229:                               # %cond.false1296
                                        #   in Loop: Header=BB46_23 Depth=1
	xorq	%rsi, %rsi
	movq	%r12, %rdi
	callq	make_decl_rtl
	movq	144(%r12), %rax
.LBB46_230:                             # %cond.end1299
                                        #   in Loop: Header=BB46_23 Depth=1
	movq	cfun(%rip), %rcx
	jmp	.LBB46_239
.LBB46_231:                             # %if.else1307
                                        #   in Loop: Header=BB46_23 Depth=1
	testq	%rax, %rax
	jne	.LBB46_233
# BB#232:                               # %cond.false1314
                                        #   in Loop: Header=BB46_23 Depth=1
	xorq	%rsi, %rsi
	movq	%r12, %rdi
	callq	make_decl_rtl
	movq	144(%r12), %rax
	movl	(%rax), %ecx
.LBB46_233:                             # %cond.end1317
                                        #   in Loop: Header=BB46_23 Depth=1
	andq	$65535, %rcx            # imm = 0xFFFF
	cmpq	$65, %rcx
	jne	.LBB46_240
# BB#234:                               # %if.then1323
                                        #   in Loop: Header=BB46_23 Depth=1
	testq	%rax, %rax
	jne	.LBB46_236
# BB#235:                               # %cond.false1330
                                        #   in Loop: Header=BB46_23 Depth=1
	xorq	%rsi, %rsi
	movq	%r12, %rdi
	callq	make_decl_rtl
	movq	144(%r12), %rax
.LBB46_236:                             # %cond.end1333
                                        #   in Loop: Header=BB46_23 Depth=1
	movq	cfun(%rip), %rcx
	movq	8(%rax), %rax
	movq	24(%rcx), %rcx
	movl	8(%rax), %eax
	movq	72(%rcx), %rcx
	movq	%r12, (%rcx,%rax,8)
	movq	144(%r12), %rax
	testq	%rax, %rax
	jne	.LBB46_238
# BB#237:                               # %cond.false1351
                                        #   in Loop: Header=BB46_23 Depth=1
	xorq	%rsi, %rsi
	movq	%r12, %rdi
	callq	make_decl_rtl
	movq	144(%r12), %rax
.LBB46_238:                             # %cond.end1354
                                        #   in Loop: Header=BB46_23 Depth=1
	movq	cfun(%rip), %rcx
	movq	16(%rax), %rax
.LBB46_239:                             # %for.inc1368
                                        #   in Loop: Header=BB46_23 Depth=1
	movq	24(%rcx), %rcx
	movl	8(%rax), %eax
	movq	72(%rcx), %rcx
	movq	%r12, (%rcx,%rax,8)
	jmp	.LBB46_240
	.align	16, 0x90
.LBB46_23:                              # %for.body
                                        # =>This Loop Header: Depth=1
                                        #     Child Loop BB46_25 Depth 2
                                        #     Child Loop BB46_95 Depth 2
                                        #     Child Loop BB46_189 Depth 2
	movq	8(%r12), %rsi
	movq	104(%r12), %rbx
	testq	%r14, %r14
	movq	%r12, %rax
	jne	.LBB46_25
# BB#24:                                # %lor.lhs.false
                                        #   in Loop: Header=BB46_23 Depth=1
	movq	cfun(%rip), %rax
	movzbl	426(%rax), %eax
	xorq	%r13, %r13
	testq	$1, %rax
	movq	%r12, %rax
	je	.LBB46_27
	.align	16, 0x90
.LBB46_25:                              # %for.cond62
                                        #   Parent Loop BB46_23 Depth=1
                                        # =>  This Inner Loop Header: Depth=2
	movq	(%rax), %rax
	testq	%rax, %rax
	movq	$1, %r13
	je	.LBB46_27
# BB#26:                                # %for.body64
                                        #   in Loop: Header=BB46_25 Depth=2
	xorq	%r13, %r13
	cmpq	$0, 72(%rax)
	je	.LBB46_25
.LBB46_27:                              # %if.end76
                                        #   in Loop: Header=BB46_23 Depth=1
	movq	global_trees(%rip), %rax
	cmpq	%rax, %rsi
	je	.LBB46_30
# BB#28:                                # %lor.lhs.false83
                                        #   in Loop: Header=BB46_23 Depth=1
	movzbl	16(%r12), %eax
	cmpq	$35, %rax
	jne	.LBB46_30
# BB#29:                                # %lor.lhs.false83
                                        #   in Loop: Header=BB46_23 Depth=1
	testq	%rbx, %rbx
	je	.LBB46_30
# BB#33:                                # %if.end107
                                        #   in Loop: Header=BB46_23 Depth=1
	movq	%r15, %rax
	andq	%r13, %rax
	cmpq	$1, %rax
	jne	.LBB46_35
# BB#34:                                # %if.then111
                                        #   in Loop: Header=BB46_23 Depth=1
	movq	cfun(%rip), %rax
	movl	248(%rsp), %ecx
	movl	%ecx, 112(%rax)
	movq	240(%rsp), %rcx
	movq	%rcx, 104(%rax)
	movq	224(%rsp), %rcx
	movq	232(%rsp), %rdx
	movq	%rdx, 96(%rax)
	movq	%rcx, 88(%rax)
.LBB46_35:                              # %if.end112
                                        #   in Loop: Header=BB46_23 Depth=1
	movl	60(%rbx), %eax
	movl	60(%rsi), %edi
	movq	$9, %rcx
	movq	%rax, %rdx
	shrq	%cl, %rdx
	movq	$9, %rcx
	shrq	%cl, %rdi
	andq	$127, %rdi
	jne	.LBB46_39
# BB#36:                                # %if.then124
                                        #   in Loop: Header=BB46_23 Depth=1
	movq	const_int_rtx+512(%rip), %rax
	testq	%rax, %rax
	movq	%rax, 144(%r12)
	jne	.LBB46_38
# BB#37:                                # %cond.false133
                                        #   in Loop: Header=BB46_23 Depth=1
	xorq	%rsi, %rsi
	movq	%r12, %rdi
	callq	make_decl_rtl
	movq	144(%r12), %rax
.LBB46_38:                              # %cond.end136
                                        #   in Loop: Header=BB46_23 Depth=1
	movq	%rax, 160(%r12)
	jmp	.LBB46_240
	.align	16, 0x90
.LBB46_30:                              # %if.then92
                                        #   in Loop: Header=BB46_23 Depth=1
	movq	const_int_rtx+512(%rip), %rsi
	movq	$51, %rdi
	callq	gen_rtx_MEM
	testq	%rax, %rax
	movq	%rax, 144(%r12)
	jne	.LBB46_32
# BB#31:                                # %cond.false
                                        #   in Loop: Header=BB46_23 Depth=1
	xorq	%rsi, %rsi
	movq	%r12, %rdi
	callq	make_decl_rtl
	movq	144(%r12), %rax
.LBB46_32:                              # %cond.end
                                        #   in Loop: Header=BB46_23 Depth=1
	movq	%rax, 160(%r12)
	movl	16(%r12), %eax
	orq	$65536, %rax            # imm = 0x10000
	movl	%eax, 16(%r12)
.LBB46_240:                             # %for.inc1368
                                        #   in Loop: Header=BB46_23 Depth=1
	movq	(%r12), %r12
	testq	%r12, %r12
	jne	.LBB46_23
# BB#241:                               # %for.cond.for.end1371_crit_edge
	movq	%r15, %r12
	movq	200(%rsp), %r15
	movq	208(%rsp), %r14
	movq	64(%rsp), %rdi          # 8-byte Reload
	jmp	.LBB46_242
.LBB46_21:
	movq	%r15, %r12
	xorq	%r14, %r14
	xorq	%r15, %r15
.LBB46_242:                             # %for.end1371
	callq	emit_insns
	callq	get_last_insn
	movq	cfun(%rip), %rcx
	movq	%rax, 296(%rcx)
	movq	$32, %rcx
	movq	%r15, %rax
	shlq	%cl, %rax
	movq	cfun(%rip), %rsi
	movq	$32, %rcx
	sarq	%cl, %rax
	testq	%rax, %rax
	movq	%r15, %rax
	jns	.LBB46_244
# BB#243:                               # %for.end1371
	xorq	%rax, %rax
.LBB46_244:                             # %for.end1371
	movl	%eax, 68(%rsi)
	movl	target_flags(%rip), %edi
	movq	$20, %rcx
	shrq	%cl, %rdi
	andq	$32, %rdi
	addq	$32, %rdi
	movq	$3, %rcx
	sarq	%cl, %rdi
	leaq	-1(%rax,%rdi), %rbx
	movq	$32, %rcx
	movq	%rbx, %rax
	shlq	%cl, %rax
	movq	$32, %rcx
	sarq	%cl, %rax
	cqto
	idivq	%rdi
	subq	%rdx, %rbx
	movl	%ebx, 68(%rsi)
	testq	%r14, %r14
	je	.LBB46_245
# BB#246:                               # %cond.false1416
	movq	sizetype_tab+8(%rip), %rdi
	movq	%r14, %rsi
	callq	convert
	movq	%rax, %r14
	movq	$1, %rsi
	movq	%r15, %rdi
	callq	size_int_wide
	movq	$59, %rdi
	movq	%r14, %rsi
	movq	%rax, %rdx
	callq	size_binop
	xorq	%rsi, %rsi
	xorq	%rdx, %rdx
	xorq	%rcx, %rcx
	movq	%rax, %rdi
	callq	expand_expr
	jmp	.LBB46_247
.LBB46_245:                             # %cond.true1406
	xorq	%rdi, %rdi
	movq	%r15, %rsi
	callq	gen_rtx_CONST_INT
.LBB46_247:                             # %cond.end1425
	movq	cfun(%rip), %rcx
	movq	%rax, 80(%rcx)
	movq	cfun(%rip), %rax
	movq	96(%rsp), %rdi          # 8-byte Reload
	movq	8(%rdi), %rsi
	movl	68(%rax), %edx
	movq	%rdi, %rbx
	callq	ix86_return_pops_args
	movq	cfun(%rip), %rcx
	movl	%eax, 64(%rcx)
	testq	%r12, %r12
	jne	.LBB46_249
# BB#248:                               # %if.then1432
	movl	248(%rsp), %eax
	movl	%eax, 112(%rcx)
	movq	240(%rsp), %rax
	movq	%rax, 104(%rcx)
	movq	224(%rsp), %rax
	movq	232(%rsp), %rdx
	movq	%rdx, 96(%rcx)
	movq	%rax, 88(%rcx)
.LBB46_249:                             # %if.end1434
	movq	96(%rbx), %rax
	movq	144(%rax), %rdx
	testq	%rdx, %rdx
	movq	%rdx, 120(%rcx)
	je	.LBB46_254
# BB#250:                               # %cond.end1482
	movzbl	(%rdx), %ecx
	cmpq	$61, %rcx
	jne	.LBB46_252
# BB#251:                               # %cond.true1488
	movl	8(%rdx), %ecx
	cmpq	$52, %rcx
	ja	.LBB46_253
	jmp	.LBB46_254
.LBB46_252:                             # %cond.false1494
	movzbl	49(%rax), %ecx
	testq	$4, %rcx
	je	.LBB46_254
.LBB46_253:                             # %if.then1502
	movq	8(%rax), %rdi
	callq	ix86_function_value
	movl	(%rax), %ecx
	orq	$1073741824, %rcx       # imm = 0x40000000
	movl	%ecx, (%rax)
	movq	cfun(%rip), %rcx
	movq	%rax, 120(%rcx)
.LBB46_254:                             # %if.end1511
	addq	$256, %rsp              # imm = 0x100
	popq	%rbx
	popq	%r12
	popq	%r13
	popq	%r14
	popq	%r15
	retq
.Ltmp357:
	.size	assign_parms, .Ltmp357-assign_parms
	.cfi_endproc

	.globl	locate_and_pad_parm
	.align	16, 0x90
	.type	locate_and_pad_parm,@function
locate_and_pad_parm:                    # @locate_and_pad_parm
	.cfi_startproc
# BB#0:                                 # %entry
	pushq	%r15
.Ltmp364:
	.cfi_def_cfa_offset 16
	pushq	%r14
.Ltmp365:
	.cfi_def_cfa_offset 24
	pushq	%r13
.Ltmp366:
	.cfi_def_cfa_offset 32
	pushq	%r12
.Ltmp367:
	.cfi_def_cfa_offset 40
	pushq	%rbx
.Ltmp368:
	.cfi_def_cfa_offset 48
	subq	$32, %rsp
.Ltmp369:
	.cfi_def_cfa_offset 80
.Ltmp370:
	.cfi_offset %rbx, -48
.Ltmp371:
	.cfi_offset %r12, -40
.Ltmp372:
	.cfi_offset %r13, -32
.Ltmp373:
	.cfi_offset %r14, -24
.Ltmp374:
	.cfi_offset %r15, -16
	movq	%r9, 24(%rsp)           # 8-byte Spill
	movq	%r8, %r13
	movq	%rdx, %r15
	movq	%rsi, %rbx
	movq	%rdi, %r12
	testq	%rbx, %rbx
	je	.LBB47_2
# BB#1:                                 # %cond.true
	movq	%rbx, %rdi
	callq	size_in_bytes
	jmp	.LBB47_3
.LBB47_2:                               # %cond.false
	movq	$32, %rcx
	movq	%r12, %rax
	shlq	%cl, %rax
	movq	$32, %rcx
	sarq	%cl, %rax
	movzbl	mode_size(%rax), %edi
	xorq	%rsi, %rsi
	callq	size_int_wide
.LBB47_3:                               # %cond.end
	movq	%rax, %r14
	movq	%r12, %rdi
	movq	%rbx, %rsi
	callq	ix86_function_arg_boundary
	movq	%rax, %rbx
	movabsq	$4294967295, %rdi       # imm = 0xFFFFFFFF
	testq	%rdi, %r15
	movq	80(%rsp), %rax
	movq	$0, 8(%rax)
	movq	$0, (%rax)
	movq	88(%rsp), %rax
	movq	$0, 8(%rax)
	movq	$0, (%rax)
	movq	%rax, %rdx
	jne	.LBB47_12
# BB#4:                                 # %if.then41
	movq	$32, %rcx
	movq	%rbx, %rsi
	shlq	%cl, %rsi
	movq	$32, %rcx
	sarq	%cl, %rsi
	movq	$60, %rcx
	movq	%rsi, %r15
	shrq	%cl, %r15
	andq	$7, %r15
	addq	%rbx, %r15
	movq	$32, %rcx
	shlq	%cl, %r15
	movq	$35, %rcx
	sarq	%cl, %r15
	movl	target_flags(%rip), %eax
	movq	$20, %rcx
	shrq	%cl, %rax
	andq	$32, %rax
	addq	$32, %rax
	xorq	%r8, %r8
	cmpq	%rsi, %rax
	movabsq	$0, %r9
	jge	.LBB47_6
# BB#5:                                 # %if.then.i
	movq	(%r13), %r8
	movq	8(%r13), %r9
.LBB47_6:                               # %if.end.i
	movq	$32, %rcx
	movq	%rbx, %rsi
	shlq	%cl, %rsi
	movq	$32, %rcx
	sarq	%cl, %rsi
	cmpq	$9, %rsi
	movq	$0, 8(%rdx)
	movq	$0, (%rdx)
	jl	.LBB47_12
# BB#7:                                 # %if.then8.i
	movq	%r9, 16(%rsp)           # 8-byte Spill
	movq	8(%r13), %rsi
	testq	%rsi, %rsi
	je	.LBB47_10
# BB#8:                                 # %cond.false.i
	movq	sizetype_tab+8(%rip), %rdi
	callq	convert
	movq	(%r13), %rdi
	movq	%rax, 8(%rsp)           # 8-byte Spill
	movq	$1, %rsi
	callq	size_int_wide
	movq	$59, %rdi
	movq	8(%rsp), %rsi           # 8-byte Reload
	movq	%rax, %rdx
	callq	size_binop
	movq	%rax, %rdi
	movq	%r15, %rsi
	callq	round_up
	movq	%rax, 8(%r13)
	movq	$0, (%r13)
	movl	target_flags(%rip), %edx
	movq	$20, %rcx
	shrq	%cl, %rdx
	andq	$32, %rdx
	addq	$32, %rdx
	movq	$32, %rcx
	shlq	%cl, %rbx
	movq	$32, %rcx
	sarq	%cl, %rbx
	cmpq	%rbx, %rdx
	movabsq	$4294967295, %rdi       # imm = 0xFFFFFFFF
	movq	16(%rsp), %rdx          # 8-byte Reload
	jge	.LBB47_12
# BB#9:                                 # %if.then34.i
	movq	%rdi, %rbx
	movq	$60, %rdi
	movq	%rax, %rsi
	callq	size_binop
	movq	%rbx, %rdi
	movq	88(%rsp), %rcx
	movq	%rax, 8(%rcx)
	jmp	.LBB47_12
.LBB47_10:                              # %if.else.i
	movq	$32, %rcx
	shlq	%cl, %rbx
	movq	$32, %rcx
	sarq	%cl, %rbx
	movq	(%r13), %rcx
	leaq	-1(%r15,%rcx), %rsi
	negq	%r15
	movq	$32, %rcx
	shlq	%cl, %r15
	movq	$32, %rcx
	sarq	%cl, %r15
	andq	%rsi, %r15
	cmpq	%rbx, %rax
	movq	%r15, (%r13)
	movabsq	$4294967295, %rdi       # imm = 0xFFFFFFFF
	jge	.LBB47_12
# BB#11:                                # %if.then55.i
	subq	%r8, %r15
	movq	88(%rsp), %rax
	movq	%r15, (%rax)
.LBB47_12:                              # %if.end42
	movq	(%r13), %rax
	movq	8(%r13), %rcx
	movq	24(%rsp), %rdx          # 8-byte Reload
	movq	%rcx, 8(%rdx)
	movq	%rax, (%rdx)
	andq	%rdi, %r12
	movq	%rdi, %rbx
	cmpq	$51, %r12
	je	.LBB47_17
# BB#13:                                # %if.then45
	movzbl	target_flags+3(%rip), %eax
	movq	32(%r14), %rdi
	testq	$2, %rax
	je	.LBB47_15
# BB#14:                                # %cond.true47
	addq	$7, %rdi
	andq	$-8, %rdi
	jmp	.LBB47_16
.LBB47_15:                              # %cond.false50
	incq	%rdi
	andq	$-2, %rdi
.LBB47_16:                              # %cond.end56
	xorq	%rsi, %rsi
	callq	size_int_wide
	movq	%rax, %r14
.LBB47_17:                              # %land.lhs.true70
	movq	$1, %rsi
	movq	%r14, %rdi
	callq	host_integerp
	movq	%rbx, %r15
	testq	%rbx, %rax
	je	.LBB47_18
# BB#19:                                # %lor.lhs.false
	movq	$1, %rsi
	movq	%r14, %rdi
	callq	tree_low_cst
	movq	$3, %rcx
	movl	target_flags(%rip), %esi
	shlq	%cl, %rax
	movq	$20, %rcx
	movq	%rsi, %rdx
	shrq	%cl, %rdx
	andq	$32, %rdx
	addq	$32, %rdx
	movabsq	$4294967264, %rcx       # imm = 0xFFFFFFE0
	andq	%rdx, %rcx
	cqto
	idivq	%rcx
	testq	%rdx, %rdx
	jne	.LBB47_20
	jmp	.LBB47_21
.LBB47_18:                              # %land.lhs.true70.if.then79_crit_edge
	movl	target_flags(%rip), %esi
.LBB47_20:                              # %if.then79
	movq	$20, %rcx
	shrq	%cl, %rsi
	andq	$32, %rsi
	addq	$32, %rsi
	movq	$3, %rcx
	sarq	%cl, %rsi
	movq	%r14, %rdi
	callq	round_up
	movq	%rax, %r14
.LBB47_21:                              # %do.body
	movq	80(%rsp), %rbx
	xorq	%rsi, %rsi
	movq	%r14, %rdi
	callq	host_integerp
	testq	%r15, %rax
	je	.LBB47_23
# BB#22:                                # %if.then87
	xorq	%rsi, %rsi
	movq	%r14, %rdi
	callq	tree_low_cst
	addq	%rax, (%rbx)
	jmp	.LBB47_26
.LBB47_23:                              # %if.else91
	movq	8(%rbx), %r15
	movq	sizetype_tab+8(%rip), %rdi
	movq	%r14, %rsi
	callq	convert
	testq	%r15, %r15
	je	.LBB47_25
# BB#24:                                # %if.else98
	movq	$59, %rdi
	movq	%r15, %rsi
	movq	%rax, %rdx
	callq	size_binop
.LBB47_25:                              # %do.end
	movq	%rax, 8(%rbx)
.LBB47_26:                              # %do.end
	addq	$32, %rsp
	popq	%rbx
	popq	%r12
	popq	%r13
	popq	%r14
	popq	%r15
	retq
.Ltmp375:
	.size	locate_and_pad_parm, .Ltmp375-locate_and_pad_parm
	.cfi_endproc

	.globl	uninitialized_vars_warning
	.align	16, 0x90
	.type	uninitialized_vars_warning,@function
uninitialized_vars_warning:             # @uninitialized_vars_warning
	.cfi_startproc
# BB#0:                                 # %entry
	pushq	%r15
.Ltmp382:
	.cfi_def_cfa_offset 16
	pushq	%r14
.Ltmp383:
	.cfi_def_cfa_offset 24
	pushq	%r13
.Ltmp384:
	.cfi_def_cfa_offset 32
	pushq	%r12
.Ltmp385:
	.cfi_def_cfa_offset 40
	pushq	%rbx
.Ltmp386:
	.cfi_def_cfa_offset 48
.Ltmp387:
	.cfi_offset %rbx, -48
.Ltmp388:
	.cfi_offset %r12, -40
.Ltmp389:
	.cfi_offset %r13, -32
.Ltmp390:
	.cfi_offset %r14, -24
.Ltmp391:
	.cfi_offset %r15, -16
	movq	%rdi, %r14
	movq	32(%r14), %rbx
	testq	%rbx, %rbx
	je	.LBB48_21
# BB#1:
	movabsq	$4294967295, %r13       # imm = 0xFFFFFFFF
	movabsq	$.L.str4, %r15
	movabsq	$.L.str3, %r12
	.align	16, 0x90
.LBB48_2:                               # %for.body
                                        # =>This Inner Loop Header: Depth=1
	movl	warn_uninitialized(%rip), %eax
	testq	%rax, %rax
	je	.LBB48_13
# BB#3:                                 # %land.lhs.true
                                        #   in Loop: Header=BB48_2 Depth=1
	movzbl	16(%rbx), %eax
	cmpq	$34, %rax
	jne	.LBB48_13
# BB#4:                                 # %land.lhs.true3
                                        #   in Loop: Header=BB48_2 Depth=1
	movq	8(%rbx), %rax
	movzbl	16(%rax), %eax
	addq	$-18, %rax
	andq	%r13, %rax
	cmpq	$5, %rax
	jb	.LBB48_13
# BB#5:                                 # %land.lhs.true41
                                        #   in Loop: Header=BB48_2 Depth=1
	movq	144(%rbx), %rax
	testq	%rax, %rax
	jne	.LBB48_7
# BB#6:                                 # %cond.end
                                        #   in Loop: Header=BB48_2 Depth=1
	xorq	%rsi, %rsi
	movq	%rbx, %rdi
	callq	make_decl_rtl
	movq	144(%rbx), %rax
	testq	%rax, %rax
	je	.LBB48_13
.LBB48_7:                               # %cond.end59
                                        #   in Loop: Header=BB48_2 Depth=1
	movzbl	(%rax), %ecx
	cmpq	$61, %rcx
	jne	.LBB48_13
# BB#8:                                 # %land.lhs.true64
                                        #   in Loop: Header=BB48_2 Depth=1
	cmpq	$0, 104(%rbx)
	jne	.LBB48_13
# BB#9:                                 # %land.lhs.true67
                                        #   in Loop: Header=BB48_2 Depth=1
	testq	%rax, %rax
	jne	.LBB48_11
# BB#10:                                # %cond.false74
                                        #   in Loop: Header=BB48_2 Depth=1
	xorq	%rsi, %rsi
	movq	%rbx, %rdi
	callq	make_decl_rtl
	movq	144(%rbx), %rax
.LBB48_11:                              # %cond.end77
                                        #   in Loop: Header=BB48_2 Depth=1
	movl	8(%rax), %edi
	callq	regno_uninitialized
	testq	%r13, %rax
	je	.LBB48_13
# BB#12:                                # %if.then
                                        #   in Loop: Header=BB48_2 Depth=1
	xorq	%rax, %rax
	movq	%rbx, %rdi
	movq	%r12, %rsi
	callq	warning_with_decl
	.align	16, 0x90
.LBB48_13:                              # %if.end
                                        #   in Loop: Header=BB48_2 Depth=1
	movl	extra_warnings(%rip), %eax
	testq	%rax, %rax
	je	.LBB48_20
# BB#14:                                # %land.lhs.true81
                                        #   in Loop: Header=BB48_2 Depth=1
	movzbl	16(%rbx), %eax
	cmpq	$34, %rax
	jne	.LBB48_20
# BB#15:                                # %land.lhs.true87
                                        #   in Loop: Header=BB48_2 Depth=1
	movq	144(%rbx), %rax
	testq	%rax, %rax
	jne	.LBB48_17
# BB#16:                                # %cond.end97
                                        #   in Loop: Header=BB48_2 Depth=1
	xorq	%rsi, %rsi
	movq	%rbx, %rdi
	callq	make_decl_rtl
	movq	144(%rbx), %rax
	testq	%rax, %rax
	je	.LBB48_20
.LBB48_17:                              # %cond.end110
                                        #   in Loop: Header=BB48_2 Depth=1
	movzbl	(%rax), %ecx
	cmpq	$61, %rcx
	jne	.LBB48_20
# BB#18:                                # %cond.end125
                                        #   in Loop: Header=BB48_2 Depth=1
	movl	8(%rax), %edi
	callq	regno_clobbered_at_setjmp
	testq	%r13, %rax
	je	.LBB48_20
# BB#19:                                # %if.then132
                                        #   in Loop: Header=BB48_2 Depth=1
	xorq	%rax, %rax
	movq	%rbx, %rdi
	movq	%r15, %rsi
	callq	warning_with_decl
	.align	16, 0x90
.LBB48_20:                              # %for.inc
                                        #   in Loop: Header=BB48_2 Depth=1
	movq	(%rbx), %rbx
	testq	%rbx, %rbx
	jne	.LBB48_2
.LBB48_21:                              # %for.end
	movq	40(%r14), %rbx
	jmp	.LBB48_23
	.align	16, 0x90
.LBB48_22:                              # %for.body138
                                        #   in Loop: Header=BB48_23 Depth=1
	movq	%rbx, %rdi
	callq	uninitialized_vars_warning
	movq	(%rbx), %rbx
.LBB48_23:                              # %for.body138
                                        # =>This Inner Loop Header: Depth=1
	testq	%rbx, %rbx
	jne	.LBB48_22
# BB#24:                                # %for.end142
	popq	%rbx
	popq	%r12
	popq	%r13
	popq	%r14
	popq	%r15
	retq
.Ltmp392:
	.size	uninitialized_vars_warning, .Ltmp392-uninitialized_vars_warning
	.cfi_endproc

	.globl	setjmp_args_warning
	.align	16, 0x90
	.type	setjmp_args_warning,@function
setjmp_args_warning:                    # @setjmp_args_warning
	.cfi_startproc
# BB#0:                                 # %entry
	pushq	%r15
.Ltmp397:
	.cfi_def_cfa_offset 16
	pushq	%r14
.Ltmp398:
	.cfi_def_cfa_offset 24
	pushq	%rbx
.Ltmp399:
	.cfi_def_cfa_offset 32
.Ltmp400:
	.cfi_offset %rbx, -32
.Ltmp401:
	.cfi_offset %r14, -24
.Ltmp402:
	.cfi_offset %r15, -16
	movq	current_function_decl(%rip), %rax
	movq	88(%rax), %rbx
	testq	%rbx, %rbx
	je	.LBB49_8
# BB#1:
	movabsq	$4294967295, %r15       # imm = 0xFFFFFFFF
	movabsq	$.L.str5, %r14
	.align	16, 0x90
.LBB49_2:                               # %for.body
                                        # =>This Inner Loop Header: Depth=1
	movq	144(%rbx), %rax
	testq	%rax, %rax
	jne	.LBB49_4
# BB#3:                                 # %cond.end
                                        #   in Loop: Header=BB49_2 Depth=1
	xorq	%rsi, %rsi
	movq	%rbx, %rdi
	callq	make_decl_rtl
	movq	144(%rbx), %rax
	testq	%rax, %rax
	je	.LBB49_7
.LBB49_4:                               # %cond.end17
                                        #   in Loop: Header=BB49_2 Depth=1
	movzbl	(%rax), %ecx
	cmpq	$61, %rcx
	jne	.LBB49_7
# BB#5:                                 # %cond.end30
                                        #   in Loop: Header=BB49_2 Depth=1
	movl	8(%rax), %edi
	callq	regno_clobbered_at_setjmp
	testq	%r15, %rax
	je	.LBB49_7
# BB#6:                                 # %if.then
                                        #   in Loop: Header=BB49_2 Depth=1
	xorq	%rax, %rax
	movq	%rbx, %rdi
	movq	%r14, %rsi
	callq	warning_with_decl
	.align	16, 0x90
.LBB49_7:                               # %for.inc
                                        #   in Loop: Header=BB49_2 Depth=1
	movq	(%rbx), %rbx
	testq	%rbx, %rbx
	jne	.LBB49_2
.LBB49_8:                               # %for.end
	popq	%rbx
	popq	%r14
	popq	%r15
	retq
.Ltmp403:
	.size	setjmp_args_warning, .Ltmp403-setjmp_args_warning
	.cfi_endproc

	.globl	setjmp_protect
	.align	16, 0x90
	.type	setjmp_protect,@function
setjmp_protect:                         # @setjmp_protect
	.cfi_startproc
# BB#0:                                 # %entry
	pushq	%r14
.Ltmp407:
	.cfi_def_cfa_offset 16
	pushq	%rbx
.Ltmp408:
	.cfi_def_cfa_offset 24
	pushq	%rax
.Ltmp409:
	.cfi_def_cfa_offset 32
.Ltmp410:
	.cfi_offset %rbx, -24
.Ltmp411:
	.cfi_offset %r14, -16
	movq	%rdi, %r14
	movq	32(%r14), %rbx
	jmp	.LBB50_1
	.align	16, 0x90
.LBB50_12:                              # %for.inc
                                        #   in Loop: Header=BB50_1 Depth=1
	movq	(%rbx), %rbx
.LBB50_1:                               # %entry
                                        # =>This Inner Loop Header: Depth=1
	testq	%rbx, %rbx
	je	.LBB50_13
# BB#2:                                 # %for.body
                                        #   in Loop: Header=BB50_1 Depth=1
	movl	16(%rbx), %eax
	andq	$254, %rax
	cmpq	$34, %rax
	jne	.LBB50_12
# BB#3:                                 # %land.lhs.true
                                        #   in Loop: Header=BB50_1 Depth=1
	movq	144(%rbx), %rax
	testq	%rax, %rax
	jne	.LBB50_5
# BB#4:                                 # %cond.end
                                        #   in Loop: Header=BB50_1 Depth=1
	xorq	%rsi, %rsi
	movq	%rbx, %rdi
	callq	make_decl_rtl
	movq	144(%rbx), %rax
	testq	%rax, %rax
	je	.LBB50_12
.LBB50_5:                               # %cond.end24
                                        #   in Loop: Header=BB50_1 Depth=1
	movl	(%rax), %ecx
	andq	$65535, %rcx            # imm = 0xFFFF
	cmpq	$61, %rcx
	je	.LBB50_8
# BB#6:                                 # %cond.end39
                                        #   in Loop: Header=BB50_1 Depth=1
	cmpq	$66, %rcx
	jne	.LBB50_12
# BB#7:                                 # %cond.end54
                                        #   in Loop: Header=BB50_1 Depth=1
	movq	8(%rax), %rax
	movzbl	(%rax), %eax
	cmpq	$70, %rax
	jne	.LBB50_12
.LBB50_8:                               # %land.lhs.true59
                                        #   in Loop: Header=BB50_1 Depth=1
	movq	112(%rbx), %rax
	testq	%rax, %rax
	je	.LBB50_10
# BB#9:                                 # %land.lhs.true59
                                        #   in Loop: Header=BB50_1 Depth=1
	cmpq	%rbx, %rax
	jne	.LBB50_12
.LBB50_10:                              # %land.lhs.true66
                                        #   in Loop: Header=BB50_1 Depth=1
	movzbl	49(%rbx), %eax
	testq	$4, %rax
	jne	.LBB50_12
# BB#11:                                # %if.then
                                        #   in Loop: Header=BB50_1 Depth=1
	movq	%rbx, %rdi
	callq	put_var_into_stack
	jmp	.LBB50_12
.LBB50_13:                              # %for.end
	movq	40(%r14), %rbx
	jmp	.LBB50_15
	.align	16, 0x90
.LBB50_14:                              # %for.body75
                                        #   in Loop: Header=BB50_15 Depth=1
	movq	%rbx, %rdi
	callq	setjmp_protect
	movq	(%rbx), %rbx
.LBB50_15:                              # %for.body75
                                        # =>This Inner Loop Header: Depth=1
	testq	%rbx, %rbx
	jne	.LBB50_14
# BB#16:                                # %for.end79
	addq	$8, %rsp
	popq	%rbx
	popq	%r14
	retq
.Ltmp412:
	.size	setjmp_protect, .Ltmp412-setjmp_protect
	.cfi_endproc

	.globl	setjmp_protect_args
	.align	16, 0x90
	.type	setjmp_protect_args,@function
setjmp_protect_args:                    # @setjmp_protect_args
	.cfi_startproc
# BB#0:                                 # %entry
	pushq	%rbx
.Ltmp415:
	.cfi_def_cfa_offset 16
.Ltmp416:
	.cfi_offset %rbx, -16
	movq	current_function_decl(%rip), %rax
	movq	88(%rax), %rbx
	jmp	.LBB51_1
	.align	16, 0x90
.LBB51_10:                              # %for.inc
                                        #   in Loop: Header=BB51_1 Depth=1
	movq	(%rbx), %rbx
.LBB51_1:                               # %entry
                                        # =>This Inner Loop Header: Depth=1
	testq	%rbx, %rbx
	je	.LBB51_11
# BB#2:                                 # %for.body
                                        #   in Loop: Header=BB51_1 Depth=1
	movl	16(%rbx), %eax
	andq	$254, %rax
	cmpq	$34, %rax
	jne	.LBB51_10
# BB#3:                                 # %land.lhs.true
                                        #   in Loop: Header=BB51_1 Depth=1
	movq	144(%rbx), %rax
	testq	%rax, %rax
	jne	.LBB51_5
# BB#4:                                 # %cond.end
                                        #   in Loop: Header=BB51_1 Depth=1
	xorq	%rsi, %rsi
	movq	%rbx, %rdi
	callq	make_decl_rtl
	movq	144(%rbx), %rax
	testq	%rax, %rax
	je	.LBB51_10
.LBB51_5:                               # %cond.end24
                                        #   in Loop: Header=BB51_1 Depth=1
	movl	(%rax), %ecx
	andq	$65535, %rcx            # imm = 0xFFFF
	cmpq	$61, %rcx
	je	.LBB51_8
# BB#6:                                 # %cond.end39
                                        #   in Loop: Header=BB51_1 Depth=1
	cmpq	$66, %rcx
	jne	.LBB51_10
# BB#7:                                 # %cond.end54
