	.file	"insn-attrtab.c.bc"
	.text
	.globl	insn_current_length
	.align	16, 0x90
	.type	insn_current_length,@function
insn_current_length:                    # @insn_current_length
	.cfi_startproc
# BB#0:                                 # %entry
	pushq	%rbx
.Ltmp2:
	.cfi_def_cfa_offset 16
.Ltmp3:
	.cfi_offset %rbx, -16
	movq	%rdi, %rbx
	movslq	40(%rbx), %rax
	testq	%rax, %rax
	jns	.LBB0_4
# BB#1:                                 # %cond.end
	movq	%rbx, %rdi
	callq	recog_memoized_1
	movabsq	$4294967295, %rcx       # imm = 0xFFFFFFFF
	andq	%rcx, %rax
	cmpq	%rcx, %rax
	jne	.LBB0_4
# BB#2:                                 # %sw.bb
	movq	32(%rbx), %rdi
	movzbl	(%rdi), %eax
	cmpq	$40, %rax
	je	.LBB0_4
# BB#3:                                 # %land.lhs.true
	callq	asm_noperands
	movq	$32, %rcx
	shlq	%cl, %rax
	movq	$32, %rcx
	sarq	%cl, %rax
	testq	%rax, %rax
	js	.LBB0_5
.LBB0_4:                                # %sw.default
	xorq	%rax, %rax
	popq	%rbx
	retq
.LBB0_5:                                # %if.then
	movabsq	$.L.str, %rax
	movabsq	$.L__FUNCTION__.insn_current_length, %rcx
	movq	$29, %rdx
	movq	%rbx, %rdi
	movq	%rax, %rsi
	callq	_fatal_insn_not_found
.Ltmp4:
	.size	insn_current_length, .Ltmp4-insn_current_length
	.cfi_endproc

	.globl	insn_variable_length_p
	.align	16, 0x90
	.type	insn_variable_length_p,@function
insn_variable_length_p:                 # @insn_variable_length_p
	.cfi_startproc
# BB#0:                                 # %entry
	pushq	%rbx
.Ltmp7:
	.cfi_def_cfa_offset 16
.Ltmp8:
	.cfi_offset %rbx, -16
	movq	%rdi, %rbx
	movslq	40(%rbx), %rax
	testq	%rax, %rax
	jns	.LBB1_4
# BB#1:                                 # %cond.end
	movq	%rbx, %rdi
	callq	recog_memoized_1
	movabsq	$4294967295, %rcx       # imm = 0xFFFFFFFF
	andq	%rcx, %rax
	cmpq	%rcx, %rax
	jne	.LBB1_4
# BB#2:                                 # %sw.bb
	movq	32(%rbx), %rdi
	movzbl	(%rdi), %eax
	cmpq	$40, %rax
	je	.LBB1_4
# BB#3:                                 # %land.lhs.true
	callq	asm_noperands
	movq	$32, %rcx
	shlq	%cl, %rax
	movq	$32, %rcx
	sarq	%cl, %rax
	testq	%rax, %rax
	js	.LBB1_5
.LBB1_4:                                # %sw.default
	xorq	%rax, %rax
	popq	%rbx
	retq
.LBB1_5:                                # %if.then
	movabsq	$.L.str, %rax
	movabsq	$.L__FUNCTION__.insn_variable_length_p, %rcx
	movq	$46, %rdx
	movq	%rbx, %rdi
	movq	%rax, %rsi
	callq	_fatal_insn_not_found
.Ltmp9:
	.size	insn_variable_length_p, .Ltmp9-insn_variable_length_p
	.cfi_endproc

	.globl	insn_default_length
	.align	16, 0x90
	.type	insn_default_length,@function
insn_default_length:                    # @insn_default_length
	.cfi_startproc
# BB#0:                                 # %entry
	pushq	%r15
.Ltmp16:
	.cfi_def_cfa_offset 16
	pushq	%r14
.Ltmp17:
	.cfi_def_cfa_offset 24
	pushq	%r13
.Ltmp18:
	.cfi_def_cfa_offset 32
	pushq	%r12
.Ltmp19:
	.cfi_def_cfa_offset 40
	pushq	%rbx
.Ltmp20:
	.cfi_def_cfa_offset 48
	subq	$16, %rsp
.Ltmp21:
	.cfi_def_cfa_offset 64
.Ltmp22:
	.cfi_offset %rbx, -48
.Ltmp23:
	.cfi_offset %r12, -40
.Ltmp24:
	.cfi_offset %r13, -32
.Ltmp25:
	.cfi_offset %r14, -24
.Ltmp26:
	.cfi_offset %r15, -16
	movq	%rdi, %r13
	movslq	40(%r13), %rax
	testq	%rax, %rax
	jns	.LBB2_2
# BB#1:                                 # %cond.false
	movq	%r13, %rdi
	callq	recog_memoized_1
.LBB2_2:                                # %cond.end
	movq	$32, %rcx
	movq	%rax, %rdx
	shlq	%cl, %rdx
	movq	$32, %rcx
	sarq	%cl, %rdx
	cmpq	$804, %rdx              # imm = 0x324
	jg	.LBB2_107
# BB#3:                                 # %cond.end
	movq	$32, %rcx
	movq	%rax, %rdx
	shlq	%cl, %rdx
	movq	$32, %rcx
	sarq	%cl, %rdx
	cmpq	$17, %rdx
	jg	.LBB2_8
# BB#4:                                 # %cond.end
	movabsq	$4294967295, %rcx       # imm = 0xFFFFFFFF
	andq	%rcx, %rax
	cmpq	%rcx, %rax
	jne	.LBB2_24
# BB#5:                                 # %sw.bb254
	movq	32(%r13), %rdi
	movzbl	(%rdi), %eax
	cmpq	$40, %rax
	movq	$128, %rbx
	je	.LBB2_113
# BB#6:                                 # %land.lhs.true258
	callq	asm_noperands
	movq	$32, %rcx
	shlq	%cl, %rax
	movq	$32, %rcx
	sarq	%cl, %rax
	testq	%rax, %rax
	jns	.LBB2_113
# BB#7:                                 # %if.then264
	movabsq	$.L.str, %rax
	movabsq	$.L__FUNCTION__.insn_default_length, %rcx
	movq	$356, %rdx              # imm = 0x164
	jmp	.LBB2_71
.LBB2_107:                              # %cond.end
	movabsq	$4294967295, %rcx       # imm = 0xFFFFFFFF
	andq	%rcx, %rax
	cmpq	$805, %rax              # imm = 0x325
	jne	.LBB2_24
# BB#108:                               # %sw.bb265
	movq	$135, %rbx
	jmp	.LBB2_113
.LBB2_8:                                # %cond.end
	movq	$16, %rbx
	movq	$32, %rcx
	movq	%rax, %rdx
	shlq	%cl, %rdx
	movq	$32, %rcx
	sarq	%cl, %rdx
	cmpq	$672, %rdx              # imm = 0x2A0
	jg	.LBB2_94
# BB#9:                                 # %cond.end
	movq	$32, %rcx
	movq	%rax, %rdx
	shlq	%cl, %rdx
	movq	$32, %rcx
	sarq	%cl, %rdx
	cmpq	$618, %rdx              # imm = 0x26A
	jg	.LBB2_36
# BB#10:                                # %cond.end
	movq	$32, %rcx
	movq	%rax, %rdx
	shlq	%cl, %rdx
	movq	$32, %rcx
	sarq	%cl, %rdx
	cmpq	$75, %rdx
	jg	.LBB2_16
# BB#11:                                # %cond.end
	movabsq	$4294967295, %rcx       # imm = 0xFFFFFFFF
	andq	%rcx, %rax
	cmpq	$31, %rax
	ja	.LBB2_24
# BB#12:                                # %cond.end
	movq	$1, %rdx
	movq	%rax, %rcx
	shlq	%cl, %rdx
	testq	$910426112, %rdx        # imm = 0x36440000
	jne	.LBB2_113
# BB#13:                                # %cond.end
	cmpq	$30, %rax
	je	.LBB2_112
# BB#14:                                # %cond.end
	cmpq	$31, %rax
	jne	.LBB2_24
	jmp	.LBB2_15
.LBB2_94:                               # %cond.end
	movabsq	$4294967295, %rcx       # imm = 0xFFFFFFFF
	andq	%rcx, %rax
	cmpq	$673, %rax              # imm = 0x2A1
	jne	.LBB2_24
	jmp	.LBB2_95
.LBB2_36:                               # %cond.end
	addq	$-619, %rax             # imm = 0xFFFFFFFFFFFFFD95
	movabsq	$4294967295, %r14       # imm = 0xFFFFFFFF
	andq	%r14, %rax
	cmpq	$39, %rax
	ja	.LBB2_24
# BB#37:                                # %cond.end
	movq	$1, %rdx
	movq	$1, %rsi
	movq	%rax, %rcx
	shlq	%cl, %rsi
	movabsq	$825707228592, %rcx     # imm = 0xC03FFC6DB0
	testq	%rcx, %rsi
	jne	.LBB2_113
# BB#38:                                # %cond.end
	movq	%rax, %rcx
	shlq	%cl, %rdx
	movabsq	$3221225472, %rcx       # imm = 0xC0000000
	testq	%rcx, %rdx
	je	.LBB2_39
# BB#109:                               # %sw.bb266
	movq	$5, %rbx
	jmp	.LBB2_113
.LBB2_16:                               # %cond.end
	movq	$32, %rcx
	movq	%rax, %rdx
	shlq	%cl, %rdx
	movq	$32, %rcx
	sarq	%cl, %rdx
	cmpq	$229, %rdx
	jg	.LBB2_19
# BB#17:                                # %cond.end
	addq	$-76, %rax
	movabsq	$4294967295, %r14       # imm = 0xFFFFFFFF
	andq	%r14, %rax
	cmpq	$109, %rax
	ja	.LBB2_24
# BB#18:                                # %cond.end
	jmpq	*.LJTI2_1(,%rax,8)
.LBB2_105:                              # %sw.bb235
	movq	%r13, %rdi
	callq	extract_constrain_insn_cached
	movl	which_alternative(%rip), %eax
	testq	%rax, %rax
	jne	.LBB2_113
	jmp	.LBB2_41
.LBB2_95:                               # %sw.bb215
	movq	%r13, %rdi
	callq	extract_constrain_insn_cached
	movl	which_alternative(%rip), %eax
	cmpq	$2, %rax
	jb	.LBB2_113
# BB#96:                                # %if.else220
	movq	%r13, %rdi
	callq	get_attr_modrm
	movq	%rax, %rbx
	movq	%r13, %rdi
	callq	get_attr_prefix_0f
	movq	%rax, %r14
	movq	%r13, %rdi
	callq	get_attr_i387
	movslq	40(%r13), %rcx
	movq	%rax, %r15
	testq	%rcx, %rcx
	jns	.LBB2_98
# BB#97:                                # %cond.false.i614
	movq	%r13, %rdi
	callq	recog_memoized_1
	movq	%rax, %rcx
.LBB2_98:                               # %cond.end.i616
	movq	%r15, (%rsp)            # 8-byte Spill
	movq	%r14, 8(%rsp)           # 8-byte Spill
	movq	$1, %r14
	leaq	-602(%rcx), %rdx
	movabsq	$4294967295, %rax       # imm = 0xFFFFFFFF
	andq	%rax, %rdx
	cmpq	$11, %rdx
	jb	.LBB2_104
# BB#99:                                # %cond.end.i616
	leaq	-590(%rcx), %rdx
	andq	%rax, %rdx
	cmpq	$5, %rdx
	jae	.LBB2_100
.LBB2_104:                              # %get_attr_prefix_rep.exit629
	movq	%r13, %rdi
	callq	get_attr_prefix_data16
	movq	%r13, %r12
	movq	%rax, %r13
	movq	%r12, %rdi
	callq	get_attr_length_immediate
	movq	%rax, %r15
	movq	%r12, %rdi
	callq	get_attr_length_address
	movq	8(%rsp), %rcx           # 8-byte Reload
	addq	%rcx, %rbx
	movq	(%rsp), %rcx            # 8-byte Reload
	addq	%rcx, %rbx
	addq	%r14, %rbx
.LBB2_50:                               # %return
	addq	%r13, %rbx
	addq	%r15, %rbx
	leaq	1(%rax,%rbx), %rbx
	jmp	.LBB2_113
.LBB2_19:                               # %cond.end
	movq	$32, %rcx
	movq	%rax, %rdx
	shlq	%cl, %rdx
	movq	$32, %rcx
	sarq	%cl, %rdx
	cmpq	$267, %rdx              # imm = 0x10B
	jg	.LBB2_21
# BB#20:                                # %cond.end
	movabsq	$4294967295, %rcx       # imm = 0xFFFFFFFF
	andq	%rcx, %rax
	cmpq	$230, %rax
	jne	.LBB2_24
	jmp	.LBB2_113
.LBB2_21:                               # %cond.end
	movq	$32, %rcx
	movq	%rax, %rdx
	shlq	%cl, %rdx
	movq	$32, %rcx
	sarq	%cl, %rdx
	cmpq	$343, %rdx              # imm = 0x157
	jg	.LBB2_34
# BB#22:                                # %cond.end
	addq	$-268, %rax             # imm = 0xFFFFFFFFFFFFFEF4
	movabsq	$4294967295, %rcx       # imm = 0xFFFFFFFF
	andq	%rax, %rcx
	cmpq	$21, %rcx
	ja	.LBB2_24
# BB#23:                                # %cond.end
	movq	$1, %rax
	shlq	%cl, %rax
	testq	$3146459, %rax          # imm = 0x3002DB
	jne	.LBB2_113
	jmp	.LBB2_24
.LBB2_34:                               # %cond.end
	addq	$-344, %rax             # imm = 0xFFFFFFFFFFFFFEA8
	movabsq	$4294967295, %r14       # imm = 0xFFFFFFFF
	andq	%r14, %rax
	cmpq	$180, %rax
	ja	.LBB2_24
# BB#35:                                # %cond.end
	jmpq	*.LJTI2_0(,%rax,8)
.LBB2_61:                               # %sw.bb38
	movq	%r13, %rdi
	callq	extract_insn_cached
	movq	recog_data(%rip), %rdi
	xorq	%rsi, %rsi
	jmp	.LBB2_62
.LBB2_112:                              # %sw.bb270
	movq	$2, %rbx
	jmp	.LBB2_113
.LBB2_100:                              # %cond.end.i616
	andq	%rax, %rcx
	cmpq	%rax, %rcx
	jne	.LBB2_103
# BB#101:                               # %sw.bb4.i622
	movq	32(%r13), %rdi
	movzbl	(%rdi), %eax
	cmpq	$40, %rax
	je	.LBB2_103
# BB#102:                               # %land.lhs.true.i625
	callq	asm_noperands
	movq	$32, %rcx
	shlq	%cl, %rax
	movq	$32, %rcx
	sarq	%cl, %rax
	testq	%rax, %rax
	js	.LBB2_70
.LBB2_103:                              # %sw.default.i627
	xorq	%r14, %r14
	jmp	.LBB2_104
.LBB2_39:                               # %cond.end
	testq	%rax, %rax
	jne	.LBB2_24
# BB#40:                                # %sw.bb
	movq	%r13, %rdi
	callq	extract_constrain_insn_cached
	movl	which_alternative(%rip), %eax
	movabsq	$4294967294, %rcx       # imm = 0xFFFFFFFE
	andq	%rax, %rcx
	cmpq	$2, %rcx
	je	.LBB2_113
.LBB2_41:                               # %if.else
	movq	%r13, %rdi
	callq	get_attr_modrm
	movq	%rax, %rbx
	movq	%r13, %rdi
	callq	get_attr_prefix_0f
	movq	%rax, %r15
	movq	%r13, %rdi
	callq	get_attr_i387
	movslq	40(%r13), %rcx
	movq	%rax, 8(%rsp)           # 8-byte Spill
	testq	%rcx, %rcx
	jns	.LBB2_43
# BB#42:                                # %cond.false.i
	movq	%r13, %rdi
	callq	recog_memoized_1
	movq	%rax, %rcx
.LBB2_43:                               # %cond.end.i
	movq	%r15, (%rsp)            # 8-byte Spill
	movq	$1, %r12
	leaq	-602(%rcx), %rax
	andq	%r14, %rax
	cmpq	$11, %rax
	jb	.LBB2_49
# BB#44:                                # %cond.end.i
	leaq	-590(%rcx), %rax
	andq	%r14, %rax
	cmpq	$5, %rax
	jae	.LBB2_45
.LBB2_49:                               # %get_attr_prefix_rep.exit
	movq	%r13, %rdi
	callq	get_attr_prefix_data16
	movq	%r13, %r14
	movq	%rax, %r13
	movq	%r14, %rdi
	callq	get_attr_length_immediate
	movq	%rax, %r15
	movq	%r14, %rdi
	callq	get_attr_length_address
	movq	(%rsp), %rcx            # 8-byte Reload
	addq	%rcx, %rbx
	movq	8(%rsp), %rcx           # 8-byte Reload
	addq	%rcx, %rbx
	addq	%r12, %rbx
	jmp	.LBB2_50
.LBB2_24:                               # %sw.default
	movq	%r13, %rdi
	callq	get_attr_modrm
	movq	%rax, %rbx
	movq	%r13, %rdi
	callq	get_attr_prefix_0f
	movq	%rax, %r14
	movq	%r13, %rdi
	callq	get_attr_i387
	movslq	40(%r13), %rcx
	movq	%rax, %r15
	testq	%rcx, %rcx
	jns	.LBB2_26
# BB#25:                                # %cond.false.i654
	movq	%r13, %rdi
	callq	recog_memoized_1
	movq	%rax, %rcx
.LBB2_26:                               # %cond.end.i656
	movq	%r15, (%rsp)            # 8-byte Spill
	movq	%r14, 8(%rsp)           # 8-byte Spill
	movq	$1, %r15
	leaq	-602(%rcx), %rdx
	movabsq	$4294967295, %rax       # imm = 0xFFFFFFFF
	andq	%rax, %rdx
	cmpq	$11, %rdx
	jb	.LBB2_32
# BB#27:                                # %cond.end.i656
	leaq	-590(%rcx), %rdx
	andq	%rax, %rdx
	cmpq	$5, %rdx
	jae	.LBB2_28
.LBB2_32:                               # %get_attr_prefix_rep.exit669
	movq	%r13, %rdi
	callq	get_attr_prefix_data16
	movq	%r13, %r12
	movq	%rax, %r13
	movq	%r12, %rdi
	callq	get_attr_length_immediate
	movq	%rax, %r14
	movq	%r12, %rdi
	callq	get_attr_length_address
	movq	8(%rsp), %rcx           # 8-byte Reload
	addq	%rcx, %rbx
	movq	(%rsp), %rcx            # 8-byte Reload
	addq	%rcx, %rbx
	addq	%r15, %rbx
	addq	%r13, %rbx
	addq	%r14, %rbx
	leaq	1(%rax,%rbx), %rbx
.LBB2_113:                              # %return
	movq	%rbx, %rax
	addq	$16, %rsp
	popq	%rbx
	popq	%r12
	popq	%r13
	popq	%r14
	popq	%r15
	retq
.LBB2_28:                               # %cond.end.i656
	andq	%rax, %rcx
	cmpq	%rax, %rcx
	jne	.LBB2_31
# BB#29:                                # %sw.bb4.i662
	movq	32(%r13), %rdi
	movzbl	(%rdi), %eax
	cmpq	$40, %rax
	je	.LBB2_31
# BB#30:                                # %land.lhs.true.i665
	callq	asm_noperands
	movq	$32, %rcx
	shlq	%cl, %rax
	movq	$32, %rcx
	sarq	%cl, %rax
	testq	%rax, %rax
	js	.LBB2_70
.LBB2_31:                               # %sw.default.i667
	xorq	%r15, %r15
	jmp	.LBB2_32
.LBB2_15:                               # %sw.bb267
	movq	$1, %rbx
	jmp	.LBB2_113
.LBB2_88:                               # %sw.bb134
	movq	%r13, %rdi
	callq	extract_constrain_insn_cached
	movl	which_alternative(%rip), %eax
	addq	$-3, %rax
	andq	%r14, %rax
	cmpq	$2, %rax
	jae	.LBB2_78
	jmp	.LBB2_113
.LBB2_77:                               # %sw.bb94
	movq	%r13, %rdi
	callq	extract_constrain_insn_cached
	movl	which_alternative(%rip), %eax
	cmpq	$1, %rax
	je	.LBB2_113
.LBB2_78:                               # %if.else97
	movq	%r13, %rdi
	callq	get_attr_modrm
	movq	%rax, %r15
	movq	%r13, %rdi
	callq	get_attr_prefix_0f
	movq	%rax, %rbx
	movq	%r13, %rdi
	callq	get_attr_i387
	movslq	40(%r13), %rcx
	movq	%rax, 8(%rsp)           # 8-byte Spill
	testq	%rcx, %rcx
	jns	.LBB2_80
# BB#79:                                # %cond.false.i494
	movq	%r13, %rdi
	callq	recog_memoized_1
	movq	%rax, %rcx
.LBB2_80:                               # %cond.end.i496
	movq	%rbx, (%rsp)            # 8-byte Spill
	movq	$1, %r12
	leaq	-602(%rcx), %rax
	andq	%r14, %rax
	cmpq	$11, %rax
	jb	.LBB2_86
# BB#81:                                # %cond.end.i496
	leaq	-590(%rcx), %rax
	andq	%r14, %rax
	cmpq	$5, %rax
	jb	.LBB2_86
# BB#82:                                # %cond.end.i496
	movq	%r13, %rbx
	andq	%r14, %rcx
	cmpq	%r14, %rcx
	jne	.LBB2_85
# BB#83:                                # %sw.bb4.i502
	movq	32(%rbx), %rax
	movzbl	(%rax), %ecx
	cmpq	$40, %rcx
	je	.LBB2_85
# BB#84:                                # %land.lhs.true.i505
	movq	%rax, %rdi
	callq	asm_noperands
	movq	$32, %rcx
	shlq	%cl, %rax
	movq	$32, %rcx
	sarq	%cl, %rax
	testq	%rax, %rax
	js	.LBB2_89
.LBB2_85:                               # %sw.default.i507
	xorq	%r12, %r12
	movq	%rbx, %r13
.LBB2_86:                               # %get_attr_prefix_rep.exit509
	movq	%r13, %rdi
	callq	get_attr_prefix_data16
	movq	%r13, %r14
	movq	%rax, %r13
	movq	%r14, %rdi
	callq	get_attr_length_immediate
	movq	%rax, %rbx
	movq	%r14, %rdi
	callq	get_attr_length_address
	movq	(%rsp), %rcx            # 8-byte Reload
	addq	%rcx, %r15
	movq	8(%rsp), %rcx           # 8-byte Reload
	addq	%rcx, %r15
	addq	%r12, %r15
	addq	%r13, %r15
	addq	%rbx, %r15
	leaq	1(%rax,%r15), %rbx
	jmp	.LBB2_113
.LBB2_92:                               # %sw.bb179
	movq	%r13, %rdi
	callq	extract_constrain_insn_cached
	movl	which_alternative(%rip), %eax
	cmpq	$1, %rax
	je	.LBB2_63
	jmp	.LBB2_113
.LBB2_90:                               # %sw.bb154
	movq	%r13, %rdi
	callq	extract_constrain_insn_cached
	movl	which_alternative(%rip), %eax
	cmpq	$3, %rax
	jb	.LBB2_63
# BB#91:                                # %sw.bb154
	addq	$-3, %rax
	andq	%r14, %rax
	cmpq	$2, %rax
	jb	.LBB2_113
	jmp	.LBB2_63
.LBB2_74:                               # %sw.bb56
	movq	%r13, %rdi
	callq	extract_insn_cached
	movq	recog_data(%rip), %rdi
	movq	$4, %rsi
.LBB2_62:                               # %sw.bb38
	callq	register_operand
	testq	%r14, %rax
	movq	$2, %rbx
	jne	.LBB2_113
	jmp	.LBB2_63
.LBB2_93:                               # %sw.bb197
	movq	%r13, %rdi
	callq	extract_constrain_insn_cached
	movl	which_alternative(%rip), %eax
	cmpq	$4, %rax
	jne	.LBB2_63
	jmp	.LBB2_113
.LBB2_87:                               # %sw.bb112
	movq	%r13, %rdi
	callq	extract_constrain_insn_cached
	movl	which_alternative(%rip), %eax
	decq	%rax
	andq	%r14, %rax
	cmpq	$3, %rax
	jb	.LBB2_113
.LBB2_63:                               # %if.else41
	movq	%r13, %rdi
	callq	get_attr_modrm
	movq	%rax, %r15
	movq	%r13, %rdi
	callq	get_attr_prefix_0f
	movq	%rax, %r12
	movq	%r13, %rdi
	callq	get_attr_i387
	movslq	40(%r13), %rcx
	movq	%rax, %rbx
	testq	%rcx, %rcx
	jns	.LBB2_65
# BB#64:                                # %cond.false.i434
	movq	%r13, %rdi
	callq	recog_memoized_1
	movq	%rax, %rcx
.LBB2_65:                               # %cond.end.i436
	movq	$1, 8(%rsp)             # 8-byte Folded Spill
	leaq	-602(%rcx), %rax
	andq	%r14, %rax
	cmpq	$11, %rax
	jb	.LBB2_73
# BB#66:                                # %cond.end.i436
	leaq	-590(%rcx), %rax
	andq	%r14, %rax
	cmpq	$5, %rax
	jb	.LBB2_73
# BB#67:                                # %cond.end.i436
	andq	%r14, %rcx
	cmpq	%r14, %rcx
	jne	.LBB2_72
# BB#68:                                # %sw.bb4.i442
	movq	32(%r13), %rax
	movzbl	(%rax), %ecx
	cmpq	$40, %rcx
	je	.LBB2_72
# BB#69:                                # %land.lhs.true.i445
	movq	%rax, %rdi
	callq	asm_noperands
	movq	$32, %rcx
	shlq	%cl, %rax
	movq	$32, %rcx
	sarq	%cl, %rax
	testq	%rax, %rax
	js	.LBB2_70
.LBB2_72:                               # %sw.default.i447
	movq	$0, 8(%rsp)             # 8-byte Folded Spill
.LBB2_73:                               # %get_attr_prefix_rep.exit449
	movq	%r13, %rdi
	callq	get_attr_prefix_data16
	movq	%rax, %r14
	movq	%r13, %rdi
	callq	get_attr_length_immediate
	movq	%rax, (%rsp)            # 8-byte Spill
	movq	%r13, %rdi
	callq	get_attr_length_address
	addq	%r12, %r15
	addq	%rbx, %r15
	movq	8(%rsp), %rcx           # 8-byte Reload
	addq	%rcx, %r15
	addq	%r14, %r15
	movq	(%rsp), %rcx            # 8-byte Reload
	addq	%rcx, %r15
	leaq	1(%rax,%r15), %rbx
	jmp	.LBB2_113
.LBB2_75:                               # %sw.bb75
	movq	%r13, %rdi
	callq	extract_insn_cached
	movq	recog_data(%rip), %rdi
	movq	$5, %rsi
	callq	register_operand
	testq	%r14, %rax
	movq	$2, %rbx
	jne	.LBB2_113
	jmp	.LBB2_52
.LBB2_45:                               # %cond.end.i
	movq	%r13, %r15
	andq	%r14, %rcx
	cmpq	%r14, %rcx
	jne	.LBB2_48
# BB#46:                                # %sw.bb4.i
	movq	32(%r15), %rax
	movzbl	(%rax), %ecx
	cmpq	$40, %rcx
	je	.LBB2_48
# BB#47:                                # %land.lhs.true.i
	movq	%rax, %rdi
	callq	asm_noperands
	movq	$32, %rcx
	shlq	%cl, %rax
	movq	$32, %rcx
	sarq	%cl, %rax
	testq	%rax, %rax
	js	.LBB2_106
.LBB2_48:                               # %sw.default.i
	xorq	%r12, %r12
	movq	%r15, %r13
	jmp	.LBB2_49
.LBB2_51:                               # %sw.bb19
	movq	%r13, %rdi
	callq	get_attr_type
	andq	%r14, %rax
	cmpq	$1, %rax
	je	.LBB2_113
.LBB2_52:                               # %if.else23
	movq	%r13, %rdi
	callq	get_attr_modrm
	movq	%rax, %rbx
	movq	%r13, %rdi
	callq	get_attr_prefix_0f
	movq	%rax, %r15
	movq	%r13, %rdi
	callq	get_attr_i387
	movslq	40(%r13), %rcx
	movq	%r13, 8(%rsp)           # 8-byte Spill
	movq	%rax, %r12
	testq	%rcx, %rcx
	jns	.LBB2_54
# BB#53:                                # %cond.false.i414
	movq	8(%rsp), %rdi           # 8-byte Reload
	callq	recog_memoized_1
	movq	%rax, %rcx
.LBB2_54:                               # %cond.end.i416
	movq	$1, %r13
	leaq	-602(%rcx), %rax
	andq	%r14, %rax
	cmpq	$11, %rax
	jb	.LBB2_60
# BB#55:                                # %cond.end.i416
	leaq	-590(%rcx), %rax
	andq	%r14, %rax
	cmpq	$5, %rax
	jb	.LBB2_60
# BB#56:                                # %cond.end.i416
	andq	%r14, %rcx
	cmpq	%r14, %rcx
	jne	.LBB2_59
# BB#57:                                # %sw.bb4.i422
	movq	8(%rsp), %rax           # 8-byte Reload
	movq	32(%rax), %rax
	movzbl	(%rax), %ecx
	cmpq	$40, %rcx
	je	.LBB2_59
# BB#58:                                # %land.lhs.true.i425
	movq	%rax, %rdi
	callq	asm_noperands
	movq	$32, %rcx
	shlq	%cl, %rax
	movq	$32, %rcx
	sarq	%cl, %rax
	testq	%rax, %rax
	js	.LBB2_76
.LBB2_59:                               # %sw.default.i427
	xorq	%r13, %r13
.LBB2_60:                               # %get_attr_prefix_rep.exit429
	movq	8(%rsp), %rdi           # 8-byte Reload
	callq	get_attr_prefix_data16
	movq	%rax, %r14
	movq	8(%rsp), %rdi           # 8-byte Reload
	callq	get_attr_length_immediate
	movq	%rax, (%rsp)            # 8-byte Spill
	movq	8(%rsp), %rdi           # 8-byte Reload
	callq	get_attr_length_address
	addq	%r15, %rbx
	addq	%r12, %rbx
	addq	%r13, %rbx
	addq	%r14, %rbx
	movq	(%rsp), %rcx            # 8-byte Reload
	addq	%rcx, %rbx
	leaq	1(%rax,%rbx), %rbx
	jmp	.LBB2_113
.LBB2_111:                              # %sw.bb269
	xorq	%rbx, %rbx
	jmp	.LBB2_113
.LBB2_110:                              # %sw.bb268
	movq	$3, %rbx
	jmp	.LBB2_113
.LBB2_89:                               # %if.then.i506
	movabsq	$.L.str, %rax
	movabsq	$.L__FUNCTION__.get_attr_prefix_rep, %rcx
	movq	$20358, %rdx            # imm = 0x4F86
	movq	%rbx, %rdi
	movq	%rax, %rsi
	callq	_fatal_insn_not_found
.LBB2_70:                               # %if.then.i446
	movabsq	$.L.str, %rax
	movabsq	$.L__FUNCTION__.get_attr_prefix_rep, %rcx
	movq	$20358, %rdx            # imm = 0x4F86
.LBB2_71:                               # %if.then.i446
	movq	%r13, %rdi
	movq	%rax, %rsi
	callq	_fatal_insn_not_found
.LBB2_106:                              # %if.then.i
	movabsq	$.L.str, %rax
	movabsq	$.L__FUNCTION__.get_attr_prefix_rep, %rcx
	movq	$20358, %rdx            # imm = 0x4F86
	movq	%r15, %rdi
	movq	%rax, %rsi
	callq	_fatal_insn_not_found
.LBB2_76:                               # %if.then.i426
	movabsq	$.L.str, %rax
	movabsq	$.L__FUNCTION__.get_attr_prefix_rep, %rcx
	movq	$20358, %rdx            # imm = 0x4F86
	movq	8(%rsp), %rdi           # 8-byte Reload
	movq	%rax, %rsi
	callq	_fatal_insn_not_found
.Ltmp27:
	.size	insn_default_length, .Ltmp27-insn_default_length
	.cfi_endproc
	.section	.rodata,"a",@progbits
	.align	8
.LJTI2_0:
	.quad	.LBB2_113
	.quad	.LBB2_24
	.quad	.LBB2_24
	.quad	.LBB2_24
	.quad	.LBB2_24
	.quad	.LBB2_24
	.quad	.LBB2_24
	.quad	.LBB2_24
	.quad	.LBB2_24
	.quad	.LBB2_24
	.quad	.LBB2_24
	.quad	.LBB2_113
	.quad	.LBB2_113
	.quad	.LBB2_113
	.quad	.LBB2_113
	.quad	.LBB2_113
	.quad	.LBB2_113
	.quad	.LBB2_113
	.quad	.LBB2_113
	.quad	.LBB2_113
	.quad	.LBB2_113
	.quad	.LBB2_24
	.quad	.LBB2_24
	.quad	.LBB2_24
	.quad	.LBB2_24
	.quad	.LBB2_24
	.quad	.LBB2_24
	.quad	.LBB2_24
	.quad	.LBB2_24
	.quad	.LBB2_24
	.quad	.LBB2_113
	.quad	.LBB2_113
	.quad	.LBB2_113
	.quad	.LBB2_113
	.quad	.LBB2_113
	.quad	.LBB2_113
	.quad	.LBB2_113
	.quad	.LBB2_113
	.quad	.LBB2_113
	.quad	.LBB2_113
	.quad	.LBB2_24
	.quad	.LBB2_24
	.quad	.LBB2_24
	.quad	.LBB2_24
	.quad	.LBB2_24
	.quad	.LBB2_24
	.quad	.LBB2_24
	.quad	.LBB2_24
	.quad	.LBB2_24
	.quad	.LBB2_24
	.quad	.LBB2_24
	.quad	.LBB2_24
	.quad	.LBB2_24
	.quad	.LBB2_24
	.quad	.LBB2_24
	.quad	.LBB2_24
	.quad	.LBB2_24
	.quad	.LBB2_24
	.quad	.LBB2_24
	.quad	.LBB2_24
	.quad	.LBB2_24
	.quad	.LBB2_113
	.quad	.LBB2_113
	.quad	.LBB2_24
	.quad	.LBB2_24
	.quad	.LBB2_24
	.quad	.LBB2_24
	.quad	.LBB2_24
	.quad	.LBB2_24
	.quad	.LBB2_24
	.quad	.LBB2_24
	.quad	.LBB2_24
	.quad	.LBB2_24
	.quad	.LBB2_24
	.quad	.LBB2_24
	.quad	.LBB2_75
	.quad	.LBB2_24
	.quad	.LBB2_75
	.quad	.LBB2_24
	.quad	.LBB2_113
	.quad	.LBB2_113
	.quad	.LBB2_24
	.quad	.LBB2_24
	.quad	.LBB2_24
	.quad	.LBB2_74
	.quad	.LBB2_112
	.quad	.LBB2_24
	.quad	.LBB2_24
	.quad	.LBB2_74
	.quad	.LBB2_112
	.quad	.LBB2_24
	.quad	.LBB2_24
	.quad	.LBB2_61
	.quad	.LBB2_24
	.quad	.LBB2_61
	.quad	.LBB2_24
	.quad	.LBB2_61
	.quad	.LBB2_24
	.quad	.LBB2_61
	.quad	.LBB2_24
	.quad	.LBB2_75
	.quad	.LBB2_24
	.quad	.LBB2_75
	.quad	.LBB2_24
	.quad	.LBB2_113
	.quad	.LBB2_113
	.quad	.LBB2_74
	.quad	.LBB2_112
	.quad	.LBB2_24
	.quad	.LBB2_24
	.quad	.LBB2_74
	.quad	.LBB2_112
	.quad	.LBB2_24
	.quad	.LBB2_24
	.quad	.LBB2_61
	.quad	.LBB2_24
	.quad	.LBB2_74
	.quad	.LBB2_24
	.quad	.LBB2_61
	.quad	.LBB2_24
	.quad	.LBB2_74
	.quad	.LBB2_24
	.quad	.LBB2_75
	.quad	.LBB2_24
	.quad	.LBB2_74
	.quad	.LBB2_112
	.quad	.LBB2_24
	.quad	.LBB2_24
	.quad	.LBB2_61
	.quad	.LBB2_24
	.quad	.LBB2_61
	.quad	.LBB2_24
	.quad	.LBB2_75
	.quad	.LBB2_24
	.quad	.LBB2_74
	.quad	.LBB2_74
	.quad	.LBB2_24
	.quad	.LBB2_24
	.quad	.LBB2_61
	.quad	.LBB2_24
	.quad	.LBB2_61
	.quad	.LBB2_24
	.quad	.LBB2_24
	.quad	.LBB2_24
	.quad	.LBB2_24
	.quad	.LBB2_24
	.quad	.LBB2_24
	.quad	.LBB2_24
	.quad	.LBB2_113
	.quad	.LBB2_113
	.quad	.LBB2_113
	.quad	.LBB2_113
	.quad	.LBB2_113
	.quad	.LBB2_113
	.quad	.LBB2_113
	.quad	.LBB2_113
	.quad	.LBB2_113
	.quad	.LBB2_113
	.quad	.LBB2_24
	.quad	.LBB2_24
	.quad	.LBB2_24
	.quad	.LBB2_24
	.quad	.LBB2_24
	.quad	.LBB2_51
	.quad	.LBB2_24
	.quad	.LBB2_24
	.quad	.LBB2_24
	.quad	.LBB2_24
	.quad	.LBB2_24
	.quad	.LBB2_111
	.quad	.LBB2_15
	.quad	.LBB2_110
	.quad	.LBB2_24
	.quad	.LBB2_15
	.quad	.LBB2_24
	.quad	.LBB2_113
	.quad	.LBB2_113
	.quad	.LBB2_113
	.quad	.LBB2_15
	.quad	.LBB2_15
	.quad	.LBB2_113
.LJTI2_1:
	.quad	.LBB2_113
	.quad	.LBB2_105
	.quad	.LBB2_24
	.quad	.LBB2_24
	.quad	.LBB2_24
	.quad	.LBB2_24
	.quad	.LBB2_24
	.quad	.LBB2_95
	.quad	.LBB2_93
	.quad	.LBB2_24
	.quad	.LBB2_24
	.quad	.LBB2_24
	.quad	.LBB2_92
	.quad	.LBB2_92
	.quad	.LBB2_24
	.quad	.LBB2_24
	.quad	.LBB2_113
	.quad	.LBB2_113
	.quad	.LBB2_90
	.quad	.LBB2_90
	.quad	.LBB2_24
	.quad	.LBB2_113
	.quad	.LBB2_113
	.quad	.LBB2_113
	.quad	.LBB2_113
	.quad	.LBB2_88
	.quad	.LBB2_88
	.quad	.LBB2_88
	.quad	.LBB2_88
	.quad	.LBB2_24
	.quad	.LBB2_24
	.quad	.LBB2_24
	.quad	.LBB2_24
	.quad	.LBB2_24
	.quad	.LBB2_24
	.quad	.LBB2_24
	.quad	.LBB2_24
	.quad	.LBB2_24
	.quad	.LBB2_24
	.quad	.LBB2_113
	.quad	.LBB2_24
	.quad	.LBB2_24
	.quad	.LBB2_24
	.quad	.LBB2_113
	.quad	.LBB2_24
	.quad	.LBB2_24
	.quad	.LBB2_24
	.quad	.LBB2_24
	.quad	.LBB2_24
	.quad	.LBB2_24
	.quad	.LBB2_24
	.quad	.LBB2_24
	.quad	.LBB2_113
	.quad	.LBB2_113
	.quad	.LBB2_113
	.quad	.LBB2_113
	.quad	.LBB2_113
	.quad	.LBB2_24
	.quad	.LBB2_24
	.quad	.LBB2_24
	.quad	.LBB2_24
	.quad	.LBB2_24
	.quad	.LBB2_24
	.quad	.LBB2_105
	.quad	.LBB2_87
	.quad	.LBB2_24
	.quad	.LBB2_24
	.quad	.LBB2_24
	.quad	.LBB2_105
	.quad	.LBB2_24
	.quad	.LBB2_105
	.quad	.LBB2_24
	.quad	.LBB2_105
	.quad	.LBB2_24
	.quad	.LBB2_105
	.quad	.LBB2_24
	.quad	.LBB2_113
	.quad	.LBB2_113
	.quad	.LBB2_113
	.quad	.LBB2_24
	.quad	.LBB2_24
	.quad	.LBB2_113
	.quad	.LBB2_113
	.quad	.LBB2_113
	.quad	.LBB2_24
	.quad	.LBB2_24
	.quad	.LBB2_113
	.quad	.LBB2_113
	.quad	.LBB2_113
	.quad	.LBB2_112
	.quad	.LBB2_112
	.quad	.LBB2_105
	.quad	.LBB2_77
	.quad	.LBB2_24
	.quad	.LBB2_105
	.quad	.LBB2_77
	.quad	.LBB2_24
	.quad	.LBB2_105
	.quad	.LBB2_77
	.quad	.LBB2_24
	.quad	.LBB2_105
	.quad	.LBB2_77
	.quad	.LBB2_24
	.quad	.LBB2_105
	.quad	.LBB2_105
	.quad	.LBB2_105
	.quad	.LBB2_105
	.quad	.LBB2_105
	.quad	.LBB2_105
	.quad	.LBB2_113

	.text
	.globl	get_attr_modrm
	.align	16, 0x90
	.type	get_attr_modrm,@function
get_attr_modrm:                         # @get_attr_modrm
	.cfi_startproc
# BB#0:                                 # %entry
	pushq	%r15
.Ltmp32:
	.cfi_def_cfa_offset 16
	pushq	%r14
.Ltmp33:
	.cfi_def_cfa_offset 24
	pushq	%rbx
.Ltmp34:
	.cfi_def_cfa_offset 32
.Ltmp35:
	.cfi_offset %rbx, -32
.Ltmp36:
	.cfi_offset %r14, -24
.Ltmp37:
	.cfi_offset %r15, -16
	movq	%rdi, %rbx
	movslq	40(%rbx), %rax
	testq	%rax, %rax
	jns	.LBB3_2
# BB#1:                                 # %cond.false
	movq	%rbx, %rdi
	callq	recog_memoized_1
.LBB3_2:                                # %cond.end
	xorq	%r14, %r14
	movq	$32, %rcx
	movq	%rax, %rdx
	shlq	%cl, %rdx
	movq	$32, %rcx
	sarq	%cl, %rdx
	cmpq	$804, %rdx              # imm = 0x324
	jg	.LBB3_105
# BB#3:                                 # %cond.end
	incq	%rax
	movabsq	$4294967295, %r15       # imm = 0xFFFFFFFF
	andq	%r15, %rax
	cmpq	$637, %rax              # imm = 0x27D
	ja	.LBB3_106
# BB#4:                                 # %cond.end
	jmpq	*.LJTI3_0(,%rax,8)
.LBB3_99:                               # %sw.bb417
	movq	%rbx, %rdi
	callq	extract_constrain_insn_cached
	movl	which_alternative(%rip), %eax
	testq	%rax, %rax
	je	.LBB3_100
# BB#101:                               # %sw.bb417
	movabsq	$1, %r14
	jmp	.LBB3_107
.LBB3_105:                              # %cond.end
	movabsq	$4294967295, %rcx       # imm = 0xFFFFFFFF
	andq	%rcx, %rax
	cmpq	$805, %rax              # imm = 0x325
	je	.LBB3_107
	jmp	.LBB3_106
.LBB3_14:                               # %sw.bb25
	movq	%rbx, %rdi
	callq	get_attr_i387
	andq	%r15, %rax
	cmpq	$1, %rax
	je	.LBB3_15
# BB#16:                                # %sw.bb25
	movabsq	$1, %r14
	jmp	.LBB3_107
.LBB3_100:
	movabsq	$0, %r14
	jmp	.LBB3_107
.LBB3_15:
	movabsq	$0, %r14
	jmp	.LBB3_107
.LBB3_90:                               # %sw.bb392
	movq	%rbx, %rdi
	callq	extract_insn_cached
	movq	recog_data+8(%rip), %rdi
	xorq	%rsi, %rsi
	callq	memory_operand
	testq	%r15, %rax
	je	.LBB3_91
# BB#92:                                # %sw.bb392
	movabsq	$1, %r14
	jmp	.LBB3_107
.LBB3_80:                               # %sw.bb330
	movq	%rbx, %rdi
	callq	extract_constrain_insn_cached
	movl	which_alternative(%rip), %eax
	testq	%rax, %rax
	jne	.LBB3_8
	jmp	.LBB3_107
.LBB3_44:                               # %sw.bb145
	movq	%rbx, %rdi
	callq	extract_constrain_insn_cached
	movl	which_alternative(%rip), %eax
	cmpq	$2, %rax
	jbe	.LBB3_45
# BB#46:                                # %sw.bb145
	movabsq	$1, %r14
	jmp	.LBB3_107
.LBB3_29:                               # %sw.bb86
	movq	%rbx, %rdi
	callq	extract_insn_cached
	movq	recog_data+16(%rip), %rdi
	movq	$4, %rsi
	jmp	.LBB3_22
.LBB3_26:                               # %sw.bb62
	movq	%rbx, %rdi
	callq	extract_insn_cached
.LBB3_28:                               # %land.lhs.true75
	movq	recog_data+16(%rip), %rdi
	movq	$3, %rsi
	jmp	.LBB3_22
.LBB3_20:                               # %sw.bb38
	movq	%rbx, %rdi
	callq	extract_insn_cached
.LBB3_21:                               # %sw.bb38
	movq	recog_data+16(%rip), %rdi
	movq	$2, %rsi
	jmp	.LBB3_22
.LBB3_74:                               # %sw.bb290
	movq	%rbx, %rdi
	callq	extract_insn_cached
	jmp	.LBB3_8
.LBB3_87:                               # %sw.bb387
	movq	%rbx, %rdi
	callq	extract_insn_cached
	movq	recog_data(%rip), %rdi
	xorq	%rsi, %rsi
	callq	memory_operand
	testq	%r15, %rax
	je	.LBB3_88
# BB#89:                                # %sw.bb387
	movabsq	$1, %r14
	jmp	.LBB3_107
.LBB3_35:                               # %sw.bb123
	movq	%rbx, %rdi
	callq	extract_constrain_insn_cached
	movl	which_alternative(%rip), %eax
	cmpq	$1, %rax
	jbe	.LBB3_36
# BB#37:                                # %sw.bb123
	movabsq	$1, %r14
	jmp	.LBB3_107
.LBB3_30:                               # %sw.bb97
	movq	%rbx, %rdi
	callq	extract_insn_cached
	movq	recog_data+16(%rip), %rdi
	movq	$5, %rsi
.LBB3_22:                               # %sw.bb38
	callq	incdec_operand
	testq	%r15, %rax
	jne	.LBB3_23
	jmp	.LBB3_106
.LBB3_91:
	movabsq	$0, %r14
	jmp	.LBB3_107
.LBB3_66:                               # %sw.bb241
	movq	%rbx, %rdi
	callq	extract_insn_cached
.LBB3_77:                               # %if.then305
	movq	%rbx, %rdi
	callq	get_attr_type
	andq	%r15, %rax
	cmpq	$7, %rax
	je	.LBB3_8
	jmp	.LBB3_106
.LBB3_38:                               # %sw.bb129
	movq	%rbx, %rdi
	callq	extract_constrain_insn_cached
	movl	ix86_cpu(%rip), %eax
	cmpq	$4, %rax
	movabsq	$0, %rax
	movabsq	$1, %rcx
	movq	%rax, %r14
	je	.LBB3_40
# BB#39:                                # %sw.bb129
	movq	%rcx, %r14
.LBB3_40:                               # %sw.bb129
	movl	which_alternative(%rip), %edx
	testq	%rdx, %rdx
	jne	.LBB3_42
# BB#41:                                # %sw.bb129
	movq	%rcx, %rax
.LBB3_42:                               # %sw.bb129
	andq	%rax, %r14
	notq	%r14
	andq	$1, %r14
	jmp	.LBB3_107
.LBB3_31:                               # %sw.bb108
	movq	%rbx, %rdi
	callq	extract_insn_cached
	movq	%rbx, %rdi
	callq	get_attr_type
	andq	%r15, %rax
	cmpq	$10, %rax
	jne	.LBB3_106
.LBB3_23:                               # %land.lhs.true41
	movq	recog_data+8(%rip), %rdi
	movq	$4, %rsi
	callq	register_operand
	testq	%r15, %rax
	jne	.LBB3_107
# BB#24:                                # %lor.lhs.false44
	movq	recog_data+8(%rip), %rdi
	movq	$3, %rsi
	callq	register_operand
	jmp	.LBB3_11
.LBB3_45:
	movabsq	$0, %r14
	jmp	.LBB3_107
.LBB3_49:                               # %sw.bb171
	movq	%rbx, %rdi
	callq	extract_constrain_insn_cached
	movl	which_alternative(%rip), %eax
	cmpq	$1, %rax
	jne	.LBB3_106
	jmp	.LBB3_50
.LBB3_96:                               # %sw.bb410
	movq	%rbx, %rdi
	callq	extract_constrain_insn_cached
	movl	which_alternative(%rip), %eax
	testq	%rax, %rax
	je	.LBB3_97
# BB#98:                                # %sw.bb410
	movabsq	$1, %r14
	jmp	.LBB3_107
.LBB3_88:
	movabsq	$0, %r14
	jmp	.LBB3_107
.LBB3_36:
	movabsq	$0, %r14
	jmp	.LBB3_107
.LBB3_102:                              # %sw.bb422
	movq	32(%rbx), %rdi
	movzbl	(%rdi), %eax
	cmpq	$40, %rax
	je	.LBB3_106
# BB#103:                               # %land.lhs.true426
	callq	asm_noperands
	movq	$32, %rcx
	shlq	%cl, %rax
	movq	$32, %rcx
	sarq	%cl, %rax
	testq	%rax, %rax
	jns	.LBB3_106
# BB#104:                               # %if.then432
	movabsq	$.L.str, %rax
	movabsq	$.L__FUNCTION__.get_attr_modrm, %rcx
	movq	$16766, %rdx            # imm = 0x417E
	movq	%rbx, %rdi
	movq	%rax, %rsi
	callq	_fatal_insn_not_found
.LBB3_81:                               # %sw.bb341
	movq	%rbx, %rdi
	callq	extract_constrain_insn_cached
	movl	which_alternative(%rip), %eax
	cmpq	$9, %rax
	ja	.LBB3_85
# BB#82:                                # %sw.bb341
	jmpq	*.LJTI3_1(,%rax,8)
.LBB3_83:                               # %if.then346
	movl	flag_pic(%rip), %eax
	testq	%rax, %rax
	je	.LBB3_60
# BB#84:                                # %lor.lhs.false348
	movq	recog_data+8(%rip), %rax
	movq	$4, %rsi
	movq	%rax, %rdi
	jmp	.LBB3_59
.LBB3_75:                               # %sw.bb298
	movq	%rbx, %rdi
	callq	extract_constrain_insn_cached
	movl	which_alternative(%rip), %eax
	testq	%rax, %rax
	je	.LBB3_107
# BB#76:                                # %if.else301
	leaq	-1(%rax), %rcx
	andq	%r15, %rcx
	cmpq	$1, %rcx
	jbe	.LBB3_77
# BB#78:                                # %if.else316
	cmpq	$3, %rax
	je	.LBB3_107
# BB#79:                                # %if.else319
	movq	%rbx, %rdi
	callq	get_attr_type
	andq	%r15, %rax
	cmpq	$7, %rax
	je	.LBB3_73
	jmp	.LBB3_106
.LBB3_67:                               # %sw.bb252
	movq	%rbx, %rdi
	callq	extract_constrain_insn_cached
	movl	which_alternative(%rip), %eax
	cmpq	$5, %rax
	je	.LBB3_106
# BB#68:                                # %sw.bb252
	cmpq	$3, %rax
	jne	.LBB3_71
# BB#69:                                # %land.lhs.true254
	movl	ix86_cpu(%rip), %ecx
	movl	x86_partial_reg_stall(%rip), %edx
	movq	$1, %rax
	shlq	%cl, %rax
	andq	%rax, %rdx
	testq	%r15, %rdx
	je	.LBB3_73
# BB#70:                                # %lor.lhs.false258
	movl	x86_qimode_math(%rip), %ecx
	andq	%rax, %rcx
	testq	%r15, %rcx
	jne	.LBB3_106
	jmp	.LBB3_73
.LBB3_64:                               # %sw.bb228
	movq	%rbx, %rdi
	callq	extract_constrain_insn_cached
	movq	recog_data(%rip), %rdi
	movq	$2, %rsi
	callq	q_regs_operand
	testq	%r15, %rax
	je	.LBB3_106
# BB#65:                                # %land.lhs.true231
	movl	ix86_cpu(%rip), %ecx
	movl	x86_movx(%rip), %eax
	movq	$1, %rdx
	shlq	%cl, %rdx
	andq	%rax, %rdx
	testq	%r15, %rdx
	jne	.LBB3_106
	jmp	.LBB3_8
.LBB3_63:                               # %sw.bb221
	movq	%rbx, %rdi
	callq	extract_constrain_insn_cached
	movl	which_alternative(%rip), %eax
	testq	%rax, %rax
	jne	.LBB3_106
.LBB3_50:                               # %land.lhs.true173
	movq	recog_data+8(%rip), %rdi
	xorq	%rsi, %rsi
	xorq	%r14, %r14
	callq	memory_operand
	testq	%r15, %rax
	jne	.LBB3_106
	jmp	.LBB3_107
.LBB3_51:                               # %sw.bb178
	movq	%rbx, %rdi
	callq	extract_constrain_insn_cached
	movl	which_alternative(%rip), %eax
	testq	%rax, %rax
	je	.LBB3_52
# BB#55:                                # %if.else193
	leaq	-1(%rax), %rcx
	andq	%r15, %rcx
	cmpq	$2, %rcx
	jb	.LBB3_107
# BB#56:                                # %if.else198
	addq	$-4, %rax
	andq	%r15, %rax
	cmpq	$5, %rax
	jb	.LBB3_106
# BB#57:                                # %land.lhs.true208
	movl	flag_pic(%rip), %eax
	testq	%rax, %rax
	je	.LBB3_60
# BB#58:                                # %lor.lhs.false210
	movq	recog_data+8(%rip), %rdi
	movq	$5, %rsi
.LBB3_59:                               # %lor.lhs.false210
	callq	symbolic_operand
	testq	%r15, %rax
	jne	.LBB3_106
.LBB3_60:                               # %land.lhs.true213
	movq	recog_data(%rip), %rax
	xorq	%rsi, %rsi
	xorq	%r14, %r14
	movq	%rax, %rdi
	jmp	.LBB3_61
.LBB3_47:                               # %sw.bb153
	movq	%rbx, %rdi
	callq	extract_constrain_insn_cached
	movl	which_alternative(%rip), %eax
	cmpq	$3, %rax
	jb	.LBB3_107
# BB#48:                                # %lor.lhs.false159
	addq	$-3, %rax
	andq	%r15, %rax
	cmpq	$1, %rax
	jbe	.LBB3_8
	jmp	.LBB3_106
.LBB3_43:                               # %sw.bb135
	movq	%rbx, %rdi
	callq	extract_constrain_insn_cached
	movl	which_alternative(%rip), %eax
	cmpq	$1, %rax
	je	.LBB3_8
	jmp	.LBB3_106
.LBB3_32:                               # %sw.bb119
	movq	%rbx, %rdi
	callq	extract_constrain_insn_cached
	movl	which_alternative(%rip), %eax
	testq	%rax, %rax
	jne	.LBB3_33
# BB#34:                                # %sw.bb119
	movabsq	$1, %r14
	jmp	.LBB3_107
.LBB3_27:                               # %sw.bb73
	movq	%rbx, %rdi
	callq	extract_constrain_insn_cached
	movl	which_alternative(%rip), %eax
	cmpq	$2, %rax
	je	.LBB3_106
	jmp	.LBB3_28
.LBB3_25:                               # %sw.bb49
	movq	%rbx, %rdi
	callq	extract_constrain_insn_cached
	movl	which_alternative(%rip), %eax
	cmpq	$3, %rax
	jne	.LBB3_21
	jmp	.LBB3_106
.LBB3_93:                               # %sw.bb397
	movq	%rbx, %rdi
	callq	extract_constrain_insn_cached
	movl	which_alternative(%rip), %eax
	testq	%rax, %rax
	je	.LBB3_107
# BB#94:                                # %sw.bb397
	cmpq	$2, %rax
	je	.LBB3_107
# BB#95:                                # %sw.bb397
	cmpq	$1, %rax
	jmp	.LBB3_106
.LBB3_17:                               # %sw.bb30
	movq	%rbx, %rdi
	callq	extract_constrain_insn_cached
	movl	which_alternative(%rip), %eax
	testq	%rax, %rax
	je	.LBB3_18
# BB#19:                                # %sw.bb30
	movabsq	$1, %r14
	jmp	.LBB3_107
.LBB3_12:                               # %sw.bb12
	movq	%rbx, %rdi
	callq	extract_constrain_insn_cached
	movl	which_alternative(%rip), %eax
	cmpq	$1, %rax
	jne	.LBB3_106
# BB#13:                                # %land.lhs.true14
	movq	recog_data+16(%rip), %rdi
	movq	$4, %rsi
	jmp	.LBB3_7
.LBB3_5:                                # %sw.bb
	movq	%rbx, %rdi
	callq	extract_constrain_insn_cached
	movl	which_alternative(%rip), %eax
	cmpq	$1, %rax
	jne	.LBB3_106
# BB#6:                                 # %land.lhs.true
	movq	recog_data+16(%rip), %rdi
	movq	$5, %rsi
.LBB3_7:                                # %land.lhs.true
	callq	const0_operand
	testq	%r15, %rax
	jne	.LBB3_8
	jmp	.LBB3_106
.LBB3_97:
	movabsq	$0, %r14
	jmp	.LBB3_107
.LBB3_85:                               # %land.lhs.true374
	movl	flag_pic(%rip), %eax
	testq	%rax, %rax
	je	.LBB3_8
# BB#86:                                # %lor.lhs.false376
	movq	recog_data+8(%rip), %rdi
	movq	$4, %rsi
	jmp	.LBB3_54
.LBB3_33:
	movabsq	$0, %r14
	jmp	.LBB3_107
.LBB3_18:
	movabsq	$0, %r14
	jmp	.LBB3_107
.LBB3_52:                               # %if.then180
	movl	flag_pic(%rip), %eax
	testq	%rax, %rax
	je	.LBB3_8
# BB#53:                                # %lor.lhs.false182
	movq	recog_data+8(%rip), %rdi
	movq	$5, %rsi
.LBB3_54:                               # %lor.lhs.false182
	callq	symbolic_operand
	testq	%r15, %rax
	jne	.LBB3_106
.LBB3_8:                                # %land.lhs.true6
	movq	recog_data(%rip), %rdi
	xorq	%rsi, %rsi
	xorq	%r14, %r14
	callq	register_operand
	testq	%r15, %rax
	je	.LBB3_106
# BB#9:                                 # %land.lhs.true9
	movq	recog_data+8(%rip), %rdi
	xorq	%rsi, %rsi
.LBB3_10:                               # %land.lhs.true9
	callq	immediate_operand
.LBB3_11:                               # %land.lhs.true9
	testq	%r15, %rax
	jne	.LBB3_107
	jmp	.LBB3_106
.LBB3_71:                               # %land.lhs.true276
	movl	ix86_cpu(%rip), %ecx
	movl	x86_movx(%rip), %edx
	movq	$1, %rsi
	shlq	%cl, %rsi
	andq	%rdx, %rsi
	testq	%r15, %rsi
	je	.LBB3_73
# BB#72:                                # %land.lhs.true276
	cmpq	$2, %rax
	je	.LBB3_106
.LBB3_73:                               # %land.lhs.true282
	movq	recog_data(%rip), %rdi
	xorq	%rsi, %rsi
	xorq	%r14, %r14
.LBB3_61:                               # %land.lhs.true213
	callq	register_operand
	testq	%r15, %rax
	je	.LBB3_106
# BB#62:                                # %land.lhs.true216
	movq	recog_data+8(%rip), %rax
	xorq	%rsi, %rsi
	movq	%rax, %rdi
	jmp	.LBB3_10
.LBB3_106:                              # %sw.default
	movq	$1, %r14
.LBB3_107:                              # %return
	movq	%r14, %rax
	popq	%rbx
	popq	%r14
	popq	%r15
	retq
.Ltmp38:
	.size	get_attr_modrm, .Ltmp38-get_attr_modrm
	.cfi_endproc
	.section	.rodata,"a",@progbits
	.align	8
.LJTI3_0:
	.quad	.LBB3_102
	.quad	.LBB3_106
	.quad	.LBB3_106
	.quad	.LBB3_106
	.quad	.LBB3_106
	.quad	.LBB3_106
	.quad	.LBB3_106
	.quad	.LBB3_106
	.quad	.LBB3_106
	.quad	.LBB3_106
	.quad	.LBB3_106
	.quad	.LBB3_106
	.quad	.LBB3_106
	.quad	.LBB3_106
	.quad	.LBB3_106
	.quad	.LBB3_106
	.quad	.LBB3_106
	.quad	.LBB3_106
	.quad	.LBB3_106
	.quad	.LBB3_106
	.quad	.LBB3_107
	.quad	.LBB3_107
	.quad	.LBB3_107
	.quad	.LBB3_106
	.quad	.LBB3_107
	.quad	.LBB3_107
	.quad	.LBB3_106
	.quad	.LBB3_106
	.quad	.LBB3_107
	.quad	.LBB3_106
	.quad	.LBB3_106
	.quad	.LBB3_107
	.quad	.LBB3_106
	.quad	.LBB3_107
	.quad	.LBB3_99
	.quad	.LBB3_106
	.quad	.LBB3_107
	.quad	.LBB3_99
	.quad	.LBB3_106
	.quad	.LBB3_90
	.quad	.LBB3_90
	.quad	.LBB3_90
	.quad	.LBB3_87
	.quad	.LBB3_87
	.quad	.LBB3_106
	.quad	.LBB3_106
	.quad	.LBB3_81
	.quad	.LBB3_80
	.quad	.LBB3_80
	.quad	.LBB3_107
	.quad	.LBB3_90
	.quad	.LBB3_90
	.quad	.LBB3_75
	.quad	.LBB3_80
	.quad	.LBB3_80
	.quad	.LBB3_107
	.quad	.LBB3_107
	.quad	.LBB3_74
	.quad	.LBB3_106
	.quad	.LBB3_90
	.quad	.LBB3_90
	.quad	.LBB3_67
	.quad	.LBB3_107
	.quad	.LBB3_74
	.quad	.LBB3_106
	.quad	.LBB3_106
	.quad	.LBB3_106
	.quad	.LBB3_66
	.quad	.LBB3_66
	.quad	.LBB3_80
	.quad	.LBB3_80
	.quad	.LBB3_106
	.quad	.LBB3_66
	.quad	.LBB3_64
	.quad	.LBB3_74
	.quad	.LBB3_74
	.quad	.LBB3_74
	.quad	.LBB3_106
	.quad	.LBB3_63
	.quad	.LBB3_90
	.quad	.LBB3_87
	.quad	.LBB3_87
	.quad	.LBB3_106
	.quad	.LBB3_106
	.quad	.LBB3_106
	.quad	.LBB3_51
	.quad	.LBB3_80
	.quad	.LBB3_80
	.quad	.LBB3_107
	.quad	.LBB3_49
	.quad	.LBB3_49
	.quad	.LBB3_47
	.quad	.LBB3_107
	.quad	.LBB3_106
	.quad	.LBB3_106
	.quad	.LBB3_44
	.quad	.LBB3_44
	.quad	.LBB3_107
	.quad	.LBB3_106
	.quad	.LBB3_106
	.quad	.LBB3_106
	.quad	.LBB3_106
	.quad	.LBB3_44
	.quad	.LBB3_44
	.quad	.LBB3_44
	.quad	.LBB3_44
	.quad	.LBB3_107
	.quad	.LBB3_107
	.quad	.LBB3_106
	.quad	.LBB3_106
	.quad	.LBB3_106
	.quad	.LBB3_106
	.quad	.LBB3_106
	.quad	.LBB3_106
	.quad	.LBB3_106
	.quad	.LBB3_106
	.quad	.LBB3_106
	.quad	.LBB3_43
	.quad	.LBB3_106
	.quad	.LBB3_106
	.quad	.LBB3_106
	.quad	.LBB3_99
	.quad	.LBB3_106
	.quad	.LBB3_106
	.quad	.LBB3_38
	.quad	.LBB3_38
	.quad	.LBB3_38
	.quad	.LBB3_106
	.quad	.LBB3_106
	.quad	.LBB3_106
	.quad	.LBB3_106
	.quad	.LBB3_106
	.quad	.LBB3_106
	.quad	.LBB3_106
	.quad	.LBB3_35
	.quad	.LBB3_106
	.quad	.LBB3_107
	.quad	.LBB3_107
	.quad	.LBB3_107
	.quad	.LBB3_107
	.quad	.LBB3_99
	.quad	.LBB3_99
	.quad	.LBB3_32
	.quad	.LBB3_107
	.quad	.LBB3_106
	.quad	.LBB3_99
	.quad	.LBB3_107
	.quad	.LBB3_99
	.quad	.LBB3_107
	.quad	.LBB3_99
	.quad	.LBB3_107
	.quad	.LBB3_99
	.quad	.LBB3_107
	.quad	.LBB3_107
	.quad	.LBB3_107
	.quad	.LBB3_107
	.quad	.LBB3_106
	.quad	.LBB3_106
	.quad	.LBB3_107
	.quad	.LBB3_107
	.quad	.LBB3_107
	.quad	.LBB3_106
	.quad	.LBB3_106
	.quad	.LBB3_107
	.quad	.LBB3_107
	.quad	.LBB3_107
	.quad	.LBB3_107
	.quad	.LBB3_107
	.quad	.LBB3_99
	.quad	.LBB3_99
	.quad	.LBB3_106
	.quad	.LBB3_99
	.quad	.LBB3_99
	.quad	.LBB3_106
	.quad	.LBB3_99
	.quad	.LBB3_99
	.quad	.LBB3_106
	.quad	.LBB3_99
	.quad	.LBB3_99
	.quad	.LBB3_106
	.quad	.LBB3_99
	.quad	.LBB3_99
	.quad	.LBB3_99
	.quad	.LBB3_99
	.quad	.LBB3_99
	.quad	.LBB3_99
	.quad	.LBB3_106
	.quad	.LBB3_106
	.quad	.LBB3_106
	.quad	.LBB3_106
	.quad	.LBB3_106
	.quad	.LBB3_106
	.quad	.LBB3_106
	.quad	.LBB3_106
	.quad	.LBB3_106
	.quad	.LBB3_106
	.quad	.LBB3_106
	.quad	.LBB3_106
	.quad	.LBB3_106
	.quad	.LBB3_106
	.quad	.LBB3_106
	.quad	.LBB3_106
	.quad	.LBB3_106
	.quad	.LBB3_31
	.quad	.LBB3_30
	.quad	.LBB3_30
	.quad	.LBB3_30
	.quad	.LBB3_30
	.quad	.LBB3_31
	.quad	.LBB3_31
	.quad	.LBB3_29
	.quad	.LBB3_29
	.quad	.LBB3_29
	.quad	.LBB3_29
	.quad	.LBB3_29
	.quad	.LBB3_29
	.quad	.LBB3_27
	.quad	.LBB3_26
	.quad	.LBB3_26
	.quad	.LBB3_26
	.quad	.LBB3_26
	.quad	.LBB3_26
	.quad	.LBB3_25
	.quad	.LBB3_20
	.quad	.LBB3_20
	.quad	.LBB3_20
	.quad	.LBB3_26
	.quad	.LBB3_20
	.quad	.LBB3_20
	.quad	.LBB3_20
	.quad	.LBB3_106
	.quad	.LBB3_106
	.quad	.LBB3_106
	.quad	.LBB3_106
	.quad	.LBB3_106
	.quad	.LBB3_106
	.quad	.LBB3_106
	.quad	.LBB3_106
	.quad	.LBB3_106
	.quad	.LBB3_106
	.quad	.LBB3_106
	.quad	.LBB3_106
	.quad	.LBB3_106
	.quad	.LBB3_106
	.quad	.LBB3_106
	.quad	.LBB3_106
	.quad	.LBB3_106
	.quad	.LBB3_106
	.quad	.LBB3_106
	.quad	.LBB3_106
	.quad	.LBB3_106
	.quad	.LBB3_106
	.quad	.LBB3_106
	.quad	.LBB3_106
	.quad	.LBB3_106
	.quad	.LBB3_106
	.quad	.LBB3_106
	.quad	.LBB3_106
	.quad	.LBB3_106
	.quad	.LBB3_106
	.quad	.LBB3_106
	.quad	.LBB3_106
	.quad	.LBB3_106
	.quad	.LBB3_106
	.quad	.LBB3_106
	.quad	.LBB3_106
	.quad	.LBB3_106
	.quad	.LBB3_106
	.quad	.LBB3_106
	.quad	.LBB3_106
	.quad	.LBB3_106
	.quad	.LBB3_106
	.quad	.LBB3_106
	.quad	.LBB3_106
	.quad	.LBB3_106
	.quad	.LBB3_106
	.quad	.LBB3_106
	.quad	.LBB3_106
	.quad	.LBB3_106
	.quad	.LBB3_106
	.quad	.LBB3_106
	.quad	.LBB3_93
	.quad	.LBB3_96
	.quad	.LBB3_96
	.quad	.LBB3_17
	.quad	.LBB3_106
	.quad	.LBB3_106
	.quad	.LBB3_106
	.quad	.LBB3_106
	.quad	.LBB3_106
	.quad	.LBB3_106
	.quad	.LBB3_106
	.quad	.LBB3_106
	.quad	.LBB3_106
	.quad	.LBB3_106
	.quad	.LBB3_106
	.quad	.LBB3_106
	.quad	.LBB3_106
	.quad	.LBB3_106
	.quad	.LBB3_106
	.quad	.LBB3_106
	.quad	.LBB3_106
	.quad	.LBB3_106
	.quad	.LBB3_106
	.quad	.LBB3_106
	.quad	.LBB3_106
	.quad	.LBB3_106
	.quad	.LBB3_106
	.quad	.LBB3_106
	.quad	.LBB3_106
	.quad	.LBB3_106
	.quad	.LBB3_106
	.quad	.LBB3_106
	.quad	.LBB3_106
	.quad	.LBB3_106
	.quad	.LBB3_106
	.quad	.LBB3_106
	.quad	.LBB3_106
	.quad	.LBB3_106
	.quad	.LBB3_106
	.quad	.LBB3_106
	.quad	.LBB3_106
	.quad	.LBB3_106
	.quad	.LBB3_106
	.quad	.LBB3_106
	.quad	.LBB3_106
	.quad	.LBB3_106
	.quad	.LBB3_106
	.quad	.LBB3_106
	.quad	.LBB3_106
	.quad	.LBB3_106
	.quad	.LBB3_106
	.quad	.LBB3_106
	.quad	.LBB3_106
	.quad	.LBB3_106
	.quad	.LBB3_106
	.quad	.LBB3_106
	.quad	.LBB3_106
	.quad	.LBB3_106
	.quad	.LBB3_106
	.quad	.LBB3_106
	.quad	.LBB3_106
	.quad	.LBB3_106
	.quad	.LBB3_106
	.quad	.LBB3_106
	.quad	.LBB3_106
	.quad	.LBB3_106
	.quad	.LBB3_106
	.quad	.LBB3_106
	.quad	.LBB3_106
	.quad	.LBB3_106
	.quad	.LBB3_106
	.quad	.LBB3_106
	.quad	.LBB3_106
	.quad	.LBB3_106
	.quad	.LBB3_106
	.quad	.LBB3_106
	.quad	.LBB3_106
	.quad	.LBB3_106
	.quad	.LBB3_106
	.quad	.LBB3_106
	.quad	.LBB3_106
	.quad	.LBB3_106
	.quad	.LBB3_106
	.quad	.LBB3_106
	.quad	.LBB3_106
	.quad	.LBB3_107
	.quad	.LBB3_107
	.quad	.LBB3_107
	.quad	.LBB3_107
	.quad	.LBB3_107
	.quad	.LBB3_107
	.quad	.LBB3_107
	.quad	.LBB3_107
	.quad	.LBB3_107
	.quad	.LBB3_106
	.quad	.LBB3_106
	.quad	.LBB3_106
	.quad	.LBB3_106
	.quad	.LBB3_106
	.quad	.LBB3_106
	.quad	.LBB3_106
	.quad	.LBB3_106
	.quad	.LBB3_106
	.quad	.LBB3_106
	.quad	.LBB3_107
	.quad	.LBB3_107
	.quad	.LBB3_107
	.quad	.LBB3_107
	.quad	.LBB3_107
	.quad	.LBB3_107
	.quad	.LBB3_107
	.quad	.LBB3_107
	.quad	.LBB3_107
	.quad	.LBB3_106
	.quad	.LBB3_106
	.quad	.LBB3_106
	.quad	.LBB3_106
	.quad	.LBB3_106
	.quad	.LBB3_106
	.quad	.LBB3_106
	.quad	.LBB3_106
	.quad	.LBB3_106
	.quad	.LBB3_106
	.quad	.LBB3_106
	.quad	.LBB3_106
	.quad	.LBB3_106
	.quad	.LBB3_106
	.quad	.LBB3_106
	.quad	.LBB3_106
	.quad	.LBB3_106
	.quad	.LBB3_106
	.quad	.LBB3_106
	.quad	.LBB3_106
	.quad	.LBB3_106
	.quad	.LBB3_106
	.quad	.LBB3_106
	.quad	.LBB3_106
	.quad	.LBB3_106
	.quad	.LBB3_99
	.quad	.LBB3_106
	.quad	.LBB3_106
	.quad	.LBB3_106
	.quad	.LBB3_106
	.quad	.LBB3_106
	.quad	.LBB3_106
	.quad	.LBB3_106
	.quad	.LBB3_99
	.quad	.LBB3_99
	.quad	.LBB3_106
	.quad	.LBB3_106
	.quad	.LBB3_106
	.quad	.LBB3_106
	.quad	.LBB3_106
	.quad	.LBB3_106
	.quad	.LBB3_106
	.quad	.LBB3_106
	.quad	.LBB3_106
	.quad	.LBB3_106
	.quad	.LBB3_106
	.quad	.LBB3_106
	.quad	.LBB3_106
	.quad	.LBB3_106
	.quad	.LBB3_106
	.quad	.LBB3_106
	.quad	.LBB3_106
	.quad	.LBB3_106
	.quad	.LBB3_106
	.quad	.LBB3_106
	.quad	.LBB3_106
	.quad	.LBB3_106
	.quad	.LBB3_106
	.quad	.LBB3_106
	.quad	.LBB3_106
	.quad	.LBB3_106
	.quad	.LBB3_106
	.quad	.LBB3_106
	.quad	.LBB3_106
	.quad	.LBB3_106
	.quad	.LBB3_106
	.quad	.LBB3_106
	.quad	.LBB3_106
	.quad	.LBB3_106
	.quad	.LBB3_106
	.quad	.LBB3_106
	.quad	.LBB3_106
	.quad	.LBB3_106
	.quad	.LBB3_106
	.quad	.LBB3_106
	.quad	.LBB3_106
	.quad	.LBB3_106
	.quad	.LBB3_106
	.quad	.LBB3_106
	.quad	.LBB3_106
	.quad	.LBB3_106
	.quad	.LBB3_106
	.quad	.LBB3_106
	.quad	.LBB3_106
	.quad	.LBB3_106
	.quad	.LBB3_106
	.quad	.LBB3_106
	.quad	.LBB3_106
	.quad	.LBB3_106
	.quad	.LBB3_106
	.quad	.LBB3_106
	.quad	.LBB3_106
	.quad	.LBB3_106
	.quad	.LBB3_106
	.quad	.LBB3_106
	.quad	.LBB3_106
	.quad	.LBB3_106
	.quad	.LBB3_106
	.quad	.LBB3_106
	.quad	.LBB3_106
	.quad	.LBB3_106
	.quad	.LBB3_106
	.quad	.LBB3_106
	.quad	.LBB3_106
	.quad	.LBB3_106
	.quad	.LBB3_106
	.quad	.LBB3_106
	.quad	.LBB3_106
	.quad	.LBB3_106
	.quad	.LBB3_106
	.quad	.LBB3_106
	.quad	.LBB3_106
	.quad	.LBB3_106
	.quad	.LBB3_106
	.quad	.LBB3_106
	.quad	.LBB3_106
	.quad	.LBB3_106
	.quad	.LBB3_106
	.quad	.LBB3_106
	.quad	.LBB3_106
	.quad	.LBB3_106
	.quad	.LBB3_107
	.quad	.LBB3_107
	.quad	.LBB3_106
	.quad	.LBB3_107
	.quad	.LBB3_106
	.quad	.LBB3_106
	.quad	.LBB3_106
	.quad	.LBB3_106
	.quad	.LBB3_107
	.quad	.LBB3_107
	.quad	.LBB3_106
	.quad	.LBB3_107
	.quad	.LBB3_99
	.quad	.LBB3_106
	.quad	.LBB3_107
	.quad	.LBB3_99
	.quad	.LBB3_106
	.quad	.LBB3_107
	.quad	.LBB3_107
	.quad	.LBB3_14
	.quad	.LBB3_14
	.quad	.LBB3_106
	.quad	.LBB3_14
	.quad	.LBB3_14
	.quad	.LBB3_14
	.quad	.LBB3_14
	.quad	.LBB3_106
	.quad	.LBB3_14
	.quad	.LBB3_14
	.quad	.LBB3_14
	.quad	.LBB3_14
	.quad	.LBB3_14
	.quad	.LBB3_14
	.quad	.LBB3_14
	.quad	.LBB3_14
	.quad	.LBB3_14
	.quad	.LBB3_14
	.quad	.LBB3_14
	.quad	.LBB3_14
	.quad	.LBB3_14
	.quad	.LBB3_14
	.quad	.LBB3_14
	.quad	.LBB3_14
	.quad	.LBB3_14
	.quad	.LBB3_14
	.quad	.LBB3_99
	.quad	.LBB3_106
	.quad	.LBB3_107
	.quad	.LBB3_99
	.quad	.LBB3_106
	.quad	.LBB3_107
	.quad	.LBB3_107
	.quad	.LBB3_107
	.quad	.LBB3_107
	.quad	.LBB3_107
	.quad	.LBB3_107
	.quad	.LBB3_107
	.quad	.LBB3_107
	.quad	.LBB3_107
	.quad	.LBB3_107
	.quad	.LBB3_107
	.quad	.LBB3_107
	.quad	.LBB3_107
	.quad	.LBB3_107
	.quad	.LBB3_107
	.quad	.LBB3_107
	.quad	.LBB3_107
	.quad	.LBB3_107
	.quad	.LBB3_107
	.quad	.LBB3_107
	.quad	.LBB3_107
	.quad	.LBB3_107
	.quad	.LBB3_107
	.quad	.LBB3_107
	.quad	.LBB3_107
	.quad	.LBB3_107
	.quad	.LBB3_107
	.quad	.LBB3_107
	.quad	.LBB3_107
	.quad	.LBB3_107
	.quad	.LBB3_107
	.quad	.LBB3_107
	.quad	.LBB3_107
	.quad	.LBB3_107
	.quad	.LBB3_107
	.quad	.LBB3_107
	.quad	.LBB3_107
	.quad	.LBB3_107
	.quad	.LBB3_107
	.quad	.LBB3_107
	.quad	.LBB3_107
	.quad	.LBB3_107
	.quad	.LBB3_107
	.quad	.LBB3_107
	.quad	.LBB3_107
	.quad	.LBB3_107
	.quad	.LBB3_107
	.quad	.LBB3_107
	.quad	.LBB3_107
	.quad	.LBB3_106
	.quad	.LBB3_106
	.quad	.LBB3_106
	.quad	.LBB3_106
	.quad	.LBB3_106
	.quad	.LBB3_35
	.quad	.LBB3_35
	.quad	.LBB3_35
	.quad	.LBB3_107
	.quad	.LBB3_107
	.quad	.LBB3_106
	.quad	.LBB3_106
	.quad	.LBB3_106
	.quad	.LBB3_106
	.quad	.LBB3_106
	.quad	.LBB3_106
	.quad	.LBB3_106
	.quad	.LBB3_106
	.quad	.LBB3_106
	.quad	.LBB3_106
	.quad	.LBB3_106
	.quad	.LBB3_106
	.quad	.LBB3_12
	.quad	.LBB3_5
.LJTI3_1:
	.quad	.LBB3_107
	.quad	.LBB3_83
	.quad	.LBB3_107
	.quad	.LBB3_85
	.quad	.LBB3_106
	.quad	.LBB3_106
	.quad	.LBB3_106
	.quad	.LBB3_106
	.quad	.LBB3_106
	.quad	.LBB3_106

	.text
	.globl	get_attr_prefix_0f
	.align	16, 0x90
	.type	get_attr_prefix_0f,@function
get_attr_prefix_0f:                     # @get_attr_prefix_0f
	.cfi_startproc
# BB#0:                                 # %entry
	pushq	%r15
.Ltmp43:
	.cfi_def_cfa_offset 16
	pushq	%r14
.Ltmp44:
	.cfi_def_cfa_offset 24
	pushq	%rbx
.Ltmp45:
	.cfi_def_cfa_offset 32
.Ltmp46:
	.cfi_offset %rbx, -32
.Ltmp47:
	.cfi_offset %r14, -24
.Ltmp48:
	.cfi_offset %r15, -16
	movq	%rdi, %r14
	movslq	40(%r14), %rax
	testq	%rax, %rax
	jns	.LBB4_2
# BB#1:                                 # %cond.false
	movq	%r14, %rdi
	callq	recog_memoized_1
.LBB4_2:                                # %cond.end
	movq	$32, %rcx
	movq	%rax, %rdx
	shlq	%cl, %rdx
	movq	$32, %rcx
	sarq	%cl, %rdx
	cmpq	$32, %rdx
	jg	.LBB4_7
# BB#3:                                 # %cond.end
	movabsq	$4294967295, %rcx       # imm = 0xFFFFFFFF
	andq	%rcx, %rax
	cmpq	%rcx, %rax
	jne	.LBB4_45
# BB#4:                                 # %sw.bb343
	movq	32(%r14), %rdi
	movzbl	(%rdi), %eax
	cmpq	$40, %rax
	je	.LBB4_45
# BB#5:                                 # %land.lhs.true350
	callq	asm_noperands
	movq	$32, %rcx
	shlq	%cl, %rax
	movq	$32, %rcx
	sarq	%cl, %rax
	testq	%rax, %rax
	jns	.LBB4_45
# BB#6:                                 # %if.then356
	movabsq	$.L.str, %rax
	movabsq	$.L__FUNCTION__.get_attr_prefix_0f, %rcx
	movq	$20323, %rdx            # imm = 0x4F63
	movq	%r14, %rdi
	movq	%rax, %rsi
	callq	_fatal_insn_not_found
.LBB4_7:                                # %cond.end
	movq	$1, %rbx
	movq	$32, %rcx
	movq	%rax, %rdx
	shlq	%cl, %rdx
	movq	$32, %rcx
	sarq	%cl, %rdx
	cmpq	$613, %rdx              # imm = 0x265
	jg	.LBB4_77
# BB#8:                                 # %cond.end
	movq	$32, %rcx
	movq	%rax, %rdx
	shlq	%cl, %rdx
	movq	$32, %rcx
	sarq	%cl, %rdx
	cmpq	$558, %rdx              # imm = 0x22E
	jg	.LBB4_75
# BB#9:                                 # %cond.end
	movq	$32, %rcx
	movq	%rax, %rdx
	shlq	%cl, %rdx
	movq	$32, %rcx
	sarq	%cl, %rdx
	cmpq	$523, %rdx              # imm = 0x20B
	jg	.LBB4_69
# BB#10:                                # %cond.end
	movq	$32, %rcx
	movq	%rax, %rdx
	shlq	%cl, %rdx
	movq	$32, %rcx
	sarq	%cl, %rdx
	cmpq	$485, %rdx              # imm = 0x1E5
	jg	.LBB4_55
# BB#11:                                # %cond.end
	movq	$32, %rcx
	movq	%rax, %rdx
	shlq	%cl, %rdx
	movq	$32, %rcx
	sarq	%cl, %rdx
	cmpq	$424, %rdx              # imm = 0x1A8
	jg	.LBB4_52
# BB#12:                                # %cond.end
	movq	$32, %rcx
	movq	%rax, %rdx
	shlq	%cl, %rdx
	movq	$32, %rcx
	sarq	%cl, %rdx
	cmpq	$417, %rdx              # imm = 0x1A1
	jg	.LBB4_88
# BB#13:                                # %cond.end
	movq	$32, %rcx
	movq	%rax, %rdx
	shlq	%cl, %rdx
	movq	$32, %rcx
	sarq	%cl, %rdx
	cmpq	$406, %rdx              # imm = 0x196
	jg	.LBB4_51
# BB#14:                                # %cond.end
	movq	$32, %rcx
	movq	%rax, %rdx
	shlq	%cl, %rdx
	movq	$32, %rcx
	sarq	%cl, %rdx
	cmpq	$289, %rdx              # imm = 0x121
	jg	.LBB4_46
# BB#15:                                # %cond.end
	movq	$32, %rcx
	movq	%rax, %rdx
	shlq	%cl, %rdx
	movq	$32, %rcx
	sarq	%cl, %rdx
	cmpq	$248, %rdx
	jg	.LBB4_93
# BB#16:                                # %cond.end
	movq	$32, %rcx
	movq	%rax, %rdx
	shlq	%cl, %rdx
	movq	$32, %rcx
	sarq	%cl, %rdx
	cmpq	$44, %rdx
	jg	.LBB4_19
# BB#17:                                # %cond.end
	addq	$-33, %rax
	movabsq	$4294967295, %rcx       # imm = 0xFFFFFFFF
	andq	%rax, %rcx
	cmpq	$4, %rcx
	ja	.LBB4_45
# BB#18:                                # %cond.end
	movq	$1, %rbx
	jmpq	*.LJTI4_4(,%rcx,8)
.LBB4_77:                               # %cond.end
	addq	$-614, %rax             # imm = 0xFFFFFFFFFFFFFD9A
	movabsq	$4294967295, %rcx       # imm = 0xFFFFFFFF
	andq	%rax, %rcx
	cmpq	$219, %rcx
	ja	.LBB4_45
# BB#78:                                # %cond.end
	movq	$1, %rbx
	jmpq	*.LJTI4_0(,%rcx,8)
.LBB4_82:                               # %sw.bb13
	movq	%r14, %rdi
	callq	extract_constrain_insn_cached
	movl	which_alternative(%rip), %eax
	movabsq	$4294967294, %rcx       # imm = 0xFFFFFFFE
	andq	%rax, %rcx
	cmpq	$2, %rcx
	je	.LBB4_84
# BB#83:
	movabsq	$0, %rbx
	jmp	.LBB4_146
.LBB4_75:                               # %cond.end
	addq	$-559, %rax             # imm = 0xFFFFFFFFFFFFFDD1
	movabsq	$4294967295, %rcx       # imm = 0xFFFFFFFF
	andq	%rax, %rcx
	cmpq	$4, %rcx
	ja	.LBB4_45
# BB#76:                                # %cond.end
	movq	$1, %rbx
	jmpq	*.LJTI4_1(,%rcx,8)
.LBB4_137:                              # %sw.bb231
	movq	%r14, %rdi
	callq	extract_constrain_insn_cached
	movl	which_alternative(%rip), %eax
	testq	%rax, %rax
	je	.LBB4_138
# BB#139:                               # %sw.bb231
	movabsq	$1, %rbx
	jmp	.LBB4_146
.LBB4_69:                               # %cond.end
	addq	$-524, %rax             # imm = 0xFFFFFFFFFFFFFDF4
	movabsq	$4294967295, %rcx       # imm = 0xFFFFFFFF
	andq	%rax, %rcx
	cmpq	$16, %rcx
	ja	.LBB4_45
# BB#70:                                # %cond.end
	movq	$1, %rax
	movq	$1, %rdx
	shlq	%cl, %rdx
	testq	$67657, %rdx            # imm = 0x10849
	movq	$1, %rbx
	jne	.LBB4_146
# BB#71:                                # %cond.end
	shlq	%cl, %rax
	testq	$36, %rax
	je	.LBB4_72
# BB#85:                                # %sw.bb23
	movq	%r14, %rdi
	callq	extract_constrain_insn_cached
	movl	which_alternative(%rip), %eax
	cmpq	$1, %rax
	jne	.LBB4_86
# BB#87:                                # %sw.bb23
	movabsq	$1, %rbx
	jmp	.LBB4_146
.LBB4_55:                               # %cond.end
	leaq	-486(%rax), %rdx
	movabsq	$4294967295, %rcx       # imm = 0xFFFFFFFF
	andq	%rcx, %rdx
	cmpq	$4, %rdx
	jb	.LBB4_146
# BB#56:                                # %cond.end
	andq	%rcx, %rax
	cmpq	$490, %rax              # imm = 0x1EA
	je	.LBB4_58
# BB#57:                                # %cond.end
	cmpq	$491, %rax              # imm = 0x1EB
	jne	.LBB4_45
.LBB4_58:                               # %sw.bb241
	movq	%r14, %rdi
	callq	extract_insn_cached
	movq	insn_addresses_(%rip), %rax
	xorq	%rbx, %rbx
	testq	%rax, %rax
	je	.LBB4_62
# BB#59:                                # %cond.true243
	movq	recog_data(%rip), %rcx
	movzbl	(%rcx), %edx
	cmpq	$67, %rdx
	jne	.LBB4_61
# BB#60:                                # %cond.true245
	movq	8(%rcx), %rcx
.LBB4_61:                               # %cond.end249
	movslq	8(%rcx), %rcx
	movl	32(%rax,%rcx,4), %ebx
.LBB4_62:                               # %cond.end256
	movq	%r14, %rdi
	callq	insn_current_reference_address
	subq	%rax, %rbx
	movq	$32, %rcx
	shlq	%cl, %rbx
	movq	$32, %rcx
	sarq	%cl, %rbx
	cmpq	$-128, %rbx
	jl	.LBB4_68
# BB#63:                                # %land.lhs.true260
	movq	insn_addresses_(%rip), %rax
	xorq	%rbx, %rbx
	testq	%rax, %rax
	movabsq	$0, %r15
	je	.LBB4_67
# BB#64:                                # %cond.true262
	movq	recog_data(%rip), %rcx
	movzbl	(%rcx), %edx
	cmpq	$67, %rdx
	jne	.LBB4_66
# BB#65:                                # %cond.true266
	movq	8(%rcx), %rcx
.LBB4_66:                               # %cond.end271
	movslq	8(%rcx), %rcx
	movl	32(%rax,%rcx,4), %r15d
.LBB4_67:                               # %cond.end281
	movq	%r14, %rdi
	callq	insn_current_reference_address
	subq	%rax, %r15
	movq	$32, %rcx
	shlq	%cl, %r15
	movq	$32, %rcx
	sarq	%cl, %r15
	cmpq	$124, %r15
	jl	.LBB4_146
.LBB4_68:                               # %if.else287
	movq	$1, %rbx
	jmp	.LBB4_146
.LBB4_52:                               # %cond.end
	leaq	-426(%rax), %rdx
	movabsq	$4294967295, %rcx       # imm = 0xFFFFFFFF
	andq	%rcx, %rdx
	cmpq	$2, %rdx
	jb	.LBB4_89
# BB#53:                                # %cond.end
	andq	%rcx, %rax
	cmpq	$425, %rax              # imm = 0x1A9
	jmp	.LBB4_54
.LBB4_138:
	movabsq	$0, %rbx
	jmp	.LBB4_146
.LBB4_88:                               # %cond.end
	movabsq	$4294967295, %rcx       # imm = 0xFFFFFFFF
	andq	%rcx, %rax
	cmpq	$418, %rax              # imm = 0x1A2
	jne	.LBB4_45
.LBB4_89:                               # %sw.bb27
	movq	%r14, %rdi
	callq	extract_constrain_insn_cached
	xorq	%rbx, %rbx
	jmp	.LBB4_146
.LBB4_72:                               # %cond.end
	movq	$1, %rax
	shlq	%cl, %rax
	testq	$33792, %rax            # imm = 0x8400
	je	.LBB4_45
# BB#73:                                # %sw.bb19
	movq	%r14, %rdi
	callq	extract_constrain_insn_cached
	movl	which_alternative(%rip), %eax
	cmpq	$2, %rax
	jne	.LBB4_74
.LBB4_84:                               # %sw.bb19
	movabsq	$1, %rbx
	jmp	.LBB4_146
.LBB4_51:                               # %cond.end
	movabsq	$4294967295, %rcx       # imm = 0xFFFFFFFF
	andq	%rcx, %rax
	cmpq	$407, %rax              # imm = 0x197
.LBB4_54:                               # %cond.end
	movq	$1, %rbx
	jne	.LBB4_45
	jmp	.LBB4_146
.LBB4_86:
	movabsq	$0, %rbx
	jmp	.LBB4_146
.LBB4_74:
	movabsq	$0, %rbx
	jmp	.LBB4_146
.LBB4_46:                               # %cond.end
	movabsq	$4294967295, %rcx       # imm = 0xFFFFFFFF
	andq	%rcx, %rax
	cmpq	$290, %rax              # imm = 0x122
	je	.LBB4_90
# BB#47:                                # %cond.end
	cmpq	$292, %rax              # imm = 0x124
	je	.LBB4_49
# BB#48:                                # %cond.end
	cmpq	$296, %rax              # imm = 0x128
	jne	.LBB4_45
	jmp	.LBB4_49
.LBB4_93:                               # %cond.end
	addq	$-249, %rax
	movabsq	$4294967295, %rcx       # imm = 0xFFFFFFFF
	andq	%rax, %rcx
	cmpq	$4, %rcx
	jae	.LBB4_45
# BB#94:                                # %sw.bb39
	movq	%r14, %rdi
	callq	extract_constrain_insn_cached
	movl	which_alternative(%rip), %eax
	cmpq	$1, %rax
	jbe	.LBB4_95
# BB#96:                                # %sw.bb39
	movabsq	$1, %rbx
	jmp	.LBB4_146
.LBB4_79:                               # %sw.bb
	movq	%r14, %rdi
	callq	extract_constrain_insn_cached
	movl	which_alternative(%rip), %eax
	cmpq	$1, %rax
	jbe	.LBB4_80
# BB#81:                                # %sw.bb
	movabsq	$1, %rbx
	jmp	.LBB4_146
.LBB4_90:                               # %sw.bb31
	movq	%r14, %rdi
	callq	extract_constrain_insn_cached
	movl	which_alternative(%rip), %eax
	cmpq	$2, %rax
	jbe	.LBB4_91
# BB#92:                                # %sw.bb31
	movabsq	$1, %rbx
	jmp	.LBB4_146
.LBB4_19:                               # %cond.end
	movq	$32, %rcx
	movq	%rax, %rdx
	shlq	%cl, %rdx
	movq	$32, %rcx
	sarq	%cl, %rdx
	cmpq	$167, %rdx
	jg	.LBB4_41
# BB#20:                                # %cond.end
	movq	$32, %rcx
	movq	%rax, %rdx
	shlq	%cl, %rdx
	movq	$32, %rcx
	sarq	%cl, %rdx
	cmpq	$154, %rdx
	jg	.LBB4_39
# BB#21:                                # %cond.end
	movq	$32, %rcx
	movq	%rax, %rdx
	shlq	%cl, %rdx
	movq	$32, %rcx
	sarq	%cl, %rdx
	cmpq	$50, %rdx
	jg	.LBB4_24
# BB#22:                                # %cond.end
	movabsq	$4294967295, %rbx       # imm = 0xFFFFFFFF
	andq	%rbx, %rax
	cmpq	$45, %rax
	jne	.LBB4_45
# BB#23:                                # %sw.bb211
	movq	%r14, %rdi
	callq	extract_constrain_insn_cached
	movl	which_alternative(%rip), %eax
	addq	$-4, %rax
	andq	%rbx, %rax
	cmpq	$6, %rax
	sbbq	%rbx, %rbx
	jmp	.LBB4_145
.LBB4_95:
	movabsq	$0, %rbx
	jmp	.LBB4_146
.LBB4_80:
	movabsq	$0, %rbx
	jmp	.LBB4_146
.LBB4_91:
	movabsq	$0, %rbx
	jmp	.LBB4_146
.LBB4_41:                               # %cond.end
	addq	$-168, %rax
	movabsq	$4294967295, %rcx       # imm = 0xFFFFFFFF
	andq	%rax, %rcx
	cmpq	$10, %rcx
	ja	.LBB4_45
# BB#42:                                # %cond.end
	movq	$1, %rax
	movq	$1, %rdx
	shlq	%cl, %rdx
	testq	$585, %rdx              # imm = 0x249
	jne	.LBB4_49
# BB#43:                                # %cond.end
	shlq	%cl, %rax
	testq	$1170, %rax             # imm = 0x492
	jmp	.LBB4_44
.LBB4_39:                               # %cond.end
	addq	$-155, %rax
	movabsq	$4294967295, %rcx       # imm = 0xFFFFFFFF
	andq	%rax, %rcx
	cmpq	$6, %rcx
	ja	.LBB4_45
# BB#40:                                # %cond.end
	movq	$1, %rax
	shlq	%cl, %rax
	testq	$99, %rax
.LBB4_44:                               # %cond.end
	movq	$1, %rbx
	jne	.LBB4_146
	jmp	.LBB4_45
.LBB4_24:                               # %cond.end
	movq	$32, %rcx
	movq	%rax, %rdx
	shlq	%cl, %rdx
	movq	$32, %rcx
	sarq	%cl, %rdx
	cmpq	$59, %rdx
	jg	.LBB4_34
# BB#25:                                # %cond.end
	movabsq	$4294967295, %r15       # imm = 0xFFFFFFFF
	andq	%r15, %rax
	cmpq	$51, %rax
	jne	.LBB4_45
# BB#26:                                # %sw.bb176
	movq	%r14, %rdi
	callq	extract_constrain_insn_cached
	movl	which_alternative(%rip), %eax
	cmpq	$1, %rax
	ja	.LBB4_29
# BB#27:                                # %lor.lhs.false180
	movl	ix86_cpu(%rip), %ecx
	movl	x86_partial_reg_stall(%rip), %esi
	movq	$1, %rdx
	shlq	%cl, %rdx
	andq	%rdx, %rsi
	testq	%r15, %rsi
	je	.LBB4_45
# BB#28:                                # %land.lhs.true184
	movl	x86_himode_math(%rip), %ecx
	andq	%rdx, %rcx
	testq	%r15, %rcx
	je	.LBB4_45
.LBB4_29:                               # %land.lhs.true188
	addq	$-2, %rax
	andq	%r15, %rax
	cmpq	$2, %rax
	ja	.LBB4_31
# BB#30:                                # %lor.lhs.false194
	movq	recog_data+8(%rip), %rax
	movq	$3, %rsi
	movq	%rax, %rdi
	callq	aligned_operand
	testq	%r15, %rax
	jne	.LBB4_45
.LBB4_31:                               # %land.lhs.true197
	movl	ix86_cpu(%rip), %eax
	movl	x86_movx(%rip), %edx
	movq	$1, %rbx
	movq	$1, %rsi
	movq	%rax, %rcx
	shlq	%cl, %rsi
	andq	%rdx, %rsi
	testq	%r15, %rsi
	je	.LBB4_45
# BB#32:                                # %land.lhs.true201
	movl	which_alternative(%rip), %eax
	cmpq	$4, %rax
	ja	.LBB4_45
# BB#33:                                # %land.lhs.true201
	cmpq	$2, %rax
	jne	.LBB4_146
	jmp	.LBB4_45
.LBB4_34:                               # %cond.end
	movq	$32, %rcx
	movq	%rax, %rdx
	shlq	%cl, %rdx
	movq	$32, %rcx
	sarq	%cl, %rdx
	cmpq	$82, %rdx
	jg	.LBB4_37
# BB#35:                                # %cond.end
	addq	$-60, %rax
	movabsq	$4294967295, %r15       # imm = 0xFFFFFFFF
	andq	%r15, %rax
	cmpq	$12, %rax
	ja	.LBB4_45
# BB#36:                                # %cond.end
	movq	$1, %rbx
	jmpq	*.LJTI4_3(,%rax,8)
.LBB4_126:                              # %sw.bb149
	movq	%r14, %rdi
	callq	get_attr_type
	andq	%r15, %rax
	cmpq	$8, %rax
	jne	.LBB4_127
# BB#128:                               # %sw.bb149
	movabsq	$1, %rbx
	jmp	.LBB4_146
.LBB4_37:                               # %cond.end
	addq	$-83, %rax
	movabsq	$4294967295, %r15       # imm = 0xFFFFFFFF
	andq	%r15, %rax
	cmpq	$60, %rax
	ja	.LBB4_45
# BB#38:                                # %cond.end
	movq	$1, %rbx
	jmpq	*.LJTI4_2(,%rax,8)
.LBB4_100:                              # %sw.bb61
	movq	%r14, %rdi
	callq	extract_constrain_insn_cached
	movl	which_alternative(%rip), %eax
	testq	%rax, %rax
	jne	.LBB4_101
# BB#102:                               # %sw.bb61
	movabsq	$1, %rbx
	jmp	.LBB4_146
.LBB4_49:                               # %sw.bb55
	movq	%r14, %rdi
	callq	extract_constrain_insn_cached
	movl	which_alternative(%rip), %eax
	cmpq	$1, %rax
	ja	.LBB4_99
# BB#50:
	movabsq	$0, %rbx
	jmp	.LBB4_146
.LBB4_129:                              # %sw.bb154
	movq	%r14, %rdi
	callq	extract_constrain_insn_cached
	movl	which_alternative(%rip), %eax
	cmpq	$5, %rax
	movq	$1, %rbx
	je	.LBB4_146
# BB#130:                               # %sw.bb154
	cmpq	$3, %rax
	jne	.LBB4_135
# BB#131:                               # %lor.lhs.false156
	movl	ix86_cpu(%rip), %ecx
	movl	x86_partial_reg_stall(%rip), %esi
	movq	$1, %rdx
	shlq	%cl, %rdx
	andq	%rdx, %rsi
	testq	%r15, %rsi
	je	.LBB4_45
# BB#132:                               # %land.lhs.true160
	movl	x86_qimode_math(%rip), %ecx
	andq	%rdx, %rcx
	testq	%r15, %rcx
	je	.LBB4_45
# BB#133:                               # %land.lhs.true164
	movq	$1, %rbx
	cmpq	$3, %rax
	je	.LBB4_146
# BB#134:                               # %land.lhs.true164
	cmpq	$5, %rax
	je	.LBB4_146
.LBB4_135:                              # %lor.lhs.false168
	movl	ix86_cpu(%rip), %ecx
	movl	x86_movx(%rip), %edx
	movq	$1, %rbx
	movq	$1, %rsi
	shlq	%cl, %rsi
	andq	%rdx, %rsi
	testq	%r15, %rsi
	je	.LBB4_45
# BB#136:                               # %lor.lhs.false168
	cmpq	$2, %rax
	je	.LBB4_146
.LBB4_45:                               # %sw.default
	xorq	%rbx, %rbx
.LBB4_146:                              # %return
	movq	%rbx, %rax
.LBB4_147:                              # %return
	popq	%rbx
	popq	%r14
	popq	%r15
	retq
.LBB4_122:                              # %sw.bb143
	movq	%r14, %rdi
	callq	extract_constrain_insn_cached
	movq	recog_data(%rip), %rax
	movq	$2, %rsi
	movq	%rax, %rdi
	callq	q_regs_operand
	testq	%r15, %rax
	movq	$1, %rbx
	je	.LBB4_146
# BB#123:                               # %lor.lhs.false145
	movl	ix86_cpu(%rip), %eax
	movl	x86_movx(%rip), %edx
	movq	$1, %rsi
	movq	%rax, %rcx
	shlq	%cl, %rsi
	andq	%rdx, %rsi
	testq	%r15, %rsi
	je	.LBB4_124
# BB#125:                               # %lor.lhs.false145
	movabsq	$1, %rbx
	jmp	.LBB4_146
.LBB4_127:
	movabsq	$0, %rbx
	jmp	.LBB4_146
.LBB4_115:                              # %sw.bb123
	movq	%r14, %rdi
	callq	extract_constrain_insn_cached
	movl	which_alternative(%rip), %eax
	cmpq	$2, %rax
	jb	.LBB4_117
# BB#116:                               # %sw.bb123
	leaq	-4(%rax), %rcx
	andq	%r15, %rcx
	cmpq	$3, %rcx
	movq	$1, %rbx
	jb	.LBB4_146
.LBB4_117:                              # %lor.lhs.false133
	cmpq	$1, %rax
	movabsq	$0, %rcx
	movabsq	$1, %rsi
	movq	%rcx, %rdx
	jbe	.LBB4_119
# BB#118:                               # %lor.lhs.false133
	movq	%rsi, %rdx
.LBB4_119:                              # %lor.lhs.false133
	movabsq	$4294967294, %rdi       # imm = 0xFFFFFFFE
	andq	%rdi, %rax
	cmpq	$2, %rax
	jne	.LBB4_121
# BB#120:                               # %lor.lhs.false133
	movq	%rsi, %rcx
.LBB4_121:                              # %lor.lhs.false133
	andq	%rcx, %rdx
	movq	%rdx, %rax
	jmp	.LBB4_147
.LBB4_113:                              # %sw.bb109
	movq	%r14, %rdi
	callq	extract_constrain_insn_cached
	movl	which_alternative(%rip), %eax
	addq	$-5, %rax
	andq	%r15, %rax
	cmpq	$2, %rax
	movq	$1, %rbx
	jb	.LBB4_146
# BB#114:                               # %land.lhs.true113
	cmpq	$4, %rax
	sbbq	%rax, %rax
	andq	$1, %rax
	jmp	.LBB4_147
.LBB4_107:                              # %sw.bb81
	movq	%r14, %rdi
	callq	extract_constrain_insn_cached
	movl	which_alternative(%rip), %eax
	cmpq	$3, %rax
	jb	.LBB4_109
# BB#108:                               # %sw.bb81
	leaq	-5(%rax), %rcx
	andq	%r15, %rcx
	cmpq	$4, %rcx
	movq	$1, %rbx
	jb	.LBB4_146
.LBB4_109:                              # %lor.lhs.false95
	cmpq	$2, %rax
	jbe	.LBB4_110
# BB#111:                               # %lor.lhs.false95
	movabsq	$1, %rcx
	jmp	.LBB4_112
.LBB4_103:                              # %sw.bb65
	movq	%r14, %rdi
	callq	extract_constrain_insn_cached
	movl	which_alternative(%rip), %eax
	cmpq	$2, %rax
	jbe	.LBB4_104
# BB#105:                               # %sw.bb65
	movabsq	$1, %rcx
	jmp	.LBB4_106
.LBB4_140:                              # %sw.bb235
	movq	%r14, %rdi
	callq	extract_constrain_insn_cached
	movl	ix86_cpu(%rip), %eax
	cmpq	$4, %rax
	movabsq	$0, %rax
	movabsq	$1, %rcx
	movq	%rax, %rbx
	je	.LBB4_142
# BB#141:                               # %sw.bb235
	movq	%rcx, %rbx
.LBB4_142:                              # %sw.bb235
	movl	which_alternative(%rip), %edx
	testq	%rdx, %rdx
	jne	.LBB4_144
# BB#143:                               # %sw.bb235
	movq	%rcx, %rax
.LBB4_144:                              # %sw.bb235
	andq	%rax, %rbx
	notq	%rbx
.LBB4_145:                              # %return
	andq	$1, %rbx
	jmp	.LBB4_146
.LBB4_97:                               # %sw.bb45
	movq	%r14, %rdi
	callq	extract_constrain_insn_cached
	movl	which_alternative(%rip), %eax
	cmpq	$3, %rax
	jbe	.LBB4_98
.LBB4_99:                               # %sw.bb55
	movabsq	$1, %rbx
	jmp	.LBB4_146
.LBB4_101:
	movabsq	$0, %rbx
	jmp	.LBB4_146
.LBB4_124:
	movabsq	$0, %rbx
	jmp	.LBB4_146
.LBB4_110:
	movabsq	$0, %rcx
.LBB4_112:                              # %lor.lhs.false95
	addq	$-9, %rax
	andq	%r15, %rax
	cmpq	$3, %rax
	sbbq	%rbx, %rbx
	andq	%rcx, %rbx
	jmp	.LBB4_146
.LBB4_104:
	movabsq	$0, %rcx
.LBB4_106:                              # %sw.bb65
	addq	$-5, %rax
	andq	%r15, %rax
	cmpq	$4, %rax
	sbbq	%rax, %rax
	andq	%rcx, %rax
	jmp	.LBB4_147
.LBB4_98:
	movabsq	$0, %rbx
	jmp	.LBB4_146
.Ltmp49:
	.size	get_attr_prefix_0f, .Ltmp49-get_attr_prefix_0f
	.cfi_endproc
	.section	.rodata,"a",@progbits
	.align	8
.LJTI4_0:
	.quad	.LBB4_146
	.quad	.LBB4_45
	.quad	.LBB4_146
	.quad	.LBB4_146
	.quad	.LBB4_82
	.quad	.LBB4_45
	.quad	.LBB4_82
	.quad	.LBB4_45
	.quad	.LBB4_45
	.quad	.LBB4_45
	.quad	.LBB4_45
	.quad	.LBB4_146
	.quad	.LBB4_45
	.quad	.LBB4_45
	.quad	.LBB4_146
	.quad	.LBB4_45
	.quad	.LBB4_45
	.quad	.LBB4_146
	.quad	.LBB4_45
	.quad	.LBB4_45
	.quad	.LBB4_146
	.quad	.LBB4_45
	.quad	.LBB4_45
	.quad	.LBB4_45
	.quad	.LBB4_45
	.quad	.LBB4_45
	.quad	.LBB4_45
	.quad	.LBB4_45
	.quad	.LBB4_45
	.quad	.LBB4_45
	.quad	.LBB4_45
	.quad	.LBB4_45
	.quad	.LBB4_45
	.quad	.LBB4_45
	.quad	.LBB4_45
	.quad	.LBB4_45
	.quad	.LBB4_45
	.quad	.LBB4_45
	.quad	.LBB4_45
	.quad	.LBB4_45
	.quad	.LBB4_45
	.quad	.LBB4_45
	.quad	.LBB4_45
	.quad	.LBB4_45
	.quad	.LBB4_45
	.quad	.LBB4_146
	.quad	.LBB4_146
	.quad	.LBB4_146
	.quad	.LBB4_146
	.quad	.LBB4_146
	.quad	.LBB4_146
	.quad	.LBB4_146
	.quad	.LBB4_146
	.quad	.LBB4_146
	.quad	.LBB4_146
	.quad	.LBB4_146
	.quad	.LBB4_146
	.quad	.LBB4_146
	.quad	.LBB4_146
	.quad	.LBB4_79
	.quad	.LBB4_146
	.quad	.LBB4_146
	.quad	.LBB4_146
	.quad	.LBB4_146
	.quad	.LBB4_146
	.quad	.LBB4_146
	.quad	.LBB4_146
	.quad	.LBB4_146
	.quad	.LBB4_146
	.quad	.LBB4_146
	.quad	.LBB4_146
	.quad	.LBB4_146
	.quad	.LBB4_146
	.quad	.LBB4_146
	.quad	.LBB4_146
	.quad	.LBB4_146
	.quad	.LBB4_146
	.quad	.LBB4_146
	.quad	.LBB4_146
	.quad	.LBB4_146
	.quad	.LBB4_146
	.quad	.LBB4_146
	.quad	.LBB4_146
	.quad	.LBB4_146
	.quad	.LBB4_146
	.quad	.LBB4_146
	.quad	.LBB4_146
	.quad	.LBB4_146
	.quad	.LBB4_146
	.quad	.LBB4_146
	.quad	.LBB4_146
	.quad	.LBB4_146
	.quad	.LBB4_146
	.quad	.LBB4_146
	.quad	.LBB4_146
	.quad	.LBB4_146
	.quad	.LBB4_146
	.quad	.LBB4_146
	.quad	.LBB4_146
	.quad	.LBB4_146
	.quad	.LBB4_146
	.quad	.LBB4_146
	.quad	.LBB4_146
	.quad	.LBB4_146
	.quad	.LBB4_146
	.quad	.LBB4_146
	.quad	.LBB4_146
	.quad	.LBB4_146
	.quad	.LBB4_146
	.quad	.LBB4_146
	.quad	.LBB4_146
	.quad	.LBB4_146
	.quad	.LBB4_146
	.quad	.LBB4_146
	.quad	.LBB4_146
	.quad	.LBB4_146
	.quad	.LBB4_146
	.quad	.LBB4_146
	.quad	.LBB4_146
	.quad	.LBB4_146
	.quad	.LBB4_146
	.quad	.LBB4_146
	.quad	.LBB4_146
	.quad	.LBB4_146
	.quad	.LBB4_146
	.quad	.LBB4_146
	.quad	.LBB4_146
	.quad	.LBB4_146
	.quad	.LBB4_146
	.quad	.LBB4_146
	.quad	.LBB4_146
	.quad	.LBB4_146
	.quad	.LBB4_146
	.quad	.LBB4_146
	.quad	.LBB4_146
	.quad	.LBB4_146
	.quad	.LBB4_146
	.quad	.LBB4_146
	.quad	.LBB4_146
	.quad	.LBB4_146
	.quad	.LBB4_146
	.quad	.LBB4_146
	.quad	.LBB4_146
	.quad	.LBB4_146
	.quad	.LBB4_146
	.quad	.LBB4_146
	.quad	.LBB4_146
	.quad	.LBB4_146
	.quad	.LBB4_146
	.quad	.LBB4_146
	.quad	.LBB4_146
	.quad	.LBB4_146
	.quad	.LBB4_146
	.quad	.LBB4_146
	.quad	.LBB4_146
	.quad	.LBB4_146
	.quad	.LBB4_146
	.quad	.LBB4_146
	.quad	.LBB4_146
	.quad	.LBB4_146
	.quad	.LBB4_146
	.quad	.LBB4_146
	.quad	.LBB4_146
	.quad	.LBB4_146
	.quad	.LBB4_146
	.quad	.LBB4_146
	.quad	.LBB4_146
	.quad	.LBB4_146
	.quad	.LBB4_146
	.quad	.LBB4_146
	.quad	.LBB4_146
	.quad	.LBB4_146
	.quad	.LBB4_146
	.quad	.LBB4_146
	.quad	.LBB4_146
	.quad	.LBB4_146
	.quad	.LBB4_146
	.quad	.LBB4_146
	.quad	.LBB4_146
	.quad	.LBB4_146
	.quad	.LBB4_146
	.quad	.LBB4_146
	.quad	.LBB4_146
	.quad	.LBB4_146
	.quad	.LBB4_146
	.quad	.LBB4_146
	.quad	.LBB4_146
	.quad	.LBB4_146
	.quad	.LBB4_146
	.quad	.LBB4_146
	.quad	.LBB4_146
	.quad	.LBB4_45
	.quad	.LBB4_146
	.quad	.LBB4_146
	.quad	.LBB4_146
	.quad	.LBB4_146
	.quad	.LBB4_146
	.quad	.LBB4_146
	.quad	.LBB4_146
	.quad	.LBB4_146
	.quad	.LBB4_146
	.quad	.LBB4_146
	.quad	.LBB4_146
	.quad	.LBB4_146
	.quad	.LBB4_146
	.quad	.LBB4_146
	.quad	.LBB4_146
	.quad	.LBB4_146
	.quad	.LBB4_146
	.quad	.LBB4_146
	.quad	.LBB4_146
	.quad	.LBB4_146
	.quad	.LBB4_146
	.quad	.LBB4_146
	.quad	.LBB4_146
	.quad	.LBB4_146
	.quad	.LBB4_146
	.quad	.LBB4_146
	.quad	.LBB4_146
	.quad	.LBB4_146
.LJTI4_1:
	.quad	.LBB4_137
	.quad	.LBB4_146
	.quad	.LBB4_45
	.quad	.LBB4_137
	.quad	.LBB4_146
.LJTI4_2:
	.quad	.LBB4_115
	.quad	.LBB4_113
	.quad	.LBB4_45
	.quad	.LBB4_45
	.quad	.LBB4_45
	.quad	.LBB4_45
	.quad	.LBB4_45
	.quad	.LBB4_107
	.quad	.LBB4_45
	.quad	.LBB4_45
	.quad	.LBB4_45
	.quad	.LBB4_103
	.quad	.LBB4_103
	.quad	.LBB4_45
	.quad	.LBB4_45
	.quad	.LBB4_45
	.quad	.LBB4_45
	.quad	.LBB4_45
	.quad	.LBB4_45
	.quad	.LBB4_45
	.quad	.LBB4_45
	.quad	.LBB4_45
	.quad	.LBB4_45
	.quad	.LBB4_45
	.quad	.LBB4_45
	.quad	.LBB4_146
	.quad	.LBB4_45
	.quad	.LBB4_100
	.quad	.LBB4_146
	.quad	.LBB4_45
	.quad	.LBB4_100
	.quad	.LBB4_146
	.quad	.LBB4_45
	.quad	.LBB4_100
	.quad	.LBB4_146
	.quad	.LBB4_146
	.quad	.LBB4_45
	.quad	.LBB4_45
	.quad	.LBB4_146
	.quad	.LBB4_146
	.quad	.LBB4_140
	.quad	.LBB4_140
	.quad	.LBB4_140
	.quad	.LBB4_146
	.quad	.LBB4_146
	.quad	.LBB4_45
	.quad	.LBB4_45
	.quad	.LBB4_45
	.quad	.LBB4_45
	.quad	.LBB4_45
	.quad	.LBB4_49
	.quad	.LBB4_146
	.quad	.LBB4_45
	.quad	.LBB4_45
	.quad	.LBB4_45
	.quad	.LBB4_45
	.quad	.LBB4_45
	.quad	.LBB4_97
	.quad	.LBB4_100
	.quad	.LBB4_45
	.quad	.LBB4_146
.LJTI4_3:
	.quad	.LBB4_129
	.quad	.LBB4_45
	.quad	.LBB4_45
	.quad	.LBB4_45
	.quad	.LBB4_146
	.quad	.LBB4_146
	.quad	.LBB4_126
	.quad	.LBB4_126
	.quad	.LBB4_45
	.quad	.LBB4_45
	.quad	.LBB4_146
	.quad	.LBB4_126
	.quad	.LBB4_122
.LJTI4_4:
	.quad	.LBB4_137
	.quad	.LBB4_146
	.quad	.LBB4_45
	.quad	.LBB4_137
	.quad	.LBB4_146

	.text
	.globl	get_attr_i387
	.align	16, 0x90
	.type	get_attr_i387,@function
get_attr_i387:                          # @get_attr_i387
	.cfi_startproc
# BB#0:                                 # %entry
	pushq	%r15
.Ltmp54:
	.cfi_def_cfa_offset 16
	pushq	%r14
.Ltmp55:
	.cfi_def_cfa_offset 24
	pushq	%rbx
.Ltmp56:
	.cfi_def_cfa_offset 32
.Ltmp57:
	.cfi_offset %rbx, -32
.Ltmp58:
	.cfi_offset %r14, -24
.Ltmp59:
	.cfi_offset %r15, -16
	movq	%rdi, %r14
	movslq	40(%r14), %rax
	testq	%rax, %rax
	jns	.LBB5_2
# BB#1:                                 # %cond.false
	movq	%r14, %rdi
	callq	recog_memoized_1
.LBB5_2:                                # %cond.end
	movq	$1, %rbx
	movq	$32, %rcx
	movq	%rax, %rdx
	shlq	%cl, %rdx
	movq	$32, %rcx
	sarq	%cl, %rdx
	cmpq	$617, %rdx              # imm = 0x269
	jg	.LBB5_23
# BB#3:                                 # %cond.end
	movq	$32, %rcx
	movq	%rax, %rdx
	shlq	%cl, %rdx
	movq	$32, %rcx
	sarq	%cl, %rdx
	cmpq	$524, %rdx              # imm = 0x20C
	jg	.LBB5_21
# BB#4:                                 # %cond.end
	movq	$32, %rcx
	movq	%rax, %rdx
	shlq	%cl, %rdx
	movq	$32, %rcx
	sarq	%cl, %rdx
	cmpq	$364, %rdx              # imm = 0x16C
	jg	.LBB5_18
# BB#5:                                 # %cond.end
	movq	$32, %rcx
	movq	%rax, %rdx
	shlq	%cl, %rdx
	movq	$32, %rcx
	sarq	%cl, %rdx
	cmpq	$18, %rdx
	jg	.LBB5_10
# BB#6:                                 # %cond.end
	movabsq	$4294967295, %rcx       # imm = 0xFFFFFFFF
	andq	%rcx, %rax
	cmpq	%rcx, %rax
	jne	.LBB5_20
# BB#7:                                 # %sw.bb91
	movq	32(%r14), %rdi
	movzbl	(%rdi), %eax
	cmpq	$40, %rax
	je	.LBB5_20
# BB#8:                                 # %land.lhs.true95
	callq	asm_noperands
	movq	$32, %rcx
	shlq	%cl, %rax
	movq	$32, %rcx
	sarq	%cl, %rax
	testq	%rax, %rax
	jns	.LBB5_20
# BB#9:                                 # %if.then101
	movabsq	$.L.str, %rax
	movabsq	$.L__FUNCTION__.get_attr_i387, %rcx
	movq	$13438, %rdx            # imm = 0x347E
	movq	%r14, %rdi
	movq	%rax, %rsi
	callq	_fatal_insn_not_found
.LBB5_23:                               # %cond.end
	leaq	-618(%rax), %rdx
	movabsq	$4294967295, %rcx       # imm = 0xFFFFFFFF
	andq	%rcx, %rdx
	cmpq	$3, %rdx
	jb	.LBB5_55
# BB#24:                                # %cond.end
	addq	$-621, %rax             # imm = 0xFFFFFFFFFFFFFD93
	andq	%rcx, %rax
	cmpq	$2, %rax
	jb	.LBB5_59
	jmp	.LBB5_20
.LBB5_21:                               # %cond.end
	addq	$-525, %rax             # imm = 0xFFFFFFFFFFFFFDF3
	movabsq	$4294967295, %r15       # imm = 0xFFFFFFFF
	andq	%r15, %rax
	cmpq	$56, %rax
	ja	.LBB5_20
# BB#22:                                # %cond.end
	jmpq	*.LJTI5_0(,%rax,8)
.LBB5_31:                               # %sw.bb10
	movq	%r14, %rdi
	callq	extract_insn_cached
	movq	%r14, %rdi
	callq	get_attr_type
	andq	%r15, %rax
	cmpq	$22, %rax
	je	.LBB5_59
# BB#32:                                # %lor.lhs.false13
	movq	recog_data+24(%rip), %rdi
	movq	$17, %rsi
	callq	mult_operator
	testq	%r15, %rax
	jne	.LBB5_59
# BB#33:                                # %lor.lhs.false16
	movq	%r14, %rdi
	callq	get_attr_type
	andq	%r15, %rax
	cmpq	$26, %rax
	je	.LBB5_58
# BB#34:
	movabsq	$0, %rbx
	movq	%rbx, %rax
	jmp	.LBB5_30
.LBB5_18:                               # %cond.end
	addq	$-365, %rax             # imm = 0xFFFFFFFFFFFFFE93
	movabsq	$4294967295, %rcx       # imm = 0xFFFFFFFF
	andq	%rax, %rcx
	cmpq	$27, %rcx
	ja	.LBB5_20
# BB#19:                                # %cond.end
	movq	$1, %rax
	shlq	%cl, %rax
	testq	$267911679, %rax        # imm = 0xFF801FF
	jne	.LBB5_59
	jmp	.LBB5_20
.LBB5_10:                               # %cond.end
	movq	$32, %rcx
	movq	%rax, %rdx
	shlq	%cl, %rdx
	movq	$32, %rcx
	sarq	%cl, %rdx
	cmpq	$89, %rdx
	jg	.LBB5_16
# BB#11:                                # %cond.end
	movabsq	$4294967295, %rcx       # imm = 0xFFFFFFFF
	andq	%rcx, %rax
	cmpq	$36, %rax
	ja	.LBB5_20
# BB#12:                                # %cond.end
	movq	$1, %rdx
	movq	$1, %rsi
	movq	%rax, %rcx
	shlq	%cl, %rsi
	movabsq	$39891501056, %rcx      # imm = 0x949B80000
	testq	%rcx, %rsi
	jne	.LBB5_59
# BB#13:                                # %cond.end
	movq	%rax, %rcx
	shlq	%cl, %rdx
	movabsq	$77309411328, %rax      # imm = 0x1200000000
	testq	%rax, %rdx
	jne	.LBB5_14
	jmp	.LBB5_20
.LBB5_16:                               # %cond.end
	addq	$-90, %rax
	movabsq	$4294967295, %rcx       # imm = 0xFFFFFFFF
	andq	%rax, %rcx
	cmpq	$94, %rcx
	ja	.LBB5_20
# BB#17:                                # %cond.end
	jmpq	*.LJTI5_1(,%rcx,8)
.LBB5_14:                               # %sw.bb86
	movq	%r14, %rdi
	callq	extract_constrain_insn_cached
	movl	which_alternative(%rip), %eax
	testq	%rax, %rax
	je	.LBB5_58
# BB#15:
	movabsq	$0, %rbx
	movq	%rbx, %rax
	jmp	.LBB5_30
.LBB5_20:                               # %sw.default
	xorq	%rbx, %rbx
	movq	%rbx, %rax
	jmp	.LBB5_30
.LBB5_55:                               # %sw.bb72
	movq	%r14, %rdi
	callq	extract_constrain_insn_cached
	movl	which_alternative(%rip), %eax
	cmpq	$2, %rax
.LBB5_56:                               # %return
	sbbq	%rbx, %rbx
	andq	$1, %rbx
	movq	%rbx, %rax
	jmp	.LBB5_30
.LBB5_25:                               # %sw.bb
	movq	%r14, %rdi
	callq	extract_insn_cached
	movq	%r14, %rdi
	callq	get_attr_type
	andq	%r15, %rax
	cmpq	$22, %rax
	je	.LBB5_59
# BB#26:                                # %lor.lhs.false
	movq	recog_data+24(%rip), %rdi
	movq	$18, %rsi
	callq	mult_operator
	testq	%r15, %rax
	jne	.LBB5_59
# BB#27:                                # %lor.lhs.false7
	movq	%r14, %rdi
	callq	get_attr_type
	andq	%r15, %rax
	cmpq	$26, %rax
	jne	.LBB5_28
# BB#29:                                # %lor.lhs.false7
	movabsq	$1, %rax
	jmp	.LBB5_30
.LBB5_40:                               # %sw.bb33
	movq	%r14, %rdi
	callq	extract_insn_cached
	movq	%r14, %rdi
	callq	get_attr_type
	andq	%r15, %rax
	cmpq	$22, %rax
	je	.LBB5_59
# BB#41:                                # %lor.lhs.false36
	movq	recog_data+24(%rip), %rdi
	movq	$16, %rsi
	callq	mult_operator
	testq	%r15, %rax
	jne	.LBB5_59
# BB#42:                                # %lor.lhs.false39
	movq	%r14, %rdi
	callq	get_attr_type
	andq	%r15, %rax
	cmpq	$26, %rax
	je	.LBB5_58
# BB#43:
	movabsq	$0, %rbx
	movq	%rbx, %rax
	jmp	.LBB5_30
.LBB5_49:                               # %sw.bb57
	movq	%r14, %rdi
	callq	extract_insn_cached
	movq	%r14, %rdi
	callq	get_attr_type
	andq	%r15, %rax
	cmpq	$22, %rax
	je	.LBB5_59
# BB#50:                                # %lor.lhs.false60
	movq	recog_data+24(%rip), %rdi
	movq	$15, %rsi
	callq	mult_operator
	testq	%r15, %rax
	jne	.LBB5_59
# BB#51:                                # %lor.lhs.false63
	movq	%r14, %rdi
	callq	get_attr_type
	andq	%r15, %rax
	cmpq	$26, %rax
	je	.LBB5_58
# BB#52:
	movabsq	$0, %rbx
	movq	%rbx, %rax
	jmp	.LBB5_30
.LBB5_44:                               # %sw.bb44
	movq	%r14, %rdi
	callq	extract_constrain_insn_cached
	movq	%r14, %rdi
	callq	get_attr_type
	andq	%r15, %rax
	cmpq	$22, %rax
	je	.LBB5_59
# BB#45:                                # %lor.lhs.false47
	movl	which_alternative(%rip), %eax
	cmpq	$2, %rax
	je	.LBB5_47
# BB#46:                                # %land.lhs.true49
	movq	recog_data+24(%rip), %rdi
	movq	$15, %rsi
	callq	mult_operator
	testq	%r15, %rax
	jne	.LBB5_59
.LBB5_47:                               # %lor.lhs.false52
	movq	%r14, %rdi
	callq	get_attr_type
	andq	%r15, %rax
	cmpq	$26, %rax
	je	.LBB5_58
# BB#48:
	movabsq	$0, %rbx
	movq	%rbx, %rax
	jmp	.LBB5_30
.LBB5_35:                               # %sw.bb21
	movq	%r14, %rdi
	callq	extract_constrain_insn_cached
	movq	%r14, %rdi
	callq	get_attr_type
	andq	%r15, %rax
	cmpq	$22, %rax
	je	.LBB5_59
# BB#36:                                # %lor.lhs.false24
	movl	which_alternative(%rip), %eax
	cmpq	$2, %rax
	je	.LBB5_38
# BB#37:                                # %land.lhs.true
	movq	recog_data+24(%rip), %rdi
	movq	$16, %rsi
	callq	mult_operator
	testq	%r15, %rax
	jne	.LBB5_59
.LBB5_38:                               # %lor.lhs.false28
	movq	%r14, %rdi
	callq	get_attr_type
	andq	%r15, %rax
	cmpq	$26, %rax
	je	.LBB5_58
# BB#39:
	movabsq	$0, %rbx
	movq	%rbx, %rax
	jmp	.LBB5_30
.LBB5_57:                               # %sw.bb78
	movq	%r14, %rdi
	callq	extract_constrain_insn_cached
	movl	which_alternative(%rip), %eax
	cmpq	$3, %rax
	jmp	.LBB5_56
.LBB5_28:
	movabsq	$0, %rax
	jmp	.LBB5_30
.LBB5_53:                               # %sw.bb68
	movq	%r14, %rdi
	callq	extract_constrain_insn_cached
	movl	which_alternative(%rip), %eax
	testq	%rax, %rax
	je	.LBB5_54
.LBB5_58:                               # %sw.bb86
	movabsq	$1, %rbx
.LBB5_59:                               # %return
	movq	%rbx, %rax
.LBB5_30:                               # %lor.lhs.false7
	popq	%rbx
	popq	%r14
	popq	%r15
	retq
.LBB5_54:
	movabsq	$0, %rbx
	movq	%rbx, %rax
	jmp	.LBB5_30
.Ltmp60:
	.size	get_attr_i387, .Ltmp60-get_attr_i387
	.cfi_endproc
	.section	.rodata,"a",@progbits
	.align	8
.LJTI5_0:
	.quad	.LBB5_59
	.quad	.LBB5_14
	.quad	.LBB5_20
	.quad	.LBB5_59
	.quad	.LBB5_14
	.quad	.LBB5_20
	.quad	.LBB5_59
	.quad	.LBB5_59
	.quad	.LBB5_49
	.quad	.LBB5_44
	.quad	.LBB5_20
	.quad	.LBB5_49
	.quad	.LBB5_49
	.quad	.LBB5_40
	.quad	.LBB5_35
	.quad	.LBB5_20
	.quad	.LBB5_40
	.quad	.LBB5_40
	.quad	.LBB5_40
	.quad	.LBB5_40
	.quad	.LBB5_31
	.quad	.LBB5_25
	.quad	.LBB5_31
	.quad	.LBB5_25
	.quad	.LBB5_31
	.quad	.LBB5_25
	.quad	.LBB5_31
	.quad	.LBB5_25
	.quad	.LBB5_31
	.quad	.LBB5_25
	.quad	.LBB5_31
	.quad	.LBB5_25
	.quad	.LBB5_31
	.quad	.LBB5_25
	.quad	.LBB5_14
	.quad	.LBB5_20
	.quad	.LBB5_59
	.quad	.LBB5_14
	.quad	.LBB5_20
	.quad	.LBB5_59
	.quad	.LBB5_59
	.quad	.LBB5_59
	.quad	.LBB5_59
	.quad	.LBB5_59
	.quad	.LBB5_59
	.quad	.LBB5_59
	.quad	.LBB5_59
	.quad	.LBB5_59
	.quad	.LBB5_59
	.quad	.LBB5_59
	.quad	.LBB5_59
	.quad	.LBB5_59
	.quad	.LBB5_59
	.quad	.LBB5_59
	.quad	.LBB5_59
	.quad	.LBB5_59
	.quad	.LBB5_59
.LJTI5_1:
	.quad	.LBB5_57
	.quad	.LBB5_59
	.quad	.LBB5_20
	.quad	.LBB5_20
	.quad	.LBB5_57
	.quad	.LBB5_57
	.quad	.LBB5_59
	.quad	.LBB5_20
	.quad	.LBB5_20
	.quad	.LBB5_20
	.quad	.LBB5_20
	.quad	.LBB5_57
	.quad	.LBB5_57
	.quad	.LBB5_57
	.quad	.LBB5_57
	.quad	.LBB5_59
	.quad	.LBB5_59
	.quad	.LBB5_20
	.quad	.LBB5_20
	.quad	.LBB5_20
	.quad	.LBB5_20
	.quad	.LBB5_20
	.quad	.LBB5_20
	.quad	.LBB5_20
	.quad	.LBB5_20
	.quad	.LBB5_20
	.quad	.LBB5_20
	.quad	.LBB5_20
	.quad	.LBB5_20
	.quad	.LBB5_20
	.quad	.LBB5_20
	.quad	.LBB5_20
	.quad	.LBB5_20
	.quad	.LBB5_20
	.quad	.LBB5_20
	.quad	.LBB5_20
	.quad	.LBB5_20
	.quad	.LBB5_20
	.quad	.LBB5_20
	.quad	.LBB5_20
	.quad	.LBB5_20
	.quad	.LBB5_20
	.quad	.LBB5_20
	.quad	.LBB5_55
	.quad	.LBB5_20
	.quad	.LBB5_59
	.quad	.LBB5_59
	.quad	.LBB5_59
	.quad	.LBB5_59
	.quad	.LBB5_14
	.quad	.LBB5_14
	.quad	.LBB5_53
	.quad	.LBB5_59
	.quad	.LBB5_20
	.quad	.LBB5_14
	.quad	.LBB5_59
	.quad	.LBB5_14
	.quad	.LBB5_59
	.quad	.LBB5_14
	.quad	.LBB5_59
	.quad	.LBB5_14
	.quad	.LBB5_59
	.quad	.LBB5_59
	.quad	.LBB5_59
	.quad	.LBB5_59
	.quad	.LBB5_20
	.quad	.LBB5_20
	.quad	.LBB5_59
	.quad	.LBB5_59
	.quad	.LBB5_59
	.quad	.LBB5_20
	.quad	.LBB5_20
	.quad	.LBB5_59
	.quad	.LBB5_59
	.quad	.LBB5_59
	.quad	.LBB5_59
	.quad	.LBB5_59
	.quad	.LBB5_14
	.quad	.LBB5_14
	.quad	.LBB5_20
	.quad	.LBB5_14
	.quad	.LBB5_14
	.quad	.LBB5_20
	.quad	.LBB5_14
	.quad	.LBB5_14
	.quad	.LBB5_20
	.quad	.LBB5_14
	.quad	.LBB5_14
	.quad	.LBB5_20
	.quad	.LBB5_14
	.quad	.LBB5_14
	.quad	.LBB5_14
	.quad	.LBB5_14
	.quad	.LBB5_14
	.quad	.LBB5_14

	.text
	.globl	get_attr_prefix_rep
	.align	16, 0x90
	.type	get_attr_prefix_rep,@function
get_attr_prefix_rep:                    # @get_attr_prefix_rep
	.cfi_startproc
# BB#0:                                 # %entry
	pushq	%rbx
.Ltmp63:
	.cfi_def_cfa_offset 16
.Ltmp64:
	.cfi_offset %rbx, -16
	movq	%rdi, %rbx
	movslq	40(%rbx), %rax
	testq	%rax, %rax
	jns	.LBB6_2
# BB#1:                                 # %cond.false
	movq	%rbx, %rdi
	callq	recog_memoized_1
.LBB6_2:                                # %cond.end
	movq	$1, %rcx
	leaq	-602(%rax), %rsi
	movabsq	$4294967295, %rdx       # imm = 0xFFFFFFFF
	andq	%rdx, %rsi
	cmpq	$11, %rsi
	jb	.LBB6_8
# BB#3:                                 # %cond.end
	leaq	-590(%rax), %rsi
	andq	%rdx, %rsi
	cmpq	$5, %rsi
	jae	.LBB6_4
.LBB6_8:                                # %return
	movq	%rcx, %rax
	popq	%rbx
	retq
.LBB6_4:                                # %cond.end
	andq	%rdx, %rax
	cmpq	%rdx, %rax
	jne	.LBB6_7
# BB#5:                                 # %sw.bb4
	movq	32(%rbx), %rdi
	movzbl	(%rdi), %eax
	cmpq	$40, %rax
	je	.LBB6_7
# BB#6:                                 # %land.lhs.true
	callq	asm_noperands
	movq	$32, %rcx
	shlq	%cl, %rax
	movq	$32, %rcx
	sarq	%cl, %rax
	testq	%rax, %rax
	js	.LBB6_9
.LBB6_7:                                # %sw.default
	xorq	%rcx, %rcx
	jmp	.LBB6_8
.LBB6_9:                                # %if.then
	movabsq	$.L.str, %rax
	movabsq	$.L__FUNCTION__.get_attr_prefix_rep, %rcx
	movq	$20358, %rdx            # imm = 0x4F86
	movq	%rbx, %rdi
	movq	%rax, %rsi
	callq	_fatal_insn_not_found
.Ltmp65:
	.size	get_attr_prefix_rep, .Ltmp65-get_attr_prefix_rep
	.cfi_endproc

	.globl	get_attr_prefix_data16
	.align	16, 0x90
	.type	get_attr_prefix_data16,@function
get_attr_prefix_data16:                 # @get_attr_prefix_data16
	.cfi_startproc
# BB#0:                                 # %entry
	pushq	%r14
.Ltmp69:
	.cfi_def_cfa_offset 16
	pushq	%rbx
.Ltmp70:
	.cfi_def_cfa_offset 24
	pushq	%rax
.Ltmp71:
	.cfi_def_cfa_offset 32
.Ltmp72:
	.cfi_offset %rbx, -24
.Ltmp73:
	.cfi_offset %r14, -16
	movq	%rdi, %rbx
	movslq	40(%rbx), %rdx
	testq	%rdx, %rdx
	jns	.LBB7_2
# BB#1:                                 # %cond.false
	movq	%rbx, %rdi
	callq	recog_memoized_1
	movq	%rax, %rdx
.LBB7_2:                                # %cond.end
	movq	$1, %rax
	movq	$32, %rcx
	movq	%rdx, %rsi
	shlq	%cl, %rsi
	movq	$32, %rcx
	sarq	%cl, %rsi
	cmpq	$616, %rsi              # imm = 0x268
	jg	.LBB7_58
# BB#3:                                 # %cond.end
	movq	$32, %rcx
	movq	%rdx, %rsi
	shlq	%cl, %rsi
	movq	$32, %rcx
	sarq	%cl, %rsi
	cmpq	$5, %rsi
	jg	.LBB7_8
# BB#4:                                 # %cond.end
	movabsq	$4294967295, %rax       # imm = 0xFFFFFFFF
	andq	%rax, %rdx
	cmpq	%rax, %rdx
	jne	.LBB7_61
# BB#5:                                 # %sw.bb16
	movq	32(%rbx), %rdi
	movzbl	(%rdi), %eax
	cmpq	$40, %rax
	je	.LBB7_61
# BB#6:                                 # %land.lhs.true
	callq	asm_noperands
	movq	$32, %rcx
	shlq	%cl, %rax
	movq	$32, %rcx
	sarq	%cl, %rax
	testq	%rax, %rax
	jns	.LBB7_61
# BB#7:                                 # %if.then25
	movabsq	$.L.str, %rax
	movabsq	$.L__FUNCTION__.get_attr_prefix_data16, %rcx
	movq	$20460, %rdx            # imm = 0x4FEC
	movq	%rbx, %rdi
	movq	%rax, %rsi
	callq	_fatal_insn_not_found
.LBB7_58:                               # %cond.end
	movabsq	$4294967295, %rcx       # imm = 0xFFFFFFFF
	andq	%rcx, %rdx
	cmpq	$617, %rdx              # imm = 0x269
	jne	.LBB7_61
	jmp	.LBB7_62
.LBB7_8:                                # %cond.end
	movq	$32, %rcx
	movq	%rdx, %rsi
	shlq	%cl, %rsi
	movq	$32, %rcx
	sarq	%cl, %rsi
	cmpq	$48, %rsi
	jg	.LBB7_11
# BB#9:                                 # %cond.end
	addq	$-6, %rdx
.LBB7_10:                               # %cond.end
	movabsq	$4294967295, %rcx       # imm = 0xFFFFFFFF
	andq	%rdx, %rcx
	cmpq	$3, %rcx
	jb	.LBB7_62
	jmp	.LBB7_61
.LBB7_11:                               # %cond.end
	movq	$32, %rcx
	movq	%rdx, %rsi
	shlq	%cl, %rsi
	movq	$32, %rcx
	sarq	%cl, %rsi
	cmpq	$108, %rsi
	jg	.LBB7_17
# BB#12:                                # %cond.end
	movabsq	$4294967295, %r14       # imm = 0xFFFFFFFF
	andq	%r14, %rdx
	cmpq	$58, %rdx
	ja	.LBB7_61
# BB#13:                                # %cond.end
	movq	$1, %rsi
	movq	%rdx, %rcx
	shlq	%cl, %rsi
	movabsq	$536491305610510336, %rcx # imm = 0x772000000000000
	testq	%rcx, %rsi
	jne	.LBB7_62
# BB#14:                                # %cond.end
	cmpq	$51, %rdx
	jne	.LBB7_61
# BB#15:                                # %sw.bb11
	movq	%rbx, %rdi
	callq	get_attr_mode
	andq	%r14, %rax
	cmpq	$3, %rax
	je	.LBB7_59
# BB#16:
	movabsq	$0, %rax
	jmp	.LBB7_62
.LBB7_17:                               # %cond.end
	movq	$32, %rcx
	movq	%rdx, %rsi
	shlq	%cl, %rsi
	movq	$32, %rcx
	sarq	%cl, %rsi
	cmpq	$597, %rsi              # imm = 0x255
	jg	.LBB7_57
# BB#18:                                # %cond.end
	movq	$32, %rcx
	movq	%rdx, %rsi
	shlq	%cl, %rsi
	movq	$32, %rcx
	sarq	%cl, %rsi
	cmpq	$585, %rsi              # imm = 0x249
	jg	.LBB7_56
# BB#19:                                # %cond.end
	movq	$32, %rcx
	movq	%rdx, %rsi
	shlq	%cl, %rsi
	movq	$32, %rcx
	sarq	%cl, %rsi
	cmpq	$482, %rsi              # imm = 0x1E2
	jg	.LBB7_55
# BB#20:                                # %cond.end
	movq	$32, %rcx
	movq	%rdx, %rsi
	shlq	%cl, %rsi
	movq	$32, %rcx
	sarq	%cl, %rsi
	cmpq	$472, %rsi              # imm = 0x1D8
	jg	.LBB7_60
# BB#21:                                # %cond.end
	movq	$32, %rcx
	movq	%rdx, %rsi
	shlq	%cl, %rsi
	movq	$32, %rcx
	sarq	%cl, %rsi
	cmpq	$124, %rsi
	jg	.LBB7_23
# BB#22:                                # %cond.end
	addq	$-109, %rdx
	jmp	.LBB7_10
.LBB7_57:                               # %cond.end
	addq	$-598, %rdx             # imm = 0xFFFFFFFFFFFFFDAA
	jmp	.LBB7_27
.LBB7_56:                               # %cond.end
	addq	$-586, %rdx             # imm = 0xFFFFFFFFFFFFFDB6
.LBB7_27:                               # %cond.end
	movabsq	$4294967295, %rcx       # imm = 0xFFFFFFFF
	andq	%rdx, %rcx
	cmpq	$2, %rcx
	jb	.LBB7_62
	jmp	.LBB7_61
.LBB7_55:                               # %cond.end
	movabsq	$4294967295, %rcx       # imm = 0xFFFFFFFF
	andq	%rcx, %rdx
	cmpq	$483, %rdx              # imm = 0x1E3
	jne	.LBB7_61
	jmp	.LBB7_62
.LBB7_60:                               # %cond.end
	movabsq	$4294967295, %rcx       # imm = 0xFFFFFFFF
	andq	%rcx, %rdx
	cmpq	$473, %rdx              # imm = 0x1D9
	je	.LBB7_62
	jmp	.LBB7_61
.LBB7_23:                               # %cond.end
	movq	$32, %rcx
	movq	%rdx, %rsi
	shlq	%cl, %rsi
	movq	$32, %rcx
	sarq	%cl, %rsi
	cmpq	$164, %rsi
	jg	.LBB7_25
# BB#24:                                # %cond.end
	movabsq	$4294967295, %rcx       # imm = 0xFFFFFFFF
	andq	%rcx, %rdx
	cmpq	$125, %rdx
	jne	.LBB7_61
	jmp	.LBB7_62
.LBB7_25:                               # %cond.end
	movq	$32, %rcx
	movq	%rdx, %rsi
	shlq	%cl, %rsi
	movq	$32, %rcx
	sarq	%cl, %rsi
	cmpq	$214, %rsi
	jg	.LBB7_28
# BB#26:                                # %cond.end
	addq	$-165, %rdx
	jmp	.LBB7_27
.LBB7_28:                               # %cond.end
	movq	$32, %rcx
	movq	%rdx, %rsi
	shlq	%cl, %rsi
	movq	$32, %rcx
	sarq	%cl, %rsi
	cmpq	$242, %rsi
	jg	.LBB7_32
# BB#29:                                # %cond.end
	leaq	-216(%rdx), %rsi
	movabsq	$4294967295, %rcx       # imm = 0xFFFFFFFF
	andq	%rcx, %rsi
	cmpq	$3, %rsi
	jb	.LBB7_62
# BB#30:                                # %cond.end
	andq	%rcx, %rdx
	cmpq	$215, %rdx
	je	.LBB7_44
# BB#31:                                # %cond.end
	cmpq	$220, %rdx
	jne	.LBB7_61
	jmp	.LBB7_62
.LBB7_32:                               # %cond.end
	movq	$32, %rcx
	movq	%rdx, %rsi
	shlq	%cl, %rsi
	movq	$32, %rcx
	sarq	%cl, %rsi
	cmpq	$251, %rsi
	jg	.LBB7_34
# BB#33:                                # %cond.end
	addq	$-243, %rdx
	jmp	.LBB7_10
.LBB7_34:                               # %cond.end
	movq	$32, %rcx
	movq	%rdx, %rsi
	shlq	%cl, %rsi
	movq	$32, %rcx
	sarq	%cl, %rsi
	cmpq	$278, %rsi              # imm = 0x116
	jg	.LBB7_36
# BB#35:                                # %cond.end
	movabsq	$4294967295, %rcx       # imm = 0xFFFFFFFF
	andq	%rcx, %rdx
	cmpq	$252, %rdx
	jne	.LBB7_61
	jmp	.LBB7_62
.LBB7_36:                               # %cond.end
	movq	$32, %rcx
	movq	%rdx, %rsi
	shlq	%cl, %rsi
	movq	$32, %rcx
	sarq	%cl, %rsi
	cmpq	$458, %rsi              # imm = 0x1CA
	jg	.LBB7_53
# BB#37:                                # %cond.end
	movq	$32, %rcx
	movq	%rdx, %rsi
	shlq	%cl, %rsi
	movq	$32, %rcx
	sarq	%cl, %rsi
	cmpq	$436, %rsi              # imm = 0x1B4
	jg	.LBB7_51
# BB#38:                                # %cond.end
	movq	$32, %rcx
	movq	%rdx, %rsi
	shlq	%cl, %rsi
	movq	$32, %rcx
	sarq	%cl, %rsi
	cmpq	$411, %rsi              # imm = 0x19B
	jg	.LBB7_47
# BB#39:                                # %cond.end
	movq	$32, %rcx
	movq	%rdx, %rsi
	shlq	%cl, %rsi
	movq	$32, %rcx
	sarq	%cl, %rsi
	cmpq	$398, %rsi              # imm = 0x18E
	jg	.LBB7_46
# BB#40:                                # %cond.end
	movq	$32, %rcx
	movq	%rdx, %rsi
	shlq	%cl, %rsi
	movq	$32, %rcx
	sarq	%cl, %rsi
	cmpq	$350, %rsi              # imm = 0x15E
	jg	.LBB7_45
# BB#41:                                # %cond.end
	addq	$-279, %rdx             # imm = 0xFFFFFFFFFFFFFEE9
	movabsq	$4294967295, %rcx       # imm = 0xFFFFFFFF
	andq	%rdx, %rcx
	cmpq	$58, %rcx
	ja	.LBB7_61
# BB#42:                                # %cond.end
	movq	$1, %rdx
	shlq	%cl, %rdx
	movabsq	$504405082411106313, %rsi # imm = 0x70001C000040009
	testq	%rsi, %rdx
	jne	.LBB7_62
# BB#43:                                # %cond.end
	cmpq	$17, %rcx
	jne	.LBB7_61
.LBB7_44:                               # %sw.bb5
	movq	%rbx, %rdi
	callq	extract_constrain_insn_cached
	movl	which_alternative(%rip), %eax
	cmpq	$2, %rax
	sbbq	%rax, %rax
	andq	$1, %rax
	jmp	.LBB7_62
.LBB7_53:                               # %cond.end
	movabsq	$4294967295, %rcx       # imm = 0xFFFFFFFF
	andq	%rcx, %rdx
	cmpq	$459, %rdx              # imm = 0x1CB
	je	.LBB7_62
# BB#54:                                # %cond.end
	cmpq	$461, %rdx              # imm = 0x1CD
	jne	.LBB7_61
	jmp	.LBB7_62
.LBB7_51:                               # %cond.end
	movabsq	$4294967295, %rcx       # imm = 0xFFFFFFFF
	andq	%rcx, %rdx
	cmpq	$437, %rdx              # imm = 0x1B5
	je	.LBB7_62
# BB#52:                                # %cond.end
	cmpq	$439, %rdx              # imm = 0x1B7
	jne	.LBB7_61
	jmp	.LBB7_62
.LBB7_47:                               # %cond.end
	leaq	-413(%rdx), %rsi
	movabsq	$4294967295, %rcx       # imm = 0xFFFFFFFF
	andq	%rcx, %rsi
	cmpq	$2, %rsi
	jb	.LBB7_62
# BB#48:                                # %cond.end
	andq	%rcx, %rdx
	cmpq	$412, %rdx              # imm = 0x19C
	jne	.LBB7_61
# BB#49:                                # %sw.bb
	movq	%rbx, %rdi
	callq	extract_constrain_insn_cached
	movl	which_alternative(%rip), %eax
	testq	%rax, %rax
	jne	.LBB7_50
.LBB7_59:                               # %sw.bb11
	movabsq	$1, %rax
	jmp	.LBB7_62
.LBB7_61:                               # %sw.default
	xorq	%rax, %rax
.LBB7_62:                               # %return
	addq	$8, %rsp
	popq	%rbx
	popq	%r14
	retq
.LBB7_46:                               # %cond.end
	addq	$-399, %rdx             # imm = 0xFFFFFFFFFFFFFE71
	jmp	.LBB7_27
.LBB7_45:                               # %cond.end
	addq	$-351, %rdx             # imm = 0xFFFFFFFFFFFFFEA1
	jmp	.LBB7_27
.LBB7_50:
	movabsq	$0, %rax
	jmp	.LBB7_62
.Ltmp74:
	.size	get_attr_prefix_data16, .Ltmp74-get_attr_prefix_data16
	.cfi_endproc

	.globl	get_attr_length_immediate
	.align	16, 0x90
	.type	get_attr_length_immediate,@function
get_attr_length_immediate:              # @get_attr_length_immediate
	.cfi_startproc
# BB#0:                                 # %entry
	pushq	%r15
.Ltmp80:
	.cfi_def_cfa_offset 16
	pushq	%r14
.Ltmp81:
	.cfi_def_cfa_offset 24
	pushq	%r12
.Ltmp82:
	.cfi_def_cfa_offset 32
	pushq	%rbx
.Ltmp83:
	.cfi_def_cfa_offset 40
	pushq	%rax
.Ltmp84:
	.cfi_def_cfa_offset 48
.Ltmp85:
	.cfi_offset %rbx, -40
.Ltmp86:
	.cfi_offset %r12, -32
.Ltmp87:
	.cfi_offset %r14, -24
.Ltmp88:
	.cfi_offset %r15, -16
	movq	%rdi, %r14
	movslq	40(%r14), %rax
	testq	%rax, %rax
	jns	.LBB8_2
# BB#1:                                 # %cond.false
	movq	%r14, %rdi
	callq	recog_memoized_1
.LBB8_2:                                # %cond.end
	incq	%rax
	movabsq	$4294967295, %r15       # imm = 0xFFFFFFFF
	andq	%r15, %rax
	cmpq	$674, %rax              # imm = 0x2A2
	ja	.LBB8_172
# BB#3:                                 # %cond.end
	movq	$1, %rbx
	jmpq	*.LJTI8_0(,%rax,8)
.LBB8_162:                              # %sw.bb605
	movq	%r14, %rdi
	callq	extract_constrain_insn_cached
.LBB8_14:                               # %if.then29
	movq	$1, %rsi
.LBB8_15:                               # %if.then29
	movq	%r14, %rdi
	addq	$8, %rsp
	popq	%rbx
	popq	%r12
	popq	%r14
	popq	%r15
	jmp	ix86_attr_length_immediate_default  # TAILCALL
.LBB8_22:                               # %sw.bb52
	movq	%r14, %rdi
	callq	extract_constrain_insn_cached
	movq	%r14, %rdi
	callq	get_attr_i387
	andq	%r15, %rax
	xorq	%rbx, %rbx
	cmpq	$1, %rax
	je	.LBB8_173
# BB#23:                                # %if.else56
	movabsq	$.L.str, %rax
	movabsq	$.L__FUNCTION__.get_attr_length_immediate, %rcx
	movq	$13899, %rsi            # imm = 0x364B
	jmp	.LBB8_21
.LBB8_150:                              # %sw.bb548
	movq	%r14, %rdi
	callq	extract_constrain_insn_cached
	xorq	%rsi, %rsi
	jmp	.LBB8_15
.LBB8_64:                               # %sw.bb189
	movq	%r14, %rdi
	callq	extract_constrain_insn_cached
	movq	recog_data+16(%rip), %rdi
	movq	$4, %rsi
	jmp	.LBB8_58
.LBB8_61:                               # %sw.bb175
	movq	%r14, %rdi
	callq	extract_constrain_insn_cached
	movq	recog_data+16(%rip), %rdi
	movq	$3, %rsi
	jmp	.LBB8_58
.LBB8_57:                               # %sw.bb161
	movq	%r14, %rdi
	callq	extract_constrain_insn_cached
	movq	recog_data+16(%rip), %rdi
	movq	$2, %rsi
	jmp	.LBB8_58
.LBB8_48:                               # %sw.bb124
	movq	%r14, %rdi
	callq	extract_constrain_insn_cached
	movq	%r14, %rdi
	callq	get_attr_type
	andq	%r15, %rax
	cmpq	$4, %rax
	je	.LBB8_14
# BB#49:                                # %lor.lhs.false127
	movq	%r14, %rdi
	callq	get_attr_type
	andq	%r15, %rax
	cmpq	$11, %rax
	je	.LBB8_14
# BB#50:                                # %if.else132
	movabsq	$.L.str, %rax
	movabsq	$.L__FUNCTION__.get_attr_length_immediate, %rcx
	movq	$13995, %rsi            # imm = 0x36AB
	jmp	.LBB8_21
.LBB8_5:                                # %sw.bb17
	movq	%r14, %rdi
	callq	extract_insn_cached
	movq	recog_data+8(%rip), %rdi
	xorq	%rsi, %rsi
	callq	constant_call_address_operand
	testq	%r15, %rax
	je	.LBB8_7
# BB#6:
	movabsq	$0, %rbx
	jmp	.LBB8_8
.LBB8_24:                               # %sw.bb57
	movq	%r14, %rdi
	callq	extract_insn_cached
	movq	recog_data(%rip), %rdi
	xorq	%rsi, %rsi
	callq	constant_call_address_operand
	testq	%r15, %rax
	jne	.LBB8_25
.LBB8_7:                                # %sw.bb17
	movabsq	$1, %rbx
	jmp	.LBB8_8
.LBB8_163:                              # %sw.bb607
	movq	%r14, %rdi
	callq	extract_constrain_insn_cached
	movl	which_alternative(%rip), %eax
	testq	%rax, %rax
	je	.LBB8_164
# BB#165:                               # %sw.bb607
	movabsq	$1, %rbx
	jmp	.LBB8_173
.LBB8_151:                              # %sw.bb550
	movq	%r14, %rdi
	callq	extract_constrain_insn_cached
	movl	which_alternative(%rip), %eax
	xorq	%rbx, %rbx
	testq	%rax, %rax
	jne	.LBB8_160
	jmp	.LBB8_173
.LBB8_75:                               # %sw.bb225
	movq	%r14, %rdi
	callq	extract_constrain_insn_cached
	movq	recog_data+16(%rip), %rdi
	movq	$5, %rsi
.LBB8_58:                               # %sw.bb161
	callq	incdec_operand
	xorq	%rbx, %rbx
	testq	%r15, %rax
	jne	.LBB8_173
	jmp	.LBB8_14
.LBB8_123:                              # %sw.bb441
	movq	%r14, %rdi
	callq	extract_constrain_insn_cached
	movq	%r14, %rdi
	callq	get_attr_type
	andq	%r15, %rax
	cmpq	$8, %rax
	je	.LBB8_14
# BB#124:                               # %if.else446
	movq	%r14, %rdi
	callq	get_attr_type
	andq	%r15, %rax
	cmpq	$7, %rax
	je	.LBB8_160
# BB#125:                               # %if.else451
	movabsq	$.L.str, %rax
	movabsq	$.L__FUNCTION__.get_attr_length_immediate, %rcx
	movq	$14312, %rsi            # imm = 0x37E8
	jmp	.LBB8_21
.LBB8_51:                               # %sw.bb133
	movq	%r14, %rdi
	callq	extract_constrain_insn_cached
	movl	which_alternative(%rip), %eax
	xorq	%rbx, %rbx
	cmpq	$1, %rax
	je	.LBB8_173
# BB#52:                                # %if.else136
	movq	%r14, %rdi
	callq	get_attr_type
	andq	%r15, %rax
	cmpq	$4, %rax
	je	.LBB8_14
# BB#53:                                # %lor.lhs.false139
	movq	%r14, %rdi
	callq	get_attr_type
	andq	%r15, %rax
	cmpq	$11, %rax
	je	.LBB8_14
# BB#54:                                # %if.else144
	movabsq	$.L.str, %rax
	movabsq	$.L__FUNCTION__.get_attr_length_immediate, %rcx
	movq	$14012, %rsi            # imm = 0x36BC
	jmp	.LBB8_21
.LBB8_29:                               # %sw.bb70
	movq	%r14, %rdi
	callq	extract_constrain_insn_cached
	movl	which_alternative(%rip), %eax
	xorq	%rbx, %rbx
	testq	%rax, %rax
	jne	.LBB8_14
	jmp	.LBB8_173
.LBB8_25:
	movabsq	$0, %rbx
.LBB8_8:                                # %sw.bb17
	xorq	$1, %rbx
	movq	$2, %rcx
	shlq	%cl, %rbx
	jmp	.LBB8_173
.LBB8_97:                               # %sw.bb338
	movq	%r14, %rdi
	callq	extract_constrain_insn_cached
	movl	which_alternative(%rip), %eax
	xorq	%rbx, %rbx
	cmpq	$1, %rax
	je	.LBB8_14
	jmp	.LBB8_173
.LBB8_82:                               # %sw.bb266
	movq	%r14, %rdi
	callq	extract_constrain_insn_cached
	movl	which_alternative(%rip), %eax
	cmpq	$2, %rax
	jbe	.LBB8_83
# BB#84:                                # %sw.bb266
	movabsq	$1, %rcx
	jmp	.LBB8_85
.LBB8_55:                               # %sw.bb145
	movq	%r14, %rdi
	callq	extract_constrain_insn_cached
	movl	which_alternative(%rip), %eax
	xorq	%rbx, %rbx
	cmpq	$1, %rax
	jbe	.LBB8_14
	jmp	.LBB8_173
.LBB8_18:                               # %sw.bb45
	movq	%r14, %rdi
	callq	extract_constrain_insn_cached
	movl	which_alternative(%rip), %eax
	xorq	%rbx, %rbx
	cmpq	$2, %rax
	je	.LBB8_173
# BB#19:                                # %lor.lhs.false47
	movq	%r14, %rdi
	callq	get_attr_i387
	andq	%r15, %rax
	cmpq	$1, %rax
	je	.LBB8_173
# BB#20:                                # %if.else51
	movabsq	$.L.str, %rax
	movabsq	$.L__FUNCTION__.get_attr_length_immediate, %rcx
	movq	$13867, %rsi            # imm = 0x362B
	jmp	.LBB8_21
.LBB8_164:
	movabsq	$0, %rbx
	jmp	.LBB8_173
.LBB8_168:                              # %sw.bb614
	movq	32(%r14), %rdi
	movzbl	(%rdi), %eax
	cmpq	$40, %rax
	je	.LBB8_172
# BB#169:                               # %land.lhs.true618
	callq	asm_noperands
	movq	$32, %rcx
	shlq	%cl, %rax
	movq	$32, %rcx
	sarq	%cl, %rax
	testq	%rax, %rax
	jns	.LBB8_172
# BB#170:                               # %if.then624
	movabsq	$.L.str, %rax
	movabsq	$.L__FUNCTION__.get_attr_length_immediate, %rcx
	movq	$14632, %rdx            # imm = 0x3928
	movq	%r14, %rdi
	movq	%rax, %rsi
	callq	_fatal_insn_not_found
.LBB8_152:                              # %sw.bb555
	movq	%r14, %rdi
	callq	extract_constrain_insn_cached
	movl	flag_pic(%rip), %ecx
	movl	which_alternative(%rip), %eax
	testq	%rcx, %rcx
	je	.LBB8_156
# BB#153:                               # %sw.bb555
	leaq	-4(%rax), %rcx
	andq	%r15, %rcx
	cmpq	$6, %rcx
	jb	.LBB8_156
# BB#154:                               # %land.lhs.true569
	movq	recog_data+8(%rip), %rdi
	movq	$4, %rsi
	callq	symbolic_operand
	xorq	%rbx, %rbx
	testq	%r15, %rax
	jne	.LBB8_173
# BB#155:                               # %land.lhs.true569.lor.lhs.false572_crit_edge
	movl	which_alternative(%rip), %eax
.LBB8_156:                              # %lor.lhs.false572
	leaq	-4(%rax), %rcx
	andq	%r15, %rcx
	xorq	%rbx, %rbx
	cmpq	$6, %rcx
	jb	.LBB8_173
# BB#157:                               # %if.else591
	addq	$-7, %rax
	andq	%r15, %rax
	cmpq	$3, %rax
	jb	.LBB8_161
# BB#158:                               # %land.lhs.true597
	movl	flag_pic(%rip), %eax
	testq	%rax, %rax
	je	.LBB8_160
# BB#159:                               # %lor.lhs.false599
	movq	recog_data+8(%rip), %rdi
	movq	$4, %rsi
	callq	symbolic_operand
	testq	%r15, %rax
	je	.LBB8_160
.LBB8_161:                              # %if.else604
	movabsq	$.L.str, %rax
	movabsq	$.L__FUNCTION__.get_attr_length_immediate, %rcx
	movq	$14391, %rsi            # imm = 0x3837
	jmp	.LBB8_21
.LBB8_140:                              # %sw.bb507
	movq	%r14, %rdi
	callq	extract_constrain_insn_cached
	movl	which_alternative(%rip), %eax
	cmpq	$1, %rax
	ja	.LBB8_143
# BB#141:                               # %lor.lhs.false511
	movl	ix86_cpu(%rip), %ecx
	movl	x86_partial_reg_stall(%rip), %esi
	movq	$1, %rdx
	shlq	%cl, %rdx
	andq	%rdx, %rsi
	testq	%r15, %rsi
	je	.LBB8_148
# BB#142:                               # %land.lhs.true515
	movl	x86_himode_math(%rip), %ecx
	andq	%rdx, %rcx
	testq	%r15, %rcx
	je	.LBB8_148
.LBB8_143:                              # %land.lhs.true519
	addq	$-2, %rax
	andq	%r15, %rax
	cmpq	$2, %rax
	ja	.LBB8_145
# BB#144:                               # %lor.lhs.false525
	movq	recog_data+8(%rip), %rdi
	movq	$3, %rsi
	callq	aligned_operand
	testq	%r15, %rax
	jne	.LBB8_148
.LBB8_145:                              # %land.lhs.true528
	movl	ix86_cpu(%rip), %ecx
	movl	x86_movx(%rip), %eax
	movq	$1, %rdx
	shlq	%cl, %rdx
	andq	%rax, %rdx
	testq	%r15, %rdx
	je	.LBB8_148
# BB#146:                               # %land.lhs.true532
	movl	which_alternative(%rip), %eax
	cmpq	$4, %rax
	ja	.LBB8_148
# BB#147:                               # %land.lhs.true532
	cmpq	$2, %rax
	jne	.LBB8_14
.LBB8_148:                              # %if.else542
	movq	%r14, %rdi
	callq	get_attr_type
	andq	%r15, %rax
	cmpq	$7, %rax
	je	.LBB8_160
# BB#149:                               # %if.else547
	movabsq	$.L.str, %rax
	movabsq	$.L__FUNCTION__.get_attr_length_immediate, %rcx
	movq	$14342, %rsi            # imm = 0x3806
	jmp	.LBB8_21
.LBB8_126:                              # %sw.bb452
	movq	%r14, %rdi
	callq	extract_constrain_insn_cached
	movl	which_alternative(%rip), %eax
	cmpq	$3, %rax
	jne	.LBB8_129
# BB#127:                               # %lor.lhs.false454
	movl	ix86_cpu(%rip), %ecx
	movl	x86_partial_reg_stall(%rip), %esi
	movq	$1, %rdx
	shlq	%cl, %rdx
	andq	%rdx, %rsi
	testq	%r15, %rsi
	je	.LBB8_134
# BB#128:                               # %land.lhs.true458
	movl	x86_qimode_math(%rip), %esi
	andq	%rdx, %rsi
	testq	%r15, %rsi
	je	.LBB8_133
.LBB8_129:                              # %land.lhs.true462
	cmpq	$3, %rax
	je	.LBB8_14
# BB#130:                               # %land.lhs.true462
	cmpq	$5, %rax
	je	.LBB8_14
# BB#131:                               # %lor.lhs.false466
	movl	ix86_cpu(%rip), %ecx
	movl	x86_movx(%rip), %edx
	movq	$1, %rsi
	shlq	%cl, %rsi
	andq	%rdx, %rsi
	testq	%r15, %rsi
	je	.LBB8_133
# BB#132:                               # %lor.lhs.false466
	cmpq	$2, %rax
	je	.LBB8_14
.LBB8_133:                              # %if.else474
	cmpq	$3, %rax
	jne	.LBB8_136
.LBB8_134:                              # %land.lhs.true476
	movl	x86_partial_reg_stall(%rip), %edx
	movq	$1, %rax
	shlq	%cl, %rax
	andq	%rax, %rdx
	testq	%r15, %rdx
	je	.LBB8_160
# BB#135:                               # %lor.lhs.false480
	movl	x86_qimode_math(%rip), %ecx
	andq	%rax, %rcx
	testq	%r15, %rcx
	je	.LBB8_160
	jmp	.LBB8_139
.LBB8_121:                              # %sw.bb430
	movq	%r14, %rdi
	callq	extract_constrain_insn_cached
	movq	recog_data(%rip), %rdi
	movq	$2, %rsi
	callq	q_regs_operand
	testq	%r15, %rax
	je	.LBB8_14
# BB#122:                               # %lor.lhs.false433
	movl	ix86_cpu(%rip), %ecx
	movl	x86_movx(%rip), %eax
	movq	$1, %rdx
	shlq	%cl, %rdx
	andq	%rax, %rdx
	testq	%r15, %rdx
	jne	.LBB8_14
	jmp	.LBB8_160
.LBB8_120:                              # %sw.bb425
	movq	%r14, %rdi
	callq	extract_constrain_insn_cached
	movl	which_alternative(%rip), %eax
	xorq	%rbx, %rbx
	testq	%rax, %rax
	jne	.LBB8_173
	jmp	.LBB8_14
.LBB8_115:                              # %sw.bb401
	movq	%r14, %rdi
	callq	extract_constrain_insn_cached
	movl	which_alternative(%rip), %ecx
	xorq	%rbx, %rbx
	cmpq	$6, %rcx
	ja	.LBB8_117
# BB#116:                               # %sw.bb401
	movq	$1, %rax
	shlq	%cl, %rax
	testq	$115, %rax
	jne	.LBB8_173
.LBB8_117:                              # %lor.lhs.false415
	cmpq	$2, %rcx
	jb	.LBB8_119
# BB#118:                               # %lor.lhs.false415
	movabsq	$4294967294, %rax       # imm = 0xFFFFFFFE
	andq	%rax, %rcx
	cmpq	$2, %rcx
	je	.LBB8_173
.LBB8_119:                              # %if.else424
	movabsq	$.L.str, %rax
	movabsq	$.L__FUNCTION__.get_attr_length_immediate, %rcx
	movq	$14273, %rsi            # imm = 0x37C1
	jmp	.LBB8_21
.LBB8_98:                               # %sw.bb343
	movq	%r14, %rdi
	callq	extract_constrain_insn_cached
	movl	which_alternative(%rip), %eax
	cmpq	$2, %rax
	je	.LBB8_103
# BB#99:                                # %sw.bb343
	movq	$4, %rbx
	cmpq	$1, %rax
	je	.LBB8_173
# BB#100:                               # %sw.bb343
	testq	%rax, %rax
	jne	.LBB8_104
# BB#101:                               # %if.then345
	movl	flag_pic(%rip), %eax
	testq	%rax, %rax
	je	.LBB8_160
# BB#102:                               # %land.lhs.true347
	movq	recog_data+8(%rip), %rdi
	movq	$5, %rsi
	callq	symbolic_operand
	xorq	%rbx, %rbx
	testq	%r15, %rax
	jne	.LBB8_173
	jmp	.LBB8_160
.LBB8_89:                               # %sw.bb298
	movq	%r14, %rdi
	callq	extract_constrain_insn_cached
	movl	which_alternative(%rip), %eax
	cmpq	$2, %rax
	jbe	.LBB8_90
# BB#91:                                # %sw.bb298
	movabsq	$1, %rcx
	jmp	.LBB8_92
.LBB8_81:                               # %sw.bb260
	movq	%r14, %rdi
	callq	extract_constrain_insn_cached
	movl	which_alternative(%rip), %eax
	testq	%rax, %rax
	jne	.LBB8_160
	jmp	.LBB8_14
.LBB8_171:                              # %sw.bb246
	movq	%r14, %rdi
	callq	extract_constrain_insn_cached
.LBB8_172:                              # %sw.default
	xorq	%rbx, %rbx
.LBB8_173:                              # %return
	movq	%rbx, %rax
.LBB8_174:                              # %return
	addq	$8, %rsp
	popq	%rbx
	popq	%r12
	popq	%r14
	popq	%r15
	retq
.LBB8_76:                               # %sw.bb231
	movq	%r14, %rdi
	callq	extract_constrain_insn_cached
	movq	%r14, %rdi
	callq	get_attr_type
	andq	%r15, %rax
	xorq	%rbx, %rbx
	cmpq	$10, %rax
	je	.LBB8_173
# BB#77:                                # %sw.bb231
	movl	which_alternative(%rip), %eax
	andq	%r15, %rax
	cmpq	$2, %rax
	je	.LBB8_173
# BB#78:                                # %lor.lhs.false236
	movq	recog_data+16(%rip), %rdi
	movq	$5, %rsi
	callq	pic_symbolic_operand
	testq	%r15, %rax
	jne	.LBB8_173
# BB#79:                                # %if.else240
	movq	%r14, %rdi
	callq	get_attr_type
	andq	%r15, %rax
	cmpq	$4, %rax
	je	.LBB8_14
# BB#80:                                # %if.else245
	movabsq	$.L.str, %rax
	movabsq	$.L__FUNCTION__.get_attr_length_immediate, %rcx
	movq	$14164, %rsi            # imm = 0x3754
	jmp	.LBB8_21
.LBB8_70:                               # %sw.bb210
	movq	%r14, %rdi
	callq	extract_constrain_insn_cached
	movq	%r14, %rdi
	callq	get_attr_type
	andq	%r15, %rax
	xorq	%rbx, %rbx
	cmpq	$10, %rax
	je	.LBB8_173
# BB#71:                                # %sw.bb210
	movl	which_alternative(%rip), %eax
	andq	%r15, %rax
	cmpq	$2, %rax
	je	.LBB8_173
# BB#72:                                # %lor.lhs.false215
	movq	recog_data+16(%rip), %rdi
	movq	$4, %rsi
	callq	pic_symbolic_operand
	testq	%r15, %rax
	jne	.LBB8_173
# BB#73:                                # %if.else219
	movq	%r14, %rdi
	callq	get_attr_type
	andq	%r15, %rax
	cmpq	$4, %rax
	je	.LBB8_14
# BB#74:                                # %if.else224
	movabsq	$.L.str, %rax
	movabsq	$.L__FUNCTION__.get_attr_length_immediate, %rcx
	movq	$14135, %rsi            # imm = 0x3737
	jmp	.LBB8_21
.LBB8_65:                               # %sw.bb195
	movq	%r14, %rdi
	callq	extract_constrain_insn_cached
	movq	%r14, %rdi
	callq	get_attr_type
	andq	%r15, %rax
	xorq	%rbx, %rbx
	cmpq	$10, %rax
	je	.LBB8_173
# BB#66:                                # %sw.bb195
	movl	which_alternative(%rip), %eax
	testq	%r15, %rax
	jne	.LBB8_173
# BB#67:                                # %lor.lhs.false200
	movq	recog_data+16(%rip), %rdi
	movq	$4, %rsi
	callq	pic_symbolic_operand
	testq	%r15, %rax
	jne	.LBB8_173
# BB#68:                                # %if.else204
	movq	%r14, %rdi
	callq	get_attr_type
	andq	%r15, %rax
	cmpq	$4, %rax
	je	.LBB8_14
# BB#69:                                # %if.else209
	movabsq	$.L.str, %rax
	movabsq	$.L__FUNCTION__.get_attr_length_immediate, %rcx
	movq	$14120, %rsi            # imm = 0x3728
	jmp	.LBB8_21
.LBB8_62:                               # %sw.bb181
	movq	%r14, %rdi
	callq	extract_constrain_insn_cached
	movq	recog_data+16(%rip), %rdi
	movq	$3, %rsi
	callq	incdec_operand
	xorq	%rbx, %rbx
	testq	%r15, %rax
	jne	.LBB8_173
# BB#63:                                # %sw.bb181
	movl	which_alternative(%rip), %eax
	andq	%r15, %rax
	cmpq	$2, %rax
	jne	.LBB8_14
	jmp	.LBB8_173
.LBB8_59:                               # %sw.bb167
	movq	%r14, %rdi
	callq	extract_constrain_insn_cached
	movq	recog_data+16(%rip), %rdi
	movq	$2, %rsi
	callq	incdec_operand
	xorq	%rbx, %rbx
	testq	%r15, %rax
	jne	.LBB8_173
# BB#60:                                # %sw.bb167
	movl	which_alternative(%rip), %eax
	andq	%r15, %rax
	cmpq	$3, %rax
	jne	.LBB8_14
	jmp	.LBB8_173
.LBB8_56:                               # %sw.bb152
	movq	%r14, %rdi
	callq	extract_constrain_insn_cached
	movl	which_alternative(%rip), %eax
	xorq	%rbx, %rbx
	cmpq	$2, %rax
	jbe	.LBB8_14
	jmp	.LBB8_173
.LBB8_40:                               # %sw.bb102
	movq	%r14, %rdi
	callq	extract_constrain_insn_cached
	movl	which_alternative(%rip), %eax
	xorq	%rbx, %rbx
	cmpq	$1, %rax
	je	.LBB8_173
# BB#41:                                # %sw.bb102
	testq	%rax, %rax
	jne	.LBB8_47
# BB#42:                                # %land.lhs.true107
	movl	ix86_cpu(%rip), %ecx
	movl	x86_double_with_add(%rip), %r12d
	movq	$1, %rbx
	movq	$1, %rax
	shlq	%cl, %rax
	andq	%r12, %rax
	testq	%r15, %rax
	je	.LBB8_45
# BB#43:                                # %land.lhs.true111
	movq	recog_data+16(%rip), %rdi
	xorq	%rsi, %rsi
	callq	const1_operand
	testq	%r15, %rax
	jne	.LBB8_14
# BB#44:                                # %land.lhs.true111.lor.lhs.false114_crit_edge
	movl	ix86_cpu(%rip), %ecx
.LBB8_45:                               # %lor.lhs.false114
	shlq	%cl, %rbx
	andq	%r12, %rbx
	testq	%r15, %rbx
	je	.LBB8_14
# BB#46:                                # %lor.lhs.false118
	movq	recog_data+16(%rip), %rdi
	xorq	%rsi, %rsi
	callq	const1_operand
	testq	%r15, %rax
	je	.LBB8_14
.LBB8_47:                               # %if.else123
	movabsq	$.L.str, %rax
	movabsq	$.L__FUNCTION__.get_attr_length_immediate, %rcx
	movq	$13979, %rsi            # imm = 0x369B
	jmp	.LBB8_21
.LBB8_34:                               # %sw.bb87
	movq	%r14, %rdi
	callq	extract_constrain_insn_cached
	movl	ix86_cpu(%rip), %ecx
	movl	x86_double_with_add(%rip), %r12d
	movq	$1, %rbx
	movq	$1, %rax
	shlq	%cl, %rax
	andq	%r12, %rax
	testq	%r15, %rax
	je	.LBB8_37
# BB#35:                                # %land.lhs.true89
	movq	recog_data+16(%rip), %rdi
	xorq	%rsi, %rsi
	callq	const1_operand
	testq	%r15, %rax
	jne	.LBB8_14
# BB#36:                                # %land.lhs.true89.lor.lhs.false92_crit_edge
	movl	ix86_cpu(%rip), %ecx
.LBB8_37:                               # %lor.lhs.false92
	shlq	%cl, %rbx
	andq	%r12, %rbx
	testq	%r15, %rbx
	je	.LBB8_14
# BB#38:                                # %lor.lhs.false96
	movq	recog_data+16(%rip), %rdi
	xorq	%rsi, %rsi
	callq	const1_operand
	testq	%r15, %rax
	je	.LBB8_14
# BB#39:                                # %if.else101
	movabsq	$.L.str, %rax
	movabsq	$.L__FUNCTION__.get_attr_length_immediate, %rcx
	movq	$13964, %rsi            # imm = 0x368C
	jmp	.LBB8_21
.LBB8_30:                               # %sw.bb75
	movq	%r14, %rdi
	callq	extract_constrain_insn_cached
	movl	which_alternative(%rip), %eax
	xorq	%rbx, %rbx
	cmpq	$2, %rax
	je	.LBB8_173
# BB#31:                                # %if.else78
	movq	%r14, %rdi
	callq	get_attr_type
	andq	%r15, %rax
	cmpq	$4, %rax
	je	.LBB8_14
# BB#32:                                # %lor.lhs.false81
	movq	%r14, %rdi
	callq	get_attr_type
	andq	%r15, %rax
	cmpq	$11, %rax
	je	.LBB8_14
# BB#33:                                # %if.else86
	movabsq	$.L.str, %rax
	movabsq	$.L__FUNCTION__.get_attr_length_immediate, %rcx
	movq	$13953, %rsi            # imm = 0x3681
	jmp	.LBB8_21
.LBB8_26:                               # %sw.bb62
	movq	%r14, %rdi
	callq	extract_constrain_insn_cached
	movq	%r14, %rdi
	callq	get_attr_type
	andq	%r15, %rax
	xorq	%rbx, %rbx
	cmpq	$14, %rax
	je	.LBB8_173
# BB#27:                                # %lor.lhs.false65
	movq	%r14, %rdi
	callq	get_attr_type
	andq	%r15, %rax
	cmpq	$1, %rax
	je	.LBB8_173
# BB#28:                                # %if.else69
	movabsq	$.L.str, %rax
	movabsq	$.L__FUNCTION__.get_attr_length_immediate, %rcx
	movq	$13925, %rsi            # imm = 0x3665
	jmp	.LBB8_21
.LBB8_166:                              # %sw.bb612
	movq	$2, %rbx
	jmp	.LBB8_173
.LBB8_167:                              # %sw.bb613
	movq	$4, %rbx
	jmp	.LBB8_173
.LBB8_16:                               # %sw.bb33
	movq	%r14, %rdi
	callq	extract_constrain_insn_cached
	movl	which_alternative(%rip), %eax
	cmpq	$1, %rax
	jne	.LBB8_13
# BB#17:                                # %land.lhs.true35
	movq	recog_data+16(%rip), %rdi
	movq	$4, %rsi
	jmp	.LBB8_11
.LBB8_9:                                # %sw.bb21
	movq	%r14, %rdi
	callq	extract_constrain_insn_cached
	movl	which_alternative(%rip), %eax
	cmpq	$1, %rax
	jne	.LBB8_13
# BB#10:                                # %land.lhs.true23
	movq	recog_data+16(%rip), %rdi
	movq	$5, %rsi
.LBB8_11:                               # %land.lhs.true23
	callq	const0_operand
	xorq	%rbx, %rbx
	testq	%r15, %rax
	je	.LBB8_173
# BB#12:                                # %if.else27thread-pre-split
	movl	which_alternative(%rip), %eax
.LBB8_13:                               # %if.else27
	testq	%r15, %rax
	jne	.LBB8_160
	jmp	.LBB8_14
.LBB8_4:                                # %sw.bb
	movq	%r14, %rdi
	callq	extract_constrain_insn_cached
	xorq	%rax, %rax
	jmp	.LBB8_174
.LBB8_83:
	movabsq	$0, %rcx
.LBB8_85:                               # %sw.bb266
	leaq	-3(%rax), %rdx
	andq	%r15, %rdx
	cmpq	$2, %rdx
	sbbq	%rsi, %rsi
	cmpq	$3, %rax
	sbbq	%rdx, %rdx
	xorq	%rbx, %rbx
	testq	%rcx, %rsi
	jne	.LBB8_173
# BB#86:                                # %sw.bb266
	andq	$1, %rdx
	jne	.LBB8_173
# BB#87:                                # %sw.bb266
	addq	$-5, %rax
	andq	%r15, %rax
	cmpq	$4, %rax
	jb	.LBB8_173
# BB#88:                                # %if.else297
	movabsq	$.L.str, %rax
	movabsq	$.L__FUNCTION__.get_attr_length_immediate, %rcx
	movq	$14198, %rsi            # imm = 0x3776
	jmp	.LBB8_21
.LBB8_90:
	movabsq	$0, %rcx
.LBB8_92:                               # %sw.bb298
	leaq	-5(%rax), %rdx
	andq	%r15, %rdx
	cmpq	$4, %rdx
	sbbq	%rsi, %rsi
	cmpq	$3, %rax
	sbbq	%rdx, %rdx
	xorq	%rbx, %rbx
	testq	%rcx, %rsi
	jne	.LBB8_173
# BB#93:                                # %sw.bb298
	andq	$1, %rdx
	jne	.LBB8_173
# BB#94:                                # %sw.bb298
	leaq	-9(%rax), %rcx
	andq	%r15, %rcx
	cmpq	$3, %rcx
	jb	.LBB8_173
# BB#95:                                # %if.else331
	addq	$-3, %rax
	andq	%r15, %rax
	cmpq	$1, %rax
	ja	.LBB8_96
.LBB8_160:                              # %if.else31
	xorq	%rsi, %rsi
	jmp	.LBB8_15
.LBB8_103:                              # %if.then358
	movq	$8, %rbx
	jmp	.LBB8_173
.LBB8_104:                              # %if.else359
	movl	flag_pic(%rip), %ecx
	testq	%rcx, %rcx
	je	.LBB8_109
# BB#105:                               # %switch.early.test
	leaq	-5(%rax), %rcx
	andq	%r15, %rcx
	cmpq	$4, %rcx
	jb	.LBB8_110
# BB#106:                               # %switch.early.test
	xorq	%rbx, %rbx
	cmpq	$4, %rax
	je	.LBB8_173
# BB#107:                               # %land.lhs.true371
	movq	recog_data+8(%rip), %rax
	movq	$5, %rsi
	movq	%rax, %rdi
	callq	symbolic_operand
	testq	%r15, %rax
	jne	.LBB8_173
# BB#108:                               # %land.lhs.true371
	movl	which_alternative(%rip), %eax
	movq	%rax, %rcx
	andq	%r15, %rcx
	cmpq	$4, %rcx
	jne	.LBB8_110
	jmp	.LBB8_173
.LBB8_136:                              # %land.lhs.true494
	cmpq	$5, %rax
	je	.LBB8_139
# BB#137:                               # %land.lhs.true498
	movl	x86_movx(%rip), %edx
	movq	$1, %rsi
	shlq	%cl, %rsi
	andq	%rdx, %rsi
	testq	%r15, %rsi
	je	.LBB8_160
# BB#138:                               # %land.lhs.true498
	cmpq	$2, %rax
	jne	.LBB8_160
.LBB8_139:                              # %if.else506
	movabsq	$.L.str, %rax
	movabsq	$.L__FUNCTION__.get_attr_length_immediate, %rcx
	movq	$14327, %rsi            # imm = 0x37F7
	jmp	.LBB8_21
.LBB8_109:                              # %lor.lhs.false374
	xorq	%rbx, %rbx
	cmpq	$4, %rax
	je	.LBB8_173
.LBB8_110:                              # %lor.lhs.false376
	leaq	-5(%rax), %rcx
	andq	%r15, %rcx
	xorq	%rbx, %rbx
	cmpq	$4, %rcx
	jb	.LBB8_173
# BB#111:                               # %if.else389
	addq	$-7, %rax
	andq	%r15, %rax
	cmpq	$2, %rax
	jb	.LBB8_114
# BB#112:                               # %land.lhs.true393
	movl	flag_pic(%rip), %eax
	testq	%rax, %rax
	je	.LBB8_160
# BB#113:                               # %lor.lhs.false395
	movq	recog_data+8(%rip), %rax
	movq	$5, %rsi
	movq	%rax, %rdi
	callq	symbolic_operand
	testq	%r15, %rax
	je	.LBB8_160
.LBB8_114:                              # %if.else400
	movabsq	$.L.str, %rax
	movabsq	$.L__FUNCTION__.get_attr_length_immediate, %rcx
	movq	$14261, %rsi            # imm = 0x37B5
	jmp	.LBB8_21
.LBB8_96:                               # %if.else337
	movabsq	$.L.str, %rax
	movabsq	$.L__FUNCTION__.get_attr_length_immediate, %rcx
	movq	$14213, %rsi            # imm = 0x3785
.LBB8_21:                               # %if.else51
	movq	%rax, %rdi
	movq	%rcx, %rdx
	callq	fancy_abort
.Ltmp89:
	.size	get_attr_length_immediate, .Ltmp89-get_attr_length_immediate
	.cfi_endproc
	.section	.rodata,"a",@progbits
	.align	8
.LJTI8_0:
	.quad	.LBB8_168
	.quad	.LBB8_163
	.quad	.LBB8_162
	.quad	.LBB8_162
	.quad	.LBB8_163
	.quad	.LBB8_162
	.quad	.LBB8_162
	.quad	.LBB8_163
	.quad	.LBB8_162
	.quad	.LBB8_162
	.quad	.LBB8_163
	.quad	.LBB8_162
	.quad	.LBB8_162
	.quad	.LBB8_162
	.quad	.LBB8_162
	.quad	.LBB8_172
	.quad	.LBB8_162
	.quad	.LBB8_162
	.quad	.LBB8_162
	.quad	.LBB8_172
	.quad	.LBB8_172
	.quad	.LBB8_172
	.quad	.LBB8_172
	.quad	.LBB8_172
	.quad	.LBB8_172
	.quad	.LBB8_172
	.quad	.LBB8_172
	.quad	.LBB8_172
	.quad	.LBB8_172
	.quad	.LBB8_172
	.quad	.LBB8_172
	.quad	.LBB8_172
	.quad	.LBB8_172
	.quad	.LBB8_172
	.quad	.LBB8_172
	.quad	.LBB8_172
	.quad	.LBB8_172
	.quad	.LBB8_172
	.quad	.LBB8_172
	.quad	.LBB8_162
	.quad	.LBB8_162
	.quad	.LBB8_162
	.quad	.LBB8_162
	.quad	.LBB8_162
	.quad	.LBB8_172
	.quad	.LBB8_173
	.quad	.LBB8_152
	.quad	.LBB8_151
	.quad	.LBB8_172
	.quad	.LBB8_150
	.quad	.LBB8_162
	.quad	.LBB8_162
	.quad	.LBB8_140
	.quad	.LBB8_151
	.quad	.LBB8_172
	.quad	.LBB8_150
	.quad	.LBB8_150
	.quad	.LBB8_150
	.quad	.LBB8_172
	.quad	.LBB8_162
	.quad	.LBB8_162
	.quad	.LBB8_126
	.quad	.LBB8_150
	.quad	.LBB8_150
	.quad	.LBB8_172
	.quad	.LBB8_162
	.quad	.LBB8_162
	.quad	.LBB8_123
	.quad	.LBB8_123
	.quad	.LBB8_151
	.quad	.LBB8_172
	.quad	.LBB8_162
	.quad	.LBB8_123
	.quad	.LBB8_121
	.quad	.LBB8_150
	.quad	.LBB8_150
	.quad	.LBB8_150
	.quad	.LBB8_172
	.quad	.LBB8_120
	.quad	.LBB8_162
	.quad	.LBB8_162
	.quad	.LBB8_162
	.quad	.LBB8_172
	.quad	.LBB8_173
	.quad	.LBB8_115
	.quad	.LBB8_98
	.quad	.LBB8_151
	.quad	.LBB8_172
	.quad	.LBB8_150
	.quad	.LBB8_97
	.quad	.LBB8_97
	.quad	.LBB8_89
	.quad	.LBB8_172
	.quad	.LBB8_172
	.quad	.LBB8_172
	.quad	.LBB8_82
	.quad	.LBB8_82
	.quad	.LBB8_172
	.quad	.LBB8_172
	.quad	.LBB8_172
	.quad	.LBB8_172
	.quad	.LBB8_172
	.quad	.LBB8_172
	.quad	.LBB8_172
	.quad	.LBB8_172
	.quad	.LBB8_172
	.quad	.LBB8_172
	.quad	.LBB8_172
	.quad	.LBB8_162
	.quad	.LBB8_162
	.quad	.LBB8_162
	.quad	.LBB8_162
	.quad	.LBB8_162
	.quad	.LBB8_162
	.quad	.LBB8_162
	.quad	.LBB8_162
	.quad	.LBB8_172
	.quad	.LBB8_81
	.quad	.LBB8_162
	.quad	.LBB8_162
	.quad	.LBB8_172
	.quad	.LBB8_162
	.quad	.LBB8_162
	.quad	.LBB8_162
	.quad	.LBB8_162
	.quad	.LBB8_162
	.quad	.LBB8_162
	.quad	.LBB8_162
	.quad	.LBB8_162
	.quad	.LBB8_172
	.quad	.LBB8_172
	.quad	.LBB8_172
	.quad	.LBB8_172
	.quad	.LBB8_172
	.quad	.LBB8_172
	.quad	.LBB8_172
	.quad	.LBB8_172
	.quad	.LBB8_172
	.quad	.LBB8_172
	.quad	.LBB8_172
	.quad	.LBB8_172
	.quad	.LBB8_171
	.quad	.LBB8_172
	.quad	.LBB8_172
	.quad	.LBB8_172
	.quad	.LBB8_172
	.quad	.LBB8_172
	.quad	.LBB8_172
	.quad	.LBB8_172
	.quad	.LBB8_172
	.quad	.LBB8_172
	.quad	.LBB8_172
	.quad	.LBB8_172
	.quad	.LBB8_172
	.quad	.LBB8_172
	.quad	.LBB8_172
	.quad	.LBB8_172
	.quad	.LBB8_172
	.quad	.LBB8_172
	.quad	.LBB8_172
	.quad	.LBB8_172
	.quad	.LBB8_172
	.quad	.LBB8_172
	.quad	.LBB8_172
	.quad	.LBB8_172
	.quad	.LBB8_172
	.quad	.LBB8_172
	.quad	.LBB8_172
	.quad	.LBB8_172
	.quad	.LBB8_172
	.quad	.LBB8_172
	.quad	.LBB8_172
	.quad	.LBB8_172
	.quad	.LBB8_172
	.quad	.LBB8_172
	.quad	.LBB8_172
	.quad	.LBB8_172
	.quad	.LBB8_172
	.quad	.LBB8_172
	.quad	.LBB8_172
	.quad	.LBB8_172
	.quad	.LBB8_172
	.quad	.LBB8_172
	.quad	.LBB8_172
	.quad	.LBB8_172
	.quad	.LBB8_172
	.quad	.LBB8_172
	.quad	.LBB8_162
	.quad	.LBB8_162
	.quad	.LBB8_162
	.quad	.LBB8_162
	.quad	.LBB8_162
	.quad	.LBB8_162
	.quad	.LBB8_172
	.quad	.LBB8_172
	.quad	.LBB8_172
	.quad	.LBB8_172
	.quad	.LBB8_172
	.quad	.LBB8_172
	.quad	.LBB8_172
	.quad	.LBB8_172
	.quad	.LBB8_172
	.quad	.LBB8_172
	.quad	.LBB8_76
	.quad	.LBB8_75
	.quad	.LBB8_75
	.quad	.LBB8_75
	.quad	.LBB8_75
	.quad	.LBB8_70
	.quad	.LBB8_65
	.quad	.LBB8_64
	.quad	.LBB8_64
	.quad	.LBB8_64
	.quad	.LBB8_64
	.quad	.LBB8_64
	.quad	.LBB8_64
	.quad	.LBB8_62
	.quad	.LBB8_61
	.quad	.LBB8_61
	.quad	.LBB8_61
	.quad	.LBB8_61
	.quad	.LBB8_61
	.quad	.LBB8_59
	.quad	.LBB8_57
	.quad	.LBB8_57
	.quad	.LBB8_57
	.quad	.LBB8_61
	.quad	.LBB8_57
	.quad	.LBB8_57
	.quad	.LBB8_57
	.quad	.LBB8_162
	.quad	.LBB8_172
	.quad	.LBB8_162
	.quad	.LBB8_162
	.quad	.LBB8_162
	.quad	.LBB8_162
	.quad	.LBB8_162
	.quad	.LBB8_162
	.quad	.LBB8_162
	.quad	.LBB8_162
	.quad	.LBB8_162
	.quad	.LBB8_162
	.quad	.LBB8_162
	.quad	.LBB8_162
	.quad	.LBB8_162
	.quad	.LBB8_162
	.quad	.LBB8_162
	.quad	.LBB8_162
	.quad	.LBB8_162
	.quad	.LBB8_162
	.quad	.LBB8_162
	.quad	.LBB8_162
	.quad	.LBB8_162
	.quad	.LBB8_162
	.quad	.LBB8_172
	.quad	.LBB8_172
	.quad	.LBB8_172
	.quad	.LBB8_172
	.quad	.LBB8_172
	.quad	.LBB8_172
	.quad	.LBB8_172
	.quad	.LBB8_172
	.quad	.LBB8_172
	.quad	.LBB8_172
	.quad	.LBB8_162
	.quad	.LBB8_162
	.quad	.LBB8_162
	.quad	.LBB8_172
	.quad	.LBB8_172
	.quad	.LBB8_172
	.quad	.LBB8_172
	.quad	.LBB8_172
	.quad	.LBB8_172
	.quad	.LBB8_172
	.quad	.LBB8_172
	.quad	.LBB8_172
	.quad	.LBB8_172
	.quad	.LBB8_172
	.quad	.LBB8_172
	.quad	.LBB8_172
	.quad	.LBB8_172
	.quad	.LBB8_150
	.quad	.LBB8_150
	.quad	.LBB8_150
	.quad	.LBB8_150
	.quad	.LBB8_173
	.quad	.LBB8_150
	.quad	.LBB8_150
	.quad	.LBB8_150
	.quad	.LBB8_172
	.quad	.LBB8_172
	.quad	.LBB8_56
	.quad	.LBB8_162
	.quad	.LBB8_55
	.quad	.LBB8_162
	.quad	.LBB8_162
	.quad	.LBB8_162
	.quad	.LBB8_55
	.quad	.LBB8_162
	.quad	.LBB8_162
	.quad	.LBB8_162
	.quad	.LBB8_162
	.quad	.LBB8_162
	.quad	.LBB8_173
	.quad	.LBB8_173
	.quad	.LBB8_172
	.quad	.LBB8_172
	.quad	.LBB8_172
	.quad	.LBB8_162
	.quad	.LBB8_162
	.quad	.LBB8_162
	.quad	.LBB8_162
	.quad	.LBB8_162
	.quad	.LBB8_162
	.quad	.LBB8_162
	.quad	.LBB8_162
	.quad	.LBB8_162
	.quad	.LBB8_162
	.quad	.LBB8_162
	.quad	.LBB8_162
	.quad	.LBB8_162
	.quad	.LBB8_162
	.quad	.LBB8_162
	.quad	.LBB8_162
	.quad	.LBB8_162
	.quad	.LBB8_162
	.quad	.LBB8_162
	.quad	.LBB8_162
	.quad	.LBB8_162
	.quad	.LBB8_162
	.quad	.LBB8_162
	.quad	.LBB8_162
	.quad	.LBB8_162
	.quad	.LBB8_162
	.quad	.LBB8_162
	.quad	.LBB8_162
	.quad	.LBB8_162
	.quad	.LBB8_162
	.quad	.LBB8_162
	.quad	.LBB8_162
	.quad	.LBB8_172
	.quad	.LBB8_162
	.quad	.LBB8_162
	.quad	.LBB8_162
	.quad	.LBB8_162
	.quad	.LBB8_172
	.quad	.LBB8_162
	.quad	.LBB8_162
	.quad	.LBB8_162
	.quad	.LBB8_162
	.quad	.LBB8_162
	.quad	.LBB8_162
	.quad	.LBB8_162
	.quad	.LBB8_162
	.quad	.LBB8_162
	.quad	.LBB8_162
	.quad	.LBB8_172
	.quad	.LBB8_172
	.quad	.LBB8_172
	.quad	.LBB8_172
	.quad	.LBB8_172
	.quad	.LBB8_172
	.quad	.LBB8_172
	.quad	.LBB8_172
	.quad	.LBB8_172
	.quad	.LBB8_172
	.quad	.LBB8_172
	.quad	.LBB8_172
	.quad	.LBB8_172
	.quad	.LBB8_172
	.quad	.LBB8_172
	.quad	.LBB8_172
	.quad	.LBB8_172
	.quad	.LBB8_172
	.quad	.LBB8_172
	.quad	.LBB8_172
	.quad	.LBB8_172
	.quad	.LBB8_172
	.quad	.LBB8_172
	.quad	.LBB8_172
	.quad	.LBB8_172
	.quad	.LBB8_172
	.quad	.LBB8_172
	.quad	.LBB8_172
	.quad	.LBB8_172
	.quad	.LBB8_172
	.quad	.LBB8_172
	.quad	.LBB8_172
	.quad	.LBB8_172
	.quad	.LBB8_172
	.quad	.LBB8_172
	.quad	.LBB8_172
	.quad	.LBB8_172
	.quad	.LBB8_172
	.quad	.LBB8_162
	.quad	.LBB8_162
	.quad	.LBB8_162
	.quad	.LBB8_162
	.quad	.LBB8_162
	.quad	.LBB8_162
	.quad	.LBB8_162
	.quad	.LBB8_162
	.quad	.LBB8_162
	.quad	.LBB8_162
	.quad	.LBB8_51
	.quad	.LBB8_48
	.quad	.LBB8_172
	.quad	.LBB8_172
	.quad	.LBB8_162
	.quad	.LBB8_51
	.quad	.LBB8_40
	.quad	.LBB8_48
	.quad	.LBB8_34
	.quad	.LBB8_51
	.quad	.LBB8_48
	.quad	.LBB8_48
	.quad	.LBB8_30
	.quad	.LBB8_48
	.quad	.LBB8_48
	.quad	.LBB8_29
	.quad	.LBB8_162
	.quad	.LBB8_162
	.quad	.LBB8_162
	.quad	.LBB8_162
	.quad	.LBB8_172
	.quad	.LBB8_172
	.quad	.LBB8_162
	.quad	.LBB8_29
	.quad	.LBB8_29
	.quad	.LBB8_162
	.quad	.LBB8_162
	.quad	.LBB8_162
	.quad	.LBB8_162
	.quad	.LBB8_162
	.quad	.LBB8_162
	.quad	.LBB8_162
	.quad	.LBB8_162
	.quad	.LBB8_162
	.quad	.LBB8_162
	.quad	.LBB8_162
	.quad	.LBB8_162
	.quad	.LBB8_162
	.quad	.LBB8_162
	.quad	.LBB8_162
	.quad	.LBB8_162
	.quad	.LBB8_162
	.quad	.LBB8_162
	.quad	.LBB8_162
	.quad	.LBB8_162
	.quad	.LBB8_172
	.quad	.LBB8_172
	.quad	.LBB8_162
	.quad	.LBB8_162
	.quad	.LBB8_162
	.quad	.LBB8_162
	.quad	.LBB8_162
	.quad	.LBB8_162
	.quad	.LBB8_162
	.quad	.LBB8_162
	.quad	.LBB8_162
	.quad	.LBB8_162
	.quad	.LBB8_162
	.quad	.LBB8_162
	.quad	.LBB8_162
	.quad	.LBB8_162
	.quad	.LBB8_162
	.quad	.LBB8_162
	.quad	.LBB8_162
	.quad	.LBB8_162
	.quad	.LBB8_162
	.quad	.LBB8_162
	.quad	.LBB8_162
	.quad	.LBB8_162
	.quad	.LBB8_162
	.quad	.LBB8_162
	.quad	.LBB8_162
	.quad	.LBB8_162
	.quad	.LBB8_162
	.quad	.LBB8_162
	.quad	.LBB8_162
	.quad	.LBB8_162
	.quad	.LBB8_162
	.quad	.LBB8_162
	.quad	.LBB8_162
	.quad	.LBB8_162
	.quad	.LBB8_162
	.quad	.LBB8_162
	.quad	.LBB8_172
	.quad	.LBB8_172
	.quad	.LBB8_172
	.quad	.LBB8_172
	.quad	.LBB8_172
	.quad	.LBB8_172
	.quad	.LBB8_172
	.quad	.LBB8_172
	.quad	.LBB8_172
	.quad	.LBB8_172
	.quad	.LBB8_172
	.quad	.LBB8_172
	.quad	.LBB8_172
	.quad	.LBB8_172
	.quad	.LBB8_172
	.quad	.LBB8_172
	.quad	.LBB8_172
	.quad	.LBB8_172
	.quad	.LBB8_172
	.quad	.LBB8_172
	.quad	.LBB8_172
	.quad	.LBB8_26
	.quad	.LBB8_24
	.quad	.LBB8_24
	.quad	.LBB8_24
	.quad	.LBB8_24
	.quad	.LBB8_24
	.quad	.LBB8_172
	.quad	.LBB8_172
	.quad	.LBB8_166
	.quad	.LBB8_172
	.quad	.LBB8_172
	.quad	.LBB8_167
	.quad	.LBB8_172
	.quad	.LBB8_172
	.quad	.LBB8_172
	.quad	.LBB8_172
	.quad	.LBB8_172
	.quad	.LBB8_172
	.quad	.LBB8_172
	.quad	.LBB8_172
	.quad	.LBB8_172
	.quad	.LBB8_172
	.quad	.LBB8_172
	.quad	.LBB8_172
	.quad	.LBB8_172
	.quad	.LBB8_172
	.quad	.LBB8_22
	.quad	.LBB8_18
	.quad	.LBB8_172
	.quad	.LBB8_22
	.quad	.LBB8_22
	.quad	.LBB8_22
	.quad	.LBB8_18
	.quad	.LBB8_172
	.quad	.LBB8_22
	.quad	.LBB8_22
	.quad	.LBB8_22
	.quad	.LBB8_22
	.quad	.LBB8_22
	.quad	.LBB8_22
	.quad	.LBB8_22
	.quad	.LBB8_22
	.quad	.LBB8_22
	.quad	.LBB8_22
	.quad	.LBB8_22
	.quad	.LBB8_22
	.quad	.LBB8_22
	.quad	.LBB8_22
	.quad	.LBB8_22
	.quad	.LBB8_22
	.quad	.LBB8_22
	.quad	.LBB8_22
	.quad	.LBB8_172
	.quad	.LBB8_172
	.quad	.LBB8_172
	.quad	.LBB8_172
	.quad	.LBB8_172
	.quad	.LBB8_172
	.quad	.LBB8_172
	.quad	.LBB8_172
	.quad	.LBB8_172
	.quad	.LBB8_172
	.quad	.LBB8_172
	.quad	.LBB8_172
	.quad	.LBB8_172
	.quad	.LBB8_172
	.quad	.LBB8_172
	.quad	.LBB8_172
	.quad	.LBB8_172
	.quad	.LBB8_172
	.quad	.LBB8_172
	.quad	.LBB8_172
	.quad	.LBB8_172
	.quad	.LBB8_172
	.quad	.LBB8_172
	.quad	.LBB8_172
	.quad	.LBB8_172
	.quad	.LBB8_172
	.quad	.LBB8_172
	.quad	.LBB8_172
	.quad	.LBB8_172
	.quad	.LBB8_172
	.quad	.LBB8_172
	.quad	.LBB8_172
	.quad	.LBB8_172
	.quad	.LBB8_172
	.quad	.LBB8_172
	.quad	.LBB8_172
	.quad	.LBB8_172
	.quad	.LBB8_172
	.quad	.LBB8_172
	.quad	.LBB8_172
	.quad	.LBB8_172
	.quad	.LBB8_172
	.quad	.LBB8_172
	.quad	.LBB8_172
	.quad	.LBB8_172
	.quad	.LBB8_172
	.quad	.LBB8_172
	.quad	.LBB8_172
	.quad	.LBB8_172
	.quad	.LBB8_172
	.quad	.LBB8_172
	.quad	.LBB8_172
	.quad	.LBB8_172
	.quad	.LBB8_172
	.quad	.LBB8_172
	.quad	.LBB8_172
	.quad	.LBB8_172
	.quad	.LBB8_172
	.quad	.LBB8_172
	.quad	.LBB8_172
	.quad	.LBB8_172
	.quad	.LBB8_172
	.quad	.LBB8_172
	.quad	.LBB8_172
	.quad	.LBB8_172
	.quad	.LBB8_172
	.quad	.LBB8_172
	.quad	.LBB8_172
	.quad	.LBB8_172
	.quad	.LBB8_172
	.quad	.LBB8_172
	.quad	.LBB8_172
	.quad	.LBB8_172
	.quad	.LBB8_172
	.quad	.LBB8_172
	.quad	.LBB8_172
	.quad	.LBB8_16
	.quad	.LBB8_9
	.quad	.LBB8_172
	.quad	.LBB8_172
	.quad	.LBB8_172
	.quad	.LBB8_172
	.quad	.LBB8_172
	.quad	.LBB8_172
	.quad	.LBB8_172
	.quad	.LBB8_172
	.quad	.LBB8_172
	.quad	.LBB8_172
	.quad	.LBB8_172
	.quad	.LBB8_172
	.quad	.LBB8_172
	.quad	.LBB8_172
	.quad	.LBB8_5
	.quad	.LBB8_5
	.quad	.LBB8_5
	.quad	.LBB8_5
	.quad	.LBB8_5
	.quad	.LBB8_5
	.quad	.LBB8_172
	.quad	.LBB8_172
	.quad	.LBB8_172
	.quad	.LBB8_172
	.quad	.LBB8_172
	.quad	.LBB8_172
	.quad	.LBB8_172
	.quad	.LBB8_172
	.quad	.LBB8_172
	.quad	.LBB8_172
	.quad	.LBB8_172
	.quad	.LBB8_172
	.quad	.LBB8_172
	.quad	.LBB8_172
	.quad	.LBB8_172
	.quad	.LBB8_172
	.quad	.LBB8_4

	.text
	.globl	get_attr_length_address
	.align	16, 0x90
	.type	get_attr_length_address,@function
get_attr_length_address:                # @get_attr_length_address
	.cfi_startproc
# BB#0:                                 # %entry
	pushq	%r15
.Ltmp94:
	.cfi_def_cfa_offset 16
	pushq	%r14
.Ltmp95:
	.cfi_def_cfa_offset 24
	pushq	%rbx
.Ltmp96:
	.cfi_def_cfa_offset 32
.Ltmp97:
	.cfi_offset %rbx, -32
.Ltmp98:
	.cfi_offset %r14, -24
.Ltmp99:
	.cfi_offset %r15, -16
	movq	%rdi, %rbx
	movslq	40(%rbx), %rax
	testq	%rax, %rax
	jns	.LBB9_2
# BB#1:                                 # %cond.false
	movq	%rbx, %rdi
	callq	recog_memoized_1
.LBB9_2:                                # %cond.end
	xorq	%r14, %r14
	movq	$32, %rcx
	movq	%rax, %rdx
	shlq	%cl, %rdx
	movq	$32, %rcx
	sarq	%cl, %rdx
	cmpq	$804, %rdx              # imm = 0x324
	jg	.LBB9_55
# BB#3:                                 # %cond.end
	movq	$32, %rcx
	movq	%rax, %rdx
	shlq	%cl, %rdx
	movq	$32, %rcx
	sarq	%cl, %rdx
	cmpq	$17, %rdx
	jg	.LBB9_8
# BB#4:                                 # %cond.end
	movabsq	$4294967295, %rcx       # imm = 0xFFFFFFFF
	andq	%rcx, %rax
	cmpq	%rcx, %rax
	jne	.LBB9_56
# BB#5:                                 # %sw.bb84
	movq	32(%rbx), %rdi
	movzbl	(%rdi), %eax
	cmpq	$40, %rax
	je	.LBB9_58
# BB#6:                                 # %land.lhs.true88
	callq	asm_noperands
	movq	$32, %rcx
	shlq	%cl, %rax
	movq	$32, %rcx
	sarq	%cl, %rax
	testq	%rax, %rax
	jns	.LBB9_58
# BB#7:                                 # %if.then94
	movabsq	$.L.str, %rax
	movabsq	$.L__FUNCTION__.get_attr_length_address, %rcx
	movq	$13642, %rdx            # imm = 0x354A
	movq	%rbx, %rdi
	movq	%rax, %rsi
	callq	_fatal_insn_not_found
.LBB9_55:                               # %cond.end
	movabsq	$4294967295, %rcx       # imm = 0xFFFFFFFF
	andq	%rcx, %rax
	cmpq	$805, %rax              # imm = 0x325
	je	.LBB9_58
	jmp	.LBB9_56
.LBB9_8:                                # %cond.end
	movq	$32, %rcx
	movq	%rax, %rdx
	shlq	%cl, %rdx
	movq	$32, %rcx
	sarq	%cl, %rdx
	cmpq	$672, %rdx              # imm = 0x2A0
	jg	.LBB9_48
# BB#9:                                 # %cond.end
	movq	$32, %rcx
	movq	%rax, %rdx
	shlq	%cl, %rdx
	movq	$32, %rcx
	sarq	%cl, %rdx
	cmpq	$581, %rdx              # imm = 0x245
	jg	.LBB9_34
# BB#10:                                # %cond.end
	movq	$32, %rcx
	movq	%rax, %rdx
	shlq	%cl, %rdx
	movq	$32, %rcx
	sarq	%cl, %rdx
	cmpq	$491, %rdx              # imm = 0x1EB
	jg	.LBB9_29
# BB#11:                                # %cond.end
	movq	$32, %rcx
	movq	%rax, %rdx
	shlq	%cl, %rdx
	movq	$32, %rcx
	sarq	%cl, %rdx
	cmpq	$447, %rdx              # imm = 0x1BF
	jg	.LBB9_28
# BB#12:                                # %cond.end
	movq	$32, %rcx
	movq	%rax, %rdx
	shlq	%cl, %rdx
	movq	$32, %rcx
	sarq	%cl, %rdx
	cmpq	$422, %rdx              # imm = 0x1A6
	jg	.LBB9_27
# BB#13:                                # %cond.end
	movq	$32, %rcx
	movq	%rax, %rdx
	shlq	%cl, %rdx
	movq	$32, %rcx
	sarq	%cl, %rdx
	cmpq	$404, %rdx              # imm = 0x194
	jg	.LBB9_26
# BB#14:                                # %cond.end
	movq	$32, %rcx
	movq	%rax, %rdx
	shlq	%cl, %rdx
	movq	$32, %rcx
	sarq	%cl, %rdx
	cmpq	$343, %rdx              # imm = 0x157
	jg	.LBB9_24
# BB#15:                                # %cond.end
	movq	$32, %rcx
	movq	%rax, %rdx
	shlq	%cl, %rdx
	movq	$32, %rcx
	sarq	%cl, %rdx
	cmpq	$287, %rdx              # imm = 0x11F
	jg	.LBB9_22
# BB#16:                                # %cond.end
	movq	$32, %rcx
	movq	%rax, %rdx
	shlq	%cl, %rdx
	movq	$32, %rcx
	sarq	%cl, %rdx
	cmpq	$267, %rdx              # imm = 0x10B
	jg	.LBB9_20
# BB#17:                                # %cond.end
	movq	$32, %rcx
	movq	%rax, %rdx
	shlq	%cl, %rdx
	movq	$32, %rcx
	sarq	%cl, %rdx
	cmpq	$229, %rdx
	jg	.LBB9_57
# BB#18:                                # %cond.end
	addq	$-18, %rax
	movabsq	$4294967295, %r15       # imm = 0xFFFFFFFF
	andq	%r15, %rax
	cmpq	$167, %rax
	ja	.LBB9_56
# BB#19:                                # %cond.end
	jmpq	*.LJTI9_1(,%rax,8)
.LBB9_50:                               # %sw.bb68
	movq	%rbx, %rdi
	callq	extract_constrain_insn_cached
	movl	which_alternative(%rip), %eax
	testq	%rax, %rax
	jne	.LBB9_58
	jmp	.LBB9_37
.LBB9_48:                               # %cond.end
	movabsq	$4294967295, %rcx       # imm = 0xFFFFFFFF
	andq	%rcx, %rax
	cmpq	$673, %rax              # imm = 0x2A1
	jne	.LBB9_56
.LBB9_49:                               # %sw.bb61
	movq	%rbx, %rdi
	callq	extract_constrain_insn_cached
	movl	which_alternative(%rip), %eax
.LBB9_45:                               # %sw.bb39
	cmpq	$2, %rax
	jb	.LBB9_58
	jmp	.LBB9_37
.LBB9_34:                               # %cond.end
	addq	$-582, %rax             # imm = 0xFFFFFFFFFFFFFDBA
	movabsq	$4294967295, %rcx       # imm = 0xFFFFFFFF
	andq	%rax, %rcx
	cmpq	$76, %rcx
	ja	.LBB9_56
# BB#35:                                # %cond.end
	jmpq	*.LJTI9_0(,%rcx,8)
.LBB9_36:                               # %sw.bb
	movq	%rbx, %rdi
	callq	extract_constrain_insn_cached
	movl	which_alternative(%rip), %eax
	movabsq	$4294967294, %rcx       # imm = 0xFFFFFFFE
	andq	%rax, %rcx
	cmpq	$2, %rcx
	je	.LBB9_58
	jmp	.LBB9_37
.LBB9_29:                               # %cond.end
	addq	$-492, %rax             # imm = 0xFFFFFFFFFFFFFE14
	movabsq	$4294967295, %r15       # imm = 0xFFFFFFFF
	andq	%r15, %rax
	cmpq	$32, %rax
	ja	.LBB9_56
# BB#30:                                # %cond.end
	movq	$1, %rdx
	movq	$1, %rsi
	movq	%rax, %rcx
	shlq	%cl, %rsi
	movabsq	$8503952383, %rcx       # imm = 0x1FAE003FF
	testq	%rcx, %rsi
	jne	.LBB9_58
# BB#31:                                # %cond.end
	movq	%rax, %rcx
	shlq	%cl, %rdx
	testq	$2031616, %rdx          # imm = 0x1F0000
	je	.LBB9_32
.LBB9_38:                               # %sw.bb7
	movq	%rbx, %rdi
	callq	extract_constrain_insn_cached
	movq	recog_data+8(%rip), %rdi
	xorq	%rsi, %rsi
	xorq	%r14, %r14
	callq	constant_call_address_operand
	movabsq	$4294967295, %rcx       # imm = 0xFFFFFFFF
	testq	%rcx, %rax
	jne	.LBB9_58
	jmp	.LBB9_37
.LBB9_28:                               # %cond.end
	addq	$-448, %rax             # imm = 0xFFFFFFFFFFFFFE40
	jmp	.LBB9_23
.LBB9_27:                               # %cond.end
	addq	$-423, %rax             # imm = 0xFFFFFFFFFFFFFE59
	jmp	.LBB9_23
.LBB9_26:                               # %cond.end
	addq	$-405, %rax             # imm = 0xFFFFFFFFFFFFFE6B
	jmp	.LBB9_23
.LBB9_24:                               # %cond.end
	addq	$-344, %rax             # imm = 0xFFFFFFFFFFFFFEA8
	movabsq	$4294967295, %rcx       # imm = 0xFFFFFFFF
	andq	%rax, %rcx
	cmpq	$39, %rcx
	ja	.LBB9_56
# BB#25:                                # %cond.end
	movq	$1, %rax
	shlq	%cl, %rax
	movabsq	$1098439981057, %rcx    # imm = 0xFFC01FF801
	testq	%rcx, %rax
	jne	.LBB9_58
	jmp	.LBB9_56
.LBB9_22:                               # %cond.end
	addq	$-288, %rax             # imm = 0xFFFFFFFFFFFFFEE0
.LBB9_23:                               # %cond.end
	movabsq	$4294967295, %rcx       # imm = 0xFFFFFFFF
	andq	%rax, %rcx
	cmpq	$2, %rcx
	jb	.LBB9_58
	jmp	.LBB9_56
.LBB9_32:                               # %cond.end
	cmpq	$15, %rax
	jne	.LBB9_56
# BB#33:                                # %sw.bb12
	movq	%rbx, %rdi
	callq	extract_constrain_insn_cached
	movq	%rbx, %rdi
	callq	get_attr_type
	andq	%r15, %rax
	jmp	.LBB9_40
.LBB9_20:                               # %cond.end
	addq	$-268, %rax             # imm = 0xFFFFFFFFFFFFFEF4
	movabsq	$4294967295, %rcx       # imm = 0xFFFFFFFF
	andq	%rax, %rcx
	cmpq	$9, %rcx
	ja	.LBB9_56
# BB#21:                                # %cond.end
	movq	$1, %rax
	shlq	%cl, %rax
	testq	$731, %rax              # imm = 0x2DB
	jne	.LBB9_58
	jmp	.LBB9_56
.LBB9_57:                               # %cond.end
	movabsq	$4294967295, %rcx       # imm = 0xFFFFFFFF
	andq	%rcx, %rax
	cmpq	$230, %rax
	je	.LBB9_58
.LBB9_56:                               # %sw.default
	movq	%rbx, %rdi
	callq	extract_constrain_insn_cached
.LBB9_37:                               # %if.else
	movq	%rbx, %rdi
	popq	%rbx
	popq	%r14
	popq	%r15
	jmp	ix86_attr_length_address_default  # TAILCALL
.LBB9_51:                               # %sw.bb73
	movq	%rbx, %rdi
	callq	extract_constrain_insn_cached
	movl	which_alternative(%rip), %eax
	testq	%rax, %rax
	movq	$8, %r14
	je	.LBB9_58
# BB#52:                                # %select.mid
	xorq	%r14, %r14
	jmp	.LBB9_58
.LBB9_53:                               # %sw.bb80
	movq	%rbx, %rdi
	callq	extract_constrain_insn_cached
	movl	which_alternative(%rip), %eax
	testq	%rax, %rax
	movq	$8, %r14
	je	.LBB9_58
# BB#54:                                # %select.mid2
	xorq	%r14, %r14
	jmp	.LBB9_58
.LBB9_47:                               # %sw.bb56
	movq	%rbx, %rdi
	callq	extract_constrain_insn_cached
	movl	which_alternative(%rip), %eax
	cmpq	$4, %rax
	jne	.LBB9_37
	jmp	.LBB9_58
.LBB9_46:                               # %sw.bb51
	movq	%rbx, %rdi
	callq	extract_constrain_insn_cached
	movl	which_alternative(%rip), %eax
	cmpq	$1, %rax
	je	.LBB9_37
	jmp	.LBB9_58
.LBB9_43:                               # %sw.bb39
	movq	%rbx, %rdi
	callq	extract_constrain_insn_cached
	movl	which_alternative(%rip), %eax
	cmpq	$3, %rax
	jae	.LBB9_44
	jmp	.LBB9_37
.LBB9_42:                               # %sw.bb32
	movq	%rbx, %rdi
	callq	extract_constrain_insn_cached
	movl	which_alternative(%rip), %eax
.LBB9_44:                               # %sw.bb39
	addq	$-3, %rax
	andq	%r15, %rax
	jmp	.LBB9_45
.LBB9_41:                               # %sw.bb23
	movq	%rbx, %rdi
	callq	extract_constrain_insn_cached
	movl	which_alternative(%rip), %eax
	decq	%rax
	andq	%r15, %rax
	cmpq	$3, %rax
	jae	.LBB9_37
	jmp	.LBB9_58
.LBB9_39:                               # %sw.bb18
	movq	%rbx, %rdi
	callq	extract_constrain_insn_cached
	movl	which_alternative(%rip), %eax
.LBB9_40:                               # %sw.bb18
	cmpq	$1, %rax
	jne	.LBB9_37
.LBB9_58:                               # %return
	movq	%r14, %rax
	popq	%rbx
	popq	%r14
	popq	%r15
	retq
.Ltmp100:
	.size	get_attr_length_address, .Ltmp100-get_attr_length_address
	.cfi_endproc
	.section	.rodata,"a",@progbits
	.align	8
.LJTI9_0:
	.quad	.LBB9_58
	.quad	.LBB9_58
	.quad	.LBB9_58
	.quad	.LBB9_58
	.quad	.LBB9_58
	.quad	.LBB9_58
	.quad	.LBB9_58
	.quad	.LBB9_58
	.quad	.LBB9_58
	.quad	.LBB9_58
	.quad	.LBB9_58
	.quad	.LBB9_58
	.quad	.LBB9_58
	.quad	.LBB9_58
	.quad	.LBB9_58
	.quad	.LBB9_58
	.quad	.LBB9_58
	.quad	.LBB9_58
	.quad	.LBB9_58
	.quad	.LBB9_58
	.quad	.LBB9_58
	.quad	.LBB9_58
	.quad	.LBB9_58
	.quad	.LBB9_58
	.quad	.LBB9_58
	.quad	.LBB9_58
	.quad	.LBB9_58
	.quad	.LBB9_58
	.quad	.LBB9_58
	.quad	.LBB9_58
	.quad	.LBB9_58
	.quad	.LBB9_56
	.quad	.LBB9_56
	.quad	.LBB9_56
	.quad	.LBB9_56
	.quad	.LBB9_56
	.quad	.LBB9_56
	.quad	.LBB9_36
	.quad	.LBB9_56
	.quad	.LBB9_56
	.quad	.LBB9_56
	.quad	.LBB9_58
	.quad	.LBB9_58
	.quad	.LBB9_56
	.quad	.LBB9_58
	.quad	.LBB9_58
	.quad	.LBB9_56
	.quad	.LBB9_58
	.quad	.LBB9_58
	.quad	.LBB9_56
	.quad	.LBB9_58
	.quad	.LBB9_58
	.quad	.LBB9_56
	.quad	.LBB9_56
	.quad	.LBB9_56
	.quad	.LBB9_58
	.quad	.LBB9_58
	.quad	.LBB9_58
	.quad	.LBB9_58
	.quad	.LBB9_58
	.quad	.LBB9_58
	.quad	.LBB9_58
	.quad	.LBB9_58
	.quad	.LBB9_58
	.quad	.LBB9_58
	.quad	.LBB9_58
	.quad	.LBB9_58
	.quad	.LBB9_58
	.quad	.LBB9_58
	.quad	.LBB9_38
	.quad	.LBB9_38
	.quad	.LBB9_38
	.quad	.LBB9_38
	.quad	.LBB9_38
	.quad	.LBB9_38
	.quad	.LBB9_58
	.quad	.LBB9_58
.LJTI9_1:
	.quad	.LBB9_58
	.quad	.LBB9_56
	.quad	.LBB9_56
	.quad	.LBB9_56
	.quad	.LBB9_58
	.quad	.LBB9_56
	.quad	.LBB9_56
	.quad	.LBB9_58
	.quad	.LBB9_58
	.quad	.LBB9_56
	.quad	.LBB9_58
	.quad	.LBB9_58
	.quad	.LBB9_58
	.quad	.LBB9_58
	.quad	.LBB9_56
	.quad	.LBB9_56
	.quad	.LBB9_56
	.quad	.LBB9_56
	.quad	.LBB9_56
	.quad	.LBB9_56
	.quad	.LBB9_56
	.quad	.LBB9_56
	.quad	.LBB9_56
	.quad	.LBB9_56
	.quad	.LBB9_56
	.quad	.LBB9_56
	.quad	.LBB9_56
	.quad	.LBB9_56
	.quad	.LBB9_51
	.quad	.LBB9_53
	.quad	.LBB9_56
	.quad	.LBB9_56
	.quad	.LBB9_56
	.quad	.LBB9_56
	.quad	.LBB9_51
	.quad	.LBB9_53
	.quad	.LBB9_56
	.quad	.LBB9_56
	.quad	.LBB9_56
	.quad	.LBB9_56
	.quad	.LBB9_56
	.quad	.LBB9_56
	.quad	.LBB9_56
	.quad	.LBB9_56
	.quad	.LBB9_56
	.quad	.LBB9_56
	.quad	.LBB9_56
	.quad	.LBB9_56
	.quad	.LBB9_56
	.quad	.LBB9_56
	.quad	.LBB9_51
	.quad	.LBB9_53
	.quad	.LBB9_56
	.quad	.LBB9_56
	.quad	.LBB9_56
	.quad	.LBB9_56
	.quad	.LBB9_56
	.quad	.LBB9_56
	.quad	.LBB9_58
	.quad	.LBB9_50
	.quad	.LBB9_56
	.quad	.LBB9_56
	.quad	.LBB9_56
	.quad	.LBB9_56
	.quad	.LBB9_56
	.quad	.LBB9_49
	.quad	.LBB9_47
	.quad	.LBB9_53
	.quad	.LBB9_53
	.quad	.LBB9_56
	.quad	.LBB9_46
	.quad	.LBB9_46
	.quad	.LBB9_56
	.quad	.LBB9_58
	.quad	.LBB9_58
	.quad	.LBB9_58
	.quad	.LBB9_43
	.quad	.LBB9_43
	.quad	.LBB9_58
	.quad	.LBB9_58
	.quad	.LBB9_58
	.quad	.LBB9_58
	.quad	.LBB9_58
	.quad	.LBB9_42
	.quad	.LBB9_42
	.quad	.LBB9_42
	.quad	.LBB9_42
	.quad	.LBB9_58
	.quad	.LBB9_58
	.quad	.LBB9_56
	.quad	.LBB9_56
	.quad	.LBB9_56
	.quad	.LBB9_56
	.quad	.LBB9_56
	.quad	.LBB9_56
	.quad	.LBB9_56
	.quad	.LBB9_56
	.quad	.LBB9_58
	.quad	.LBB9_56
	.quad	.LBB9_56
	.quad	.LBB9_56
	.quad	.LBB9_58
	.quad	.LBB9_56
	.quad	.LBB9_56
	.quad	.LBB9_56
	.quad	.LBB9_56
	.quad	.LBB9_56
	.quad	.LBB9_56
	.quad	.LBB9_56
	.quad	.LBB9_56
	.quad	.LBB9_58
	.quad	.LBB9_58
	.quad	.LBB9_58
	.quad	.LBB9_58
	.quad	.LBB9_58
	.quad	.LBB9_56
	.quad	.LBB9_56
	.quad	.LBB9_56
	.quad	.LBB9_56
	.quad	.LBB9_56
	.quad	.LBB9_56
	.quad	.LBB9_50
	.quad	.LBB9_41
	.quad	.LBB9_56
	.quad	.LBB9_56
	.quad	.LBB9_56
	.quad	.LBB9_50
	.quad	.LBB9_56
	.quad	.LBB9_50
	.quad	.LBB9_56
	.quad	.LBB9_50
	.quad	.LBB9_56
	.quad	.LBB9_50
	.quad	.LBB9_56
	.quad	.LBB9_56
	.quad	.LBB9_56
	.quad	.LBB9_56
	.quad	.LBB9_56
	.quad	.LBB9_56
	.quad	.LBB9_56
	.quad	.LBB9_56
	.quad	.LBB9_56
	.quad	.LBB9_56
	.quad	.LBB9_56
	.quad	.LBB9_56
	.quad	.LBB9_56
	.quad	.LBB9_56
	.quad	.LBB9_58
	.quad	.LBB9_58
	.quad	.LBB9_50
	.quad	.LBB9_39
	.quad	.LBB9_56
	.quad	.LBB9_50
	.quad	.LBB9_39
	.quad	.LBB9_56
	.quad	.LBB9_50
	.quad	.LBB9_39
	.quad	.LBB9_56
	.quad	.LBB9_50
	.quad	.LBB9_39
	.quad	.LBB9_56
	.quad	.LBB9_50
	.quad	.LBB9_50
	.quad	.LBB9_50
	.quad	.LBB9_50
	.quad	.LBB9_50
	.quad	.LBB9_50
	.quad	.LBB9_58

	.text
	.globl	get_attr_type
	.align	16, 0x90
	.type	get_attr_type,@function
get_attr_type:                          # @get_attr_type
	.cfi_startproc
# BB#0:                                 # %entry
	pushq	%r15
.Ltmp105:
	.cfi_def_cfa_offset 16
	pushq	%r14
.Ltmp106:
	.cfi_def_cfa_offset 24
	pushq	%rbx
.Ltmp107:
	.cfi_def_cfa_offset 32
.Ltmp108:
	.cfi_offset %rbx, -32
.Ltmp109:
	.cfi_offset %r14, -24
.Ltmp110:
	.cfi_offset %r15, -16
	movq	%rdi, %rbx
	movslq	40(%rbx), %rax
	testq	%rax, %rax
	jns	.LBB10_2
# BB#1:                                 # %cond.false
	movq	%rbx, %rdi
	callq	recog_memoized_1
.LBB10_2:                               # %cond.end
	incq	%rax
	movabsq	$4294967295, %r15       # imm = 0xFFFFFFFF
	andq	%r15, %rax
	cmpq	$834, %rax              # imm = 0x342
	ja	.LBB10_272
# BB#3:                                 # %cond.end
	movq	$35, %r14
	jmpq	*.LJTI10_0(,%rax,8)
.LBB10_241:                             # %sw.bb705
	movq	$34, %r14
	jmp	.LBB10_273
.LBB10_271:                             # %sw.bb747
	xorq	%r14, %r14
	jmp	.LBB10_273
.LBB10_265:                             # %sw.bb729
	movq	$4, %r14
	jmp	.LBB10_273
.LBB10_259:                             # %sw.bb723
	movq	$11, %r14
	jmp	.LBB10_273
.LBB10_243:                             # %sw.bb707
	movq	$31, %r14
	jmp	.LBB10_273
.LBB10_247:                             # %sw.bb711
	movq	$27, %r14
	jmp	.LBB10_273
.LBB10_267:                             # %sw.bb731
	movq	$2, %r14
	jmp	.LBB10_273
.LBB10_262:                             # %sw.bb726
	movq	$7, %r14
	jmp	.LBB10_273
.LBB10_248:                             # %sw.bb712
	movq	$24, %r14
	jmp	.LBB10_273
.LBB10_258:                             # %sw.bb722
	movq	$12, %r14
	jmp	.LBB10_273
.LBB10_261:                             # %sw.bb725
	movq	$8, %r14
	jmp	.LBB10_273
.LBB10_266:                             # %sw.bb730
	movq	$3, %r14
	jmp	.LBB10_273
.LBB10_264:                             # %sw.bb728
	movq	$5, %r14
	jmp	.LBB10_273
.LBB10_115:                             # %sw.bb355
	movq	%rbx, %rdi
	callq	extract_constrain_insn_cached
	movl	which_alternative(%rip), %eax
	testq	%rax, %rax
	movq	$21, %r14
	je	.LBB10_273
# BB#116:                               # %select.mid30
	movq	$1, %r14
	jmp	.LBB10_273
.LBB10_260:                             # %sw.bb724
	movq	$9, %r14
	jmp	.LBB10_273
.LBB10_263:                             # %sw.bb727
	movq	$6, %r14
	jmp	.LBB10_273
.LBB10_249:                             # %sw.bb713
	movq	$21, %r14
	jmp	.LBB10_273
.LBB10_245:                             # %sw.bb709
	movq	$29, %r14
	jmp	.LBB10_273
.LBB10_254:                             # %sw.bb718
	movq	$16, %r14
	jmp	.LBB10_273
.LBB10_256:                             # %sw.bb720
	movq	$14, %r14
	jmp	.LBB10_273
.LBB10_257:                             # %sw.bb721
	movq	$13, %r14
	jmp	.LBB10_273
.LBB10_223:                             # %sw.bb666
	movq	%rbx, %rdi
	callq	extract_insn_cached
	movq	recog_data+24(%rip), %rdi
	movq	$17, %rsi
	callq	mult_operator
	testq	%r15, %rax
	movq	$25, %r14
	jne	.LBB10_273
# BB#224:                               # %if.else670
	movq	recog_data+24(%rip), %rdi
	movq	$17, %rsi
	callq	div_operator
	testq	%r15, %rax
	je	.LBB10_211
# BB#225:
	movabsq	$0, %rax
	jmp	.LBB10_212
.LBB10_226:                             # %sw.bb675
	movq	%rbx, %rdi
	callq	extract_insn_cached
	movq	recog_data+24(%rip), %rdi
	movq	$18, %rsi
	callq	mult_operator
	testq	%r15, %rax
	movq	$25, %r14
	jne	.LBB10_273
# BB#227:                               # %if.else679
	movq	recog_data+24(%rip), %rdi
	movq	$18, %rsi
	callq	div_operator
	testq	%r15, %rax
	je	.LBB10_211
# BB#228:
	movabsq	$0, %rax
	jmp	.LBB10_212
.LBB10_119:                             # %sw.bb364
	movq	%rbx, %rdi
	callq	extract_insn_cached
	movq	recog_data+16(%rip), %rdi
	movq	$4, %rsi
	movq	$4, %r14
	callq	incdec_operand
	testq	%r15, %rax
	je	.LBB10_273
# BB#120:                               # %sw.bb364
	movq	$10, %r14
	jmp	.LBB10_273
.LBB10_127:                             # %sw.bb385
	movq	%rbx, %rdi
	callq	extract_insn_cached
	movq	recog_data+16(%rip), %rdi
	movq	$3, %rsi
	callq	incdec_operand
	testq	%r15, %rax
	movq	$4, %r14
	je	.LBB10_273
# BB#128:                               # %sw.bb385
	movq	$10, %r14
	jmp	.LBB10_273
.LBB10_129:                             # %sw.bb390
	movq	%rbx, %rdi
	callq	extract_insn_cached
	movq	recog_data+16(%rip), %rdi
	movq	$2, %rsi
	callq	incdec_operand
	testq	%r15, %rax
	movq	$4, %r14
	je	.LBB10_273
# BB#130:                               # %sw.bb390
	movq	$10, %r14
	jmp	.LBB10_273
.LBB10_251:                             # %sw.bb715
	movq	$19, %r14
	jmp	.LBB10_273
.LBB10_31:                              # %sw.bb86
	movq	%rbx, %rdi
	callq	extract_constrain_insn_cached
	movl	which_alternative(%rip), %eax
	testq	%rax, %rax
	movq	$21, %r14
	je	.LBB10_273
# BB#32:                                # %select.mid10
	movq	$1, %r14
	jmp	.LBB10_273
.LBB10_252:                             # %sw.bb716
	movq	$18, %r14
	jmp	.LBB10_273
.LBB10_220:                             # %sw.bb657
	movq	%rbx, %rdi
	callq	extract_insn_cached
	movq	recog_data+24(%rip), %rdi
	movq	$16, %rsi
	callq	mult_operator
	testq	%r15, %rax
	movq	$25, %r14
	jne	.LBB10_273
# BB#221:                               # %if.else661
	movq	recog_data+24(%rip), %rdi
	movq	$16, %rsi
	callq	div_operator
	testq	%r15, %rax
	je	.LBB10_211
# BB#222:
	movabsq	$0, %rax
	jmp	.LBB10_212
.LBB10_70:                              # %sw.bb231
	movq	%rbx, %rdi
	callq	extract_constrain_insn_cached
	movl	which_alternative(%rip), %eax
	testq	%rax, %rax
	movq	$6, %r14
	je	.LBB10_273
# BB#71:                                # %select.mid16
	movq	$5, %r14
	jmp	.LBB10_273
.LBB10_253:                             # %sw.bb717
	movq	$17, %r14
	jmp	.LBB10_273
.LBB10_244:                             # %sw.bb708
	movq	$30, %r14
	jmp	.LBB10_273
.LBB10_35:                              # %sw.bb101
	movq	%rbx, %rdi
	callq	extract_constrain_insn_cached
	movl	which_alternative(%rip), %eax
	cmpq	$3, %rax
	movq	$21, %r14
	jb	.LBB10_273
# BB#36:                                # %select.mid14
	movq	$1, %r14
	jmp	.LBB10_273
.LBB10_112:                             # %sw.bb348
	movq	%rbx, %rdi
	callq	extract_constrain_insn_cached
	movl	which_alternative(%rip), %eax
	movq	$21, %r14
	testq	%rax, %rax
	je	.LBB10_273
# BB#113:                               # %sw.bb348
	cmpq	$1, %rax
	jne	.LBB10_272
# BB#114:                               # %if.then353
	movq	$1, %r14
	jmp	.LBB10_273
.LBB10_272:                             # %sw.default
	movq	$33, %r14
.LBB10_273:                             # %return
	movq	%r14, %rax
.LBB10_274:                             # %return
	popq	%rbx
	popq	%r14
	popq	%r15
	retq
.LBB10_117:                             # %sw.bb359
	movq	%rbx, %rdi
	callq	extract_insn_cached
	movq	recog_data+16(%rip), %rdi
	movq	$5, %rsi
	callq	incdec_operand
	testq	%r15, %rax
	movq	$4, %r14
	je	.LBB10_273
# BB#118:                               # %sw.bb359
	movq	$10, %r14
	jmp	.LBB10_273
.LBB10_182:                             # %sw.bb548
	movq	%rbx, %rdi
	callq	extract_constrain_insn_cached
	movl	which_alternative(%rip), %eax
	testq	%rax, %rax
	movq	$8, %r14
	je	.LBB10_273
# BB#183:                               # %select.mid32
	movq	$11, %r14
	jmp	.LBB10_273
.LBB10_213:                             # %sw.bb636
	movq	%rbx, %rdi
	callq	extract_insn_cached
	movq	recog_data+24(%rip), %rdi
	movq	$15, %rsi
	callq	mult_operator
	testq	%r15, %rax
	movq	$25, %r14
	jne	.LBB10_273
# BB#214:                               # %if.else640
	movq	recog_data+24(%rip), %rdi
	movq	$15, %rsi
	callq	div_operator
	testq	%r15, %rax
	je	.LBB10_211
# BB#215:
	movabsq	$0, %rax
	jmp	.LBB10_212
.LBB10_250:                             # %sw.bb714
	movq	$20, %r14
	jmp	.LBB10_273
.LBB10_72:                              # %sw.bb235
	movq	%rbx, %rdi
	callq	extract_constrain_insn_cached
	movl	which_alternative(%rip), %eax
	testq	%rax, %rax
	movq	$29, %r14
	je	.LBB10_273
# BB#73:                                # %select.mid18
	movq	$33, %r14
	jmp	.LBB10_273
.LBB10_104:                             # %sw.bb329
	movq	%rbx, %rdi
	callq	extract_constrain_insn_cached
	movl	which_alternative(%rip), %eax
	cmpq	$1, %rax
	movq	$16, %r14
	je	.LBB10_273
# BB#105:                               # %select.mid22
	movq	$1, %r14
	jmp	.LBB10_273
.LBB10_37:                              # %sw.bb112
	movq	%rbx, %rdi
	callq	extract_constrain_insn_cached
	movl	which_alternative(%rip), %eax
	cmpq	$3, %rax
	movq	$21, %r14
	jb	.LBB10_273
# BB#38:                                # %if.else119
	addq	$-3, %rax
	andq	%r15, %rax
	cmpq	$2, %rax
	movq	$1, %r14
	jb	.LBB10_273
# BB#39:                                # %if.else119
	movq	$33, %r14
	jmp	.LBB10_273
.LBB10_106:                             # %sw.bb336
	movq	%rbx, %rdi
	callq	extract_constrain_insn_cached
	movl	which_alternative(%rip), %eax
	testq	%rax, %rax
	movq	$8, %r14
	je	.LBB10_273
# BB#107:                               # %select.mid24
	movq	$2, %r14
	jmp	.LBB10_273
.LBB10_10:                              # %sw.bb29
	movq	%rbx, %rdi
	callq	extract_constrain_insn_cached
	movl	which_alternative(%rip), %eax
	cmpq	$2, %rax
	movq	$4, %r14
	jb	.LBB10_273
# BB#11:                                # %select.mid6
	movq	$8, %r14
	jmp	.LBB10_273
.LBB10_255:                             # %sw.bb719
	movq	$15, %r14
	jmp	.LBB10_273
.LBB10_196:                             # %sw.bb601
	movq	%rbx, %rdi
	callq	extract_insn_cached
	movq	recog_data+24(%rip), %rdi
	movq	$15, %rsi
	callq	mult_operator
	testq	%r15, %rax
	je	.LBB10_198
# BB#197:
	movabsq	$0, %rax
	jmp	.LBB10_199
.LBB10_200:                             # %sw.bb606
	movq	%rbx, %rdi
	callq	extract_constrain_insn_cached
	movl	which_alternative(%rip), %eax
	cmpq	$1, %rax
	movq	$33, %r14
	je	.LBB10_273
# BB#201:                               # %if.else609
	movq	recog_data+24(%rip), %rdi
	movq	$15, %rsi
	callq	mult_operator
	testq	%r15, %rax
	je	.LBB10_198
# BB#202:
	movabsq	$0, %rax
	jmp	.LBB10_199
.LBB10_229:                             # %sw.bb684
	movq	%rbx, %rdi
	callq	extract_constrain_insn_cached
	movl	which_alternative(%rip), %eax
	testq	%rax, %rax
	movq	$27, %r14
	je	.LBB10_273
# BB#230:                               # %select.mid34
	movq	$33, %r14
	jmp	.LBB10_273
.LBB10_8:                               # %sw.bb20
	movq	%rbx, %rdi
	callq	extract_constrain_insn_cached
	movl	which_alternative(%rip), %eax
	cmpq	$2, %rax
	movq	$28, %r14
	jb	.LBB10_273
# BB#9:                                 # %select.mid4
	movq	$20, %r14
	jmp	.LBB10_273
.LBB10_246:                             # %sw.bb710
	movq	$28, %r14
	jmp	.LBB10_273
.LBB10_268:                             # %sw.bb732
	movq	32(%rbx), %rdi
	movzbl	(%rdi), %eax
	cmpq	$40, %rax
	je	.LBB10_270
# BB#269:                               # %land.lhs.true739
	callq	asm_noperands
	movq	$32, %rcx
	shlq	%cl, %rax
	movq	$32, %rcx
	sarq	%cl, %rax
	testq	%rax, %rax
	js	.LBB10_275
.LBB10_270:                             # %sw.bb746
	movq	$1, %r14
	jmp	.LBB10_273
.LBB10_74:                              # %sw.bb239
	movq	%rbx, %rdi
	callq	extract_constrain_insn_cached
	movl	which_alternative(%rip), %eax
	leaq	-4(%rax), %rcx
	andq	%r15, %rcx
	cmpq	$3, %rcx
	movq	$34, %r14
	jb	.LBB10_273
# BB#75:                                # %if.else246
	addq	$-7, %rax
	andq	%r15, %rax
	cmpq	$3, %rax
	movq	$33, %r14
	jb	.LBB10_273
# BB#76:                                # %if.else253
	movl	flag_pic(%rip), %eax
	testq	%rax, %rax
	je	.LBB10_78
# BB#77:                                # %land.lhs.true255
	movq	recog_data+8(%rip), %rdi
	movq	$4, %rsi
	callq	symbolic_operand
	testq	%r15, %rax
	movq	$9, %r14
	jne	.LBB10_273
.LBB10_78:                              # %if.else259
	movq	$7, %r14
	jmp	.LBB10_273
.LBB10_61:                              # %sw.bb195
	movq	%rbx, %rdi
	callq	extract_constrain_insn_cached
	movl	which_alternative(%rip), %eax
	cmpq	$1, %rax
	ja	.LBB10_64
# BB#62:                                # %land.lhs.true199
	movl	ix86_cpu(%rip), %ecx
	movl	x86_partial_reg_stall(%rip), %esi
	movq	$1, %rdx
	shlq	%cl, %rdx
	andq	%rdx, %rsi
	testq	%r15, %rsi
	movq	$7, %r14
	je	.LBB10_273
# BB#63:                                # %lor.lhs.false203
	movl	x86_himode_math(%rip), %ecx
	andq	%rdx, %rcx
	testq	%r15, %rcx
	je	.LBB10_273
.LBB10_64:                              # %lor.lhs.false207
	addq	$-2, %rax
	andq	%r15, %rax
	cmpq	$2, %rax
	ja	.LBB10_66
# BB#65:                                # %land.lhs.true213
	movq	recog_data+8(%rip), %rdi
	movq	$3, %rsi
	callq	aligned_operand
	testq	%r15, %rax
	movq	$7, %r14
	jne	.LBB10_273
.LBB10_66:                              # %if.else217
	movl	ix86_cpu(%rip), %ecx
	movl	x86_movx(%rip), %eax
	movq	$1, %rdx
	shlq	%cl, %rdx
	andq	%rax, %rdx
	testq	%r15, %rdx
	je	.LBB10_69
# BB#67:                                # %land.lhs.true221
	movl	which_alternative(%rip), %eax
	cmpq	$4, %rax
	ja	.LBB10_69
# BB#68:                                # %land.lhs.true221
	movq	$8, %r14
	cmpq	$2, %rax
	jne	.LBB10_273
.LBB10_69:                              # %if.else230
	movq	$7, %r14
	jmp	.LBB10_273
.LBB10_48:                              # %sw.bb175
	movq	%rbx, %rdi
	callq	extract_constrain_insn_cached
	movl	which_alternative(%rip), %edx
	cmpq	$5, %rdx
	jne	.LBB10_50
# BB#49:
	movq	$8, %r14
	jmp	.LBB10_273
.LBB10_79:                              # %sw.bb260
	movq	%rbx, %rdi
	callq	extract_constrain_insn_cached
	movq	recog_data(%rip), %rdi
	movq	$2, %rsi
	callq	register_operand
	testq	%r15, %rax
	je	.LBB10_82
# BB#80:                                # %land.lhs.true263
	movq	recog_data(%rip), %rdi
	movq	$2, %rsi
	callq	q_regs_operand
	testq	%r15, %rax
	movq	$8, %r14
	je	.LBB10_273
# BB#81:                                # %lor.lhs.false266
	movl	ix86_cpu(%rip), %ecx
	movl	x86_movx(%rip), %eax
	movq	$1, %rdx
	shlq	%cl, %rdx
	andq	%rax, %rdx
	testq	%r15, %rdx
	jne	.LBB10_273
.LBB10_82:                              # %if.else271
	movq	$7, %r14
	jmp	.LBB10_273
.LBB10_83:                              # %sw.bb272
	movq	%rbx, %rdi
	callq	extract_constrain_insn_cached
	movq	recog_data(%rip), %rdi
	movq	$2, %rsi
	callq	register_operand
	testq	%r15, %rax
	je	.LBB10_86
# BB#84:                                # %land.lhs.true275
	movq	recog_data(%rip), %rdi
	movq	$2, %rsi
	callq	q_regs_operand
	testq	%r15, %rax
	movq	$8, %r14
	je	.LBB10_273
# BB#85:                                # %lor.lhs.false278
	movl	ix86_cpu(%rip), %ecx
	movl	x86_movx(%rip), %eax
	movq	$1, %rdx
	shlq	%cl, %rdx
	andq	%rax, %rdx
	testq	%r15, %rdx
	jne	.LBB10_273
.LBB10_86:                              # %if.else283
	movq	$7, %r14
	jmp	.LBB10_273
.LBB10_87:                              # %sw.bb284
	movq	%rbx, %rdi
	callq	extract_constrain_insn_cached
	movq	recog_data(%rip), %rdi
	movq	$2, %rsi
	callq	register_operand
	testq	%r15, %rax
	je	.LBB10_90
# BB#88:                                # %land.lhs.true287
	movq	recog_data(%rip), %rdi
	movq	$2, %rsi
	callq	q_regs_operand
	testq	%r15, %rax
	movq	$8, %r14
	je	.LBB10_273
# BB#89:                                # %lor.lhs.false290
	movl	ix86_cpu(%rip), %ecx
	movl	x86_movx(%rip), %eax
	movq	$1, %rdx
	shlq	%cl, %rdx
	andq	%rax, %rdx
	testq	%r15, %rdx
	jne	.LBB10_273
.LBB10_90:                              # %if.else295
	movq	$7, %r14
	jmp	.LBB10_273
.LBB10_91:                              # %sw.bb296
	movq	%rbx, %rdi
	callq	extract_constrain_insn_cached
	movq	recog_data(%rip), %rdi
	movq	$2, %rsi
	callq	q_regs_operand
	testq	%r15, %rax
	movq	$8, %r14
	je	.LBB10_273
# BB#92:                                # %lor.lhs.false299
	movl	ix86_cpu(%rip), %ecx
	movl	x86_movx(%rip), %eax
	movq	$1, %rdx
	shlq	%cl, %rdx
	andq	%rax, %rdx
	testq	%r15, %rdx
	jne	.LBB10_93
# BB#94:                                # %lor.lhs.false299
	movabsq	$1, %r14
	jmp	.LBB10_95
.LBB10_96:                              # %sw.bb305
	movq	%rbx, %rdi
	callq	extract_constrain_insn_cached
	movl	which_alternative(%rip), %eax
	testq	%rax, %rax
	movq	$16, %r14
	je	.LBB10_273
# BB#97:                                # %select.mid20
	movq	$1, %r14
	jmp	.LBB10_273
.LBB10_43:                              # %sw.bb159
	movq	%rbx, %rdi
	callq	extract_constrain_insn_cached
	movl	which_alternative(%rip), %eax
	xorq	%r14, %r14
	cmpq	$2, %rax
	jb	.LBB10_273
# BB#44:                                # %if.else164
	movabsq	$4294967294, %rcx       # imm = 0xFFFFFFFE
	andq	%rcx, %rax
	cmpq	$2, %rax
	jne	.LBB10_45
# BB#46:                                # %if.else164
	movabsq	$1, %r14
	addq	$33, %r14
	jmp	.LBB10_273
.LBB10_98:                              # %sw.bb309
	movq	%rbx, %rdi
	callq	extract_constrain_insn_cached
	movl	which_alternative(%rip), %eax
	leaq	-5(%rax), %rcx
	andq	%r15, %rcx
	cmpq	$2, %rcx
	movq	$34, %r14
	jb	.LBB10_273
# BB#99:                                # %if.else314
	leaq	-7(%rax), %rcx
	andq	%r15, %rcx
	cmpq	$2, %rcx
	movq	$33, %r14
	jb	.LBB10_273
# BB#100:                               # %if.else319
	andq	%r15, %rax
	movq	$1, %r14
	cmpq	$4, %rax
	je	.LBB10_273
# BB#101:                               # %if.else322
	movl	flag_pic(%rip), %eax
	testq	%rax, %rax
	je	.LBB10_103
# BB#102:                               # %land.lhs.true324
	movq	recog_data+8(%rip), %rax
	movq	$5, %rsi
	movq	%rax, %rdi
	callq	symbolic_operand
	testq	%r15, %rax
	movq	$9, %r14
	jne	.LBB10_273
.LBB10_103:                             # %if.else328
	movq	$7, %r14
	jmp	.LBB10_273
.LBB10_40:                              # %sw.bb132
	movq	%rbx, %rdi
	callq	extract_constrain_insn_cached
	movl	which_alternative(%rip), %eax
	cmpq	$3, %rax
	movq	$21, %r14
	jb	.LBB10_273
# BB#41:                                # %if.else139
	leaq	-3(%rax), %rcx
	andq	%r15, %rcx
	cmpq	$2, %rcx
	movq	$7, %r14
	jb	.LBB10_273
# BB#42:                                # %if.else144
	addq	$-5, %rax
	andq	%r15, %rax
	cmpq	$4, %rax
	sbbq	%r14, %r14
	notq	%r14
	andq	$1, %r14
	addq	$33, %r14
	jmp	.LBB10_273
.LBB10_108:                             # %sw.bb340
	movq	%rbx, %rdi
	callq	extract_constrain_insn_cached
	movl	which_alternative(%rip), %eax
	testq	%rax, %rax
	movq	$8, %r14
	je	.LBB10_273
# BB#109:                               # %select.mid26
	movq	$7, %r14
	jmp	.LBB10_273
.LBB10_33:                              # %sw.bb95
	movq	%rbx, %rdi
	callq	extract_constrain_insn_cached
	movl	which_alternative(%rip), %eax
	cmpq	$2, %rax
	movq	$21, %r14
	jb	.LBB10_273
# BB#34:                                # %select.mid12
	movq	$33, %r14
	jmp	.LBB10_273
.LBB10_28:                              # %sw.bb75
	movq	%rbx, %rdi
	callq	extract_constrain_insn_cached
	movl	which_alternative(%rip), %eax
	testq	%rax, %rax
	movq	$21, %r14
	je	.LBB10_273
# BB#29:                                # %if.else78
	decq	%rax
	andq	%r15, %rax
	cmpq	$3, %rax
	movq	$1, %r14
	jb	.LBB10_273
# BB#30:                                # %if.else78
	movq	$33, %r14
	jmp	.LBB10_273
.LBB10_110:                             # %sw.bb344
	movq	%rbx, %rdi
	callq	extract_constrain_insn_cached
	movl	which_alternative(%rip), %eax
	testq	%rax, %rax
	movq	$33, %r14
	je	.LBB10_273
# BB#111:                               # %select.mid28
	movq	$21, %r14
	jmp	.LBB10_273
.LBB10_24:                              # %sw.bb64
	movq	%rbx, %rdi
	callq	extract_constrain_insn_cached
	movl	which_alternative(%rip), %eax
	cmpq	$2, %rax
	movq	$9, %r14
	je	.LBB10_273
# BB#25:                                # %lor.lhs.false66
	movq	recog_data+16(%rip), %rdi
	movq	$5, %rsi
	callq	pic_symbolic_operand
	testq	%r15, %rax
	jne	.LBB10_273
# BB#26:                                # %if.else70
	movq	recog_data+16(%rip), %rdi
	movq	$5, %rsi
	callq	incdec_operand
	testq	%r15, %rax
	movq	$4, %r14
	je	.LBB10_273
# BB#27:                                # %if.else70
	movq	$10, %r14
	jmp	.LBB10_273
.LBB10_19:                              # %sw.bb53
	movq	%rbx, %rdi
	callq	extract_constrain_insn_cached
	movl	which_alternative(%rip), %eax
	cmpq	$2, %rax
	movq	$9, %r14
	je	.LBB10_273
# BB#20:                                # %lor.lhs.false55
	movq	recog_data+16(%rip), %rdi
	movq	$4, %rsi
	movq	$4, %rbx
	callq	pic_symbolic_operand
	testq	%r15, %rax
	jne	.LBB10_273
# BB#21:                                # %if.else59
	movq	recog_data+16(%rip), %rdi
	movq	$4, %rsi
	callq	incdec_operand
	testq	%r15, %rax
	je	.LBB10_23
# BB#22:                                # %if.else59
	movq	$10, %rbx
.LBB10_23:                              # %if.else59
	movq	%rbx, %r14
	jmp	.LBB10_273
.LBB10_14:                              # %sw.bb43
	movq	%rbx, %rdi
	callq	extract_constrain_insn_cached
	movl	which_alternative(%rip), %eax
	testq	%rax, %rax
	movq	$9, %r14
	jne	.LBB10_273
# BB#15:                                # %lor.lhs.false45
	movq	recog_data+16(%rip), %rdi
	movq	$4, %rsi
	movq	$4, %rbx
	callq	pic_symbolic_operand
	testq	%r15, %rax
	jne	.LBB10_273
# BB#16:                                # %if.else48
	movq	recog_data+16(%rip), %rdi
	movq	$4, %rsi
	callq	incdec_operand
	testq	%r15, %rax
	je	.LBB10_18
# BB#17:                                # %if.else48
	movq	$10, %rbx
.LBB10_18:                              # %if.else48
	movq	%rbx, %r14
	jmp	.LBB10_273
.LBB10_121:                             # %sw.bb369
	movq	%rbx, %rdi
	callq	extract_constrain_insn_cached
	movl	which_alternative(%rip), %eax
	cmpq	$2, %rax
	movq	$9, %r14
	je	.LBB10_273
# BB#122:                               # %if.else372
	movq	recog_data+16(%rip), %rdi
	movq	$3, %rsi
	callq	incdec_operand
	testq	%r15, %rax
	movq	$4, %r14
	je	.LBB10_273
# BB#123:                               # %if.else372
	movq	$10, %r14
	jmp	.LBB10_273
.LBB10_124:                             # %sw.bb377
	movq	%rbx, %rdi
	callq	extract_constrain_insn_cached
	movl	which_alternative(%rip), %eax
	cmpq	$3, %rax
	movq	$9, %r14
	je	.LBB10_273
# BB#125:                               # %if.else380
	movq	recog_data+16(%rip), %rdi
	movq	$2, %rsi
	callq	incdec_operand
	testq	%r15, %rax
	movq	$4, %r14
	je	.LBB10_273
# BB#126:                               # %if.else380
	movq	$10, %r14
	jmp	.LBB10_273
.LBB10_12:                              # %sw.bb35
	movq	%rbx, %rdi
	callq	extract_constrain_insn_cached
	movl	which_alternative(%rip), %eax
	cmpq	$3, %rax
	movq	$4, %r14
	jb	.LBB10_273
# BB#13:                                # %select.mid8
	movq	$8, %r14
	jmp	.LBB10_273
.LBB10_131:                             # %sw.bb395
	movq	%rbx, %rdi
	callq	extract_constrain_insn_cached
	movl	which_alternative(%rip), %eax
	cmpq	$1, %rax
	movq	$9, %r14
	je	.LBB10_273
# BB#132:                               # %if.else398
	movl	ix86_cpu(%rip), %ecx
	movl	x86_double_with_add(%rip), %eax
	movq	$1, %rdx
	shlq	%cl, %rdx
	andq	%rax, %rdx
	testq	%r15, %rdx
	je	.LBB10_135
# BB#133:                               # %land.lhs.true402
	movq	recog_data(%rip), %rdi
	xorq	%rsi, %rsi
	callq	register_operand
	testq	%r15, %rax
	je	.LBB10_135
# BB#134:                               # %land.lhs.true405
	movq	recog_data+16(%rip), %rdi
	xorq	%rsi, %rsi
	callq	const1_operand
	testq	%r15, %rax
	movq	$4, %r14
	jne	.LBB10_273
.LBB10_135:                             # %if.else409
	movq	$11, %r14
	jmp	.LBB10_273
.LBB10_136:                             # %sw.bb410
	movq	%rbx, %rdi
	callq	extract_constrain_insn_cached
	movl	ix86_cpu(%rip), %ecx
	movl	x86_double_with_add(%rip), %eax
	movq	$1, %rdx
	shlq	%cl, %rdx
	andq	%rax, %rdx
	testq	%r15, %rdx
	je	.LBB10_139
# BB#137:                               # %land.lhs.true414
	movq	recog_data(%rip), %rdi
	xorq	%rsi, %rsi
	callq	register_operand
	testq	%r15, %rax
	je	.LBB10_139
# BB#138:                               # %land.lhs.true417
	movq	recog_data+16(%rip), %rdi
	xorq	%rsi, %rsi
	callq	const1_operand
	testq	%r15, %rax
	movq	$4, %r14
	jne	.LBB10_273
.LBB10_139:                             # %if.else421
	movq	$11, %r14
	jmp	.LBB10_273
.LBB10_140:                             # %sw.bb422
	movq	%rbx, %rdi
	callq	extract_constrain_insn_cached
	movl	which_alternative(%rip), %eax
	cmpq	$1, %rax
	movq	$9, %r14
	je	.LBB10_273
# BB#141:                               # %if.else425
	movl	ix86_cpu(%rip), %ecx
	movl	x86_double_with_add(%rip), %eax
	movq	$1, %rdx
	shlq	%cl, %rdx
	andq	%rax, %rdx
	testq	%r15, %rdx
	je	.LBB10_144
# BB#142:                               # %land.lhs.true429
	movq	recog_data(%rip), %rdi
	xorq	%rsi, %rsi
	callq	register_operand
	testq	%r15, %rax
	je	.LBB10_144
# BB#143:                               # %land.lhs.true432
	movq	recog_data+16(%rip), %rdi
	xorq	%rsi, %rsi
	callq	const1_operand
	testq	%r15, %rax
	movq	$4, %r14
	jne	.LBB10_273
.LBB10_144:                             # %if.else436
	movq	$11, %r14
	jmp	.LBB10_273
.LBB10_145:                             # %sw.bb437
	movq	%rbx, %rdi
	callq	extract_constrain_insn_cached
	movl	which_alternative(%rip), %eax
	cmpq	$1, %rax
	movq	$9, %r14
	je	.LBB10_273
# BB#146:                               # %if.else440
	movl	ix86_cpu(%rip), %ecx
	movl	x86_double_with_add(%rip), %eax
	movq	$1, %rdx
	shlq	%cl, %rdx
	andq	%rax, %rdx
	testq	%r15, %rdx
	je	.LBB10_148
# BB#147:                               # %land.lhs.true444
	movq	recog_data+16(%rip), %rdi
	xorq	%rsi, %rsi
	callq	const1_operand
	testq	%r15, %rax
	movq	$4, %r14
	jne	.LBB10_273
.LBB10_148:                             # %if.else448
	movq	$11, %r14
	jmp	.LBB10_273
.LBB10_149:                             # %sw.bb449
	movq	%rbx, %rdi
	callq	extract_constrain_insn_cached
	movl	ix86_cpu(%rip), %ecx
	movl	x86_double_with_add(%rip), %eax
	movq	$1, %rdx
	shlq	%cl, %rdx
	andq	%rax, %rdx
	testq	%r15, %rdx
	je	.LBB10_152
# BB#150:                               # %land.lhs.true453
	movq	recog_data(%rip), %rdi
	xorq	%rsi, %rsi
	callq	register_operand
	testq	%r15, %rax
	je	.LBB10_152
# BB#151:                               # %land.lhs.true456
	movq	recog_data+16(%rip), %rdi
	xorq	%rsi, %rsi
	callq	const1_operand
	testq	%r15, %rax
	movq	$4, %r14
	jne	.LBB10_273
.LBB10_152:                             # %if.else460
	movq	$11, %r14
	jmp	.LBB10_273
.LBB10_153:                             # %sw.bb461
	movq	%rbx, %rdi
	callq	extract_constrain_insn_cached
	movl	ix86_cpu(%rip), %ecx
	movl	x86_double_with_add(%rip), %eax
	movq	$1, %rdx
	shlq	%cl, %rdx
	andq	%rax, %rdx
	testq	%r15, %rdx
	je	.LBB10_155
# BB#154:                               # %land.lhs.true465
	movq	recog_data+16(%rip), %rdi
	xorq	%rsi, %rsi
	callq	const1_operand
	testq	%r15, %rax
	movq	$4, %r14
	jne	.LBB10_273
.LBB10_155:                             # %if.else469
	movq	$11, %r14
	jmp	.LBB10_273
.LBB10_156:                             # %sw.bb470
	movq	%rbx, %rdi
	callq	extract_constrain_insn_cached
	movl	which_alternative(%rip), %eax
	cmpq	$1, %rax
	movq	$9, %r14
	je	.LBB10_273
# BB#157:                               # %if.else473
	movl	ix86_cpu(%rip), %ecx
	movl	x86_double_with_add(%rip), %eax
	movq	$1, %rdx
	shlq	%cl, %rdx
	andq	%rax, %rdx
	testq	%r15, %rdx
	je	.LBB10_160
# BB#158:                               # %land.lhs.true477
	movq	recog_data(%rip), %rdi
	xorq	%rsi, %rsi
	callq	register_operand
	testq	%r15, %rax
	je	.LBB10_160
# BB#159:                               # %land.lhs.true480
	movq	recog_data+16(%rip), %rdi
	xorq	%rsi, %rsi
	callq	const1_operand
	testq	%r15, %rax
	movq	$4, %r14
	jne	.LBB10_273
.LBB10_160:                             # %if.else484
	movq	$11, %r14
	jmp	.LBB10_273
.LBB10_161:                             # %sw.bb485
	movq	%rbx, %rdi
	callq	extract_constrain_insn_cached
	movl	ix86_cpu(%rip), %ecx
	movl	x86_double_with_add(%rip), %eax
	movq	$1, %rdx
	shlq	%cl, %rdx
	andq	%rax, %rdx
	testq	%r15, %rdx
	je	.LBB10_164
# BB#162:                               # %land.lhs.true489
	movq	recog_data(%rip), %rdi
	xorq	%rsi, %rsi
	callq	register_operand
	testq	%r15, %rax
	je	.LBB10_164
# BB#163:                               # %land.lhs.true492
	movq	recog_data+16(%rip), %rdi
	xorq	%rsi, %rsi
	callq	const1_operand
	testq	%r15, %rax
	movq	$4, %r14
	jne	.LBB10_273
.LBB10_164:                             # %if.else496
	movq	$11, %r14
	jmp	.LBB10_273
.LBB10_165:                             # %sw.bb497
	movq	%rbx, %rdi
	callq	extract_constrain_insn_cached
	movl	ix86_cpu(%rip), %ecx
	movl	x86_double_with_add(%rip), %eax
	movq	$1, %rdx
	shlq	%cl, %rdx
	andq	%rax, %rdx
	testq	%r15, %rdx
	je	.LBB10_168
# BB#166:                               # %land.lhs.true501
	movq	recog_data(%rip), %rdi
	xorq	%rsi, %rsi
	callq	register_operand
	testq	%r15, %rax
	je	.LBB10_168
# BB#167:                               # %land.lhs.true504
	movq	recog_data+16(%rip), %rdi
	xorq	%rsi, %rsi
	callq	const1_operand
	testq	%r15, %rax
	movq	$4, %r14
	jne	.LBB10_273
.LBB10_168:                             # %if.else508
	movq	$11, %r14
	jmp	.LBB10_273
.LBB10_169:                             # %sw.bb509
	movq	%rbx, %rdi
	callq	extract_constrain_insn_cached
	movl	which_alternative(%rip), %eax
	cmpq	$2, %rax
	movq	$9, %r14
	je	.LBB10_273
# BB#170:                               # %if.else512
	movl	ix86_cpu(%rip), %ecx
	movl	x86_double_with_add(%rip), %eax
	movq	$1, %rdx
	shlq	%cl, %rdx
	andq	%rax, %rdx
	testq	%r15, %rdx
	je	.LBB10_173
# BB#171:                               # %land.lhs.true516
	movq	recog_data(%rip), %rdi
	xorq	%rsi, %rsi
	callq	register_operand
	testq	%r15, %rax
	je	.LBB10_173
# BB#172:                               # %land.lhs.true519
	movq	recog_data+16(%rip), %rdi
	xorq	%rsi, %rsi
	callq	const1_operand
	testq	%r15, %rax
	movq	$4, %r14
	jne	.LBB10_273
.LBB10_173:                             # %if.else523
	movq	$11, %r14
	jmp	.LBB10_273
.LBB10_174:                             # %sw.bb524
	movq	%rbx, %rdi
	callq	extract_constrain_insn_cached
	movl	ix86_cpu(%rip), %ecx
	movl	x86_double_with_add(%rip), %eax
	movq	$1, %rdx
	shlq	%cl, %rdx
	andq	%rax, %rdx
	testq	%r15, %rdx
	je	.LBB10_177
# BB#175:                               # %land.lhs.true528
	movq	recog_data(%rip), %rdi
	xorq	%rsi, %rsi
	callq	register_operand
	testq	%r15, %rax
	je	.LBB10_177
# BB#176:                               # %land.lhs.true531
	movq	recog_data+16(%rip), %rdi
	xorq	%rsi, %rsi
	callq	const1_operand
	testq	%r15, %rax
	movq	$4, %r14
	jne	.LBB10_273
.LBB10_177:                             # %if.else535
	movq	$11, %r14
	jmp	.LBB10_273
.LBB10_178:                             # %sw.bb536
	movq	%rbx, %rdi
	callq	extract_constrain_insn_cached
	movl	ix86_cpu(%rip), %ecx
	movl	x86_double_with_add(%rip), %eax
	movq	$1, %rdx
	shlq	%cl, %rdx
	andq	%rax, %rdx
	testq	%r15, %rdx
	je	.LBB10_181
# BB#179:                               # %land.lhs.true540
	movq	recog_data(%rip), %rdi
	xorq	%rsi, %rsi
	callq	register_operand
	testq	%r15, %rax
	je	.LBB10_181
# BB#180:                               # %land.lhs.true543
	movq	recog_data+16(%rip), %rdi
	xorq	%rsi, %rsi
	callq	const1_operand
	testq	%r15, %rax
	movq	$4, %r14
	jne	.LBB10_273
.LBB10_181:                             # %if.else547
	movq	$11, %r14
	jmp	.LBB10_273
.LBB10_184:                             # %sw.bb552
	movq	%rbx, %rdi
	callq	extract_constrain_insn_cached
	movl	which_alternative(%rip), %eax
	testq	%rax, %rax
	jne	.LBB10_195
# BB#185:                               # %land.lhs.true554
	movq	insn_addresses_(%rip), %rax
	xorq	%r14, %r14
	testq	%rax, %rax
	je	.LBB10_189
# BB#186:                               # %cond.true556
	movq	recog_data(%rip), %rcx
	movzbl	(%rcx), %edx
	cmpq	$67, %rdx
	jne	.LBB10_188
# BB#187:                               # %cond.true558
	movq	8(%rcx), %rcx
.LBB10_188:                             # %cond.end562
	movslq	8(%rcx), %rcx
	movl	32(%rax,%rcx,4), %r14d
.LBB10_189:                             # %cond.end569
	movq	%rbx, %rdi
	callq	insn_current_reference_address
	subq	%rax, %r14
	movq	$32, %rcx
	shlq	%cl, %r14
	movq	$32, %rcx
	sarq	%cl, %r14
	cmpq	$-128, %r14
	jl	.LBB10_195
# BB#190:                               # %land.lhs.true573
	movq	insn_addresses_(%rip), %rax
	xorq	%r14, %r14
	testq	%rax, %rax
	je	.LBB10_194
# BB#191:                               # %cond.true575
	movq	recog_data(%rip), %rcx
	movzbl	(%rcx), %edx
	cmpq	$67, %rdx
	jne	.LBB10_193
# BB#192:                               # %cond.true579
	movq	8(%rcx), %rcx
.LBB10_193:                             # %cond.end584
	movslq	8(%rcx), %rcx
	movl	32(%rax,%rcx,4), %r14d
.LBB10_194:                             # %cond.end594
	movq	%rbx, %rdi
	callq	insn_current_reference_address
	subq	%rax, %r14
	movq	$32, %rcx
	shlq	%cl, %r14
	movq	$32, %rcx
	sarq	%cl, %r14
	cmpq	$124, %r14
	movq	$14, %r14
	jl	.LBB10_273
.LBB10_195:                             # %if.else600
	movq	$1, %r14
	jmp	.LBB10_273
.LBB10_203:                             # %sw.bb614
	movq	%rbx, %rdi
	callq	extract_insn_cached
	movq	recog_data+24(%rip), %rdi
	movq	$17, %rsi
	callq	mult_operator
	testq	%r15, %rax
	je	.LBB10_198
# BB#204:
	movabsq	$0, %rax
	jmp	.LBB10_199
.LBB10_205:                             # %sw.bb619
	movq	%rbx, %rdi
	callq	extract_insn_cached
	movq	recog_data+24(%rip), %rdi
	movq	$18, %rsi
	callq	mult_operator
	testq	%r15, %rax
	jne	.LBB10_206
.LBB10_198:                             # %sw.bb601
	movabsq	$1, %rax
	jmp	.LBB10_199
.LBB10_207:                             # %sw.bb624
	movq	%rbx, %rdi
	callq	extract_constrain_insn_cached
	movl	which_alternative(%rip), %eax
	cmpq	$2, %rax
	movq	$33, %r14
	je	.LBB10_273
# BB#208:                               # %if.else627
	movq	recog_data+24(%rip), %rdi
	movq	$15, %rsi
	callq	mult_operator
	testq	%r15, %rax
	movq	$25, %r14
	jne	.LBB10_273
# BB#209:                               # %if.else631
	movq	recog_data+24(%rip), %rdi
	movq	$15, %rsi
	callq	div_operator
	testq	%r15, %rax
	je	.LBB10_211
# BB#210:
	movabsq	$0, %rax
	jmp	.LBB10_212
.LBB10_216:                             # %sw.bb645
	movq	%rbx, %rdi
	callq	extract_constrain_insn_cached
	movl	which_alternative(%rip), %eax
	cmpq	$2, %rax
	movq	$33, %r14
	je	.LBB10_273
# BB#217:                               # %if.else648
	movq	recog_data+24(%rip), %rdi
	movq	$16, %rsi
	callq	mult_operator
	testq	%r15, %rax
	movq	$25, %r14
	jne	.LBB10_273
# BB#218:                               # %if.else652
	movq	recog_data+24(%rip), %rdi
	movq	$16, %rsi
	callq	div_operator
	testq	%r15, %rax
	jne	.LBB10_219
.LBB10_211:                             # %if.else631
	movabsq	$1, %rax
.LBB10_212:                             # %if.else631
	xorq	$1, %rax
	leaq	22(,%rax,4), %r14
	jmp	.LBB10_273
.LBB10_242:                             # %sw.bb706
	movq	$32, %r14
	jmp	.LBB10_273
.LBB10_6:                               # %sw.bb11
	movq	%rbx, %rdi
	callq	extract_constrain_insn_cached
	movl	which_alternative(%rip), %eax
	cmpq	$2, %rax
	movq	$28, %r14
	jb	.LBB10_273
# BB#7:                                 # %select.mid2
	movq	$1, %r14
	jmp	.LBB10_273
.LBB10_231:                             # %sw.bb688
	movq	%rbx, %rdi
	callq	extract_constrain_insn_cached
	movl	which_alternative(%rip), %eax
	testq	%rax, %rax
	movq	$4, %r14
	je	.LBB10_273
# BB#232:                               # %if.else691
	movq	recog_data+16(%rip), %rdi
	movq	$4, %rsi
	callq	const0_operand
	testq	%r15, %rax
	jne	.LBB10_233
# BB#234:                               # %if.else691
	movabsq	$1, %rax
	leaq	7(%rax,%rax), %r14
	jmp	.LBB10_273
.LBB10_236:                             # %sw.bb696
	movq	%rbx, %rdi
	callq	extract_constrain_insn_cached
	movl	which_alternative(%rip), %eax
	testq	%rax, %rax
	movq	$4, %r14
	je	.LBB10_273
# BB#237:                               # %if.else699
	movq	recog_data+16(%rip), %rdi
	movq	$5, %rsi
	callq	const0_operand
	testq	%r15, %rax
	jne	.LBB10_238
# BB#239:                               # %if.else699
	movabsq	$1, %rax
	leaq	7(%rax,%rax), %r14
	jmp	.LBB10_273
.LBB10_4:                               # %sw.bb
	movq	%rbx, %rdi
	callq	extract_constrain_insn_cached
	movl	which_alternative(%rip), %eax
	xorq	%r14, %r14
	cmpq	$2, %rax
	jb	.LBB10_273
# BB#5:                                 # %select.mid
	movq	$33, %r14
	jmp	.LBB10_273
.LBB10_50:                              # %sw.bb175
	cmpq	$3, %rdx
	jne	.LBB10_56
# BB#51:                                # %land.lhs.true
	movl	ix86_cpu(%rip), %ecx
	movl	x86_partial_reg_stall(%rip), %esi
	movq	$1, %rax
	shlq	%cl, %rax
	andq	%rax, %rsi
	testq	%r15, %rsi
	movq	$7, %r14
	je	.LBB10_273
# BB#52:                                # %lor.lhs.false178
	movl	x86_qimode_math(%rip), %ecx
	andq	%rax, %rcx
	testq	%r15, %rcx
	je	.LBB10_273
# BB#53:                                # %if.else183
	cmpq	$3, %rdx
	jne	.LBB10_55
# BB#54:
	movq	$8, %r14
	jmp	.LBB10_273
.LBB10_206:
	movabsq	$0, %rax
.LBB10_199:                             # %sw.bb601
	xorq	$1, %rax
	leaq	22(%rax,%rax,2), %r14
	jmp	.LBB10_273
.LBB10_93:
	movabsq	$0, %r14
.LBB10_95:                              # %lor.lhs.false299
	xorq	$1, %r14
	addq	$7, %r14
	jmp	.LBB10_273
.LBB10_233:
	movabsq	$0, %rax
	leaq	7(%rax,%rax), %r14
	jmp	.LBB10_273
.LBB10_238:
	movabsq	$0, %rax
	leaq	7(%rax,%rax), %r14
	jmp	.LBB10_273
.LBB10_45:
	movabsq	$0, %r14
	addq	$33, %r14
	jmp	.LBB10_273
.LBB10_275:                             # %if.then745
	movabsq	$.L.str, %rax
	movabsq	$.L__FUNCTION__.get_attr_type, %rcx
	movq	$21978, %rdx            # imm = 0x55DA
	movq	%rbx, %rdi
	movq	%rax, %rsi
	callq	_fatal_insn_not_found
.LBB10_219:
	movabsq	$0, %rax
	jmp	.LBB10_212
.LBB10_55:                              # %if.else183
	cmpq	$5, %rdx
	movq	$8, %r14
	je	.LBB10_273
.LBB10_56:                              # %lor.lhs.false187
	movl	ix86_cpu(%rip), %ecx
	movl	x86_movx(%rip), %eax
	movq	$1, %rsi
	shlq	%cl, %rsi
	andq	%rax, %rsi
	testq	%r15, %rsi
	movabsq	$0, %rcx
	movabsq	$1, %rsi
	movq	%rcx, %rax
	je	.LBB10_58
# BB#57:                                # %lor.lhs.false187
	movq	%rsi, %rax
.LBB10_58:                              # %lor.lhs.false187
	cmpq	$2, %rdx
	jne	.LBB10_60
# BB#59:                                # %lor.lhs.false187
	movq	%rsi, %rcx
.LBB10_60:                              # %lor.lhs.false187
	andq	%rcx, %rax
	addq	$7, %rax
	jmp	.LBB10_274
.Ltmp111:
	.size	get_attr_type, .Ltmp111-get_attr_type
	.cfi_endproc
	.section	.rodata,"a",@progbits
	.align	8
.LJTI10_0:
	.quad	.LBB10_268
	.quad	.LBB10_70
	.quad	.LBB10_264
	.quad	.LBB10_264
	.quad	.LBB10_70
	.quad	.LBB10_264
	.quad	.LBB10_264
	.quad	.LBB10_70
	.quad	.LBB10_264
	.quad	.LBB10_264
	.quad	.LBB10_70
	.quad	.LBB10_264
	.quad	.LBB10_264
	.quad	.LBB10_264
	.quad	.LBB10_264
	.quad	.LBB10_263
	.quad	.LBB10_264
	.quad	.LBB10_264
	.quad	.LBB10_264
	.quad	.LBB10_270
	.quad	.LBB10_245
	.quad	.LBB10_245
	.quad	.LBB10_245
	.quad	.LBB10_270
	.quad	.LBB10_245
	.quad	.LBB10_245
	.quad	.LBB10_270
	.quad	.LBB10_270
	.quad	.LBB10_245
	.quad	.LBB10_270
	.quad	.LBB10_271
	.quad	.LBB10_271
	.quad	.LBB10_271
	.quad	.LBB10_245
	.quad	.LBB10_72
	.quad	.LBB10_272
	.quad	.LBB10_245
	.quad	.LBB10_72
	.quad	.LBB10_272
	.quad	.LBB10_254
	.quad	.LBB10_254
	.quad	.LBB10_254
	.quad	.LBB10_253
	.quad	.LBB10_253
	.quad	.LBB10_267
	.quad	.LBB10_267
	.quad	.LBB10_74
	.quad	.LBB10_262
	.quad	.LBB10_262
	.quad	.LBB10_262
	.quad	.LBB10_254
	.quad	.LBB10_254
	.quad	.LBB10_61
	.quad	.LBB10_262
	.quad	.LBB10_262
	.quad	.LBB10_262
	.quad	.LBB10_262
	.quad	.LBB10_262
	.quad	.LBB10_267
	.quad	.LBB10_254
	.quad	.LBB10_254
	.quad	.LBB10_48
	.quad	.LBB10_262
	.quad	.LBB10_262
	.quad	.LBB10_267
	.quad	.LBB10_261
	.quad	.LBB10_261
	.quad	.LBB10_79
	.quad	.LBB10_83
	.quad	.LBB10_262
	.quad	.LBB10_262
	.quad	.LBB10_261
	.quad	.LBB10_87
	.quad	.LBB10_91
	.quad	.LBB10_262
	.quad	.LBB10_262
	.quad	.LBB10_262
	.quad	.LBB10_271
	.quad	.LBB10_96
	.quad	.LBB10_254
	.quad	.LBB10_253
	.quad	.LBB10_253
	.quad	.LBB10_267
	.quad	.LBB10_267
	.quad	.LBB10_43
	.quad	.LBB10_98
	.quad	.LBB10_262
	.quad	.LBB10_262
	.quad	.LBB10_262
	.quad	.LBB10_104
	.quad	.LBB10_104
	.quad	.LBB10_40
	.quad	.LBB10_244
	.quad	.LBB10_270
	.quad	.LBB10_270
	.quad	.LBB10_37
	.quad	.LBB10_37
	.quad	.LBB10_244
	.quad	.LBB10_270
	.quad	.LBB10_270
	.quad	.LBB10_270
	.quad	.LBB10_270
	.quad	.LBB10_35
	.quad	.LBB10_35
	.quad	.LBB10_35
	.quad	.LBB10_35
	.quad	.LBB10_244
	.quad	.LBB10_244
	.quad	.LBB10_267
	.quad	.LBB10_261
	.quad	.LBB10_267
	.quad	.LBB10_106
	.quad	.LBB10_261
	.quad	.LBB10_267
	.quad	.LBB10_106
	.quad	.LBB10_261
	.quad	.LBB10_271
	.quad	.LBB10_108
	.quad	.LBB10_261
	.quad	.LBB10_261
	.quad	.LBB10_271
	.quad	.LBB10_261
	.quad	.LBB10_261
	.quad	.LBB10_261
	.quad	.LBB10_261
	.quad	.LBB10_261
	.quad	.LBB10_261
	.quad	.LBB10_261
	.quad	.LBB10_261
	.quad	.LBB10_271
	.quad	.LBB10_271
	.quad	.LBB10_271
	.quad	.LBB10_271
	.quad	.LBB10_271
	.quad	.LBB10_33
	.quad	.LBB10_272
	.quad	.LBB10_249
	.quad	.LBB10_249
	.quad	.LBB10_249
	.quad	.LBB10_249
	.quad	.LBB10_31
	.quad	.LBB10_28
	.quad	.LBB10_110
	.quad	.LBB10_249
	.quad	.LBB10_272
	.quad	.LBB10_31
	.quad	.LBB10_249
	.quad	.LBB10_31
	.quad	.LBB10_249
	.quad	.LBB10_31
	.quad	.LBB10_249
	.quad	.LBB10_31
	.quad	.LBB10_249
	.quad	.LBB10_273
	.quad	.LBB10_273
	.quad	.LBB10_273
	.quad	.LBB10_272
	.quad	.LBB10_272
	.quad	.LBB10_273
	.quad	.LBB10_273
	.quad	.LBB10_273
	.quad	.LBB10_272
	.quad	.LBB10_272
	.quad	.LBB10_273
	.quad	.LBB10_273
	.quad	.LBB10_273
	.quad	.LBB10_271
	.quad	.LBB10_271
	.quad	.LBB10_115
	.quad	.LBB10_112
	.quad	.LBB10_272
	.quad	.LBB10_115
	.quad	.LBB10_112
	.quad	.LBB10_272
	.quad	.LBB10_115
	.quad	.LBB10_112
	.quad	.LBB10_272
	.quad	.LBB10_115
	.quad	.LBB10_112
	.quad	.LBB10_272
	.quad	.LBB10_115
	.quad	.LBB10_115
	.quad	.LBB10_115
	.quad	.LBB10_115
	.quad	.LBB10_115
	.quad	.LBB10_115
	.quad	.LBB10_271
	.quad	.LBB10_265
	.quad	.LBB10_265
	.quad	.LBB10_265
	.quad	.LBB10_265
	.quad	.LBB10_265
	.quad	.LBB10_265
	.quad	.LBB10_260
	.quad	.LBB10_260
	.quad	.LBB10_260
	.quad	.LBB10_260
	.quad	.LBB10_260
	.quad	.LBB10_260
	.quad	.LBB10_260
	.quad	.LBB10_260
	.quad	.LBB10_260
	.quad	.LBB10_260
	.quad	.LBB10_24
	.quad	.LBB10_117
	.quad	.LBB10_117
	.quad	.LBB10_117
	.quad	.LBB10_117
	.quad	.LBB10_19
	.quad	.LBB10_14
	.quad	.LBB10_119
	.quad	.LBB10_119
	.quad	.LBB10_119
	.quad	.LBB10_119
	.quad	.LBB10_119
	.quad	.LBB10_119
	.quad	.LBB10_121
	.quad	.LBB10_127
	.quad	.LBB10_127
	.quad	.LBB10_127
	.quad	.LBB10_127
	.quad	.LBB10_127
	.quad	.LBB10_124
	.quad	.LBB10_129
	.quad	.LBB10_129
	.quad	.LBB10_129
	.quad	.LBB10_127
	.quad	.LBB10_129
	.quad	.LBB10_129
	.quad	.LBB10_129
	.quad	.LBB10_265
	.quad	.LBB10_271
	.quad	.LBB10_265
	.quad	.LBB10_265
	.quad	.LBB10_265
	.quad	.LBB10_265
	.quad	.LBB10_265
	.quad	.LBB10_265
	.quad	.LBB10_265
	.quad	.LBB10_265
	.quad	.LBB10_265
	.quad	.LBB10_265
	.quad	.LBB10_265
	.quad	.LBB10_265
	.quad	.LBB10_265
	.quad	.LBB10_265
	.quad	.LBB10_265
	.quad	.LBB10_265
	.quad	.LBB10_265
	.quad	.LBB10_265
	.quad	.LBB10_258
	.quad	.LBB10_258
	.quad	.LBB10_258
	.quad	.LBB10_258
	.quad	.LBB10_258
	.quad	.LBB10_258
	.quad	.LBB10_258
	.quad	.LBB10_258
	.quad	.LBB10_258
	.quad	.LBB10_258
	.quad	.LBB10_258
	.quad	.LBB10_258
	.quad	.LBB10_258
	.quad	.LBB10_258
	.quad	.LBB10_258
	.quad	.LBB10_258
	.quad	.LBB10_258
	.quad	.LBB10_257
	.quad	.LBB10_257
	.quad	.LBB10_270
	.quad	.LBB10_270
	.quad	.LBB10_257
	.quad	.LBB10_270
	.quad	.LBB10_270
	.quad	.LBB10_257
	.quad	.LBB10_270
	.quad	.LBB10_270
	.quad	.LBB10_257
	.quad	.LBB10_270
	.quad	.LBB10_257
	.quad	.LBB10_257
	.quad	.LBB10_263
	.quad	.LBB10_263
	.quad	.LBB10_263
	.quad	.LBB10_263
	.quad	.LBB10_263
	.quad	.LBB10_263
	.quad	.LBB10_263
	.quad	.LBB10_263
	.quad	.LBB10_271
	.quad	.LBB10_271
	.quad	.LBB10_12
	.quad	.LBB10_265
	.quad	.LBB10_10
	.quad	.LBB10_265
	.quad	.LBB10_265
	.quad	.LBB10_265
	.quad	.LBB10_10
	.quad	.LBB10_265
	.quad	.LBB10_265
	.quad	.LBB10_267
	.quad	.LBB10_265
	.quad	.LBB10_267
	.quad	.LBB10_265
	.quad	.LBB10_265
	.quad	.LBB10_265
	.quad	.LBB10_265
	.quad	.LBB10_265
	.quad	.LBB10_265
	.quad	.LBB10_265
	.quad	.LBB10_265
	.quad	.LBB10_265
	.quad	.LBB10_265
	.quad	.LBB10_265
	.quad	.LBB10_265
	.quad	.LBB10_265
	.quad	.LBB10_265
	.quad	.LBB10_265
	.quad	.LBB10_265
	.quad	.LBB10_265
	.quad	.LBB10_265
	.quad	.LBB10_265
	.quad	.LBB10_267
	.quad	.LBB10_265
	.quad	.LBB10_267
	.quad	.LBB10_265
	.quad	.LBB10_265
	.quad	.LBB10_265
	.quad	.LBB10_265
	.quad	.LBB10_265
	.quad	.LBB10_265
	.quad	.LBB10_265
	.quad	.LBB10_265
	.quad	.LBB10_265
	.quad	.LBB10_265
	.quad	.LBB10_265
	.quad	.LBB10_265
	.quad	.LBB10_265
	.quad	.LBB10_265
	.quad	.LBB10_265
	.quad	.LBB10_265
	.quad	.LBB10_265
	.quad	.LBB10_265
	.quad	.LBB10_265
	.quad	.LBB10_265
	.quad	.LBB10_271
	.quad	.LBB10_266
	.quad	.LBB10_266
	.quad	.LBB10_266
	.quad	.LBB10_266
	.quad	.LBB10_266
	.quad	.LBB10_266
	.quad	.LBB10_266
	.quad	.LBB10_266
	.quad	.LBB10_266
	.quad	.LBB10_266
	.quad	.LBB10_271
	.quad	.LBB10_271
	.quad	.LBB10_271
	.quad	.LBB10_271
	.quad	.LBB10_271
	.quad	.LBB10_271
	.quad	.LBB10_271
	.quad	.LBB10_271
	.quad	.LBB10_271
	.quad	.LBB10_271
	.quad	.LBB10_248
	.quad	.LBB10_248
	.quad	.LBB10_248
	.quad	.LBB10_248
	.quad	.LBB10_248
	.quad	.LBB10_248
	.quad	.LBB10_248
	.quad	.LBB10_248
	.quad	.LBB10_248
	.quad	.LBB10_271
	.quad	.LBB10_271
	.quad	.LBB10_271
	.quad	.LBB10_271
	.quad	.LBB10_271
	.quad	.LBB10_271
	.quad	.LBB10_271
	.quad	.LBB10_271
	.quad	.LBB10_271
	.quad	.LBB10_271
	.quad	.LBB10_248
	.quad	.LBB10_248
	.quad	.LBB10_248
	.quad	.LBB10_248
	.quad	.LBB10_248
	.quad	.LBB10_248
	.quad	.LBB10_248
	.quad	.LBB10_248
	.quad	.LBB10_248
	.quad	.LBB10_266
	.quad	.LBB10_267
	.quad	.LBB10_266
	.quad	.LBB10_266
	.quad	.LBB10_267
	.quad	.LBB10_267
	.quad	.LBB10_266
	.quad	.LBB10_267
	.quad	.LBB10_266
	.quad	.LBB10_267
	.quad	.LBB10_131
	.quad	.LBB10_136
	.quad	.LBB10_270
	.quad	.LBB10_270
	.quad	.LBB10_259
	.quad	.LBB10_140
	.quad	.LBB10_145
	.quad	.LBB10_149
	.quad	.LBB10_153
	.quad	.LBB10_156
	.quad	.LBB10_161
	.quad	.LBB10_165
	.quad	.LBB10_169
	.quad	.LBB10_174
	.quad	.LBB10_178
	.quad	.LBB10_182
	.quad	.LBB10_259
	.quad	.LBB10_259
	.quad	.LBB10_259
	.quad	.LBB10_259
	.quad	.LBB10_270
	.quad	.LBB10_270
	.quad	.LBB10_259
	.quad	.LBB10_182
	.quad	.LBB10_182
	.quad	.LBB10_259
	.quad	.LBB10_259
	.quad	.LBB10_259
	.quad	.LBB10_259
	.quad	.LBB10_259
	.quad	.LBB10_259
	.quad	.LBB10_259
	.quad	.LBB10_259
	.quad	.LBB10_259
	.quad	.LBB10_259
	.quad	.LBB10_259
	.quad	.LBB10_259
	.quad	.LBB10_259
	.quad	.LBB10_259
	.quad	.LBB10_259
	.quad	.LBB10_259
	.quad	.LBB10_259
	.quad	.LBB10_259
	.quad	.LBB10_259
	.quad	.LBB10_259
	.quad	.LBB10_270
	.quad	.LBB10_270
	.quad	.LBB10_259
	.quad	.LBB10_259
	.quad	.LBB10_259
	.quad	.LBB10_259
	.quad	.LBB10_259
	.quad	.LBB10_259
	.quad	.LBB10_259
	.quad	.LBB10_259
	.quad	.LBB10_259
	.quad	.LBB10_259
	.quad	.LBB10_259
	.quad	.LBB10_259
	.quad	.LBB10_259
	.quad	.LBB10_259
	.quad	.LBB10_259
	.quad	.LBB10_259
	.quad	.LBB10_259
	.quad	.LBB10_259
	.quad	.LBB10_259
	.quad	.LBB10_259
	.quad	.LBB10_259
	.quad	.LBB10_259
	.quad	.LBB10_259
	.quad	.LBB10_259
	.quad	.LBB10_259
	.quad	.LBB10_259
	.quad	.LBB10_259
	.quad	.LBB10_259
	.quad	.LBB10_259
	.quad	.LBB10_259
	.quad	.LBB10_259
	.quad	.LBB10_259
	.quad	.LBB10_259
	.quad	.LBB10_259
	.quad	.LBB10_259
	.quad	.LBB10_259
	.quad	.LBB10_255
	.quad	.LBB10_255
	.quad	.LBB10_272
	.quad	.LBB10_272
	.quad	.LBB10_256
	.quad	.LBB10_256
	.quad	.LBB10_271
	.quad	.LBB10_271
	.quad	.LBB10_271
	.quad	.LBB10_271
	.quad	.LBB10_271
	.quad	.LBB10_271
	.quad	.LBB10_271
	.quad	.LBB10_271
	.quad	.LBB10_271
	.quad	.LBB10_271
	.quad	.LBB10_256
	.quad	.LBB10_256
	.quad	.LBB10_256
	.quad	.LBB10_256
	.quad	.LBB10_256
	.quad	.LBB10_184
	.quad	.LBB10_252
	.quad	.LBB10_252
	.quad	.LBB10_252
	.quad	.LBB10_252
	.quad	.LBB10_252
	.quad	.LBB10_271
	.quad	.LBB10_271
	.quad	.LBB10_271
	.quad	.LBB10_256
	.quad	.LBB10_271
	.quad	.LBB10_265
	.quad	.LBB10_270
	.quad	.LBB10_271
	.quad	.LBB10_271
	.quad	.LBB10_271
	.quad	.LBB10_271
	.quad	.LBB10_271
	.quad	.LBB10_196
	.quad	.LBB10_200
	.quad	.LBB10_272
	.quad	.LBB10_196
	.quad	.LBB10_200
	.quad	.LBB10_272
	.quad	.LBB10_203
	.quad	.LBB10_205
	.quad	.LBB10_213
	.quad	.LBB10_207
	.quad	.LBB10_272
	.quad	.LBB10_213
	.quad	.LBB10_213
	.quad	.LBB10_220
	.quad	.LBB10_216
	.quad	.LBB10_272
	.quad	.LBB10_220
	.quad	.LBB10_220
	.quad	.LBB10_220
	.quad	.LBB10_220
	.quad	.LBB10_223
	.quad	.LBB10_226
	.quad	.LBB10_223
	.quad	.LBB10_226
	.quad	.LBB10_223
	.quad	.LBB10_226
	.quad	.LBB10_223
	.quad	.LBB10_226
	.quad	.LBB10_223
	.quad	.LBB10_226
	.quad	.LBB10_223
	.quad	.LBB10_226
	.quad	.LBB10_223
	.quad	.LBB10_226
	.quad	.LBB10_229
	.quad	.LBB10_272
	.quad	.LBB10_247
	.quad	.LBB10_229
	.quad	.LBB10_272
	.quad	.LBB10_247
	.quad	.LBB10_247
	.quad	.LBB10_247
	.quad	.LBB10_247
	.quad	.LBB10_247
	.quad	.LBB10_247
	.quad	.LBB10_247
	.quad	.LBB10_247
	.quad	.LBB10_247
	.quad	.LBB10_247
	.quad	.LBB10_247
	.quad	.LBB10_247
	.quad	.LBB10_247
	.quad	.LBB10_247
	.quad	.LBB10_247
	.quad	.LBB10_247
	.quad	.LBB10_247
	.quad	.LBB10_247
	.quad	.LBB10_242
	.quad	.LBB10_243
	.quad	.LBB10_243
	.quad	.LBB10_243
	.quad	.LBB10_243
	.quad	.LBB10_243
	.quad	.LBB10_243
	.quad	.LBB10_243
	.quad	.LBB10_243
	.quad	.LBB10_243
	.quad	.LBB10_243
	.quad	.LBB10_243
	.quad	.LBB10_243
	.quad	.LBB10_243
	.quad	.LBB10_243
	.quad	.LBB10_243
	.quad	.LBB10_243
	.quad	.LBB10_243
	.quad	.LBB10_243
	.quad	.LBB10_243
	.quad	.LBB10_243
	.quad	.LBB10_243
	.quad	.LBB10_243
	.quad	.LBB10_243
	.quad	.LBB10_243
	.quad	.LBB10_243
	.quad	.LBB10_243
	.quad	.LBB10_243
	.quad	.LBB10_243
	.quad	.LBB10_243
	.quad	.LBB10_243
	.quad	.LBB10_265
	.quad	.LBB10_250
	.quad	.LBB10_265
	.quad	.LBB10_250
	.quad	.LBB10_250
	.quad	.LBB10_8
	.quad	.LBB10_6
	.quad	.LBB10_8
	.quad	.LBB10_246
	.quad	.LBB10_246
	.quad	.LBB10_271
	.quad	.LBB10_271
	.quad	.LBB10_272
	.quad	.LBB10_271
	.quad	.LBB10_271
	.quad	.LBB10_272
	.quad	.LBB10_271
	.quad	.LBB10_271
	.quad	.LBB10_272
	.quad	.LBB10_271
	.quad	.LBB10_271
	.quad	.LBB10_272
	.quad	.LBB10_231
	.quad	.LBB10_236
	.quad	.LBB10_271
	.quad	.LBB10_271
	.quad	.LBB10_271
	.quad	.LBB10_271
	.quad	.LBB10_271
	.quad	.LBB10_271
	.quad	.LBB10_271
	.quad	.LBB10_271
	.quad	.LBB10_271
	.quad	.LBB10_271
	.quad	.LBB10_271
	.quad	.LBB10_271
	.quad	.LBB10_270
	.quad	.LBB10_270
	.quad	.LBB10_251
	.quad	.LBB10_251
	.quad	.LBB10_251
	.quad	.LBB10_251
	.quad	.LBB10_251
	.quad	.LBB10_251
	.quad	.LBB10_271
	.quad	.LBB10_271
	.quad	.LBB10_272
	.quad	.LBB10_272
	.quad	.LBB10_241
	.quad	.LBB10_241
	.quad	.LBB10_241
	.quad	.LBB10_241
	.quad	.LBB10_272
	.quad	.LBB10_272
	.quad	.LBB10_272
	.quad	.LBB10_241
	.quad	.LBB10_241
	.quad	.LBB10_241
	.quad	.LBB10_241
	.quad	.LBB10_272
	.quad	.LBB10_4
	.quad	.LBB10_272
	.quad	.LBB10_272
	.quad	.LBB10_272
	.quad	.LBB10_272
	.quad	.LBB10_272
	.quad	.LBB10_272
	.quad	.LBB10_272
	.quad	.LBB10_272
	.quad	.LBB10_272
	.quad	.LBB10_272
	.quad	.LBB10_272
	.quad	.LBB10_272
	.quad	.LBB10_272
	.quad	.LBB10_272
	.quad	.LBB10_272
	.quad	.LBB10_272
	.quad	.LBB10_272
	.quad	.LBB10_272
	.quad	.LBB10_272
	.quad	.LBB10_272
	.quad	.LBB10_272
	.quad	.LBB10_272
	.quad	.LBB10_272
	.quad	.LBB10_272
	.quad	.LBB10_272
	.quad	.LBB10_272
	.quad	.LBB10_272
	.quad	.LBB10_272
	.quad	.LBB10_272
	.quad	.LBB10_272
	.quad	.LBB10_272
	.quad	.LBB10_272
	.quad	.LBB10_272
	.quad	.LBB10_272
	.quad	.LBB10_272
	.quad	.LBB10_272
	.quad	.LBB10_272
	.quad	.LBB10_272
	.quad	.LBB10_272
	.quad	.LBB10_272
	.quad	.LBB10_272
	.quad	.LBB10_272
	.quad	.LBB10_272
	.quad	.LBB10_272
	.quad	.LBB10_272
	.quad	.LBB10_272
	.quad	.LBB10_272
	.quad	.LBB10_272
	.quad	.LBB10_272
	.quad	.LBB10_272
	.quad	.LBB10_272
	.quad	.LBB10_272
	.quad	.LBB10_272
	.quad	.LBB10_272
	.quad	.LBB10_272
	.quad	.LBB10_272
	.quad	.LBB10_272
	.quad	.LBB10_272
	.quad	.LBB10_272
	.quad	.LBB10_272
	.quad	.LBB10_272
	.quad	.LBB10_272
	.quad	.LBB10_272
	.quad	.LBB10_272
	.quad	.LBB10_272
	.quad	.LBB10_272
	.quad	.LBB10_272
	.quad	.LBB10_272
	.quad	.LBB10_272
	.quad	.LBB10_272
	.quad	.LBB10_272
	.quad	.LBB10_241
	.quad	.LBB10_241
	.quad	.LBB10_241
	.quad	.LBB10_241
	.quad	.LBB10_241
	.quad	.LBB10_241
	.quad	.LBB10_241
	.quad	.LBB10_241
	.quad	.LBB10_241
	.quad	.LBB10_241
	.quad	.LBB10_241
	.quad	.LBB10_241
	.quad	.LBB10_241
	.quad	.LBB10_241
	.quad	.LBB10_241
	.quad	.LBB10_241
	.quad	.LBB10_241
	.quad	.LBB10_241
	.quad	.LBB10_241
	.quad	.LBB10_241
	.quad	.LBB10_241
	.quad	.LBB10_241
	.quad	.LBB10_241
	.quad	.LBB10_272
	.quad	.LBB10_272
	.quad	.LBB10_272
	.quad	.LBB10_272
	.quad	.LBB10_272
	.quad	.LBB10_272
	.quad	.LBB10_241
	.quad	.LBB10_241
	.quad	.LBB10_241
	.quad	.LBB10_241
	.quad	.LBB10_241
	.quad	.LBB10_241
	.quad	.LBB10_272
	.quad	.LBB10_272
	.quad	.LBB10_272
	.quad	.LBB10_272
	.quad	.LBB10_241
	.quad	.LBB10_241
	.quad	.LBB10_241
	.quad	.LBB10_241
	.quad	.LBB10_241
	.quad	.LBB10_241
	.quad	.LBB10_241
	.quad	.LBB10_241
	.quad	.LBB10_241
	.quad	.LBB10_241
	.quad	.LBB10_241
	.quad	.LBB10_241
	.quad	.LBB10_241
	.quad	.LBB10_241
	.quad	.LBB10_241
	.quad	.LBB10_241
	.quad	.LBB10_241
	.quad	.LBB10_241
	.quad	.LBB10_241
	.quad	.LBB10_241
	.quad	.LBB10_272
	.quad	.LBB10_271
	.quad	.LBB10_241
	.quad	.LBB10_241
	.quad	.LBB10_241
	.quad	.LBB10_241
	.quad	.LBB10_241
	.quad	.LBB10_241
	.quad	.LBB10_241
	.quad	.LBB10_241
	.quad	.LBB10_241
	.quad	.LBB10_241
	.quad	.LBB10_241
	.quad	.LBB10_241
	.quad	.LBB10_241
	.quad	.LBB10_241
	.quad	.LBB10_241
	.quad	.LBB10_241
	.quad	.LBB10_241
	.quad	.LBB10_241
	.quad	.LBB10_241
	.quad	.LBB10_241
	.quad	.LBB10_241
	.quad	.LBB10_241
	.quad	.LBB10_241
	.quad	.LBB10_241
	.quad	.LBB10_241
	.quad	.LBB10_241
	.quad	.LBB10_272
	.quad	.LBB10_241

	.text
	.globl	result_ready_cost
	.align	16, 0x90
	.type	result_ready_cost,@function
result_ready_cost:                      # @result_ready_cost
	.cfi_startproc
# BB#0:                                 # %entry
	pushq	%r15
.Ltmp116:
	.cfi_def_cfa_offset 16
	pushq	%r14
.Ltmp117:
	.cfi_def_cfa_offset 24
	pushq	%rbx
.Ltmp118:
	.cfi_def_cfa_offset 32
.Ltmp119:
	.cfi_offset %rbx, -32
.Ltmp120:
	.cfi_offset %r14, -24
.Ltmp121:
	.cfi_offset %r15, -16
	movq	%rdi, %r14
	movslq	40(%r14), %rax
	testq	%rax, %rax
	jns	.LBB11_2
# BB#1:                                 # %cond.false
	movq	%r14, %rdi
	callq	recog_memoized_1
.LBB11_2:                               # %cond.end
	incq	%rax
	movabsq	$4294967295, %r15       # imm = 0xFFFFFFFF
	andq	%r15, %rax
	cmpq	$806, %rax              # imm = 0x326
	ja	.LBB11_1097
# BB#3:                                 # %cond.end
	movq	$1, %rbx
	jmpq	*.LJTI11_0(,%rax,8)
.LBB11_861:                             # %sw.bb2076
	movl	ix86_cpu(%rip), %eax
	cmpq	$3, %rax
	jne	.LBB11_865
# BB#862:                               # %land.lhs.true2078
	movq	%r14, %rdi
	callq	get_attr_memory
	andq	%r15, %rax
	cmpq	$1, %rax
	movq	$3, %rbx
	je	.LBB11_1101
# BB#863:                               # %lor.lhs.false2081
	movq	%r14, %rdi
	callq	get_attr_memory
	andq	%r15, %rax
	cmpq	$3, %rax
	je	.LBB11_1101
# BB#864:                               # %lor.lhs.false2084thread-pre-split
	movl	ix86_cpu(%rip), %eax
.LBB11_865:                             # %lor.lhs.false2084
	andq	%r15, %rax
	cmpq	$2, %rax
	jne	.LBB11_870
# BB#866:                               # %land.lhs.true2086
	movq	%r14, %rdi
	callq	get_attr_imm_disp
	andq	%r15, %rax
	cmpq	$1, %rax
	jne	.LBB11_868
# BB#867:                               # %land.lhs.true2089
	movq	%r14, %rdi
	callq	get_attr_memory
	andq	%r15, %rax
	cmpq	$3, %rax
	movq	$3, %rbx
	je	.LBB11_1101
.LBB11_868:                             # %lor.lhs.false2092
	movq	%r14, %rdi
	callq	get_attr_imm_disp
	andq	%r15, %rax
	cmpq	$1, %rax
	je	.LBB11_870
# BB#869:                               # %land.lhs.true2095
	movq	%r14, %rdi
	callq	get_attr_memory
	andq	%r15, %rax
	cmpq	$3, %rax
	movq	$3, %rbx
	je	.LBB11_1101
.LBB11_870:                             # %if.else2099
	movl	ix86_cpu(%rip), %eax
	cmpq	$2, %rax
	jne	.LBB11_877
# BB#871:                               # %land.lhs.true2101
	movq	%r14, %rdi
	callq	get_attr_imm_disp
	andq	%r15, %rax
	cmpq	$1, %rax
	jne	.LBB11_874
# BB#872:                               # %land.lhs.true2104
	movq	%r14, %rdi
	callq	get_attr_memory
	andq	%r15, %rax
	cmpq	$1, %rax
	movq	$2, %rbx
	je	.LBB11_1101
# BB#873:                               # %lor.lhs.false2107
	movq	%r14, %rdi
	callq	get_attr_memory
	andq	%r15, %rax
	cmpq	$2, %rax
	je	.LBB11_1101
.LBB11_874:                             # %lor.lhs.false2110
	movq	%r14, %rdi
	callq	get_attr_imm_disp
	andq	%r15, %rax
	cmpq	$1, %rax
	je	.LBB11_877
# BB#875:                               # %land.lhs.true2113
	movq	%r14, %rdi
	callq	get_attr_memory
	andq	%r15, %rax
	cmpq	$1, %rax
	movq	$2, %rbx
	je	.LBB11_1101
# BB#876:                               # %lor.lhs.false2116
	movq	%r14, %rdi
	callq	get_attr_memory
	andq	%r15, %rax
	cmpq	$2, %rax
	je	.LBB11_1101
.LBB11_877:                             # %if.else2120
	movq	$1, %rbx
	jmp	.LBB11_1101
.LBB11_1097:                            # %sw.default
	movl	ix86_cpu(%rip), %eax
	cmpq	$3, %rax
	jne	.LBB11_1100
# BB#1098:                              # %land.lhs.true2638
	movq	%r14, %rdi
	callq	get_attr_memory
	andq	%r15, %rax
	cmpq	$1, %rax
	movq	$3, %rbx
	je	.LBB11_1101
# BB#1099:                              # %lor.lhs.false2641
	movq	%r14, %rdi
	callq	get_attr_memory
	andq	%r15, %rax
	cmpq	$3, %rax
	je	.LBB11_1101
.LBB11_1100:                            # %if.else2645
	movq	$1, %rbx
.LBB11_1101:                            # %return
	movq	%rbx, %rax
.LBB11_1102:                            # %return
	popq	%rbx
	popq	%r14
	popq	%r15
	retq
.LBB11_404:                             # %sw.bb857
	movq	%r14, %rdi
	callq	extract_insn_cached
	movl	ix86_cpu(%rip), %eax
	cmpq	$3, %rax
	jne	.LBB11_408
# BB#405:                               # %land.lhs.true859
	movq	%r14, %rdi
	callq	get_attr_memory
	andq	%r15, %rax
	cmpq	$1, %rax
	movq	$3, %rbx
	je	.LBB11_1101
# BB#406:                               # %lor.lhs.false862
	movq	%r14, %rdi
	callq	get_attr_memory
	andq	%r15, %rax
	cmpq	$3, %rax
	je	.LBB11_1101
# BB#407:                               # %lor.lhs.false865thread-pre-split
	movl	ix86_cpu(%rip), %eax
.LBB11_408:                             # %lor.lhs.false865
	andq	%r15, %rax
	cmpq	$2, %rax
	jne	.LBB11_415
# BB#409:                               # %land.lhs.true867
	movq	%r14, %rdi
	callq	get_attr_imm_disp
	andq	%r15, %rax
	cmpq	$1, %rax
	je	.LBB11_411
# BB#410:                               # %lor.lhs.false870
	movq	recog_data+16(%rip), %rdi
	xorq	%rsi, %rsi
	callq	const_int_operand
	testq	%r15, %rax
	jne	.LBB11_412
.LBB11_411:                             # %land.lhs.true873
	movq	%r14, %rdi
	callq	get_attr_memory
	andq	%r15, %rax
	cmpq	$3, %rax
	movq	$3, %rbx
	je	.LBB11_1101
.LBB11_412:                             # %lor.lhs.false876
	movq	%r14, %rdi
	callq	get_attr_imm_disp
	andq	%r15, %rax
	cmpq	$1, %rax
	je	.LBB11_415
# BB#413:                               # %land.lhs.true879
	movq	recog_data+16(%rip), %rdi
	xorq	%rsi, %rsi
	callq	const_int_operand
	testq	%r15, %rax
	je	.LBB11_415
# BB#414:                               # %land.lhs.true882
	movq	%r14, %rdi
	callq	get_attr_memory
	andq	%r15, %rax
	cmpq	$3, %rax
	movq	$3, %rbx
	je	.LBB11_1101
.LBB11_415:                             # %if.else886
	movl	ix86_cpu(%rip), %eax
	cmpq	$2, %rax
	jne	.LBB11_424
# BB#416:                               # %land.lhs.true888
	movq	%r14, %rdi
	callq	get_attr_imm_disp
	andq	%r15, %rax
	cmpq	$1, %rax
	je	.LBB11_418
# BB#417:                               # %lor.lhs.false891
	movq	recog_data+16(%rip), %rdi
	xorq	%rsi, %rsi
	callq	const_int_operand
	testq	%r15, %rax
	jne	.LBB11_420
.LBB11_418:                             # %land.lhs.true894
	movq	%r14, %rdi
	callq	get_attr_memory
	andq	%r15, %rax
	cmpq	$1, %rax
	movq	$2, %rbx
	je	.LBB11_1101
# BB#419:                               # %lor.lhs.false897
	movq	%r14, %rdi
	callq	get_attr_memory
	andq	%r15, %rax
	cmpq	$2, %rax
	je	.LBB11_1101
.LBB11_420:                             # %lor.lhs.false900
	movq	%r14, %rdi
	callq	get_attr_imm_disp
	andq	%r15, %rax
	cmpq	$1, %rax
	je	.LBB11_424
# BB#421:                               # %land.lhs.true903
	movq	recog_data+16(%rip), %rdi
	xorq	%rsi, %rsi
	callq	const_int_operand
	testq	%r15, %rax
	je	.LBB11_424
# BB#422:                               # %land.lhs.true906
	movq	%r14, %rdi
	callq	get_attr_memory
	andq	%r15, %rax
	cmpq	$1, %rax
	movq	$2, %rbx
	je	.LBB11_1101
# BB#423:                               # %lor.lhs.false909
	movq	%r14, %rdi
	callq	get_attr_memory
	andq	%r15, %rax
	cmpq	$2, %rax
	je	.LBB11_1101
.LBB11_424:                             # %if.else913
	movq	$1, %rbx
	jmp	.LBB11_1101
.LBB11_1090:                            # %sw.bb2618
	movl	ix86_cpu(%rip), %eax
	cmpq	$3, %rax
	jne	.LBB11_1092
# BB#1091:                              # %land.lhs.true2620
	movq	%r14, %rdi
	callq	get_attr_memory
	andq	%r15, %rax
	cmpq	$1, %rax
	movq	$3, %rbx
	je	.LBB11_1101
.LBB11_1092:                            # %if.else2624
	movq	$1, %rbx
	jmp	.LBB11_1101
.LBB11_92:                              # %sw.bb204
	movl	ix86_cpu(%rip), %eax
	movq	$100, %rbx
	cmpq	$5, %rax
	je	.LBB11_1101
# BB#93:                                # %sw.bb204
	cmpq	$2, %rax
	jne	.LBB11_95
# BB#94:                                # %if.then209
	movq	$70, %rbx
	jmp	.LBB11_1101
.LBB11_1056:                            # %sw.bb2549
	movq	%r14, %rdi
	callq	extract_insn_cached
	movl	ix86_cpu(%rip), %eax
	cmpq	$3, %rax
	jne	.LBB11_1059
# BB#1057:                              # %land.lhs.true2551
	movq	recog_data+8(%rip), %rdi
	xorq	%rsi, %rsi
	callq	memory_operand
	testq	%r15, %rax
	movq	$3, %rbx
	jne	.LBB11_1101
# BB#1058:                              # %lor.lhs.false2554thread-pre-split
	movl	ix86_cpu(%rip), %eax
.LBB11_1059:                            # %lor.lhs.false2554
	andq	%r15, %rax
	cmpq	$2, %rax
	jne	.LBB11_1063
# BB#1060:                              # %land.lhs.true2556
	movq	recog_data+8(%rip), %rdi
	xorq	%rsi, %rsi
	callq	memory_operand
	testq	%r15, %rax
	movq	$3, %rbx
	jne	.LBB11_1101
# BB#1061:                              # %if.else2560
	movl	ix86_cpu(%rip), %eax
	cmpq	$2, %rax
	jne	.LBB11_1063
# BB#1062:                              # %land.lhs.true2562
	movq	%r14, %rdi
	callq	get_attr_memory
	andq	%r15, %rax
	cmpq	$2, %rax
	movq	$2, %rbx
	je	.LBB11_1101
.LBB11_1063:                            # %if.else2566
	movq	$1, %rbx
	jmp	.LBB11_1101
.LBB11_600:                             # %sw.bb1385
	movl	ix86_cpu(%rip), %eax
	cmpq	$3, %rax
	movq	$3, %rbx
	je	.LBB11_1101
# BB#601:                               # %if.else1388
	movq	$2, %rbx
	cmpq	$2, %rax
	je	.LBB11_1101
# BB#602:                               # %if.else1388
	cmpq	$5, %rax
	je	.LBB11_1101
# BB#603:                               # %if.else1393
	movq	$1, %rbx
	jmp	.LBB11_1101
.LBB11_78:                              # %sw.bb177
	movl	ix86_cpu(%rip), %eax
	movq	$15, %rbx
	cmpq	$5, %rax
	je	.LBB11_1101
# BB#79:                                # %sw.bb177
	cmpq	$4, %rax
	jne	.LBB11_80
# BB#82:                                # %if.then185
	movq	$10, %rbx
	jmp	.LBB11_1101
.LBB11_657:                             # %sw.bb1548
	movl	ix86_cpu(%rip), %eax
	addq	$-2, %rax
	andq	%r15, %rax
	cmpq	$3, %rax
	jbe	.LBB11_658
# BB#662:                               # %if.else1560
	movq	$1, %rbx
	jmp	.LBB11_1101
.LBB11_604:                             # %sw.bb1394
	movq	%r14, %rdi
	callq	extract_insn_cached
	movl	ix86_cpu(%rip), %eax
	cmpq	$3, %rax
	jne	.LBB11_607
# BB#605:                               # %land.lhs.true1396
	movq	recog_data+8(%rip), %rdi
	xorq	%rsi, %rsi
	callq	memory_operand
	testq	%r15, %rax
	movq	$3, %rbx
	jne	.LBB11_1101
# BB#606:                               # %lor.lhs.false1399thread-pre-split
	movl	ix86_cpu(%rip), %eax
.LBB11_607:                             # %lor.lhs.false1399
	andq	%r15, %rax
	cmpq	$2, %rax
	jne	.LBB11_609
# BB#608:                               # %land.lhs.true1401
	movq	recog_data+8(%rip), %rdi
	xorq	%rsi, %rsi
	callq	memory_operand
	testq	%r15, %rax
	movq	$3, %rbx
	jne	.LBB11_1101
.LBB11_609:                             # %if.else1405
	movq	$1, %rbx
	jmp	.LBB11_1101
.LBB11_931:                             # %sw.bb2236
	movq	%r14, %rdi
	callq	extract_constrain_insn_cached
	movl	ix86_cpu(%rip), %esi
	cmpq	$3, %rsi
	jne	.LBB11_935
# BB#932:                               # %land.lhs.true2238
	movq	%r14, %rdi
	callq	get_attr_memory
	andq	%r15, %rax
	cmpq	$1, %rax
	movq	$3, %rbx
	je	.LBB11_1101
# BB#933:                               # %lor.lhs.false2241
	movq	%r14, %rdi
	callq	get_attr_memory
	andq	%r15, %rax
	cmpq	$3, %rax
	je	.LBB11_1101
# BB#934:                               # %lor.lhs.false2241.if.else2245_crit_edge
	movl	ix86_cpu(%rip), %esi
.LBB11_935:                             # %if.else2245
	movl	which_alternative(%rip), %eax
	testq	%rax, %rax
	movabsq	$0, %rcx
	movabsq	$1, %rdx
	movq	%rcx, %rax
	jne	.LBB11_937
# BB#936:                               # %if.else2245
	movq	%rdx, %rax
.LBB11_937:                             # %if.else2245
	andq	%rsi, %r15
	movabsq	$4294967294, %rdi       # imm = 0xFFFFFFFE
	andq	%rsi, %rdi
	cmpq	$4, %rdi
	movq	%rcx, %rbx
	jne	.LBB11_939
# BB#938:                               # %if.else2245
	movq	%rdx, %rbx
.LBB11_939:                             # %if.else2245
	cmpq	$2, %r15
	jne	.LBB11_941
# BB#940:                               # %if.else2245
	movq	%rdx, %rcx
.LBB11_941:                             # %if.else2245
	orq	%rcx, %rbx
	andq	%rax, %rbx
	incq	%rbx
	jmp	.LBB11_1101
.LBB11_84:                              # %sw.bb187
	movl	ix86_cpu(%rip), %eax
	addq	$-2, %rax
	andq	%r15, %rax
	cmpq	$3, %rax
	jbe	.LBB11_85
# BB#89:                                # %if.else199
	movq	$1, %rbx
	jmp	.LBB11_1101
.LBB11_1064:                            # %sw.bb2567
	movl	ix86_cpu(%rip), %eax
	cmpq	$3, %rax
	movq	$3, %rbx
	je	.LBB11_1101
# BB#1065:                              # %select.mid4
	movq	$1, %rbx
	jmp	.LBB11_1101
.LBB11_859:                             # %sw.bb2072
	movl	ix86_cpu(%rip), %eax
	cmpq	$4, %rax
	movq	$2, %rbx
	je	.LBB11_1101
# BB#860:                               # %select.mid2
	movq	$1, %rbx
	jmp	.LBB11_1101
.LBB11_908:                             # %sw.bb2186
	movl	ix86_cpu(%rip), %eax
	cmpq	$5, %rax
	movq	$4, %rbx
	je	.LBB11_1101
# BB#909:                               # %if.else2189
	movabsq	$4294967294, %rcx       # imm = 0xFFFFFFFE
	andq	%rax, %rcx
	cmpq	$2, %rcx
	movq	$3, %rbx
	je	.LBB11_1101
# BB#910:                               # %if.else2194
	cmpq	$4, %rax
	jne	.LBB11_911
# BB#912:                               # %if.else2194
	movabsq	$1, %rbx
	incq	%rbx
	jmp	.LBB11_1101
.LBB11_658:                             # %sw.bb1548
	movq	$11, %rbx
	jmpq	*.LJTI11_1(,%rax,8)
.LBB11_660:                             # %if.then1556
	movq	$4, %rbx
	jmp	.LBB11_1101
.LBB11_1082:                            # %sw.bb2601
	movl	ix86_cpu(%rip), %eax
	movq	$3, %rbx
	cmpq	$5, %rax
	je	.LBB11_1101
# BB#1083:                              # %sw.bb2601
	cmpq	$3, %rax
	jne	.LBB11_1087
# BB#1084:                              # %land.lhs.true2605
	movq	%r14, %rdi
	callq	get_attr_memory
	andq	%r15, %rax
	cmpq	$1, %rax
	je	.LBB11_1101
# BB#1085:                              # %lor.lhs.false2608
	movq	%r14, %rdi
	callq	get_attr_memory
	andq	%r15, %rax
	cmpq	$3, %rax
	je	.LBB11_1101
# BB#1086:                              # %if.else2612thread-pre-split
	movl	ix86_cpu(%rip), %eax
.LBB11_1087:                            # %if.else2612
	movq	$2, %rbx
	andq	%r15, %rax
	cmpq	$2, %rax
	je	.LBB11_1101
# BB#1088:                              # %if.else2612
	cmpq	$4, %rax
	je	.LBB11_1101
# BB#1089:                              # %if.else2617
	movq	$1, %rbx
	jmp	.LBB11_1101
.LBB11_1066:                            # %sw.bb2571
	movq	%r14, %rdi
	callq	extract_insn_cached
	movl	ix86_cpu(%rip), %eax
	cmpq	$3, %rax
	jne	.LBB11_1068
# BB#1067:                              # %land.lhs.true2573
	movq	recog_data+8(%rip), %rdi
	xorq	%rsi, %rsi
	callq	memory_operand
	testq	%r15, %rax
	movq	$3, %rbx
	jne	.LBB11_1101
.LBB11_1068:                            # %if.else2577
	movq	$1, %rbx
	jmp	.LBB11_1101
.LBB11_878:                             # %sw.bb2121
	movl	ix86_cpu(%rip), %eax
	cmpq	$3, %rax
	jne	.LBB11_882
# BB#879:                               # %land.lhs.true2123
	movq	%r14, %rdi
	callq	get_attr_memory
	andq	%r15, %rax
	cmpq	$1, %rax
	movq	$3, %rbx
	je	.LBB11_1101
# BB#880:                               # %lor.lhs.false2126
	movq	%r14, %rdi
	callq	get_attr_memory
	andq	%r15, %rax
	cmpq	$3, %rax
	je	.LBB11_1101
# BB#881:                               # %lor.lhs.false2129thread-pre-split
	movl	ix86_cpu(%rip), %eax
.LBB11_882:                             # %lor.lhs.false2129
	andq	%r15, %rax
	cmpq	$2, %rax
	jne	.LBB11_887
# BB#883:                               # %land.lhs.true2131
	movq	%r14, %rdi
	callq	get_attr_memory
	andq	%r15, %rax
	cmpq	$3, %rax
	movq	$3, %rbx
	je	.LBB11_1101
# BB#884:                               # %if.else2135
	movl	ix86_cpu(%rip), %eax
	cmpq	$2, %rax
	jne	.LBB11_887
# BB#885:                               # %land.lhs.true2137
	movq	%r14, %rdi
	callq	get_attr_memory
	andq	%r15, %rax
	cmpq	$1, %rax
	movq	$2, %rbx
	je	.LBB11_1101
# BB#886:                               # %lor.lhs.false2140
	movq	%r14, %rdi
	callq	get_attr_memory
	andq	%r15, %rax
	cmpq	$2, %rax
	je	.LBB11_1101
.LBB11_887:                             # %if.else2144
	movq	$1, %rbx
	jmp	.LBB11_1101
.LBB11_401:                             # %sw.bb850
	movq	%r14, %rdi
	callq	extract_insn_cached
	movl	ix86_cpu(%rip), %eax
	cmpq	$3, %rax
	jne	.LBB11_403
# BB#402:                               # %land.lhs.true852
	movq	recog_data(%rip), %rdi
	xorq	%rsi, %rsi
	callq	memory_operand
	testq	%r15, %rax
	movq	$3, %rbx
	jne	.LBB11_1101
.LBB11_403:                             # %if.else856
	movq	$1, %rbx
	jmp	.LBB11_1101
.LBB11_652:                             # %sw.bb1536
	movl	ix86_cpu(%rip), %eax
	movq	$46, %rbx
	cmpq	$2, %rax
	je	.LBB11_1101
# BB#653:                               # %sw.bb1536
	cmpq	$5, %rax
	jne	.LBB11_655
# BB#654:                               # %if.then1541
	movq	$42, %rbx
	jmp	.LBB11_1101
.LBB11_145:                             # %sw.bb321
	movq	%r14, %rdi
	callq	extract_insn_cached
	movl	ix86_cpu(%rip), %eax
	cmpq	$4, %rax
	jne	.LBB11_148
# BB#146:                               # %land.lhs.true323
	movq	%r14, %rdi
	callq	get_attr_type
	andq	%r15, %rax
	cmpq	$26, %rax
	movq	$56, %rbx
	je	.LBB11_1101
# BB#147:                               # %lor.lhs.false326thread-pre-split
	movl	ix86_cpu(%rip), %eax
.LBB11_148:                             # %lor.lhs.false326
	movq	%rax, %rcx
	andq	%r15, %rcx
	cmpq	$3, %rcx
	jne	.LBB11_151
# BB#149:                               # %land.lhs.true328
	movq	%r14, %rdi
	callq	get_attr_type
	andq	%r15, %rax
	cmpq	$26, %rax
	movq	$56, %rbx
	je	.LBB11_1101
# BB#150:                               # %land.lhs.true328.if.else332_crit_edge
	movl	ix86_cpu(%rip), %eax
.LBB11_151:                             # %if.else332
	movq	%rax, %rcx
	andq	%r15, %rcx
	cmpq	$2, %rcx
	jne	.LBB11_154
# BB#152:                               # %land.lhs.true334
	movq	%r14, %rdi
	callq	get_attr_type
	andq	%r15, %rax
	cmpq	$26, %rax
	movq	$39, %rbx
	je	.LBB11_1101
# BB#153:                               # %if.else338thread-pre-split
	movl	ix86_cpu(%rip), %eax
.LBB11_154:                             # %if.else338
	movq	%rax, %rcx
	andq	%r15, %rcx
	cmpq	$5, %rcx
	jne	.LBB11_157
# BB#155:                               # %land.lhs.true340
	movq	%r14, %rdi
	callq	get_attr_type
	andq	%r15, %rax
	cmpq	$26, %rax
	movq	$24, %rbx
	je	.LBB11_1101
# BB#156:                               # %land.lhs.true340.if.else344_crit_edge
	movl	ix86_cpu(%rip), %eax
.LBB11_157:                             # %if.else344
	movq	%rax, %rcx
	andq	%r15, %rcx
	cmpq	$3, %rcx
	jne	.LBB11_160
# BB#158:                               # %land.lhs.true346
	movq	recog_data+24(%rip), %rdi
	movq	$17, %rsi
	callq	mult_operator
	testq	%r15, %rax
	movq	$5, %rbx
	jne	.LBB11_1101
# BB#159:                               # %if.else350thread-pre-split
	movl	ix86_cpu(%rip), %eax
.LBB11_160:                             # %if.else350
	movq	%rax, %rcx
	andq	%r15, %rcx
	cmpq	$5, %rcx
	jne	.LBB11_164
# BB#161:                               # %land.lhs.true352
	movq	%r14, %rdi
	callq	get_attr_type
	andq	%r15, %rax
	cmpq	$22, %rax
	movq	$4, %rbx
	je	.LBB11_1101
# BB#162:                               # %lor.lhs.false355
	movq	recog_data+24(%rip), %rdi
	movq	$17, %rsi
	callq	mult_operator
	testq	%r15, %rax
	jne	.LBB11_1101
# BB#163:                               # %lor.lhs.false355.if.else359_crit_edge
	movl	ix86_cpu(%rip), %eax
.LBB11_164:                             # %if.else359
	movq	%rax, %rcx
	andq	%r15, %rcx
	cmpq	$3, %rcx
	jne	.LBB11_169
# BB#165:                               # %land.lhs.true361
	movq	%r14, %rdi
	callq	get_attr_memory
	andq	%r15, %rax
	cmpq	$1, %rax
	movq	$3, %rbx
	je	.LBB11_1101
# BB#166:                               # %lor.lhs.false364
	movq	%r14, %rdi
	callq	get_attr_memory
	andq	%r15, %rax
	cmpq	$3, %rax
	je	.LBB11_1101
# BB#167:                               # %lor.lhs.false367
	movq	%r14, %rdi
	callq	get_attr_type
	andq	%r15, %rax
	cmpq	$22, %rax
	je	.LBB11_1101
# BB#168:                               # %lor.lhs.false370thread-pre-split
	movl	ix86_cpu(%rip), %eax
.LBB11_169:                             # %lor.lhs.false370
	movq	%rax, %rcx
	andq	%r15, %rcx
	cmpq	$2, %rcx
	jne	.LBB11_173
# BB#170:                               # %land.lhs.true372
	movq	%r14, %rdi
	callq	get_attr_type
	andq	%r15, %rax
	cmpq	$22, %rax
	movq	$3, %rbx
	je	.LBB11_1101
# BB#171:                               # %lor.lhs.false375
	movq	recog_data+24(%rip), %rdi
	movq	$17, %rsi
	callq	mult_operator
	testq	%r15, %rax
	jne	.LBB11_1101
# BB#172:                               # %lor.lhs.false375.if.else379_crit_edge
	movl	ix86_cpu(%rip), %eax
.LBB11_173:                             # %if.else379
	movq	%rax, %rcx
	andq	%r15, %rcx
	cmpq	$4, %rcx
	jne	.LBB11_177
# BB#174:                               # %land.lhs.true381
	movq	%r14, %rdi
	callq	get_attr_type
	andq	%r15, %rax
	cmpq	$22, %rax
	movq	$2, %rbx
	je	.LBB11_1101
# BB#175:                               # %lor.lhs.false384
	movq	recog_data+24(%rip), %rax
	movq	$17, %rsi
	movq	%rax, %rdi
	callq	mult_operator
	testq	%r15, %rax
	jne	.LBB11_1101
# BB#176:                               # %lor.lhs.false387thread-pre-split
	movl	ix86_cpu(%rip), %eax
.LBB11_177:                             # %lor.lhs.false387
	andq	%r15, %rax
	cmpq	$2, %rax
	jne	.LBB11_180
# BB#178:                               # %land.lhs.true389
	movq	recog_data+24(%rip), %rax
	movq	$17, %rsi
	movq	%rax, %rdi
	callq	mult_operator
	testq	%r15, %rax
	movq	$2, %rbx
	jne	.LBB11_1101
# BB#179:                               # %lor.lhs.false392
	movq	%r14, %rdi
	callq	get_attr_type
	andq	%r15, %rax
	cmpq	$22, %rax
	je	.LBB11_1101
.LBB11_180:                             # %if.else396
	movq	$1, %rbx
	jmp	.LBB11_1101
.LBB11_109:                             # %sw.bb245
	movq	%r14, %rdi
	callq	extract_insn_cached
	movl	ix86_cpu(%rip), %eax
	cmpq	$4, %rax
	jne	.LBB11_112
# BB#110:                               # %land.lhs.true247
	movq	%r14, %rdi
	callq	get_attr_type
	andq	%r15, %rax
	cmpq	$26, %rax
	movq	$56, %rbx
	je	.LBB11_1101
# BB#111:                               # %lor.lhs.false250thread-pre-split
	movl	ix86_cpu(%rip), %eax
.LBB11_112:                             # %lor.lhs.false250
	movq	%rax, %rcx
	andq	%r15, %rcx
	cmpq	$3, %rcx
	jne	.LBB11_115
# BB#113:                               # %land.lhs.true252
	movq	%r14, %rdi
	callq	get_attr_type
	andq	%r15, %rax
	cmpq	$26, %rax
	movq	$56, %rbx
	je	.LBB11_1101
# BB#114:                               # %land.lhs.true252.if.else256_crit_edge
	movl	ix86_cpu(%rip), %eax
.LBB11_115:                             # %if.else256
	movq	%rax, %rcx
	andq	%r15, %rcx
	cmpq	$2, %rcx
	jne	.LBB11_118
# BB#116:                               # %land.lhs.true258
	movq	%r14, %rdi
	callq	get_attr_type
	andq	%r15, %rax
	cmpq	$26, %rax
	movq	$39, %rbx
	je	.LBB11_1101
# BB#117:                               # %if.else262thread-pre-split
	movl	ix86_cpu(%rip), %eax
.LBB11_118:                             # %if.else262
	movq	%rax, %rcx
	andq	%r15, %rcx
	cmpq	$5, %rcx
	jne	.LBB11_121
# BB#119:                               # %land.lhs.true264
	movq	%r14, %rdi
	callq	get_attr_type
	andq	%r15, %rax
	cmpq	$26, %rax
	movq	$24, %rbx
	je	.LBB11_1101
# BB#120:                               # %land.lhs.true264.if.else268_crit_edge
	movl	ix86_cpu(%rip), %eax
.LBB11_121:                             # %if.else268
	movq	%rax, %rcx
	andq	%r15, %rcx
	cmpq	$3, %rcx
	jne	.LBB11_124
# BB#122:                               # %land.lhs.true270
	movq	recog_data+24(%rip), %rdi
	movq	$18, %rsi
	callq	mult_operator
	testq	%r15, %rax
	movq	$5, %rbx
	jne	.LBB11_1101
# BB#123:                               # %if.else274thread-pre-split
	movl	ix86_cpu(%rip), %eax
.LBB11_124:                             # %if.else274
	movq	%rax, %rcx
	andq	%r15, %rcx
	cmpq	$5, %rcx
	jne	.LBB11_128
# BB#125:                               # %land.lhs.true276
	movq	%r14, %rdi
	callq	get_attr_type
	andq	%r15, %rax
	cmpq	$22, %rax
	movq	$4, %rbx
	je	.LBB11_1101
# BB#126:                               # %lor.lhs.false279
	movq	recog_data+24(%rip), %rdi
	movq	$18, %rsi
	callq	mult_operator
	testq	%r15, %rax
	jne	.LBB11_1101
# BB#127:                               # %lor.lhs.false279.if.else283_crit_edge
	movl	ix86_cpu(%rip), %eax
.LBB11_128:                             # %if.else283
	movq	%rax, %rcx
	andq	%r15, %rcx
	cmpq	$3, %rcx
	jne	.LBB11_133
# BB#129:                               # %land.lhs.true285
	movq	%r14, %rdi
	callq	get_attr_memory
	andq	%r15, %rax
	cmpq	$1, %rax
	movq	$3, %rbx
	je	.LBB11_1101
# BB#130:                               # %lor.lhs.false288
	movq	%r14, %rdi
	callq	get_attr_memory
	andq	%r15, %rax
	cmpq	$3, %rax
	je	.LBB11_1101
# BB#131:                               # %lor.lhs.false291
	movq	%r14, %rdi
	callq	get_attr_type
	andq	%r15, %rax
	cmpq	$22, %rax
	je	.LBB11_1101
# BB#132:                               # %lor.lhs.false294thread-pre-split
	movl	ix86_cpu(%rip), %eax
.LBB11_133:                             # %lor.lhs.false294
	movq	%rax, %rcx
	andq	%r15, %rcx
	cmpq	$2, %rcx
	jne	.LBB11_137
# BB#134:                               # %land.lhs.true296
	movq	%r14, %rdi
	callq	get_attr_type
	andq	%r15, %rax
	cmpq	$22, %rax
	movq	$3, %rbx
	je	.LBB11_1101
# BB#135:                               # %lor.lhs.false299
	movq	recog_data+24(%rip), %rdi
	movq	$18, %rsi
	callq	mult_operator
	testq	%r15, %rax
	jne	.LBB11_1101
# BB#136:                               # %lor.lhs.false299.if.else303_crit_edge
	movl	ix86_cpu(%rip), %eax
.LBB11_137:                             # %if.else303
	movq	%rax, %rcx
	andq	%r15, %rcx
	cmpq	$4, %rcx
	jne	.LBB11_141
# BB#138:                               # %land.lhs.true305
	movq	%r14, %rdi
	callq	get_attr_type
	andq	%r15, %rax
	cmpq	$22, %rax
	movq	$2, %rbx
	je	.LBB11_1101
# BB#139:                               # %lor.lhs.false308
	movq	recog_data+24(%rip), %rax
	movq	$18, %rsi
	movq	%rax, %rdi
	callq	mult_operator
	testq	%r15, %rax
	jne	.LBB11_1101
# BB#140:                               # %lor.lhs.false311thread-pre-split
	movl	ix86_cpu(%rip), %eax
.LBB11_141:                             # %lor.lhs.false311
	andq	%r15, %rax
	cmpq	$2, %rax
	jne	.LBB11_144
# BB#142:                               # %land.lhs.true313
	movq	recog_data+24(%rip), %rax
	movq	$18, %rsi
	movq	%rax, %rdi
	callq	mult_operator
	testq	%r15, %rax
	movq	$2, %rbx
	jne	.LBB11_1101
# BB#143:                               # %lor.lhs.false316
	movq	%r14, %rdi
	callq	get_attr_type
	andq	%r15, %rax
	cmpq	$22, %rax
	je	.LBB11_1101
.LBB11_144:                             # %if.else320
	movq	$1, %rbx
	jmp	.LBB11_1101
.LBB11_888:                             # %sw.bb2145
	movq	%r14, %rdi
	callq	extract_constrain_insn_cached
	movl	ix86_cpu(%rip), %eax
	cmpq	$5, %rax
	jne	.LBB11_892
# BB#889:                               # %sw.bb2145
	movl	which_alternative(%rip), %ecx
	testq	%r15, %rcx
	jne	.LBB11_892
# BB#890:                               # %land.lhs.true2149
	movq	%r14, %rdi
	callq	get_attr_memory
	andq	%r15, %rax
	cmpq	$1, %rax
	movq	$10, %rbx
	je	.LBB11_1101
# BB#891:                               # %if.else2153thread-pre-split
	movl	ix86_cpu(%rip), %eax
.LBB11_892:                             # %if.else2153
	movq	%rax, %rcx
	andq	%r15, %rcx
	cmpq	$3, %rcx
	jne	.LBB11_896
# BB#893:                               # %land.lhs.true2155
	movq	%r14, %rdi
	callq	get_attr_memory
	andq	%r15, %rax
	cmpq	$1, %rax
	movq	$3, %rbx
	je	.LBB11_1101
# BB#894:                               # %lor.lhs.false2158
	movq	%r14, %rdi
	callq	get_attr_memory
	andq	%r15, %rax
	cmpq	$3, %rax
	je	.LBB11_1101
# BB#895:                               # %lor.lhs.false2158.lor.lhs.false2161_crit_edge
	movl	ix86_cpu(%rip), %eax
.LBB11_896:                             # %lor.lhs.false2161
	movl	which_alternative(%rip), %ecx
	movq	%rax, %rdx
	andq	%r15, %rdx
	cmpq	$2, %rdx
	jne	.LBB11_901
# BB#897:                               # %lor.lhs.false2161
	testq	%r15, %rcx
	jne	.LBB11_901
# BB#898:                               # %land.lhs.true2165
	movq	%r14, %rdi
	callq	get_attr_memory
	andq	%r15, %rax
	cmpq	$1, %rax
	movq	$3, %rbx
	je	.LBB11_1101
# BB#899:                               # %lor.lhs.false2168
	movq	%r14, %rdi
	callq	get_attr_memory
	andq	%r15, %rax
	cmpq	$2, %rax
	je	.LBB11_1101
# BB#900:                               # %lor.lhs.false2168.if.else2172_crit_edge
	movl	ix86_cpu(%rip), %eax
	movl	which_alternative(%rip), %ecx
.LBB11_901:                             # %if.else2172
	testq	%r15, %rcx
	movabsq	$0, %rdx
	movabsq	$1, %rsi
	movq	%rdx, %rcx
	jne	.LBB11_903
# BB#902:                               # %if.else2172
	movq	%rsi, %rcx
.LBB11_903:                             # %if.else2172
	andq	%rax, %r15
	movabsq	$4294967294, %rdi       # imm = 0xFFFFFFFE
	andq	%rax, %rdi
	cmpq	$4, %rdi
	movq	%rdx, %rbx
	jne	.LBB11_905
# BB#904:                               # %if.else2172
	movq	%rsi, %rbx
.LBB11_905:                             # %if.else2172
	cmpq	$2, %r15
	jne	.LBB11_907
# BB#906:                               # %if.else2172
	movq	%rsi, %rdx
.LBB11_907:                             # %if.else2172
	orq	%rdx, %rbx
	andq	%rcx, %rbx
	incq	%rbx
	jmp	.LBB11_1101
.LBB11_752:                             # %sw.bb1796
	movq	%r14, %rdi
	callq	extract_insn_cached
	movl	ix86_cpu(%rip), %eax
	cmpq	$3, %rax
	jne	.LBB11_756
# BB#753:                               # %land.lhs.true1798
	movq	%r14, %rdi
	callq	get_attr_memory
	andq	%r15, %rax
	cmpq	$1, %rax
	movq	$3, %rbx
	je	.LBB11_1101
# BB#754:                               # %lor.lhs.false1801
	movq	%r14, %rdi
	callq	get_attr_memory
	andq	%r15, %rax
	cmpq	$3, %rax
	je	.LBB11_1101
# BB#755:                               # %lor.lhs.false1804thread-pre-split
	movl	ix86_cpu(%rip), %eax
.LBB11_756:                             # %lor.lhs.false1804
	andq	%r15, %rax
	cmpq	$2, %rax
	jne	.LBB11_762
# BB#757:                               # %land.lhs.true1806
	movq	recog_data+16(%rip), %rdi
	movq	$4, %rsi
	callq	incdec_operand
	testq	%r15, %rax
	jne	.LBB11_762
# BB#758:                               # %land.lhs.true1809
	movq	%r14, %rdi
	callq	get_attr_imm_disp
	andq	%r15, %rax
	cmpq	$1, %rax
	jne	.LBB11_760
# BB#759:                               # %land.lhs.true1812
	movq	%r14, %rdi
	callq	get_attr_memory
	andq	%r15, %rax
	cmpq	$3, %rax
	movq	$3, %rbx
	je	.LBB11_1101
.LBB11_760:                             # %lor.lhs.false1815
	movq	%r14, %rdi
	callq	get_attr_imm_disp
	andq	%r15, %rax
	cmpq	$1, %rax
	je	.LBB11_762
# BB#761:                               # %land.lhs.true1818
	movq	%r14, %rdi
	callq	get_attr_memory
	andq	%r15, %rax
	cmpq	$3, %rax
	movq	$3, %rbx
	je	.LBB11_1101
.LBB11_762:                             # %if.else1822
	movl	ix86_cpu(%rip), %eax
	cmpq	$2, %rax
	jne	.LBB11_770
# BB#763:                               # %land.lhs.true1824
	movq	recog_data+16(%rip), %rdi
	movq	$4, %rsi
	callq	incdec_operand
	testq	%r15, %rax
	jne	.LBB11_770
# BB#764:                               # %land.lhs.true1827
	movq	%r14, %rdi
	callq	get_attr_imm_disp
	andq	%r15, %rax
	cmpq	$1, %rax
	jne	.LBB11_767
# BB#765:                               # %land.lhs.true1830
	movq	%r14, %rdi
	callq	get_attr_memory
	andq	%r15, %rax
	cmpq	$1, %rax
	movq	$2, %rbx
	je	.LBB11_1101
# BB#766:                               # %lor.lhs.false1833
	movq	%r14, %rdi
	callq	get_attr_memory
	andq	%r15, %rax
	cmpq	$2, %rax
	je	.LBB11_1101
.LBB11_767:                             # %lor.lhs.false1836
	movq	%r14, %rdi
	callq	get_attr_imm_disp
	andq	%r15, %rax
	cmpq	$1, %rax
	je	.LBB11_770
# BB#768:                               # %land.lhs.true1839
	movq	%r14, %rdi
	callq	get_attr_memory
	andq	%r15, %rax
	cmpq	$1, %rax
	movq	$2, %rbx
	je	.LBB11_1101
# BB#769:                               # %lor.lhs.false1842
	movq	%r14, %rdi
	callq	get_attr_memory
	andq	%r15, %rax
	cmpq	$2, %rax
	je	.LBB11_1101
.LBB11_770:                             # %if.else1846
	movq	$1, %rbx
	jmp	.LBB11_1101
.LBB11_705:                             # %sw.bb1671
	movq	%r14, %rdi
	callq	extract_insn_cached
	movl	ix86_cpu(%rip), %eax
	cmpq	$3, %rax
	jne	.LBB11_709
# BB#706:                               # %land.lhs.true1673
	movq	%r14, %rdi
	callq	get_attr_memory
	andq	%r15, %rax
	cmpq	$1, %rax
	movq	$3, %rbx
	je	.LBB11_1101
# BB#707:                               # %lor.lhs.false1676
	movq	%r14, %rdi
	callq	get_attr_memory
	andq	%r15, %rax
	cmpq	$3, %rax
	je	.LBB11_1101
# BB#708:                               # %lor.lhs.false1679thread-pre-split
	movl	ix86_cpu(%rip), %eax
.LBB11_709:                             # %lor.lhs.false1679
	andq	%r15, %rax
	cmpq	$2, %rax
	jne	.LBB11_715
# BB#710:                               # %land.lhs.true1681
	movq	recog_data+16(%rip), %rdi
	movq	$3, %rsi
	callq	incdec_operand
	testq	%r15, %rax
	jne	.LBB11_715
# BB#711:                               # %land.lhs.true1684
	movq	%r14, %rdi
	callq	get_attr_imm_disp
	andq	%r15, %rax
	cmpq	$1, %rax
	jne	.LBB11_713
# BB#712:                               # %land.lhs.true1687
	movq	%r14, %rdi
	callq	get_attr_memory
	andq	%r15, %rax
	cmpq	$3, %rax
	movq	$3, %rbx
	je	.LBB11_1101
.LBB11_713:                             # %lor.lhs.false1690
	movq	%r14, %rdi
	callq	get_attr_imm_disp
	andq	%r15, %rax
	cmpq	$1, %rax
	je	.LBB11_715
# BB#714:                               # %land.lhs.true1693
	movq	%r14, %rdi
	callq	get_attr_memory
	andq	%r15, %rax
	cmpq	$3, %rax
	movq	$3, %rbx
	je	.LBB11_1101
.LBB11_715:                             # %if.else1697
	movl	ix86_cpu(%rip), %eax
	cmpq	$2, %rax
	jne	.LBB11_723
# BB#716:                               # %land.lhs.true1699
	movq	recog_data+16(%rip), %rdi
	movq	$3, %rsi
	callq	incdec_operand
	testq	%r15, %rax
	jne	.LBB11_723
# BB#717:                               # %land.lhs.true1702
	movq	%r14, %rdi
	callq	get_attr_imm_disp
	andq	%r15, %rax
	cmpq	$1, %rax
	jne	.LBB11_720
# BB#718:                               # %land.lhs.true1705
	movq	%r14, %rdi
	callq	get_attr_memory
	andq	%r15, %rax
	cmpq	$1, %rax
	movq	$2, %rbx
	je	.LBB11_1101
# BB#719:                               # %lor.lhs.false1708
	movq	%r14, %rdi
	callq	get_attr_memory
	andq	%r15, %rax
	cmpq	$2, %rax
	je	.LBB11_1101
.LBB11_720:                             # %lor.lhs.false1711
	movq	%r14, %rdi
	callq	get_attr_imm_disp
	andq	%r15, %rax
	cmpq	$1, %rax
	je	.LBB11_723
# BB#721:                               # %land.lhs.true1714
	movq	%r14, %rdi
	callq	get_attr_memory
	andq	%r15, %rax
	cmpq	$1, %rax
	movq	$2, %rbx
	je	.LBB11_1101
# BB#722:                               # %lor.lhs.false1717
	movq	%r14, %rdi
	callq	get_attr_memory
	andq	%r15, %rax
	cmpq	$2, %rax
	je	.LBB11_1101
.LBB11_723:                             # %if.else1721
	movq	$1, %rbx
	jmp	.LBB11_1101
.LBB11_663:                             # %sw.bb1561
	movq	%r14, %rdi
	callq	extract_insn_cached
	movl	ix86_cpu(%rip), %eax
	cmpq	$3, %rax
	jne	.LBB11_667
# BB#664:                               # %land.lhs.true1563
	movq	%r14, %rdi
	callq	get_attr_memory
	andq	%r15, %rax
	cmpq	$1, %rax
	movq	$3, %rbx
	je	.LBB11_1101
# BB#665:                               # %lor.lhs.false1566
	movq	%r14, %rdi
	callq	get_attr_memory
	andq	%r15, %rax
	cmpq	$3, %rax
	je	.LBB11_1101
# BB#666:                               # %lor.lhs.false1569thread-pre-split
	movl	ix86_cpu(%rip), %eax
.LBB11_667:                             # %lor.lhs.false1569
	andq	%r15, %rax
	cmpq	$2, %rax
	jne	.LBB11_673
# BB#668:                               # %land.lhs.true1571
	movq	recog_data+16(%rip), %rdi
	movq	$2, %rsi
	callq	incdec_operand
	testq	%r15, %rax
	jne	.LBB11_673
# BB#669:                               # %land.lhs.true1574
	movq	%r14, %rdi
	callq	get_attr_imm_disp
	andq	%r15, %rax
	cmpq	$1, %rax
	jne	.LBB11_671
# BB#670:                               # %land.lhs.true1577
	movq	%r14, %rdi
	callq	get_attr_memory
	andq	%r15, %rax
	cmpq	$3, %rax
	movq	$3, %rbx
	je	.LBB11_1101
.LBB11_671:                             # %lor.lhs.false1580
	movq	%r14, %rdi
	callq	get_attr_imm_disp
	andq	%r15, %rax
	cmpq	$1, %rax
	je	.LBB11_673
# BB#672:                               # %land.lhs.true1583
	movq	%r14, %rdi
	callq	get_attr_memory
	andq	%r15, %rax
	cmpq	$3, %rax
	movq	$3, %rbx
	je	.LBB11_1101
.LBB11_673:                             # %if.else1587
	movl	ix86_cpu(%rip), %eax
	cmpq	$2, %rax
	jne	.LBB11_681
# BB#674:                               # %land.lhs.true1589
	movq	recog_data+16(%rip), %rdi
	movq	$2, %rsi
	callq	incdec_operand
	testq	%r15, %rax
	jne	.LBB11_681
# BB#675:                               # %land.lhs.true1592
	movq	%r14, %rdi
	callq	get_attr_imm_disp
	andq	%r15, %rax
	cmpq	$1, %rax
	jne	.LBB11_678
# BB#676:                               # %land.lhs.true1595
	movq	%r14, %rdi
	callq	get_attr_memory
	andq	%r15, %rax
	cmpq	$1, %rax
	movq	$2, %rbx
	je	.LBB11_1101
# BB#677:                               # %lor.lhs.false1598
	movq	%r14, %rdi
	callq	get_attr_memory
	andq	%r15, %rax
	cmpq	$2, %rax
	je	.LBB11_1101
.LBB11_678:                             # %lor.lhs.false1601
	movq	%r14, %rdi
	callq	get_attr_imm_disp
	andq	%r15, %rax
	cmpq	$1, %rax
	je	.LBB11_681
# BB#679:                               # %land.lhs.true1604
	movq	%r14, %rdi
	callq	get_attr_memory
	andq	%r15, %rax
	cmpq	$1, %rax
	movq	$2, %rbx
	je	.LBB11_1101
# BB#680:                               # %lor.lhs.false1607
	movq	%r14, %rdi
	callq	get_attr_memory
	andq	%r15, %rax
	cmpq	$2, %rax
	je	.LBB11_1101
.LBB11_681:                             # %if.else1611
	movq	$1, %rbx
	jmp	.LBB11_1101
.LBB11_546:                             # %sw.bb1237
	movl	ix86_cpu(%rip), %eax
	cmpq	$3, %rax
	jne	.LBB11_550
# BB#547:                               # %land.lhs.true1239
	movq	%r14, %rdi
	callq	get_attr_memory
	andq	%r15, %rax
	cmpq	$1, %rax
	movq	$3, %rbx
	je	.LBB11_1101
# BB#548:                               # %lor.lhs.false1242
	movq	%r14, %rdi
	callq	get_attr_memory
	andq	%r15, %rax
	cmpq	$3, %rax
	je	.LBB11_1101
# BB#549:                               # %lor.lhs.false1245thread-pre-split
	movl	ix86_cpu(%rip), %eax
.LBB11_550:                             # %lor.lhs.false1245
	andq	%r15, %rax
	cmpq	$2, %rax
	jne	.LBB11_559
# BB#551:                               # %land.lhs.true1247
	movq	%r14, %rdi
	callq	get_attr_type
	andq	%r15, %rax
	cmpq	$4, %rax
	je	.LBB11_553
# BB#552:                               # %lor.lhs.false1250
	movq	%r14, %rdi
	callq	get_attr_type
	andq	%r15, %rax
	cmpq	$11, %rax
	jne	.LBB11_559
.LBB11_553:                             # %land.lhs.true1253
	movq	%r14, %rdi
	callq	get_attr_pent_pair
	andq	%r15, %rax
	cmpq	$1, %rax
	jne	.LBB11_555
# BB#554:                               # %land.lhs.true1256
	movq	%r14, %rdi
	callq	get_attr_memory
	andq	%r15, %rax
	cmpq	$3, %rax
	movq	$3, %rbx
	je	.LBB11_1101
.LBB11_555:                             # %lor.lhs.false1259
	movq	%r14, %rdi
	callq	get_attr_pent_pair
	andq	%r15, %rax
	cmpq	$3, %rax
	jne	.LBB11_557
# BB#556:                               # %land.lhs.true1262
	movq	%r14, %rdi
	callq	get_attr_memory
	andq	%r15, %rax
	cmpq	$3, %rax
	movq	$3, %rbx
	je	.LBB11_1101
.LBB11_557:                             # %lor.lhs.false1265
	movq	%r14, %rdi
	callq	get_attr_pent_pair
	andq	%r15, %rax
	cmpq	$3, %rax
	je	.LBB11_559
# BB#558:                               # %land.lhs.true1268
	movq	%r14, %rdi
	callq	get_attr_memory
	andq	%r15, %rax
	cmpq	$3, %rax
	movq	$3, %rbx
	je	.LBB11_1101
.LBB11_559:                             # %if.else1272
	movl	ix86_cpu(%rip), %eax
	cmpq	$2, %rax
	jne	.LBB11_571
# BB#560:                               # %land.lhs.true1274
	movq	%r14, %rdi
	callq	get_attr_type
	andq	%r15, %rax
	cmpq	$4, %rax
	je	.LBB11_562
# BB#561:                               # %lor.lhs.false1277
	movq	%r14, %rdi
	callq	get_attr_type
	andq	%r15, %rax
	cmpq	$11, %rax
	jne	.LBB11_571
.LBB11_562:                             # %land.lhs.true1280
	movq	%r14, %rdi
	callq	get_attr_pent_pair
	andq	%r15, %rax
	cmpq	$1, %rax
	jne	.LBB11_565
# BB#563:                               # %land.lhs.true1283
	movq	%r14, %rdi
	callq	get_attr_memory
	andq	%r15, %rax
	cmpq	$1, %rax
	movq	$2, %rbx
	je	.LBB11_1101
# BB#564:                               # %lor.lhs.false1286
	movq	%r14, %rdi
	callq	get_attr_memory
	andq	%r15, %rax
	cmpq	$2, %rax
	je	.LBB11_1101
.LBB11_565:                             # %lor.lhs.false1289
	movq	%r14, %rdi
	callq	get_attr_pent_pair
	andq	%r15, %rax
	cmpq	$3, %rax
	jne	.LBB11_568
# BB#566:                               # %land.lhs.true1292
	movq	%r14, %rdi
	callq	get_attr_memory
	andq	%r15, %rax
	cmpq	$1, %rax
	movq	$2, %rbx
	je	.LBB11_1101
# BB#567:                               # %lor.lhs.false1295
	movq	%r14, %rdi
	callq	get_attr_memory
	andq	%r15, %rax
	cmpq	$2, %rax
	je	.LBB11_1101
.LBB11_568:                             # %lor.lhs.false1298
	movq	%r14, %rdi
	callq	get_attr_pent_pair
	andq	%r15, %rax
	cmpq	$3, %rax
	je	.LBB11_571
# BB#569:                               # %land.lhs.true1301
	movq	%r14, %rdi
	callq	get_attr_memory
	andq	%r15, %rax
	cmpq	$1, %rax
	movq	$2, %rbx
	je	.LBB11_1101
# BB#570:                               # %lor.lhs.false1304
	movq	%r14, %rdi
	callq	get_attr_memory
	andq	%r15, %rax
	cmpq	$2, %rax
	je	.LBB11_1101
.LBB11_571:                             # %if.else1308
	movq	$1, %rbx
	jmp	.LBB11_1101
.LBB11_4:                               # %sw.bb
	movq	%r14, %rdi
	callq	extract_insn_cached
	movl	ix86_cpu(%rip), %eax
	cmpq	$3, %rax
	jne	.LBB11_6
# BB#5:                                 # %land.lhs.true
	movq	recog_data+8(%rip), %rdi
	xorq	%rsi, %rsi
	callq	constant_call_address_operand
	testq	%r15, %rax
	movq	$3, %rbx
	je	.LBB11_1101
.LBB11_6:                               # %if.else
	movq	$1, %rbx
	jmp	.LBB11_1101
.LBB11_80:                              # %sw.bb177
	cmpq	$2, %rax
	jne	.LBB11_83
# BB#81:                                # %if.then182
	movq	$12, %rbx
	jmp	.LBB11_1101
.LBB11_85:                              # %sw.bb187
	movq	$15, %rbx
	jmpq	*.LJTI11_2(,%rax,8)
.LBB11_86:                              # %if.then192
	movq	$12, %rbx
	jmp	.LBB11_1101
.LBB11_914:                             # %sw.bb2198
	movl	ix86_cpu(%rip), %ecx
	cmpq	$3, %rcx
	jne	.LBB11_918
# BB#915:                               # %land.lhs.true2200
	movq	%r14, %rdi
	callq	get_attr_memory
	andq	%r15, %rax
	cmpq	$1, %rax
	movq	$3, %rbx
	je	.LBB11_1101
# BB#916:                               # %lor.lhs.false2203
	movq	%r14, %rdi
	callq	get_attr_memory
	andq	%r15, %rax
	cmpq	$3, %rax
	je	.LBB11_1101
# BB#917:                               # %if.else2207thread-pre-split
	movl	ix86_cpu(%rip), %ecx
.LBB11_918:                             # %if.else2207
	andq	%r15, %rcx
	cmpq	$5, %rcx
	ja	.LBB11_920
# BB#919:                               # %if.else2207
	movq	$2, %rbx
	movq	$1, %rax
	shlq	%cl, %rax
	testq	$52, %rax
	jne	.LBB11_1101
.LBB11_920:                             # %if.else2214
	movq	$1, %rbx
	jmp	.LBB11_1101
.LBB11_398:                             # %sw.bb843
	movq	%r14, %rdi
	callq	extract_insn_cached
	movl	ix86_cpu(%rip), %eax
	cmpq	$3, %rax
	jne	.LBB11_400
# BB#399:                               # %land.lhs.true845
	movq	recog_data(%rip), %rdi
	xorq	%rsi, %rsi
	callq	constant_call_address_operand
	testq	%r15, %rax
	movq	$3, %rbx
	je	.LBB11_1101
.LBB11_400:                             # %if.else849
	movq	$1, %rbx
	jmp	.LBB11_1101
.LBB11_220:                             # %sw.bb483
	movq	%r14, %rdi
	callq	extract_insn_cached
	movl	ix86_cpu(%rip), %eax
	cmpq	$4, %rax
	jne	.LBB11_223
# BB#221:                               # %land.lhs.true485
	movq	%r14, %rdi
	callq	get_attr_type
	andq	%r15, %rax
	cmpq	$26, %rax
	movq	$56, %rbx
	je	.LBB11_1101
# BB#222:                               # %lor.lhs.false488thread-pre-split
	movl	ix86_cpu(%rip), %eax
.LBB11_223:                             # %lor.lhs.false488
	movq	%rax, %rcx
	andq	%r15, %rcx
	cmpq	$3, %rcx
	jne	.LBB11_226
# BB#224:                               # %land.lhs.true490
	movq	%r14, %rdi
	callq	get_attr_type
	andq	%r15, %rax
	cmpq	$26, %rax
	movq	$56, %rbx
	je	.LBB11_1101
# BB#225:                               # %land.lhs.true490.if.else494_crit_edge
	movl	ix86_cpu(%rip), %eax
.LBB11_226:                             # %if.else494
