	.file	"loop.c.bc"
	.text
	.globl	init_loop
	.align	16, 0x90
	.type	init_loop,@function
init_loop:                              # @init_loop
	.cfi_startproc
# BB#0:                                 # %entry
	pushq	%rax
.Ltmp1:
	.cfi_def_cfa_offset 16
	movl	word_mode(%rip), %edi
	movq	$58, %rsi
	callq	gen_rtx_REG
	movq	$4, %rsi
	movq	%rax, %rdi
	callq	address_cost
	movl	%eax, reg_address_cost(%rip)
	movq	$1, %rax
	movb	%al, copy_cost(%rip)
	popq	%rax
	retq
.Ltmp2:
	.size	init_loop, .Ltmp2-init_loop
	.cfi_endproc

	.globl	loop_optimize
	.align	16, 0x90
	.type	loop_optimize,@function
loop_optimize:                          # @loop_optimize
	.cfi_startproc
# BB#0:                                 # %entry
	pushq	%r15
.Ltmp9:
	.cfi_def_cfa_offset 16
	pushq	%r14
.Ltmp10:
	.cfi_def_cfa_offset 24
	pushq	%r13
.Ltmp11:
	.cfi_def_cfa_offset 32
	pushq	%r12
.Ltmp12:
	.cfi_def_cfa_offset 40
	pushq	%rbx
.Ltmp13:
	.cfi_def_cfa_offset 48
	subq	$80, %rsp
.Ltmp14:
	.cfi_def_cfa_offset 128
.Ltmp15:
	.cfi_offset %rbx, -48
.Ltmp16:
	.cfi_offset %r12, -40
.Ltmp17:
	.cfi_offset %r13, -32
.Ltmp18:
	.cfi_offset %r14, -24
.Ltmp19:
	.cfi_offset %r15, -16
	movq	%rdx, %r14
	movq	%rdi, %r15
	movq	%rsi, loop_dump_stream(%rip)
	callq	init_recog_no_volatile
	callq	max_reg_num
	xorq	%rbx, %rbx
	testq	%r15, %r15
	movl	%eax, max_reg_before_loop(%rip)
	movl	%eax, loop_max_reg(%rip)
	movq	$0, regs_may_share(%rip)
	movl	%ebx, max_loop_num(%rip)
	je	.LBB1_171
# BB#1:
	movabsq	$4294967200, %rdx       # imm = 0xFFFFFFA0
	movq	%r15, %rax
	.align	16, 0x90
.LBB1_2:                                # %for.body
                                        # =>This Inner Loop Header: Depth=1
	movzbl	(%rax), %ecx
	cmpq	$37, %rcx
	jne	.LBB1_5
# BB#3:                                 # %land.lhs.true
                                        #   in Loop: Header=BB1_2 Depth=1
	movl	40(%rax), %ecx
	cmpq	%rdx, %rcx
	jne	.LBB1_5
# BB#4:                                 # %if.then
                                        #   in Loop: Header=BB1_2 Depth=1
	incq	%rbx
	movl	%ebx, max_loop_num(%rip)
.LBB1_5:                                # %for.inc
                                        #   in Loop: Header=BB1_2 Depth=1
	movq	24(%rax), %rax
	testq	%rax, %rax
	jne	.LBB1_2
# BB#6:                                 # %for.end
	movabsq	$4294967295, %rax       # imm = 0xFFFFFFFF
	testq	%rax, %rbx
	je	.LBB1_171
# BB#7:                                 # %if.end6
	callq	get_max_uid
	movl	max_loop_num(%rip), %edx
	movq	$5, %rcx
	shlq	%cl, %rdx
	leaq	1(%rax,%rdx), %rdi
	movl	%edi, max_uid_for_loop(%rip)
	movq	$32, %rcx
	shlq	%cl, %rdi
	movq	$32, %rcx
	sarq	%cl, %rdi
	movq	$4, %rsi
	callq	xcalloc
	movslq	max_uid_for_loop(%rip), %rdi
	movq	%rax, uid_luid(%rip)
	movq	$8, %rsi
	callq	xcalloc
	movq	%rax, uid_loop(%rip)
	movq	$32, %rcx
	movq	%rbx, %rdi
	shlq	%cl, %rdi
	movq	$32, %rcx
	sarq	%cl, %rdi
	movq	%rdi, 24(%rsp)          # 8-byte Spill
	movq	$248, %rsi
	callq	xcalloc
	testq	%r15, %r15
	je	.LBB1_172
# BB#8:
	movq	%rbx, 32(%rsp)          # 8-byte Spill
	movq	%rax, 56(%rsp)          # 8-byte Spill
	movq	%r14, 16(%rsp)          # 8-byte Spill
	xorq	%rax, %rax
	movq	%r15, %rcx
	.align	16, 0x90
.LBB1_9:                                # %for.body.i.i
                                        # =>This Inner Loop Header: Depth=1
	movslq	8(%rcx), %rdx
	movslq	max_uid_for_loop(%rip), %rsi
	cmpq	%rsi, %rdx
	jge	.LBB1_15
# BB#10:                                # %if.end.i.i
                                        #   in Loop: Header=BB1_9 Depth=1
	movzbl	(%rcx), %esi
	cmpq	$37, %rsi
	jne	.LBB1_12
# BB#11:                                # %lor.lhs.false.i.i
                                        #   in Loop: Header=BB1_9 Depth=1
	movslq	40(%rcx), %rsi
	testq	%rsi, %rsi
	jg	.LBB1_13
.LBB1_12:                               # %if.then7.i.i
                                        #   in Loop: Header=BB1_9 Depth=1
	movq	uid_luid(%rip), %rsi
	incq	%rax
	jmp	.LBB1_14
.LBB1_13:                               # %if.else.i.i
                                        #   in Loop: Header=BB1_9 Depth=1
	movq	uid_luid(%rip), %rsi
.LBB1_14:                               # %for.inc.i.i
                                        #   in Loop: Header=BB1_9 Depth=1
	movl	%eax, (%rsi,%rdx,4)
.LBB1_15:                               # %for.inc.i.i
                                        #   in Loop: Header=BB1_9 Depth=1
	movq	24(%rcx), %rcx
	testq	%rcx, %rcx
	jne	.LBB1_9
# BB#16:                                # %for.body.i.preheader
	movq	uid_loop(%rip), %rax
	movq	$0, (%rax)
	movq	$0, 48(%rsp)            # 8-byte Folded Spill
	movq	$1, %r13
	movabsq	$.L.str33, %r14
	movq	%r15, %rbx
	movq	%r15, 40(%rsp)          # 8-byte Spill
	xorq	%r15, %r15
	.align	16, 0x90
.LBB1_17:                               # %for.body.i
                                        # =>This Loop Header: Depth=1
                                        #     Child Loop BB1_30 Depth 2
	movzbl	(%rbx), %eax
	cmpq	$37, %rax
	jne	.LBB1_27
# BB#18:                                # %if.then.i
                                        #   in Loop: Header=BB1_17 Depth=1
	movl	40(%rbx), %eax
	addq	$96, %rax
	movabsq	$4294967295, %rcx       # imm = 0xFFFFFFFF
	andq	%rcx, %rax
	cmpq	$3, %rax
	ja	.LBB1_27
# BB#19:                                # %if.then.i
                                        #   in Loop: Header=BB1_17 Depth=1
	jmpq	*.LJTI1_0(,%rax,8)
.LBB1_20:                               # %sw.bb.i
                                        #   in Loop: Header=BB1_17 Depth=1
	movq	$32, %rcx
	movq	48(%rsp), %rdx          # 8-byte Reload
	movq	%rdx, %rax
	shlq	%cl, %rax
	movq	$32, %rcx
	sarq	%cl, %rax
	imulq	$248, %rax, %rax
	movq	56(%rsp), %rcx          # 8-byte Reload
	movl	%edx, (%rcx,%rax)
	movq	%rbx, 192(%rcx,%rax)
	movq	%r15, 128(%rcx,%rax)
	leaq	(%rcx,%rax), %r15
	incq	%rdx
	movq	%rdx, 48(%rsp)          # 8-byte Spill
	jmp	.LBB1_27
.LBB1_23:                               # %sw.bb5.i
                                        #   in Loop: Header=BB1_17 Depth=1
	testq	%r15, %r15
	je	.LBB1_24
# BB#26:                                # %if.end.i
                                        #   in Loop: Header=BB1_17 Depth=1
	movq	%rbx, 200(%r15)
	movq	128(%r15), %r15
	jmp	.LBB1_27
.LBB1_21:                               # %sw.bb3.i
                                        #   in Loop: Header=BB1_17 Depth=1
	movq	%rbx, 176(%r15)
	jmp	.LBB1_27
.LBB1_22:                               # %sw.bb4.i
                                        #   in Loop: Header=BB1_17 Depth=1
	movq	%rbx, 168(%r15)
	.align	16, 0x90
.LBB1_27:                               # %if.end9.i
                                        #   in Loop: Header=BB1_17 Depth=1
	movzbl	(%rbx), %eax
	cmpq	$34, %rax
	jne	.LBB1_33
# BB#28:                                # %land.lhs.true.i
                                        #   in Loop: Header=BB1_17 Depth=1
	movq	$28, %rsi
	xorq	%rdx, %rdx
	movq	%rbx, %rdi
	callq	find_reg_note
	testq	%rax, %rax
	je	.LBB1_33
# BB#29:                                # %land.lhs.true.i
                                        #   in Loop: Header=BB1_17 Depth=1
	testq	%r15, %r15
	movq	%r15, %r12
	je	.LBB1_33
	.align	16, 0x90
.LBB1_30:                               # %for.body18.i
                                        #   Parent Loop BB1_17 Depth=1
                                        # =>  This Inner Loop Header: Depth=2
	movl	%r13d, 156(%r12)
	movq	loop_dump_stream(%rip), %rdi
	testq	%rdi, %rdi
	je	.LBB1_32
# BB#31:                                # %if.then20.i
                                        #   in Loop: Header=BB1_30 Depth=2
	movq	192(%r12), %rax
	movl	8(%rax), %edx
	xorq	%rax, %rax
	movq	%r14, %rsi
	callq	fprintf
.LBB1_32:                               # %for.inc.i
                                        #   in Loop: Header=BB1_30 Depth=2
	movq	128(%r12), %r12
	testq	%r12, %r12
	jne	.LBB1_30
.LBB1_33:                               # %if.end28.i
                                        #   in Loop: Header=BB1_17 Depth=1
	movslq	8(%rbx), %rax
	movq	uid_loop(%rip), %rcx
	movq	%r15, (%rcx,%rax,8)
	movq	24(%rbx), %rbx
	testq	%rbx, %rbx
	jne	.LBB1_17
	jmp	.LBB1_34
.LBB1_172:                              # %compute_luids.exit.thread.i
	movq	%rbx, 32(%rsp)          # 8-byte Spill
	movq	%rax, 56(%rsp)          # 8-byte Spill
	movq	%r15, 40(%rsp)          # 8-byte Spill
	movq	%r14, 16(%rsp)          # 8-byte Spill
	movq	uid_loop(%rip), %rax
	movq	$0, (%rax)
.LBB1_34:                               # %for.end36.i
	movq	cfun(%rip), %rax
	movq	16(%rax), %rax
	movq	32(%rax), %rax
	testq	%rax, %rax
	je	.LBB1_40
# BB#35:                                # %for.body39.lr.ph.i
	movq	uid_loop(%rip), %rcx
	movq	$1, %rdx
	.align	16, 0x90
.LBB1_36:                               # %for.body39.i
                                        # =>This Loop Header: Depth=1
                                        #     Child Loop BB1_38 Depth 2
	movq	8(%rax), %rsi
	movslq	8(%rsi), %rsi
	movq	(%rcx,%rsi,8), %rsi
	jmp	.LBB1_38
	.align	16, 0x90
.LBB1_37:                               # %for.body.i700.i
                                        #   in Loop: Header=BB1_38 Depth=2
	movl	%edx, 156(%rsi)
	movq	128(%rsi), %rsi
.LBB1_38:                               # %for.body.i700.i
                                        #   Parent Loop BB1_36 Depth=1
                                        # =>  This Inner Loop Header: Depth=2
	testq	%rsi, %rsi
	jne	.LBB1_37
# BB#39:                                # %invalidate_loops_containing_label.exit.i
                                        #   in Loop: Header=BB1_36 Depth=1
	movq	16(%rax), %rax
	testq	%rax, %rax
	jne	.LBB1_36
.LBB1_40:                               # %for.end47.i
	movabsq	$invalidate_loops_containing_label, %rdi
	callq	for_each_eh_label
	movq	40(%rsp), %r15          # 8-byte Reload
	testq	%r15, %r15
	je	.LBB1_130
# BB#41:
	movq	$1, %r12
	movq	%r15, %r13
	.align	16, 0x90
.LBB1_42:                               # %for.body50.i
                                        # =>This Loop Header: Depth=1
                                        #     Child Loop BB1_47 Depth 2
                                        #     Child Loop BB1_56 Depth 2
                                        #     Child Loop BB1_63 Depth 2
                                        #     Child Loop BB1_80 Depth 2
                                        #     Child Loop BB1_82 Depth 2
                                        #     Child Loop BB1_95 Depth 2
                                        #     Child Loop BB1_109 Depth 2
                                        #     Child Loop BB1_118 Depth 2
                                        #     Child Loop BB1_113 Depth 2
	movzbl	(%r13), %eax
	movzbl	rtx_class(%rax), %ecx
	cmpq	$105, %rcx
	jne	.LBB1_129
# BB#43:                                # %if.then57.i
                                        #   in Loop: Header=BB1_42 Depth=1
	movslq	8(%r13), %rcx
	movq	uid_loop(%rip), %rdx
	movq	(%rdx,%rcx,8), %r14
	orq	$2, %rax
	cmpq	$34, %rax
	jne	.LBB1_48
# BB#44:                                # %if.then71.i
                                        #   in Loop: Header=BB1_42 Depth=1
	movq	$13, %rsi
	xorq	%rdx, %rdx
	movq	%r13, %rdi
	callq	find_reg_note
	testq	%rax, %rax
	je	.LBB1_48
# BB#45:                                # %if.then74.i
                                        #   in Loop: Header=BB1_42 Depth=1
	movq	8(%rax), %rax
	movslq	8(%rax), %rax
	movq	uid_loop(%rip), %rcx
	movq	(%rcx,%rax,8), %rax
	jmp	.LBB1_47
	.align	16, 0x90
.LBB1_46:                               # %for.body.i712.i
                                        #   in Loop: Header=BB1_47 Depth=2
	movl	%r12d, 156(%rax)
	movq	128(%rax), %rax
.LBB1_47:                               # %for.body.i712.i
                                        #   Parent Loop BB1_42 Depth=1
                                        # =>  This Inner Loop Header: Depth=2
	testq	%rax, %rax
	jne	.LBB1_46
.LBB1_48:                               # %if.end79.i
                                        #   in Loop: Header=BB1_42 Depth=1
	movzbl	(%r13), %eax
	cmpq	$33, %rax
	jne	.LBB1_129
# BB#49:                                # %if.end85.i
                                        #   in Loop: Header=BB1_42 Depth=1
	movq	32(%r13), %rdi
	movq	%r14, %rsi
	callq	mark_loop_jump
	testq	%r14, %r14
	je	.LBB1_129
# BB#50:                                # %land.lhs.true90.i
                                        #   in Loop: Header=BB1_42 Depth=1
	movq	32(%r13), %rax
	movzbl	(%rax), %eax
	cmpq	$51, %rax
	je	.LBB1_54
# BB#51:                                # %lor.lhs.false98.i
                                        #   in Loop: Header=BB1_42 Depth=1
	movq	%r13, %rdi
	callq	any_uncondjump_p
	movabsq	$4294967295, %rbx       # imm = 0xFFFFFFFF
	testq	%rbx, %rax
	je	.LBB1_129
# BB#52:                                # %land.lhs.true101.i
                                        #   in Loop: Header=BB1_42 Depth=1
	movq	%r13, %rdi
	callq	onlyjump_p
	testq	%rbx, %rax
	je	.LBB1_129
# BB#53:                                # %land.lhs.true104.i
                                        #   in Loop: Header=BB1_42 Depth=1
	movq	64(%r13), %rax
	movslq	8(%rax), %rax
	movq	uid_loop(%rip), %rcx
	movq	(%rcx,%rax,8), %rax
	cmpq	%r14, %rax
	je	.LBB1_129
.LBB1_54:                               # %land.lhs.true115.i
                                        #   in Loop: Header=BB1_42 Depth=1
	callq	get_max_uid
	movq	$32, %rcx
	movslq	max_uid_for_loop(%rip), %rdx
	shlq	%cl, %rax
	movq	$32, %rcx
	sarq	%cl, %rax
	cmpq	%rdx, %rax
	jge	.LBB1_129
# BB#55:                                # %if.then119.i
                                        #   in Loop: Header=BB1_42 Depth=1
	movq	%r13, %rdi
	callq	next_real_insn
	movq	24(%r13), %rcx
	movq	%rcx, 72(%rsp)
	movq	%r13, %r12
	movabsq	$4294967200, %rcx       # imm = 0xFFFFFFA0
	.align	16, 0x90
.LBB1_56:                               # %for.cond127.i
                                        #   Parent Loop BB1_42 Depth=1
                                        # =>  This Inner Loop Header: Depth=2
	movq	16(%r12), %r12
	movzbl	(%r12), %edi
	cmpq	$36, %rdi
	je	.LBB1_60
# BB#57:                                # %for.cond127.i
                                        #   in Loop: Header=BB1_56 Depth=2
	cmpq	$33, %rdi
	je	.LBB1_60
# BB#58:                                # %for.cond127.i
                                        #   in Loop: Header=BB1_56 Depth=2
	cmpq	$37, %rdi
	jne	.LBB1_56
# BB#59:                                # %land.lhs.true137.i
                                        #   in Loop: Header=BB1_56 Depth=2
	movl	40(%r12), %edx
	cmpq	%rcx, %rdx
	movq	$37, %rdi
	jne	.LBB1_56
.LBB1_60:                               # %for.end152.i
                                        #   in Loop: Header=BB1_42 Depth=1
	movq	%rax, 48(%rsp)          # 8-byte Spill
	movq	64(%r13), %rdx
	xorq	%rcx, %rcx
	testq	%rdx, %rdx
	je	.LBB1_66
# BB#61:                                # %if.then157.i
                                        #   in Loop: Header=BB1_42 Depth=1
	movslq	8(%rdx), %rdx
	movq	uid_loop(%rip), %rsi
	movq	(%rsi,%rdx,8), %rdx
	testq	%rdx, %rdx
	je	.LBB1_66
# BB#62:                                # %for.cond168.preheader.i
                                        #   in Loop: Header=BB1_42 Depth=1
	cmpq	%r14, %rdx
	movq	%r14, %rcx
	je	.LBB1_66
	.align	16, 0x90
.LBB1_63:                               # %for.inc175.i
                                        #   Parent Loop BB1_42 Depth=1
                                        # =>  This Inner Loop Header: Depth=2
	movq	128(%rdx), %rdx
	testq	%rdx, %rdx
	je	.LBB1_64
# BB#65:                                # %for.inc175.i
                                        #   in Loop: Header=BB1_63 Depth=2
	cmpq	%r14, %rdx
	movq	%rdx, %rcx
	jne	.LBB1_63
	jmp	.LBB1_66
.LBB1_64:                               #   in Loop: Header=BB1_42 Depth=1
	movq	%rdx, %rcx
.LBB1_66:                               # %if.end179.i
                                        #   in Loop: Header=BB1_42 Depth=1
	cmpq	$33, %rdi
	jne	.LBB1_128
# BB#67:                                # %land.lhs.true184.i
                                        #   in Loop: Header=BB1_42 Depth=1
	movq	64(%r12), %rax
	testq	%rax, %rax
	je	.LBB1_70
# BB#68:                                # %land.lhs.true189.i
                                        #   in Loop: Header=BB1_42 Depth=1
	movslq	8(%rax), %rdx
	movq	uid_loop(%rip), %rsi
	movq	(%rsi,%rdx,8), %rdx
	cmpq	%r14, %rdx
	je	.LBB1_70
# BB#69:                                # %select.mid
                                        #   in Loop: Header=BB1_42 Depth=1
	movq	%r14, %rcx
.LBB1_70:                               # %if.end201.i
                                        #   in Loop: Header=BB1_42 Depth=1
	testq	%rcx, %rcx
	jne	.LBB1_128
# BB#71:                                # %if.end201.i
                                        #   in Loop: Header=BB1_42 Depth=1
	testq	%rax, %rax
	je	.LBB1_128
# BB#72:                                # %land.lhs.true214.i
                                        #   in Loop: Header=BB1_42 Depth=1
	movl	8(%rax), %eax
	testq	%rax, %rax
	je	.LBB1_128
# BB#73:                                # %land.lhs.true223.i
                                        #   in Loop: Header=BB1_42 Depth=1
	movq	%r12, %rdi
	callq	any_condjump_p
	movabsq	$4294967295, %rbx       # imm = 0xFFFFFFFF
	testq	%rbx, %rax
	je	.LBB1_128
# BB#74:                                # %land.lhs.true226.i
                                        #   in Loop: Header=BB1_42 Depth=1
	movq	%r12, %rdi
	callq	onlyjump_p
	testq	%rbx, %rax
	je	.LBB1_128
# BB#75:                                # %land.lhs.true229.i
                                        #   in Loop: Header=BB1_42 Depth=1
	movq	64(%r12), %rdi
	callq	next_real_insn
	movq	48(%rsp), %rcx          # 8-byte Reload
	cmpq	%rcx, %rax
	jne	.LBB1_128
# BB#76:                                # %land.lhs.true236.i
                                        #   in Loop: Header=BB1_42 Depth=1
	movq	24(%r13), %rsi
	movq	%r12, %rdi
	leaq	72(%rsp), %rdx
	callq	insns_safe_to_move_p
	movabsq	$4294967295, %rcx       # imm = 0xFFFFFFFF
	testq	%rcx, %rax
	je	.LBB1_128
# BB#77:                                # %if.then242.i
                                        #   in Loop: Header=BB1_42 Depth=1
	movq	64(%r13), %rsi
	testq	%rsi, %rsi
	jne	.LBB1_79
# BB#78:                                # %cond.false.i
                                        #   in Loop: Header=BB1_42 Depth=1
	callq	get_last_insn
	movq	%rax, %rsi
.LBB1_79:                               # %cond.end.i
                                        #   in Loop: Header=BB1_42 Depth=1
	movq	%rsi, 8(%rsp)           # 8-byte Spill
	movslq	8(%rsi), %rcx
	movq	uid_loop(%rip), %rdx
	movq	72(%rsp), %rax
	movq	(%rdx,%rcx,8), %rcx
	movq	%rcx, 48(%rsp)          # 8-byte Spill
	jmp	.LBB1_80
.LBB1_93:                               # %for.inc271.i
                                        #   in Loop: Header=BB1_80 Depth=2
	movq	24(%rax), %rax
.LBB1_80:                               # %cond.end.i
                                        #   Parent Loop BB1_42 Depth=1
                                        # =>  This Inner Loop Header: Depth=2
	testq	%rax, %rax
	je	.LBB1_81
# BB#90:                                # %land.rhs258.i
                                        #   in Loop: Header=BB1_80 Depth=2
	movzbl	(%rax), %ecx
	cmpq	$36, %rcx
	je	.LBB1_81
# BB#91:                                # %land.rhs258.i
                                        #   in Loop: Header=BB1_80 Depth=2
	cmpq	$35, %rcx
	jne	.LBB1_93
# BB#92:                                # %if.then269.i
                                        #   in Loop: Header=BB1_80 Depth=2
	movq	%rax, 72(%rsp)
	jmp	.LBB1_93
.LBB1_81:                               # %for.cond276.preheader.i
                                        #   in Loop: Header=BB1_42 Depth=1
	testq	%rsi, %rsi
	movq	%rsi, %rbx
	je	.LBB1_128
.LBB1_82:                               # %for.body278.i
                                        #   Parent Loop BB1_42 Depth=1
                                        # =>  This Inner Loop Header: Depth=2
	movzbl	(%rbx), %eax
	cmpq	$35, %rax
	jne	.LBB1_89
# BB#83:                                # %land.lhs.true283.i
                                        #   in Loop: Header=BB1_82 Depth=2
	movq	%rbx, %rdi
	callq	next_nonnote_insn
	movq	8(%rsp), %rsi           # 8-byte Reload
	testq	%rax, %rax
	je	.LBB1_88
# BB#84:                                # %lor.lhs.false287.i
                                        #   in Loop: Header=BB1_82 Depth=2
	movzbl	(%rax), %ecx
	cmpq	$36, %rcx
	jne	.LBB1_88
# BB#85:                                # %lor.lhs.false292.i
                                        #   in Loop: Header=BB1_82 Depth=2
	movq	%rax, %rdi
	callq	next_nonnote_insn
	movq	8(%rsp), %rsi           # 8-byte Reload
	testq	%rax, %rax
	je	.LBB1_88
# BB#86:                                # %lor.lhs.false296.i
                                        #   in Loop: Header=BB1_82 Depth=2
	movzbl	(%rax), %ecx
	cmpq	$33, %rcx
	jne	.LBB1_88
# BB#87:                                # %lor.lhs.false301.i
                                        #   in Loop: Header=BB1_82 Depth=2
	movq	32(%rax), %rax
	movl	(%rax), %eax
	andq	$65534, %rax            # imm = 0xFFFE
	cmpq	$44, %rax
	je	.LBB1_89
.LBB1_88:                               # %land.lhs.true317.i
                                        #   in Loop: Header=BB1_82 Depth=2
	movslq	8(%rbx), %rax
	movq	uid_loop(%rip), %rcx
	movq	(%rcx,%rax,8), %rax
	movq	48(%rsp), %rcx          # 8-byte Reload
	cmpq	%rcx, %rax
	je	.LBB1_94
.LBB1_89:                               # %for.inc327.i
                                        #   in Loop: Header=BB1_82 Depth=2
	movq	16(%rbx), %rbx
	testq	%rbx, %rbx
	jne	.LBB1_82
	jmp	.LBB1_95
.LBB1_94:                               # %for.end331.i
                                        #   in Loop: Header=BB1_42 Depth=1
	testq	%rbx, %rbx
	jne	.LBB1_104
.LBB1_95:                               # %for.body337.i
                                        #   Parent Loop BB1_42 Depth=1
                                        # =>  This Inner Loop Header: Depth=2
	movzbl	(%rsi), %eax
	cmpq	$35, %rax
	jne	.LBB1_102
# BB#96:                                # %land.lhs.true342.i
                                        #   in Loop: Header=BB1_95 Depth=2
	movq	%rsi, %rbx
	movq	%rbx, %rdi
	callq	next_nonnote_insn
	movq	%rbx, %rsi
	testq	%rax, %rax
	je	.LBB1_101
# BB#97:                                # %lor.lhs.false346.i
                                        #   in Loop: Header=BB1_95 Depth=2
	movzbl	(%rax), %ecx
	cmpq	$36, %rcx
	jne	.LBB1_101
# BB#98:                                # %lor.lhs.false351.i
                                        #   in Loop: Header=BB1_95 Depth=2
	movq	%rsi, %rbx
	movq	%rax, %rdi
	callq	next_nonnote_insn
	movq	%rbx, %rsi
	testq	%rax, %rax
	je	.LBB1_101
# BB#99:                                # %lor.lhs.false355.i
                                        #   in Loop: Header=BB1_95 Depth=2
	movzbl	(%rax), %ecx
	cmpq	$33, %rcx
	jne	.LBB1_101
# BB#100:                               # %lor.lhs.false360.i
                                        #   in Loop: Header=BB1_95 Depth=2
	movq	32(%rax), %rax
	movl	(%rax), %eax
	andq	$65534, %rax            # imm = 0xFFFE
	cmpq	$44, %rax
	je	.LBB1_102
.LBB1_101:                              # %land.lhs.true376.i
                                        #   in Loop: Header=BB1_95 Depth=2
	movslq	8(%rsi), %rax
	movq	uid_loop(%rip), %rcx
	movq	(%rcx,%rax,8), %rax
	movq	48(%rsp), %rcx          # 8-byte Reload
	cmpq	%rcx, %rax
	je	.LBB1_103
.LBB1_102:                              # %for.inc386.i
                                        #   in Loop: Header=BB1_95 Depth=2
	movq	24(%rsi), %rsi
	testq	%rsi, %rsi
	jne	.LBB1_95
	jmp	.LBB1_128
.LBB1_103:                              # %if.end391.i
                                        #   in Loop: Header=BB1_42 Depth=1
	testq	%rsi, %rsi
	movq	%rsi, %rbx
	je	.LBB1_128
.LBB1_104:                              # %if.then393.i
                                        #   in Loop: Header=BB1_42 Depth=1
	movq	%rbx, 8(%rsp)           # 8-byte Spill
	movq	64(%r12), %rbx
	movq	%r12, %rdi
	callq	get_label_after
	movq	%rax, 64(%rsp)
	movl	32(%rbx), %ecx
	incq	%rcx
	movl	%ecx, 32(%rbx)
	movq	$1, %rdx
	movq	%r12, %rdi
	movq	%rax, %rsi
	callq	invert_jump
	movabsq	$4294967295, %rcx       # imm = 0xFFFFFFFF
	testq	%rcx, %rax
	je	.LBB1_125
# BB#105:                               # %if.end432.i
                                        #   in Loop: Header=BB1_42 Depth=1
	movq	%rbx, (%rsp)            # 8-byte Spill
	leaq	64(%rsp), %rdi
	leaq	72(%rsp), %rsi
	callq	squeeze_notes
	testq	%rax, %rax
	jne	.LBB1_106
# BB#107:                               # %if.end435.i
                                        #   in Loop: Header=BB1_42 Depth=1
	movq	64(%rsp), %rax
	movq	72(%rsp), %rcx
	movq	%rax, %rdi
	movq	%rcx, %rsi
	movq	8(%rsp), %rdx           # 8-byte Reload
	callq	reorder_insns
	movq	72(%rsp), %rcx
	movq	64(%rsp), %rax
	jmp	.LBB1_109
.LBB1_108:                              # %for.body442.i
                                        #   in Loop: Header=BB1_109 Depth=2
	movslq	8(%rax), %rcx
	movq	uid_loop(%rip), %rdx
	movq	48(%rsp), %rsi          # 8-byte Reload
	movq	%rsi, (%rdx,%rcx,8)
	movq	72(%rsp), %rcx
	movq	24(%rax), %rax
.LBB1_109:                              # %for.body442.i
                                        #   Parent Loop BB1_42 Depth=1
                                        # =>  This Inner Loop Header: Depth=2
	movq	24(%rcx), %rcx
	cmpq	%rcx, %rax
	jne	.LBB1_108
# BB#110:                               # %for.end452.i
                                        #   in Loop: Header=BB1_42 Depth=1
	movq	64(%r13), %rcx
	testq	%rcx, %rcx
	je	.LBB1_122
# BB#111:                               # %if.then457.i
                                        #   in Loop: Header=BB1_42 Depth=1
	movq	232(%r14), %rsi
	xorq	%rax, %rax
	testq	%rsi, %rsi
	movabsq	$0, %rdx
	je	.LBB1_112
.LBB1_118:                              # %for.body460.i
                                        #   Parent Loop BB1_42 Depth=1
                                        # =>  This Inner Loop Header: Depth=2
	movq	%rsi, %rdi
	movq	8(%rdi), %rax
	cmpq	%rcx, %rax
	je	.LBB1_119
# BB#117:                               # %for.inc486.i
                                        #   in Loop: Header=BB1_118 Depth=2
	movq	16(%rdi), %rsi
	xorq	%rax, %rax
	testq	%rsi, %rsi
	movq	%rdi, %rdx
	jne	.LBB1_118
	jmp	.LBB1_112
.LBB1_119:                              # %if.then469.i
                                        #   in Loop: Header=BB1_42 Depth=1
	movl	(%rdi), %eax
	movabsq	$4026531839, %rcx       # imm = 0xEFFFFFFF
	andq	%rcx, %rax
	movl	%eax, (%rdi)
	movq	16(%rdi), %rax
	testq	%rdx, %rdx
	jne	.LBB1_120
# BB#121:                               # %if.else.i
                                        #   in Loop: Header=BB1_42 Depth=1
	movq	%rax, 232(%r14)
	movq	$1, %rax
	jmp	.LBB1_112
.LBB1_120:                              # %if.then473.i
                                        #   in Loop: Header=BB1_42 Depth=1
	movq	%rax, 16(%rdx)
	movq	$1, %rax
.LBB1_112:                              # %for.cond491.preheader.i
                                        #   in Loop: Header=BB1_42 Depth=1
	movq	48(%rsp), %rcx          # 8-byte Reload
	cmpq	%rcx, %r14
	movq	%r14, %rcx
	je	.LBB1_115
.LBB1_113:                              # %for.body497.i
                                        #   Parent Loop BB1_42 Depth=1
                                        # =>  This Inner Loop Header: Depth=2
	movl	240(%rcx), %edx
	decq	%rdx
	movl	%edx, 240(%rcx)
	movq	128(%rcx), %rcx
	testq	%rcx, %rcx
	je	.LBB1_115
# BB#114:                               # %for.body497.i
                                        #   in Loop: Header=BB1_113 Depth=2
	movq	48(%rsp), %rdx          # 8-byte Reload
	cmpq	%rdx, %rcx
	jne	.LBB1_113
.LBB1_115:                              # %for.end500.i
                                        #   in Loop: Header=BB1_42 Depth=1
	testq	%rax, %rax
	je	.LBB1_116
.LBB1_122:                              # %if.end504.i
                                        #   in Loop: Header=BB1_42 Depth=1
	movq	32(%r12), %rax
	movq	%rax, %rdi
	movq	%r14, %rsi
	callq	mark_loop_jump
	movq	64(%r13), %rax
	testq	%rax, %rax
	movabsq	$4294967295, %rcx       # imm = 0xFFFFFFFF
	movq	(%rsp), %rbx            # 8-byte Reload
	je	.LBB1_125
# BB#123:                               # %land.lhs.true513.i
                                        #   in Loop: Header=BB1_42 Depth=1
	movq	%rax, %rdi
	movq	%rcx, %r12
	callq	next_real_insn
	movq	%rax, %r14
	movq	%r13, %rdi
	callq	next_real_insn
	movq	%r12, %rcx
	cmpq	%rax, %r14
	jne	.LBB1_125
# BB#124:                               # %if.then521.i
                                        #   in Loop: Header=BB1_42 Depth=1
	movq	%r13, %rdi
	movq	%rcx, %r14
	callq	delete_related_insns
	movq	%r14, %rcx
.LBB1_125:                              # %if.end524.i
                                        #   in Loop: Header=BB1_42 Depth=1
	movl	32(%rbx), %eax
	movq	24(%rbx), %r14
	decq	%rax
	testq	%rcx, %rax
	movl	%eax, 32(%rbx)
	movq	%rbx, %rax
	jne	.LBB1_127
# BB#126:                               # %if.then534.i
                                        #   in Loop: Header=BB1_42 Depth=1
	movq	%rax, %rdi
	callq	delete_related_insns
.LBB1_127:                              # %if.end536.i
                                        #   in Loop: Header=BB1_42 Depth=1
	movq	16(%r14), %r13
.LBB1_128:                              # %for.inc544.i
                                        #   in Loop: Header=BB1_42 Depth=1
	movq	$1, %r12
	.align	16, 0x90
.LBB1_129:                              # %for.inc544.i
                                        #   in Loop: Header=BB1_42 Depth=1
	movq	24(%r13), %r13
	testq	%r13, %r13
	jne	.LBB1_42
.LBB1_130:                              # %find_and_verify_loops.exit
	movq	$240, %rsi
	movq	24(%rsp), %rdi          # 8-byte Reload
	callq	xcalloc
	movq	%rax, %r14
	movq	$32, %rcx
	movq	32(%rsp), %rdi          # 8-byte Reload
	movq	%rdi, %rax
	shlq	%cl, %rax
	movq	$32, %rcx
	sarq	%cl, %rax
	testq	%rax, %rax
	movabsq	$4294967295, %rbx       # imm = 0xFFFFFFFF
	jle	.LBB1_138
# BB#131:                               # %for.body22.preheader
	leaq	-1(%rdi), %r9
	andq	%rbx, %r9
	incq	%r9
	xorq	%rdx, %rdx
	movabsq	$8589934588, %r8        # imm = 0x1FFFFFFFC
	andq	%r9, %r8
	je	.LBB1_135
# BB#132:                               # %vector.body.preheader
	movq	%r9, %r10
	andq	$-4, %r10
	movq	56(%rsp), %r13          # 8-byte Reload
	leaq	160(%r13), %rsi
	xorq	%rdi, %rdi
	movq	%r14, %rbx
	.align	16, 0x90
.LBB1_133:                              # %vector.body
                                        # =>This Inner Loop Header: Depth=1
	leaq	3(%rdi), %r11
	leaq	2(%rdi), %r15
	leaq	1(%rdi), %r12
	imulq	$240, %r12, %rcx
	addq	%r14, %rcx
	imulq	$240, %r15, %rax
	addq	%r14, %rax
	imulq	$240, %r11, %rdx
	addq	%r14, %rdx
	imulq	$248, %r12, %r12
	imulq	$248, %r15, %r15
	imulq	$248, %r11, %r11
	movq	%rbx, (%rsi)
	movq	%rcx, 160(%r13,%r12)
	movq	%rax, 160(%r13,%r15)
	movq	%rdx, 160(%r13,%r11)
	addq	$4, %rdi
	addq	$992, %rsi              # imm = 0x3E0
	addq	$960, %rbx              # imm = 0x3C0
	cmpq	%rdi, %r10
	jne	.LBB1_133
# BB#134:
	movq	%r8, %rdx
	movq	40(%rsp), %r15          # 8-byte Reload
	movabsq	$4294967295, %rbx       # imm = 0xFFFFFFFF
	movq	32(%rsp), %rdi          # 8-byte Reload
.LBB1_135:                              # %middle.block
	cmpq	%rdx, %r9
	je	.LBB1_138
# BB#136:                               # %for.body22.preheader1
	imulq	$248, %rdx, %rax
	movq	56(%rsp), %rcx          # 8-byte Reload
	leaq	160(%rax,%rcx), %rax
	imulq	$240, %rdx, %rcx
	leaq	1(%rdx), %rdx
	addq	%r14, %rcx
	andq	%rbx, %rdi
	.align	16, 0x90
.LBB1_137:                              # %for.body22
                                        # =>This Inner Loop Header: Depth=1
	movq	%rcx, (%rax)
	movq	%rdx, %rsi
	andq	%rbx, %rsi
	incq	%rdx
	addq	$248, %rax
	addq	$240, %rcx
	cmpq	%rdi, %rsi
	jne	.LBB1_137
.LBB1_138:                              # %for.end27
	movl	max_reg_before_loop(%rip), %esi
	movq	$1, %rdx
	movq	%r15, %rdi
	callq	reg_scan
	callq	init_alias_analysis
	callq	get_max_uid
	movq	$32, %rcx
	movslq	max_uid_for_loop(%rip), %rdx
	shlq	%cl, %rax
	movq	$32, %rcx
	sarq	%cl, %rax
	cmpq	%rdx, %rax
	jg	.LBB1_139
# BB#140:                               # %if.end32
	callq	get_max_uid
	testq	%r15, %r15
	movl	%eax, max_uid_for_loop(%rip)
	movq	%rbx, %r8
	je	.LBB1_149
# BB#141:
	xorq	%rdx, %rdx
	movq	%r15, %rsi
	.align	16, 0x90
.LBB1_142:                              # %for.body.i121
                                        # =>This Inner Loop Header: Depth=1
	movslq	8(%rsi), %rdi
	movq	$32, %rcx
	shlq	%cl, %rax
	movq	$32, %rcx
	sarq	%cl, %rax
	cmpq	%rax, %rdi
	jge	.LBB1_148
# BB#143:                               # %if.end.i124
                                        #   in Loop: Header=BB1_142 Depth=1
	movzbl	(%rsi), %eax
	cmpq	$37, %rax
	jne	.LBB1_145
# BB#144:                               # %lor.lhs.false.i
                                        #   in Loop: Header=BB1_142 Depth=1
	movslq	40(%rsi), %rax
	testq	%rax, %rax
	jg	.LBB1_146
.LBB1_145:                              # %if.then7.i127
                                        #   in Loop: Header=BB1_142 Depth=1
	movq	uid_luid(%rip), %rax
	incq	%rdx
	jmp	.LBB1_147
.LBB1_146:                              # %if.else.i128
                                        #   in Loop: Header=BB1_142 Depth=1
	movq	uid_luid(%rip), %rax
.LBB1_147:                              # %for.inc.i131
                                        #   in Loop: Header=BB1_142 Depth=1
	movl	%edx, (%rax,%rdi,4)
.LBB1_148:                              # %for.inc.i131
                                        #   in Loop: Header=BB1_142 Depth=1
	movq	24(%rsi), %rsi
	movl	max_uid_for_loop(%rip), %eax
	testq	%rsi, %rsi
	jne	.LBB1_142
.LBB1_149:                              # %for.cond35.preheader
	movq	$32, %rcx
	shlq	%cl, %rax
	movq	$32, %rcx
	sarq	%cl, %rax
	testq	%rax, %rax
	jle	.LBB1_157
# BB#150:                               # %for.body38.lr.ph
	movq	uid_luid(%rip), %rax
	movq	$1, %rsi
	.align	16, 0x90
.LBB1_151:                              # %for.body38
                                        # =>This Inner Loop Header: Depth=1
	movl	-4(%rax,%rsi,4), %ecx
	movl	%ecx, (%rax)
	movl	max_uid_for_loop(%rip), %edx
	testq	%rcx, %rcx
	jne	.LBB1_152
# BB#173:                               # %for.body38
                                        #   in Loop: Header=BB1_151 Depth=1
	movq	$32, %rcx
	movq	%rdx, %rdi
	shlq	%cl, %rdi
	movq	$32, %rcx
	sarq	%cl, %rdi
	movq	$32, %rcx
	leaq	1(%rsi), %rbx
	shlq	%cl, %rsi
	movq	$32, %rcx
	sarq	%cl, %rsi
	cmpq	%rdi, %rsi
	movq	%rbx, %rsi
	jl	.LBB1_151
.LBB1_152:                              # %for.cond50.preheader
	movq	$32, %rcx
	movq	%rdx, %rax
	shlq	%cl, %rax
	movq	$32, %rcx
	sarq	%cl, %rax
	testq	%rax, %rax
	jle	.LBB1_157
# BB#153:                               # %for.body53.lr.ph
	movq	uid_luid(%rip), %rbx
	movq	$1, %rsi
	.align	16, 0x90
.LBB1_154:                              # %for.body53
                                        # =>This Inner Loop Header: Depth=1
	movl	-4(%rbx,%rsi,4), %ecx
	testq	%rcx, %rcx
	jne	.LBB1_156
# BB#155:                               # %if.then58
                                        #   in Loop: Header=BB1_154 Depth=1
	movl	-8(%rbx,%rsi,4), %eax
	movl	%eax, -4(%rbx,%rsi,4)
	movl	max_uid_for_loop(%rip), %edx
.LBB1_156:                              # %for.inc64
                                        #   in Loop: Header=BB1_154 Depth=1
	movq	$32, %rcx
	movq	%rsi, %rdi
	shlq	%cl, %rdi
	movq	$32, %rcx
	sarq	%cl, %rdi
	movq	$32, %rcx
	movq	%rdx, %rax
	shlq	%cl, %rax
	movq	$32, %rcx
	sarq	%cl, %rax
	incq	%rsi
	cmpq	%rax, %rdi
	jl	.LBB1_154
.LBB1_157:                              # %for.end66
	testq	%r15, %r15
	movq	56(%rsp), %r13          # 8-byte Reload
	je	.LBB1_158
# BB#159:
	movq	16(%rsp), %r12          # 8-byte Reload
	movq	%r8, %rbx
	.align	16, 0x90
.LBB1_160:                              # %for.body.i133
                                        # =>This Inner Loop Header: Depth=1
	movq	%r15, %rdi
	callq	computed_jump_p
	testq	%rbx, %rax
	movq	$1, %rax
	jne	.LBB1_163
# BB#161:                               # %for.inc.i136
                                        #   in Loop: Header=BB1_160 Depth=1
	movq	24(%r15), %r15
	testq	%r15, %r15
	jne	.LBB1_160
# BB#162:
	xorq	%rax, %rax
	jmp	.LBB1_163
.LBB1_158:
	xorq	%rax, %rax
	movq	16(%rsp), %r12          # 8-byte Reload
.LBB1_163:                              # %indirect_jump_in_function_p.exit
	movslq	max_loop_num(%rip), %r15
	movl	%eax, indirect_jump_in_function(%rip)
	testq	%r15, %r15
	jle	.LBB1_168
# BB#164:                               # %for.body72.lr.ph
	imulq	$248, %r15, %rax
	decq	%r15
	leaq	-248(%rax,%r13), %rbx
	.align	16, 0x90
.LBB1_165:                              # %for.body72
                                        # =>This Inner Loop Header: Depth=1
	movl	156(%rbx), %eax
	testq	%rax, %rax
	jne	.LBB1_167
# BB#166:                               # %land.lhs.true77
                                        #   in Loop: Header=BB1_165 Depth=1
	cmpq	$0, 200(%rbx)
	je	.LBB1_167
# BB#174:                               # %if.then79
                                        #   in Loop: Header=BB1_165 Depth=1
	movq	%rbx, %rdi
	movq	%r12, %rsi
	callq	scan_loop
.LBB1_167:                              # %for.cond69.backedge
                                        #   in Loop: Header=BB1_165 Depth=1
	movq	$32, %rcx
	movq	%r15, %rax
	shlq	%cl, %rax
	movq	$32, %rcx
	sarq	%cl, %rax
	decq	%r15
	addq	$-248, %rbx
	testq	%rax, %rax
	jg	.LBB1_165
.LBB1_168:                              # %for.end82
	movl	write_symbols(%rip), %eax
	testq	%rax, %rax
	je	.LBB1_170
# BB#169:                               # %if.then85
	callq	reorder_blocks
.LBB1_170:                              # %if.end86
	callq	end_alias_analysis
	movq	uid_luid(%rip), %rdi
	callq	free
	movq	uid_loop(%rip), %rdi
	callq	free
	movq	%r14, %rdi
	callq	free
	movq	%r13, %rdi
	callq	free
.LBB1_171:                              # %cleanup
	addq	$80, %rsp
	popq	%rbx
	popq	%r12
	popq	%r13
	popq	%r14
	popq	%r15
	retq
.LBB1_24:                               # %if.then7.i
	movabsq	$.L.str, %rax
	movabsq	$.L__FUNCTION__.find_and_verify_loops, %rcx
	movq	$2679, %rsi             # imm = 0xA77
	jmp	.LBB1_25
.LBB1_106:                              # %if.then434.i
	movabsq	$.L.str, %rax
	movabsq	$.L__FUNCTION__.find_and_verify_loops, %rcx
	movq	$2892, %rsi             # imm = 0xB4C
	jmp	.LBB1_25
.LBB1_116:                              # %if.then502.i
	movabsq	$.L.str, %rax
	movabsq	$.L__FUNCTION__.find_and_verify_loops, %rcx
	movq	$2928, %rsi             # imm = 0xB70
	jmp	.LBB1_25
.LBB1_139:                              # %if.then31
	movabsq	$.L.str, %rax
	movabsq	$.L__FUNCTION__.loop_optimize, %rcx
	movq	$518, %rsi              # imm = 0x206
.LBB1_25:                               # %if.then7.i
	movq	%rax, %rdi
	movq	%rcx, %rdx
	callq	fancy_abort
.Ltmp20:
	.size	loop_optimize, .Ltmp20-loop_optimize
	.cfi_endproc
	.section	.rodata,"a",@progbits
	.align	8
.LJTI1_0:
	.quad	.LBB1_20
	.quad	.LBB1_23
	.quad	.LBB1_21
	.quad	.LBB1_22

	.text
	.align	16, 0x90
	.type	scan_loop,@function
scan_loop:                              # @scan_loop
	.cfi_startproc
# BB#0:                                 # %entry
	pushq	%r15
.Ltmp27:
	.cfi_def_cfa_offset 16
	pushq	%r14
.Ltmp28:
	.cfi_def_cfa_offset 24
	pushq	%r13
.Ltmp29:
	.cfi_def_cfa_offset 32
	pushq	%r12
.Ltmp30:
	.cfi_def_cfa_offset 40
	pushq	%rbx
.Ltmp31:
	.cfi_def_cfa_offset 48
	subq	$336, %rsp              # imm = 0x150
.Ltmp32:
	.cfi_def_cfa_offset 384
.Ltmp33:
	.cfi_offset %rbx, -48
.Ltmp34:
	.cfi_offset %r12, -40
.Ltmp35:
	.cfi_offset %r13, -32
.Ltmp36:
	.cfi_offset %r14, -24
.Ltmp37:
	.cfi_offset %r15, -16
	movq	%rdi, %r10
	movq	160(%r10), %rbx
	movq	192(%r10), %r11
	movq	200(%r10), %rcx
	movq	$0, 208(%r10)
	movq	$0, 176(%rbx)
	movq	$0, 168(%rbx)
	movq	24(%r11), %rax
	cmpq	%rcx, %rax
	movq	%rcx, %rdx
	je	.LBB2_9
# BB#1:
	movabsq	$4294967294, %r8        # imm = 0xFFFFFFFE
	movabsq	$4294967200, %r9        # imm = 0xFFFFFFA0
	.align	16, 0x90
.LBB2_2:                                # %land.lhs.true
                                        # =>This Inner Loop Header: Depth=1
	movzbl	(%rax), %edx
	cmpq	$36, %rdx
	je	.LBB2_8
# BB#3:                                 # %land.lhs.true6
                                        #   in Loop: Header=BB2_2 Depth=1
	movzbl	rtx_class(%rdx), %edi
	cmpq	$105, %rdi
	je	.LBB2_8
# BB#4:                                 # %land.rhs
                                        #   in Loop: Header=BB2_2 Depth=1
	cmpq	$37, %rdx
	jne	.LBB2_5
# BB#7:                                 # %lor.rhs
                                        #   in Loop: Header=BB2_2 Depth=1
	movl	40(%rax), %edx
	andq	%r8, %rdx
	cmpq	%r9, %rdx
	je	.LBB2_8
.LBB2_5:                                # %for.cond.backedge
                                        #   in Loop: Header=BB2_2 Depth=1
	movq	24(%rax), %rax
	cmpq	%rcx, %rax
	jne	.LBB2_2
# BB#6:
	movq	%rcx, %rdx
	jmp	.LBB2_9
.LBB2_8:
	movq	%rax, %rdx
.LBB2_9:                                # %for.end
	movq	%rdx, 208(%rsp)         # 8-byte Spill
	movq	%rdx, 216(%r10)
	movq	24(%rcx), %rax
	leaq	168(%rbx), %r14
	testq	%rax, %rax
	je	.LBB2_11
# BB#10:                                # %if.then
	movq	%rsi, 80(%rsp)          # 8-byte Spill
	movq	%rax, 224(%r10)
	movq	%rcx, %r12
	movq	%rcx, 112(%rsp)         # 8-byte Spill
	movq	%r11, %r13
	movq	%r11, 88(%rsp)          # 8-byte Spill
	movq	%rbx, 128(%rsp)         # 8-byte Spill
	movq	%rbx, %r15
	movq	%r10, %rbx
	jmp	.LBB2_12
.LBB2_11:                               # %if.else
	movq	%r11, 88(%rsp)          # 8-byte Spill
	movq	%rsi, 80(%rsp)          # 8-byte Spill
	movq	%rbx, 128(%rsp)         # 8-byte Spill
	movabsq	$4294967197, %rdi       # imm = 0xFFFFFF9D
	movq	%rcx, %rsi
	movq	%rcx, 112(%rsp)         # 8-byte Spill
	movq	%r10, %rbx
	callq	emit_note_after
	movq	%rax, 224(%rbx)
	movq	160(%rbx), %r15
	movq	192(%rbx), %r13
	movq	200(%rbx), %r12
.LBB2_12:                               # %if.end
	movq	%r12, %rdi
	callq	next_nonnote_insn
	movq	%rax, 216(%rsp)         # 8-byte Spill
	movl	indirect_jump_in_function(%rip), %eax
	movl	%eax, 24(%r15)
	xorq	%rax, %rax
	movl	%eax, 232(%r15)
	movl	%eax, (%r15)
	movq	$0, 16(%r15)
	movq	$0, 8(%r15)
	movq	$1, %rcx
	movl	%ecx, 124(%rbx)
	movl	%eax, 144(%r15)
	movl	%eax, 148(%r15)
	movq	$0, 120(%r15)
	movq	$0, 160(%r15)
	movl	%eax, 136(%r15)
	movl	%eax, 152(%r15)
	movq	%r13, 304(%rsp)
	testq	%r13, %r13
	je	.LBB2_18
# BB#13:
	movq	%r13, %rax
.LBB2_14:                               # %land.rhs.i
                                        # =>This Inner Loop Header: Depth=1
	movzbl	(%rax), %ecx
	cmpq	$36, %rcx
	je	.LBB2_18
# BB#15:                                # %land.rhs.i
                                        #   in Loop: Header=BB2_14 Depth=1
	cmpq	$34, %rcx
	je	.LBB2_16
# BB#17:                                # %for.inc.i
                                        #   in Loop: Header=BB2_14 Depth=1
	movq	16(%rax), %rax
	testq	%rax, %rax
	movq	%rax, 304(%rsp)
	jne	.LBB2_14
	jmp	.LBB2_18
.LBB2_16:                               # %if.then.i
	movq	$1, %rax
	movl	%eax, 232(%r15)
.LBB2_18:                               # %for.end.i
	movq	%r14, 136(%rsp)         # 8-byte Spill
	movq	%rbx, 160(%rsp)         # 8-byte Spill
	movq	24(%r13), %rdi
	movq	%rdi, 304(%rsp)
	movq	24(%r12), %rax
	cmpq	%rax, %rdi
	je	.LBB2_54
# BB#19:
	movq	%r13, %rbx
	leaq	8(%r15), %rax
	movq	%rax, 200(%rsp)         # 8-byte Spill
	movabsq	$4294967295, %r13       # imm = 0xFFFFFFFF
	movq	$1, %r14
	.align	16, 0x90
.LBB2_20:                               # %for.body16.i
                                        # =>This Loop Header: Depth=1
                                        #     Child Loop BB2_34 Depth 2
	movl	(%rdi), %eax
	movq	%rax, %rcx
	andq	$65535, %rcx            # imm = 0xFFFF
	addq	$-32, %rcx
	andq	%r13, %rcx
	cmpq	$5, %rcx
	ja	.LBB2_52
# BB#21:                                # %for.body16.i
                                        #   in Loop: Header=BB2_20 Depth=1
	jmpq	*.LJTI2_0(,%rcx,8)
.LBB2_29:                               # %sw.bb51.i
                                        #   in Loop: Header=BB2_20 Depth=1
	movl	20(%r15), %eax
	testq	%rax, %rax
	jne	.LBB2_41
# BB#30:                                # %if.then54.i
                                        #   in Loop: Header=BB2_20 Depth=1
	callq	pc_set
	testq	%rax, %rax
	je	.LBB2_40
# BB#31:                                # %if.then57.i
                                        #   in Loop: Header=BB2_20 Depth=1
	movq	16(%rax), %rax
	movzbl	(%rax), %ecx
	xorq	%rdx, %rdx
	cmpq	$72, %rcx
	jne	.LBB2_33
# BB#32:                                # %if.then64.i
                                        #   in Loop: Header=BB2_20 Depth=1
	movq	16(%rax), %rcx
	movq	24(%rax), %rdx
	movq	%rcx, %rax
.LBB2_33:                               # %do.body.preheader.i
                                        #   in Loop: Header=BB2_20 Depth=1
	movq	global_rtl(%rip), %rcx
	.align	16, 0x90
.LBB2_34:                               # %do.body.i
                                        #   Parent Loop BB2_20 Depth=1
                                        # =>  This Inner Loop Header: Depth=2
	movq	%rax, %rsi
	movq	%rdx, %rax
	testq	%rsi, %rsi
	je	.LBB2_39
# BB#35:                                # %do.body.i
                                        #   in Loop: Header=BB2_34 Depth=2
	cmpq	%rcx, %rsi
	je	.LBB2_39
# BB#36:                                # %if.then75.i
                                        #   in Loop: Header=BB2_34 Depth=2
	movl	(%rsi), %edx
	movq	%rdx, %rdi
	andq	$65535, %rdi            # imm = 0xFFFF
	cmpq	$67, %rdi
	jne	.LBB2_40
# BB#37:                                # %if.else81.i
                                        #   in Loop: Header=BB2_34 Depth=2
	movq	8(%rsi), %rsi
	movq	216(%rsp), %rdi         # 8-byte Reload
	cmpq	%rdi, %rsi
	je	.LBB2_39
# BB#38:                                # %if.else81.i
                                        #   in Loop: Header=BB2_34 Depth=2
	andq	$268435456, %rdx        # imm = 0x10000000
	testq	%r13, %rdx
	jne	.LBB2_40
.LBB2_39:                               # %if.end95.i
                                        #   in Loop: Header=BB2_34 Depth=2
	xorq	%rdx, %rdx
	testq	%rax, %rax
	jne	.LBB2_34
	jmp	.LBB2_41
.LBB2_24:                               # %sw.bb32.i
                                        #   in Loop: Header=BB2_20 Depth=1
	testq	$67108864, %rax         # imm = 0x4000000
	jne	.LBB2_26
# BB#25:                                # %if.then36.i
                                        #   in Loop: Header=BB2_20 Depth=1
	movl	%r14d, 144(%r15)
	movl	%r14d, 8(%r15)
	movl	%r14d, (%r15)
	jmp	.LBB2_50
.LBB2_22:                               # %sw.bb.i
                                        #   in Loop: Header=BB2_20 Depth=1
	movl	40(%rdi), %eax
	movabsq	$4294967200, %rcx       # imm = 0xFFFFFFA0
	cmpq	%rcx, %rax
	jne	.LBB2_52
# BB#23:                                # %if.then22.i
                                        #   in Loop: Header=BB2_20 Depth=1
	movq	160(%rsp), %rcx         # 8-byte Reload
	movl	124(%rcx), %eax
	incq	%rax
	movl	%eax, 124(%rcx)
	jmp	.LBB2_52
.LBB2_26:                               # %if.else39.i
                                        #   in Loop: Header=BB2_20 Depth=1
	callq	pure_call_p
	testq	%r13, %rax
	je	.LBB2_28
# BB#27:                                # %if.then42.i
                                        #   in Loop: Header=BB2_20 Depth=1
	movq	200(%rsp), %rax         # 8-byte Reload
	movl	%r14d, (%rax)
.LBB2_28:                               # %if.end45.i
                                        #   in Loop: Header=BB2_20 Depth=1
	movl	%r14d, (%r15)
	jmp	.LBB2_50
.LBB2_40:                               # %if.else97.i
                                        #   in Loop: Header=BB2_20 Depth=1
	movl	%r14d, 20(%r15)
.LBB2_41:                               # %sw.bb101.i
                                        #   in Loop: Header=BB2_20 Depth=1
	movq	304(%rsp), %rax
	movq	32(%rax), %rdi
	callq	volatile_refs_p
	testq	%r13, %rax
	je	.LBB2_43
# BB#42:                                # %if.then107.i
                                        #   in Loop: Header=BB2_20 Depth=1
	movl	%r14d, 12(%r15)
.LBB2_43:                               # %if.end109.i
                                        #   in Loop: Header=BB2_20 Depth=1
	movq	304(%rsp), %rax
	movzbl	(%rax), %ecx
	movq	32(%rax), %rdi
	cmpq	$33, %rcx
	jne	.LBB2_46
# BB#44:                                # %land.lhs.true113.i
                                        #   in Loop: Header=BB2_20 Depth=1
	movl	(%rdi), %eax
	andq	$65534, %rax            # imm = 0xFFFE
	cmpq	$44, %rax
	jne	.LBB2_46
# BB#45:                                # %if.then126.i
                                        #   in Loop: Header=BB2_20 Depth=1
	movl	%r14d, 16(%r15)
.LBB2_46:                               # %if.end128.i
                                        #   in Loop: Header=BB2_20 Depth=1
	movabsq	$note_addr_stored, %rsi
	movq	%r15, %rdx
	callq	note_stores
	cmpq	$0, 160(%r15)
	jne	.LBB2_49
# BB#47:                                # %land.lhs.true134.i
                                        #   in Loop: Header=BB2_20 Depth=1
	cmpq	$0, 120(%r15)
	je	.LBB2_49
# BB#48:                                # %if.then137.i
                                        #   in Loop: Header=BB2_20 Depth=1
	movq	304(%rsp), %rax
	movq	%rax, 160(%r15)
.LBB2_49:                               # %if.end139.i
                                        #   in Loop: Header=BB2_20 Depth=1
	movl	flag_non_call_exceptions(%rip), %eax
	testq	%rax, %rax
	je	.LBB2_52
.LBB2_50:                               # %land.lhs.true141.i
                                        #   in Loop: Header=BB2_20 Depth=1
	movq	304(%rsp), %rdi
	callq	can_throw_internal
	testq	%rax, %rax
	je	.LBB2_52
# BB#51:                                # %if.then143.i
                                        #   in Loop: Header=BB2_20 Depth=1
	movl	%r14d, 20(%r15)
	.align	16, 0x90
.LBB2_52:                               # %for.inc146.i
                                        #   in Loop: Header=BB2_20 Depth=1
	movq	304(%rsp), %rax
	movq	24(%rax), %rdi
	movq	%rdi, 304(%rsp)
	movq	24(%r12), %rax
	cmpq	%rax, %rdi
	jne	.LBB2_20
# BB#53:                                # %for.end150.i
	movq	200(%rsp), %rax         # 8-byte Reload
	movl	(%rax), %eax
	testq	%rax, %rax
	movq	%rbx, %r13
	jne	.LBB2_59
.LBB2_54:                               # %land.lhs.true153.i
	movq	cfun(%rip), %rax
	movzbl	424(%rax), %eax
	testq	$64, %rax
	jne	.LBB2_59
# BB#55:                                # %land.lhs.true158.i
	movl	20(%r15), %eax
	testq	%rax, %rax
	jne	.LBB2_59
# BB#56:                                # %for.cond165.preheader.i
	movq	24(%r13), %rax
	movq	%rax, 304(%rsp)
	movq	24(%r12), %rcx
	cmpq	%rcx, %rax
	je	.LBB2_59
# BB#57:
	movabsq	$insert_loop_mem, %r14
	leaq	304(%rsp), %rbx
	.align	16, 0x90
.LBB2_58:                               # %for.body170.i
                                        # =>This Inner Loop Header: Depth=1
	movq	%rbx, %rdi
	movq	%r14, %rsi
	movq	%r15, %rdx
	callq	for_each_rtx
	movq	304(%rsp), %rax
	movq	24(%rax), %rax
	movq	%rax, 304(%rsp)
	movq	24(%r12), %rcx
	cmpq	%rcx, %rax
	jne	.LBB2_58
.LBB2_59:                               # %if.end177.i
	movl	144(%r15), %eax
	testq	%rax, %rax
	je	.LBB2_61
# BB#60:                                # %if.then180.i
	movq	const_int_rtx+512(%rip), %rsi
	movq	$51, %rdi
	callq	gen_rtx_MEM
	movq	120(%r15), %rcx
	movq	$3, %rdi
	xorq	%rsi, %rsi
	movq	%rax, %rdx
	callq	gen_rtx_fmt_ee
	movq	%rax, 120(%r15)
.LBB2_61:                               # %if.end185.i
	movl	148(%r15), %eax
	testq	%rax, %rax
	je	.LBB2_63
# BB#62:                                # %if.then188.i
	movq	const_int_rtx+512(%rip), %rsi
	movq	$51, %rdi
	callq	gen_rtx_MEM
	movl	(%rax), %ecx
	orq	$67108864, %rcx         # imm = 0x4000000
	movl	%ecx, (%rax)
	movq	120(%r15), %rcx
	movq	$3, %rdi
	xorq	%rsi, %rsi
	movq	%rax, %rdx
	callq	gen_rtx_fmt_ee
	movq	%rax, 120(%r15)
.LBB2_63:                               # %prescan_loop.exit
	movq	128(%rsp), %r13         # 8-byte Reload
	movl	(%r13), %eax
	testq	%rax, %rax
	movq	$1, %rax
	jne	.LBB2_65
# BB#64:                                # %select.mid
	movq	$2, %rax
.LBB2_65:                               # %select.end
	movq	%rax, 192(%rsp)         # 8-byte Spill
	movq	208(%rsp), %r14         # 8-byte Reload
	movzbl	(%r14), %eax
	cmpq	$33, %rax
	movq	160(%rsp), %rbx         # 8-byte Reload
	jne	.LBB2_74
# BB#66:                                # %if.then46
	movq	%r14, %rdi
	callq	any_uncondjump_p
	movabsq	$4294967295, %rcx       # imm = 0xFFFFFFFF
	testq	%rcx, %rax
	je	.LBB2_74
# BB#67:                                # %land.lhs.true49
	movq	64(%r14), %rax
	testq	%rax, %rax
	je	.LBB2_74
# BB#68:                                # %land.lhs.true55
	movslq	8(%rax), %rax
	movslq	max_uid_for_loop(%rip), %rdx
	cmpq	%rdx, %rax
	jge	.LBB2_74
# BB#69:                                # %cond.true
	movq	88(%rsp), %rcx          # 8-byte Reload
	movslq	8(%rcx), %rcx
	cmpq	%rdx, %rcx
	jge	.LBB2_78
# BB#70:                                # %cond.true87
	movq	uid_luid(%rip), %rsi
	movl	(%rsi,%rax,4), %edi
	movslq	(%rsi,%rcx,4), %r8
	movq	$32, %rcx
	movq	%rdi, %rax
	shlq	%cl, %rax
	movq	$32, %rcx
	sarq	%cl, %rax
	cmpq	%r8, %rax
	jl	.LBB2_74
# BB#71:                                # %cond.true107
	movq	112(%rsp), %rax         # 8-byte Reload
	movslq	8(%rax), %rcx
	cmpq	%rdx, %rcx
	jge	.LBB2_78
# BB#72:                                # %cond.true124
	movslq	(%rsi,%rcx,4), %rax
	movq	$32, %rcx
	shlq	%cl, %rdi
	movq	$32, %rcx
	sarq	%cl, %rdi
	cmpq	%rax, %rdi
	jg	.LBB2_74
# BB#73:                                # %if.then135
	movq	216(%rbx), %rdi
	callq	next_label
	movq	%rax, 208(%rbx)
	movq	64(%r14), %rax
	movq	%rax, 216(%rbx)
.LBB2_74:                               # %if.end144
	movq	216(%rbx), %rax
	movslq	8(%rax), %rcx
	movslq	max_uid_for_loop(%rip), %rdx
	cmpq	%rdx, %rcx
	jge	.LBB2_76
# BB#75:                                # %lor.lhs.false
	movzbl	(%rax), %eax
	cmpq	$36, %rax
	jne	.LBB2_76
# BB#80:                                # %if.end167
	movl	136(%r13), %esi
	addq	$16, %rsi
	movq	%rbx, %rdi
	movq	%rbx, 160(%rsp)         # 8-byte Spill
	callq	loop_regs_scan
	movq	%rbx, %r9
	movq	208(%r9), %rax
	testq	%rax, %rax
	jne	.LBB2_82
# BB#81:                                # %cond.false.i
	movq	192(%r9), %rax
.LBB2_82:                               # %for.cond.preheader.i
	movq	200(%r9), %rcx
	xorq	%rbx, %rbx
	cmpq	%rcx, %rax
	je	.LBB2_87
# BB#83:
	movabsq	$0, %rdx
	movabsq	$1, %rsi
	.align	16, 0x90
.LBB2_84:                               # %for.body.i
                                        # =>This Inner Loop Header: Depth=1
	movzbl	(%rax), %edi
	movzbl	rtx_class(%rdi), %edi
	cmpq	$105, %rdi
	movq	%rdx, %rdi
	jne	.LBB2_86
# BB#85:                                # %for.body.i
                                        #   in Loop: Header=BB2_84 Depth=1
	movq	%rsi, %rdi
.LBB2_86:                               # %for.body.i
                                        #   in Loop: Header=BB2_84 Depth=1
	movq	24(%rax), %rax
	addq	%rdi, %rbx
	cmpq	%rcx, %rax
	jne	.LBB2_84
.LBB2_87:                               # %count_insns_in_loop.exit
	movq	loop_dump_stream(%rip), %rdi
	testq	%rdi, %rdi
	je	.LBB2_90
# BB#88:                                # %if.then171
	movq	112(%rsp), %rax         # 8-byte Reload
	movl	8(%rax), %ecx
	movq	88(%rsp), %rax          # 8-byte Reload
	movl	8(%rax), %edx
	movabsq	$.L.str37, %rsi
	xorq	%rax, %rax
	movq	%rbx, %r8
	movq	%r9, %r12
	callq	fprintf
	movq	%r12, %r9
	movq	176(%r9), %rax
	testq	%rax, %rax
	je	.LBB2_90
# BB#89:                                # %if.then180
	movq	loop_dump_stream(%rip), %rdi
	movl	8(%rax), %edx
	movabsq	$.L.str38, %rsi
	xorq	%rax, %rax
	movq	%r9, %r12
	callq	fprintf
	movq	%r12, %r9
.LBB2_90:                               # %if.end187
	movq	%rbx, 72(%rsp)          # 8-byte Spill
	movq	216(%r9), %rcx
	movq	200(%r9), %rdx
	movq	24(%rcx), %rax
	cmpq	%rdx, %rax
	jne	.LBB2_92
# BB#91:                                # %if.then.i2115
	movq	208(%r9), %rax
.LBB2_92:                               # %next_insn_in_loop.exit
	xorq	%r12, %r12
	cmpq	%rcx, %rax
	je	.LBB2_94
# BB#93:                                # %next_insn_in_loop.exit
	movq	%rax, %r12
.LBB2_94:                               # %next_insn_in_loop.exit
	testq	%r12, %r12
	je	.LBB2_324
# BB#95:                                # %for.body193.lr.ph
	movzbl	rtx_class+32(%rip), %edx
	andq	$255, %rdx
	movq	%rdx, 176(%rsp)         # 8-byte Spill
	movabsq	$4294967295, %r15       # imm = 0xFFFFFFFF
	movq	$0, 208(%rsp)           # 8-byte Folded Spill
	movq	$0, 216(%rsp)           # 8-byte Folded Spill
	movq	$0, 184(%rsp)           # 8-byte Folded Spill
	jmp	.LBB2_96
.LBB2_76:                               # %if.then156
	movq	loop_dump_stream(%rip), %rdi
	testq	%rdi, %rdi
	movq	112(%rsp), %rax         # 8-byte Reload
	je	.LBB2_854
# BB#77:                                # %if.then158
	movl	8(%rax), %ecx
	movq	88(%rsp), %rax          # 8-byte Reload
	movl	8(%rax), %edx
	movabsq	$.L.str36, %rsi
	xorq	%rax, %rax
	callq	fprintf
	jmp	.LBB2_854
.LBB2_258:                              #   in Loop: Header=BB2_96 Depth=1
	movq	128(%rsp), %r13         # 8-byte Reload
	jmp	.LBB2_259
.LBB2_261:                              #   in Loop: Header=BB2_96 Depth=1
	movq	128(%rsp), %r13         # 8-byte Reload
	movq	%r14, %r9
.LBB2_259:                              # %for.inc1543
                                        #   in Loop: Header=BB2_96 Depth=1
	movq	176(%rsp), %rdx         # 8-byte Reload
	movabsq	$4294967295, %r15       # imm = 0xFFFFFFFF
	jmp	.LBB2_319
.LBB2_157:                              # %if.then558
                                        #   in Loop: Header=BB2_96 Depth=1
	movq	128(%rsp), %rbx         # 8-byte Reload
	movq	192(%rbx), %rax
	movq	$3, %rcx
	movq	%r14, %rdx
	shlq	%cl, %rdx
	leaq	(%rdx,%rdx,2), %rcx
	movq	%rcx, 200(%rsp)         # 8-byte Spill
	movq	200(%rsp), %rcx         # 8-byte Reload
	movq	8(%rax,%rcx), %rax
	movq	56(%rax), %r15
	movq	152(%rsp), %rcx         # 8-byte Reload
	movq	8(%rcx), %rax
	movq	%rax, 168(%rsp)         # 8-byte Spill
	movq	16(%rcx), %rax
	movq	%rcx, %r13
	movq	%rax, %rdi
	callq	copy_rtx
	movq	%r15, %rdi
	movq	168(%rsp), %rsi         # 8-byte Reload
	movq	%rax, %rdx
	callq	replace_rtx
	movq	192(%rbx), %rcx
	movq	%rbx, %r15
	movq	200(%rsp), %rdx         # 8-byte Reload
	movq	8(%rcx,%rdx), %rcx
	movq	%rax, 56(%rcx)
	movq	%r12, %rdi
	callq	delete_insn
	movq	%r14, %rax
	movabsq	$4294967288, %rcx       # imm = 0xFFFFFFF8
	andq	%rcx, %rax
	cmpq	$8, %rax
	movabsq	$0, %rax
	jne	.LBB2_159
# BB#158:                               # %if.then558
                                        #   in Loop: Header=BB2_96 Depth=1
	movabsq	$1, %rax
.LBB2_159:                              # %if.then558
                                        #   in Loop: Header=BB2_96 Depth=1
	leaq	-21(%r14), %rcx
	movabsq	$4294967295, %rdx       # imm = 0xFFFFFFFF
	andq	%rdx, %rcx
	cmpq	$8, %rcx
	sbbq	%rcx, %rcx
	andq	$1, %rcx
	orq	%rax, %rcx
	leaq	-45(%r14), %rax
	andq	%rdx, %rax
	cmpq	$8, %rax
	sbbq	%rax, %rax
	andq	$1, %rax
	orq	%rcx, %rax
	leaq	-29(%r14), %rcx
	andq	%rdx, %rcx
	movq	%rdx, %r10
	cmpq	$8, %rcx
	sbbq	%rsi, %rsi
	andq	$1, %rsi
	orq	%rax, %rsi
	movq	$3, %rcx
	movq	%r14, %rax
	shlq	%cl, %rax
	leaq	(%rax,%rax,2), %rdi
	xorq	%r8, %r8
	jmp	.LBB2_160
.LBB2_276:                              # %if.end.i2195.land.rhs.i2186_crit_edge
                                        #   in Loop: Header=BB2_272 Depth=2
	movl	8(%rbx), %edi
.LBB2_272:                              # %land.rhs.i2186
                                        #   Parent Loop BB2_96 Depth=1
                                        # =>  This Inner Loop Header: Depth=2
	movq	$32, %rcx
	movq	%rdi, %r10
	shlq	%cl, %r10
	movq	$32, %rcx
	sarq	%cl, %r10
	cmpq	%rdx, %r10
	jge	.LBB2_856
# BB#273:                               # %cond.true.i
                                        #   in Loop: Header=BB2_272 Depth=2
	movq	$32, %rcx
	shlq	%cl, %rdi
	movq	$32, %rcx
	sarq	%cl, %rdi
	movq	200(%rsp), %rcx         # 8-byte Reload
	movslq	(%rcx,%rdi,4), %r10
	movq	$32, %rcx
	movq	%r9, %r11
	shlq	%cl, %r11
	movq	$32, %rcx
	sarq	%cl, %r11
	xorq	%rdi, %rdi
	cmpq	%r11, %r10
	jg	.LBB2_265
# BB#274:                               # %while.body.i2192
                                        #   in Loop: Header=BB2_272 Depth=2
	movzbl	(%rbx), %ecx
	cmpq	$36, %rcx
	je	.LBB2_264
# BB#275:                               # %if.end.i2195
                                        #   in Loop: Header=BB2_272 Depth=2
	movq	24(%rbx), %rbx
	testq	%rbx, %rbx
	jne	.LBB2_276
	jmp	.LBB2_265
.LBB2_264:                              #   in Loop: Header=BB2_96 Depth=1
	movq	$1, %rdi
.LBB2_265:                              # %lor.end1287
                                        #   in Loop: Header=BB2_96 Depth=1
	movq	$2, %rcx
	movq	%rdi, %rdx
	shlq	%cl, %rdx
	andq	$-111, %rax
	orq	%rdx, %rax
	movb	%al, 44(%rsi)
	movabsq	$4294967295, %rcx       # imm = 0xFFFFFFFF
	movq	208(%rsp), %rdx         # 8-byte Reload
	testq	%rcx, %rdx
	je	.LBB2_277
# BB#266:                               # %lor.end1287
                                        #   in Loop: Header=BB2_96 Depth=1
	xorq	$1, %rdi
	jne	.LBB2_277
# BB#267:                               # %if.then1304
                                        #   in Loop: Header=BB2_96 Depth=1
	movq	16(%r15), %rcx
	movzbl	2(%rcx), %ecx
	jmp	.LBB2_278
.LBB2_183:                              # %for.body685
                                        #   in Loop: Header=BB2_160 Depth=2
	movq	192(%r15), %rax
	xorq	%rcx, %rcx
	movl	%ecx, (%rax,%rdi)
	incq	%r8
	addq	$24, %rdi
.LBB2_160:                              # %for.cond582
                                        #   Parent Loop BB2_96 Depth=1
                                        # =>  This Inner Loop Header: Depth=2
	movq	$1, %rax
	cmpq	$52, %r14
	jg	.LBB2_181
# BB#161:                               # %cond.true585
                                        #   in Loop: Header=BB2_160 Depth=2
	movq	8(%r13), %rax
	movzbl	2(%rax), %eax
	testq	%rsi, %rsi
	je	.LBB2_176
# BB#162:                               # %cond.true609
                                        #   in Loop: Header=BB2_160 Depth=2
	movl	mode_class(,%rax,4), %ecx
	cmpq	$5, %rcx
	movq	$2, %rax
	je	.LBB2_181
# BB#163:                               # %lor.rhs619
                                        #   in Loop: Header=BB2_160 Depth=2
	cmpq	$6, %rcx
	movabsq	$0, %rax
	jne	.LBB2_165
# BB#164:                               # %lor.rhs619
                                        #   in Loop: Header=BB2_160 Depth=2
	movabsq	$1, %rax
.LBB2_165:                              # %lor.rhs619
                                        #   in Loop: Header=BB2_160 Depth=2
	incq	%rax
	jmp	.LBB2_181
.LBB2_176:                              # %cond.false632
                                        #   in Loop: Header=BB2_160 Depth=2
	cmpq	$24, %rax
	jne	.LBB2_177
# BB#179:                               # %cond.true653
                                        #   in Loop: Header=BB2_160 Depth=2
	movzbl	target_flags+3(%rip), %eax
	andq	$2, %rax
	xorq	$6, %rax
	jmp	.LBB2_181
.LBB2_177:                              # %cond.false632
                                        #   in Loop: Header=BB2_160 Depth=2
	cmpq	$18, %rax
	jne	.LBB2_180
# BB#178:                               # %cond.true641
                                        #   in Loop: Header=BB2_160 Depth=2
	movl	target_flags(%rip), %eax
	movq	$25, %rcx
	shrq	%cl, %rax
	andq	$1, %rax
	xorq	$3, %rax
	jmp	.LBB2_181
.LBB2_180:                              # %cond.false657
                                        #   in Loop: Header=BB2_160 Depth=2
	movl	target_flags(%rip), %r9d
	movzbl	mode_size(%rax), %eax
	movq	$23, %rcx
	shrq	%cl, %r9
	andq	$4, %r9
	leaq	3(%rax,%r9), %rax
	addq	$4, %r9
	cqto
	idivq	%r9
.LBB2_181:                              # %cond.end681
                                        #   in Loop: Header=BB2_160 Depth=2
	movq	$32, %rcx
	movq	%r8, %rdx
	shlq	%cl, %rdx
	movq	$32, %rcx
	sarq	%cl, %rdx
	movq	$32, %rcx
	shlq	%cl, %rax
	movq	$32, %rcx
	sarq	%cl, %rax
	cmpq	%rax, %rdx
	jl	.LBB2_183
# BB#182:                               #   in Loop: Header=BB2_96 Depth=1
	movq	%r15, %r13
	movq	160(%rsp), %r9          # 8-byte Reload
	jmp	.LBB2_297
.LBB2_277:                              # %if.else1312
                                        #   in Loop: Header=BB2_96 Depth=1
	xorq	%rcx, %rcx
.LBB2_278:                              # %if.end1314
                                        #   in Loop: Header=BB2_96 Depth=1
	movl	%ecx, 48(%rsi)
	movq	%r13, %rdi
	movl	%edi, 36(%rsi)
	movq	reg_n_info(%rip), %rcx
	andq	$148, %rax
	movb	%al, 44(%rsi)
	movq	$0, 56(%rsi)
	movq	32(%rcx,%rdi,8), %rax
	movslq	4(%rax), %rcx
	movq	uid_luid(%rip), %rdx
	movslq	(%rax), %rax
	movl	(%rdx,%rcx,4), %ecx
	movl	(%rdx,%rax,4), %eax
	subq	%rax, %rcx
	movw	%cx, 40(%rsi)
	movq	$1, %rax
	movw	%ax, 42(%rsi)
	movq	%rdi, %rax
	movq	%rdi, %rdx
	movabsq	$4294967288, %rcx       # imm = 0xFFFFFFF8
	andq	%rcx, %rax
	cmpq	$8, %rax
	movabsq	$0, %rax
	jne	.LBB2_280
# BB#279:                               # %if.end1314
                                        #   in Loop: Header=BB2_96 Depth=1
	movabsq	$1, %rax
.LBB2_280:                              # %if.end1314
                                        #   in Loop: Header=BB2_96 Depth=1
	movq	%rdx, %rbx
	leaq	-21(%rbx), %rcx
	movabsq	$4294967295, %rdx       # imm = 0xFFFFFFFF
	andq	%rdx, %rcx
	cmpq	$8, %rcx
	sbbq	%rcx, %rcx
	andq	$1, %rcx
	orq	%rax, %rcx
	leaq	-45(%rbx), %rax
	andq	%rdx, %rax
	cmpq	$8, %rax
	sbbq	%rax, %rax
	andq	$1, %rax
	orq	%rcx, %rax
	leaq	-29(%rbx), %rcx
	andq	%rdx, %rcx
	movq	%rdx, %r10
	cmpq	$8, %rcx
	sbbq	%rdi, %rdi
	andq	$1, %rdi
	orq	%rax, %rdi
	movq	$3, %rcx
	movq	%rbx, %rax
	movq	%rbx, %r11
	shlq	%cl, %rax
	leaq	(%rax,%rax,2), %r15
	xorq	%r9, %r9
	jmp	.LBB2_281
.LBB2_293:                              # %for.body1446
                                        #   in Loop: Header=BB2_281 Depth=2
	movq	128(%rsp), %rax         # 8-byte Reload
	movq	192(%rax), %rax
	movl	%r10d, (%rax,%r15)
	incq	%r9
	addq	$24, %r15
.LBB2_281:                              # %for.cond1338
                                        #   Parent Loop BB2_96 Depth=1
                                        # =>  This Inner Loop Header: Depth=2
	movq	$1, %rax
	cmpq	$52, %r11
	jg	.LBB2_292
# BB#282:                               # %cond.true1341
                                        #   in Loop: Header=BB2_281 Depth=2
	movq	8(%r8), %rax
	movzbl	2(%rax), %eax
	testq	%rdi, %rdi
	je	.LBB2_287
# BB#283:                               # %cond.true1365
                                        #   in Loop: Header=BB2_281 Depth=2
	movl	mode_class(,%rax,4), %ecx
	cmpq	$5, %rcx
	movq	$2, %rax
	je	.LBB2_292
# BB#284:                               # %lor.rhs1376
                                        #   in Loop: Header=BB2_281 Depth=2
	cmpq	$6, %rcx
	movabsq	$0, %rax
	jne	.LBB2_286
# BB#285:                               # %lor.rhs1376
                                        #   in Loop: Header=BB2_281 Depth=2
	movabsq	$1, %rax
.LBB2_286:                              # %lor.rhs1376
                                        #   in Loop: Header=BB2_281 Depth=2
	incq	%rax
	jmp	.LBB2_292
.LBB2_287:                              # %cond.false1390
                                        #   in Loop: Header=BB2_281 Depth=2
	cmpq	$24, %rax
	jne	.LBB2_288
# BB#290:                               # %cond.true1412
                                        #   in Loop: Header=BB2_281 Depth=2
	movzbl	target_flags+3(%rip), %eax
	andq	$2, %rax
	xorq	$6, %rax
	jmp	.LBB2_292
.LBB2_288:                              # %cond.false1390
                                        #   in Loop: Header=BB2_281 Depth=2
	cmpq	$18, %rax
	jne	.LBB2_291
# BB#289:                               # %cond.true1399
                                        #   in Loop: Header=BB2_281 Depth=2
	movl	target_flags(%rip), %eax
	movq	$25, %rcx
	shrq	%cl, %rax
	andq	$1, %rax
	xorq	$3, %rax
	jmp	.LBB2_292
.LBB2_291:                              # %cond.false1416
                                        #   in Loop: Header=BB2_281 Depth=2
	movl	target_flags(%rip), %ebx
	movzbl	mode_size(%rax), %eax
	movq	$23, %rcx
	shrq	%cl, %rbx
	andq	$4, %rbx
	leaq	3(%rax,%rbx), %rax
	addq	$4, %rbx
	cqto
	idivq	%rbx
.LBB2_292:                              # %cond.end1442
                                        #   in Loop: Header=BB2_281 Depth=2
	movq	$32, %rcx
	movq	%r9, %rdx
	shlq	%cl, %rdx
	movq	$32, %rcx
	sarq	%cl, %rdx
	movq	$32, %rcx
	shlq	%cl, %rax
	movq	$32, %rcx
	sarq	%cl, %rax
	cmpq	%rax, %rdx
	jl	.LBB2_293
# BB#294:                               # %for.end1454
                                        #   in Loop: Header=BB2_96 Depth=1
	movq	136(%rsp), %rax         # 8-byte Reload
	cmpq	$0, (%rax)
	jne	.LBB2_298
# BB#295:                               # %if.then.i2200
                                        #   in Loop: Header=BB2_96 Depth=1
	movq	136(%rsp), %rax         # 8-byte Reload
	movq	%rsi, (%rax)
	movq	128(%rsp), %r13         # 8-byte Reload
	jmp	.LBB2_296
.LBB2_298:                              # %if.else.i2203
                                        #   in Loop: Header=BB2_96 Depth=1
	movq	128(%rsp), %r13         # 8-byte Reload
	movq	176(%r13), %rax
	movq	%rsi, 72(%rax)
.LBB2_296:                              # %for.inc1543
                                        #   in Loop: Header=BB2_96 Depth=1
	movq	%rsi, 176(%r13)
	movq	%r14, %r9
.LBB2_297:                              # %for.inc1543
                                        #   in Loop: Header=BB2_96 Depth=1
	movq	176(%rsp), %rdx         # 8-byte Reload
	movq	%r10, %r15
	jmp	.LBB2_319
	.align	16, 0x90
.LBB2_96:                               # %for.body193
                                        # =>This Loop Header: Depth=1
                                        #     Child Loop BB2_118 Depth 2
                                        #     Child Loop BB2_125 Depth 2
                                        #     Child Loop BB2_132 Depth 2
                                        #     Child Loop BB2_169 Depth 2
                                        #     Child Loop BB2_160 Depth 2
                                        #     Child Loop BB2_195 Depth 2
                                        #     Child Loop BB2_209 Depth 2
                                        #     Child Loop BB2_229 Depth 2
                                        #       Child Loop BB2_232 Depth 3
                                        #     Child Loop BB2_272 Depth 2
                                        #     Child Loop BB2_281 Depth 2
	movzbl	(%r12), %eax
	cmpq	$32, %rax
	jne	.LBB2_299
# BB#97:                                # %for.body193
                                        #   in Loop: Header=BB2_96 Depth=1
	cmpq	$105, %rdx
	jne	.LBB2_299
# BB#98:                                # %cond.true206
                                        #   in Loop: Header=BB2_96 Depth=1
	movq	32(%r12), %rbx
	movzbl	(%rbx), %eax
	cmpq	$47, %rax
	movq	%r12, %rdi
	jne	.LBB2_100
# BB#99:                                #   in Loop: Header=BB2_96 Depth=1
	movq	%rdi, %r14
	jmp	.LBB2_101
	.align	16, 0x90
.LBB2_100:                              # %cond.false218
                                        #   in Loop: Header=BB2_96 Depth=1
	movq	%r13, %r12
	movq	%r15, %r13
	movq	%rdx, %r15
	movq	%rdi, %r14
	movq	%rbx, %rsi
	movq	%r9, %rbx
	callq	single_set_2
	movq	%r15, %rdx
	movq	%r13, %r15
	movq	%r12, %r13
	movq	%rbx, %r9
	movq	%rax, %rbx
.LBB2_101:                              # %cond.end226
                                        #   in Loop: Header=BB2_96 Depth=1
	testq	%rbx, %rbx
	movq	%r14, %r12
	je	.LBB2_299
# BB#102:                               # %land.lhs.true229
                                        #   in Loop: Header=BB2_96 Depth=1
	movq	8(%rbx), %rax
	movzbl	(%rax), %ecx
	cmpq	$61, %rcx
	jne	.LBB2_299
# BB#103:                               # %land.lhs.true237
                                        #   in Loop: Header=BB2_96 Depth=1
	movl	8(%rax), %eax
	movq	192(%r13), %rcx
	leaq	(%rax,%rax,2), %rax
	movzbl	16(%rcx,%rax,8), %eax
	testq	%rax, %rax
	jne	.LBB2_299
# BB#104:                               # %if.then246
                                        #   in Loop: Header=BB2_96 Depth=1
	movq	16(%rbx), %rax
	movq	%rax, 200(%rsp)         # 8-byte Spill
	movq	$3, %rsi
	xorq	%rdx, %rdx
	movq	%r12, %rdi
	callq	find_reg_note
	testq	%rax, %rax
	jne	.LBB2_105
# BB#106:                               # %if.else256
                                        #   in Loop: Header=BB2_96 Depth=1
	movq	$4, %rsi
	xorq	%rdx, %rdx
	movq	%r12, %rdi
	callq	find_reg_note
	movq	%rax, %r14
	testq	%r14, %r14
	jne	.LBB2_108
# BB#107:                               #   in Loop: Header=BB2_96 Depth=1
	movq	$0, 144(%rsp)           # 8-byte Folded Spill
	movq	%rbx, %r13
	xorq	%rax, %rax
	jmp	.LBB2_122
	.align	16, 0x90
.LBB2_299:                              # %if.else1460
                                        #   in Loop: Header=BB2_96 Depth=1
	movl	(%r12), %eax
	movq	%rax, %rcx
	andq	$67174399, %rcx         # imm = 0x400FFFF
	cmpq	$34, %rcx
	jne	.LBB2_301
# BB#300:                               #   in Loop: Header=BB2_96 Depth=1
	movq	$1, 216(%rsp)           # 8-byte Folded Spill
	jmp	.LBB2_319
	.align	16, 0x90
.LBB2_301:                              # %if.else1471
                                        #   in Loop: Header=BB2_96 Depth=1
	movq	%rax, %rcx
	andq	$65535, %rcx            # imm = 0xFFFF
	cmpq	$36, %rcx
	jne	.LBB2_303
# BB#302:                               #   in Loop: Header=BB2_96 Depth=1
	movq	$1, 208(%rsp)           # 8-byte Folded Spill
	jmp	.LBB2_319
	.align	16, 0x90
.LBB2_303:                              # %if.else1471
                                        #   in Loop: Header=BB2_96 Depth=1
	cmpq	$33, %rcx
	jne	.LBB2_311
# BB#304:                               # %land.lhs.true1486
                                        #   in Loop: Header=BB2_96 Depth=1
	movq	64(%r12), %rax
	movq	208(%r9), %rcx
	cmpq	%rcx, %rax
	jne	.LBB2_305
# BB#306:                               # %land.lhs.true1493
                                        #   in Loop: Header=BB2_96 Depth=1
	movq	%r15, %rbx
	movq	24(%r12), %rax
	movq	24(%rax), %rax
	movq	112(%rsp), %rcx         # 8-byte Reload
	cmpq	%rcx, %rax
	jne	.LBB2_307
# BB#308:                               # %land.lhs.true1502
                                        #   in Loop: Header=BB2_96 Depth=1
	movq	%r13, %r15
	movq	%rdx, %r13
	movq	%r9, %r14
	movq	%r12, %rdi
	callq	any_uncondjump_p
	testq	%rbx, %rax
	jne	.LBB2_310
# BB#309:                               #   in Loop: Header=BB2_96 Depth=1
	movq	$1, 208(%rsp)           # 8-byte Folded Spill
	movq	%r14, %r9
	movq	%r13, %rdx
	movq	%r15, %r13
	movq	%rbx, %r15
	jmp	.LBB2_319
.LBB2_305:                              #   in Loop: Header=BB2_96 Depth=1
	movq	$1, 208(%rsp)           # 8-byte Folded Spill
	jmp	.LBB2_319
.LBB2_105:                              # %if.then252
                                        #   in Loop: Header=BB2_96 Depth=1
	movq	%rbx, %r13
	movq	8(%rax), %rax
	movq	%rax, 200(%rsp)         # 8-byte Spill
	xorq	%rax, %rax
	movq	$1, 144(%rsp)           # 8-byte Folded Spill
.LBB2_122:                              # %if.end338
                                        #   in Loop: Header=BB2_96 Depth=1
	movq	160(%rsp), %r9          # 8-byte Reload
	jmp	.LBB2_123
.LBB2_307:                              #   in Loop: Header=BB2_96 Depth=1
	movq	$1, 208(%rsp)           # 8-byte Folded Spill
	movq	%rbx, %r15
	jmp	.LBB2_319
.LBB2_108:                              # %land.lhs.true259
                                        #   in Loop: Header=BB2_96 Depth=1
	movq	8(%r14), %rax
	movzbl	(%rax), %ecx
	xorq	%rdx, %rdx
	cmpq	$133, %rcx
	jg	.LBB2_112
# BB#109:                               # %land.lhs.true259
                                        #   in Loop: Header=BB2_96 Depth=1
	addq	$-54, %rcx
	andq	%r15, %rcx
	cmpq	$14, %rcx
	jbe	.LBB2_111
# BB#110:                               #   in Loop: Header=BB2_96 Depth=1
	xorq	%rdx, %rdx
	jmp	.LBB2_115
.LBB2_310:                              # %land.lhs.true1502.if.else1506_crit_edge
                                        #   in Loop: Header=BB2_96 Depth=1
	movl	(%r12), %eax
	movq	%r14, %r9
	movq	%r13, %rdx
	movq	%r15, %r13
	movq	%rbx, %r15
.LBB2_311:                              # %if.else1506
                                        #   in Loop: Header=BB2_96 Depth=1
	andq	$65535, %rax            # imm = 0xFFFF
	cmpq	$37, %rax
	jne	.LBB2_319
# BB#312:                               # %if.then1511
                                        #   in Loop: Header=BB2_96 Depth=1
	movl	40(%r12), %eax
	movabsq	$4294967203, %rcx       # imm = 0xFFFFFFA3
	cmpq	%rcx, %rax
	jne	.LBB2_315
# BB#313:                               # %if.then1511
                                        #   in Loop: Header=BB2_96 Depth=1
	movq	184(%rsp), %rcx         # 8-byte Reload
	testq	%r15, %rcx
	jne	.LBB2_315
# BB#314:                               #   in Loop: Header=BB2_96 Depth=1
	movq	$0, 184(%rsp)           # 8-byte Folded Spill
	movq	$0, 216(%rsp)           # 8-byte Folded Spill
	movq	$0, 208(%rsp)           # 8-byte Folded Spill
	jmp	.LBB2_319
.LBB2_315:                              # %if.else1521
                                        #   in Loop: Header=BB2_96 Depth=1
	movabsq	$4294967201, %rcx       # imm = 0xFFFFFFA1
	cmpq	%rcx, %rax
	jne	.LBB2_316
# BB#318:                               # %if.then1535
                                        #   in Loop: Header=BB2_96 Depth=1
	decq	184(%rsp)               # 8-byte Folded Spill
	jmp	.LBB2_319
.LBB2_316:                              # %if.else1521
                                        #   in Loop: Header=BB2_96 Depth=1
	movabsq	$4294967200, %rcx       # imm = 0xFFFFFFA0
	cmpq	%rcx, %rax
	jne	.LBB2_319
# BB#317:                               # %if.then1527
                                        #   in Loop: Header=BB2_96 Depth=1
	incq	184(%rsp)               # 8-byte Folded Spill
	jmp	.LBB2_319
.LBB2_112:                              # %land.lhs.true259
                                        #   in Loop: Header=BB2_96 Depth=1
	cmpq	$134, %rcx
	je	.LBB2_114
# BB#113:                               # %land.lhs.true259
                                        #   in Loop: Header=BB2_96 Depth=1
	cmpq	$140, %rcx
	jne	.LBB2_115
	jmp	.LBB2_114
.LBB2_111:                              # %land.lhs.true259
                                        #   in Loop: Header=BB2_96 Depth=1
	movq	$1, %rdx
	shlq	%cl, %rdx
	testq	$24599, %rdx            # imm = 0x6017
	movabsq	$0, %rdx
	je	.LBB2_115
.LBB2_114:                              # %if.then323
                                        #   in Loop: Header=BB2_96 Depth=1
	movq	$1, %rdx
	movq	%rax, 200(%rsp)         # 8-byte Spill
.LBB2_115:                              # %land.lhs.true329
                                        #   in Loop: Header=BB2_96 Depth=1
	movq	%rdx, 144(%rsp)         # 8-byte Spill
	movq	%rbx, %r13
	movq	$6, %rsi
	xorq	%rdx, %rdx
	movq	%r12, %rdi
	callq	find_reg_note
	testq	%rax, %rax
	je	.LBB2_116
# BB#117:                               # %if.then332
                                        #   in Loop: Header=BB2_96 Depth=1
	movq	8(%r14), %rax
	movq	%rax, 200(%rsp)         # 8-byte Spill
	movq	$6, %rsi
	xorq	%rdx, %rdx
	movq	%r12, %rdi
	callq	find_reg_note
	movq	8(%rax), %rbx
	cmpq	%r12, %rbx
	movq	$0, 224(%rsp)
	leaq	224(%rsp), %r14
	jne	.LBB2_118
.LBB2_116:                              #   in Loop: Header=BB2_96 Depth=1
	movq	160(%rsp), %r9          # 8-byte Reload
	xorq	%rax, %rax
.LBB2_123:                              # %if.end338
                                        #   in Loop: Header=BB2_96 Depth=1
	movq	32(%r12), %r8
	movzbl	(%r8), %ecx
	cmpq	$39, %rcx
	jne	.LBB2_128
# BB#124:                               # %for.cond347.preheader
                                        #   in Loop: Header=BB2_96 Depth=1
	movq	8(%r8), %rdx
	movslq	(%rdx), %rcx
	testq	%rcx, %rcx
	movq	$1, %rbx
	jle	.LBB2_128
	.align	16, 0x90
.LBB2_125:                              # %for.body355
                                        #   Parent Loop BB2_96 Depth=1
                                        # =>  This Inner Loop Header: Depth=2
	movq	(%rdx,%rbx,8), %rdx
	movzbl	(%rdx), %ecx
	cmpq	$48, %rcx
	jne	.LBB2_127
# BB#126:                               # %if.then368
                                        #   in Loop: Header=BB2_125 Depth=2
	movq	8(%rdx), %rdx
	movq	$3, %rdi
	xorq	%rsi, %rsi
	movq	%rax, %rcx
	movq	%r9, %r14
	callq	gen_rtx_fmt_ee
	movq	%r14, %r9
	movq	32(%r12), %r8
.LBB2_127:                              # %for.inc374
                                        #   in Loop: Header=BB2_125 Depth=2
	movq	8(%r8), %rdx
	movslq	(%rdx), %rsi
	movq	$32, %rcx
	movq	%rbx, %rdi
	shlq	%cl, %rdi
	movq	$32, %rcx
	sarq	%cl, %rdi
	incq	%rbx
	cmpq	%rsi, %rdi
	jl	.LBB2_125
.LBB2_128:                              # %if.end376
                                        #   in Loop: Header=BB2_96 Depth=1
	movq	%rax, 168(%rsp)         # 8-byte Spill
	movq	8(%r13), %r14
	movl	8(%r14), %edx
	movq	$32, %rcx
	movq	%rdx, %rax
	movl	max_reg_before_loop(%rip), %esi
	shlq	%cl, %rax
	movq	$32, %rcx
	sarq	%cl, %rax
	cmpq	%rsi, %rdx
	jae	.LBB2_129
# BB#130:                               # %if.else386
                                        #   in Loop: Header=BB2_96 Depth=1
	movq	%r13, 152(%rsp)         # 8-byte Spill
	movq	reg_n_info(%rip), %rcx
	movq	32(%rcx,%rax,8), %rax
	movl	(%rax), %ecx
	movl	8(%r12), %edx
	cmpq	%rdx, %rcx
	jne	.LBB2_167
# BB#131:                               # %for.body.i2133.preheader
                                        #   in Loop: Header=BB2_96 Depth=1
	movq	%r12, %rcx
	.align	16, 0x90
.LBB2_132:                              # %for.body.i2133
                                        #   Parent Loop BB2_96 Depth=1
                                        # =>  This Inner Loop Header: Depth=2
	movzbl	(%rcx), %edx
	addq	$-32, %rdx
	andq	%r15, %rdx
	cmpq	$4, %rdx
	ja	.LBB2_135
# BB#133:                               # %for.body.i2133
                                        #   in Loop: Header=BB2_132 Depth=2
	jmpq	*.LJTI2_1(,%rdx,8)
.LBB2_134:                              # %sw.bb.i2134
                                        #   in Loop: Header=BB2_132 Depth=2
	movl	8(%rcx), %edx
	movl	4(%rax), %esi
	cmpq	%rdx, %rsi
	je	.LBB2_136
.LBB2_135:                              # %for.inc.i2137
                                        #   in Loop: Header=BB2_132 Depth=2
	movq	24(%rcx), %rcx
	testq	%rcx, %rcx
	jne	.LBB2_132
	jmp	.LBB2_136
	.align	16, 0x90
.LBB2_118:                              # %while.body.i
                                        #   Parent Loop BB2_96 Depth=1
                                        # =>  This Inner Loop Header: Depth=2
	movzbl	(%rbx), %eax
	addq	$-32, %rax
	andq	%r15, %rax
	cmpq	$2, %rax
	ja	.LBB2_120
# BB#119:                               # %if.then.i2122
                                        #   in Loop: Header=BB2_118 Depth=2
	movq	32(%rbx), %rdi
	movq	200(%rsp), %rsi         # 8-byte Reload
	movq	%r14, %rdx
	callq	record_excess_regs
.LBB2_120:                              # %if.end.i
                                        #   in Loop: Header=BB2_118 Depth=2
	movq	24(%rbx), %rbx
	cmpq	%r12, %rbx
	jne	.LBB2_118
# BB#121:                               # %while.cond.while.end_crit_edge.i
                                        #   in Loop: Header=BB2_96 Depth=1
	movq	224(%rsp), %rax
	jmp	.LBB2_122
.LBB2_166:                              # %reg_in_basic_block_p.exit
                                        #   in Loop: Header=BB2_96 Depth=1
	movl	4(%rax), %eax
	movl	8(%rcx), %ecx
	cmpq	%rcx, %rax
	je	.LBB2_136
.LBB2_167:                              # %land.lhs.true392
                                        #   in Loop: Header=BB2_96 Depth=1
	movq	208(%rsp), %rax         # 8-byte Reload
	testq	%r15, %rax
	jne	.LBB2_129
# BB#168:                               # %lor.lhs.false394
                                        #   in Loop: Header=BB2_96 Depth=1
	movq	216(%r9), %rbx
	jmp	.LBB2_169
.LBB2_175:                              # %for.inc.i2151
                                        #   in Loop: Header=BB2_169 Depth=2
	movq	24(%rbx), %rbx
.LBB2_169:                              # %lor.lhs.false394
                                        #   Parent Loop BB2_96 Depth=1
                                        # =>  This Inner Loop Header: Depth=2
	cmpq	%r12, %rbx
	je	.LBB2_136
# BB#170:                               # %for.body.i2146
                                        #   in Loop: Header=BB2_169 Depth=2
	movzbl	(%rbx), %eax
	movzbl	rtx_class(%rax), %eax
	cmpq	$105, %rax
	jne	.LBB2_173
# BB#171:                               # %land.lhs.true.i
                                        #   in Loop: Header=BB2_169 Depth=2
	movq	32(%rbx), %rsi
	movq	%r14, %rdi
	movq	%r15, %r13
	movq	%r9, %r15
	callq	reg_overlap_mentioned_p
	movq	%r15, %r9
	movq	%r13, %r15
	testq	%r15, %rax
	jne	.LBB2_172
.LBB2_173:                              # %if.end.i2149
                                        #   in Loop: Header=BB2_169 Depth=2
	movq	200(%r9), %rax
	cmpq	%rax, %rbx
	jne	.LBB2_175
# BB#174:                               # %if.then9.i
                                        #   in Loop: Header=BB2_169 Depth=2
	movq	192(%r9), %rbx
	jmp	.LBB2_175
.LBB2_136:                              # %if.else398
                                        #   in Loop: Header=BB2_96 Depth=1
	movq	%r9, %rdi
	movq	200(%rsp), %rsi         # 8-byte Reload
	callq	loop_invariant_p
	movq	%rax, %rbx
	testq	%r15, %rbx
	movq	168(%rsp), %r14         # 8-byte Reload
	je	.LBB2_247
# BB#137:                               # %land.lhs.true401
                                        #   in Loop: Header=BB2_96 Depth=1
	movq	$0, 120(%rsp)           # 8-byte Folded Spill
	testq	%r14, %r14
	movabsq	$0, %r13
	je	.LBB2_139
# BB#138:                               # %lor.lhs.false404
                                        #   in Loop: Header=BB2_96 Depth=1
	movq	160(%rsp), %rdi         # 8-byte Reload
	movq	%r14, %rsi
	callq	loop_invariant_p
	movq	%rax, %r13
	testq	%r15, %r13
	je	.LBB2_247
.LBB2_139:                              # %land.lhs.true408
                                        #   in Loop: Header=BB2_96 Depth=1
	movq	152(%rsp), %rax         # 8-byte Reload
	movq	8(%rax), %rsi
	movl	8(%rsi), %eax
	movq	128(%rsp), %rcx         # 8-byte Reload
	movq	192(%rcx), %rcx
	leaq	(%rax,%rax,2), %rax
	movl	(%rcx,%rax,8), %edx
	cmpq	$1, %rdx
	je	.LBB2_141
# BB#140:                               # %lor.lhs.false420
                                        #   in Loop: Header=BB2_96 Depth=1
	movq	160(%rsp), %rdi         # 8-byte Reload
	movq	%r12, %rcx
	callq	consec_sets_invariant_p
	movq	%rax, 120(%rsp)         # 8-byte Spill
	testq	%r15, %rax
	je	.LBB2_247
.LBB2_141:                              # %land.lhs.true436
                                        #   in Loop: Header=BB2_96 Depth=1
	movq	208(%rsp), %rax         # 8-byte Reload
	movq	216(%rsp), %rcx         # 8-byte Reload
	orq	%rcx, %rax
	testq	%r15, %rax
	je	.LBB2_143
# BB#142:                               # %land.lhs.true440
                                        #   in Loop: Header=BB2_96 Depth=1
	movq	200(%rsp), %rdi         # 8-byte Reload
	callq	may_trap_p
	testq	%r15, %rax
	jne	.LBB2_247
.LBB2_143:                              # %if.then443
                                        #   in Loop: Header=BB2_96 Depth=1
	movq	%r13, 64(%rsp)          # 8-byte Spill
	movq	%rbx, 96(%rsp)          # 8-byte Spill
	movq	%r14, %rbx
	movq	152(%rsp), %rax         # 8-byte Reload
	movq	8(%rax), %rax
	movq	128(%rsp), %rcx         # 8-byte Reload
	movl	(%rcx), %ecx
	movslq	8(%rax), %r14
	testq	%rcx, %rcx
	je	.LBB2_184
# BB#144:                               # %land.lhs.true452
                                        #   in Loop: Header=BB2_96 Depth=1
	movq	128(%rsp), %rax         # 8-byte Reload
	movq	192(%rax), %rax
	leaq	(%r14,%r14,2), %r13
	movq	8(%rax,%r13,8), %rcx
	testq	%rcx, %rcx
	je	.LBB2_184
# BB#145:                               # %land.lhs.true452
                                        #   in Loop: Header=BB2_96 Depth=1
	movq	const_int_rtx+512(%rip), %rdx
	cmpq	%rdx, %rcx
	je	.LBB2_184
# BB#146:                               # %land.lhs.true465
                                        #   in Loop: Header=BB2_96 Depth=1
	movq	reg_n_info(%rip), %rdx
	movq	32(%rdx,%r14,8), %rdx
	movl	(%rdx), %esi
	movl	8(%r12), %edi
	cmpq	%rdi, %rsi
	jne	.LBB2_184
# BB#147:                               # %land.lhs.true473
                                        #   in Loop: Header=BB2_96 Depth=1
	movl	4(%rdx), %edx
	movl	8(%rcx), %ecx
	cmpq	%rcx, %rdx
	jne	.LBB2_184
# BB#148:                               # %land.lhs.true487
                                        #   in Loop: Header=BB2_96 Depth=1
	movl	(%rax,%r13,8), %eax
	cmpq	$1, %rax
	jne	.LBB2_184
# BB#149:                               # %land.lhs.true494
                                        #   in Loop: Header=BB2_96 Depth=1
	movq	152(%rsp), %rax         # 8-byte Reload
	movq	16(%rax), %rdi
	movzbl	(%rdi), %eax
	cmpq	$41, %rax
	je	.LBB2_184
# BB#150:                               # %land.lhs.true502
                                        #   in Loop: Header=BB2_96 Depth=1
	callq	side_effects_p
	testq	%r15, %rax
	jne	.LBB2_184
# BB#151:                               # %land.lhs.true508
                                        #   in Loop: Header=BB2_96 Depth=1
	movq	$6, %rsi
	xorq	%rdx, %rdx
	movq	%r12, %rdi
	callq	find_reg_note
	testq	%rax, %rax
	jne	.LBB2_184
# BB#152:                               # %land.lhs.true511
                                        #   in Loop: Header=BB2_96 Depth=1
	movq	152(%rsp), %rax         # 8-byte Reload
	movq	16(%rax), %rax
	movzbl	(%rax), %ecx
	cmpq	$61, %rcx
	jne	.LBB2_154
# BB#153:                               # %land.lhs.true519
                                        #   in Loop: Header=BB2_96 Depth=1
	movl	8(%rax), %ecx
	cmpq	$53, %rcx
	jb	.LBB2_184
.LBB2_154:                              # %land.lhs.true528
                                        #   in Loop: Header=BB2_96 Depth=1
	movq	128(%rsp), %rcx         # 8-byte Reload
	movq	192(%rcx), %rcx
	movq	8(%rcx,%r13,8), %rcx
	movq	%rax, %rdi
	movq	%r12, %rsi
	movq	%rcx, %rdx
	callq	modified_between_p
	testq	%r15, %rax
	jne	.LBB2_184
# BB#155:                               # %land.lhs.true538
                                        #   in Loop: Header=BB2_96 Depth=1
	movq	128(%rsp), %rax         # 8-byte Reload
	movq	192(%rax), %rax
	movq	8(%rax,%r13,8), %rax
	movq	%r12, %rdi
	movq	%rax, %rsi
	callq	no_labels_between_p
	testq	%r15, %rax
	je	.LBB2_184
# BB#156:                               # %land.lhs.true545
                                        #   in Loop: Header=BB2_96 Depth=1
	movq	128(%rsp), %rax         # 8-byte Reload
	movq	192(%rax), %rax
	movq	152(%rsp), %rdx         # 8-byte Reload
	movq	8(%rdx), %rcx
	movq	16(%rdx), %rdx
	movq	8(%rax,%r13,8), %rax
	movq	%rcx, %rdi
	movq	%rdx, %rsi
	movq	%rax, %rdx
	callq	validate_replace_rtx
	testq	%r15, %rax
	jne	.LBB2_157
.LBB2_184:                              # %if.end694
                                        #   in Loop: Header=BB2_96 Depth=1
	movq	$80, %rdi
	callq	xmalloc
	movq	$0, 72(%rax)
	movq	%r12, (%rax)
	movq	200(%rsp), %rcx         # 8-byte Reload
	movq	%rcx, 8(%rax)
	movq	%rbx, 24(%rax)
	movq	152(%rsp), %rdx         # 8-byte Reload
	movq	8(%rdx), %rcx
	movq	%rcx, 16(%rax)
	movzbl	44(%rax), %esi
	movq	%rsi, %rcx
	andq	$253, %rcx
	movb	%cl, 44(%rax)
	movq	8(%rdx), %rcx
	movl	8(%rcx), %ecx
	movq	128(%rsp), %r13         # 8-byte Reload
	movq	192(%r13), %rdx
	leaq	(%rcx,%rcx,2), %rcx
	movl	(%rdx,%rcx,8), %ecx
	decq	%rcx
	movl	%ecx, 32(%rax)
	movq	$0, 64(%rax)
	movq	$5, %rcx
	movq	144(%rsp), %rdx         # 8-byte Reload
	shlq	%cl, %rdx
	andq	$133, %rsi
	orq	%rdx, %rsi
	movb	%sil, 44(%rax)
	movq	%rax, %rbx
	movq	$3, %rsi
	xorq	%rdx, %rdx
	movq	%r12, %rdi
	callq	find_reg_note
	testq	%rax, %rax
	movabsq	$0, %rax
	je	.LBB2_186
# BB#185:                               # %if.end694
                                        #   in Loop: Header=BB2_96 Depth=1
	movabsq	$1, %rax
.LBB2_186:                              # %if.end694
                                        #   in Loop: Header=BB2_96 Depth=1
	movzbl	44(%rbx), %edx
	movq	$7, %rcx
	shlq	%cl, %rax
	xorq	%rcx, %rcx
	movl	%ecx, 48(%rbx)
	movl	%r14d, 36(%rbx)
	movq	96(%rsp), %rcx          # 8-byte Reload
	movq	64(%rsp), %rsi          # 8-byte Reload
	orq	%rcx, %rsi
	movq	120(%rsp), %rcx         # 8-byte Reload
	orq	%rcx, %rsi
	movq	$32, %rcx
	shlq	%cl, %rsi
	movq	$32, %rcx
	sarq	%cl, %rsi
	cmpq	$1, %rsi
	movabsq	$0, %rcx
	movq	160(%rsp), %r9          # 8-byte Reload
	jle	.LBB2_188
# BB#187:                               # %if.end694
                                        #   in Loop: Header=BB2_96 Depth=1
	movabsq	$1, %rcx
.LBB2_188:                              # %if.end694
                                        #   in Loop: Header=BB2_96 Depth=1
	andq	$126, %rdx
	orq	%rdx, %rax
	orq	%rcx, %rax
	movb	%al, 44(%rbx)
	movq	200(%r9), %rcx
	movslq	8(%rcx), %rdi
	movslq	max_uid_for_loop(%rip), %rcx
	cmpq	%rcx, %rdi
	jge	.LBB2_855
# BB#189:                               # %cond.true754
                                        #   in Loop: Header=BB2_96 Depth=1
	movq	reg_n_info(%rip), %r8
	movq	32(%r8,%r14,8), %r10
	movq	uid_luid(%rip), %rdx
	movslq	4(%r10), %rsi
	movslq	(%rdx,%rsi,4), %rsi
	movslq	(%rdx,%rdi,4), %rdi
	cmpq	%rdi, %rsi
	movq	$1, %rdi
	jg	.LBB2_193
# BB#190:                               # %lor.rhs766
                                        #   in Loop: Header=BB2_96 Depth=1
	movq	192(%r9), %rsi
	movslq	8(%rsi), %rdi
	cmpq	%rcx, %rdi
	jge	.LBB2_855
# BB#191:                               # %cond.true780
                                        #   in Loop: Header=BB2_96 Depth=1
	movslq	(%r10), %rcx
	movslq	(%rdx,%rcx,4), %rcx
	movslq	(%rdx,%rdi,4), %rsi
	cmpq	%rsi, %rcx
	movabsq	$0, %rdi
	jge	.LBB2_193
# BB#192:                               # %cond.true780
                                        #   in Loop: Header=BB2_96 Depth=1
	movabsq	$1, %rdi
.LBB2_193:                              # %lor.end792
                                        #   in Loop: Header=BB2_96 Depth=1
	movq	$2, %rcx
	shlq	%cl, %rdi
	andq	$251, %rax
	orq	%rdi, %rax
	movb	%al, 44(%rbx)
	movq	$0, 56(%rbx)
	movq	32(%r8,%r14,8), %rax
	movslq	4(%rax), %rcx
	movslq	(%rax), %rax
	movl	(%rdx,%rcx,4), %ecx
	movl	(%rdx,%rax,4), %eax
	subq	%rax, %rcx
	movw	%cx, 40(%rbx)
	movq	192(%r13), %rax
	leaq	(%r14,%r14,2), %rcx
	movzbl	4(%rax,%rcx,8), %eax
	movw	%ax, 42(%rbx)
	movq	%rbx, 104(%rsp)         # 8-byte Spill
	movq	$6, %rsi
	xorq	%rdx, %rdx
	movq	%r12, %rdi
	callq	find_reg_note
	testq	%rax, %rax
	je	.LBB2_204
# BB#194:                               # %if.then821
                                        #   in Loop: Header=BB2_96 Depth=1
	movq	$6, %rsi
	xorq	%rdx, %rdx
	xorq	%rbx, %rbx
	movq	%r12, %rdi
	callq	find_reg_note
	movq	8(%rax), %rax
	jmp	.LBB2_195
.LBB2_247:                              # %if.else1070
                                        #   in Loop: Header=BB2_96 Depth=1
	movq	152(%rsp), %rax         # 8-byte Reload
	movq	16(%rax), %rax
	movq	const_int_rtx+512(%rip), %rcx
	cmpq	%rcx, %rax
	jne	.LBB2_248
# BB#249:                               # %land.lhs.true1076
                                        #   in Loop: Header=BB2_96 Depth=1
	movq	24(%r12), %rdi
	movzbl	(%rdi), %eax
	cmpq	$32, %rax
	movq	160(%rsp), %r9          # 8-byte Reload
	jne	.LBB2_129
# BB#250:                               # %cond.true1095
                                        #   in Loop: Header=BB2_96 Depth=1
	movq	32(%rdi), %r15
	movzbl	(%r15), %eax
	cmpq	$47, %rax
	je	.LBB2_252
# BB#251:                               # %cond.false1113
                                        #   in Loop: Header=BB2_96 Depth=1
	movq	%r15, %rsi
	movq	%r9, %rbx
	callq	single_set_2
	movq	%rbx, %r9
	movq	%rax, %r15
.LBB2_252:                              # %cond.end1127
                                        #   in Loop: Header=BB2_96 Depth=1
	movq	176(%rsp), %rdx         # 8-byte Reload
	movq	152(%rsp), %rbx         # 8-byte Reload
	testq	%r15, %r15
	je	.LBB2_253
# BB#254:                               # %land.lhs.true1130
                                        #   in Loop: Header=BB2_96 Depth=1
	movzbl	(%r15), %eax
	cmpq	$47, %rax
	jne	.LBB2_253
# BB#255:                               # %land.lhs.true1135
                                        #   in Loop: Header=BB2_96 Depth=1
	movq	8(%r15), %rax
	movzbl	(%rax), %ecx
	cmpq	$64, %rcx
	jne	.LBB2_253
# BB#256:                               # %land.lhs.true1143
                                        #   in Loop: Header=BB2_96 Depth=1
	movq	8(%rax), %rax
	movzbl	(%rax), %ecx
	cmpq	$63, %rcx
	jne	.LBB2_253
# BB#257:                               # %land.lhs.true1154
                                        #   in Loop: Header=BB2_96 Depth=1
	movq	8(%rax), %rdi
	movq	8(%rbx), %rax
	cmpq	%rax, %rdi
	jne	.LBB2_258
# BB#260:                               # %land.lhs.true1169
                                        #   in Loop: Header=BB2_96 Depth=1
	movq	%r9, %r14
	movq	16(%r15), %rsi
	callq	reg_mentioned_p
	movabsq	$4294967295, %rcx       # imm = 0xFFFFFFFF
	testq	%rcx, %rax
	jne	.LBB2_261
# BB#262:                               # %if.then1178
                                        #   in Loop: Header=BB2_96 Depth=1
	movq	8(%rbx), %rax
	movslq	8(%rax), %r13
	movq	128(%rsp), %rax         # 8-byte Reload
	movq	192(%rax), %rax
	leaq	(%r13,%r13,2), %rcx
	movl	(%rax,%rcx,8), %eax
	cmpq	$2, %rax
	jne	.LBB2_261
# BB#263:                               # %if.then1192
                                        #   in Loop: Header=BB2_96 Depth=1
	movq	$80, %rdi
	callq	xmalloc
	movq	%rax, %rsi
	movq	$0, 72(%rsi)
	movq	%r12, (%rsi)
	movq	8(%rbx), %rax
	movq	%rbx, %r8
	movq	%rax, 16(%rsi)
	movq	$0, 24(%rsi)
	movzbl	44(%rsi), %eax
	xorq	%rcx, %rcx
	movl	%ecx, 32(%rsi)
	movq	$0, 64(%rsi)
	andq	$-123, %rax
	orq	$16, %rax
	movb	%al, 44(%rsi)
	movslq	8(%r12), %rdi
	movslq	max_uid_for_loop(%rip), %rdx
	cmpq	%rdx, %rdi
	jge	.LBB2_264
# BB#268:                               # %lor.lhs.false1225
                                        #   in Loop: Header=BB2_96 Depth=1
	movq	200(%r14), %rcx
	movslq	8(%rcx), %rbx
	cmpq	%rdx, %rbx
	jge	.LBB2_863
# BB#269:                               # %cond.true1239
                                        #   in Loop: Header=BB2_96 Depth=1
	movq	reg_n_info(%rip), %rcx
	movq	32(%rcx,%r13,8), %r9
	movq	uid_luid(%rip), %r10
	movslq	4(%r9), %rcx
	movslq	(%r10,%rcx,4), %rcx
	movslq	(%r10,%rbx,4), %rbx
	cmpq	%rbx, %rcx
	jg	.LBB2_264
# BB#270:                               # %lor.lhs.false1251
                                        #   in Loop: Header=BB2_96 Depth=1
	movq	192(%r14), %rcx
	movslq	8(%rcx), %rbx
	cmpq	%rdx, %rbx
	jge	.LBB2_863
# BB#271:                               # %cond.true1265
                                        #   in Loop: Header=BB2_96 Depth=1
	movslq	(%r9), %rcx
	movq	%r10, 200(%rsp)         # 8-byte Spill
	movl	(%r10,%rcx,4), %r9d
	movslq	(%r10,%rbx,4), %rbx
	movq	$32, %rcx
	movq	%r9, %r10
	shlq	%cl, %r10
	movq	$32, %rcx
	sarq	%cl, %r10
	cmpq	%rbx, %r10
	movq	%r12, %rbx
	jl	.LBB2_264
	jmp	.LBB2_272
.LBB2_248:                              #   in Loop: Header=BB2_96 Depth=1
	movq	128(%rsp), %r13         # 8-byte Reload
	jmp	.LBB2_226
.LBB2_253:                              #   in Loop: Header=BB2_96 Depth=1
	movq	128(%rsp), %r13         # 8-byte Reload
	movabsq	$4294967295, %r15       # imm = 0xFFFFFFFF
	jmp	.LBB2_319
.LBB2_202:                              # %for.inc.i2162
                                        #   in Loop: Header=BB2_195 Depth=2
	movq	24(%rax), %rax
.LBB2_195:                              # %if.then821
                                        #   Parent Loop BB2_96 Depth=1
                                        # =>  This Inner Loop Header: Depth=2
	cmpq	%r12, %rax
	je	.LBB2_203
# BB#196:                               # %for.body.i2157
                                        #   in Loop: Header=BB2_195 Depth=2
	movzbl	(%rax), %ecx
	cmpq	$32, %rcx
	jne	.LBB2_197
# BB#199:                               # %land.lhs.true.i2160
                                        #   in Loop: Header=BB2_195 Depth=2
	movq	32(%rax), %rcx
	movl	(%rcx), %ecx
	andq	$65534, %rcx            # imm = 0xFFFE
	cmpq	$48, %rcx
	movabsq	$0, %rcx
	je	.LBB2_201
# BB#200:                               # %land.lhs.true.i2160
                                        #   in Loop: Header=BB2_195 Depth=2
	movabsq	$1, %rcx
.LBB2_201:                              # %land.lhs.true.i2160
                                        #   in Loop: Header=BB2_195 Depth=2
	addq	%rcx, %rbx
	jmp	.LBB2_202
.LBB2_197:                              # %for.body.i2157
                                        #   in Loop: Header=BB2_195 Depth=2
	cmpq	$34, %rcx
	jne	.LBB2_202
# BB#198:                               # %if.then.i2158
                                        #   in Loop: Header=BB2_195 Depth=2
	addq	$10, %rbx
	movq	24(%rax), %rax
	jmp	.LBB2_195
.LBB2_203:                              # %libcall_benefit.exit
                                        #   in Loop: Header=BB2_96 Depth=1
	movq	104(%rsp), %rcx         # 8-byte Reload
	movzbl	42(%rcx), %eax
	addq	%rbx, %rax
	movw	%ax, 42(%rcx)
.LBB2_204:                              # %for.cond828.preheader
                                        #   in Loop: Header=BB2_96 Depth=1
	movq	%r14, %rax
	movabsq	$4294967288, %rcx       # imm = 0xFFFFFFF8
	andq	%rcx, %rax
	cmpq	$8, %rax
	movabsq	$0, %rax
	movq	152(%rsp), %rbx         # 8-byte Reload
	jne	.LBB2_206
# BB#205:                               # %for.cond828.preheader
                                        #   in Loop: Header=BB2_96 Depth=1
	movabsq	$1, %rax
.LBB2_206:                              # %for.cond828.preheader
                                        #   in Loop: Header=BB2_96 Depth=1
	leaq	-21(%r14), %rcx
	andq	%r15, %rcx
	cmpq	$8, %rcx
	sbbq	%rcx, %rcx
	andq	$1, %rcx
	orq	%rax, %rcx
	leaq	-45(%r14), %rax
	andq	%r15, %rax
	cmpq	$8, %rax
	sbbq	%r8, %r8
	andq	$1, %r8
	orq	%rcx, %r8
	leaq	-29(%r14), %rax
	andq	%r15, %rax
	cmpq	$8, %rax
	sbbq	%rax, %rax
	andq	$1, %rax
	cmpq	$0, 144(%rsp)           # 8-byte Folded Reload
	movabsq	$0, %r9
	jne	.LBB2_208
# BB#207:                               # %for.cond828.preheader
                                        #   in Loop: Header=BB2_96 Depth=1
	movabsq	$1, %r9
.LBB2_208:                              # %for.cond828.preheader
                                        #   in Loop: Header=BB2_96 Depth=1
	orq	%rax, %r8
	orq	$-2, %r9
	movq	$3, %rcx
	movq	%r14, %rax
	shlq	%cl, %rax
	leaq	(%rax,%rax,2), %rsi
	xorq	%rdi, %rdi
	movq	104(%rsp), %r11         # 8-byte Reload
	jmp	.LBB2_209
	.align	16, 0x90
.LBB2_221:                              # %for.body936
                                        #   in Loop: Header=BB2_209 Depth=2
	movq	192(%r13), %rax
	movl	%r9d, (%rax,%rsi)
	incq	%rdi
	addq	$24, %rsi
.LBB2_209:                              # %for.cond828
                                        #   Parent Loop BB2_96 Depth=1
                                        # =>  This Inner Loop Header: Depth=2
	movq	$1, %rax
	cmpq	$52, %r14
	jg	.LBB2_220
# BB#210:                               # %cond.true831
                                        #   in Loop: Header=BB2_209 Depth=2
	movq	8(%rbx), %rax
	movzbl	2(%rax), %eax
	testq	%r8, %r8
	je	.LBB2_215
# BB#211:                               # %cond.true855
                                        #   in Loop: Header=BB2_209 Depth=2
	movl	mode_class(,%rax,4), %ecx
	cmpq	$5, %rcx
	movq	$2, %rax
	je	.LBB2_220
# BB#212:                               # %lor.rhs866
                                        #   in Loop: Header=BB2_209 Depth=2
	cmpq	$6, %rcx
	movabsq	$0, %rax
	jne	.LBB2_214
# BB#213:                               # %lor.rhs866
                                        #   in Loop: Header=BB2_209 Depth=2
	movabsq	$1, %rax
.LBB2_214:                              # %lor.rhs866
                                        #   in Loop: Header=BB2_209 Depth=2
	incq	%rax
	jmp	.LBB2_220
.LBB2_215:                              # %cond.false880
                                        #   in Loop: Header=BB2_209 Depth=2
	cmpq	$24, %rax
	jne	.LBB2_216
# BB#218:                               # %cond.true902
                                        #   in Loop: Header=BB2_209 Depth=2
	movzbl	target_flags+3(%rip), %eax
	andq	$2, %rax
	xorq	$6, %rax
	jmp	.LBB2_220
.LBB2_216:                              # %cond.false880
                                        #   in Loop: Header=BB2_209 Depth=2
	cmpq	$18, %rax
	jne	.LBB2_219
# BB#217:                               # %cond.true889
                                        #   in Loop: Header=BB2_209 Depth=2
	movl	target_flags(%rip), %eax
	movq	$25, %rcx
	shrq	%cl, %rax
	andq	$1, %rax
	xorq	$3, %rax
	jmp	.LBB2_220
.LBB2_219:                              # %cond.false906
                                        #   in Loop: Header=BB2_209 Depth=2
	movq	%rbx, %r10
	movl	target_flags(%rip), %ebx
	movzbl	mode_size(%rax), %eax
	movq	$23, %rcx
	shrq	%cl, %rbx
	andq	$4, %rbx
	leaq	3(%rax,%rbx), %rax
	addq	$4, %rbx
	cqto
	idivq	%rbx
	movq	%r10, %rbx
	.align	16, 0x90
.LBB2_220:                              # %cond.end932
                                        #   in Loop: Header=BB2_209 Depth=2
	movq	$32, %rcx
	movq	%rdi, %rdx
	shlq	%cl, %rdx
	movq	$32, %rcx
	sarq	%cl, %rdx
	movq	$32, %rcx
	shlq	%cl, %rax
	movq	$32, %rcx
	sarq	%cl, %rax
	cmpq	%rax, %rdx
	jl	.LBB2_221
# BB#222:                               # %for.end946
                                        #   in Loop: Header=BB2_96 Depth=1
	movq	136(%rsp), %rax         # 8-byte Reload
	cmpq	$0, (%rax)
	jne	.LBB2_224
# BB#223:                               # %if.then.i2165
                                        #   in Loop: Header=BB2_96 Depth=1
	movq	%r11, (%rax)
	jmp	.LBB2_225
.LBB2_224:                              # %if.else.i
                                        #   in Loop: Header=BB2_96 Depth=1
	movq	176(%r13), %rax
	movq	%r11, 72(%rax)
.LBB2_225:                              # %loop_movables_add.exit
                                        #   in Loop: Header=BB2_96 Depth=1
	movq	%r11, 176(%r13)
	movslq	32(%r11), %rax
	testq	%rax, %rax
	jle	.LBB2_226
# BB#227:                               # %if.then950
                                        #   in Loop: Header=BB2_96 Depth=1
	movzbl	44(%r11), %eax
	leaq	(%rax,%rax), %rcx
	andq	$64, %rcx
	andq	$191, %rax
	orq	%rcx, %rax
	movb	%al, 44(%r11)
	movq	%r12, %rdi
	movq	%r11, %rbx
	callq	next_nonnote_insn
	movq	%rbx, %rcx
	movslq	32(%rcx), %r14
	movq	%rax, %rbx
	movq	%rcx, %r13
	testq	%r14, %r14
	jle	.LBB2_234
# BB#228:                               # %for.body.lr.ph.i2168
                                        #   in Loop: Header=BB2_96 Depth=1
	movl	(%rbx), %eax
.LBB2_229:                              # %for.body.i2171
                                        #   Parent Loop BB2_96 Depth=1
                                        # =>  This Loop Header: Depth=2
                                        #       Child Loop BB2_232 Depth 3
	andq	$65535, %rax            # imm = 0xFFFF
	cmpq	$37, %rax
	je	.LBB2_232
# BB#230:                               # %land.lhs.true.i2174
                                        #   in Loop: Header=BB2_229 Depth=2
	movq	$7, %rsi
	xorq	%rdx, %rdx
	movq	%rbx, %rdi
	callq	find_reg_note
	testq	%rax, %rax
	je	.LBB2_232
# BB#231:                               # %if.then.i2177
                                        #   in Loop: Header=BB2_229 Depth=2
	movq	8(%rax), %rbx
	.align	16, 0x90
.LBB2_232:                              # %do.body.i2179
                                        #   Parent Loop BB2_96 Depth=1
                                        #     Parent Loop BB2_229 Depth=2
                                        # =>    This Inner Loop Header: Depth=3
	movq	24(%rbx), %rbx
	movl	(%rbx), %eax
	movq	%rax, %rcx
	andq	$65535, %rcx            # imm = 0xFFFF
	cmpq	$37, %rcx
	je	.LBB2_232
# BB#233:                               # %for.inc.i2181
                                        #   in Loop: Header=BB2_229 Depth=2
	decq	%r14
	movq	$32, %rcx
	movq	%r14, %rdx
	shlq	%cl, %rdx
	movq	$32, %rcx
	sarq	%cl, %rdx
	testq	%rdx, %rdx
	jg	.LBB2_229
.LBB2_234:                              # %skip_consec_insns.exit
                                        #   in Loop: Header=BB2_96 Depth=1
	movq	%rbx, %rdi
	callq	prev_nonnote_insn
	movq	%rax, %r12
	movq	$3, %rsi
	xorq	%rdx, %rdx
	movq	%r12, %rdi
	callq	find_reg_note
	testq	%rax, %rax
	jne	.LBB2_235
# BB#236:                               # %if.else977
                                        #   in Loop: Header=BB2_96 Depth=1
	movq	$4, %rsi
	xorq	%rdx, %rdx
	movq	%r12, %rdi
	callq	find_reg_note
	testq	%rax, %rax
	je	.LBB2_240
# BB#237:                               # %land.lhs.true980
                                        #   in Loop: Header=BB2_96 Depth=1
	movq	8(%rax), %rax
	movzbl	(%rax), %ecx
	cmpq	$133, %rcx
	jg	.LBB2_241
# BB#238:                               # %land.lhs.true980
                                        #   in Loop: Header=BB2_96 Depth=1
	addq	$-54, %rcx
	andq	%r15, %rcx
	cmpq	$14, %rcx
	ja	.LBB2_240
# BB#239:                               # %land.lhs.true980
                                        #   in Loop: Header=BB2_96 Depth=1
	movq	$1, %rdx
	shlq	%cl, %rdx
	testq	$24599, %rdx            # imm = 0x6017
	jne	.LBB2_243
	jmp	.LBB2_240
.LBB2_235:                              # %if.then968
                                        #   in Loop: Header=BB2_96 Depth=1
	movq	8(%rax), %rax
.LBB2_243:                              # %if.then1044
                                        #   in Loop: Header=BB2_96 Depth=1
	movq	%rax, 8(%r13)
	movzbl	44(%r13), %eax
	orq	$32, %rax
	jmp	.LBB2_244
.LBB2_241:                              # %land.lhs.true980
                                        #   in Loop: Header=BB2_96 Depth=1
	cmpq	$134, %rcx
	je	.LBB2_243
# BB#242:                               # %land.lhs.true980
                                        #   in Loop: Header=BB2_96 Depth=1
	cmpq	$140, %rcx
	je	.LBB2_243
.LBB2_240:                              # %if.else1053
                                        #   in Loop: Header=BB2_96 Depth=1
	movzbl	44(%r13), %eax
	andq	$223, %rax
.LBB2_244:                              # %if.end1058
                                        #   in Loop: Header=BB2_96 Depth=1
	movb	%al, 44(%r13)
	movq	%r13, %rbx
	movq	$3, %rsi
	xorq	%rdx, %rdx
	movq	%r12, %rdi
	callq	find_reg_note
	testq	%rax, %rax
	movabsq	$0, %rax
	movq	128(%rsp), %r13         # 8-byte Reload
	je	.LBB2_246
# BB#245:                               # %if.end1058
                                        #   in Loop: Header=BB2_96 Depth=1
	movabsq	$1, %rax
.LBB2_246:                              # %if.end1058
                                        #   in Loop: Header=BB2_96 Depth=1
	movzbl	44(%rbx), %edx
	movq	$7, %rcx
	shlq	%cl, %rax
	andq	$127, %rdx
	orq	%rax, %rdx
	movb	%dl, 44(%rbx)
.LBB2_226:                              #   in Loop: Header=BB2_96 Depth=1
	movq	160(%rsp), %r9          # 8-byte Reload
	movq	176(%rsp), %rdx         # 8-byte Reload
	jmp	.LBB2_319
.LBB2_172:                              #   in Loop: Header=BB2_96 Depth=1
	movq	$0, 208(%rsp)           # 8-byte Folded Spill
.LBB2_129:                              #   in Loop: Header=BB2_96 Depth=1
	movq	128(%rsp), %r13         # 8-byte Reload
	movq	176(%rsp), %rdx         # 8-byte Reload
	.align	16, 0x90
.LBB2_319:                              # %for.inc1543
                                        #   in Loop: Header=BB2_96 Depth=1
	movq	24(%r12), %rax
	movq	200(%r9), %rcx
	cmpq	%rcx, %rax
	jne	.LBB2_321
# BB#320:                               # %if.then.i2212
                                        #   in Loop: Header=BB2_96 Depth=1
	movq	208(%r9), %rax
.LBB2_321:                              # %next_insn_in_loop.exit2217
                                        #   in Loop: Header=BB2_96 Depth=1
	movq	216(%r9), %rcx
	xorq	%r12, %r12
	cmpq	%rcx, %rax
	je	.LBB2_323
# BB#322:                               # %select.mid364
                                        #   in Loop: Header=BB2_96 Depth=1
	movq	%rax, %r12
.LBB2_323:                              # %select.end363
                                        #   in Loop: Header=BB2_96 Depth=1
	testq	%r12, %r12
	jne	.LBB2_96
.LBB2_324:                              # %for.end1545
	movq	136(%rsp), %r14         # 8-byte Reload
	movq	(%r14), %rbx
	testq	%rbx, %rbx
	je	.LBB2_348
	.align	16, 0x90
.LBB2_325:                              # %for.body.i2222
                                        # =>This Loop Header: Depth=1
                                        #     Child Loop BB2_327 Depth 2
                                        #       Child Loop BB2_329 Depth 3
	movq	(%rbx), %rdi
	movq	$6, %rsi
	xorq	%rdx, %rdx
	callq	find_reg_note
	testq	%rax, %rax
	je	.LBB2_334
# BB#326:                               # %if.then.i2224
                                        #   in Loop: Header=BB2_325 Depth=1
	movq	8(%rax), %rax
	movq	(%rbx), %rcx
	jmp	.LBB2_327
	.align	16, 0x90
.LBB2_333:                              # %for.inc13.i
                                        #   in Loop: Header=BB2_327 Depth=2
	movq	24(%rax), %rax
.LBB2_327:                              # %if.then.i2224
                                        #   Parent Loop BB2_325 Depth=1
                                        # =>  This Loop Header: Depth=2
                                        #       Child Loop BB2_329 Depth 3
	cmpq	%rcx, %rax
	je	.LBB2_334
# BB#328:                               # %for.cond7.preheader.i
                                        #   in Loop: Header=BB2_327 Depth=2
	movq	(%r14), %rdx
	cmpq	%rbx, %rdx
	je	.LBB2_333
	.align	16, 0x90
.LBB2_329:                              # %for.body9.i
                                        #   Parent Loop BB2_325 Depth=1
                                        #     Parent Loop BB2_327 Depth=2
                                        # =>    This Inner Loop Header: Depth=3
	movq	(%rdx), %rcx
	cmpq	%rax, %rcx
	jne	.LBB2_331
# BB#330:                               # %if.then12.i
                                        #   in Loop: Header=BB2_329 Depth=3
	movzbl	44(%rdx), %ecx
	orq	$8, %rcx
	movb	%cl, 44(%rdx)
.LBB2_331:                              # %for.inc.i2229
                                        #   in Loop: Header=BB2_329 Depth=3
	movq	72(%rdx), %rdx
	cmpq	%rbx, %rdx
	jne	.LBB2_329
# BB#332:                               # %for.inc13.i.loopexit
                                        #   in Loop: Header=BB2_327 Depth=2
	movq	(%rbx), %rcx
	jmp	.LBB2_333
	.align	16, 0x90
.LBB2_334:                              # %for.inc19.i
                                        #   in Loop: Header=BB2_325 Depth=1
	movq	72(%rbx), %rbx
	testq	%rbx, %rbx
	jne	.LBB2_325
# BB#335:                               # %ignore_some_movables.exit
	movq	(%r14), %rax
	testq	%rax, %rax
	je	.LBB2_348
# BB#336:
	movabsq	$4294967295, %rcx       # imm = 0xFFFFFFFF
	.align	16, 0x90
.LBB2_337:                              # %for.body.i2234
                                        # =>This Loop Header: Depth=1
                                        #     Child Loop BB2_340 Depth 2
	movzbl	44(%rax), %edx
	testq	$24, %rdx
	jne	.LBB2_347
# BB#338:                               # %if.then.i2235
                                        #   in Loop: Header=BB2_337 Depth=1
	movq	72(%rax), %rdx
	testq	%rdx, %rdx
	je	.LBB2_348
# BB#339:                               # %for.body10.lr.ph.i
                                        #   in Loop: Header=BB2_337 Depth=1
	movslq	36(%rax), %rsi
	movq	reg_n_info(%rip), %rdi
	movq	32(%rdi,%rsi,8), %rsi
	movl	4(%rsi), %ebx
	.align	16, 0x90
.LBB2_340:                              # %for.body10.i
                                        #   Parent Loop BB2_337 Depth=1
                                        # =>  This Inner Loop Header: Depth=2
	movq	(%rdx), %rdi
	movl	8(%rdi), %edi
	movq	%rbx, %rsi
	andq	%rcx, %rsi
	cmpq	%rsi, %rdi
	jne	.LBB2_342
# BB#341:                               # %land.lhs.true12.i
                                        #   in Loop: Header=BB2_340 Depth=2
	movzbl	44(%rdx), %esi
	testq	$8, %rsi
	je	.LBB2_343
.LBB2_342:                              # %for.cond8.backedge.i
                                        #   in Loop: Header=BB2_340 Depth=2
	movq	72(%rdx), %rdx
	testq	%rdx, %rdx
	jne	.LBB2_340
	jmp	.LBB2_347
.LBB2_343:                              # %land.lhs.true22.i
                                        #   in Loop: Header=BB2_337 Depth=1
	movq	8(%rdx), %rsi
	movq	16(%rax), %rdi
	cmpq	%rdi, %rsi
	jne	.LBB2_346
# BB#344:                               # %land.lhs.true24.i
                                        #   in Loop: Header=BB2_337 Depth=1
	movl	32(%rdx), %esi
	testq	%rsi, %rsi
	je	.LBB2_347
# BB#345:                               # %land.lhs.true24.i
                                        #   in Loop: Header=BB2_337 Depth=1
	testq	%rdx, %rdx
	je	.LBB2_347
.LBB2_346:                              # %if.then29.i
                                        #   in Loop: Header=BB2_337 Depth=1
	movq	%rax, 64(%rdx)
	movzbl	40(%rdx), %esi
	movzbl	40(%rax), %edi
	addq	%rsi, %rdi
	movw	%di, 40(%rax)
	movzbl	42(%rdx), %edx
	movzbl	42(%rax), %esi
	addq	%rdx, %rsi
	movw	%si, 42(%rax)
	.align	16, 0x90
.LBB2_347:                              # %for.inc40.i
                                        #   in Loop: Header=BB2_337 Depth=1
	movq	72(%rax), %rax
	testq	%rax, %rax
	jne	.LBB2_337
.LBB2_348:                              # %force_movables.exit
	movslq	184(%r13), %rdi
	callq	xmalloc
	movq	168(%r13), %rbx
	movq	%r13, %r14
	movq	%rax, 216(%rsp)         # 8-byte Spill
	testq	%rbx, %rbx
	je	.LBB2_356
# BB#349:                               # %for.body.lr.ph.i2249
	movq	%rbx, %r12
	movq	216(%rsp), %r15         # 8-byte Reload
	.align	16, 0x90
.LBB2_350:                              # %for.body.i2251
                                        # =>This Loop Header: Depth=1
                                        #     Child Loop BB2_354 Depth 2
	cmpq	$0, 56(%r12)
	jne	.LBB2_355
# BB#351:                               # %land.lhs.true.i2254
                                        #   in Loop: Header=BB2_350 Depth=1
	movl	36(%r12), %r13d
	movq	192(%r14), %rax
	leaq	(%r13,%r13,2), %rcx
	movl	4(%rax,%rcx,8), %eax
	movq	$32, %rcx
	shlq	%cl, %r13
	movq	$32, %rcx
	sarq	%cl, %r13
	cmpq	$1, %rax
	jne	.LBB2_355
# BB#352:                               # %land.lhs.true4.i
                                        #   in Loop: Header=BB2_350 Depth=1
	movzbl	44(%r12), %eax
	testq	$16, %rax
	jne	.LBB2_355
# BB#353:                               # %if.then.i2260
                                        #   in Loop: Header=BB2_350 Depth=1
	movslq	184(%r14), %rdx
	xorq	%rsi, %rsi
	movq	%r15, %rdi
	callq	memset
	movq	$1, %rax
	movb	%al, (%r15,%r13)
	movq	%r12, %rax
	.align	16, 0x90
.LBB2_354:                              # %for.cond12.i
                                        #   Parent Loop BB2_350 Depth=1
                                        # =>  This Inner Loop Header: Depth=2
	movq	72(%rax), %rax
	testq	%rax, %rax
	jne	.LBB2_354
	.align	16, 0x90
.LBB2_355:                              # %for.inc16.i
                                        #   in Loop: Header=BB2_350 Depth=1
	movq	72(%r12), %r12
	testq	%r12, %r12
	jne	.LBB2_350
.LBB2_356:                              # %for.end18.i
	movl	class_narrowest_mode+4(%rip), %r15d
	testq	%r15, %r15
	je	.LBB2_376
# BB#357:
	movabsq	$4294967295, %r8        # imm = 0xFFFFFFFF
	jmp	.LBB2_358
	.align	16, 0x90
.LBB2_375:                              # %for.inc142.for.cond24.preheader_crit_edge.i
                                        #   in Loop: Header=BB2_358 Depth=1
	movq	136(%rsp), %rax         # 8-byte Reload
	movq	(%rax), %rbx
.LBB2_358:                              # %for.cond24.preheader.i
                                        # =>This Loop Header: Depth=1
                                        #     Child Loop BB2_359 Depth 2
                                        #       Child Loop BB2_365 Depth 3
	xorq	%rsi, %rsi
	testq	%rbx, %rbx
	je	.LBB2_374
	.align	16, 0x90
.LBB2_359:                              # %for.body26.i
                                        #   Parent Loop BB2_358 Depth=1
                                        # =>  This Loop Header: Depth=2
                                        #       Child Loop BB2_365 Depth 3
	movzbl	44(%rbx), %eax
	andq	$20, %rax
	cmpq	$16, %rax
	jne	.LBB2_372
# BB#360:                               # %land.lhs.true39.i
                                        #   in Loop: Header=BB2_359 Depth=2
	movq	(%rbx), %rax
	movq	24(%rax), %rax
	movq	32(%rax), %rax
	movq	16(%rax), %rax
	movzbl	2(%rax), %eax
	movq	%r15, %rcx
	andq	%r8, %rcx
	cmpq	%rax, %rcx
	jne	.LBB2_372
# BB#361:                               # %if.then52.i
                                        #   in Loop: Header=BB2_359 Depth=2
	testq	%rsi, %rsi
	movq	%rbx, %rcx
	je	.LBB2_373
# BB#362:                               # %if.end69.i
                                        #   in Loop: Header=BB2_359 Depth=2
	movq	16(%rbx), %rax
	movq	16(%rsi), %rcx
	movl	(%rax), %eax
	movl	(%rcx), %ecx
	xorq	%rax, %rcx
	testq	$16711680, %rcx         # imm = 0xFF0000
	jne	.LBB2_372
# BB#363:                               # %for.cond82.preheader.i
                                        #   in Loop: Header=BB2_359 Depth=2
	movq	136(%rsp), %rax         # 8-byte Reload
	movq	(%rax), %rdi
	cmpq	%rbx, %rdi
	je	.LBB2_371
# BB#364:                               #   in Loop: Header=BB2_359 Depth=2
	movl	36(%rbx), %eax
	movq	reg_n_info(%rip), %r9
	movq	32(%r9,%rax,8), %rax
	movslq	(%rax), %rcx
	movq	uid_luid(%rip), %r12
	movslq	4(%rax), %rax
	movl	(%r12,%rcx,4), %r10d
	movl	(%r12,%rax,4), %r11d
	.align	16, 0x90
.LBB2_365:                              # %for.body85.i
                                        #   Parent Loop BB2_358 Depth=1
                                        #     Parent Loop BB2_359 Depth=2
                                        # =>    This Inner Loop Header: Depth=3
	cmpq	%rsi, %rdi
	je	.LBB2_368
# BB#366:                               # %lor.lhs.false.i
                                        #   in Loop: Header=BB2_365 Depth=3
	movzbl	44(%rdi), %eax
	testq	$16, %rax
	je	.LBB2_370
# BB#367:                               # %land.lhs.true94.i
                                        #   in Loop: Header=BB2_365 Depth=3
	movq	56(%rdi), %rax
	cmpq	%rsi, %rax
	jne	.LBB2_370
	.align	16, 0x90
.LBB2_368:                              # %if.then98.i
                                        #   in Loop: Header=BB2_365 Depth=3
	movl	36(%rdi), %eax
	movq	32(%r9,%rax,8), %rax
	movslq	(%rax), %rcx
	movslq	(%r12,%rcx,4), %r13
	movq	$32, %rcx
	movq	%r11, %rdx
	shlq	%cl, %rdx
	movq	$32, %rcx
	sarq	%cl, %rdx
	cmpq	%rdx, %r13
	jg	.LBB2_370
# BB#369:                               # %lor.lhs.false109.i
                                        #   in Loop: Header=BB2_365 Depth=3
	movslq	4(%rax), %rax
	movslq	(%r12,%rax,4), %rax
	movq	$32, %rcx
	movq	%r10, %rdx
	shlq	%cl, %rdx
	movq	$32, %rcx
	sarq	%cl, %rdx
	cmpq	%rdx, %rax
	jge	.LBB2_372
.LBB2_370:                              # %for.inc123.i
                                        #   in Loop: Header=BB2_365 Depth=3
	movq	72(%rdi), %rdi
	cmpq	%rbx, %rdi
	jne	.LBB2_365
.LBB2_371:                              # %for.end125.i
                                        #   in Loop: Header=BB2_359 Depth=2
	movzbl	40(%rbx), %eax
	movzbl	40(%rsi), %ecx
	addq	%rax, %rcx
	movw	%cx, 40(%rsi)
	movzbl	42(%rbx), %eax
	movzbl	42(%rsi), %ecx
	addq	%rax, %rcx
	movw	%cx, 42(%rsi)
	movzbl	44(%rbx), %eax
	orq	$8, %rax
	movb	%al, 44(%rbx)
	movq	%rsi, 56(%rbx)
	.align	16, 0x90
.LBB2_372:                              # %for.inc139.i
                                        #   in Loop: Header=BB2_359 Depth=2
	movq	%rsi, %rcx
.LBB2_373:                              # %for.inc139.i
                                        #   in Loop: Header=BB2_359 Depth=2
	movq	72(%rbx), %rbx
	testq	%rbx, %rbx
	movq	%rcx, %rsi
	jne	.LBB2_359
.LBB2_374:                              # %for.inc142.i
                                        #   in Loop: Header=BB2_358 Depth=1
	movq	$32, %rcx
	shlq	%cl, %r15
	movq	$32, %rcx
	sarq	%cl, %r15
	movzbl	mode_wider_mode(%r15), %r15d
	testq	%r15, %r15
	jne	.LBB2_375
.LBB2_376:                              # %combine_movables.exit
	movq	216(%rsp), %rdi         # 8-byte Reload
	callq	free
	movl	optimize_size(%rip), %eax
	testq	%rax, %rax
	jne	.LBB2_615
# BB#377:                               # %if.then1547
	movq	160(%rsp), %rax         # 8-byte Reload
	movq	160(%rax), %r15
	movq	%r15, 96(%rsp)          # 8-byte Spill
	movq	192(%rax), %rcx
	movq	%rcx, 64(%rsp)          # 8-byte Spill
	movslq	184(%r15), %rbx
	movq	%rbx, 40(%rsp)          # 8-byte Spill
	movq	200(%rax), %rax
	movq	%rax, 56(%rsp)          # 8-byte Spill
	movq	$8, %rsi
	movq	%rbx, %rdi
	callq	xcalloc
	movq	%rax, 200(%rsp)         # 8-byte Spill
	movq	$1, %rsi
	movq	%rbx, %rdi
	callq	xcalloc
	movq	136(%rsp), %rcx         # 8-byte Reload
	movq	(%rcx), %r12
	movq	%rax, 168(%rsp)         # 8-byte Spill
	movq	$0, 176(%rsp)           # 8-byte Folded Spill
	testq	%r12, %r12
	je	.LBB2_603
# BB#378:                               # %for.body.lr.ph.i2285
	movl	n_non_fixed_regs(%rip), %eax
	movq	%rax, %rcx
	incq	%rcx
	movq	192(%rsp), %rax         # 8-byte Reload
	imulq	%rcx, %rax
	movq	%rax, 192(%rsp)         # 8-byte Spill
	movabsq	$.L.str92, %r13
	movq	$0, 176(%rsp)           # 8-byte Folded Spill
	jmp	.LBB2_379
.LBB2_596:                              # %if.then1015.i
                                        #   in Loop: Header=BB2_379 Depth=1
	movq	$13, %rsi
	movq	$1, %rdx
	movabsq	$.L.str104, %rdi
	callq	fwrite
	jmp	.LBB2_567
	.align	16, 0x90
.LBB2_379:                              # %for.body.i2286
                                        # =>This Loop Header: Depth=1
                                        #     Child Loop BB2_421 Depth 2
                                        #     Child Loop BB2_431 Depth 2
                                        #       Child Loop BB2_442 Depth 3
                                        #       Child Loop BB2_444 Depth 3
                                        #     Child Loop BB2_439 Depth 2
                                        #       Child Loop BB2_464 Depth 3
                                        #         Child Loop BB2_467 Depth 4
                                        #       Child Loop BB2_535 Depth 3
                                        #     Child Loop BB2_544 Depth 2
                                        #     Child Loop BB2_572 Depth 2
                                        #       Child Loop BB2_580 Depth 3
	movq	%r12, 216(%rsp)         # 8-byte Spill
	movq	loop_dump_stream(%rip), %rdi
	testq	%rdi, %rdi
	jne	.LBB2_381
# BB#380:                               # %for.body.if.end64_crit_edge.i
                                        #   in Loop: Header=BB2_379 Depth=1
	leaq	44(%r12), %rbx
	jmp	.LBB2_397
	.align	16, 0x90
.LBB2_381:                              # %if.then.i2294
                                        #   in Loop: Header=BB2_379 Depth=1
	movq	(%r12), %rax
	movswq	40(%r12), %r8
	movl	36(%r12), %ecx
	movl	8(%rax), %edx
	xorq	%rax, %rax
	movq	%r13, %rsi
	callq	fprintf
	movslq	32(%r12), %rdx
	testq	%rdx, %rdx
	jle	.LBB2_383
# BB#382:                               # %if.then8.i
                                        #   in Loop: Header=BB2_379 Depth=1
	movq	loop_dump_stream(%rip), %rdi
	xorq	%rax, %rax
	movabsq	$.L.str93, %rsi
	callq	fprintf
.LBB2_383:                              # %if.end.i2298
                                        #   in Loop: Header=BB2_379 Depth=1
	movzbl	44(%r12), %eax
	leaq	44(%r12), %rbx
	testq	$1, %rax
	je	.LBB2_385
# BB#384:                               # %if.then12.i2299
                                        #   in Loop: Header=BB2_379 Depth=1
	movq	loop_dump_stream(%rip), %rcx
	movq	$5, %rsi
	movq	$1, %rdx
	movabsq	$.L.str94, %rdi
	callq	fwrite
	movzbl	(%rbx), %eax
.LBB2_385:                              # %if.end14.i
                                        #   in Loop: Header=BB2_379 Depth=1
	testq	$2, %rax
	je	.LBB2_387
# BB#386:                               # %if.then19.i
                                        #   in Loop: Header=BB2_379 Depth=1
	movq	loop_dump_stream(%rip), %rcx
	movq	$6, %rsi
	movq	$1, %rdx
	movabsq	$.L.str95, %rdi
	callq	fwrite
	movzbl	(%rbx), %eax
.LBB2_387:                              # %if.end21.i
                                        #   in Loop: Header=BB2_379 Depth=1
	testq	$4, %rax
	je	.LBB2_389
# BB#388:                               # %if.then27.i
                                        #   in Loop: Header=BB2_379 Depth=1
	movq	loop_dump_stream(%rip), %rcx
	movq	$7, %rsi
	movq	$1, %rdx
	movabsq	$.L.str96, %rdi
	callq	fwrite
	movzbl	(%rbx), %eax
.LBB2_389:                              # %if.end29.i
                                        #   in Loop: Header=BB2_379 Depth=1
	testq	$8, %rax
	je	.LBB2_391
# BB#390:                               # %if.then35.i
                                        #   in Loop: Header=BB2_379 Depth=1
	movq	loop_dump_stream(%rip), %rcx
	movq	$5, %rsi
	movq	$1, %rdx
	movabsq	$.L.str97, %rdi
	callq	fwrite
	movzbl	(%rbx), %eax
.LBB2_391:                              # %if.end37.i
                                        #   in Loop: Header=BB2_379 Depth=1
	testq	$32, %rax
	je	.LBB2_393
# BB#392:                               # %if.then43.i
                                        #   in Loop: Header=BB2_379 Depth=1
	movq	loop_dump_stream(%rip), %rcx
	movq	$10, %rsi
	movq	$1, %rdx
	movabsq	$.L.str98, %rdi
	callq	fwrite
.LBB2_393:                              # %if.end45.i2303
                                        #   in Loop: Header=BB2_379 Depth=1
	movq	56(%r12), %rax
	testq	%rax, %rax
	je	.LBB2_395
# BB#394:                               # %if.then47.i
                                        #   in Loop: Header=BB2_379 Depth=1
	movq	(%rax), %rax
	movq	loop_dump_stream(%rip), %rdi
	movl	8(%rax), %edx
	xorq	%rax, %rax
	movabsq	$.L.str99, %rsi
	callq	fprintf
.LBB2_395:                              # %if.end54.i
                                        #   in Loop: Header=BB2_379 Depth=1
	movq	64(%r12), %rax
	testq	%rax, %rax
	je	.LBB2_397
# BB#396:                               # %if.then56.i
                                        #   in Loop: Header=BB2_379 Depth=1
	movq	(%rax), %rax
	movq	loop_dump_stream(%rip), %rdi
	movl	8(%rax), %edx
	xorq	%rax, %rax
	movabsq	$.L.str100, %rsi
	callq	fprintf
.LBB2_397:                              # %if.end64.i
                                        #   in Loop: Header=BB2_379 Depth=1
	movzbl	(%rbx), %eax
	testq	$8, %rax
	jne	.LBB2_597
# BB#398:                               # %land.lhs.true.i2305
                                        #   in Loop: Header=BB2_379 Depth=1
	testq	$1, %rax
	je	.LBB2_404
# BB#399:                               # %lor.lhs.false.i2308
                                        #   in Loop: Header=BB2_379 Depth=1
	movq	8(%r12), %rsi
	movq	160(%rsp), %rdi         # 8-byte Reload
	callq	loop_invariant_p
	movabsq	$4294967295, %rcx       # imm = 0xFFFFFFFF
	andq	%rcx, %rax
	cmpq	$1, %rax
	jne	.LBB2_597
# BB#400:                               # %land.lhs.true79.i
                                        #   in Loop: Header=BB2_379 Depth=1
	movq	24(%r12), %rsi
	testq	%rsi, %rsi
	je	.LBB2_402
# BB#401:                               # %lor.lhs.false82.i
                                        #   in Loop: Header=BB2_379 Depth=1
	movq	160(%rsp), %rdi         # 8-byte Reload
	callq	loop_invariant_p
	movabsq	$4294967295, %rcx       # imm = 0xFFFFFFFF
	andq	%rcx, %rax
	cmpq	$1, %rax
	jne	.LBB2_597
.LBB2_402:                              # %land.lhs.true87.i
                                        #   in Loop: Header=BB2_379 Depth=1
	movl	32(%r12), %edx
	testq	%rdx, %rdx
	je	.LBB2_404
# BB#403:                               # %lor.lhs.false91.i
                                        #   in Loop: Header=BB2_379 Depth=1
	movq	(%r12), %rcx
	movq	16(%r12), %rsi
	incq	%rdx
	movq	160(%rsp), %rdi         # 8-byte Reload
	callq	consec_sets_invariant_p
	movabsq	$4294967295, %rcx       # imm = 0xFFFFFFFF
	andq	%rcx, %rax
	cmpq	$1, %rax
	jne	.LBB2_597
	.align	16, 0x90
.LBB2_404:                              # %land.lhs.true97.i
                                        #   in Loop: Header=BB2_379 Depth=1
	movq	64(%r12), %rax
	testq	%rax, %rax
	je	.LBB2_406
# BB#405:                               # %lor.lhs.false100.i
                                        #   in Loop: Header=BB2_379 Depth=1
	movzbl	44(%rax), %eax
	testq	$8, %rax
	jne	.LBB2_406
	.align	16, 0x90
.LBB2_597:                              # %if.else1019.i
                                        #   in Loop: Header=BB2_379 Depth=1
	movq	loop_dump_stream(%rip), %rcx
	testq	%rcx, %rcx
	je	.LBB2_602
# BB#598:                               # %land.lhs.true1021.i
                                        #   in Loop: Header=BB2_379 Depth=1
	cmpq	$0, 56(%r12)
	jne	.LBB2_600
# BB#599:                               # %if.then1024.i
                                        #   in Loop: Header=BB2_379 Depth=1
	movq	$8, %rsi
	movq	$1, %rdx
	movabsq	$.L.str105, %rdi
	callq	fwrite
	jmp	.LBB2_600
	.align	16, 0x90
.LBB2_406:                              # %if.then108.i
                                        #   in Loop: Header=BB2_379 Depth=1
	movq	%rbx, 208(%rsp)         # 8-byte Spill
	movswq	42(%r12), %rbx
	movq	(%r12), %r13
	movq	loop_dump_stream(%rip), %rdi
	movslq	36(%r12), %r10
	movq	%r10, 152(%rsp)         # 8-byte Spill
	xorq	%rcx, %rcx
	testq	%rdi, %rdi
	je	.LBB2_408
# BB#407:                               # %if.then116.i
                                        #   in Loop: Header=BB2_379 Depth=1
	xorq	%rax, %rax
	movabsq	$.L.str101, %rsi
	movq	%rbx, %rdx
	movq	%rbx, %r14
	movq	%r10, %rbx
	callq	fprintf
	movq	%rbx, %r10
	movq	%r14, %rbx
	movq	loop_dump_stream(%rip), %rcx
.LBB2_408:                              # %if.end118.i
                                        #   in Loop: Header=BB2_379 Depth=1
	movq	192(%r15), %rax
	leaq	(%r10,%r10,2), %rdx
	movq	%rdx, 104(%rsp)         # 8-byte Spill
	movzbl	17(%rax,%rdx,8), %eax
	testq	%rax, %rax
	je	.LBB2_411
# BB#409:                               # %if.end118.i
                                        #   in Loop: Header=BB2_379 Depth=1
	testq	%rcx, %rcx
	je	.LBB2_411
# BB#410:                               # %if.then124.i
                                        #   in Loop: Header=BB2_379 Depth=1
	movq	$27, %rsi
	movq	$1, %rdx
	movabsq	$.L.str102, %rdi
	movq	%r10, %r14
	callq	fwrite
	movq	%r14, %r10
.LBB2_411:                              # %if.end126.i
                                        #   in Loop: Header=BB2_379 Depth=1
	movq	168(%rsp), %rax         # 8-byte Reload
	movzbl	(%rax,%r10), %eax
	testq	%rax, %rax
	jne	.LBB2_419
# BB#412:                               # %if.end126.i
                                        #   in Loop: Header=BB2_379 Depth=1
	movl	flag_move_all_movables(%rip), %eax
	movabsq	$4294967295, %rcx       # imm = 0xFFFFFFFF
	testq	%rcx, %rax
	jne	.LBB2_419
# BB#413:                               # %lor.lhs.false133.i
                                        #   in Loop: Header=BB2_379 Depth=1
	movq	192(%rsp), %rax         # 8-byte Reload
	imulq	%rax, %rbx
	movq	192(%r15), %rax
	movswq	40(%r12), %rdx
	imulq	%rbx, %rdx
	movq	$32, %rcx
	movq	104(%rsp), %rsi         # 8-byte Reload
	movzbl	17(%rax,%rsi,8), %esi
	shlq	%cl, %rdx
	movq	$32, %rcx
	sarq	%cl, %rdx
	testq	%rsi, %rsi
	movabsq	$0, %rcx
	je	.LBB2_415
# BB#414:                               # %lor.lhs.false133.i
                                        #   in Loop: Header=BB2_379 Depth=1
	movabsq	$1, %rcx
.LBB2_415:                              # %lor.lhs.false133.i
                                        #   in Loop: Header=BB2_379 Depth=1
	movq	72(%rsp), %rsi          # 8-byte Reload
	shlq	%cl, %rsi
	movq	$32, %rcx
	shlq	%cl, %rsi
	movq	$32, %rcx
	sarq	%cl, %rsi
	cmpq	%rsi, %rdx
	jge	.LBB2_419
# BB#416:                               # %lor.lhs.false147.i
                                        #   in Loop: Header=BB2_379 Depth=1
	movq	64(%r12), %rcx
	testq	%rcx, %rcx
	je	.LBB2_594
# BB#417:                               # %land.lhs.true150.i
                                        #   in Loop: Header=BB2_379 Depth=1
	movzbl	44(%rcx), %edx
	testq	$8, %rdx
	je	.LBB2_594
# BB#418:                               # %land.lhs.true158.i2317
                                        #   in Loop: Header=BB2_379 Depth=1
	movl	36(%rcx), %ecx
	leaq	(%rcx,%rcx,2), %rcx
	movl	4(%rax,%rcx,8), %eax
	cmpq	$1, %rax
	jne	.LBB2_594
.LBB2_419:                              # %if.then166.i
                                        #   in Loop: Header=BB2_379 Depth=1
	movq	208(%rsp), %rax         # 8-byte Reload
	movzbl	(%rax), %eax
	testq	$16, %rax
	je	.LBB2_429
# BB#420:                               # %land.lhs.true172.i
                                        #   in Loop: Header=BB2_379 Depth=1
	movq	56(%r12), %rcx
	testq	%rcx, %rcx
	jne	.LBB2_421
.LBB2_429:                              # %if.else.i2322
                                        #   in Loop: Header=BB2_379 Depth=1
	movl	32(%r12), %r14d
	testq	$32, %rax
	jne	.LBB2_430
# BB#437:                               # %for.cond316.preheader.i
                                        #   in Loop: Header=BB2_379 Depth=1
	movq	$32, %rcx
	movq	%r14, %rax
	shlq	%cl, %rax
	movq	$32, %rcx
	sarq	%cl, %rax
	testq	%rax, %rax
	js	.LBB2_539
# BB#438:                               # %for.body319.lr.ph.i
                                        #   in Loop: Header=BB2_379 Depth=1
	movq	$0, 144(%rsp)           # 8-byte Folded Spill
	jmp	.LBB2_439
	.align	16, 0x90
.LBB2_421:                              # %for.cond176.for.cond176_crit_edge.i
                                        #   Parent Loop BB2_379 Depth=1
                                        # =>  This Inner Loop Header: Depth=2
	movq	%rcx, %rbx
	movq	56(%rbx), %rcx
	testq	%rcx, %rcx
	jne	.LBB2_421
# BB#422:                               # %for.end.i2321
                                        #   in Loop: Header=BB2_379 Depth=1
	movq	%r10, 152(%rsp)         # 8-byte Spill
	movq	(%r12), %rax
	movq	(%rbx), %rcx
	movq	32(%rax), %rax
	movq	32(%rcx), %rcx
	movq	8(%rax), %rdi
	movq	8(%rcx), %rsi
	callq	gen_move_insn
	movq	160(%rsp), %rcx         # 8-byte Reload
	movq	192(%rcx), %rsi
	testq	%rsi, %rsi
	je	.LBB2_423
# BB#424:                               # %loop_insn_hoist.exit.i
                                        #   in Loop: Header=BB2_379 Depth=1
	movq	%r12, %r13
	movq	%rax, %rdi
	callq	emit_insn_before
	movq	(%r13), %rcx
	movq	56(%rcx), %rcx
	movq	%rax, %r14
	movq	%rcx, 56(%r14)
	movq	(%r13), %rax
	movq	(%rbx), %rcx
	movq	32(%rax), %rax
	movq	32(%rcx), %rcx
	movq	8(%rax), %rbx
	movq	8(%rcx), %rdx
	movq	regs_may_share(%rip), %rcx
	movq	$3, %rdi
	xorq	%rsi, %rsi
	callq	gen_rtx_fmt_ee
	movq	$3, %rdi
	xorq	%rsi, %rsi
	movq	%rbx, %rdx
	movq	%rax, %rcx
	callq	gen_rtx_fmt_ee
	movq	%rax, regs_may_share(%rip)
	movq	(%r13), %rdi
	callq	delete_insn
	movq	176(%rsp), %rax         # 8-byte Reload
	testq	%rax, %rax
	movq	%r14, %rbx
	je	.LBB2_426
# BB#425:                               # %loop_insn_hoist.exit.i
                                        #   in Loop: Header=BB2_379 Depth=1
	movq	%rax, %rbx
.LBB2_426:                              # %loop_insn_hoist.exit.i
                                        #   in Loop: Header=BB2_379 Depth=1
	movq	loop_dump_stream(%rip), %rdi
	testq	%rdi, %rdi
	je	.LBB2_427
# BB#428:                               # %if.then226.i
                                        #   in Loop: Header=BB2_379 Depth=1
	movl	8(%r14), %edx
	xorq	%rax, %rax
	movabsq	$.L.str103, %rsi
	callq	fprintf
.LBB2_427:                              #   in Loop: Header=BB2_379 Depth=1
	movq	%rbx, 176(%rsp)         # 8-byte Spill
	movq	152(%rsp), %r10         # 8-byte Reload
	jmp	.LBB2_540
.LBB2_430:                              # %for.cond241.preheader.i
                                        #   in Loop: Header=BB2_379 Depth=1
	movq	%r10, 152(%rsp)         # 8-byte Spill
	movq	%r12, %rbx
	movq	$32, %rcx
	movq	%r14, %rax
	shlq	%cl, %rax
	movq	$32, %rcx
	sarq	%cl, %rax
	testq	%rax, %rax
	js	.LBB2_448
	.align	16, 0x90
.LBB2_431:                              # %for.body244.i
                                        #   Parent Loop BB2_379 Depth=1
                                        # =>  This Loop Header: Depth=2
                                        #       Child Loop BB2_442 Depth 3
                                        #       Child Loop BB2_444 Depth 3
	movzbl	(%r13), %eax
	cmpq	$37, %rax
	je	.LBB2_434
# BB#432:                               # %land.lhs.true249.i
                                        #   in Loop: Header=BB2_431 Depth=2
	movq	$7, %rsi
	xorq	%rdx, %rdx
	movq	%r13, %rdi
	callq	find_reg_note
	testq	%rax, %rax
	je	.LBB2_434
# BB#433:                               # %if.then252.i
                                        #   in Loop: Header=BB2_431 Depth=2
	movq	8(%rax), %r13
.LBB2_434:                              # %if.end256.i
                                        #   in Loop: Header=BB2_431 Depth=2
	movzbl	(%r13), %eax
	cmpq	$37, %rax
	je	.LBB2_443
# BB#435:                               # %land.lhs.true261.i
                                        #   in Loop: Header=BB2_431 Depth=2
	movq	$6, %rsi
	xorq	%rdx, %rdx
	movq	%r13, %rdi
	callq	find_reg_note
	testq	%rax, %rax
	je	.LBB2_443
# BB#436:                               # %if.then264.i
                                        #   in Loop: Header=BB2_431 Depth=2
	movq	8(%rax), %rax
	jmp	.LBB2_442
	.align	16, 0x90
.LBB2_441:                              # %while.body.i2323
                                        #   in Loop: Header=BB2_442 Depth=3
	movq	%rax, %rdi
	callq	delete_insn
.LBB2_442:                              # %while.body.i2323
                                        #   Parent Loop BB2_379 Depth=1
                                        #     Parent Loop BB2_431 Depth=2
                                        # =>    This Inner Loop Header: Depth=3
	cmpq	%r13, %rax
	jne	.LBB2_441
.LBB2_443:                              # %if.end271.i
                                        #   in Loop: Header=BB2_431 Depth=2
	movq	%r13, %rdi
	callq	delete_insn
	xorq	%rdx, %rdx
	testq	%rax, %rax
	je	.LBB2_447
	.align	16, 0x90
.LBB2_444:                              # %land.rhs.i2325
                                        #   Parent Loop BB2_379 Depth=1
                                        #     Parent Loop BB2_431 Depth=2
                                        # =>    This Inner Loop Header: Depth=3
	movzbl	(%rax), %ecx
	cmpq	$37, %rcx
	jne	.LBB2_445
# BB#446:                               # %while.body279.i
                                        #   in Loop: Header=BB2_444 Depth=3
	movq	24(%rax), %rax
	testq	%rax, %rax
	movq	%rax, 24(%r13)
	jne	.LBB2_444
	jmp	.LBB2_447
	.align	16, 0x90
.LBB2_445:                              #   in Loop: Header=BB2_431 Depth=2
	movq	%rax, %rdx
.LBB2_447:                              # %for.inc287.i
                                        #   in Loop: Header=BB2_431 Depth=2
	movq	$32, %rcx
	movq	%r14, %rax
	shlq	%cl, %rax
	movq	$32, %rcx
	sarq	%cl, %rax
	decq	%r14
	testq	%rax, %rax
	movq	%rdx, %r13
	jg	.LBB2_431
.LBB2_448:                              # %for.end288.i
                                        #   in Loop: Header=BB2_379 Depth=1
	callq	start_sequence
	movq	8(%rbx), %rsi
	movq	16(%rbx), %rdi
	callq	emit_move_insn
	callq	get_insns
	movq	%rax, %r14
	callq	gen_sequence
	movq	%rax, %r12
	callq	end_sequence
	movq	8(%rbx), %rdi
	movq	%rbx, %r13
	movq	%r14, %rsi
	callq	add_label_notes
	movq	160(%rsp), %rax         # 8-byte Reload
	movq	192(%rax), %rsi
	testq	%rsi, %rsi
	je	.LBB2_449
# BB#450:                               # %loop_insn_hoist.exit1391.i
                                        #   in Loop: Header=BB2_379 Depth=1
	movq	%r12, %rdi
	callq	emit_insn_before
	movq	%rax, %rbx
	movq	$4, %rsi
	xorq	%rdx, %rdx
	movq	%rbx, %rdi
	callq	find_reg_note
	testq	%rax, %rax
	jne	.LBB2_454
# BB#451:                               # %if.then298.i
                                        #   in Loop: Header=BB2_379 Depth=1
	movq	208(%rsp), %rax         # 8-byte Reload
	movsbq	(%rax), %rax
	testq	%rax, %rax
	movq	$3, %rsi
	js	.LBB2_453
# BB#452:                               # %select.mid431
                                        #   in Loop: Header=BB2_379 Depth=1
	movq	$4, %rsi
.LBB2_453:                              # %select.end430
                                        #   in Loop: Header=BB2_379 Depth=1
	movq	8(%r13), %rdx
	movq	%rbx, %rdi
	callq	set_unique_reg_note
.LBB2_454:                              # %if.end306.i
                                        #   in Loop: Header=BB2_379 Depth=1
	movq	loop_dump_stream(%rip), %rdi
	testq	%rdi, %rdi
	je	.LBB2_456
# BB#455:                               # %if.then308.i
                                        #   in Loop: Header=BB2_379 Depth=1
	movl	8(%rbx), %edx
	xorq	%rax, %rax
	movabsq	$.L.str103, %rsi
	callq	fprintf
.LBB2_456:                              # %if.end313.i
                                        #   in Loop: Header=BB2_379 Depth=1
	addq	$-3, 192(%rsp)          # 8-byte Folded Spill
	movq	152(%rsp), %r10         # 8-byte Reload
	jmp	.LBB2_540
.LBB2_594:                              # %if.else1013.i
                                        #   in Loop: Header=BB2_379 Depth=1
	movq	loop_dump_stream(%rip), %rcx
	testq	%rcx, %rcx
	jne	.LBB2_596
# BB#595:                               #   in Loop: Header=BB2_379 Depth=1
	movabsq	$.L.str92, %rbx
	movq	%rbx, %r13
	jmp	.LBB2_602
.LBB2_512:                              # %if.then548.i
                                        #   in Loop: Header=BB2_439 Depth=2
	callq	start_sequence
	movq	8(%r12), %rsi
	movq	16(%r12), %rdi
	callq	emit_move_insn
	callq	get_insns
	movq	%rax, %r15
	callq	gen_sequence
	movq	%rax, %rbx
	callq	end_sequence
	movq	8(%r12), %rdi
	movq	%r15, %rsi
	callq	add_label_notes
	movq	160(%rsp), %rax         # 8-byte Reload
	movq	192(%rax), %rsi
	testq	%rsi, %rsi
	je	.LBB2_513
# BB#514:                               # %loop_insn_hoist.exit1407.i
                                        #   in Loop: Header=BB2_439 Depth=2
	movq	%rbx, %rdi
	callq	emit_insn_before
	movq	%rax, %rbx
	movq	$4, %rsi
	xorq	%rdx, %rdx
	movq	%rbx, %rdi
	callq	find_reg_note
	testq	%rax, %rax
	jne	.LBB2_522
# BB#515:                               # %if.then559.i
                                        #   in Loop: Header=BB2_439 Depth=2
	movq	208(%rsp), %rax         # 8-byte Reload
	movsbq	(%rax), %rax
	testq	%rax, %rax
	movq	$3, %rsi
	js	.LBB2_517
# BB#516:                               # %select.mid466
                                        #   in Loop: Header=BB2_439 Depth=2
	movq	$4, %rsi
.LBB2_517:                              # %select.end465
                                        #   in Loop: Header=BB2_439 Depth=2
	movq	8(%r12), %rdx
	movq	%rbx, %rdi
	callq	set_unique_reg_note
	jmp	.LBB2_522
	.align	16, 0x90
.LBB2_439:                              # %for.body319.i
                                        #   Parent Loop BB2_379 Depth=1
                                        # =>  This Loop Header: Depth=2
                                        #       Child Loop BB2_464 Depth 3
                                        #         Child Loop BB2_467 Depth 4
                                        #       Child Loop BB2_535 Depth 3
	movzbl	(%r13), %eax
	cmpq	$37, %rax
	jne	.LBB2_457
# BB#440:                               #   in Loop: Header=BB2_439 Depth=2
	movq	176(%rsp), %rbx         # 8-byte Reload
	jmp	.LBB2_459
	.align	16, 0x90
.LBB2_457:                              # %land.lhs.true326.i
                                        #   in Loop: Header=BB2_439 Depth=2
	movq	$7, %rsi
	xorq	%rdx, %rdx
	movq	%r13, %rdi
	callq	find_reg_note
	testq	%rax, %rax
	movq	176(%rsp), %rbx         # 8-byte Reload
	je	.LBB2_459
# BB#458:                               # %if.then329.i
                                        #   in Loop: Header=BB2_439 Depth=2
	movq	8(%rax), %r13
.LBB2_459:                              # %if.end333.i
                                        #   in Loop: Header=BB2_439 Depth=2
	movzbl	(%r13), %eax
	cmpq	$37, %rax
	jne	.LBB2_461
# BB#460:                               #   in Loop: Header=BB2_439 Depth=2
	movq	%rbx, %rcx
	jmp	.LBB2_499
	.align	16, 0x90
.LBB2_461:                              # %land.lhs.true338.i
                                        #   in Loop: Header=BB2_439 Depth=2
	movq	$6, %rsi
	xorq	%rdx, %rdx
	movq	%r13, %rdi
	callq	find_reg_note
	testq	%rax, %rax
	jne	.LBB2_463
# BB#462:                               #   in Loop: Header=BB2_439 Depth=2
	movq	%rbx, %rcx
	jmp	.LBB2_499
.LBB2_463:                              # %if.then341.i
                                        #   in Loop: Header=BB2_439 Depth=2
	movq	%r14, 48(%rsp)          # 8-byte Spill
	movq	8(%rax), %r15
	xorq	%rcx, %rcx
	cmpq	%r13, %r15
	movabsq	$0, %rax
	movq	%rax, 120(%rsp)         # 8-byte Spill
	movabsq	$0, %rax
	movq	%rax, 144(%rsp)         # 8-byte Spill
	movabsq	$0, %r14
	je	.LBB2_497
	.align	16, 0x90
.LBB2_464:                              # %for.body348.i
                                        #   Parent Loop BB2_379 Depth=1
                                        #     Parent Loop BB2_439 Depth=2
                                        # =>    This Loop Header: Depth=3
                                        #         Child Loop BB2_467 Depth 4
	movzbl	(%r15), %eax
	cmpq	$37, %rax
	jne	.LBB2_466
# BB#465:                               # %for.body348.for.inc480_crit_edge.i
                                        #   in Loop: Header=BB2_464 Depth=3
	addq	$24, %r15
	jmp	.LBB2_496
	.align	16, 0x90
.LBB2_466:                              # %if.end354.i
                                        #   in Loop: Header=BB2_464 Depth=3
	movq	%rcx, %r12
	movq	24(%r15), %rax
	movq	32(%r15), %rbx
	cmpq	%r13, %rax
	movq	%r13, %rcx
	je	.LBB2_474
	.align	16, 0x90
.LBB2_467:                              # %for.body364.i
                                        #   Parent Loop BB2_379 Depth=1
                                        #     Parent Loop BB2_439 Depth=2
                                        #       Parent Loop BB2_464 Depth=3
                                        # =>      This Inner Loop Header: Depth=4
	movzbl	(%rax), %ecx
	cmpq	$37, %rcx
	je	.LBB2_472
# BB#468:                               # %for.body364.i
                                        #   in Loop: Header=BB2_467 Depth=4
	cmpq	$32, %rcx
	jne	.LBB2_469
# BB#470:                               # %land.lhs.true369.i
                                        #   in Loop: Header=BB2_467 Depth=4
	movq	32(%rax), %rcx
	movzbl	(%rcx), %ecx
	cmpq	$48, %rcx
	jne	.LBB2_471
.LBB2_472:                              # %for.cond361.backedge.i
                                        #   in Loop: Header=BB2_467 Depth=4
	movq	24(%rax), %rax
	cmpq	%r13, %rax
	jne	.LBB2_467
# BB#473:                               #   in Loop: Header=BB2_464 Depth=3
	movq	%r13, %rcx
	jmp	.LBB2_474
.LBB2_469:                              #   in Loop: Header=BB2_464 Depth=3
	movq	%rax, %rcx
	jmp	.LBB2_474
.LBB2_471:                              #   in Loop: Header=BB2_464 Depth=3
	movq	%rax, %rcx
	.align	16, 0x90
.LBB2_474:                              # %for.end388.i
                                        #   in Loop: Header=BB2_464 Depth=3
	movzbl	(%rcx), %eax
	cmpq	$34, %rax
	jne	.LBB2_481
# BB#475:                               # %land.lhs.true393.i
                                        #   in Loop: Header=BB2_464 Depth=3
	movzbl	(%rbx), %eax
	cmpq	$47, %rax
	jne	.LBB2_481
# BB#476:                               # %land.lhs.true398.i
                                        #   in Loop: Header=BB2_464 Depth=3
	movq	8(%rbx), %rax
	movzbl	(%rax), %eax
	cmpq	$61, %rax
	jne	.LBB2_481
# BB#477:                               # %land.lhs.true406.i
                                        #   in Loop: Header=BB2_464 Depth=3
	movq	$4, %rsi
	xorq	%rdx, %rdx
	movq	%r15, %rdi
	callq	find_reg_note
	testq	%rax, %rax
	je	.LBB2_481
# BB#478:                               # %if.then409.i
                                        #   in Loop: Header=BB2_464 Depth=3
	movq	16(%rbx), %rcx
	movq	%rcx, 120(%rsp)         # 8-byte Spill
	movzbl	(%rcx), %ecx
	cmpq	$61, %rcx
	je	.LBB2_480
# BB#479:                               # %if.then417.i
                                        #   in Loop: Header=BB2_464 Depth=3
	movq	8(%rbx), %rcx
	movq	%rcx, 120(%rsp)         # 8-byte Spill
.LBB2_480:                              # %if.end421.i
                                        #   in Loop: Header=BB2_464 Depth=3
	movq	8(%rax), %rax
	movq	%rax, 144(%rsp)         # 8-byte Spill
	movq	%r15, %r12
	.align	16, 0x90
.LBB2_481:                              # %if.end425.i
                                        #   in Loop: Header=BB2_464 Depth=3
	movzbl	(%r15), %eax
	cmpq	$34, %rax
	jne	.LBB2_485
# BB#482:                               # %if.end425.i
                                        #   in Loop: Header=BB2_464 Depth=3
	cmpq	$0, 144(%rsp)           # 8-byte Folded Reload
	je	.LBB2_485
# BB#483:                               # %land.lhs.true433.i
                                        #   in Loop: Header=BB2_464 Depth=3
	movq	120(%rsp), %rdi         # 8-byte Reload
	movq	%rbx, %rsi
	callq	reg_referenced_p
	movabsq	$4294967295, %rcx       # imm = 0xFFFFFFFF
	testq	%rcx, %rax
	je	.LBB2_485
# BB#484:                               # %if.then436.i
                                        #   in Loop: Header=BB2_464 Depth=3
	movq	120(%rsp), %rdi         # 8-byte Reload
	movq	144(%rsp), %rsi         # 8-byte Reload
	callq	gen_move_insn
	movq	%rax, %rdi
	movq	%r12, %rsi
	callq	emit_insn_after
.LBB2_485:                              # %if.end439.i
                                        #   in Loop: Header=BB2_464 Depth=3
	movzbl	(%r15), %eax
	movq	160(%rsp), %rcx         # 8-byte Reload
	movq	192(%rcx), %rsi
	cmpq	$34, %rax
	leaq	24(%r15), %rax
	movq	%rax, 184(%rsp)         # 8-byte Spill
	jne	.LBB2_488
# BB#486:                               # %if.then444.i
                                        #   in Loop: Header=BB2_464 Depth=3
	movq	%rbx, %rdi
	callq	emit_call_insn_before
	movq	64(%r15), %rdi
	movq	%rax, %rbx
	testq	%rdi, %rdi
	je	.LBB2_491
# BB#487:                               # %if.then450.i
                                        #   in Loop: Header=BB2_464 Depth=3
	callq	copy_rtx
	movq	%rax, 64(%rbx)
	jmp	.LBB2_491
	.align	16, 0x90
.LBB2_488:                              # %if.else459.i
                                        #   in Loop: Header=BB2_464 Depth=3
	testq	%rsi, %rsi
	je	.LBB2_489
# BB#490:                               # %loop_insn_hoist.exit1396.i
                                        #   in Loop: Header=BB2_464 Depth=3
	movq	%rbx, %rdi
	callq	emit_insn_before
	movq	%rax, %rbx
.LBB2_491:                              # %if.end461.i
                                        #   in Loop: Header=BB2_464 Depth=3
	movq	%r12, %rcx
	testq	%r14, %r14
	movq	%r14, %rax
	movq	%rbx, %r14
	je	.LBB2_493
# BB#492:                               # %if.end461.i
                                        #   in Loop: Header=BB2_464 Depth=3
	movq	%rax, %r14
.LBB2_493:                              # %if.end461.i
                                        #   in Loop: Header=BB2_464 Depth=3
	cmpq	%rcx, %r15
	movq	%rbx, %r12
	je	.LBB2_495
# BB#494:                               # %if.end461.i
                                        #   in Loop: Header=BB2_464 Depth=3
	movq	%rcx, %r12
.LBB2_495:                              # %if.end461.i
                                        #   in Loop: Header=BB2_464 Depth=3
	movq	56(%r15), %rax
	movq	%rax, 56(%rbx)
	movq	$0, 56(%r15)
	movq	%r15, %rdi
	callq	delete_insn
	movq	%r12, %rcx
	movq	216(%rsp), %r12         # 8-byte Reload
	movq	184(%rsp), %r15         # 8-byte Reload
.LBB2_496:                              # %for.inc480.i
                                        #   in Loop: Header=BB2_464 Depth=3
	movq	(%r15), %r15
	cmpq	%r13, %r15
	jne	.LBB2_464
.LBB2_497:                              # %for.end484.i
                                        #   in Loop: Header=BB2_439 Depth=2
	movq	%r14, 144(%rsp)         # 8-byte Spill
	movq	176(%rsp), %rax         # 8-byte Reload
	testq	%rax, %rax
	movq	%r14, %rcx
	movq	48(%rsp), %r14          # 8-byte Reload
	je	.LBB2_499
# BB#498:                               # %for.end484.i
                                        #   in Loop: Header=BB2_439 Depth=2
	movq	%rax, %rcx
	.align	16, 0x90
.LBB2_499:                              # %if.end489.i
                                        #   in Loop: Header=BB2_439 Depth=2
	movl	48(%r12), %eax
	testq	%rax, %rax
	jne	.LBB2_500
# BB#507:                               # %if.else515.i
                                        #   in Loop: Header=BB2_439 Depth=2
	movq	%rcx, 184(%rsp)         # 8-byte Spill
	movzbl	(%r13), %eax
	cmpq	$34, %rax
	movq	160(%rsp), %rdx         # 8-byte Reload
	jne	.LBB2_510
# BB#508:                               # %if.then520.i
                                        #   in Loop: Header=BB2_439 Depth=2
	movq	32(%r13), %rdi
	movq	192(%rdx), %rsi
	callq	emit_call_insn_before
	movq	64(%r13), %rdi
	movq	%rax, %rbx
	testq	%rdi, %rdi
	je	.LBB2_522
# BB#509:                               # %if.then529.i
                                        #   in Loop: Header=BB2_439 Depth=2
	callq	copy_rtx
	movq	%rax, 64(%rbx)
	jmp	.LBB2_522
	.align	16, 0x90
.LBB2_500:                              # %if.then492.i
                                        #   in Loop: Header=BB2_439 Depth=2
	movq	%rcx, 184(%rsp)         # 8-byte Spill
	movq	16(%r12), %rbx
	callq	start_sequence
	movslq	48(%r12), %rax
	movzbl	mode_bitsize(%rax,%rax), %ecx
	movzbl	2(%rbx), %r15d
	movq	$1, %rsi
	shlq	%cl, %rsi
	decq	%rsi
	xorq	%rdi, %rdi
	callq	gen_rtx_CONST_INT
	movq	$83, %rsi
	movq	$1, %r9
	movq	$3, (%rsp)
	movq	%r15, %rdi
	movq	%rbx, %rdx
	movq	%rax, %rcx
	movq	%rbx, %r8
	callq	expand_simple_binop
	testq	%rax, %rax
	je	.LBB2_501
# BB#502:                               # %if.end507.i
                                        #   in Loop: Header=BB2_439 Depth=2
	cmpq	%rbx, %rax
	je	.LBB2_504
# BB#503:                               # %if.then510.i
                                        #   in Loop: Header=BB2_439 Depth=2
	movq	%rbx, %rdi
	movq	%rax, %rsi
	callq	emit_move_insn
.LBB2_504:                              # %if.end512.i
                                        #   in Loop: Header=BB2_439 Depth=2
	callq	gen_sequence
	movq	%rax, %rbx
	callq	end_sequence
	movq	160(%rsp), %rax         # 8-byte Reload
	movq	192(%rax), %rsi
	testq	%rsi, %rsi
	je	.LBB2_505
# BB#506:                               # %loop_insn_hoist.exit1401.i
                                        #   in Loop: Header=BB2_439 Depth=2
	movq	%rbx, %rdi
	jmp	.LBB2_521
.LBB2_510:                              # %if.else538.i
                                        #   in Loop: Header=BB2_439 Depth=2
	movl	32(%r12), %eax
	movq	%r14, %rcx
	movabsq	$4294967295, %rsi       # imm = 0xFFFFFFFF
	andq	%rsi, %rcx
	cmpq	%rax, %rcx
	jne	.LBB2_518
# BB#511:                               # %land.lhs.true542.i
                                        #   in Loop: Header=BB2_439 Depth=2
	movq	208(%rsp), %rax         # 8-byte Reload
	movzbl	(%rax), %eax
	testq	$64, %rax
	jne	.LBB2_512
.LBB2_518:                              # %if.else569.i
                                        #   in Loop: Header=BB2_439 Depth=2
	movq	192(%rdx), %rsi
	testq	%rsi, %rsi
	je	.LBB2_519
# BB#520:                               # %loop_insn_hoist.exit1412.i
                                        #   in Loop: Header=BB2_439 Depth=2
	movq	32(%r13), %rdi
.LBB2_521:                              # %if.end576.i
                                        #   in Loop: Header=BB2_439 Depth=2
	callq	emit_insn_before
	movq	%rax, %rbx
.LBB2_522:                              # %if.end576.i
                                        #   in Loop: Header=BB2_439 Depth=2
	cmpq	$0, 56(%rbx)
	jne	.LBB2_526
# BB#523:                               # %if.then582.i
                                        #   in Loop: Header=BB2_439 Depth=2
	movq	56(%r13), %rax
	movq	%rax, 56(%rbx)
	movq	$0, 56(%r13)
	movq	$4, %rsi
	xorq	%rdx, %rdx
	movq	%rbx, %rdi
	callq	find_reg_note
	movq	%rax, %r15
	testq	%r15, %r15
	je	.LBB2_526
# BB#524:                               # %land.lhs.true594.i
                                        #   in Loop: Header=BB2_439 Depth=2
	movq	8(%r15), %rsi
	movq	160(%rsp), %rdi         # 8-byte Reload
	callq	loop_invariant_p
	movabsq	$4294967295, %rcx       # imm = 0xFFFFFFFF
	testq	%rcx, %rax
	jne	.LBB2_526
# BB#525:                               # %if.then600.i
                                        #   in Loop: Header=BB2_439 Depth=2
	movq	%rbx, %rdi
	movq	%r15, %rsi
	callq	remove_note
	.align	16, 0x90
.LBB2_526:                              # %if.end602.i
                                        #   in Loop: Header=BB2_439 Depth=2
	movq	184(%rsp), %rcx         # 8-byte Reload
	testq	%rcx, %rcx
	movq	%rbx, %rax
	je	.LBB2_528
# BB#527:                               # %if.end602.i
                                        #   in Loop: Header=BB2_439 Depth=2
	movq	%rcx, %rax
.LBB2_528:                              # %if.end602.i
                                        #   in Loop: Header=BB2_439 Depth=2
	movq	%rax, 176(%rsp)         # 8-byte Spill
	movq	loop_dump_stream(%rip), %rdi
	testq	%rdi, %rdi
	movq	96(%rsp), %r15          # 8-byte Reload
	je	.LBB2_530
# BB#529:                               # %if.then608.i
                                        #   in Loop: Header=BB2_439 Depth=2
	movl	8(%rbx), %edx
	xorq	%rax, %rax
	movabsq	$.L.str103, %rsi
	callq	fprintf
.LBB2_530:                              # %if.end613.i
                                        #   in Loop: Header=BB2_439 Depth=2
	movq	$6, %rsi
	xorq	%rdx, %rdx
	movq	%rbx, %rdi
	callq	find_reg_note
	testq	%rax, %rax
	je	.LBB2_532
# BB#531:                               # %if.then616.i
                                        #   in Loop: Header=BB2_439 Depth=2
	movq	144(%rsp), %rdi         # 8-byte Reload
	movq	%rdi, 8(%rax)
	movq	$7, %rsi
	xorq	%rdx, %rdx
	callq	find_reg_note
	movq	%rbx, 8(%rax)
.LBB2_532:                              # %if.end624.i
                                        #   in Loop: Header=BB2_439 Depth=2
	movq	%r13, %rdi
	callq	delete_insn
	movq	24(%r13), %rcx
	xorq	%rax, %rax
	testq	%rcx, %rcx
	jne	.LBB2_534
# BB#533:                               #   in Loop: Header=BB2_439 Depth=2
	movq	152(%rsp), %r10         # 8-byte Reload
	jmp	.LBB2_538
.LBB2_534:                              # %land.rhs631.lr.ph.i
                                        #   in Loop: Header=BB2_439 Depth=2
	movq	152(%rsp), %r10         # 8-byte Reload
	.align	16, 0x90
.LBB2_535:                              # %land.rhs631.i
                                        #   Parent Loop BB2_379 Depth=1
                                        #     Parent Loop BB2_439 Depth=2
                                        # =>    This Inner Loop Header: Depth=3
	movzbl	(%rcx), %edx
	cmpq	$37, %rdx
	jne	.LBB2_536
# BB#537:                               # %while.body637.i
                                        #   in Loop: Header=BB2_535 Depth=3
	movq	24(%rcx), %rcx
	testq	%rcx, %rcx
	movq	%rcx, 24(%r13)
	jne	.LBB2_535
	jmp	.LBB2_538
.LBB2_536:                              #   in Loop: Header=BB2_439 Depth=2
	movq	%rcx, %rax
.LBB2_538:                              # %for.inc645.i
                                        #   in Loop: Header=BB2_439 Depth=2
	movq	$32, %rcx
	movq	%r14, %rdx
	shlq	%cl, %rdx
	movq	$32, %rcx
	sarq	%cl, %rdx
	decq	%r14
	testq	%rdx, %rdx
	movq	%rax, %r13
	jg	.LBB2_439
.LBB2_539:                              # %for.end647.i
                                        #   in Loop: Header=BB2_379 Depth=1
	movq	%r12, %r13
	addq	$-3, 192(%rsp)          # 8-byte Folded Spill
.LBB2_540:                              # %if.end650.i
                                        #   in Loop: Header=BB2_379 Depth=1
	movq	168(%rsp), %rax         # 8-byte Reload
	movq	$1, %rcx
	movb	%cl, (%rax,%r10)
	movq	192(%r15), %rax
	movq	104(%rsp), %rdx         # 8-byte Reload
	movb	%cl, 17(%rax,%rdx,8)
	movq	208(%rsp), %rdx         # 8-byte Reload
	movzbl	(%rdx), %ecx
	testq	$16, %rcx
	jne	.LBB2_559
# BB#541:                               # %for.cond664.preheader.i
                                        #   in Loop: Header=BB2_379 Depth=1
	movq	%rdx, %r9
	movq	%r10, %rcx
	movabsq	$4294967288, %rdx       # imm = 0xFFFFFFF8
	andq	%rdx, %rcx
	cmpq	$8, %rcx
	movabsq	$0, %rcx
	movabsq	$0, %rsi
	jne	.LBB2_543
# BB#542:                               # %for.cond664.preheader.i
                                        #   in Loop: Header=BB2_379 Depth=1
	movabsq	$1, %rcx
.LBB2_543:                              # %for.cond664.preheader.i
                                        #   in Loop: Header=BB2_379 Depth=1
	leaq	-21(%r10), %rdx
	movabsq	$4294967295, %rdi       # imm = 0xFFFFFFFF
	andq	%rdi, %rdx
	cmpq	$8, %rdx
	sbbq	%rdx, %rdx
	andq	$1, %rdx
	orq	%rcx, %rdx
	leaq	-45(%r10), %rcx
	andq	%rdi, %rcx
	cmpq	$8, %rcx
	sbbq	%rcx, %rcx
	andq	$1, %rcx
	orq	%rdx, %rcx
	leaq	-29(%r10), %rdx
	andq	%rdi, %rdx
	cmpq	$8, %rdx
	sbbq	%r8, %r8
	andq	$1, %r8
	orq	%rcx, %r8
	leaq	(%r10,%r10,2), %rcx
	leaq	(%rax,%rcx,8), %rdi
	xorq	%rbx, %rbx
	jmp	.LBB2_544
	.align	16, 0x90
.LBB2_557:                              # %for.body757.i
                                        #   in Loop: Header=BB2_544 Depth=2
	movl	%esi, (%rdi)
	incq	%rbx
	addq	$24, %rdi
.LBB2_544:                              # %for.cond664.i
                                        #   Parent Loop BB2_379 Depth=1
                                        # =>  This Inner Loop Header: Depth=2
	movq	$1, %rax
	cmpq	$52, %r10
	jg	.LBB2_556
# BB#545:                               # %cond.true667.i
                                        #   in Loop: Header=BB2_544 Depth=2
	movq	16(%r13), %rax
	movzbl	2(%rax), %eax
	testq	%r8, %r8
	je	.LBB2_550
# BB#546:                               # %cond.true691.i
                                        #   in Loop: Header=BB2_544 Depth=2
	movl	mode_class(,%rax,4), %ecx
	cmpq	$5, %rcx
	movq	$2, %rax
	je	.LBB2_556
# BB#547:                               # %lor.rhs.i
                                        #   in Loop: Header=BB2_544 Depth=2
	cmpq	$6, %rcx
	movabsq	$0, %rax
	jne	.LBB2_549
# BB#548:                               # %lor.rhs.i
                                        #   in Loop: Header=BB2_544 Depth=2
	movabsq	$1, %rax
.LBB2_549:                              # %lor.rhs.i
                                        #   in Loop: Header=BB2_544 Depth=2
	incq	%rax
	jmp	.LBB2_556
	.align	16, 0x90
.LBB2_550:                              # %cond.false709.i
                                        #   in Loop: Header=BB2_544 Depth=2
	cmpq	$24, %rax
	jne	.LBB2_551
# BB#553:                               # %cond.true726.i
                                        #   in Loop: Header=BB2_544 Depth=2
	movzbl	target_flags+3(%rip), %eax
	andq	$2, %rax
	xorq	$6, %rax
	jmp	.LBB2_556
.LBB2_551:                              # %cond.false709.i
                                        #   in Loop: Header=BB2_544 Depth=2
	cmpq	$18, %rax
	jne	.LBB2_554
# BB#552:                               # %cond.true716.i
                                        #   in Loop: Header=BB2_544 Depth=2
	movl	target_flags(%rip), %eax
	movq	$25, %rcx
	shrq	%cl, %rax
	andq	$1, %rax
	xorq	$3, %rax
	jmp	.LBB2_555
.LBB2_554:                              # %cond.false730.i
                                        #   in Loop: Header=BB2_544 Depth=2
	movl	target_flags(%rip), %esi
	movzbl	mode_size(%rax), %eax
	movq	$23, %rcx
	shrq	%cl, %rsi
	andq	$4, %rsi
	leaq	3(%rax,%rsi), %rax
	addq	$4, %rsi
	cqto
	idivq	%rsi
.LBB2_555:                              # %cond.end753.i
                                        #   in Loop: Header=BB2_544 Depth=2
	xorq	%rsi, %rsi
	.align	16, 0x90
.LBB2_556:                              # %cond.end753.i
                                        #   in Loop: Header=BB2_544 Depth=2
	movq	$32, %rcx
	movq	%rbx, %rdx
	shlq	%cl, %rdx
	movq	$32, %rcx
	sarq	%cl, %rdx
	movq	$32, %rcx
	shlq	%cl, %rax
	movq	$32, %rcx
	sarq	%cl, %rax
	cmpq	%rax, %rdx
	jl	.LBB2_557
# BB#558:                               # %if.end764.loopexit.i
                                        #   in Loop: Header=BB2_379 Depth=1
	movq	%r9, %rdx
	movzbl	(%rdx), %ecx
.LBB2_559:                              # %if.end764.i
                                        #   in Loop: Header=BB2_379 Depth=1
	orq	$8, %rcx
	movb	%cl, (%rdx)
	movq	64(%rsp), %rax          # 8-byte Reload
	movslq	8(%rax), %rcx
	movslq	max_uid_for_loop(%rip), %rsi
	cmpq	%rsi, %rcx
	jge	.LBB2_857
# BB#560:                               # %cond.true778.i
                                        #   in Loop: Header=BB2_379 Depth=1
	movq	reg_n_info(%rip), %rax
	movq	32(%rax,%r10,8), %rax
	movq	uid_luid(%rip), %rdx
	movslq	(%rax), %rdi
	movslq	(%rdx,%rdi,4), %rdi
	movslq	(%rdx,%rcx,4), %rbx
	cmpq	%rbx, %rdi
	jle	.LBB2_562
# BB#561:                               # %if.then789.i
                                        #   in Loop: Header=BB2_379 Depth=1
	movl	%ecx, (%rax)
	movl	max_uid_for_loop(%rip), %esi
.LBB2_562:                              # %if.end798.i
                                        #   in Loop: Header=BB2_379 Depth=1
	movq	56(%rsp), %rcx          # 8-byte Reload
	movslq	8(%rcx), %rdi
	movq	$32, %rcx
	shlq	%cl, %rsi
	movq	$32, %rcx
	sarq	%cl, %rsi
	cmpq	%rsi, %rdi
	jge	.LBB2_858
# BB#563:                               # %cond.true810.i
                                        #   in Loop: Header=BB2_379 Depth=1
	movslq	4(%rax), %rcx
	movslq	(%rdx,%rcx,4), %rcx
	movslq	(%rdx,%rdi,4), %rdx
	cmpq	%rdx, %rcx
	jge	.LBB2_565
# BB#564:                               # %if.then821.i
                                        #   in Loop: Header=BB2_379 Depth=1
	movl	%edi, 4(%rax)
.LBB2_565:                              # %if.end830.i
                                        #   in Loop: Header=BB2_379 Depth=1
	movq	208(%rsp), %rax         # 8-byte Reload
	movzbl	(%rax), %eax
	testq	$16, %rax
	jne	.LBB2_566
# BB#568:                               # %for.cond839.preheader.i
                                        #   in Loop: Header=BB2_379 Depth=1
	movq	136(%rsp), %rax         # 8-byte Reload
	movq	(%rax), %rbx
	testq	%rbx, %rbx
	je	.LBB2_566
# BB#569:                               # %for.body841.lr.ph.i
                                        #   in Loop: Header=BB2_379 Depth=1
	movq	%r10, %rax
	movabsq	$4294967288, %rcx       # imm = 0xFFFFFFF8
	andq	%rcx, %rax
	cmpq	$8, %rax
	movabsq	$0, %rax
	jne	.LBB2_571
# BB#570:                               # %for.body841.lr.ph.i
                                        #   in Loop: Header=BB2_379 Depth=1
	movabsq	$1, %rax
.LBB2_571:                              # %for.body841.lr.ph.i
                                        #   in Loop: Header=BB2_379 Depth=1
	leaq	-21(%r10), %rcx
	movabsq	$4294967295, %rdx       # imm = 0xFFFFFFFF
	andq	%rdx, %rcx
	cmpq	$8, %rcx
	sbbq	%rcx, %rcx
	andq	$1, %rcx
	orq	%rax, %rcx
	leaq	-45(%r10), %rax
	andq	%rdx, %rax
	cmpq	$8, %rax
	sbbq	%rax, %rax
	andq	$1, %rax
	orq	%rcx, %rax
	leaq	-29(%r10), %rcx
	andq	%rdx, %rcx
	cmpq	$8, %rcx
	sbbq	%r14, %r14
	andq	$1, %r14
	orq	%rax, %r14
	.align	16, 0x90
.LBB2_572:                              # %for.body841.i
                                        #   Parent Loop BB2_379 Depth=1
                                        # =>  This Loop Header: Depth=2
                                        #       Child Loop BB2_580 Depth 3
	movq	56(%rbx), %rax
	cmpq	%r13, %rax
	jne	.LBB2_593
# BB#573:                               # %if.then845.i
                                        #   in Loop: Header=BB2_572 Depth=2
	movq	16(%r13), %rsi
	movq	16(%rbx), %rax
	movzbl	2(%rsi), %ecx
	movzbl	2(%rax), %edi
	movq	%r10, %r12
	cmpq	%rdi, %rcx
	jne	.LBB2_575
# BB#574:                               # %if.then857.i
                                        #   in Loop: Header=BB2_572 Depth=2
	movl	36(%rbx), %eax
	movq	200(%rsp), %rcx         # 8-byte Reload
	movq	%rsi, (%rcx,%rax,8)
	jmp	.LBB2_576
	.align	16, 0x90
.LBB2_575:                              # %if.else862.i
                                        #   in Loop: Header=BB2_572 Depth=2
	callq	gen_lowpart_common
	movl	36(%rbx), %ecx
	movq	200(%rsp), %rdx         # 8-byte Reload
	movq	%rax, (%rdx,%rcx,8)
.LBB2_576:                              # %if.end872.i
                                        #   in Loop: Header=BB2_572 Depth=2
	movzbl	44(%rbx), %eax
	orq	$8, %rax
	movb	%al, 44(%rbx)
	movq	(%rbx), %rdi
	movq	$6, %rsi
	xorq	%rdx, %rdx
	callq	find_reg_note
	testq	%rax, %rax
	jne	.LBB2_577
# BB#578:                               # %if.else885.i
                                        #   in Loop: Header=BB2_572 Depth=2
	movq	(%rbx), %rdi
	callq	delete_insn
	jmp	.LBB2_579
	.align	16, 0x90
.LBB2_577:                              # %if.then880.i
                                        #   in Loop: Header=BB2_572 Depth=2
	movq	8(%rax), %rdi
	movq	(%rbx), %rsi
	callq	delete_insn_chain
.LBB2_579:                              # %if.end888.i
                                        #   in Loop: Header=BB2_572 Depth=2
	movl	36(%rbx), %r8d
	movq	168(%rsp), %rax         # 8-byte Reload
	movq	$1, %rcx
	movb	%cl, (%rax,%r8)
	movq	208(%rsp), %rax         # 8-byte Reload
	movzbl	(%rax), %eax
	xorq	%rdi, %rdi
	testq	$16, %rax
	movabsq	$0, %rsi
	movq	%r12, %r10
	jne	.LBB2_593
	jmp	.LBB2_580
	.align	16, 0x90
.LBB2_592:                              # %for.body997.i
                                        #   in Loop: Header=BB2_580 Depth=3
	leaq	(%rdi,%r8), %rax
	movq	192(%r15), %rcx
	movabsq	$4294967295, %rdx       # imm = 0xFFFFFFFF
	andq	%rdx, %rax
	leaq	(%rax,%rax,2), %rax
	movl	%esi, (%rcx,%rax,8)
	incq	%rdi
.LBB2_580:                              # %for.cond900.i
                                        #   Parent Loop BB2_379 Depth=1
                                        #     Parent Loop BB2_572 Depth=2
                                        # =>    This Inner Loop Header: Depth=3
	movq	$1, %rax
	cmpq	$52, %r10
	jg	.LBB2_591
# BB#581:                               # %cond.true903.i
                                        #   in Loop: Header=BB2_580 Depth=3
	movq	16(%rbx), %rax
	movzbl	2(%rax), %eax
	testq	%r14, %r14
	je	.LBB2_586
# BB#582:                               # %cond.true927.i
                                        #   in Loop: Header=BB2_580 Depth=3
	movl	mode_class(,%rax,4), %ecx
	cmpq	$5, %rcx
	movq	$2, %rax
	je	.LBB2_591
# BB#583:                               # %lor.rhs936.i
                                        #   in Loop: Header=BB2_580 Depth=3
	cmpq	$6, %rcx
	movabsq	$0, %rax
	jne	.LBB2_585
# BB#584:                               # %lor.rhs936.i
                                        #   in Loop: Header=BB2_580 Depth=3
	movabsq	$1, %rax
.LBB2_585:                              # %lor.rhs936.i
                                        #   in Loop: Header=BB2_580 Depth=3
	incq	%rax
	jmp	.LBB2_591
	.align	16, 0x90
.LBB2_586:                              # %cond.false947.i
                                        #   in Loop: Header=BB2_580 Depth=3
	cmpq	$24, %rax
	jne	.LBB2_587
# BB#589:                               # %cond.true965.i
                                        #   in Loop: Header=BB2_580 Depth=3
	movzbl	target_flags+3(%rip), %eax
	andq	$2, %rax
	xorq	$6, %rax
	jmp	.LBB2_591
.LBB2_587:                              # %cond.false947.i
                                        #   in Loop: Header=BB2_580 Depth=3
	cmpq	$18, %rax
	jne	.LBB2_590
# BB#588:                               # %cond.true954.i
                                        #   in Loop: Header=BB2_580 Depth=3
	movl	target_flags(%rip), %eax
	movq	$25, %rcx
	shrq	%cl, %rax
	andq	$1, %rax
	xorq	$3, %rax
	jmp	.LBB2_591
.LBB2_590:                              # %cond.false969.i
                                        #   in Loop: Header=BB2_580 Depth=3
	movl	target_flags(%rip), %esi
	movzbl	mode_size(%rax), %eax
	movq	$23, %rcx
	shrq	%cl, %rsi
	andq	$4, %rsi
	leaq	3(%rax,%rsi), %rax
	addq	$4, %rsi
	cqto
	idivq	%rsi
	xorq	%rsi, %rsi
	.align	16, 0x90
.LBB2_591:                              # %cond.end993.i
                                        #   in Loop: Header=BB2_580 Depth=3
	movq	$32, %rcx
	movq	%rdi, %rdx
	shlq	%cl, %rdx
	movq	$32, %rcx
	sarq	%cl, %rdx
	movq	$32, %rcx
	shlq	%cl, %rax
	movq	$32, %rcx
	sarq	%cl, %rax
	cmpq	%rax, %rdx
	jl	.LBB2_592
.LBB2_593:                              # %for.inc1009.i
                                        #   in Loop: Header=BB2_572 Depth=2
	movq	72(%rbx), %rbx
	testq	%rbx, %rbx
	jne	.LBB2_572
.LBB2_566:                              #   in Loop: Header=BB2_379 Depth=1
	movq	%r13, %r12
.LBB2_567:                              # %if.end1027.i
                                        #   in Loop: Header=BB2_379 Depth=1
	movabsq	$.L.str92, %rbx
	movq	%rbx, %r13
.LBB2_600:                              # %if.end1027.i
                                        #   in Loop: Header=BB2_379 Depth=1
	movq	loop_dump_stream(%rip), %rsi
	testq	%rsi, %rsi
	je	.LBB2_602
# BB#601:                               # %if.then1029.i
                                        #   in Loop: Header=BB2_379 Depth=1
	movq	$10, %rdi
	callq	fputc
.LBB2_602:                              # %for.inc1032.i
                                        #   in Loop: Header=BB2_379 Depth=1
	movq	72(%r12), %r12
	testq	%r12, %r12
	jne	.LBB2_379
.LBB2_603:                              # %for.end1034.i
	movq	176(%rsp), %rax         # 8-byte Reload
	testq	%rax, %rax
	je	.LBB2_605
# BB#604:                               # %for.end1034.i
	movq	%rax, 64(%rsp)          # 8-byte Spill
.LBB2_605:                              # %for.end1034.i
	movq	64(%rsp), %rbx          # 8-byte Reload
	movq	56(%rsp), %r13          # 8-byte Reload
	cmpq	%r13, %rbx
	movq	40(%rsp), %r12          # 8-byte Reload
	je	.LBB2_610
# BB#606:
	movabsq	$4294967295, %r14       # imm = 0xFFFFFFFF
	movq	200(%rsp), %r15         # 8-byte Reload
	.align	16, 0x90
.LBB2_607:                              # %for.body1042.i
                                        # =>This Inner Loop Header: Depth=1
	movzbl	(%rbx), %eax
	addq	$-32, %rax
	andq	%r14, %rax
	cmpq	$2, %rax
	ja	.LBB2_609
# BB#608:                               # %if.then1057.i
                                        #   in Loop: Header=BB2_607 Depth=1
	movq	32(%rbx), %rdi
	xorq	%rcx, %rcx
	movq	%r15, %rsi
	movq	%r12, %rdx
	callq	replace_regs
	movq	56(%rbx), %rdi
	xorq	%rcx, %rcx
	movq	%r15, %rsi
	movq	%r12, %rdx
	callq	replace_regs
	movl	%r14d, 40(%rbx)
.LBB2_609:                              # %for.inc1070.i
                                        #   in Loop: Header=BB2_607 Depth=1
	movq	24(%rbx), %rbx
	cmpq	%r13, %rbx
	jne	.LBB2_607
.LBB2_610:                              # %move_movables.exit
	movq	200(%rsp), %rdi         # 8-byte Reload
	callq	free
	movq	168(%rsp), %rdi         # 8-byte Reload
	callq	free
	callq	max_reg_num
	movq	$32, %rcx
	movq	128(%rsp), %r14         # 8-byte Reload
	movslq	184(%r14), %r8
	shlq	%cl, %rax
	movq	$32, %rcx
	sarq	%cl, %rax
	cmpq	%r8, %rax
	movq	160(%rsp), %rdi         # 8-byte Reload
	jle	.LBB2_616
# BB#611:                               # %if.then1551
	xorq	%rsi, %rsi
	callq	loop_regs_scan
	movq	88(%rsp), %rax          # 8-byte Reload
	.align	16, 0x90
.LBB2_612:                              # %for.cond1552
                                        # =>This Inner Loop Header: Depth=1
	movq	%rax, %rdi
	movq	16(%rdi), %rax
	testq	%rax, %rax
	je	.LBB2_614
# BB#613:                               # %land.rhs1557
                                        #   in Loop: Header=BB2_612 Depth=1
	movzbl	(%rax), %ecx
	cmpq	$36, %rcx
	jne	.LBB2_612
.LBB2_614:                              # %for.end1571
	movq	112(%rsp), %rax         # 8-byte Reload
	movq	24(%rax), %rsi
	movl	loop_max_reg(%rip), %edx
	callq	reg_scan_update
	callq	max_reg_num
	movl	%eax, loop_max_reg(%rip)
.LBB2_615:                              # %for.cond1578.preheaderthread-pre-split
	movl	184(%r14), %r8d
	movq	160(%rsp), %rdi         # 8-byte Reload
.LBB2_616:                              # %for.cond1578.preheader
	movq	$32, %rcx
	movq	%r8, %rax
	shlq	%cl, %rax
	movq	$32, %rcx
	sarq	%cl, %rax
	testq	%rax, %rax
	jle	.LBB2_621
# BB#617:                               # %for.body1582.lr.ph
	movq	192(%r14), %rax
	addq	$4, %rax
	movq	$1, %rbx
	.align	16, 0x90
.LBB2_618:                              # %for.body1582
                                        # =>This Inner Loop Header: Depth=1
	movslq	-4(%rax), %rcx
	testq	%rcx, %rcx
	jns	.LBB2_620
# BB#619:                               # %if.then1589
                                        #   in Loop: Header=BB2_618 Depth=1
	movl	(%rax), %ecx
	movl	%ecx, -4(%rax)
.LBB2_620:                              # %for.inc1599
                                        #   in Loop: Header=BB2_618 Depth=1
	movq	$32, %rcx
	movq	%rbx, %rsi
	shlq	%cl, %rsi
	movq	$32, %rcx
	sarq	%cl, %rsi
	movq	$32, %rcx
	movq	%r8, %rdx
	shlq	%cl, %rdx
	movq	$32, %rcx
	sarq	%cl, %rdx
	incq	%rbx
	addq	$24, %rax
	cmpq	%rdx, %rsi
	jl	.LBB2_618
.LBB2_621:                              # %for.end1601
	movq	%r14, 128(%rsp)         # 8-byte Spill
	movq	160(%rdi), %r14
	movq	%rdi, %rbx
	callq	max_reg_num
	movq	%rbx, %rsi
	movl	136(%r14), %ecx
	movq	%rax, 72(%rsp)          # 8-byte Spill
	testq	%rcx, %rcx
	je	.LBB2_838
# BB#622:                               # %if.end.i2342
	movq	200(%rsi), %rdi
	movq	%rsi, %rbx
	callq	next_nonnote_insn
	movq	$0, 64(%rsp)            # 8-byte Folded Spill
	testq	%rax, %rax
	je	.LBB2_626
# BB#623:                               # %land.lhs.true.i2346
	movzbl	(%rax), %ecx
	cmpq	$36, %rcx
	je	.LBB2_625
# BB#624:                               # %land.lhs.true.i2346
	xorq	%rax, %rax
.LBB2_625:                              # %land.lhs.true.i2346
	movq	%rax, 64(%rsp)          # 8-byte Spill
.LBB2_626:                              # %if.end6.i
	movq	%rbx, %rsi
	movq	216(%rsi), %rdx
	movq	200(%rsi), %rax
	movq	24(%rdx), %rcx
	cmpq	%rax, %rcx
	jne	.LBB2_628
# BB#627:                               # %if.then.i.i
	movq	208(%rsi), %rcx
.LBB2_628:                              # %next_insn_in_loop.exit.i
	cmpq	%rdx, %rcx
	movabsq	$0, %rdi
	je	.LBB2_630
# BB#629:                               # %next_insn_in_loop.exit.i
	movq	%rcx, %rdi
.LBB2_630:                              # %next_insn_in_loop.exit.i
	testq	%rdi, %rdi
	movq	%rdi, 296(%rsp)
	movq	%r14, %r13
	movq	%r13, 120(%rsp)         # 8-byte Spill
	je	.LBB2_631
# BB#632:
	movq	$0, 104(%rsp)           # 8-byte Folded Spill
	movabsq	$4294967295, %r14       # imm = 0xFFFFFFFF
	xorq	%r15, %r15
	.align	16, 0x90
.LBB2_633:                              # %for.body.i2350
                                        # =>This Inner Loop Header: Depth=1
	movzbl	(%rdi), %ecx
	cmpq	$36, %rcx
	je	.LBB2_652
# BB#634:                               # %for.body.i2350
                                        #   in Loop: Header=BB2_633 Depth=1
	cmpq	$33, %rcx
	jne	.LBB2_651
# BB#635:                               # %land.lhs.true20.i
                                        #   in Loop: Header=BB2_633 Depth=1
	movq	64(%rdi), %rcx
	movq	208(%rsi), %rdx
	cmpq	%rdx, %rcx
	jne	.LBB2_639
# BB#636:                               # %land.lhs.true22.i2354
                                        #   in Loop: Header=BB2_633 Depth=1
	movq	24(%rdi), %rdx
	movq	24(%rdx), %rdx
	cmpq	%rax, %rdx
	jne	.LBB2_639
# BB#637:                               # %land.lhs.true31.i
                                        #   in Loop: Header=BB2_633 Depth=1
	movq	%rsi, %rbx
	callq	any_uncondjump_p
	movq	%rbx, %rsi
	testq	%r14, %rax
	jne	.LBB2_651
# BB#638:                               # %land.lhs.true31.if.then34_crit_edge.i
                                        #   in Loop: Header=BB2_633 Depth=1
	movq	296(%rsp), %rdi
	movq	64(%rdi), %rcx
	.align	16, 0x90
.LBB2_639:                              # %if.then34.i
                                        #   in Loop: Header=BB2_633 Depth=1
	testq	%rcx, %rcx
	je	.LBB2_838
# BB#640:                               # %lor.lhs.false.i2355
                                        #   in Loop: Header=BB2_633 Depth=1
	movq	64(%rsp), %rax          # 8-byte Reload
	cmpq	%rax, %rcx
	je	.LBB2_646
# BB#641:                               # %land.lhs.true43.i
                                        #   in Loop: Header=BB2_633 Depth=1
	movslq	8(%rcx), %rcx
	movslq	max_uid_for_loop(%rip), %r8
	cmpq	%r8, %rcx
	jge	.LBB2_838
# BB#642:                               # %cond.true.i2359
                                        #   in Loop: Header=BB2_633 Depth=1
	movq	192(%rsi), %rdx
	movslq	8(%rdx), %rbx
	cmpq	%r8, %rbx
	jge	.LBB2_859
# BB#643:                               # %cond.true69.i
                                        #   in Loop: Header=BB2_633 Depth=1
	movq	uid_luid(%rip), %r9
	movl	(%r9,%rcx,4), %eax
	movslq	(%r9,%rbx,4), %rbx
	movq	$32, %rcx
	movq	%rax, %rdx
	shlq	%cl, %rdx
	movq	$32, %rcx
	sarq	%cl, %rdx
	cmpq	%rbx, %rdx
	jl	.LBB2_838
# BB#644:                               # %cond.true88.i
                                        #   in Loop: Header=BB2_633 Depth=1
	movq	200(%rsi), %rcx
	movslq	8(%rcx), %rcx
	cmpq	%r8, %rcx
	jge	.LBB2_860
# BB#645:                               # %cond.true105.i
                                        #   in Loop: Header=BB2_633 Depth=1
	movslq	(%r9,%rcx,4), %rdx
	movq	$32, %rcx
	shlq	%cl, %rax
	movq	$32, %rcx
	sarq	%cl, %rax
	cmpq	%rdx, %rax
	jg	.LBB2_838
.LBB2_646:                              # %if.end117.i
                                        #   in Loop: Header=BB2_633 Depth=1
	movq	%rsi, %rbx
	callq	any_condjump_p
	andq	%r14, %rax
	movq	$1, %rcx
	je	.LBB2_648
# BB#647:                               # %if.end117.i
                                        #   in Loop: Header=BB2_633 Depth=1
	movq	$1, %r15
.LBB2_648:                              # %if.end117.i
                                        #   in Loop: Header=BB2_633 Depth=1
	testq	%rax, %rax
	movq	%rbx, %rsi
	je	.LBB2_650
# BB#649:                               # %if.end117.i
                                        #   in Loop: Header=BB2_633 Depth=1
	movq	104(%rsp), %rcx         # 8-byte Reload
.LBB2_650:                              # %if.end117.i
                                        #   in Loop: Header=BB2_633 Depth=1
	movq	%rcx, 104(%rsp)         # 8-byte Spill
	jmp	.LBB2_653
	.align	16, 0x90
.LBB2_651:                              # %if.else123.i
                                        #   in Loop: Header=BB2_633 Depth=1
	testq	%r14, %r15
	je	.LBB2_653
.LBB2_652:                              # %if.else123.i
                                        #   in Loop: Header=BB2_633 Depth=1
	movq	$1, 104(%rsp)           # 8-byte Folded Spill
.LBB2_653:                              # %for.inc.i2360
                                        #   in Loop: Header=BB2_633 Depth=1
	movq	296(%rsp), %rax
	movq	24(%rax), %rcx
	movq	200(%rsi), %rax
	cmpq	%rax, %rcx
	jne	.LBB2_655
# BB#654:                               # %if.then.i989.i
                                        #   in Loop: Header=BB2_633 Depth=1
	movq	208(%rsi), %rcx
.LBB2_655:                              # %next_insn_in_loop.exit994.i
                                        #   in Loop: Header=BB2_633 Depth=1
	movq	216(%rsi), %rdx
	xorq	%rdi, %rdi
	cmpq	%rdx, %rcx
	je	.LBB2_657
# BB#656:                               # %select.mid554
                                        #   in Loop: Header=BB2_633 Depth=1
	movq	%rcx, %rdi
.LBB2_657:                              # %select.end553
                                        #   in Loop: Header=BB2_633 Depth=1
	movq	%rdi, 296(%rsp)
	testq	%rdi, %rdi
	jne	.LBB2_633
	jmp	.LBB2_658
	.align	16, 0x90
.LBB2_489:                              # %tailrecurse.us.i1394.i
                                        # =>This Inner Loop Header: Depth=1
	jmp	.LBB2_489
	.align	16, 0x90
.LBB2_505:                              # %tailrecurse.us.i1399.i
                                        # =>This Inner Loop Header: Depth=1
	jmp	.LBB2_505
	.align	16, 0x90
.LBB2_519:                              # %tailrecurse.us.i1410.i
                                        # =>This Inner Loop Header: Depth=1
	jmp	.LBB2_519
	.align	16, 0x90
.LBB2_449:                              # %tailrecurse.us.i1389.i
                                        # =>This Inner Loop Header: Depth=1
	jmp	.LBB2_449
	.align	16, 0x90
.LBB2_423:                              # %tailrecurse.us.i.i
                                        # =>This Inner Loop Header: Depth=1
	jmp	.LBB2_423
	.align	16, 0x90
.LBB2_513:                              # %tailrecurse.us.i1405.i
                                        # =>This Inner Loop Header: Depth=1
	jmp	.LBB2_513
.LBB2_631:
	movq	$0, 104(%rsp)           # 8-byte Folded Spill
.LBB2_658:                              # %for.end.i2362
	movq	192(%rsi), %rax
	movq	%rsi, %rbx
	.align	16, 0x90
.LBB2_659:                              # %for.cond131.i
                                        # =>This Inner Loop Header: Depth=1
	movq	%rax, %r14
	movq	%r14, 296(%rsp)
	movq	16(%r14), %rax
	testq	%rax, %rax
	je	.LBB2_661
# BB#660:                               # %land.rhs.i2363
                                        #   in Loop: Header=BB2_659 Depth=1
	movzbl	(%r14), %ecx
	cmpq	$36, %rcx
	jne	.LBB2_659
.LBB2_661:                              # %for.end144.i
	callq	cselib_init
	movq	192(%rbx), %rax
	cmpq	%rax, %r14
	je	.LBB2_664
# BB#662:
	movq	%r14, %rdi
	.align	16, 0x90
.LBB2_663:                              # %for.body148.i
                                        # =>This Inner Loop Header: Depth=1
	callq	cselib_process_insn
	movq	296(%rsp), %rax
	movq	24(%rax), %rdi
	movq	%rdi, 296(%rsp)
	movq	192(%rbx), %rax
	cmpq	%rax, %rdi
	jne	.LBB2_663
.LBB2_664:                              # %for.cond154.preheader.i
	movq	%r14, 40(%rsp)          # 8-byte Spill
	movq	%rbx, 160(%rsp)         # 8-byte Spill
	movslq	136(%r13), %rax
	testq	%rax, %rax
	jle	.LBB2_837
# BB#665:                               # %for.body157.lr.ph.i
	xorq	%rbx, %rbx
	movq	$0, 48(%rsp)            # 8-byte Folded Spill
	.align	16, 0x90
.LBB2_666:                              # %for.body157.i
                                        # =>This Loop Header: Depth=1
                                        #     Child Loop BB2_671 Depth 2
                                        #     Child Loop BB2_685 Depth 2
                                        #     Child Loop BB2_698 Depth 2
                                        #     Child Loop BB2_728 Depth 2
                                        #     Child Loop BB2_755 Depth 2
                                        #     Child Loop BB2_771 Depth 2
                                        #       Child Loop BB2_773 Depth 3
                                        #       Child Loop BB2_777 Depth 3
                                        #     Child Loop BB2_784 Depth 2
                                        #       Child Loop BB2_785 Depth 3
                                        #         Child Loop BB2_787 Depth 4
                                        #           Child Loop BB2_794 Depth 5
	movq	128(%r13), %rax
	leaq	(%rbx,%rbx,2), %r14
	movq	(%rax,%r14,8), %rcx
	movq	%rcx, 216(%rsp)         # 8-byte Spill
	movzbl	3(%rcx), %ecx
	testq	$8, %rcx
	jne	.LBB2_669
# BB#667:                               # %lor.lhs.false164.i
                                        #   in Loop: Header=BB2_666 Depth=1
	movq	216(%rsp), %rax         # 8-byte Reload
	movq	8(%rax), %rsi
	movq	160(%rsp), %rdi         # 8-byte Reload
	callq	loop_invariant_p
	movabsq	$4294967295, %rcx       # imm = 0xFFFFFFFF
	andq	%rcx, %rax
	cmpq	$1, %rax
	je	.LBB2_670
# BB#668:                               # %lor.lhs.false164.if.then170_crit_edge.i
                                        #   in Loop: Header=BB2_666 Depth=1
	movq	128(%r13), %rax
.LBB2_669:                              # %if.then170.i
                                        #   in Loop: Header=BB2_666 Depth=1
	xorq	%rcx, %rcx
	movl	%ecx, 16(%rax,%r14,8)
.LBB2_670:                              # %if.end174.i
                                        #   in Loop: Header=BB2_666 Depth=1
	movq	%rbx, 96(%rsp)          # 8-byte Spill
	movq	120(%r13), %rbx
	movq	%r13, %r15
	xorq	%r12, %r12
	testq	%rbx, %rbx
	je	.LBB2_689
	.align	16, 0x90
.LBB2_671:                              # %while.body.i2367
                                        #   Parent Loop BB2_666 Depth=1
                                        # =>  This Inner Loop Header: Depth=2
	movq	8(%rbx), %rsi
	movq	216(%rsp), %rdi         # 8-byte Reload
	callq	rtx_equal_p
	movabsq	$4294967295, %rcx       # imm = 0xFFFFFFFF
	testq	%rcx, %rax
	movq	$1, %rax
	jne	.LBB2_674
# BB#672:                               # %if.else182.i
                                        #   in Loop: Header=BB2_671 Depth=2
	movq	8(%rbx), %rdi
	xorq	%rsi, %rsi
	movq	216(%rsp), %rdx         # 8-byte Reload
	movabsq	$rtx_varies_p, %rcx
	callq	true_dependence
	movabsq	$4294967295, %rcx       # imm = 0xFFFFFFFF
	testq	%rcx, %rax
	jne	.LBB2_861
# BB#673:                               #   in Loop: Header=BB2_671 Depth=2
	movq	%r12, %rax
.LBB2_674:                              # %if.end194.i
                                        #   in Loop: Header=BB2_671 Depth=2
	movq	16(%rbx), %rbx
	testq	%rbx, %rbx
	movq	%rax, %r12
	jne	.LBB2_671
	jmp	.LBB2_675
.LBB2_861:                              # %if.then188.i2369
                                        #   in Loop: Header=BB2_666 Depth=1
	movq	128(%r15), %rax
	xorq	%rcx, %rcx
	movl	%ecx, 16(%rax,%r14,8)
	movq	%r12, %rax
.LBB2_675:                              # %while.end.i
                                        #   in Loop: Header=BB2_666 Depth=1
	movl	flag_float_store(%rip), %ecx
	movabsq	$4294967295, %rdx       # imm = 0xFFFFFFFF
	testq	%rdx, %rax
	movabsq	$0, %r12
	je	.LBB2_677
# BB#676:                               # %while.end.i
                                        #   in Loop: Header=BB2_666 Depth=1
	movabsq	$1, %r12
.LBB2_677:                              # %while.end.i
                                        #   in Loop: Header=BB2_666 Depth=1
	testq	%rcx, %rcx
	je	.LBB2_681
# BB#678:                               # %while.end.i
                                        #   in Loop: Header=BB2_666 Depth=1
	movabsq	$4294967295, %rcx       # imm = 0xFFFFFFFF
	testq	%rcx, %rax
	je	.LBB2_681
# BB#679:                               # %land.lhs.true201.i
                                        #   in Loop: Header=BB2_666 Depth=1
	movq	216(%rsp), %rcx         # 8-byte Reload
	movzbl	2(%rcx), %ecx
	movl	mode_class(,%rcx,4), %ecx
	cmpq	$2, %rcx
	jne	.LBB2_681
# BB#680:                               # %if.then208.i
                                        #   in Loop: Header=BB2_666 Depth=1
	movq	128(%r15), %rcx
	xorq	%rdx, %rdx
	movl	%edx, 16(%rcx,%r14,8)
.LBB2_681:                              # %if.end213.i
                                        #   in Loop: Header=BB2_666 Depth=1
	movq	128(%r15), %rcx
	movl	16(%rcx,%r14,8), %ecx
	testq	%rcx, %rcx
	je	.LBB2_689
# BB#682:                               # %if.end213.i
                                        #   in Loop: Header=BB2_666 Depth=1
	movabsq	$4294967295, %rcx       # imm = 0xFFFFFFFF
	testq	%rcx, %rax
	je	.LBB2_689
# BB#683:                               # %for.cond222.preheader.i
                                        #   in Loop: Header=BB2_666 Depth=1
	movslq	136(%r15), %rax
	testq	%rax, %rax
	movq	$1, %r12
	jle	.LBB2_689
# BB#684:                               # %for.body225.i.preheader
                                        #   in Loop: Header=BB2_666 Depth=1
	movq	$1, %rbx
	xorq	%r13, %r13
	.align	16, 0x90
.LBB2_685:                              # %for.body225.i
                                        #   Parent Loop BB2_666 Depth=1
                                        # =>  This Inner Loop Header: Depth=2
	movq	96(%rsp), %rcx          # 8-byte Reload
	movabsq	$4294967295, %rdx       # imm = 0xFFFFFFFF
	movq	%rdx, %rsi
	andq	%rsi, %rcx
	leaq	-1(%rbx), %rdx
	andq	%rsi, %rdx
	cmpq	%rcx, %rdx
	je	.LBB2_688
# BB#686:                               # %if.else228.i
                                        #   in Loop: Header=BB2_685 Depth=2
	movq	128(%r15), %rax
	movq	(%rax,%r13), %rdx
	xorq	%rsi, %rsi
	movq	216(%rsp), %rdi         # 8-byte Reload
	movabsq	$rtx_varies_p, %rcx
	callq	true_dependence
	movabsq	$4294967295, %rcx       # imm = 0xFFFFFFFF
	testq	%rcx, %rax
	jne	.LBB2_862
# BB#687:                               # %if.else228.for.inc242_crit_edge.i
                                        #   in Loop: Header=BB2_685 Depth=2
	movl	136(%r15), %eax
.LBB2_688:                              # %for.inc242.i
                                        #   in Loop: Header=BB2_685 Depth=2
	movq	$32, %rcx
	movq	%rbx, %rdx
	shlq	%cl, %rdx
	movq	$32, %rcx
	sarq	%cl, %rdx
	movq	$32, %rcx
	movq	%rax, %rsi
	shlq	%cl, %rsi
	movq	$32, %rcx
	sarq	%cl, %rsi
	incq	%rbx
	addq	$24, %r13
	cmpq	%rsi, %rdx
	movq	$1, %r12
	jl	.LBB2_685
	jmp	.LBB2_689
.LBB2_862:                              # %if.then235.i
                                        #   in Loop: Header=BB2_666 Depth=1
	movq	128(%r15), %rax
	xorq	%rcx, %rcx
	movl	%ecx, 16(%rax,%r14,8)
	movq	$1, %r12
	.align	16, 0x90
.LBB2_689:                              # %if.end244.i
                                        #   in Loop: Header=BB2_666 Depth=1
	movq	104(%rsp), %rax         # 8-byte Reload
	movabsq	$4294967295, %rcx       # imm = 0xFFFFFFFF
	testq	%rcx, %rax
	movq	%r15, %r13
	je	.LBB2_692
# BB#690:                               # %land.lhs.true246.i
                                        #   in Loop: Header=BB2_666 Depth=1
	movq	216(%rsp), %rdi         # 8-byte Reload
	callq	may_trap_p
	movabsq	$4294967295, %rcx       # imm = 0xFFFFFFFF
	testq	%rcx, %rax
	je	.LBB2_692
# BB#691:                               # %if.then249.i
                                        #   in Loop: Header=BB2_666 Depth=1
	movq	128(%r13), %rax
	xorq	%rcx, %rcx
	movl	%ecx, 16(%rax,%r14,8)
.LBB2_692:                              # %if.end254.i
                                        #   in Loop: Header=BB2_666 Depth=1
	movq	128(%r13), %rax
	movl	16(%rax,%r14,8), %eax
	testq	%rax, %rax
	je	.LBB2_827
# BB#693:                               # %if.end261.i
                                        #   in Loop: Header=BB2_666 Depth=1
	leaq	272(%rsp), %rdi
	callq	bitmap_initialize
	leaq	248(%rsp), %rdi
	callq	bitmap_initialize
	movq	216(%rsp), %rax         # 8-byte Reload
	movzbl	2(%rax), %edi
	callq	gen_reg_rtx
	movq	%rax, 184(%rsp)         # 8-byte Spill
	movl	(%rax), %ecx
	orq	$134217728, %rcx        # imm = 0x8000000
	movl	%ecx, (%rax)
	movq	128(%r13), %rcx
	movq	%rax, 8(%rcx,%r14,8)
	movq	160(%rsp), %r13         # 8-byte Reload
	movq	216(%r13), %rcx
	movq	200(%r13), %rdx
	movq	24(%rcx), %rax
	cmpq	%rdx, %rax
	jne	.LBB2_695
# BB#694:                               # %if.then.i1000.i
                                        #   in Loop: Header=BB2_666 Depth=1
	movq	208(%r13), %rax
.LBB2_695:                              # %next_insn_in_loop.exit1005.i
                                        #   in Loop: Header=BB2_666 Depth=1
	xorq	%r15, %r15
	cmpq	%rcx, %rax
	movabsq	$0, %rdi
	je	.LBB2_697
# BB#696:                               # %next_insn_in_loop.exit1005.i
                                        #   in Loop: Header=BB2_666 Depth=1
	movq	%rax, %rdi
.LBB2_697:                              # %next_insn_in_loop.exit1005.i
                                        #   in Loop: Header=BB2_666 Depth=1
	testq	%rdi, %rdi
	movq	%rdi, 296(%rsp)
	je	.LBB2_724
	.align	16, 0x90
.LBB2_698:                              # %for.body278.i
                                        #   Parent Loop BB2_666 Depth=1
                                        # =>  This Inner Loop Header: Depth=2
	movl	(%rdi), %eax
	movq	%rax, %rcx
	andq	$65535, %rcx            # imm = 0xFFFF
	movzbl	rtx_class(%rcx), %ecx
	cmpq	$105, %rcx
	jne	.LBB2_716
# BB#699:                               # %cond.true293.i
                                        #   in Loop: Header=BB2_698 Depth=2
	movq	32(%rdi), %rbx
	movzbl	(%rbx), %eax
	cmpq	$47, %rax
	je	.LBB2_701
# BB#700:                               # %cond.false305.i
                                        #   in Loop: Header=BB2_698 Depth=2
	movq	%rbx, %rsi
	callq	single_set_2
	movq	%rax, %rbx
.LBB2_701:                              # %cond.end313.i
                                        #   in Loop: Header=BB2_698 Depth=2
	testq	%rbx, %rbx
	je	.LBB2_715
# BB#702:                               # %cond.end313.i
                                        #   in Loop: Header=BB2_698 Depth=2
	movabsq	$4294967295, %rax       # imm = 0xFFFFFFFF
	testq	%rax, %r15
	jne	.LBB2_715
# BB#703:                               # %land.lhs.true318.i
                                        #   in Loop: Header=BB2_698 Depth=2
	movq	8(%rbx), %rax
	movzbl	(%rax), %ecx
	cmpq	$61, %rcx
	jne	.LBB2_709
# BB#704:                               # %land.lhs.true326.i2381
                                        #   in Loop: Header=BB2_698 Depth=2
	movl	8(%rax), %eax
	cmpq	$53, %rax
	jb	.LBB2_709
# BB#705:                               # %land.lhs.true326.i2381
                                        #   in Loop: Header=BB2_698 Depth=2
	movq	72(%rsp), %rcx          # 8-byte Reload
	movabsq	$4294967295, %rdx       # imm = 0xFFFFFFFF
	andq	%rdx, %rcx
	cmpq	%rcx, %rax
	jae	.LBB2_709
# BB#706:                               # %land.lhs.true343.i
                                        #   in Loop: Header=BB2_698 Depth=2
	movq	120(%rsp), %rcx         # 8-byte Reload
	movq	192(%rcx), %rcx
	leaq	(%rax,%rax,2), %rax
	movl	4(%rcx,%rax,8), %eax
	cmpq	$1, %rax
	jne	.LBB2_709
# BB#707:                               # %land.lhs.true354.i
                                        #   in Loop: Header=BB2_698 Depth=2
	movq	16(%rbx), %rdi
	movq	216(%rsp), %rsi         # 8-byte Reload
	callq	rtx_equal_p
	movabsq	$4294967295, %rcx       # imm = 0xFFFFFFFF
	testq	%rcx, %rax
	je	.LBB2_709
# BB#708:                               # %if.then360.i
                                        #   in Loop: Header=BB2_698 Depth=2
	movq	8(%rbx), %rax
	movl	8(%rax), %esi
	leaq	272(%rsp), %rdi
	callq	bitmap_set_bit
	.align	16, 0x90
.LBB2_709:                              # %land.lhs.true371.i
                                        #   in Loop: Header=BB2_698 Depth=2
	movq	16(%rbx), %rax
	movzbl	(%rax), %ecx
	cmpq	$61, %rcx
	jne	.LBB2_715
# BB#710:                               # %land.lhs.true379.i
                                        #   in Loop: Header=BB2_698 Depth=2
	movl	8(%rax), %eax
	cmpq	$53, %rax
	jb	.LBB2_715
# BB#711:                               # %land.lhs.true379.i
                                        #   in Loop: Header=BB2_698 Depth=2
	movq	72(%rsp), %rcx          # 8-byte Reload
	movabsq	$4294967295, %rdx       # imm = 0xFFFFFFFF
	andq	%rdx, %rcx
	cmpq	%rcx, %rax
	jae	.LBB2_715
# BB#712:                               # %land.lhs.true397.i
                                        #   in Loop: Header=BB2_698 Depth=2
	movq	120(%rsp), %rcx         # 8-byte Reload
	movq	192(%rcx), %rcx
	leaq	(%rax,%rax,2), %rax
	movl	4(%rcx,%rax,8), %eax
	cmpq	$1, %rax
	jne	.LBB2_715
# BB#713:                               # %land.lhs.true410.i
                                        #   in Loop: Header=BB2_698 Depth=2
	movq	8(%rbx), %rdi
	movq	216(%rsp), %rsi         # 8-byte Reload
	callq	rtx_equal_p
	movabsq	$4294967295, %rcx       # imm = 0xFFFFFFFF
	testq	%rcx, %rax
	je	.LBB2_715
# BB#714:                               # %if.then416.i
                                        #   in Loop: Header=BB2_698 Depth=2
	movq	16(%rbx), %rax
	movl	8(%rax), %esi
	leaq	248(%rsp), %rdi
	callq	bitmap_set_bit
	.align	16, 0x90
.LBB2_715:                              # %if.end423.i
                                        #   in Loop: Header=BB2_698 Depth=2
	movq	120(%rsp), %rax         # 8-byte Reload
	movq	128(%rax), %rax
	movq	296(%rsp), %rcx
	movq	8(%rax,%r14,8), %rdx
	movq	(%rax,%r14,8), %rax
	movq	%rcx, 328(%rsp)
	movq	%rcx, 320(%rsp)
	movq	%rdx, 312(%rsp)
	movq	%rax, 304(%rsp)
	leaq	328(%rsp), %rdi
	movabsq	$replace_loop_mem, %rsi
	leaq	304(%rsp), %rdx
	callq	for_each_rtx
	movq	296(%rsp), %rdi
	movl	(%rdi), %eax
.LBB2_716:                              # %if.end432.i
                                        #   in Loop: Header=BB2_698 Depth=2
	andq	$65535, %rax            # imm = 0xFFFF
	cmpq	$33, %rax
	je	.LBB2_718
# BB#717:                               # %if.end432.i
                                        #   in Loop: Header=BB2_698 Depth=2
	cmpq	$36, %rax
	jne	.LBB2_719
.LBB2_718:                              # %if.then442.i
                                        #   in Loop: Header=BB2_698 Depth=2
	movq	$1, %r15
.LBB2_719:                              # %for.inc444.i
                                        #   in Loop: Header=BB2_698 Depth=2
	movq	24(%rdi), %rax
	movq	200(%r13), %rcx
	cmpq	%rcx, %rax
	jne	.LBB2_721
# BB#720:                               # %if.then.i1011.i
                                        #   in Loop: Header=BB2_698 Depth=2
	movq	208(%r13), %rax
.LBB2_721:                              # %next_insn_in_loop.exit1016.i
                                        #   in Loop: Header=BB2_698 Depth=2
	movq	216(%r13), %rcx
	xorq	%rdi, %rdi
	cmpq	%rcx, %rax
	je	.LBB2_723
# BB#722:                               # %select.mid649
                                        #   in Loop: Header=BB2_698 Depth=2
	movq	%rax, %rdi
.LBB2_723:                              # %select.end648
                                        #   in Loop: Header=BB2_698 Depth=2
	movq	%rdi, 296(%rsp)
	testq	%rdi, %rdi
	jne	.LBB2_698
.LBB2_724:                              # %for.end446.i
                                        #   in Loop: Header=BB2_666 Depth=1
	movq	%r15, 104(%rsp)         # 8-byte Spill
	movq	%r13, 160(%rsp)         # 8-byte Spill
	callq	apply_change_group
	movabsq	$4294967295, %rcx       # imm = 0xFFFFFFFF
	testq	%rcx, %rax
	jne	.LBB2_726
# BB#725:                               # %if.then449.i
                                        #   in Loop: Header=BB2_666 Depth=1
	movq	120(%rsp), %r13         # 8-byte Reload
	movq	128(%r13), %rax
	xorq	%rcx, %rcx
	movl	%ecx, 16(%rax,%r14,8)
	jmp	.LBB2_827
.LBB2_726:                              # %if.else454.i
                                        #   in Loop: Header=BB2_666 Depth=1
	xorq	%rsi, %rsi
	xorq	%rdx, %rdx
	movq	$0, 208(%rsp)           # 8-byte Folded Spill
	movq	216(%rsp), %rbx         # 8-byte Reload
	movq	%rbx, %rdi
	callq	cselib_lookup
	testq	%rax, %rax
	movq	%rbx, %r14
	je	.LBB2_750
# BB#727:                               # %if.then459.i
                                        #   in Loop: Header=BB2_666 Depth=1
	movq	16(%rax), %rax
	xorq	%r13, %r13
	testq	%rax, %rax
	movabsq	$0, %r15
	movq	216(%rsp), %r14         # 8-byte Reload
	movabsq	$0, %rcx
	movq	%rcx, 208(%rsp)         # 8-byte Spill
	je	.LBB2_750
	.align	16, 0x90
.LBB2_728:                              # %for.body462.i
                                        #   Parent Loop BB2_666 Depth=1
                                        # =>  This Inner Loop Header: Depth=2
	movq	8(%rax), %rdx
	movzbl	(%rdx), %esi
	cmpq	$133, %rsi
	jg	.LBB2_732
# BB#729:                               # %for.body462.i
                                        #   in Loop: Header=BB2_728 Depth=2
	leaq	-54(%rsi), %rcx
	movabsq	$4294967295, %rdi       # imm = 0xFFFFFFFF
	andq	%rdi, %rcx
	cmpq	$14, %rcx
	ja	.LBB2_736
# BB#730:                               # %for.body462.i
                                        #   in Loop: Header=BB2_728 Depth=2
	movq	$1, %rdi
	shlq	%cl, %rdi
	testq	$24599, %rdi            # imm = 0x6017
	je	.LBB2_736
# BB#731:                               #   in Loop: Header=BB2_728 Depth=2
	movq	%rax, %r15
	jmp	.LBB2_740
	.align	16, 0x90
.LBB2_732:                              # %for.body462.i
                                        #   in Loop: Header=BB2_728 Depth=2
	cmpq	$134, %rsi
	jne	.LBB2_734
# BB#733:                               #   in Loop: Header=BB2_728 Depth=2
	movq	%rax, %r15
	jmp	.LBB2_740
	.align	16, 0x90
.LBB2_734:                              # %for.body462.i
                                        #   in Loop: Header=BB2_728 Depth=2
	cmpq	$140, %rsi
	jne	.LBB2_736
# BB#735:                               #   in Loop: Header=BB2_728 Depth=2
	movq	%rax, %r15
	jmp	.LBB2_740
	.align	16, 0x90
.LBB2_736:                              # %if.else510.i
                                        #   in Loop: Header=BB2_728 Depth=2
	cmpq	$61, %rsi
	jne	.LBB2_740
# BB#737:                               # %land.lhs.true516.i
                                        #   in Loop: Header=BB2_728 Depth=2
	movl	8(%rdx), %ecx
	cmpq	$52, %rcx
	movq	%rax, %rcx
	ja	.LBB2_739
# BB#738:                               # %select.mid654
                                        #   in Loop: Header=BB2_728 Depth=2
	movq	%r13, %rcx
.LBB2_739:                              # %select.end653
                                        #   in Loop: Header=BB2_728 Depth=2
	movq	%rcx, %r13
.LBB2_740:                              # %for.inc526.i
                                        #   in Loop: Header=BB2_728 Depth=2
	movq	(%rax), %rax
	testq	%rax, %rax
	jne	.LBB2_728
# BB#741:                               # %for.end527.i
                                        #   in Loop: Header=BB2_666 Depth=1
	testq	%r13, %r13
	jne	.LBB2_743
# BB#742:                               #   in Loop: Header=BB2_666 Depth=1
	movq	%r15, 208(%rsp)         # 8-byte Spill
	movq	%r15, %r13
	jmp	.LBB2_748
.LBB2_743:                              # %if.else530.i
                                        #   in Loop: Header=BB2_666 Depth=1
	testq	%r15, %r15
	jne	.LBB2_745
# BB#744:                               #   in Loop: Header=BB2_666 Depth=1
	movq	$0, 208(%rsp)           # 8-byte Folded Spill
	movq	%r13, %r15
	jmp	.LBB2_749
.LBB2_745:                              # %land.lhs.true532.i
                                        #   in Loop: Header=BB2_666 Depth=1
	movq	8(%r15), %rdi
	movq	$47, %rsi
	callq	rtx_cost
	movq	%rax, %rbx
	movq	$32, %rcx
	shlq	%cl, %rbx
	movq	8(%r13), %rdi
	movq	$32, %rcx
	sarq	%cl, %rbx
	movq	$47, %rsi
	callq	rtx_cost
	movq	$32, %rcx
	shlq	%cl, %rax
	movq	$32, %rcx
	sarq	%cl, %rax
	cmpq	%rax, %rbx
	movq	%r15, %rax
	jg	.LBB2_747
# BB#746:                               # %land.lhs.true532.i
                                        #   in Loop: Header=BB2_666 Depth=1
	movabsq	$0, %rax
.LBB2_747:                              # %land.lhs.true532.i
                                        #   in Loop: Header=BB2_666 Depth=1
	movq	%rax, 208(%rsp)         # 8-byte Spill
	jle	.LBB2_749
.LBB2_748:                              # %if.end541.i
                                        #   in Loop: Header=BB2_666 Depth=1
	testq	%r13, %r13
	movq	%r13, %r15
	movq	216(%rsp), %r14         # 8-byte Reload
	je	.LBB2_750
.LBB2_749:                              # %if.then543.i
                                        #   in Loop: Header=BB2_666 Depth=1
	movq	8(%r15), %rdi
	callq	copy_rtx
	movq	%rax, %r14
.LBB2_750:                              # %if.end547.i
                                        #   in Loop: Header=BB2_666 Depth=1
	movq	184(%rsp), %rdi         # 8-byte Reload
	movq	%r14, %rsi
	callq	gen_move_insn
	movq	160(%rsp), %rcx         # 8-byte Reload
	movq	192(%rcx), %rsi
	testq	%rsi, %rsi
	movq	48(%rsp), %r13          # 8-byte Reload
	je	.LBB2_751
# BB#752:                               # %loop_insn_hoist.exit.i2393
                                        #   in Loop: Header=BB2_666 Depth=1
	movq	%rax, %rdi
	callq	emit_insn_before
	movzbl	(%r14), %ecx
	movq	%rax, %r15
	cmpq	$61, %rcx
	jne	.LBB2_758
# BB#753:                               # %for.cond555.preheader.i
                                        #   in Loop: Header=BB2_666 Depth=1
	movq	40(%rsp), %rcx          # 8-byte Reload
	movq	%rcx, 296(%rsp)
	movq	160(%rsp), %rax         # 8-byte Reload
	movq	192(%rax), %rax
	cmpq	%rax, %rcx
	je	.LBB2_758
# BB#754:                               # %for.body559.lr.ph.i
                                        #   in Loop: Header=BB2_666 Depth=1
	movl	8(%r14), %r8d
	movq	reg_n_info(%rip), %rdx
	movq	40(%rsp), %rsi          # 8-byte Reload
	.align	16, 0x90
.LBB2_755:                              # %for.body559.i
                                        #   Parent Loop BB2_666 Depth=1
                                        # =>  This Inner Loop Header: Depth=2
	movq	32(%rdx,%r8,8), %rdi
	movl	4(%rdi), %ebx
	movl	8(%rsi), %ecx
	cmpq	%rcx, %rbx
	je	.LBB2_756
# BB#757:                               # %for.inc584.i
                                        #   in Loop: Header=BB2_755 Depth=2
	movq	24(%rsi), %rsi
	cmpq	%rax, %rsi
	movq	%rsi, 296(%rsp)
	jne	.LBB2_755
	jmp	.LBB2_758
.LBB2_756:                              # %if.then571.i
                                        #   in Loop: Header=BB2_666 Depth=1
	movl	8(%r15), %eax
	movl	%eax, 4(%rdi)
.LBB2_758:                              # %if.end589.i
                                        #   in Loop: Header=BB2_666 Depth=1
	movq	208(%rsp), %rax         # 8-byte Reload
	testq	%rax, %rax
	je	.LBB2_760
# BB#759:                               # %if.then591.i
                                        #   in Loop: Header=BB2_666 Depth=1
	movq	8(%rax), %rdi
	callq	copy_rtx
	movq	$4, %rsi
	movq	%r15, %rdi
	movq	%rax, %rdx
	callq	set_unique_reg_note
.LBB2_760:                              # %if.end595.i
                                        #   in Loop: Header=BB2_666 Depth=1
	testq	%r12, %r12
	je	.LBB2_764
# BB#761:                               # %if.then597.i
                                        #   in Loop: Header=BB2_666 Depth=1
	testq	%r13, %r13
	jne	.LBB2_763
# BB#762:                               # %if.then600.i2396
                                        #   in Loop: Header=BB2_666 Depth=1
	callq	gen_label_rtx
	movq	160(%rsp), %rcx         # 8-byte Reload
	movq	200(%rcx), %rsi
	movq	%rax, %r13
	movq	%r13, %rdi
	callq	emit_label_after
.LBB2_763:                              # %if.end604.i
                                        #   in Loop: Header=BB2_666 Depth=1
	movq	216(%rsp), %rdi         # 8-byte Reload
	callq	copy_rtx
	movq	%rax, %rdi
	movq	184(%rsp), %rsi         # 8-byte Reload
	callq	gen_move_insn
	movq	%rax, %rdi
	movq	%r13, %rsi
	callq	emit_insn_after
.LBB2_764:                              # %if.end608.i
                                        #   in Loop: Header=BB2_666 Depth=1
	movq	loop_dump_stream(%rip), %rdi
	testq	%rdi, %rdi
	je	.LBB2_768
# BB#765:                               # %if.then610.i
                                        #   in Loop: Header=BB2_666 Depth=1
	testq	%r12, %r12
	movabsq	$.L.str86, %rcx
	jne	.LBB2_767
# BB#766:                               # %if.then610.i
                                        #   in Loop: Header=BB2_666 Depth=1
	movabsq	$.L.str87, %rcx
.LBB2_767:                              # %if.then610.i
                                        #   in Loop: Header=BB2_666 Depth=1
	movq	184(%rsp), %rax         # 8-byte Reload
	movl	8(%rax), %edx
	xorq	%rax, %rax
	movabsq	$.L.str85, %rsi
	callq	fprintf
	movq	loop_dump_stream(%rip), %rdi
	movq	216(%rsp), %rsi         # 8-byte Reload
	callq	print_rtl
	movq	loop_dump_stream(%rip), %rsi
	movq	$10, %rdi
	callq	fputc
.LBB2_768:                              # %do.body.i2397
                                        #   in Loop: Header=BB2_666 Depth=1
	movq	%r13, 48(%rsp)          # 8-byte Spill
	movq	272(%rsp), %r14
	testq	%r14, %r14
	je	.LBB2_781
# BB#769:                               # %for.cond641.preheader.lr.ph.i
                                        #   in Loop: Header=BB2_666 Depth=1
	movl	16(%r14), %eax
	testq	%rax, %rax
	movq	$53, %r15
	je	.LBB2_771
# BB#770:                               # %select.mid674
                                        #   in Loop: Header=BB2_666 Depth=1
	xorq	%r15, %r15
	.align	16, 0x90
.LBB2_771:                              # %for.cond641.preheader.i
                                        #   Parent Loop BB2_666 Depth=1
                                        # =>  This Loop Header: Depth=2
                                        #       Child Loop BB2_773 Depth 3
                                        #       Child Loop BB2_777 Depth 3
	movq	24(%r14), %r12
	testq	%r12, %r12
	je	.LBB2_776
# BB#772:                               # %for.body653.preheader.i
                                        #   in Loop: Header=BB2_771 Depth=2
	movq	%r15, %r13
	movabsq	$4294967295, %rax       # imm = 0xFFFFFFFF
	andq	%rax, %r13
	.align	16, 0x90
.LBB2_773:                              # %for.body653.i
                                        #   Parent Loop BB2_666 Depth=1
                                        #     Parent Loop BB2_771 Depth=2
                                        # =>    This Inner Loop Header: Depth=3
	movq	$1, %rbx
	movq	%r13, %rcx
	shlq	%cl, %rbx
	testq	%rbx, %r12
	je	.LBB2_775
# BB#774:                               # %if.then656.i
                                        #   in Loop: Header=BB2_773 Depth=3
	movl	16(%r14), %edx
	notq	%rbx
	movq	$7, %rcx
	shlq	%cl, %rdx
	addq	%r13, %rdx
	movq	160(%rsp), %rdi         # 8-byte Reload
	movq	184(%rsp), %rsi         # 8-byte Reload
	callq	try_copy_prop
	andq	%rbx, %r12
	je	.LBB2_776
.LBB2_775:                              # %for.inc666.i
                                        #   in Loop: Header=BB2_773 Depth=3
	incq	%r15
	movq	%r15, %rax
	movabsq	$4294967295, %rcx       # imm = 0xFFFFFFFF
	andq	%rcx, %rax
	incq	%r13
	cmpq	$64, %rax
	jb	.LBB2_773
.LBB2_776:                              # %if.end669.i
                                        #   in Loop: Header=BB2_771 Depth=2
	movq	32(%r14), %r15
	xorq	%r13, %r13
	testq	%r15, %r15
	movabsq	$0, %r12
	je	.LBB2_780
	.align	16, 0x90
.LBB2_777:                              # %for.body653.1.i
                                        #   Parent Loop BB2_666 Depth=1
                                        #     Parent Loop BB2_771 Depth=2
                                        # =>    This Inner Loop Header: Depth=3
	movq	$1, %rbx
	movq	%r13, %rcx
	shlq	%cl, %rbx
	testq	%rbx, %r15
	je	.LBB2_779
# BB#778:                               # %if.then656.1.i
                                        #   in Loop: Header=BB2_777 Depth=3
	movl	16(%r14), %eax
	notq	%rbx
	movq	$7, %rcx
	shlq	%cl, %rax
	leaq	64(%r13,%rax), %rdx
	movq	160(%rsp), %rdi         # 8-byte Reload
	movq	184(%rsp), %rsi         # 8-byte Reload
	callq	try_copy_prop
	andq	%rbx, %r15
	je	.LBB2_780
.LBB2_779:                              # %for.inc666.1.i
                                        #   in Loop: Header=BB2_777 Depth=3
	incq	%r12
	movq	%r12, %rax
	movabsq	$4294967295, %rcx       # imm = 0xFFFFFFFF
	andq	%rcx, %rax
	incq	%r13
	cmpq	$64, %rax
	jb	.LBB2_777
.LBB2_780:                              # %if.end669.1.i
                                        #   in Loop: Header=BB2_771 Depth=2
	movq	(%r14), %r14
	xorq	%r15, %r15
	testq	%r14, %r14
	jne	.LBB2_771
.LBB2_781:                              # %do.end.i
                                        #   in Loop: Header=BB2_666 Depth=1
	leaq	272(%rsp), %rdi
	callq	bitmap_clear
	movq	248(%rsp), %rax
	movq	%rax, 176(%rsp)         # 8-byte Spill
	testq	%rax, %rax
	movq	160(%rsp), %r15         # 8-byte Reload
	je	.LBB2_826
# BB#782:                               # %for.cond705.preheader.lr.ph.i
                                        #   in Loop: Header=BB2_666 Depth=1
	movq	176(%rsp), %rax         # 8-byte Reload
	movl	16(%rax), %eax
	testq	%rax, %rax
	movq	$53, %rsi
	je	.LBB2_784
# BB#783:                               # %select.mid679
                                        #   in Loop: Header=BB2_666 Depth=1
	xorq	%rsi, %rsi
	.align	16, 0x90
.LBB2_784:                              # %for.cond705.preheader.i
                                        #   Parent Loop BB2_666 Depth=1
                                        # =>  This Loop Header: Depth=2
                                        #       Child Loop BB2_785 Depth 3
                                        #         Child Loop BB2_787 Depth 4
                                        #           Child Loop BB2_794 Depth 5
	xorq	%rcx, %rcx
	.align	16, 0x90
.LBB2_785:                              # %for.body708.i
                                        #   Parent Loop BB2_666 Depth=1
                                        #     Parent Loop BB2_784 Depth=2
                                        # =>    This Loop Header: Depth=3
                                        #         Child Loop BB2_787 Depth 4
                                        #           Child Loop BB2_794 Depth 5
	movq	%rcx, 144(%rsp)         # 8-byte Spill
	movq	176(%rsp), %rax         # 8-byte Reload
	movq	24(%rax,%rcx,8), %rdx
	testq	%rdx, %rdx
	je	.LBB2_824
# BB#786:                               # %for.body719.preheader.i
                                        #   in Loop: Header=BB2_785 Depth=3
	movq	$6, %rcx
	movq	144(%rsp), %rax         # 8-byte Reload
	shlq	%cl, %rax
	movq	%rax, 152(%rsp)         # 8-byte Spill
	movq	%rsi, %r13
	movabsq	$4294967295, %rax       # imm = 0xFFFFFFFF
	andq	%rax, %r13
	.align	16, 0x90
.LBB2_787:                              # %for.body719.i
                                        #   Parent Loop BB2_666 Depth=1
                                        #     Parent Loop BB2_784 Depth=2
                                        #       Parent Loop BB2_785 Depth=3
                                        # =>      This Loop Header: Depth=4
                                        #           Child Loop BB2_794 Depth 5
	movq	$1, %rax
	movq	%r13, %rcx
	shlq	%cl, %rax
	testq	%rax, %rdx
	je	.LBB2_823
# BB#788:                               # %if.then726.i
                                        #   in Loop: Header=BB2_787 Depth=4
	movq	%rsi, 192(%rsp)         # 8-byte Spill
	movq	%rax, 200(%rsp)         # 8-byte Spill
	movq	%rdx, 208(%rsp)         # 8-byte Spill
	movq	216(%r15), %rsi
	movq	176(%rsp), %rax         # 8-byte Reload
	movl	16(%rax), %eax
	movq	200(%r15), %rdi
	movq	24(%rsi), %rdx
	movq	184(%rsp), %rcx         # 8-byte Reload
	movl	8(%rcx), %ecx
	movq	%rcx, 216(%rsp)         # 8-byte Spill
	movq	$7, %rcx
	shlq	%cl, %rax
	cmpq	%rdi, %rdx
	jne	.LBB2_790
# BB#789:                               # %if.then.i.i.i
                                        #   in Loop: Header=BB2_787 Depth=4
	movq	208(%r15), %rdx
.LBB2_790:                              # %next_insn_in_loop.exit.i.i
                                        #   in Loop: Header=BB2_787 Depth=4
	xorq	%r12, %r12
	cmpq	%rsi, %rdx
	je	.LBB2_792
# BB#791:                               # %next_insn_in_loop.exit.i.i
                                        #   in Loop: Header=BB2_787 Depth=4
	movq	%rdx, %r12
.LBB2_792:                              # %next_insn_in_loop.exit.i.i
                                        #   in Loop: Header=BB2_787 Depth=4
	testq	%r12, %r12
	je	.LBB2_822
# BB#793:                               #   in Loop: Header=BB2_787 Depth=4
	movq	152(%rsp), %rcx         # 8-byte Reload
	leaq	(%r13,%rcx), %rcx
	addq	%rax, %rcx
	movq	%rcx, 168(%rsp)         # 8-byte Spill
	.align	16, 0x90
.LBB2_794:                              # %for.body.i.i
                                        #   Parent Loop BB2_666 Depth=1
                                        #     Parent Loop BB2_784 Depth=2
                                        #       Parent Loop BB2_785 Depth=3
                                        #         Parent Loop BB2_787 Depth=4
                                        # =>        This Inner Loop Header: Depth=5
	movzbl	(%r12), %eax
	movzbl	rtx_class(%rax), %eax
	cmpq	$105, %rax
	jne	.LBB2_802
# BB#795:                               # %cond.true.i.i
                                        #   in Loop: Header=BB2_794 Depth=5
	movq	32(%r12), %r14
	movzbl	(%r14), %eax
	cmpq	$47, %rax
	je	.LBB2_797
# BB#796:                               # %cond.false.i.i
                                        #   in Loop: Header=BB2_794 Depth=5
	movq	%r12, %rdi
	movq	%r14, %rsi
	callq	single_set_2
	movq	%rax, %r14
.LBB2_797:                              # %cond.end26.i.i
                                        #   in Loop: Header=BB2_794 Depth=5
	testq	%r14, %r14
	je	.LBB2_802
# BB#798:                               # %land.lhs.true28.i.i
                                        #   in Loop: Header=BB2_794 Depth=5
	movq	8(%r14), %rax
	movzbl	(%rax), %ecx
	cmpq	$61, %rcx
	jne	.LBB2_802
# BB#799:                               # %land.lhs.true36.i.i
                                        #   in Loop: Header=BB2_794 Depth=5
	movl	8(%rax), %eax
	movq	216(%rsp), %rcx         # 8-byte Reload
	movabsq	$4294967295, %rdx       # imm = 0xFFFFFFFF
	andq	%rdx, %rcx
	cmpq	%rcx, %rax
	jne	.LBB2_802
# BB#800:                               # %land.lhs.true45.i.i
                                        #   in Loop: Header=BB2_794 Depth=5
	movq	16(%r14), %rax
	movzbl	(%rax), %ecx
	cmpq	$61, %rcx
	jne	.LBB2_802
# BB#801:                               # %land.lhs.true53.i.i
                                        #   in Loop: Header=BB2_794 Depth=5
	movl	8(%rax), %eax
	movq	168(%rsp), %rbx         # 8-byte Reload
	movabsq	$4294967295, %rcx       # imm = 0xFFFFFFFF
	andq	%rcx, %rbx
	cmpq	%rbx, %rax
	je	.LBB2_807
	.align	16, 0x90
.LBB2_802:                              # %for.inc.i.i
                                        #   in Loop: Header=BB2_794 Depth=5
	movq	24(%r12), %rax
	movq	200(%r15), %rcx
	cmpq	%rcx, %rax
	jne	.LBB2_804
# BB#803:                               # %if.then.i219.i.i
                                        #   in Loop: Header=BB2_794 Depth=5
	movq	208(%r15), %rax
.LBB2_804:                              # %next_insn_in_loop.exit224.i.i
                                        #   in Loop: Header=BB2_794 Depth=5
	movq	216(%r15), %rcx
	xorq	%r12, %r12
	cmpq	%rcx, %rax
	je	.LBB2_806
# BB#805:                               # %select.mid705
                                        #   in Loop: Header=BB2_794 Depth=5
	movq	%rax, %r12
.LBB2_806:                              # %select.end704
                                        #   in Loop: Header=BB2_794 Depth=5
	testq	%r12, %r12
	jne	.LBB2_794
	jmp	.LBB2_822
.LBB2_807:                              # %if.then65.i.i
                                        #   in Loop: Header=BB2_787 Depth=4
	movzbl	(%r12), %eax
	movzbl	rtx_class(%rax), %eax
	cmpq	$105, %rax
	jne	.LBB2_822
# BB#808:                               # %land.lhs.true76.i.i
                                        #   in Loop: Header=BB2_787 Depth=4
	movq	16(%r12), %rdi
	movzbl	(%rdi), %eax
	movzbl	rtx_class(%rax), %eax
	cmpq	$105, %rax
	jne	.LBB2_822
# BB#809:                               # %cond.true84.i.i
                                        #   in Loop: Header=BB2_787 Depth=4
	movq	32(%rdi), %rsi
	movzbl	(%rsi), %eax
	cmpq	$47, %rax
	jne	.LBB2_811
# BB#810:                               #   in Loop: Header=BB2_787 Depth=4
	movq	%rdi, 56(%rsp)          # 8-byte Spill
	jmp	.LBB2_812
.LBB2_811:                              # %cond.false96.i.i
                                        #   in Loop: Header=BB2_787 Depth=4
	movq	%rdi, 56(%rsp)          # 8-byte Spill
	movq	%rbx, 32(%rsp)          # 8-byte Spill
	callq	single_set_2
	movq	32(%rsp), %rbx          # 8-byte Reload
	movq	%rax, %rsi
.LBB2_812:                              # %cond.end104.i.i
                                        #   in Loop: Header=BB2_787 Depth=4
	testq	%rsi, %rsi
	movq	56(%rsp), %rdi          # 8-byte Reload
	je	.LBB2_822
# BB#813:                               # %land.lhs.true107.i.i
                                        #   in Loop: Header=BB2_787 Depth=4
	movq	8(%rsi), %rax
	movzbl	(%rax), %ecx
	cmpq	$61, %rcx
	jne	.LBB2_822
# BB#814:                               # %land.lhs.true115.i.i
                                        #   in Loop: Header=BB2_787 Depth=4
	movl	8(%rax), %eax
	cmpq	%rbx, %rax
	jne	.LBB2_822
# BB#815:                               # %if.then124.i.i
                                        #   in Loop: Header=BB2_787 Depth=4
	leaq	8(%r14), %rax
	movq	%rax, 24(%rsp)          # 8-byte Spill
	addq	$16, %r14
	addq	$8, %rsi
	movq	$1, %rcx
	movq	184(%rsp), %rdx         # 8-byte Reload
	movq	%rbx, 32(%rsp)          # 8-byte Spill
	movq	%rdx, %rbx
	callq	validate_change
	movq	(%r14), %rdx
	movq	$1, %rcx
	movq	%r12, %rdi
	movq	24(%rsp), %rsi          # 8-byte Reload
	callq	validate_change
	movq	$1, %rcx
	movq	%r12, %rdi
	movq	%r14, %rsi
	movq	%rbx, %rdx
	callq	validate_change
	callq	apply_change_group
	movq	56(%rsp), %rsi          # 8-byte Reload
	movq	32(%rsp), %rdx          # 8-byte Reload
	movabsq	$4294967295, %rcx       # imm = 0xFFFFFFFF
	testq	%rcx, %rax
	je	.LBB2_822
# BB#816:                               # %if.then142.i.i
                                        #   in Loop: Header=BB2_787 Depth=4
	movq	%rdx, %r14
	movq	loop_dump_stream(%rip), %rdi
	testq	%rdi, %rdi
	jne	.LBB2_818
# BB#817:                               # %if.then142.if.end151_crit_edge.i.i
                                        #   in Loop: Header=BB2_787 Depth=4
	addq	$8, %rsi
	jmp	.LBB2_819
.LBB2_818:                              # %if.then144.i.i
                                        #   in Loop: Header=BB2_787 Depth=4
	movl	8(%rsi), %r9d
	movl	8(%r12), %ecx
	addq	$8, %rsi
	movq	%rsi, 56(%rsp)          # 8-byte Spill
	xorq	%rax, %rax
	movabsq	$.L.str88, %rsi
	movq	168(%rsp), %rdx         # 8-byte Reload
	movq	216(%rsp), %r8          # 8-byte Reload
	callq	fprintf
	movq	56(%rsp), %rsi          # 8-byte Reload
.LBB2_819:                              # %if.end151.i.i
                                        #   in Loop: Header=BB2_787 Depth=4
	movq	%r15, %rdi
	movq	reg_n_info(%rip), %rax
	movq	32(%rax,%r14,8), %rax
	movl	(%rax), %ecx
	movl	(%rsi), %edx
	cmpq	%rdx, %rcx
	jne	.LBB2_821
# BB#820:                               # %if.then159.i.i
                                        #   in Loop: Header=BB2_787 Depth=4
	movl	8(%r12), %ecx
	movl	%ecx, (%rax)
.LBB2_821:                              # %if.end168.i.i
                                        #   in Loop: Header=BB2_787 Depth=4
	movq	%rdi, %r15
	movq	184(%rsp), %rsi         # 8-byte Reload
	movq	168(%rsp), %rdx         # 8-byte Reload
	callq	try_copy_prop
	.align	16, 0x90
.LBB2_822:                              # %try_swap_copy_prop.exit.i
                                        #   in Loop: Header=BB2_787 Depth=4
	movq	200(%rsp), %rax         # 8-byte Reload
	notq	%rax
	movq	208(%rsp), %rdx         # 8-byte Reload
	andq	%rax, %rdx
	movq	192(%rsp), %rsi         # 8-byte Reload
	je	.LBB2_824
.LBB2_823:                              # %for.inc739.i
                                        #   in Loop: Header=BB2_787 Depth=4
	incq	%rsi
	movq	%rsi, %rax
	movabsq	$4294967295, %rcx       # imm = 0xFFFFFFFF
	andq	%rcx, %rax
	incq	%r13
	cmpq	$64, %rax
	jb	.LBB2_787
.LBB2_824:                              # %if.end742.i
                                        #   in Loop: Header=BB2_785 Depth=3
	movq	144(%rsp), %rcx         # 8-byte Reload
	incq	%rcx
	xorq	%rsi, %rsi
	cmpq	$2, %rcx
	jne	.LBB2_785
# BB#825:                               # %for.end745.i
                                        #   in Loop: Header=BB2_784 Depth=2
	movq	176(%rsp), %rax         # 8-byte Reload
	movq	(%rax), %rax
	movq	%rax, 176(%rsp)         # 8-byte Spill
	xorq	%rsi, %rsi
	testq	%rax, %rax
	jne	.LBB2_784
.LBB2_826:                              # %do.end749.i
                                        #   in Loop: Header=BB2_666 Depth=1
	movq	%r15, 160(%rsp)         # 8-byte Spill
	leaq	248(%rsp), %rdi
	callq	bitmap_clear
	movq	120(%rsp), %r13         # 8-byte Reload
	.align	16, 0x90
.LBB2_827:                              # %for.inc751.i
                                        #   in Loop: Header=BB2_666 Depth=1
	movq	96(%rsp), %rbx          # 8-byte Reload
	incq	%rbx
	movslq	136(%r13), %rax
	movq	$32, %rcx
	movq	%rbx, %rdx
	shlq	%cl, %rdx
	movq	$32, %rcx
	sarq	%cl, %rdx
	cmpq	%rax, %rdx
	jl	.LBB2_666
# BB#828:                               # %for.end753.i
	movq	48(%rsp), %r12          # 8-byte Reload
	testq	%r12, %r12
	je	.LBB2_837
# BB#829:                               # %for.end753.i
	cmpq	$0, 64(%rsp)            # 8-byte Folded Reload
	je	.LBB2_837
# BB#830:                               # %if.then759.i
	movq	64(%rsp), %rax          # 8-byte Reload
	movq	%rax, 232(%rsp)
	movq	%r12, 240(%rsp)
	movq	160(%rsp), %rcx         # 8-byte Reload
	movq	192(%rcx), %rax
	movq	%rax, 296(%rsp)
	movq	200(%rcx), %rcx
	cmpq	%rcx, %rax
	je	.LBB2_837
# BB#831:                               # %for.body765.lr.ph.i
	movabsq	$replace_label, %r14
	leaq	296(%rsp), %r15
	leaq	232(%rsp), %rbx
.LBB2_832:                              # %for.body765.i
                                        # =>This Inner Loop Header: Depth=1
	movq	%r15, %rdi
	movq	%r14, %rsi
	movq	%rbx, %rdx
	callq	for_each_rtx
	movq	296(%rsp), %rax
	movzbl	(%rax), %ecx
	cmpq	$33, %rcx
	jne	.LBB2_833
# BB#834:                               # %land.lhs.true771.i
                                        #   in Loop: Header=BB2_832 Depth=1
	movq	64(%rax), %rcx
	movq	64(%rsp), %rdx          # 8-byte Reload
	cmpq	%rdx, %rcx
	movq	160(%rsp), %rcx         # 8-byte Reload
	jne	.LBB2_836
# BB#835:                               # %if.then777.i
                                        #   in Loop: Header=BB2_832 Depth=1
	movq	%r12, 64(%rax)
	movq	296(%rsp), %rax
	jmp	.LBB2_836
.LBB2_833:                              #   in Loop: Header=BB2_832 Depth=1
	movq	160(%rsp), %rcx         # 8-byte Reload
.LBB2_836:                              # %for.inc782.i
                                        #   in Loop: Header=BB2_832 Depth=1
	movq	24(%rax), %rax
	movq	%rax, 296(%rsp)
	movq	200(%rcx), %rcx
	cmpq	%rcx, %rax
	jne	.LBB2_832
.LBB2_837:                              # %if.end787.i
	callq	cselib_finish
	movq	160(%rsp), %rsi         # 8-byte Reload
.LBB2_838:                              # %load_mems.exit
	movq	%rsi, %r12
	callq	max_reg_num
	movq	$32, %rcx
	movq	128(%rsp), %r15         # 8-byte Reload
	movslq	184(%r15), %rdx
	shlq	%cl, %rax
	movq	$32, %rcx
	sarq	%cl, %rax
	cmpq	%rdx, %rax
	jle	.LBB2_840
# BB#839:                               # %if.then1606
	xorq	%rsi, %rsi
	movq	%r12, %rdi
	callq	loop_regs_scan
.LBB2_840:                              # %for.cond1608
	movq	88(%rsp), %rcx          # 8-byte Reload
	.align	16, 0x90
.LBB2_841:                              # %for.cond1608
                                        # =>This Inner Loop Header: Depth=1
	movq	%rcx, %rbx
	movq	16(%rbx), %rcx
	testq	%rcx, %rcx
	je	.LBB2_843
# BB#842:                               # %land.rhs1613
                                        #   in Loop: Header=BB2_841 Depth=1
	movzbl	(%rcx), %eax
	cmpq	$36, %rax
	jne	.LBB2_841
.LBB2_843:                              # %for.end1627
	movq	112(%rsp), %rax         # 8-byte Reload
	movq	24(%rax), %r14
	movl	loop_max_reg(%rip), %edx
	movq	%rbx, %rdi
	movq	%r14, %rsi
	callq	reg_scan_update
	callq	max_reg_num
	movl	flag_strength_reduce(%rip), %ecx
	movl	%eax, loop_max_reg(%rip)
	testq	%rcx, %rcx
	je	.LBB2_851
# BB#844:                               # %if.then1633
	testq	%r14, %r14
	je	.LBB2_850
# BB#845:                               # %land.lhs.true1635
	movzbl	(%r14), %eax
	cmpq	$36, %rax
	movq	%r12, %rdi
	movq	80(%rsp), %rsi          # 8-byte Reload
	jne	.LBB2_847
# BB#846:                               # %if.then1640
	movl	32(%r14), %eax
	incq	%rax
	movl	%eax, 32(%r14)
.LBB2_847:                              # %land.lhs.true1648
	callq	strength_reduce
	movl	loop_max_reg(%rip), %edx
	movq	%rbx, %rdi
	movq	%r14, %rsi
	callq	reg_scan_update
	callq	max_reg_num
	movl	%eax, loop_max_reg(%rip)
	movzbl	(%r14), %eax
	cmpq	$36, %rax
	jne	.LBB2_851
# BB#848:                               # %land.lhs.true1653
	movl	32(%r14), %eax
	decq	%rax
	movabsq	$4294967295, %rcx       # imm = 0xFFFFFFFF
	testq	%rcx, %rax
	movl	%eax, 32(%r14)
	jne	.LBB2_851
# BB#849:                               # %if.then1660
	movq	%r14, %rdi
	callq	delete_related_insns
	jmp	.LBB2_851
	.align	16, 0x90
.LBB2_751:                              # %tailrecurse.us.i.i2391
                                        # =>This Inner Loop Header: Depth=1
	jmp	.LBB2_751
.LBB2_850:                              # %if.end1663.critedge
	movq	%r12, %rdi
	movq	80(%rsp), %rsi          # 8-byte Reload
	callq	strength_reduce
	movl	loop_max_reg(%rip), %edx
	xorq	%rsi, %rsi
	movq	%rbx, %rdi
	callq	reg_scan_update
	callq	max_reg_num
	movl	%eax, loop_max_reg(%rip)
.LBB2_851:                              # %if.end1663
	movq	136(%rsp), %rax         # 8-byte Reload
	movq	(%rax), %rdi
	testq	%rdi, %rdi
	je	.LBB2_853
	.align	16, 0x90
.LBB2_852:                              # %for.body.i2405
                                        # =>This Inner Loop Header: Depth=1
	movq	72(%rdi), %rbx
	callq	free
	testq	%rbx, %rbx
	movq	%rbx, %rdi
	jne	.LBB2_852
.LBB2_853:                              # %loop_movables_free.exit
	movq	192(%r15), %rdi
	callq	free
	movq	$0, 192(%r15)
	xorq	%rax, %rax
	movl	%eax, 184(%r15)
.LBB2_854:                              # %return
	addq	$336, %rsp              # imm = 0x150
	popq	%rbx
	popq	%r12
	popq	%r13
	popq	%r14
	popq	%r15
	retq
.LBB2_78:                               # %cond.false93
	movabsq	$.L.str, %rax
	movabsq	$.L__FUNCTION__.scan_loop, %rcx
	movq	$707, %rsi              # imm = 0x2C3
	jmp	.LBB2_79
.LBB2_856:                              # %cond.false.i2189
	movabsq	$.L.str, %rax
	movabsq	$.L__FUNCTION__.labels_in_range_p, %rcx
	movq	$3120, %rsi             # imm = 0xC30
	jmp	.LBB2_79
.LBB2_855:                              # %cond.false761
	movabsq	$.L.str, %rax
	movabsq	$.L__FUNCTION__.scan_loop, %rcx
	movq	$931, %rsi              # imm = 0x3A3
	jmp	.LBB2_79
.LBB2_863:                              # %cond.false1246
	movabsq	$.L.str, %rax
	movabsq	$.L__FUNCTION__.scan_loop, %rcx
	movq	$1027, %rsi             # imm = 0x403
	jmp	.LBB2_79
.LBB2_501:                              # %if.then506.i
	movabsq	$.L.str, %rax
	movabsq	$.L__FUNCTION__.move_movables, %rcx
	movq	$2081, %rsi             # imm = 0x821
	jmp	.LBB2_79
.LBB2_857:                              # %cond.false784.i
	movabsq	$.L.str, %rax
	movabsq	$.L__FUNCTION__.move_movables, %rcx
	movq	$2191, %rsi             # imm = 0x88F
	jmp	.LBB2_79
.LBB2_858:                              # %cond.false816.i
	movabsq	$.L.str, %rax
	movabsq	$.L__FUNCTION__.move_movables, %rcx
	movq	$2196, %rsi             # imm = 0x894
	jmp	.LBB2_79
.LBB2_859:                              # %cond.false76.i
	movabsq	$.L.str, %rax
	movabsq	$.L__FUNCTION__.load_mems, %rcx
	movq	$9637, %rsi             # imm = 0x25A5
	jmp	.LBB2_79
.LBB2_860:                              # %cond.false112.i
	movabsq	$.L.str, %rax
	movabsq	$.L__FUNCTION__.load_mems, %rcx
	movq	$9638, %rsi             # imm = 0x25A6
.LBB2_79:                               # %cond.false93
	movq	%rax, %rdi
	movq	%rcx, %rdx
	callq	fancy_abort
.Ltmp38:
	.size	scan_loop, .Ltmp38-scan_loop
	.cfi_endproc
	.section	.rodata,"a",@progbits
	.align	8
.LJTI2_0:
	.quad	.LBB2_41
	.quad	.LBB2_29
	.quad	.LBB2_24
	.quad	.LBB2_52
	.quad	.LBB2_52
	.quad	.LBB2_22
.LJTI2_1:
	.quad	.LBB2_134
	.quad	.LBB2_166
	.quad	.LBB2_134
	.quad	.LBB2_167
	.quad	.LBB2_167

	.text
	.globl	record_excess_regs
	.align	16, 0x90
	.type	record_excess_regs,@function
record_excess_regs:                     # @record_excess_regs
	.cfi_startproc
# BB#0:                                 # %entry
	pushq	%r15
.Ltmp45:
	.cfi_def_cfa_offset 16
	pushq	%r14
.Ltmp46:
	.cfi_def_cfa_offset 24
	pushq	%r13
.Ltmp47:
	.cfi_def_cfa_offset 32
	pushq	%r12
.Ltmp48:
	.cfi_def_cfa_offset 40
	pushq	%rbx
.Ltmp49:
	.cfi_def_cfa_offset 48
	subq	$16, %rsp
.Ltmp50:
	.cfi_def_cfa_offset 64
.Ltmp51:
	.cfi_offset %rbx, -48
.Ltmp52:
	.cfi_offset %r12, -40
.Ltmp53:
	.cfi_offset %r13, -32
.Ltmp54:
	.cfi_offset %r14, -24
.Ltmp55:
	.cfi_offset %r15, -16
	movq	%rdi, %r15
	movzbl	(%r15), %eax
	movq	%rdx, %rbx
	movq	%rsi, %r12
	leaq	-54(%rax), %rcx
	movabsq	$4294967295, %rdx       # imm = 0xFFFFFFFF
	andq	%rdx, %rcx
	cmpq	$15, %rcx
	ja	.LBB3_6
# BB#1:                                 # %entry
	movq	$1, %rdx
	shlq	%cl, %rdx
	testq	$57395, %rdx            # imm = 0xE033
	jne	.LBB3_14
# BB#2:                                 # %entry
	cmpq	$7, %rcx
	jne	.LBB3_6
# BB#3:                                 # %sw.bb1
	movl	8(%r15), %eax
	cmpq	$53, %rax
	jb	.LBB3_14
# BB#4:                                 # %land.lhs.true
	movq	%r15, %rdi
	movq	%r12, %rsi
	callq	reg_mentioned_p
	movabsq	$4294967295, %rcx       # imm = 0xFFFFFFFF
	testq	%rcx, %rax
	jne	.LBB3_14
# BB#5:                                 # %if.then
	movq	(%rbx), %rcx
	movq	$3, %rdi
	xorq	%rsi, %rsi
	movq	%r15, %rdx
	callq	gen_rtx_fmt_ee
	movq	%rax, (%rbx)
	jmp	.LBB3_14
.LBB3_6:                                # %sw.epilog
	movzbl	rtx_length(%rax), %edx
	testq	%rdx, %rdx
	je	.LBB3_14
# BB#7:                                 # %for.body.lr.ph
	movq	rtx_format(,%rax,8), %rax
	movq	%rax, (%rsp)            # 8-byte Spill
	.align	16, 0x90
.LBB3_8:                                # %for.body
                                        # =>This Loop Header: Depth=1
                                        #     Child Loop BB3_11 Depth 2
	movq	%rdx, %r13
	movq	(%rsp), %rax            # 8-byte Reload
	movsbq	-1(%rax,%r13), %rax
	leaq	-1(%r13), %rcx
	movq	%rcx, 8(%rsp)           # 8-byte Spill
	movabsq	$4294967295, %rcx       # imm = 0xFFFFFFFF
	andq	%rcx, %rax
	cmpq	$101, %rax
	jne	.LBB3_9
# BB#12:                                # %sw.bb25
                                        #   in Loop: Header=BB3_8 Depth=1
	movq	(%r15,%r13,8), %rdi
	movq	%r12, %rsi
	movq	%rbx, %rdx
	callq	record_excess_regs
	jmp	.LBB3_13
	.align	16, 0x90
.LBB3_9:                                # %for.body
                                        #   in Loop: Header=BB3_8 Depth=1
	cmpq	$69, %rax
	jne	.LBB3_13
# BB#10:                                # %for.cond12.preheader
                                        #   in Loop: Header=BB3_8 Depth=1
	movq	(%r15,%r13,8), %rax
	movslq	(%rax), %rcx
	testq	%rcx, %rcx
	movq	$1, %r14
	jle	.LBB3_13
	.align	16, 0x90
.LBB3_11:                               # %for.body18
                                        #   Parent Loop BB3_8 Depth=1
                                        # =>  This Inner Loop Header: Depth=2
	movq	(%rax,%r14,8), %rdi
	movq	%r12, %rsi
	movq	%rbx, %rdx
	callq	record_excess_regs
	movq	(%r15,%r13,8), %rax
	movslq	(%rax), %rdx
	movq	$32, %rcx
	movq	%r14, %rsi
	shlq	%cl, %rsi
	movq	$32, %rcx
	sarq	%cl, %rsi
	incq	%r14
	cmpq	%rdx, %rsi
	jl	.LBB3_11
	.align	16, 0x90
.LBB3_13:                               # %for.cond.backedge
                                        #   in Loop: Header=BB3_8 Depth=1
	movq	$32, %rcx
	movq	8(%rsp), %rdx           # 8-byte Reload
	movq	%rdx, %rax
	shlq	%cl, %rax
	movq	$32, %rcx
	sarq	%cl, %rax
	testq	%rax, %rax
	jg	.LBB3_8
.LBB3_14:                               # %for.end31
	addq	$16, %rsp
	popq	%rbx
	popq	%r12
	popq	%r13
	popq	%r14
	popq	%r15
	retq
.Ltmp56:
	.size	record_excess_regs, .Ltmp56-record_excess_regs
	.cfi_endproc

	.globl	libcall_other_reg
	.align	16, 0x90
	.type	libcall_other_reg,@function
libcall_other_reg:                      # @libcall_other_reg
	.cfi_startproc
# BB#0:                                 # %entry
	pushq	%r15
.Ltmp63:
	.cfi_def_cfa_offset 16
	pushq	%r14
.Ltmp64:
	.cfi_def_cfa_offset 24
	pushq	%r13
.Ltmp65:
	.cfi_def_cfa_offset 32
	pushq	%r12
.Ltmp66:
	.cfi_def_cfa_offset 40
	pushq	%rbx
.Ltmp67:
	.cfi_def_cfa_offset 48
	subq	$16, %rsp
.Ltmp68:
	.cfi_def_cfa_offset 64
.Ltmp69:
	.cfi_offset %rbx, -48
.Ltmp70:
	.cfi_offset %r12, -40
.Ltmp71:
	.cfi_offset %r13, -32
.Ltmp72:
	.cfi_offset %r14, -24
.Ltmp73:
	.cfi_offset %r15, -16
	movq	%rsi, %r14
	movq	%rdi, %r12
	movq	$6, %rsi
	xorq	%rdx, %rdx
	xorq	%r15, %r15
                                        # kill: RDI<def> R12<kill>
	callq	find_reg_note
	movq	8(%rax), %rbx
	cmpq	%r12, %rbx
	movq	$0, 8(%rsp)
	je	.LBB4_6
# BB#1:
	movabsq	$4294967295, %r13       # imm = 0xFFFFFFFF
	leaq	8(%rsp), %r15
	.align	16, 0x90
.LBB4_2:                                # %while.body
                                        # =>This Inner Loop Header: Depth=1
	movzbl	(%rbx), %eax
	addq	$-32, %rax
	andq	%r13, %rax
	cmpq	$2, %rax
	ja	.LBB4_4
# BB#3:                                 # %if.then
                                        #   in Loop: Header=BB4_2 Depth=1
	movq	32(%rbx), %rdi
	movq	%r14, %rsi
	movq	%r15, %rdx
	callq	record_excess_regs
.LBB4_4:                                # %if.end
                                        #   in Loop: Header=BB4_2 Depth=1
	movq	24(%rbx), %rbx
	cmpq	%r12, %rbx
	jne	.LBB4_2
# BB#5:                                 # %while.cond.while.end_crit_edge
	movq	8(%rsp), %r15
.LBB4_6:                                # %while.end
	movq	%r15, %rax
	addq	$16, %rsp
	popq	%rbx
	popq	%r12
	popq	%r13
	popq	%r14
	popq	%r15
	retq
.Ltmp74:
	.size	libcall_other_reg, .Ltmp74-libcall_other_reg
	.cfi_endproc

	.globl	loop_invariant_p
	.align	16, 0x90
	.type	loop_invariant_p,@function
loop_invariant_p:                       # @loop_invariant_p
	.cfi_startproc
# BB#0:                                 # %entry
	pushq	%r15
.Ltmp81:
	.cfi_def_cfa_offset 16
	pushq	%r14
.Ltmp82:
	.cfi_def_cfa_offset 24
	pushq	%r13
.Ltmp83:
	.cfi_def_cfa_offset 32
	pushq	%r12
.Ltmp84:
	.cfi_def_cfa_offset 40
	pushq	%rbx
.Ltmp85:
	.cfi_def_cfa_offset 48
	subq	$32, %rsp
.Ltmp86:
	.cfi_def_cfa_offset 80
.Ltmp87:
	.cfi_offset %rbx, -48
.Ltmp88:
	.cfi_offset %r12, -40
.Ltmp89:
	.cfi_offset %r13, -32
.Ltmp90:
	.cfi_offset %r14, -24
.Ltmp91:
	.cfi_offset %r15, -16
	movq	%rsi, %r15
	movq	%rdi, 24(%rsp)          # 8-byte Spill
	testq	%r15, %r15
	movq	$1, %rbx
	je	.LBB5_5
# BB#1:                                 # %if.end
	movl	(%r15), %ecx
	movq	%rcx, %r14
	andq	$65535, %r14            # imm = 0xFFFF
	cmpq	$53, %r14
	jg	.LBB5_6
# BB#2:                                 # %if.end
	cmpq	$41, %r14
	jne	.LBB5_3
# BB#28:                                # %sw.bb64
	xorq	%rbx, %rbx
	testq	$134217728, %rcx        # imm = 0x8000000
	jne	.LBB5_5
	jmp	.LBB5_29
.LBB5_6:                                # %if.end
	leaq	-54(%r14), %rdx
	movabsq	$4294967295, %r13       # imm = 0xFFFFFFFF
	andq	%r13, %rdx
	cmpq	$15, %rdx
	ja	.LBB5_29
# BB#7:                                 # %if.end
	movq	24(%rsp), %rax          # 8-byte Reload
	movq	160(%rax), %rax
	jmpq	*.LJTI5_0(,%rdx,8)
.LBB5_11:                               # %sw.bb6
	movq	global_rtl+24(%rip), %rcx
	cmpq	%r15, %rcx
	je	.LBB5_15
# BB#12:                                # %sw.bb6
	movq	global_rtl+32(%rip), %rcx
	cmpq	%r15, %rcx
	je	.LBB5_15
# BB#13:                                # %sw.bb6
	movq	global_rtl+40(%rip), %rcx
	cmpq	%r15, %rcx
	je	.LBB5_15
# BB#14:                                # %sw.bb6
	movq	pic_offset_table_rtx(%rip), %rcx
	cmpq	%r15, %rcx
	jne	.LBB5_16
.LBB5_15:                               # %land.lhs.true
	movq	cfun(%rip), %rcx
	movzbl	425(%rcx), %ecx
	testq	$2, %rcx
	je	.LBB5_5
.LBB5_16:                               # %if.end17
	movl	(%rax), %edx
	movl	8(%r15), %ecx
	testq	%rdx, %rdx
	je	.LBB5_19
# BB#17:                                # %if.end17
	cmpq	$52, %rcx
	ja	.LBB5_19
# BB#18:                                # %land.lhs.true22
	movzbl	call_used_regs(%rcx), %edx
	xorq	%rbx, %rbx
	testq	%rdx, %rdx
	jne	.LBB5_5
.LBB5_19:                               # %if.end29
	movq	192(%rax), %rax
	leaq	(%rcx,%rcx,2), %rcx
	movslq	(%rax,%rcx,8), %rax
	testq	%rax, %rax
	movq	$2, %rbx
	js	.LBB5_5
# BB#20:                                # %if.end38
	testq	%r13, %rax
	jne	.LBB5_21
# BB#22:                                # %if.end38
	movabsq	$1, %rbx
	jmp	.LBB5_5
.LBB5_3:                                # %if.end
	cmpq	$43, %r14
	jne	.LBB5_29
.LBB5_4:                                # %sw.bb5
	xorq	%rbx, %rbx
	jmp	.LBB5_5
.LBB5_23:                               # %sw.bb48
	xorq	%rbx, %rbx
	testq	$134217728, %rcx        # imm = 0x8000000
	jne	.LBB5_5
# BB#24:                                # %if.end54
	movq	120(%rax), %r12
	testq	%r12, %r12
	je	.LBB5_29
# BB#25:
	xorq	%rbx, %rbx
.LBB5_26:                               # %while.body
                                        # =>This Inner Loop Header: Depth=1
	movq	8(%r12), %rdi
	xorq	%rsi, %rsi
	movq	%r15, %rdx
	movabsq	$rtx_varies_p, %rcx
	callq	true_dependence
	testq	%r13, %rax
