	.file	"toplev.c.bc"
	.text
	.globl	set_Wunused
	.align	16, 0x90
	.type	set_Wunused,@function
set_Wunused:                            # @set_Wunused
	.cfi_startproc
# BB#0:                                 # %entry
	movabsq	$4294967295, %rax       # imm = 0xFFFFFFFF
	testq	%rax, %rdi
	movl	%edi, warn_unused_function(%rip)
	movl	%edi, warn_unused_label(%rip)
	je	.LBB0_1
# BB#2:                                 # %if.else
	movl	warn_unused_parameter(%rip), %ecx
	testq	%rcx, %rcx
	jne	.LBB0_4
	jmp	.LBB0_3
.LBB0_1:                                # %if.then
	xorq	%rax, %rax
.LBB0_3:                                # %if.then2
	movl	%eax, warn_unused_parameter(%rip)
.LBB0_4:                                # %if.end3
	movl	%edi, warn_unused_variable(%rip)
	movl	%edi, warn_unused_value(%rip)
	retq
.Ltmp0:
	.size	set_Wunused, .Ltmp0-set_Wunused
	.cfi_endproc

	.globl	set_fast_math_flags
	.align	16, 0x90
	.type	set_fast_math_flags,@function
set_fast_math_flags:                    # @set_fast_math_flags
	.cfi_startproc
# BB#0:                                 # %entry
	xorq	%rax, %rax
	movl	%eax, flag_trapping_math(%rip)
	movq	$1, %rcx
	movl	%ecx, flag_unsafe_math_optimizations(%rip)
	movl	%eax, flag_errno_math(%rip)
	retq
.Ltmp1:
	.size	set_fast_math_flags, .Ltmp1-set_fast_math_flags
	.cfi_endproc

	.globl	set_no_fast_math_flags
	.align	16, 0x90
	.type	set_no_fast_math_flags,@function
set_no_fast_math_flags:                 # @set_no_fast_math_flags
	.cfi_startproc
# BB#0:                                 # %entry
	movq	$1, %rax
	movl	%eax, flag_trapping_math(%rip)
	xorq	%rcx, %rcx
	movl	%ecx, flag_unsafe_math_optimizations(%rip)
	movl	%eax, flag_errno_math(%rip)
	retq
.Ltmp2:
	.size	set_no_fast_math_flags, .Ltmp2-set_no_fast_math_flags
	.cfi_endproc

	.globl	read_integral_parameter
	.align	16, 0x90
	.type	read_integral_parameter,@function
read_integral_parameter:                # @read_integral_parameter
	.cfi_startproc
# BB#0:                                 # %entry
	pushq	%rbx
.Ltmp5:
	.cfi_def_cfa_offset 16
.Ltmp6:
	.cfi_offset %rbx, -16
	movzbl	(%rdi), %eax
	movq	%rdx, %rbx
	testq	%rax, %rax
	je	.LBB3_7
# BB#1:                                 # %while.body.preheader
	leaq	1(%rdi), %rcx
	.align	16, 0x90
.LBB3_3:                                # %while.body
                                        # =>This Inner Loop Header: Depth=1
	andq	$255, %rax
	movzbl	_sch_istable(%rax,%rax), %eax
	testq	$4, %rax
	je	.LBB3_4
# BB#2:                                 # %while.cond
                                        #   in Loop: Header=BB3_3 Depth=1
	movzbl	(%rcx), %eax
	incq	%rcx
	testq	%rax, %rax
	jne	.LBB3_3
.LBB3_7:                                # %if.end11
	popq	%rbx
	jmp	atoi  # TAILCALL
.LBB3_4:                                # %if.then6
	testq	%rsi, %rsi
	je	.LBB3_6
# BB#5:                                 # %if.then9
	movabsq	$.L.str, %rdi
	xorq	%rax, %rax
	callq	error
.LBB3_6:                                # %return
	movq	%rbx, %rax
	popq	%rbx
	retq
.Ltmp7:
	.size	read_integral_parameter, .Ltmp7-read_integral_parameter
	.cfi_endproc

	.globl	do_abort
	.align	16, 0x90
	.type	do_abort,@function
do_abort:                               # @do_abort
	.cfi_startproc
# BB#0:                                 # %entry
	pushq	%rax
.Ltmp9:
	.cfi_def_cfa_offset 16
	movabsq	$.L.str1, %rdi
	movabsq	$.L__FUNCTION__.do_abort, %rdx
	movq	$1592, %rsi             # imm = 0x638
	callq	fancy_abort
.Ltmp10:
	.size	do_abort, .Ltmp10-do_abort
	.cfi_endproc

	.globl	botch
	.align	16, 0x90
	.type	botch,@function
botch:                                  # @botch
	.cfi_startproc
# BB#0:                                 # %entry
	pushq	%rax
.Ltmp12:
	.cfi_def_cfa_offset 16
	movabsq	$.L.str1, %rdi
	movabsq	$.L__FUNCTION__.botch, %rdx
	movq	$1602, %rsi             # imm = 0x642
	callq	fancy_abort
.Ltmp13:
	.size	botch, .Ltmp13-botch
	.cfi_endproc

	.globl	exact_log2_wide
	.align	16, 0x90
	.type	exact_log2_wide,@function
exact_log2_wide:                        # @exact_log2_wide
	.cfi_startproc
# BB#0:                                 # %entry
	testq	%rdi, %rdi
	movabsq	$4294967295, %rax       # imm = 0xFFFFFFFF
	je	.LBB6_4
# BB#1:                                 # %lor.lhs.false
	movq	%rdi, %rcx
	negq	%rcx
	andq	%rdi, %rcx
	cmpq	%rdi, %rcx
	jne	.LBB6_4
# BB#2:
	xorq	%rcx, %rcx
	.align	16, 0x90
.LBB6_3:                                # %while.cond
                                        # =>This Inner Loop Header: Depth=1
	movq	%rcx, %rax
	movq	$1, %rcx
	shrq	%cl, %rdi
	leaq	1(%rax), %rcx
	testq	%rdi, %rdi
	jne	.LBB6_3
.LBB6_4:                                # %return
	retq
.Ltmp14:
	.size	exact_log2_wide, .Ltmp14-exact_log2_wide
	.cfi_endproc

	.globl	floor_log2_wide
	.align	16, 0x90
	.type	floor_log2_wide,@function
floor_log2_wide:                        # @floor_log2_wide
	.cfi_startproc
# BB#0:                                 # %entry
	testq	%rdi, %rdi
	movabsq	$4294967295, %rax       # imm = 0xFFFFFFFF
	je	.LBB7_3
# BB#1:
	movq	$1, %rcx
	.align	16, 0x90
.LBB7_2:                                # %while.body
                                        # =>This Inner Loop Header: Depth=1
	incq	%rax
	shrq	%cl, %rdi
	testq	%rdi, %rdi
	jne	.LBB7_2
.LBB7_3:                                # %while.end
	retq
.Ltmp15:
	.size	floor_log2_wide, .Ltmp15-floor_log2_wide
	.cfi_endproc

	.globl	do_float_handler
	.align	16, 0x90
	.type	do_float_handler,@function
do_float_handler:                       # @do_float_handler
	.cfi_startproc
# BB#0:                                 # %entry
	pushq	%r15
.Ltmp21:
	.cfi_def_cfa_offset 16
	pushq	%r14
.Ltmp22:
	.cfi_def_cfa_offset 24
	pushq	%r12
.Ltmp23:
	.cfi_def_cfa_offset 32
	pushq	%rbx
.Ltmp24:
	.cfi_def_cfa_offset 40
	subq	$200, %rsp
.Ltmp25:
	.cfi_def_cfa_offset 240
.Ltmp26:
	.cfi_offset %rbx, -40
.Ltmp27:
	.cfi_offset %r12, -32
.Ltmp28:
	.cfi_offset %r14, -24
.Ltmp29:
	.cfi_offset %r15, -16
	movq	%rsi, %r14
	movq	%rdi, %r15
	leaq	(%rsp), %rdi
	callq	setjmp
	xorq	%r12, %r12
	movabsq	$4294967295, %rcx       # imm = 0xFFFFFFFF
	testq	%rcx, %rax
	movabsq	$0, %rbx
	jne	.LBB8_4
# BB#1:                                 # %if.end
	movq	$1, %rbx
	movl	%ebx, float_handled(%rip)
	movabsq	$float_handler, %rdi
	leaq	(%rsp), %rsi
	movq	$200, %rdx
	callq	memcpy
	movzbl	float_handler_set(%rip), %eax
	testq	%rax, %rax
	jne	.LBB8_3
# BB#2:                                 # %if.then3.i
	movabsq	$float_signal, %rsi
	movq	$8, %rdi
	callq	signal
	movb	%bl, float_handler_set(%rip)
.LBB8_3:                                # %set_float_handler.exit
	movq	%r14, %rdi
	callq	*%r15
.LBB8_4:                                # %cleanup
	movl	%r12d, float_handled(%rip)
	movq	%rbx, %rax
	addq	$200, %rsp
	popq	%rbx
	popq	%r12
	popq	%r14
	popq	%r15
	retq
.Ltmp30:
	.size	do_float_handler, .Ltmp30-do_float_handler
	.cfi_endproc

	.globl	strip_off_ending
	.align	16, 0x90
	.type	strip_off_ending,@function
strip_off_ending:                       # @strip_off_ending
	.cfi_startproc
# BB#0:                                 # %entry
	movq	$32, %rcx
	movq	%rsi, %rax
	shlq	%cl, %rax
	movq	$32, %rcx
	sarq	%cl, %rax
	cmpq	$2, %rax
	jle	.LBB9_6
# BB#1:
	movq	$3, %rax
	.align	16, 0x90
.LBB9_4:                                # %for.body
                                        # =>This Inner Loop Header: Depth=1
	leaq	-1(%rax), %rcx
	movq	%rsi, %rdx
	subq	%rcx, %rdx
	movq	$32, %rcx
	shlq	%cl, %rdx
	movq	$32, %rcx
	sarq	%cl, %rdx
	movzbl	(%rdi,%rdx), %ecx
	cmpq	$46, %rcx
	je	.LBB9_5
# BB#2:                                 # %for.cond
                                        #   in Loop: Header=BB9_4 Depth=1
	movq	$32, %rcx
	movq	%rax, %rdx
	shlq	%cl, %rdx
	movq	$32, %rcx
	sarq	%cl, %rdx
	cmpq	$5, %rdx
	jg	.LBB9_6
# BB#3:                                 # %for.cond
                                        #   in Loop: Header=BB9_4 Depth=1
	movq	$32, %rcx
	movq	%rsi, %rdx
	shlq	%cl, %rdx
	movq	$32, %rcx
	sarq	%cl, %rdx
	movq	$32, %rcx
	leaq	1(%rax), %r8
	shlq	%cl, %rax
	movq	$32, %rcx
	sarq	%cl, %rax
	cmpq	%rdx, %rax
	movq	%r8, %rax
	jl	.LBB9_4
	jmp	.LBB9_6
.LBB9_5:                                # %if.then
	xorq	%rax, %rax
	movb	%al, (%rdi,%rdx)
.LBB9_6:                                # %for.end
	retq
.Ltmp31:
	.size	strip_off_ending, .Ltmp31-strip_off_ending
	.cfi_endproc

	.globl	output_quoted_string
	.align	16, 0x90
	.type	output_quoted_string,@function
output_quoted_string:                   # @output_quoted_string
	.cfi_startproc
# BB#0:                                 # %entry
	pushq	%r15
.Ltmp37:
	.cfi_def_cfa_offset 16
	pushq	%r14
.Ltmp38:
	.cfi_def_cfa_offset 24
	pushq	%r12
.Ltmp39:
	.cfi_def_cfa_offset 32
	pushq	%rbx
.Ltmp40:
	.cfi_def_cfa_offset 40
	pushq	%rax
.Ltmp41:
	.cfi_def_cfa_offset 48
.Ltmp42:
	.cfi_offset %rbx, -40
.Ltmp43:
	.cfi_offset %r12, -32
.Ltmp44:
	.cfi_offset %r14, -24
.Ltmp45:
	.cfi_offset %r15, -16
	movq	%rsi, %r12
	movq	%rdi, %r14
	movq	$34, %rdi
	movq	%r14, %rsi
	callq	putc
	movzbl	(%r12), %eax
	testq	%rax, %rax
	je	.LBB10_9
# BB#1:                                 # %while.body.preheader
	incq	%r12
	movabsq	$.L.str2, %r15
	.align	16, 0x90
.LBB10_2:                               # %while.body
                                        # =>This Inner Loop Header: Depth=1
	movq	$56, %rcx
	movq	%rax, %rbx
	andq	$255, %rax
	movzbl	_sch_istable(%rax,%rax), %edx
	shlq	%cl, %rbx
	movq	$56, %rcx
	sarq	%cl, %rbx
	testq	$16, %rdx
	jne	.LBB10_3
# BB#7:                                 # %if.else
                                        #   in Loop: Header=BB10_2 Depth=1
	xorq	%rax, %rax
	movq	%r14, %rdi
	movq	%r15, %rsi
	movq	%rbx, %rdx
	callq	fprintf
	jmp	.LBB10_8
	.align	16, 0x90
.LBB10_3:                               # %if.then
                                        #   in Loop: Header=BB10_2 Depth=1
	cmpq	$34, %rax
	je	.LBB10_5
# BB#4:                                 # %if.then
                                        #   in Loop: Header=BB10_2 Depth=1
	cmpq	$92, %rax
	jne	.LBB10_6
.LBB10_5:                               # %if.then11
                                        #   in Loop: Header=BB10_2 Depth=1
	movq	$92, %rdi
	movq	%r14, %rsi
	callq	putc
.LBB10_6:                               # %if.end
                                        #   in Loop: Header=BB10_2 Depth=1
	movq	%rbx, %rdi
	movq	%r14, %rsi
	callq	putc
.LBB10_8:                               # %while.cond.backedge
                                        #   in Loop: Header=BB10_2 Depth=1
	movzbl	(%r12), %eax
	incq	%r12
	testq	%rax, %rax
	jne	.LBB10_2
.LBB10_9:                               # %while.end
	movq	$34, %rdi
	movq	%r14, %rsi
	addq	$8, %rsp
	popq	%rbx
	popq	%r12
	popq	%r14
	popq	%r15
	jmp	putc  # TAILCALL
.Ltmp46:
	.size	output_quoted_string, .Ltmp46-output_quoted_string
	.cfi_endproc

	.globl	output_file_directive
	.align	16, 0x90
	.type	output_file_directive,@function
output_file_directive:                  # @output_file_directive
	.cfi_startproc
# BB#0:                                 # %entry
	pushq	%r15
.Ltmp53:
	.cfi_def_cfa_offset 16
	pushq	%r14
.Ltmp54:
	.cfi_def_cfa_offset 24
	pushq	%r13
.Ltmp55:
	.cfi_def_cfa_offset 32
	pushq	%r12
.Ltmp56:
	.cfi_def_cfa_offset 40
	pushq	%rbx
.Ltmp57:
	.cfi_def_cfa_offset 48
.Ltmp58:
	.cfi_offset %rbx, -48
.Ltmp59:
	.cfi_offset %r12, -40
.Ltmp60:
	.cfi_offset %r13, -32
.Ltmp61:
	.cfi_offset %r14, -24
.Ltmp62:
	.cfi_offset %r15, -16
	movq	%rsi, %rbx
	movq	%rdi, %r15
	movq	%rbx, %rdi
	callq	strlen
	movq	$32, %rcx
	shlq	%cl, %rax
	movq	$32, %rcx
	sarq	%cl, %rax
	addq	%rbx, %rax
	.align	16, 0x90
.LBB11_1:                               # %while.cond
                                        # =>This Inner Loop Header: Depth=1
	movq	%rax, %r12
	cmpq	%rbx, %r12
	jbe	.LBB11_3
# BB#2:                                 # %while.body
                                        #   in Loop: Header=BB11_1 Depth=1
	movzbl	-1(%r12), %ecx
	leaq	-1(%r12), %rax
	cmpq	$47, %rcx
	jne	.LBB11_1
.LBB11_3:                               # %while.end
	movabsq	$.L.str3, %rdi
	movq	$7, %rsi
	movq	$1, %rdx
	movq	$1, %r13
	movq	%r15, %rcx
	callq	fwrite
	movq	$34, %rdi
	movq	%r15, %rsi
	callq	putc
	movzbl	(%r12), %eax
	testq	%rax, %rax
	je	.LBB11_12
# BB#4:
	movabsq	$.L.str2, %r14
	.align	16, 0x90
.LBB11_5:                               # %while.body.i
                                        # =>This Inner Loop Header: Depth=1
	movq	$56, %rcx
	movq	%rax, %rbx
	andq	$255, %rax
	movzbl	_sch_istable(%rax,%rax), %edx
	shlq	%cl, %rbx
	movq	$56, %rcx
	sarq	%cl, %rbx
	testq	$16, %rdx
	jne	.LBB11_6
# BB#10:                                # %if.else.i
                                        #   in Loop: Header=BB11_5 Depth=1
	xorq	%rax, %rax
	movq	%r15, %rdi
	movq	%r14, %rsi
	movq	%rbx, %rdx
	callq	fprintf
	jmp	.LBB11_11
	.align	16, 0x90
.LBB11_6:                               # %if.then.i
                                        #   in Loop: Header=BB11_5 Depth=1
	cmpq	$34, %rax
	je	.LBB11_8
# BB#7:                                 # %if.then.i
                                        #   in Loop: Header=BB11_5 Depth=1
	cmpq	$92, %rax
	jne	.LBB11_9
.LBB11_8:                               # %if.then11.i
                                        #   in Loop: Header=BB11_5 Depth=1
	movq	$92, %rdi
	movq	%r15, %rsi
	callq	putc
.LBB11_9:                               # %if.end.i
                                        #   in Loop: Header=BB11_5 Depth=1
	movq	%rbx, %rdi
	movq	%r15, %rsi
	callq	putc
.LBB11_11:                              # %while.cond.backedge.i
                                        #   in Loop: Header=BB11_5 Depth=1
	movzbl	(%r12,%r13), %eax
	incq	%r13
	testq	%rax, %rax
	jne	.LBB11_5
.LBB11_12:                              # %output_quoted_string.exit
	movq	$34, %rdi
	movq	%r15, %rsi
	callq	putc
	movq	$10, %rdi
	movq	%r15, %rsi
	popq	%rbx
	popq	%r12
	popq	%r13
	popq	%r14
	popq	%r15
	jmp	fputc  # TAILCALL
.Ltmp63:
	.size	output_file_directive, .Ltmp63-output_file_directive
	.cfi_endproc

	.globl	wrapup_global_declarations
	.align	16, 0x90
	.type	wrapup_global_declarations,@function
wrapup_global_declarations:             # @wrapup_global_declarations
	.cfi_startproc
# BB#0:                                 # %entry
	pushq	%r15
.Ltmp70:
	.cfi_def_cfa_offset 16
	pushq	%r14
.Ltmp71:
	.cfi_def_cfa_offset 24
	pushq	%r13
.Ltmp72:
	.cfi_def_cfa_offset 32
	pushq	%r12
.Ltmp73:
	.cfi_def_cfa_offset 40
	pushq	%rbx
.Ltmp74:
	.cfi_def_cfa_offset 48
	subq	$16, %rsp
.Ltmp75:
	.cfi_def_cfa_offset 64
.Ltmp76:
	.cfi_offset %rbx, -48
.Ltmp77:
	.cfi_offset %r12, -40
.Ltmp78:
	.cfi_offset %r13, -32
.Ltmp79:
	.cfi_offset %r14, -24
.Ltmp80:
	.cfi_offset %r15, -16
	movq	%rsi, %r13
	movq	%rdi, %r14
	movq	$32, %rcx
	movq	%r13, %rdx
	shlq	%cl, %rdx
	movq	$32, %rcx
	sarq	%cl, %rdx
	xorq	%rax, %rax
	testq	%rdx, %rdx
	jle	.LBB12_9
# BB#1:
	movq	$1, %rbx
	movabsq	$4294967295, %r15       # imm = 0xFFFFFFFF
	.align	16, 0x90
.LBB12_2:                               # %for.body
                                        # =>This Inner Loop Header: Depth=1
	movq	-8(%r14,%rbx,8), %rdi
	andq	$-262145, 48(%rdi)      # imm = 0xFFFFFFFFFFFBFFFF
	movzbl	16(%rdi), %eax
	cmpq	$34, %rax
	jne	.LBB12_6
# BB#3:                                 # %land.lhs.true
                                        #   in Loop: Header=BB12_2 Depth=1
	cmpq	$0, 40(%rdi)
	jne	.LBB12_6
# BB#4:                                 # %land.lhs.true
                                        #   in Loop: Header=BB12_2 Depth=1
	movq	incomplete_decl_finalize_hook(%rip), %rax
	testq	%rax, %rax
	je	.LBB12_6
# BB#5:                                 # %if.then
                                        #   in Loop: Header=BB12_2 Depth=1
	callq	*%rax
.LBB12_6:                               # %for.inc
                                        #   in Loop: Header=BB12_2 Depth=1
	movq	%rbx, %rax
	andq	%r15, %rax
	movq	%r13, %r12
	andq	%r15, %r12
	incq	%rbx
	cmpq	%r12, %rax
	jne	.LBB12_2
# BB#7:                                 # %do.body.preheader
	movq	$32, %rcx
	shlq	%cl, %r13
	movq	$32, %rcx
	sarq	%cl, %r13
	xorq	%rcx, %rcx
	testq	%r13, %r13
	jle	.LBB12_8
	.align	16, 0x90
.LBB12_13:                              # %for.body11.lr.ph.us
                                        # =>This Loop Header: Depth=1
                                        #     Child Loop BB12_14 Depth 2
	movq	%rcx, (%rsp)            # 8-byte Spill
	movq	$1, %r13
	movq	$0, 8(%rsp)             # 8-byte Folded Spill
	.align	16, 0x90
.LBB12_14:                              # %for.body11.us
                                        #   Parent Loop BB12_13 Depth=1
                                        # =>  This Inner Loop Header: Depth=2
	movq	-8(%r14,%r13,8), %rbx
	movl	16(%rbx), %eax
	testq	$16384, %rax            # imm = 0x4000
	jne	.LBB12_36
# BB#15:                                # %lor.lhs.false.us
                                        #   in Loop: Header=BB12_14 Depth=2
	movzbl	49(%rbx), %ecx
	testq	$1, %rcx
	jne	.LBB12_36
# BB#16:                                # %if.end23.us
                                        #   in Loop: Header=BB12_14 Depth=2
	andq	$262399, %rax           # imm = 0x400FF
	cmpq	$262178, %rax           # imm = 0x40022
	jne	.LBB12_26
# BB#17:                                # %if.then35.us
                                        #   in Loop: Header=BB12_14 Depth=2
	movq	120(%rbx), %rax
	testq	%rax, %rax
	jne	.LBB12_19
# BB#18:                                # %cond.false.us
                                        #   in Loop: Header=BB12_14 Depth=2
	movq	%rbx, %rdi
	callq	*lang_set_decl_assembler_name(%rip)
	movq	120(%rbx), %rax
.LBB12_19:                              # %cond.end.us
                                        #   in Loop: Header=BB12_14 Depth=2
	movzbl	18(%rax), %eax
	testq	$4, %rax
	jne	.LBB12_25
# BB#20:                                # %if.else.us
                                        #   in Loop: Header=BB12_14 Depth=2
	movq	48(%rbx), %rax
	testq	$67108864, %rax         # imm = 0x4000000
	jne	.LBB12_26
# BB#21:                                # %if.else54.us
                                        #   in Loop: Header=BB12_14 Depth=2
	movl	16(%rbx), %ecx
	andq	$528384, %rcx           # imm = 0x81000
	cmpq	$4096, %rcx             # imm = 0x1000
	jne	.LBB12_25
# BB#22:                                # %land.lhs.true66.us
                                        #   in Loop: Header=BB12_14 Depth=2
	movl	optimize(%rip), %ecx
	testq	%rcx, %rcx
	jne	.LBB12_26
# BB#23:                                # %land.lhs.true66.us
                                        #   in Loop: Header=BB12_14 Depth=2
	movl	flag_keep_static_consts(%rip), %ecx
	testq	%r15, %rcx
	je	.LBB12_26
# BB#24:                                # %land.lhs.true66.us
                                        #   in Loop: Header=BB12_14 Depth=2
	andq	$4194304, %rax          # imm = 0x400000
	jne	.LBB12_26
.LBB12_25:                              # %if.then82.us
                                        #   in Loop: Header=BB12_14 Depth=2
	xorq	%rsi, %rsi
	movq	$1, %rdx
	movq	$1, %rcx
	movq	$1, 8(%rsp)             # 8-byte Folded Spill
	movq	%rbx, %rdi
	callq	rest_of_decl_compilation
.LBB12_26:                              # %if.end84.us
                                        #   in Loop: Header=BB12_14 Depth=2
	movl	16(%rbx), %eax
	movq	%rax, %rcx
	andq	$255, %rcx
	cmpq	$30, %rcx
	jne	.LBB12_36
# BB#27:                                # %land.lhs.true90.us
                                        #   in Loop: Header=BB12_14 Depth=2
	cmpq	$0, 104(%rbx)
	je	.LBB12_36
# BB#28:                                # %land.lhs.true93.us
                                        #   in Loop: Header=BB12_14 Depth=2
	cmpq	$0, 160(%rbx)
	je	.LBB12_36
# BB#29:                                # %land.lhs.true96.us
                                        #   in Loop: Header=BB12_14 Depth=2
	movl	flag_keep_inline_functions(%rip), %ecx
	testq	%rcx, %rcx
	jne	.LBB12_35
# BB#30:                                # %lor.lhs.false98.us
                                        #   in Loop: Header=BB12_14 Depth=2
	testq	$524288, %rax           # imm = 0x80000
	je	.LBB12_32
# BB#31:                                # %land.lhs.true105.us
                                        #   in Loop: Header=BB12_14 Depth=2
	movzbl	51(%rbx), %eax
	testq	$4, %rax
	je	.LBB12_35
.LBB12_32:                              # %lor.lhs.false113.us
                                        #   in Loop: Header=BB12_14 Depth=2
	movq	120(%rbx), %rax
	testq	%rax, %rax
	jne	.LBB12_34
# BB#33:                                # %cond.false118.us
                                        #   in Loop: Header=BB12_14 Depth=2
	movq	%rbx, %rdi
	callq	*lang_set_decl_assembler_name(%rip)
	movq	120(%rbx), %rax
.LBB12_34:                              # %cond.end119.us
                                        #   in Loop: Header=BB12_14 Depth=2
	movzbl	18(%rax), %eax
	testq	$4, %rax
	je	.LBB12_36
.LBB12_35:                              # %if.then128.us
                                        #   in Loop: Header=BB12_14 Depth=2
	movq	%rbx, %rdi
	callq	output_inline_function
	movq	$1, 8(%rsp)             # 8-byte Folded Spill
	.align	16, 0x90
.LBB12_36:                              # %for.inc130.us
                                        #   in Loop: Header=BB12_14 Depth=2
	movq	%r13, %rax
	andq	%r15, %rax
	incq	%r13
	cmpq	%r12, %rax
	jne	.LBB12_14
# BB#10:                                # %for.end132.us
                                        #   in Loop: Header=BB12_13 Depth=1
	movq	8(%rsp), %rcx           # 8-byte Reload
	andq	%r15, %rcx
	movq	$1, %rax
	jne	.LBB12_12
# BB#11:                                # %for.end132.us
                                        #   in Loop: Header=BB12_13 Depth=1
	movq	(%rsp), %rax            # 8-byte Reload
.LBB12_12:                              # %for.end132.us
                                        #   in Loop: Header=BB12_13 Depth=1
	testq	%rcx, %rcx
	movq	%rax, %rcx
	jne	.LBB12_13
	jmp	.LBB12_9
.LBB12_8:
	xorq	%rax, %rax
.LBB12_9:                               # %do.end
	addq	$16, %rsp
	popq	%rbx
	popq	%r12
	popq	%r13
	popq	%r14
	popq	%r15
	retq
.Ltmp81:
	.size	wrapup_global_declarations, .Ltmp81-wrapup_global_declarations
	.cfi_endproc

	.globl	rest_of_decl_compilation
	.align	16, 0x90
	.type	rest_of_decl_compilation,@function
rest_of_decl_compilation:               # @rest_of_decl_compilation
	.cfi_startproc
# BB#0:                                 # %entry
	pushq	%r15
.Ltmp88:
	.cfi_def_cfa_offset 16
	pushq	%r14
.Ltmp89:
	.cfi_def_cfa_offset 24
	pushq	%r13
.Ltmp90:
	.cfi_def_cfa_offset 32
	pushq	%r12
.Ltmp91:
	.cfi_def_cfa_offset 40
	pushq	%rbx
.Ltmp92:
	.cfi_def_cfa_offset 48
.Ltmp93:
	.cfi_offset %rbx, -48
.Ltmp94:
	.cfi_offset %r12, -40
.Ltmp95:
	.cfi_offset %r13, -32
.Ltmp96:
	.cfi_offset %r14, -24
.Ltmp97:
	.cfi_offset %r15, -16
	movq	%rdi, %rbx
	movq	136(%rbx), %rax
	movq	%rcx, %r15
	movq	%rdx, %r14
	movq	%rsi, %r12
	movabsq	$.L.str7, %rdi
	movq	%rax, %rsi
	callq	lookup_attribute
	testq	%rax, %rax
	je	.LBB13_2
# BB#1:                                 # %if.then
	movq	32(%rax), %rax
	movq	32(%rax), %rax
	movq	40(%rax), %rdi
	callq	get_identifier
	movq	%rbx, %rdi
	movq	%rax, %rsi
	callq	assemble_alias
.LBB13_2:                               # %if.end
	movl	16(%rbx), %eax
	testq	$262144, %rax           # imm = 0x40000
	jne	.LBB13_5
# BB#3:                                 # %lor.lhs.false
	movq	48(%rbx), %rcx
	testq	$256, %rcx              # imm = 0x100
	jne	.LBB13_5
# BB#4:                                 # %lor.lhs.false11
	andq	$255, %rax
	cmpq	$30, %rax
	jne	.LBB13_25
.LBB13_5:                               # %if.then15
	movq	$11, %rdi
	callq	timevar_push
	testq	%r12, %r12
	je	.LBB13_7
# BB#6:                                 # %if.then17
	movq	%rbx, %rdi
	movq	%r12, %rsi
	callq	make_decl_rtl
.LBB13_7:                               # %if.end18
	movabsq	$4294967295, %r13       # imm = 0xFFFFFFFF
	testq	%r13, %r15
	jne	.LBB13_9
# BB#8:                                 # %lor.lhs.false20
	movzbl	50(%rbx), %eax
	testq	$4, %rax
	jne	.LBB13_10
.LBB13_9:                               # %if.then27
	xorq	%rcx, %rcx
	movq	%rbx, %rdi
	movq	%r14, %rsi
	movq	%r15, %rdx
	callq	assemble_variable
.LBB13_10:                              # %if.end28
	movq	last_assemble_variable_decl(%rip), %rax
	cmpq	%rbx, %rax
	jne	.LBB13_23
# BB#11:                                # %do.body
	movq	144(%rbx), %rax
	testq	%rax, %rax
	jne	.LBB13_13
# BB#12:                                # %cond.false
	xorq	%rsi, %rsi
	movq	%rbx, %rdi
	callq	make_decl_rtl
	movq	144(%rbx), %rax
.LBB13_13:                              # %cond.end
	movl	flag_inhibit_size_directive(%rip), %ecx
	testq	%rcx, %rcx
	jne	.LBB13_23
# BB#14:                                # %land.lhs.true
	movq	8(%rax), %rax
	movq	8(%rax), %r12
	testq	%r13, %r15
	movabsq	$0, %rax
	movabsq	$1, %rdx
	movq	%rax, %rcx
	jne	.LBB13_16
# BB#15:                                # %land.lhs.true
	movq	%rdx, %rcx
.LBB13_16:                              # %land.lhs.true
	cmpq	$0, 40(%rbx)
	je	.LBB13_18
# BB#17:                                # %land.lhs.true
	movq	%rdx, %rax
.LBB13_18:                              # %land.lhs.true
	testq	%r13, %r14
	je	.LBB13_23
# BB#19:                                # %land.lhs.true
	andq	%rcx, %rax
	je	.LBB13_23
# BB#20:                                # %land.lhs.true46
	movq	104(%rbx), %rax
	movq	global_trees(%rip), %rcx
	cmpq	%rcx, %rax
	jne	.LBB13_23
# BB#21:                                # %land.lhs.true46
	movl	size_directive_output(%rip), %eax
	testq	%r13, %rax
	jne	.LBB13_23
# BB#22:                                # %if.then51
	movq	asm_out_file(%rip), %rcx
	movq	$1, %rax
	movl	%eax, size_directive_output(%rip)
	movabsq	$.L.str9, %rdi
	movq	$7, %rsi
	movq	$1, %rdx
	callq	fwrite
	movq	asm_out_file(%rip), %rdi
	movq	%r12, %rsi
	callq	assemble_name
	movq	asm_out_file(%rip), %rsi
	movq	$44, %rdi
	callq	putc
	movq	asm_out_file(%rip), %r14
	movq	8(%rbx), %rdi
	callq	int_size_in_bytes
	movq	%rax, %rcx
	movabsq	$.L.str10, %rsi
	xorq	%rax, %rax
	movq	%r14, %rdi
	movq	%rcx, %rdx
	callq	fprintf
	movq	asm_out_file(%rip), %rsi
	movq	$10, %rdi
	callq	fputc
.LBB13_23:                              # %if.end59
	movq	$11, %rdi
.LBB13_24:                              # %if.end59
	popq	%rbx
	popq	%r12
	popq	%r13
	popq	%r14
	popq	%r15
	jmp	timevar_pop  # TAILCALL
.LBB13_25:                              # %if.else
	testq	$1024, %rcx             # imm = 0x400
	je	.LBB13_30
# BB#26:                                # %if.else
	testq	%r12, %r12
	je	.LBB13_30
# BB#27:                                # %if.then68
	movq	%r12, %rdi
	callq	decode_reg_name
	movq	$32, %rcx
	shlq	%cl, %rax
	movq	$32, %rcx
	sarq	%cl, %rax
	testq	%rax, %rax
	js	.LBB13_28
# BB#34:                                # %if.then71
	movq	$0, 144(%rbx)
	movq	%rbx, %rdi
	movq	%r12, %rsi
	popq	%rbx
	popq	%r12
	popq	%r13
	popq	%r14
	popq	%r15
	jmp	make_decl_rtl  # TAILCALL
.LBB13_30:                              # %if.else83
	movl	write_symbols(%rip), %ecx
	movabsq	$4294967291, %rdx       # imm = 0xFFFFFFFB
	andq	%rcx, %rdx
	cmpq	$1, %rdx
	jne	.LBB13_33
# BB#31:                                # %if.else83
	cmpq	$33, %rax
	jne	.LBB13_33
# BB#32:                                # %if.then93
	movq	$43, %rdi
	callq	timevar_push
	xorq	%rsi, %rsi
	movq	%rbx, %rdi
	callq	dbxout_symbol
	movq	$43, %rdi
	jmp	.LBB13_24
.LBB13_28:                              # %if.else74
	movabsq	$.L.str11, %rdi
	xorq	%rax, %rax
	movq	%r12, %rsi
	callq	error
	andq	$-1025, 48(%rbx)        # imm = 0xFFFFFFFFFFFFFBFF
	movabsq	$4294967295, %rax       # imm = 0xFFFFFFFF
	testq	%rax, %r14
	je	.LBB13_29
.LBB13_33:                              # %if.end97
	popq	%rbx
	popq	%r12
	popq	%r13
	popq	%r14
	popq	%r15
	retq
.LBB13_29:                              # %if.then80
	movq	%rbx, %rdi
	popq	%rbx
	popq	%r12
	popq	%r13
	popq	%r14
	popq	%r15
	jmp	expand_decl  # TAILCALL
.Ltmp98:
	.size	rest_of_decl_compilation, .Ltmp98-rest_of_decl_compilation
	.cfi_endproc

	.globl	check_global_declarations
	.align	16, 0x90
	.type	check_global_declarations,@function
check_global_declarations:              # @check_global_declarations
	.cfi_startproc
# BB#0:                                 # %entry
	pushq	%r15
.Ltmp105:
	.cfi_def_cfa_offset 16
	pushq	%r14
.Ltmp106:
	.cfi_def_cfa_offset 24
	pushq	%r13
.Ltmp107:
	.cfi_def_cfa_offset 32
	pushq	%r12
.Ltmp108:
	.cfi_def_cfa_offset 40
	pushq	%rbx
.Ltmp109:
	.cfi_def_cfa_offset 48
.Ltmp110:
	.cfi_offset %rbx, -48
.Ltmp111:
	.cfi_offset %r12, -40
.Ltmp112:
	.cfi_offset %r13, -32
.Ltmp113:
	.cfi_offset %r14, -24
.Ltmp114:
	.cfi_offset %r15, -16
	movq	%rsi, %rbx
	movq	%rdi, %r14
	movq	$32, %rcx
	movq	%rbx, %rax
	shlq	%cl, %rax
	movq	$32, %rcx
	sarq	%cl, %rax
	testq	%rax, %rax
	jle	.LBB14_31
# BB#1:
	movq	$1, %r12
	movabsq	$4294967295, %r13       # imm = 0xFFFFFFFF
	andq	%r13, %rbx
	.align	16, 0x90
.LBB14_2:                               # %for.body
                                        # =>This Inner Loop Header: Depth=1
	movq	-8(%r14,%r12,8), %r15
	movl	16(%r15), %eax
	movq	%rax, %rcx
	andq	$278783, %rcx           # imm = 0x440FF
	cmpq	$262178, %rcx           # imm = 0x40022
	jne	.LBB14_4
# BB#3:                                 # %if.then
                                        #   in Loop: Header=BB14_2 Depth=1
	movq	$0, 144(%r15)
.LBB14_4:                               # %if.end
                                        #   in Loop: Header=BB14_2 Depth=1
	andq	$255, %rax
	cmpq	$30, %rax
	jne	.LBB14_18
# BB#5:                                 # %land.lhs.true17
                                        #   in Loop: Header=BB14_2 Depth=1
	movl	warn_unused_function(%rip), %eax
	testq	%rax, %rax
	jne	.LBB14_9
# BB#6:                                 # %lor.lhs.false
                                        #   in Loop: Header=BB14_2 Depth=1
	movq	120(%r15), %rax
	testq	%rax, %rax
	jne	.LBB14_8
# BB#7:                                 # %cond.false
                                        #   in Loop: Header=BB14_2 Depth=1
	movq	%r15, %rdi
	callq	*lang_set_decl_assembler_name(%rip)
	movq	120(%r15), %rax
.LBB14_8:                               # %cond.end
                                        #   in Loop: Header=BB14_2 Depth=1
	movzbl	18(%rax), %eax
	testq	$4, %rax
	je	.LBB14_18
.LBB14_9:                               # %land.lhs.true29
                                        #   in Loop: Header=BB14_2 Depth=1
	cmpq	$0, 104(%r15)
	jne	.LBB14_18
# BB#10:                                # %land.lhs.true32
                                        #   in Loop: Header=BB14_2 Depth=1
	movq	48(%r15), %rax
	andq	$4194560, %rax          # imm = 0x400100
	cmpq	$256, %rax              # imm = 0x100
	jne	.LBB14_18
# BB#11:                                # %land.lhs.true45
                                        #   in Loop: Header=BB14_2 Depth=1
	movzbl	18(%r15), %eax
	testq	$8, %rax
	jne	.LBB14_18
# BB#12:                                # %if.then51
                                        #   in Loop: Header=BB14_2 Depth=1
	movq	120(%r15), %rax
	testq	%rax, %rax
	jne	.LBB14_14
# BB#13:                                # %cond.false56
                                        #   in Loop: Header=BB14_2 Depth=1
	movq	%r15, %rdi
	callq	*lang_set_decl_assembler_name(%rip)
	movq	120(%r15), %rax
.LBB14_14:                              # %cond.end57
                                        #   in Loop: Header=BB14_2 Depth=1
	movzbl	18(%rax), %eax
	testq	$4, %rax
	jne	.LBB14_15
# BB#16:                                # %if.else
                                        #   in Loop: Header=BB14_2 Depth=1
	xorq	%rax, %rax
	movq	%r15, %rdi
	movabsq	$.L.str5, %rsi
	callq	warning_with_decl
	jmp	.LBB14_17
.LBB14_15:                              # %if.then66
                                        #   in Loop: Header=BB14_2 Depth=1
	xorq	%rax, %rax
	movq	%r15, %rdi
	movabsq	$.L.str4, %rsi
	callq	pedwarn_with_decl
.LBB14_17:                              # %if.end67
                                        #   in Loop: Header=BB14_2 Depth=1
	movl	16(%r15), %eax
	orq	$524288, %rax           # imm = 0x80000
	movl	%eax, 16(%r15)
	movq	%r15, %rdi
	callq	assemble_external
	.align	16, 0x90
.LBB14_18:                              # %if.end72
                                        #   in Loop: Header=BB14_2 Depth=1
	movl	warn_unused_function(%rip), %eax
	testq	%rax, %rax
	je	.LBB14_21
# BB#19:                                # %land.lhs.true74
                                        #   in Loop: Header=BB14_2 Depth=1
	movl	16(%r15), %eax
	movq	%rax, %rcx
	andq	$255, %rcx
	cmpq	$30, %rcx
	jne	.LBB14_21
# BB#20:                                # %land.lhs.true80
                                        #   in Loop: Header=BB14_2 Depth=1
	movq	48(%r15), %rcx
	testq	$2048, %rcx             # imm = 0x800
	je	.LBB14_24
	.align	16, 0x90
.LBB14_21:                              # %lor.lhs.false87
                                        #   in Loop: Header=BB14_2 Depth=1
	movl	warn_unused_variable(%rip), %eax
	testq	%rax, %rax
	je	.LBB14_30
# BB#22:                                # %land.lhs.true89
                                        #   in Loop: Header=BB14_2 Depth=1
	movl	16(%r15), %eax
	movq	%rax, %rcx
	andq	$4351, %rcx             # imm = 0x10FF
	cmpq	$34, %rcx
	jne	.LBB14_30
# BB#23:                                # %land.lhs.true89.land.lhs.true101_crit_edge
                                        #   in Loop: Header=BB14_2 Depth=1
	movq	48(%r15), %rcx
.LBB14_24:                              # %land.lhs.true101
                                        #   in Loop: Header=BB14_2 Depth=1
	testq	$65792, %rcx            # imm = 0x10100
	jne	.LBB14_30
# BB#25:                                # %land.lhs.true101
                                        #   in Loop: Header=BB14_2 Depth=1
	movq	%rax, %rdx
	andq	$589824, %rdx           # imm = 0x90000
	testq	%r13, %rdx
	jne	.LBB14_30
# BB#26:                                # %land.lhs.true129
                                        #   in Loop: Header=BB14_2 Depth=1
	andq	$255, %rax
	cmpq	$30, %rax
	je	.LBB14_28
# BB#27:                                # %land.lhs.true129
                                        #   in Loop: Header=BB14_2 Depth=1
	andq	$1024, %rcx             # imm = 0x400
	jne	.LBB14_30
.LBB14_28:                              # %land.lhs.true142
                                        #   in Loop: Header=BB14_2 Depth=1
	movq	72(%r15), %rax
	movzbl	18(%rax), %eax
	testq	$1, %rax
	jne	.LBB14_30
# BB#29:                                # %if.then150
                                        #   in Loop: Header=BB14_2 Depth=1
	xorq	%rax, %rax
	movq	%r15, %rdi
	movabsq	$.L.str6, %rsi
	callq	warning_with_decl
	.align	16, 0x90
.LBB14_30:                              # %if.end151
                                        #   in Loop: Header=BB14_2 Depth=1
	movq	$43, %rdi
	callq	timevar_push
	movq	debug_hooks(%rip), %rax
	movq	%r15, %rdi
	callq	*128(%rax)
	movq	$43, %rdi
	callq	timevar_pop
	movq	%r12, %rax
	andq	%r13, %rax
	incq	%r12
	cmpq	%rbx, %rax
	jne	.LBB14_2
.LBB14_31:                              # %for.end
	popq	%rbx
	popq	%r12
	popq	%r13
	popq	%r14
	popq	%r15
	retq
.Ltmp115:
	.size	check_global_declarations, .Ltmp115-check_global_declarations
	.cfi_endproc

	.globl	push_srcloc
	.align	16, 0x90
	.type	push_srcloc,@function
push_srcloc:                            # @push_srcloc
	.cfi_startproc
# BB#0:                                 # %entry
	pushq	%r14
.Ltmp119:
	.cfi_def_cfa_offset 16
	pushq	%rbx
.Ltmp120:
	.cfi_def_cfa_offset 24
	pushq	%rax
.Ltmp121:
	.cfi_def_cfa_offset 32
.Ltmp122:
	.cfi_offset %rbx, -24
.Ltmp123:
	.cfi_offset %r14, -16
	movq	input_file_stack(%rip), %rax
	movq	%rsi, %r14
	movq	%rdi, %rbx
	testq	%rax, %rax
	je	.LBB15_2
# BB#1:                                 # %if.then
	movq	input_filename(%rip), %rcx
	movq	%rcx, (%rax)
	movl	lineno(%rip), %eax
	movq	input_file_stack(%rip), %rcx
	movl	%eax, 16(%rcx)
.LBB15_2:                               # %if.end
	movq	$24, %rdi
	callq	xmalloc
	movq	%rbx, input_filename(%rip)
	movq	%rbx, (%rax)
	movl	%r14d, lineno(%rip)
	movl	%r14d, 16(%rax)
	xorq	%rcx, %rcx
	movl	%ecx, 20(%rax)
	movl	input_file_stack_tick(%rip), %ecx
	movq	input_file_stack(%rip), %rdx
	movq	%rdx, 8(%rax)
	movq	%rax, input_file_stack(%rip)
	incq	%rcx
	movl	%ecx, input_file_stack_tick(%rip)
	addq	$8, %rsp
	popq	%rbx
	popq	%r14
	retq
.Ltmp124:
	.size	push_srcloc, .Ltmp124-push_srcloc
	.cfi_endproc

	.globl	pop_srcloc
	.align	16, 0x90
	.type	pop_srcloc,@function
pop_srcloc:                             # @pop_srcloc
	.cfi_startproc
# BB#0:                                 # %entry
	pushq	%rax
.Ltmp126:
	.cfi_def_cfa_offset 16
	movq	input_file_stack(%rip), %rdi
	movq	8(%rdi), %rax
	movq	%rax, input_file_stack(%rip)
	callq	free
	movl	input_file_stack_tick(%rip), %ecx
	movq	input_file_stack(%rip), %rax
	incq	%rcx
	movl	%ecx, input_file_stack_tick(%rip)
	testq	%rax, %rax
	je	.LBB16_2
# BB#1:                                 # %if.end
	movq	(%rax), %rcx
	movq	%rcx, input_filename(%rip)
	movl	16(%rax), %eax
	movl	%eax, lineno(%rip)
	popq	%rax
	retq
.LBB16_2:                               # %if.then
	movabsq	$.L.str1, %rax
	movabsq	$.L__FUNCTION__.pop_srcloc, %rcx
	movq	$2104, %rsi             # imm = 0x838
	movq	%rax, %rdi
	movq	%rcx, %rdx
	callq	fancy_abort
.Ltmp127:
	.size	pop_srcloc, .Ltmp127-pop_srcloc
	.cfi_endproc

	.globl	rest_of_type_compilation
	.align	16, 0x90
	.type	rest_of_type_compilation,@function
rest_of_type_compilation:               # @rest_of_type_compilation
	.cfi_startproc
# BB#0:                                 # %entry
	pushq	%r14
.Ltmp131:
	.cfi_def_cfa_offset 16
	pushq	%rbx
.Ltmp132:
	.cfi_def_cfa_offset 24
	pushq	%rax
.Ltmp133:
	.cfi_def_cfa_offset 32
.Ltmp134:
	.cfi_offset %rbx, -24
.Ltmp135:
	.cfi_offset %r14, -16
	movq	%rsi, %rbx
	movq	%rdi, %r14
	movq	$43, %rdi
	callq	timevar_push
	movl	write_symbols(%rip), %ecx
	movabsq	$4294967291, %rax       # imm = 0xFFFFFFFB
	andq	%rcx, %rax
	cmpq	$1, %rax
	jne	.LBB17_5
# BB#1:                                 # %if.then
	movq	(%r14), %rdi
	movabsq	$4294967295, %rax       # imm = 0xFFFFFFFF
	testq	%rax, %rbx
	jne	.LBB17_2
# BB#3:                                 # %if.then
	movabsq	$1, %rsi
	jmp	.LBB17_4
.LBB17_2:
	movabsq	$0, %rsi
.LBB17_4:                               # %if.then
	callq	dbxout_symbol
	movl	write_symbols(%rip), %ecx
.LBB17_5:                               # %if.end
	movabsq	$4294967295, %rax       # imm = 0xFFFFFFFF
	andq	%rax, %rcx
	cmpq	$4, %rcx
	movabsq	$0, %rdx
	movabsq	$1, %rdi
	movq	%rdx, %rsi
	jne	.LBB17_7
# BB#6:                                 # %if.end
	movq	%rdi, %rsi
.LBB17_7:                               # %if.end
	cmpq	$7, %rcx
	jne	.LBB17_9
# BB#8:                                 # %if.end
	movq	%rdi, %rdx
.LBB17_9:                               # %if.end
	orq	%rdx, %rsi
	cmpq	$1, %rsi
	jne	.LBB17_12
# BB#10:                                # %if.end
	testq	%rax, %rbx
	je	.LBB17_12
# BB#11:                                # %if.then6
	movq	(%r14), %rdi
	callq	dwarf2out_decl
.LBB17_12:                              # %if.end9
	movq	$43, %rdi
	addq	$8, %rsp
	popq	%rbx
	popq	%r14
	jmp	timevar_pop  # TAILCALL
.Ltmp136:
	.size	rest_of_type_compilation, .Ltmp136-rest_of_type_compilation
	.cfi_endproc

	.globl	rest_of_compilation
	.align	16, 0x90
	.type	rest_of_compilation,@function
rest_of_compilation:                    # @rest_of_compilation
	.cfi_startproc
# BB#0:                                 # %entry
	pushq	%r15
.Ltmp143:
	.cfi_def_cfa_offset 16
	pushq	%r14
.Ltmp144:
	.cfi_def_cfa_offset 24
	pushq	%r13
.Ltmp145:
	.cfi_def_cfa_offset 32
	pushq	%r12
.Ltmp146:
	.cfi_def_cfa_offset 40
	pushq	%rbx
.Ltmp147:
	.cfi_def_cfa_offset 48
	subq	$64, %rsp
.Ltmp148:
	.cfi_def_cfa_offset 112
.Ltmp149:
	.cfi_offset %rbx, -48
.Ltmp150:
	.cfi_offset %r12, -40
.Ltmp151:
	.cfi_offset %r13, -32
.Ltmp152:
	.cfi_offset %r14, -24
.Ltmp153:
	.cfi_offset %r15, -16
	movq	%rdi, %r12
	movq	$44, %rdi
	callq	timevar_push
	movl	optimize(%rip), %eax
	xorq	%rcx, %rcx
	movl	%ecx, generating_concat_p(%rip)
	testq	%rax, %rax
	jne	.LBB18_1
# BB#2:                                 # %entry
	movabsq	$1, %rax
	jmp	.LBB18_3
.LBB18_1:
	movabsq	$0, %rax
.LBB18_3:                               # %entry
	movq	cfun(%rip), %rcx
	movl	%eax, cse_not_expected(%rip)
	movl	424(%rcx), %eax
	testq	$262144, %rax           # imm = 0x40000
	jne	.LBB18_5
# BB#4:                                 # %if.then
	callq	identify_blocks
	movq	cfun(%rip), %rax
	movl	424(%rax), %eax
.LBB18_5:                               # %if.end
	testq	$262144, %rax           # imm = 0x40000
	je	.LBB18_7
# BB#6:                                 # %if.then7
	callq	reorder_blocks
.LBB18_7:                               # %if.end8
	callq	init_flow
	cmpq	$0, 160(%r12)
	jne	.LBB18_49
# BB#8:                                 # %if.then10
	movq	current_function_decl(%rip), %rax
	movq	80(%rax), %rax
	jmp	.LBB18_9
	.align	16, 0x90
.LBB18_13:                              # %for.inc
                                        #   in Loop: Header=BB18_9 Depth=1
	movq	%rax, %rdi
	callq	get_containing_scope
.LBB18_9:                               # %if.then10
                                        # =>This Inner Loop Header: Depth=1
	testq	%rax, %rax
	je	.LBB18_14
# BB#10:                                # %for.body
                                        #   in Loop: Header=BB18_9 Depth=1
	movzbl	16(%rax), %ecx
	cmpq	$30, %rcx
	jne	.LBB18_13
# BB#11:                                # %land.lhs.true
                                        #   in Loop: Header=BB18_9 Depth=1
	movq	48(%rax), %rcx
	andq	$2304, %rcx             # imm = 0x900
	cmpq	$2304, %rcx             # imm = 0x900
	jne	.LBB18_13
# BB#12:                                # %if.then28
	movq	$0, 104(%r12)
	leaq	48(%r12), %r13
	jmp	.LBB18_221
.LBB18_14:                              # %for.end
	movzbl	49(%r12), %eax
	leaq	48(%r12), %r13
	movl	flag_no_inline(%rip), %edx
	andq	$8, %rax
	movq	$3, %rcx
	shrq	%cl, %rax
	testq	%rdx, %rdx
	jne	.LBB18_15
# BB#16:                                # %for.end
	movabsq	$1, %rcx
	jmp	.LBB18_17
.LBB18_15:
	movabsq	$0, %rcx
.LBB18_17:                              # %for.end
	xorq	%r14, %r14
	testq	%rax, %rcx
	jne	.LBB18_19
# BB#18:                                # %for.end
	movl	flag_inline_functions(%rip), %eax
	movabsq	$4294967295, %rcx       # imm = 0xFFFFFFFF
	testq	%rcx, %rax
	je	.LBB18_27
.LBB18_19:                              # %if.then41
	movq	$12, %rdi
	callq	timevar_push
	movq	%r12, %rdi
	callq	function_cannot_inline_p
	movq	%rax, %rbx
	movq	$12, %rdi
	callq	timevar_pop
	testq	%rbx, %rbx
	jne	.LBB18_21
# BB#20:                                # %if.then41
	movl	optimize(%rip), %eax
	movabsq	$4294967295, %rcx       # imm = 0xFFFFFFFF
	testq	%rcx, %rax
	je	.LBB18_21
# BB#26:                                # %if.else
	orq	$2048, (%r13)           # imm = 0x800
	movq	$1, %r14
	jmp	.LBB18_27
.LBB18_21:                              # %if.then46
	movl	warn_inline(%rip), %eax
	testq	%rax, %rax
	je	.LBB18_24
# BB#22:                                # %land.lhs.true48
	movzbl	1(%r13), %eax
	testq	$8, %rax
	je	.LBB18_24
# BB#23:                                # %if.then56
	xorq	%rax, %rax
	movq	%r12, %rdi
	movq	%rbx, %rsi
	callq	warning_with_decl
.LBB18_24:                              # %if.end57
	movq	$0, 112(%r12)
	movzbl	49(%r12), %eax
	testq	$1, %rax
	je	.LBB18_27
# BB#25:                                # %if.then66
	movq	$0, 104(%r12)
	jmp	.LBB18_221
.LBB18_27:                              # %if.end75
	callq	get_insns
	movq	%rax, %rbx
	xorq	%rdi, %rdi
	movq	%r12, %rsi
	callq	open_dump_file
	movabsq	$4294967295, %r15       # imm = 0xFFFFFFFF
	testq	%r15, %rax
	je	.LBB18_31
# BB#28:                                # %if.then79
	cmpq	$0, 160(%r12)
	je	.LBB18_30
# BB#29:                                # %if.then84
	movq	rtl_dump_file(%rip), %rcx
	movabsq	$.L.str12, %rdi
	movq	$17, %rsi
	movq	$1, %rdx
	callq	fwrite
.LBB18_30:                              # %if.end86
	movabsq	$print_rtl, %rsi
	xorq	%rdi, %rdi
	movq	%rbx, %rdx
	callq	close_dump_file
.LBB18_31:                              # %if.end87
	callq	convert_from_eh_region_ranges
	testq	%r14, %r14
	jne	.LBB18_39
# BB#32:                                # %lor.lhs.false89
	movq	(%r13), %rax
	testq	$2048, %rax             # imm = 0x800
	je	.LBB18_40
# BB#33:                                # %land.lhs.true97
	movl	16(%r12), %ecx
	testq	$525312, %rcx           # imm = 0x80400
	jne	.LBB18_38
# BB#34:                                # %land.lhs.true109
	movq	120(%r12), %rax
	testq	%rax, %rax
	jne	.LBB18_36
# BB#35:                                # %cond.false
	movq	%r12, %rdi
	callq	*lang_set_decl_assembler_name(%rip)
	movq	120(%r12), %rax
.LBB18_36:                              # %cond.end
	movl	16(%rax), %eax
	movl	flag_keep_inline_functions(%rip), %ecx
	andq	$262144, %rax           # imm = 0x40000
	orq	%rax, %rcx
	testq	%r15, %rcx
	je	.LBB18_39
# BB#37:                                # %cond.end.lor.lhs.false121_crit_edge
	movq	(%r13), %rax
.LBB18_38:                              # %lor.lhs.false121
	testq	$256, %rax              # imm = 0x100
	je	.LBB18_40
.LBB18_39:                              # %if.then129
	movq	(%r13), %rax
	orq	$262144, %rax           # imm = 0x40000
	movq	%rax, (%r13)
.LBB18_40:                              # %if.end134
	testq	$2048, %rax             # imm = 0x800
	je	.LBB18_42
# BB#41:                                # %if.then142
	movq	debug_hooks(%rip), %rax
	movq	%r12, %rdi
	callq	*136(%rax)
	movq	48(%r12), %rax
.LBB18_42:                              # %if.end143
	testq	$262144, %rax           # imm = 0x40000
	je	.LBB18_48
# BB#43:                                # %if.then151
	movl	warn_return_type(%rip), %eax
	testq	%rax, %rax
	je	.LBB18_45
# BB#44:                                # %if.then153
	movl	optimize(%rip), %r15d
	xorq	%rax, %rax
	movl	%eax, optimize(%rip)
	movq	%rbx, %rdi
	callq	rebuild_jump_labels
	callq	find_exception_handler_labels
	callq	max_reg_num
	movq	rtl_dump_file(%rip), %rdx
	movq	%rbx, %rdi
	movq	%rax, %rsi
	callq	find_basic_blocks
	movq	$24, %rdi
	callq	cleanup_cfg
	movl	%r15d, optimize(%rip)
	callq	free_bb_for_insn
.LBB18_45:                              # %if.end156
	callq	nothrow_function_p
	testq	%rax, %rax
	movl	%eax, current_function_nothrow(%rip)
	je	.LBB18_47
# BB#46:                                # %if.then159
	movq	current_function_decl(%rip), %rax
	movl	16(%rax), %ecx
	orq	$131072, %rcx           # imm = 0x20000
	movl	%ecx, 16(%rax)
.LBB18_47:                              # %if.end164
	movq	$12, %rdi
	callq	timevar_push
	movq	%r12, %rdi
	callq	save_for_inline
	movq	$12, %rdi
	callq	timevar_pop
	movq	160(%r12), %rax
	movl	%r14d, 352(%rax)
	jmp	.LBB18_221
.LBB18_48:                              # %if.end169
	testq	$256, %rax              # imm = 0x100
	jne	.LBB18_221
.LBB18_49:                              # %if.end179
	movq	current_function_decl(%rip), %rax
	movq	80(%rax), %rbx
	jmp	.LBB18_50
	.align	16, 0x90
.LBB18_55:                              # %for.inc209
                                        #   in Loop: Header=BB18_50 Depth=1
	movq	%rbx, %rdi
	callq	get_containing_scope
	movq	%rax, %rbx
.LBB18_50:                              # %if.end179
                                        # =>This Inner Loop Header: Depth=1
	testq	%rbx, %rbx
	je	.LBB18_56
# BB#51:                                # %for.body186
                                        #   in Loop: Header=BB18_50 Depth=1
	movzbl	16(%rbx), %eax
	cmpq	$30, %rax
	jne	.LBB18_55
# BB#52:                                # %if.then193
                                        #   in Loop: Header=BB18_50 Depth=1
	movq	120(%rbx), %rax
	testq	%rax, %rax
	jne	.LBB18_54
# BB#53:                                # %cond.false199
                                        #   in Loop: Header=BB18_50 Depth=1
	movq	%rbx, %rdi
	callq	*lang_set_decl_assembler_name(%rip)
	movq	120(%rbx), %rax
.LBB18_54:                              # %cond.end200
                                        #   in Loop: Header=BB18_50 Depth=1
	movl	16(%rax), %ecx
	orq	$262144, %rcx           # imm = 0x40000
	movl	%ecx, 16(%rax)
	jmp	.LBB18_55
.LBB18_56:                              # %for.end211
	movzbl	49(%r12), %eax
	leaq	48(%r12), %r13
	testq	$8, %rax
	je	.LBB18_58
# BB#57:                                # %if.then219
	movq	debug_hooks(%rip), %rax
	movq	%r12, %rdi
	callq	*144(%rax)
.LBB18_58:                              # %if.end220
	callq	remove_unnecessary_notes
	callq	reorder_blocks
	callq	ggc_collect
	callq	init_function_for_compilation
	movzbl	2(%r13), %eax
	testq	$4, %rax
	jne	.LBB18_60
# BB#59:                                # %if.then228
	movl	16(%r12), %eax
	orq	$16384, %rax            # imm = 0x4000
	movl	%eax, 16(%r12)
.LBB18_60:                              # %if.end233
	xorq	%rax, %rax
	movl	%eax, rtx_equal_function_value_matters(%rip)
	callq	get_insns
	movq	%rax, %rdi
	callq	purge_hard_subreg_sets
	movl	rtl_dump_and_exit(%rip), %eax
	movl	flag_syntax_only(%rip), %ecx
	orq	%rax, %rcx
	movabsq	$4294967295, %r15       # imm = 0xFFFFFFFF
	testq	%r15, %rcx
	je	.LBB18_62
# BB#61:                                # %if.end233
	movl	warn_return_type(%rip), %eax
	testq	%r15, %rax
	je	.LBB18_221
.LBB18_62:                              # %lor.lhs.false240
	movq	global_dc(%rip), %rax
	movl	60(%rax), %ecx
	testq	%rcx, %rcx
	jne	.LBB18_221
# BB#63:                                # %lor.lhs.false242
	movl	56(%rax), %eax
	testq	%rax, %rax
	jne	.LBB18_221
# BB#64:                                # %if.end248
	movl	flag_optimize_sibling_calls(%rip), %eax
	testq	%rax, %rax
	je	.LBB18_66
# BB#65:                                # %if.then250
	movq	$13, %rdi
	callq	timevar_push
	movq	$1, %rdi
	movq	%r12, %rsi
	callq	open_dump_file
	callq	optimize_sibling_and_tail_recursive_calls
	callq	get_insns
	movabsq	$print_rtl, %rsi
	movq	$1, %rdi
	movq	%rax, %rdx
	callq	close_dump_file
	movq	$13, %rdi
	callq	timevar_pop
.LBB18_66:                              # %if.end253
	callq	find_exception_handler_labels
	xorq	%rdi, %rdi
	callq	doing_eh
	testq	%r15, %rax
	je	.LBB18_68
# BB#67:                                # %if.then256
	movq	$13, %rdi
	callq	timevar_push
	movq	$2, %rdi
	movq	%r12, %rsi
	callq	open_dump_file
	callq	finish_eh_generation
	callq	get_insns
	movabsq	$print_rtl, %rsi
	movq	$2, %rdi
	movq	%rax, %rdx
	callq	close_dump_file
	movq	$13, %rdi
	callq	timevar_pop
.LBB18_68:                              # %if.end259
	callq	emit_initial_value_sets
	movl	flag_pic(%rip), %eax
	testq	%rax, %rax
	je	.LBB18_70
# BB#69:                                # %if.then261
	movq	cfun(%rip), %rax
	movl	424(%rax), %edx
	movq	$7, %rcx
	movq	%rdx, %rsi
	shlq	%cl, %rsi
	andq	$2097152, %rsi          # imm = 0x200000
	orq	%rdx, %rsi
	movl	%esi, 424(%rax)
.LBB18_70:                              # %if.end271
	callq	get_insns
	movq	current_function_decl(%rip), %rdi
	movq	%rax, %r14
	movq	%r14, %rsi
	callq	unshare_all_rtl
	movq	current_function_decl(%rip), %rdi
	movq	%r14, %rsi
	callq	instantiate_virtual_regs
	movq	$3, %rdi
	movq	%r12, %rsi
	callq	open_dump_file
	movq	$13, %rdi
	callq	timevar_push
	callq	expected_value_to_br_prob
	callq	max_reg_num
	xorq	%rdx, %rdx
	movq	%r14, %rdi
	movq	%rax, %rsi
	callq	reg_scan
	movq	%r14, %rdi
	callq	rebuild_jump_labels
	callq	max_reg_num
	movq	rtl_dump_file(%rip), %rdx
	movq	%r14, %rdi
	movq	%rax, %rsi
	callq	find_basic_blocks
	movl	optimize(%rip), %eax
	testq	%rax, %rax
	je	.LBB18_71
# BB#72:                                # %if.end271
	movabsq	$1, %rdi
	jmp	.LBB18_73
.LBB18_71:
	movabsq	$0, %rdi
.LBB18_73:                              # %if.end271
	orq	$16, %rdi
	callq	cleanup_cfg
	callq	free_bb_for_insn
	movq	%r14, %rdi
	callq	copy_loop_headers
	movq	%r14, %rdi
	callq	purge_line_number_notes
	movq	$13, %rdi
	callq	timevar_pop
	movl	rtl_dump_and_exit(%rip), %eax
	movl	flag_syntax_only(%rip), %ecx
	orq	%rax, %rcx
	testq	%r15, %rcx
	jne	.LBB18_75
# BB#74:                                # %lor.lhs.false282
	movzbl	2(%r13), %eax
	testq	$4, %rax
	je	.LBB18_76
.LBB18_75:                              # %if.then290
	movabsq	$print_rtl, %rsi
	movq	$3, %rdi
	movq	%r14, %rdx
	callq	close_dump_file
.LBB18_221:                             # %exit_rest_of_compilation
	xorq	%rax, %rax
	movl	%eax, reload_completed(%rip)
	movl	%eax, flow2_completed(%rip)
	movl	%eax, no_new_pseudos(%rip)
	movq	$42, %rdi
	callq	timevar_push
	callq	init_insn_lengths
	callq	clear_const_double_mem
	callq	init_temp_slots
	xorq	%rdi, %rdi
	callq	free_basic_block_vars
	callq	free_bb_for_insn
	movq	$42, %rdi
	callq	timevar_pop
	callq	init_recog_no_volatile
	movq	cfun(%rip), %rdi
	callq	free_after_parsing
	movzbl	2(%r13), %eax
	testq	$4, %rax
	jne	.LBB18_223
# BB#222:                               # %if.then670
	movq	cfun(%rip), %rdi
	callq	free_after_compilation
	movq	$0, 160(%r12)
.LBB18_223:                             # %if.end674
	movq	$0, cfun(%rip)
	callq	ggc_collect
	movq	$44, %rdi
	callq	timevar_pop
	addq	$64, %rsp
	popq	%rbx
	popq	%r12
	popq	%r13
	popq	%r14
	popq	%r15
	retq
.LBB18_76:                              # %if.end291
	movslq	optimize(%rip), %rax
	testq	%rax, %rax
	jle	.LBB18_83
# BB#77:                                # %if.end291
	movl	flag_ssa(%rip), %eax
	testq	%r15, %rax
	je	.LBB18_83
# BB#78:                                # %if.then296
	movq	$38, %rdi
	callq	timevar_push
	movq	$4, %rdi
	movq	%r12, %rsi
	callq	open_dump_file
	callq	max_reg_num
	movq	rtl_dump_file(%rip), %rdx
	movq	%r14, %rdi
	movq	%rax, %rsi
	callq	find_basic_blocks
	movq	$17, %rdi
	callq	cleanup_cfg
	callq	convert_to_ssa
	movabsq	$print_rtl_with_bb, %rsi
	movq	$4, %rdi
	movq	%r14, %rdx
	callq	close_dump_file
	movq	$38, %rdi
	callq	timevar_pop
	movl	flag_ssa_ccp(%rip), %eax
	testq	%rax, %rax
	je	.LBB18_80
# BB#79:                                # %if.then301
	movq	$39, %rdi
	callq	timevar_push
	movq	$5, %rdi
	movq	%r12, %rsi
	callq	open_dump_file
	callq	ssa_const_prop
	callq	get_insns
	movabsq	$print_rtl_with_bb, %rsi
	movq	$5, %rdi
	movq	%rax, %rdx
	callq	close_dump_file
	movq	$39, %rdi
	callq	timevar_pop
.LBB18_80:                              # %if.end304
	movl	flag_ssa_dce(%rip), %eax
	testq	%rax, %rax
	je	.LBB18_82
# BB#81:                                # %if.then306
	movq	$40, %rdi
	callq	timevar_push
	movq	$6, %rdi
	movq	%r12, %rsi
	callq	open_dump_file
	callq	get_insns
	movq	%rax, %r14
	callq	ssa_eliminate_dead_code
	movabsq	$print_rtl_with_bb, %rsi
	movq	$6, %rdi
	movq	%r14, %rdx
	callq	close_dump_file
	movq	$40, %rdi
	callq	timevar_pop
.LBB18_82:                              # %if.end309
	movq	$41, %rdi
	callq	timevar_push
	movq	$7, %rdi
	movq	%r12, %rsi
	callq	open_dump_file
	callq	convert_from_ssa
	callq	max_reg_num
	movq	$1, %rdx
	movq	%r14, %rdi
	movq	%rax, %rsi
	callq	reg_scan
	movabsq	$print_rtl_with_bb, %rsi
	movq	$7, %rdi
	movq	%r14, %rdx
	callq	close_dump_file
	movq	$41, %rdi
	callq	timevar_pop
	callq	ggc_collect
	callq	free_bb_for_insn
.LBB18_83:                              # %if.end312
	movq	$13, %rdi
	callq	timevar_push
	movslq	optimize(%rip), %rax
	testq	%rax, %rax
	jle	.LBB18_88
# BB#84:                                # %if.then315
	callq	max_reg_num
	movq	rtl_dump_file(%rip), %rdx
	movq	%r14, %rdi
	movq	%rax, %rsi
	callq	find_basic_blocks
	movl	flag_thread_jumps(%rip), %eax
	testq	%rax, %rax
	movq	$81, %rdi
	jne	.LBB18_86
# BB#85:                                # %select.mid
	movq	$17, %rdi
.LBB18_86:                              # %select.end
	callq	cleanup_cfg
	movq	$21, %rdi
	callq	timevar_push
	xorq	%rdi, %rdi
	callq	if_convert
	movq	$21, %rdi
	callq	timevar_pop
	callq	free_bb_for_insn
	movl	flag_delete_null_pointer_checks(%rip), %eax
	testq	%rax, %rax
	je	.LBB18_88
# BB#87:                                # %if.then322
	movq	%r14, %rdi
	callq	delete_null_pointer_checks
.LBB18_88:                              # %if.end324
	movq	rtl_dump_file(%rip), %rdi
	callq	renumber_insns
	movq	$13, %rdi
	callq	timevar_pop
	movabsq	$print_rtl, %rsi
	movq	$3, %rdi
	movq	%r14, %rdx
	callq	close_dump_file
	callq	ggc_collect
	movslq	optimize(%rip), %rax
	testq	%rax, %rax
	jle	.LBB18_103
# BB#89:                                # %if.then327
	movq	$8, %rdi
	movq	%r12, %rsi
	callq	open_dump_file
	movq	$14, %rdi
	callq	timevar_push
	callq	max_reg_num
	movq	$1, %rdx
	movq	%r14, %rdi
	movq	%rax, %rsi
	callq	reg_scan
	callq	max_reg_num
	movq	rtl_dump_file(%rip), %rcx
	xorq	%rdx, %rdx
	xorq	%rbx, %rbx
	movq	%r14, %rdi
	movq	%rax, %rsi
	callq	cse_main
	movl	flag_rerun_cse_after_loop(%rip), %ecx
	testq	%rcx, %rcx
	jne	.LBB18_93
# BB#90:                                # %land.rhs
	movl	flag_gcse(%rip), %ecx
	testq	%rcx, %rcx
	jne	.LBB18_91
# BB#92:                                # %land.rhs
	movabsq	$1, %rbx
	jmp	.LBB18_93
.LBB18_91:
	movabsq	$0, %rbx
.LBB18_93:                              # %land.end
	movl	%ebx, cse_not_expected(%rip)
	testq	%r15, %rax
	jne	.LBB18_95
# BB#94:                                # %land.end
	movl	optimize(%rip), %eax
	movq	$32, %rcx
	shlq	%cl, %rax
	movq	$32, %rcx
	sarq	%cl, %rax
	cmpq	$2, %rax
	jl	.LBB18_96
.LBB18_95:                              # %if.then340
	movq	$13, %rdi
	callq	timevar_push
	movq	%r14, %rdi
	callq	rebuild_jump_labels
	callq	max_reg_num
	movq	rtl_dump_file(%rip), %rdx
	movq	%r14, %rdi
	movq	%rax, %rsi
	callq	find_basic_blocks
	movq	$17, %rdi
	callq	cleanup_cfg
	movq	$13, %rdi
	callq	timevar_pop
	callq	free_bb_for_insn
.LBB18_96:                              # %if.end343
	callq	max_reg_num
	xorq	%rdx, %rdx
	movq	%r14, %rdi
	movq	%rax, %rsi
	callq	delete_trivially_dead_insns
	movl	flag_delete_null_pointer_checks(%rip), %eax
	movl	flag_thread_jumps(%rip), %ecx
	orq	%rax, %rcx
	testq	%r15, %rcx
	je	.LBB18_102
# BB#97:                                # %if.then348
	movq	$13, %rdi
	callq	timevar_push
	callq	max_reg_num
	movq	rtl_dump_file(%rip), %rdx
	movq	%r14, %rdi
	movq	%rax, %rsi
	callq	find_basic_blocks
	movl	flag_thread_jumps(%rip), %eax
	testq	%rax, %rax
	movq	$81, %rdi
	jne	.LBB18_99
# BB#98:                                # %select.mid19
	movq	$17, %rdi
.LBB18_99:                              # %select.end18
	callq	cleanup_cfg
	movl	flag_delete_null_pointer_checks(%rip), %eax
	testq	%rax, %rax
	je	.LBB18_101
# BB#100:                               # %if.then355
	movq	%r14, %rdi
	callq	delete_null_pointer_checks
.LBB18_101:                             # %if.end356
	callq	free_bb_for_insn
	movq	$13, %rdi
	callq	timevar_pop
.LBB18_102:                             # %if.end357
	movq	rtl_dump_file(%rip), %rdi
	callq	renumber_insns
	movq	$14, %rdi
	callq	timevar_pop
	movabsq	$print_rtl, %rsi
	movq	$8, %rdi
	movq	%r14, %rdx
	callq	close_dump_file
.LBB18_103:                             # %if.end358
	movq	$9, %rdi
	movq	%r12, %rsi
	callq	open_dump_file
	movq	%r14, %rdi
	callq	purge_addressof
	callq	max_reg_num
	movq	$1, %rdx
	movq	%r14, %rdi
	movq	%rax, %rsi
	callq	reg_scan
	movabsq	$print_rtl, %rsi
	movq	$9, %rdi
	movq	%r14, %rdx
	callq	close_dump_file
	callq	ggc_collect
	movslq	optimize(%rip), %rax
	testq	%rax, %rax
	jle	.LBB18_114
# BB#104:                               # %if.end358
	movl	flag_gcse(%rip), %ecx
	testq	%r15, %rcx
	je	.LBB18_114
# BB#105:                               # %if.then365
	movq	$15, %rdi
	callq	timevar_push
	movq	$10, %rdi
	movq	%r12, %rsi
	callq	open_dump_file
	callq	max_reg_num
	movq	rtl_dump_file(%rip), %rdx
	movq	%r14, %rdi
	movq	%rax, %rsi
	callq	find_basic_blocks
	movq	$17, %rdi
	callq	cleanup_cfg
	movq	rtl_dump_file(%rip), %rsi
	movq	%r14, %rdi
	callq	gcse_main
	movq	%rax, (%rsp)            # 8-byte Spill
	movq	%r14, %rdi
	callq	rebuild_jump_labels
	xorq	%rbx, %rbx
	movl	%ebx, flag_cse_follow_jumps(%rip)
	movl	%ebx, flag_cse_skip_blocks(%rip)
	callq	free_bb_for_insn
	movl	flag_expensive_optimizations(%rip), %eax
	testq	%rax, %rax
	je	.LBB18_110
# BB#106:                               # %if.then371
	movq	$14, %rdi
	callq	timevar_push
	callq	max_reg_num
	movq	$1, %rdx
	movq	%r14, %rdi
	movq	%rax, %rsi
	callq	reg_scan
	callq	max_reg_num
	movq	rtl_dump_file(%rip), %rcx
	xorq	%rdx, %rdx
	movq	%r14, %rdi
	movq	%rax, %rsi
	callq	cse_main
	movq	%rax, %rbx
	movq	$14, %rdi
	callq	timevar_pop
	movl	flag_rerun_cse_after_loop(%rip), %eax
	testq	%rax, %rax
	jne	.LBB18_107
# BB#108:                               # %if.then371
	movabsq	$1, %rax
	jmp	.LBB18_109
.LBB18_107:
	movabsq	$0, %rax
.LBB18_109:                             # %if.then371
	movl	%eax, cse_not_expected(%rip)
.LBB18_110:                             # %while.cond.preheader
	movq	(%rsp), %rax            # 8-byte Reload
	orq	%rbx, %rax
	testq	%r15, %rax
	je	.LBB18_113
.LBB18_111:                             # %while.body
                                        # =>This Inner Loop Header: Depth=1
	movq	$13, %rdi
	callq	timevar_push
	movq	%r14, %rdi
	callq	rebuild_jump_labels
	callq	max_reg_num
	xorq	%rdx, %rdx
	movq	%r14, %rdi
	movq	%rax, %rsi
	callq	delete_trivially_dead_insns
	callq	max_reg_num
	movq	rtl_dump_file(%rip), %rdx
	movq	%r14, %rdi
	movq	%rax, %rsi
	callq	find_basic_blocks
	movq	$17, %rdi
	callq	cleanup_cfg
	callq	free_bb_for_insn
	movq	$13, %rdi
	callq	timevar_pop
	movl	flag_expensive_optimizations(%rip), %eax
	testq	%rax, %rax
	je	.LBB18_113
# BB#112:                               # %while.cond.backedge
                                        #   in Loop: Header=BB18_111 Depth=1
	movq	$14, %rdi
	callq	timevar_push
	callq	max_reg_num
	movq	$1, %rdx
	movq	%r14, %rdi
	movq	%rax, %rsi
	callq	reg_scan
	callq	max_reg_num
	movq	rtl_dump_file(%rip), %rcx
	xorq	%rdx, %rdx
	movq	%r14, %rdi
	movq	%rax, %rsi
	callq	cse_main
	movq	%rax, %rbx
	movq	$14, %rdi
	callq	timevar_pop
	testq	%r15, %rbx
	jne	.LBB18_111
.LBB18_113:                             # %while.end
	movabsq	$print_rtl, %rsi
	movq	$10, %rdi
	movq	%r14, %rdx
	callq	close_dump_file
	movq	$15, %rdi
	callq	timevar_pop
	callq	ggc_collect
	movl	optimize(%rip), %eax
	movl	flag_cse_skip_blocks(%rip), %ecx
	movl	%ecx, flag_cse_skip_blocks(%rip)
	movl	flag_cse_follow_jumps(%rip), %ecx
	movl	%ecx, flag_cse_follow_jumps(%rip)
.LBB18_114:                             # %if.end390
	movq	$32, %rcx
	shlq	%cl, %rax
	movq	$32, %rcx
	sarq	%cl, %rax
	testq	%rax, %rax
	jle	.LBB18_127
# BB#115:                               # %if.then393
	movq	$16, %rdi
	callq	timevar_push
	movq	$11, %rdi
	movq	%r12, %rsi
	callq	open_dump_file
	callq	free_bb_for_insn
	movl	flag_rerun_loop_opt(%rip), %eax
	testq	%rax, %rax
	je	.LBB18_117
# BB#116:                               # %if.then396
	callq	cleanup_barriers
	movq	rtl_dump_file(%rip), %rsi
	movq	$8, %rdx
	movq	%r14, %rdi
	callq	loop_optimize
	callq	max_reg_num
	xorq	%rdx, %rdx
	movq	%r14, %rdi
	movq	%rax, %rsi
	callq	delete_trivially_dead_insns
	callq	max_reg_num
	movq	$1, %rdx
	movq	%r14, %rdi
	movq	%rax, %rsi
	callq	reg_scan
.LBB18_117:                             # %if.end406
	callq	cleanup_barriers
	movl	flag_unroll_loops(%rip), %eax
	movq	rtl_dump_file(%rip), %rsi
	testq	%rax, %rax
	je	.LBB18_118
# BB#119:                               # %if.end406
	movabsq	$1, %rdx
	jmp	.LBB18_120
.LBB18_118:
	movabsq	$0, %rdx
.LBB18_120:                             # %if.end406
	movl	flag_prefetch_loop_arrays(%rip), %eax
	testq	%rax, %rax
	movq	$4, %rax
	jne	.LBB18_122
# BB#121:                               # %select.mid21
	xorq	%rax, %rax
.LBB18_122:                             # %select.end20
	orq	%rax, %rdx
	orq	$2, %rdx
	movq	%r14, %rdi
	callq	loop_optimize
	movabsq	$print_rtl, %rsi
	movq	$11, %rdi
	movq	%r14, %rdx
	callq	close_dump_file
	movq	$16, %rdi
	callq	timevar_pop
	callq	ggc_collect
	movslq	optimize(%rip), %rax
	testq	%rax, %rax
	jle	.LBB18_127
# BB#123:                               # %if.then409
	movq	$17, %rdi
	callq	timevar_push
	movq	$12, %rdi
	movq	%r12, %rsi
	callq	open_dump_file
	movl	flag_rerun_cse_after_loop(%rip), %eax
	testq	%rax, %rax
	je	.LBB18_126
# BB#124:                               # %if.then412
	movq	$13, %rdi
	callq	timevar_push
	callq	max_reg_num
	xorq	%rdx, %rdx
	movq	%r14, %rdi
	movq	%rax, %rsi
	callq	delete_trivially_dead_insns
	callq	max_reg_num
	xorq	%rdx, %rdx
	movq	%r14, %rdi
	movq	%rax, %rsi
	callq	reg_scan
	movq	$21, %rdi
	callq	timevar_push
	callq	max_reg_num
	movq	rtl_dump_file(%rip), %rdx
	movq	%r14, %rdi
	movq	%rax, %rsi
	callq	find_basic_blocks
	movq	$1, %rdi
	callq	cleanup_cfg
	xorq	%rdi, %rdi
	callq	if_convert
	movq	$21, %rdi
	callq	timevar_pop
	movq	$13, %rdi
	callq	timevar_pop
	callq	free_bb_for_insn
	callq	max_reg_num
	xorq	%rdx, %rdx
	movq	%r14, %rdi
	movq	%rax, %rsi
	callq	reg_scan
	callq	max_reg_num
	movq	rtl_dump_file(%rip), %rcx
	movq	$1, %rdx
	movq	%r14, %rdi
	movq	%rax, %rsi
	callq	cse_main
	testq	%r15, %rax
	je	.LBB18_126
# BB#125:                               # %if.then421
	movq	$13, %rdi
	callq	timevar_push
	movq	%r14, %rdi
	callq	rebuild_jump_labels
	callq	max_reg_num
	movq	rtl_dump_file(%rip), %rdx
	movq	%r14, %rdi
	movq	%rax, %rsi
	callq	find_basic_blocks
	movq	$1, %rdi
	callq	cleanup_cfg
	callq	free_bb_for_insn
	movq	$13, %rdi
	callq	timevar_pop
.LBB18_126:                             # %if.end425
	movabsq	$print_rtl, %rsi
	movq	$12, %rdi
	movq	%r14, %rdx
	callq	close_dump_file
	movq	$17, %rdi
	callq	timevar_pop
	callq	ggc_collect
.LBB18_127:                             # %if.end426
	movq	$1, %rax
	movl	%eax, cse_not_expected(%rip)
	callq	regclass_init
	movq	$19, %rdi
	callq	timevar_push
	movq	$13, %rdi
	movq	%r12, %rsi
	callq	open_dump_file
	callq	max_reg_num
	movq	rtl_dump_file(%rip), %rdx
	movq	%r14, %rdi
	movq	%rax, %rsi
	callq	find_basic_blocks
	movl	optimize(%rip), %eax
	testq	%rax, %rax
	je	.LBB18_128
# BB#129:                               # %if.end426
	movabsq	$1, %rax
	jmp	.LBB18_130
.LBB18_128:
	movabsq	$0, %rax
.LBB18_130:                             # %if.end426
	movl	flag_thread_jumps(%rip), %ecx
	testq	%rcx, %rcx
	movq	$64, %rdi
	jne	.LBB18_132
# BB#131:                               # %select.mid23
	xorq	%rdi, %rdi
.LBB18_132:                             # %select.end22
	orq	%rax, %rdi
	callq	cleanup_cfg
	callq	check_function_return_warnings
	callq	mark_constant_function
	movabsq	$print_rtl_with_bb, %rsi
	movq	$13, %rdi
	movq	%r14, %rdx
	callq	close_dump_file
	movl	profile_arc_flag(%rip), %eax
	movl	flag_test_coverage(%rip), %ecx
	movl	flag_branch_probabilities(%rip), %edx
	orq	%rax, %rcx
	orq	%rcx, %rdx
	testq	%r15, %rdx
	je	.LBB18_134
# BB#133:                               # %if.then440
	movq	$18, %rdi
	callq	timevar_push
	movq	$14, %rdi
	movq	%r12, %rsi
	callq	open_dump_file
	callq	branch_prob
	movabsq	$print_rtl_with_bb, %rsi
	movq	$14, %rdi
	movq	%r14, %rdx
	callq	close_dump_file
	movq	$18, %rdi
	callq	timevar_pop
.LBB18_134:                             # %if.end442
	movq	$15, %rdi
	movq	%r12, %rsi
	callq	open_dump_file
	movl	optimize(%rip), %eax
	testq	%rax, %rax
	je	.LBB18_140
# BB#135:                               # %if.then445
	leaq	8(%rsp), %rdi
	movq	$1, %rsi
	callq	flow_loops_find
	movl	flag_guess_branch_prob(%rip), %eax
	testq	%rax, %rax
	je	.LBB18_137
# BB#136:                               # %if.then448
	leaq	8(%rsp), %rdi
	callq	estimate_probability
.LBB18_137:                             # %if.end449
	movq	rtl_dump_file(%rip), %rsi
	testq	%rsi, %rsi
	je	.LBB18_139
# BB#138:                               # %if.then451
	leaq	8(%rsp), %rdi
	xorq	%rdx, %rdx
	xorq	%rcx, %rcx
	callq	flow_loops_dump
.LBB18_139:                             # %if.end452
	leaq	8(%rsp), %rdi
	callq	flow_loops_free
.LBB18_140:                             # %if.end453
	movq	rtl_dump_file(%rip), %rsi
	movq	$127, %rdx
	movq	%r14, %rdi
	callq	life_analysis
	movq	$19, %rdi
	callq	timevar_pop
	movl	warn_uninitialized(%rip), %eax
	movl	extra_warnings(%rip), %ecx
	movq	$1, %rdx
	movl	%edx, no_new_pseudos(%rip)
	orq	%rax, %rcx
	testq	%r15, %rcx
	je	.LBB18_143
# BB#141:                               # %if.then457
	movq	104(%r12), %rdi
	callq	uninitialized_vars_warning
	movl	extra_warnings(%rip), %eax
	testq	%rax, %rax
	je	.LBB18_143
# BB#142:                               # %if.then461
	callq	setjmp_args_warning
.LBB18_143:                             # %if.end463
	movl	optimize(%rip), %eax
	testq	%rax, %rax
	je	.LBB18_146
# BB#144:                               # %if.then465
	callq	initialize_uninitialized_subregs
	testq	%r15, %rax
	je	.LBB18_146
# BB#145:                               # %if.then468
	callq	get_insns
	movq	rtl_dump_file(%rip), %rsi
	movq	%rax, %r14
	movq	$7, %rdx
	movq	%r14, %rdi
	callq	life_analysis
.LBB18_146:                             # %if.end471
	movabsq	$print_rtl_with_bb, %rsi
	movq	$15, %rdi
	movq	%r14, %rdx
	callq	close_dump_file
	callq	ggc_collect
	movslq	optimize(%rip), %rax
	testq	%rax, %rax
	jle	.LBB18_153
# BB#147:                               # %if.then474
	movq	$20, %rdi
	callq	timevar_push
	movq	$16, %rdi
	movq	%r12, %rsi
	callq	open_dump_file
	callq	max_reg_num
	movq	%r14, %rdi
	movq	%rax, %rsi
	callq	combine_instructions
	movq	%rax, %rbx
	movq	$1, %rdi
	callq	purge_all_dead_edges
	orq	%rbx, %rax
	testq	%r15, %rax
	je	.LBB18_149
# BB#148:                               # %if.then482
	movq	$13, %rdi
	callq	timevar_push
	movq	%r14, %rdi
	callq	rebuild_jump_labels
	movq	$13, %rdi
	callq	timevar_pop
	movq	$33, %rdi
	callq	cleanup_cfg
.LBB18_149:                             # %if.end485
	movabsq	$print_rtl_with_bb, %rsi
	movq	$16, %rdi
	movq	%r14, %rdx
	callq	close_dump_file
	movq	$20, %rdi
	callq	timevar_pop
	callq	ggc_collect
	movslq	optimize(%rip), %rax
	testq	%rax, %rax
	jle	.LBB18_153
# BB#150:                               # %if.end490
	movq	$21, %rdi
	callq	timevar_push
	movq	$17, %rdi
	movq	%r12, %rsi
	callq	open_dump_file
	xorq	%rax, %rax
	movl	%eax, no_new_pseudos(%rip)
	movq	$1, %rdi
	movq	$1, %rbx
	callq	if_convert
	movl	%ebx, no_new_pseudos(%rip)
	movabsq	$print_rtl_with_bb, %rsi
	movq	$17, %rdi
	movq	%r14, %rdx
	callq	close_dump_file
	movq	$21, %rdi
	callq	timevar_pop
	movslq	optimize(%rip), %rax
	testq	%rax, %rax
	jle	.LBB18_153
# BB#151:                               # %land.lhs.true493
	movl	flag_regmove(%rip), %eax
	movl	flag_expensive_optimizations(%rip), %ecx
	orq	%rax, %rcx
	testq	%r15, %rcx
	je	.LBB18_153
# BB#152:                               # %if.then497
	movq	$22, %rdi
	callq	timevar_push
	movq	$18, %rdi
	movq	%r12, %rsi
	callq	open_dump_file
	callq	max_reg_num
	movq	rtl_dump_file(%rip), %rdx
	movq	%r14, %rdi
	movq	%rax, %rsi
	callq	regmove_optimize
	movabsq	$print_rtl_with_bb, %rsi
	movq	$18, %rdi
	movq	%r14, %rdx
	callq	close_dump_file
	movq	$22, %rdi
	callq	timevar_pop
	callq	ggc_collect
.LBB18_153:                             # %if.end500
	movq	$1, %rdi
	callq	split_all_insns
	movq	$23, %rdi
	callq	timevar_push
	xorq	%rax, %rax
	movl	%eax, no_new_pseudos(%rip)
	xorq	%rdi, %rdi
	callq	optimize_mode_switching
	testq	%r15, %rax
	je	.LBB18_154
# BB#155:                               # %if.end500
	movabsq	$1, %rbx
	jmp	.LBB18_156
.LBB18_154:
	movabsq	$0, %rbx
.LBB18_156:                             # %if.end500
	movq	$1, %rax
	movl	%eax, no_new_pseudos(%rip)
	movq	$23, %rdi
	callq	timevar_pop
	movq	$24, %rdi
	callq	timevar_push
	movslq	optimize(%rip), %rax
	testq	%rax, %rax
	jle	.LBB18_159
# BB#157:                               # %if.end500
	movl	flag_schedule_insns(%rip), %eax
	testq	%r15, %rax
	je	.LBB18_159
# BB#158:                               # %if.then509
	movq	$19, %rdi
	movq	%r12, %rsi
	callq	open_dump_file
	movq	rtl_dump_file(%rip), %rdi
	callq	schedule_insns
	movabsq	$print_rtl_with_bb, %rsi
	movq	$19, %rdi
	movq	%r14, %rdx
	callq	close_dump_file
	movq	$1, %rbx
.LBB18_159:                             # %if.end511
	movq	$24, %rdi
	callq	timevar_pop
	callq	ggc_collect
	callq	leaf_function_p
	movl	%eax, current_function_is_leaf(%rip)
	movq	$25, %rdi
	callq	timevar_push
	movq	$20, %rdi
	movq	%r12, %rsi
	callq	open_dump_file
	testq	%rbx, %rbx
	jne	.LBB18_164
# BB#160:                               # %if.then515
	movl	optimize_size(%rip), %eax
	testq	%rax, %rax
	jne	.LBB18_161
# BB#162:                               # %if.then515
	movabsq	$1, %rsi
	jmp	.LBB18_163
.LBB18_161:
	movabsq	$0, %rsi
.LBB18_163:                             # %if.then515
	movq	%r14, %rdi
	callq	recompute_reg_usage
.LBB18_164:                             # %if.end519
	movslq	max_regno(%rip), %rdi
	xorq	%rsi, %rsi
	movq	$1, %rdx
	callq	allocate_reg_info
	movslq	max_regno(%rip), %rdi
	movq	$8, %rsi
	callq	xcalloc
	movq	%rax, reg_equiv_memory_loc(%rip)
	movq	%rax, %rdi
	callq	allocate_initial_values
	callq	max_reg_num
	movq	rtl_dump_file(%rip), %rdx
	movq	%r14, %rdi
	movq	%rax, %rsi
	callq	regclass
	callq	local_alloc
	movq	%rax, %rbx
	movq	$25, %rdi
	callq	timevar_pop
	movzbl	dump_file+330(%rip), %eax
	testq	%rax, %rax
	je	.LBB18_166
# BB#165:                               # %if.then526
	movq	$2, %rdi
	callq	timevar_push
	movq	rtl_dump_file(%rip), %rdi
	callq	dump_flow_info
	movq	rtl_dump_file(%rip), %rdi
	callq	dump_local_alloc
	movabsq	$print_rtl_with_bb, %rsi
	movq	$20, %rdi
	movq	%r14, %rdx
	callq	close_dump_file
	movq	$2, %rdi
	callq	timevar_pop
.LBB18_166:                             # %if.end527
	movq	%rbx, (%rsp)            # 8-byte Spill
	callq	ggc_collect
	movq	$26, %rdi
	callq	timevar_push
	movq	$21, %rdi
	movq	%r12, %rsi
	callq	open_dump_file
	movl	optimize(%rip), %eax
	testq	%rax, %rax
	je	.LBB18_168
# BB#167:                               # %if.then530
	movq	rtl_dump_file(%rip), %rdi
	callq	global_alloc
	jmp	.LBB18_169
.LBB18_168:                             # %if.else532
	movq	%r14, %rdi
	callq	build_insn_chain
	xorq	%rsi, %rsi
	movq	%r14, %rdi
	callq	reload
.LBB18_169:                             # %if.end534
	movq	%rax, %rbx
	movq	$26, %rdi
	callq	timevar_pop
	movzbl	dump_file+346(%rip), %eax
	testq	%rax, %rax
	je	.LBB18_171
# BB#170:                               # %if.then536
	movq	$2, %rdi
	callq	timevar_push
	movq	rtl_dump_file(%rip), %rdi
	callq	dump_global_regs
	movabsq	$print_rtl_with_bb, %rsi
	movq	$21, %rdi
	movq	%r14, %rdx
	callq	close_dump_file
	movq	$2, %rdi
	callq	timevar_pop
.LBB18_171:                             # %if.end537
	testq	%r15, %rbx
	jne	.LBB18_221
# BB#172:                               # %if.end540
	callq	ggc_collect
	movq	$22, %rdi
	movq	%r12, %rsi
	callq	open_dump_file
	movslq	optimize(%rip), %rax
	testq	%rax, %rax
	movq	(%rsp), %rbx            # 8-byte Reload
	jle	.LBB18_174
# BB#173:                               # %if.then544
	movq	$27, %rdi
	callq	timevar_push
	movq	%r14, %rdi
	callq	reload_cse_regs
	movq	$27, %rdi
	callq	timevar_pop
.LBB18_174:                             # %if.end545
	testq	%r15, %rbx
	je	.LBB18_176
# BB#175:                               # %if.then547
	movq	$13, %rdi
	callq	timevar_push
	movq	%r14, %rdi
	callq	rebuild_jump_labels
	movq	$13, %rdi
	callq	timevar_pop
.LBB18_176:                             # %if.end548
	movabsq	$print_rtl_with_bb, %rsi
	movq	$22, %rdi
	movq	%r14, %rdx
	callq	close_dump_file
	movq	$28, %rdi
	callq	timevar_push
	movq	$23, %rdi
	movq	%r12, %rsi
	callq	open_dump_file
	movslq	optimize(%rip), %rax
	testq	%rax, %rax
	jle	.LBB18_178
# BB#177:                               # %if.then552
	xorq	%rdi, %rdi
	callq	split_all_insns
	movl	optimize(%rip), %eax
.LBB18_178:                             # %if.end553
	testq	%r15, %rax
	je	.LBB18_179
# BB#180:                               # %if.end553
	movabsq	$1, %rdi
	jmp	.LBB18_181
.LBB18_179:
	movabsq	$0, %rdi
.LBB18_181:                             # %if.end553
	callq	cleanup_cfg
	movq	%r14, %rdi
	callq	thread_prologue_and_epilogue_insns
	movslq	n_basic_blocks(%rip), %rsi
	cmpq	$1001, %rsi             # imm = 0x3E9
	movq	$3, %rdi
	jl	.LBB18_186
# BB#182:                               # %land.lhs.true559
	movslq	n_edges(%rip), %rax
	cqto
	idivq	%rsi
	movq	%rax, %rdx
	movq	$32, %rcx
                                        # kill: RAX<def> RDX<kill>
	shlq	%cl, %rax
	movq	$32, %rcx
	sarq	%cl, %rax
	cmpq	$20, %rax
	jl	.LBB18_186
# BB#183:                               # %if.then562
	movl	optimize(%rip), %eax
	testq	%rax, %rax
	movq	$1, %rdi
	je	.LBB18_187
# BB#184:                               # %if.then562
	movl	warn_disabled_optimization(%rip), %ecx
	testq	%r15, %rcx
	je	.LBB18_187
# BB#185:                               # %if.then566
	movabsq	$.L.str13, %rdi
	xorq	%rax, %rax
	callq	warning
	movq	$1, %rdi
.LBB18_186:                             # %if.end569thread-pre-split
	movl	optimize(%rip), %eax
.LBB18_187:                             # %if.end569
	testq	%r15, %rax
	je	.LBB18_189
# BB#188:                               # %if.then571
	callq	cleanup_cfg
	movq	rtl_dump_file(%rip), %rsi
	movq	$127, %rdx
	movq	%r14, %rdi
	callq	life_analysis
	callq	combine_stack_adjustments
	callq	ggc_collect
.LBB18_189:                             # %if.end574
	movq	$1, %rax
	movl	%eax, flow2_completed(%rip)
	movabsq	$print_rtl_with_bb, %rsi
	movq	$23, %rdi
	movq	%r14, %rdx
	callq	close_dump_file
	movq	$28, %rdi
	callq	timevar_pop
	movslq	optimize(%rip), %rax
	testq	%rax, %rax
	jle	.LBB18_192
# BB#190:                               # %if.end574
	movl	flag_peephole2(%rip), %ecx
	testq	%r15, %rcx
	je	.LBB18_192
# BB#191:                               # %if.then579
	movq	$30, %rdi
	callq	timevar_push
	movq	$24, %rdi
	movq	%r12, %rsi
	callq	open_dump_file
	movq	rtl_dump_file(%rip), %rdi
	callq	peephole2_optimize
	movabsq	$print_rtl_with_bb, %rsi
	movq	$24, %rdi
	movq	%r14, %rdx
	callq	close_dump_file
	movq	$30, %rdi
	callq	timevar_pop
	movl	optimize(%rip), %eax
.LBB18_192:                             # %if.end581
	movq	$32, %rcx
	movq	%rax, %rdx
	shlq	%cl, %rdx
	movq	$32, %rcx
	sarq	%cl, %rdx
	testq	%rdx, %rdx
	jle	.LBB18_201
# BB#193:                               # %land.lhs.true584
	movl	flag_rename_registers(%rip), %ecx
	movl	flag_cprop_registers(%rip), %edx
	orq	%rcx, %rdx
	testq	%r15, %rdx
	je	.LBB18_199
# BB#194:                               # %if.then588
	movq	$31, %rdi
	callq	timevar_push
	movq	$25, %rdi
	movq	%r12, %rsi
	callq	open_dump_file
	movl	flag_rename_registers(%rip), %eax
	testq	%rax, %rax
	je	.LBB18_196
# BB#195:                               # %if.then591
	callq	regrename_optimize
.LBB18_196:                             # %if.end592
	movl	flag_cprop_registers(%rip), %eax
	testq	%rax, %rax
	je	.LBB18_198
# BB#197:                               # %if.then594
	callq	copyprop_hardreg_forward
.LBB18_198:                             # %if.end595
	movabsq	$print_rtl_with_bb, %rsi
	movq	$25, %rdi
	movq	%r14, %rdx
	callq	close_dump_file
	movq	$31, %rdi
	callq	timevar_pop
	movl	optimize(%rip), %eax
.LBB18_199:                             # %if.end596
	movq	$32, %rcx
	movq	%rax, %rdx
	shlq	%cl, %rdx
	movq	$32, %rcx
	sarq	%cl, %rdx
	testq	%rdx, %rdx
	jle	.LBB18_201
# BB#200:                               # %if.then599
	movq	$29, %rdi
	callq	timevar_push
	movq	$26, %rdi
	movq	%r12, %rsi
	callq	open_dump_file
	movq	$1, %rdi
	callq	if_convert
	movabsq	$print_rtl_with_bb, %rsi
	movq	$26, %rdi
	movq	%r14, %rdx
	callq	close_dump_file
	movq	$29, %rdi
	callq	timevar_pop
	movl	optimize(%rip), %eax
.LBB18_201:                             # %if.end601
	testq	%r15, %rax
	je	.LBB18_205
# BB#202:                               # %if.end604
	movq	$1, %rdi
	callq	split_all_insns
	movslq	optimize(%rip), %rax
	testq	%rax, %rax
	jle	.LBB18_205
# BB#203:                               # %if.end604
	movl	flag_schedule_insns_after_reload(%rip), %eax
	testq	%r15, %rax
	je	.LBB18_205
# BB#204:                               # %if.then609
	movq	$32, %rdi
	callq	timevar_push
	movq	$27, %rdi
	movq	%r12, %rsi
	callq	open_dump_file
	movq	$1, %rdi
	callq	split_all_insns
	movq	rtl_dump_file(%rip), %rdi
	callq	schedule_insns
	movabsq	$print_rtl_with_bb, %rsi
	movq	$27, %rdi
	movq	%r14, %rdx
	callq	close_dump_file
	movq	$32, %rdi
	callq	timevar_pop
	callq	ggc_collect
.LBB18_205:                             # %if.end611
	movq	$37, %rdi
	callq	timevar_push
	movq	$28, %rdi
	movq	%r12, %rsi
	callq	open_dump_file
	movq	rtl_dump_file(%rip), %rsi
	movq	%r14, %rdi
	callq	reg_to_stack
	movabsq	$print_rtl_with_bb, %rsi
	movq	$28, %rdi
	movq	%r14, %rdx
	callq	close_dump_file
	movq	$37, %rdi
	callq	timevar_pop
	callq	ggc_collect
	movslq	optimize(%rip), %rax
	testq	%rax, %rax
	jle	.LBB18_209
# BB#206:                               # %if.then615
	movq	$35, %rdi
	callq	timevar_push
	movq	$29, %rdi
	movq	%r12, %rsi
	callq	open_dump_file
	movq	$5, %rdi
	callq	cleanup_cfg
	movl	flag_reorder_blocks(%rip), %eax
	testq	%rax, %rax
	je	.LBB18_208
# BB#207:                               # %if.then619
	callq	reorder_basic_blocks
	movq	$5, %rdi
	callq	cleanup_cfg
.LBB18_208:                             # %if.end621
	movabsq	$print_rtl_with_bb, %rsi
	movq	$29, %rdi
	movq	%r14, %rdx
	callq	close_dump_file
	movq	$35, %rdi
	callq	timevar_pop
.LBB18_209:                             # %if.end622
	callq	compute_alignments
	callq	free_bb_for_insn
	movq	%r14, %rdi
	callq	purge_line_number_notes
	callq	cleanup_barriers
	callq	convert_to_eh_region_ranges
	movq	$36, %rdi
	callq	timevar_push
	callq	get_insns
	movq	%rax, %rdi
	callq	shorten_branches
	movq	$36, %rdi
	callq	timevar_pop
	callq	nothrow_function_p
	testq	%rax, %rax
	movl	%eax, current_function_nothrow(%rip)
	je	.LBB18_211
# BB#210:                               # %if.then627
	movq	current_function_decl(%rip), %rax
	movl	16(%rax), %ecx
	orq	$131072, %rcx           # imm = 0x20000
	movl	%ecx, 16(%rax)
.LBB18_211:                             # %if.end633
	movq	$42, %rdi
	callq	timevar_push
	movq	144(%r12), %rax
	testq	%rax, %rax
	jne	.LBB18_213
# BB#212:                               # %cond.false639
	xorq	%rsi, %rsi
	movq	%r12, %rdi
	callq	make_decl_rtl
	movq	144(%r12), %rax
.LBB18_213:                             # %cond.end642
	movzbl	(%rax), %ecx
	cmpq	$66, %rcx
	jne	.LBB18_214
# BB#216:                               # %if.end649
	movq	8(%rax), %rax
	movzbl	(%rax), %ecx
	cmpq	$68, %rcx
	jne	.LBB18_217
# BB#218:                               # %if.end656
	movq	8(%rax), %rbx
	movq	%r12, %rdi
	movq	%rbx, %rsi
	callq	assemble_start_function
	movq	asm_out_file(%rip), %rsi
	movl	optimize(%rip), %edx
	movq	%r14, %rdi
	callq	final_start_function
	movq	asm_out_file(%rip), %rsi
	movl	optimize(%rip), %edx
	xorq	%rcx, %rcx
	movq	%r14, %rdi
	callq	final
	callq	final_end_function
	movq	%r12, %rdi
	movq	%rbx, %rsi
	callq	assemble_end_function
	callq	output_function_exception_table
	movl	quiet_flag(%rip), %eax
	testq	%rax, %rax
	jne	.LBB18_220
# BB#219:                               # %if.then660
	movq	asm_out_file(%rip), %rdi
	callq	fflush
.LBB18_220:                             # %if.end662
	xorq	%rdi, %rdi
	callq	free_basic_block_vars
	callq	regset_release_memory
	movq	$42, %rdi
	callq	timevar_pop
	callq	ggc_collect
	movq	$43, %rdi
	callq	timevar_push
	movq	debug_hooks(%rip), %rax
	movq	%r12, %rdi
	callq	*120(%rax)
	movq	$43, %rdi
	callq	timevar_pop
	jmp	.LBB18_221
.LBB18_214:                             # %if.then648
	movabsq	$.L.str1, %rax
	movabsq	$.L__FUNCTION__.rest_of_compilation, %rcx
	movq	$3494, %rsi             # imm = 0xDA6
	jmp	.LBB18_215
.LBB18_217:                             # %if.then655
	movabsq	$.L.str1, %rax
	movabsq	$.L__FUNCTION__.rest_of_compilation, %rcx
	movq	$3497, %rsi             # imm = 0xDA9
.LBB18_215:                             # %if.then648
	movq	%rax, %rdi
	movq	%rcx, %rdx
	callq	fancy_abort
.Ltmp154:
	.size	rest_of_compilation, .Ltmp154-rest_of_compilation
	.cfi_endproc

	.align	16, 0x90
	.type	open_dump_file,@function
open_dump_file:                         # @open_dump_file
	.cfi_startproc
# BB#0:                                 # %entry
	pushq	%r15
.Ltmp161:
	.cfi_def_cfa_offset 16
	pushq	%r14
.Ltmp162:
	.cfi_def_cfa_offset 24
	pushq	%r13
.Ltmp163:
	.cfi_def_cfa_offset 32
	pushq	%r12
.Ltmp164:
	.cfi_def_cfa_offset 40
	pushq	%rbx
.Ltmp165:
	.cfi_def_cfa_offset 48
	subq	$16, %rsp
.Ltmp166:
	.cfi_def_cfa_offset 64
.Ltmp167:
	.cfi_offset %rbx, -48
.Ltmp168:
	.cfi_offset %r12, -40
.Ltmp169:
	.cfi_offset %r13, -32
.Ltmp170:
	.cfi_offset %r14, -24
.Ltmp171:
	.cfi_offset %r15, -16
	movq	%rdi, %r15
	movabsq	$4294967295, %r13       # imm = 0xFFFFFFFF
	andq	%r15, %r13
	movq	$4, %rcx
	movq	%r13, %rbx
	shlq	%cl, %rbx
	movzbl	dump_file+10(%rbx), %ecx
	movq	%rsi, %r14
	xorq	%rax, %rax
	testq	%rcx, %rcx
	je	.LBB19_13
# BB#1:                                 # %if.end
	movq	$2, %rdi
	callq	timevar_push
	movq	rtl_dump_file(%rip), %rdi
	testq	%rdi, %rdi
	je	.LBB19_3
# BB#2:                                 # %if.then1
	callq	fclose
.LBB19_3:                               # %if.end2
	leaq	dump_file(%rbx), %r12
	movabsq	$.L.str16, %rsi
	leaq	(%rsp), %rdi
	xorq	%rax, %rax
	movq	%r15, %rdx
	callq	sprintf
	movq	$4, %rcx
	movq	%r13, %r15
	shlq	%cl, %r15
	movzbl	dump_file+11(%r15), %eax
	testq	%rax, %rax
	je	.LBB19_5
# BB#4:
	movabsq	$.L.str693, %r15
	jmp	.LBB19_9
.LBB19_5:                               # %if.then7
	movl	graph_dump_format(%rip), %eax
	testq	%rax, %rax
	je	.LBB19_8
# BB#6:                                 # %land.lhs.true
	movq	$4, %rcx
	shlq	%cl, %r13
	movzbl	dump_file+9(%r13), %eax
	testq	%rax, %rax
	je	.LBB19_8
# BB#7:                                 # %if.then12
	movq	(%r12), %rsi
	leaq	(%rsp), %rdi
	xorq	%rdx, %rdx
	xorq	%rax, %rax
	callq	concat
	movq	dump_base_name(%rip), %rdi
	movq	%rax, %rbx
	movq	%rbx, %rsi
	callq	clean_graph_dump_file
	movq	%rbx, %rdi
	callq	free
.LBB19_8:                               # %if.end17
	leaq	dump_file+11(%r15), %rax
	movq	$1, %rcx
	movb	%cl, (%rax)
	movabsq	$.L.str22, %r15
.LBB19_9:                               # %if.end21
	movq	dump_base_name(%rip), %rdi
	movq	(%r12), %rdx
	leaq	(%rsp), %rsi
	xorq	%rcx, %rcx
	xorq	%rax, %rax
	callq	concat
	movq	%rax, %rbx
	movq	%rbx, %rdi
	movq	%r15, %rsi
	callq	fopen
	testq	%rax, %rax
	movq	%rax, rtl_dump_file(%rip)
	je	.LBB19_14
# BB#10:                                # %if.end31
	movq	%rbx, %rdi
	callq	free
	testq	%r14, %r14
	je	.LBB19_12
# BB#11:                                # %if.then33
	movq	rtl_dump_file(%rip), %rbx
	movq	$2, %rsi
	movq	%r14, %rdi
	callq	*decl_printable_name(%rip)
	movq	%rax, %rcx
	movabsq	$.L.str694, %rsi
	xorq	%rax, %rax
	movq	%rbx, %rdi
	movq	%rcx, %rdx
	callq	fprintf
.LBB19_12:                              # %if.end36
	movq	$2, %rdi
	callq	timevar_pop
	movq	$1, %rax
.LBB19_13:                              # %return
	addq	$16, %rsp
	popq	%rbx
	popq	%r12
	popq	%r13
	popq	%r14
	popq	%r15
	retq
.LBB19_14:                              # %if.then30
	movabsq	$.L.str350, %rcx
	xorq	%rax, %rax
	movq	%rcx, %rdi
	movq	%rbx, %rsi
	callq	fatal_io_error
.Ltmp172:
	.size	open_dump_file, .Ltmp172-open_dump_file
	.cfi_endproc

	.align	16, 0x90
	.type	close_dump_file,@function
close_dump_file:                        # @close_dump_file
	.cfi_startproc
# BB#0:                                 # %entry
	pushq	%r15
.Ltmp179:
	.cfi_def_cfa_offset 16
	pushq	%r14
.Ltmp180:
	.cfi_def_cfa_offset 24
	pushq	%r13
.Ltmp181:
	.cfi_def_cfa_offset 32
	pushq	%r12
.Ltmp182:
	.cfi_def_cfa_offset 40
	pushq	%rbx
.Ltmp183:
	.cfi_def_cfa_offset 48
	subq	$16, %rsp
.Ltmp184:
	.cfi_def_cfa_offset 64
.Ltmp185:
	.cfi_offset %rbx, -48
.Ltmp186:
	.cfi_offset %r12, -40
.Ltmp187:
	.cfi_offset %r13, -32
.Ltmp188:
	.cfi_offset %r14, -24
.Ltmp189:
	.cfi_offset %r15, -16
	cmpq	$0, rtl_dump_file(%rip)
	movq	%rdx, %r13
	movq	%rsi, %r14
	movq	%rdi, %r15
	je	.LBB20_9
# BB#1:                                 # %if.end
	movq	$2, %rdi
	callq	timevar_push
	testq	%r13, %r13
	je	.LBB20_5
# BB#2:                                 # %if.end
	movl	graph_dump_format(%rip), %eax
	movabsq	$4294967295, %rbx       # imm = 0xFFFFFFFF
	testq	%rbx, %rax
	je	.LBB20_5
# BB#3:                                 # %land.lhs.true2
	andq	%r15, %rbx
	movq	$4, %rcx
	movq	%rbx, %rax
	shlq	%cl, %rax
	movzbl	dump_file+9(%rax), %eax
	testq	%rax, %rax
	je	.LBB20_5
# BB#4:                                 # %if.then4
	movabsq	$.L.str16, %rsi
	leaq	(%rsp), %r12
	xorq	%rax, %rax
	movq	%r12, %rdi
	movq	%r15, %rdx
	callq	sprintf
	movq	$4, %rcx
	shlq	%cl, %rbx
	movq	dump_file(%rbx), %rsi
	xorq	%rdx, %rdx
	xorq	%rax, %rax
	movq	%r12, %rdi
	callq	concat
	movq	dump_base_name(%rip), %rdi
	movq	%rax, %r15
	movq	%r15, %rsi
	movq	%r13, %rdx
	callq	print_rtl_graph_with_bb
	movq	%r15, %rdi
	callq	free
.LBB20_5:                               # %if.end9
	testq	%r14, %r14
	je	.LBB20_8
# BB#6:                                 # %if.end9
	testq	%r13, %r13
	je	.LBB20_8
# BB#7:                                 # %if.then13
	movq	rtl_dump_file(%rip), %rdi
	movq	%r13, %rsi
	callq	*%r14
.LBB20_8:                               # %if.end14
	movq	rtl_dump_file(%rip), %rdi
	callq	fflush
	movq	rtl_dump_file(%rip), %rdi
	callq	fclose
	movq	$0, rtl_dump_file(%rip)
	movq	$2, %rdi
	callq	timevar_pop
.LBB20_9:                               # %return
	addq	$16, %rsp
	popq	%rbx
	popq	%r12
	popq	%r13
	popq	%r14
	popq	%r15
	retq
.Ltmp190:
	.size	close_dump_file, .Ltmp190-close_dump_file
	.cfi_endproc

	.globl	toplev_main
	.align	16, 0x90
	.type	toplev_main,@function
toplev_main:                            # @toplev_main
	.cfi_startproc
# BB#0:                                 # %entry
	pushq	%r15
.Ltmp197:
	.cfi_def_cfa_offset 16
	pushq	%r14
.Ltmp198:
	.cfi_def_cfa_offset 24
	pushq	%r13
.Ltmp199:
	.cfi_def_cfa_offset 32
	pushq	%r12
.Ltmp200:
	.cfi_def_cfa_offset 40
	pushq	%rbx
.Ltmp201:
	.cfi_def_cfa_offset 48
	subq	$160, %rsp
.Ltmp202:
	.cfi_def_cfa_offset 208
.Ltmp203:
	.cfi_offset %rbx, -48
.Ltmp204:
	.cfi_offset %r12, -40
.Ltmp205:
	.cfi_offset %r13, -32
.Ltmp206:
	.cfi_offset %r14, -24
.Ltmp207:
	.cfi_offset %r15, -16
	movq	%rsi, %rbx
	movq	%rbx, 128(%rsp)         # 8-byte Spill
	movq	%rdi, %r14
	callq	hex_init
	movq	(%rbx), %rbx
	movq	%rbx, %rdi
	callq	strlen
	.align	16, 0x90
.LBB21_1:                               # %while.cond.i
                                        # =>This Inner Loop Header: Depth=1
	testq	%rax, %rax
	je	.LBB21_4
# BB#2:                                 # %land.rhs.i
                                        #   in Loop: Header=BB21_1 Depth=1
	movzbl	-1(%rbx,%rax), %ecx
	decq	%rax
	cmpq	$47, %rcx
	jne	.LBB21_1
# BB#3:                                 # %land.rhs.i.general_init.exit_crit_edge
	leaq	1(%rbx,%rax), %rbx
.LBB21_4:                               # %general_init.exit
	movq	%rbx, progname(%rip)
	movq	%rbx, %rdi
	callq	xmalloc_set_program_name
	movabsq	$float_signal, %rsi
	movq	$8, %rdi
	callq	signal
	movabsq	$crash_signal, %rbx
	movq	$11, %rdi
	movq	%rbx, %rsi
	callq	signal
	movq	$4, %rdi
	movq	%rbx, %rsi
	callq	signal
	movq	$7, %rdi
	movq	%rbx, %rsi
	callq	signal
	movq	$6, %rdi
	movq	%rbx, %rsi
	callq	signal
	movq	global_dc(%rip), %rdi
	callq	diagnostic_initialize
	movl	%r14d, save_argc(%rip)
	movq	$32, %rcx
	movq	%r14, %rbx
	shlq	%cl, %rbx
	movq	$32, %rcx
	sarq	%cl, %rbx
	movq	128(%rsp), %rax         # 8-byte Reload
	movq	%rax, save_argv(%rip)
	callq	init_reg_sets
	movabsq	$lang_independent_params, %rdi
	movq	$6, %rsi
	callq	add_params
	callq	*lang_hooks+16(%rip)
	cmpq	$2, %rbx
	jl	.LBB21_21
# BB#5:
	movq	$1, %rbx
	movabsq	$.L.str356, %r12
	movabsq	$4294967295, %r13       # imm = 0xFFFFFFFF
	.align	16, 0x90
.LBB21_6:                               # %for.body.i
                                        # =>This Loop Header: Depth=1
                                        #     Child Loop BB21_15 Depth 2
	movq	128(%rsp), %rax         # 8-byte Reload
	movq	(%rax,%rbx,8), %r15
	movq	%r15, %rdi
	movq	%r12, %rsi
	callq	strcmp
	testq	%r13, %rax
	jne	.LBB21_8
# BB#7:                                 # %if.then.i
                                        #   in Loop: Header=BB21_6 Depth=1
	movq	$1, %rax
.LBB21_19:                              # %if.then30.i
                                        #   in Loop: Header=BB21_6 Depth=1
	movl	%eax, optimize(%rip)
	xorq	%rax, %rax
	movl	%eax, optimize_size(%rip)
	jmp	.LBB21_20
	.align	16, 0x90
.LBB21_8:                               # %if.else.i
                                        #   in Loop: Header=BB21_6 Depth=1
	movzbl	(%r15), %eax
	cmpq	$45, %rax
	jne	.LBB21_20
# BB#9:                                 # %land.lhs.true.i
                                        #   in Loop: Header=BB21_6 Depth=1
	movzbl	1(%r15), %eax
	cmpq	$79, %rax
	jne	.LBB21_20
# BB#10:                                # %if.then12.i
                                        #   in Loop: Header=BB21_6 Depth=1
	movzbl	2(%r15), %ecx
	testq	%rcx, %rcx
	je	.LBB21_18
# BB#11:                                # %if.then12.i
                                        #   in Loop: Header=BB21_6 Depth=1
	movq	$3, %rax
	cmpq	$115, %rcx
	jne	.LBB21_15
# BB#12:                                # %land.lhs.true20.i
                                        #   in Loop: Header=BB21_6 Depth=1
	movzbl	3(%r15), %ecx
	testq	%rcx, %rcx
	movq	$115, %rcx
	jne	.LBB21_15
# BB#13:                                # %if.then25.i
                                        #   in Loop: Header=BB21_6 Depth=1
	movq	$1, %rax
	movl	%eax, optimize_size(%rip)
	movq	$2, %rax
	movl	%eax, optimize(%rip)
	jmp	.LBB21_20
	.align	16, 0x90
.LBB21_15:                              # %while.body.i.i
                                        #   Parent Loop BB21_6 Depth=1
                                        # =>  This Inner Loop Header: Depth=2
	andq	$255, %rcx
	movzbl	_sch_istable(%rcx,%rcx), %ecx
	testq	$4, %rcx
	je	.LBB21_16
# BB#14:                                # %while.cond.i.i
                                        #   in Loop: Header=BB21_15 Depth=2
	movzbl	(%r15,%rax), %ecx
	incq	%rax
	testq	%rcx, %rcx
	jne	.LBB21_15
.LBB21_18:                              # %read_integral_parameter.exit.i
                                        #   in Loop: Header=BB21_6 Depth=1
	addq	$2, %r15
	movq	%r15, %rdi
	callq	atoi
	movq	%rax, %rcx
	andq	%r13, %rcx
	cmpq	%r13, %rcx
	je	.LBB21_20
	jmp	.LBB21_19
.LBB21_16:                              # %if.then6.i.i
                                        #   in Loop: Header=BB21_6 Depth=1
	testq	%r15, %r15
	je	.LBB21_20
# BB#17:                                # %if.then9.i.i
                                        #   in Loop: Header=BB21_6 Depth=1
	xorq	%rax, %rax
	movabsq	$.L.str, %rdi
	movq	%r15, %rsi
	callq	error
	.align	16, 0x90
.LBB21_20:                              # %for.inc.i
                                        #   in Loop: Header=BB21_6 Depth=1
	incq	%rbx
	movq	%rbx, %rax
	andq	%r13, %rax
	movq	%r14, %rcx
	andq	%r13, %rcx
	cmpq	%rcx, %rax
	jne	.LBB21_6
.LBB21_21:                              # %for.end.i
	movl	optimize(%rip), %eax
	testq	%rax, %rax
	je	.LBB21_22
# BB#23:                                # %if.end36.i
	movq	$32, %rcx
	movq	%rax, %rdx
	shlq	%cl, %rdx
	movq	$32, %rcx
	sarq	%cl, %rdx
	testq	%rdx, %rdx
	movq	%r14, %r15
	jle	.LBB21_29
# BB#24:                                # %if.end40.i
	movq	$1, %rdx
	movl	%edx, flag_defer_pop(%rip)
	movl	%edx, flag_thread_jumps(%rip)
	movl	%edx, flag_guess_branch_prob(%rip)
	movl	%edx, flag_cprop_registers(%rip)
	movq	$32, %rcx
	movq	%rax, %rsi
	shlq	%cl, %rsi
	movq	$32, %rcx
	sarq	%cl, %rsi
	cmpq	$2, %rsi
	jl	.LBB21_29
# BB#25:                                # %if.end44.i
	movl	%edx, flag_optimize_sibling_calls(%rip)
	movl	%edx, flag_cse_follow_jumps(%rip)
	movl	%edx, flag_cse_skip_blocks(%rip)
	movl	%edx, flag_gcse(%rip)
	movl	%edx, flag_expensive_optimizations(%rip)
	movl	%edx, flag_strength_reduce(%rip)
	movl	%edx, flag_rerun_cse_after_loop(%rip)
	movl	%edx, flag_rerun_loop_opt(%rip)
	movl	%edx, flag_caller_saves(%rip)
	movl	%edx, flag_force_mem(%rip)
	movl	%edx, flag_peephole2(%rip)
	movl	%edx, flag_schedule_insns(%rip)
	movl	%edx, flag_schedule_insns_after_reload(%rip)
	movl	%edx, flag_regmove(%rip)
	movl	%edx, flag_strict_aliasing(%rip)
	movl	%edx, flag_delete_null_pointer_checks(%rip)
	movl	%edx, flag_reorder_blocks(%rip)
	movq	$32, %rcx
	movq	%rax, %rdx
	shlq	%cl, %rdx
	movq	$32, %rcx
	sarq	%cl, %rdx
	cmpq	$3, %rdx
	jl	.LBB21_27
# BB#26:                                # %if.then47.i
	movq	$1, %rcx
	movl	%ecx, flag_inline_functions(%rip)
	movl	%ecx, flag_rename_registers(%rip)
.LBB21_27:                              # %if.end48.i
	movq	$32, %rcx
	shlq	%cl, %rax
	movq	$32, %rcx
	sarq	%cl, %rax
	cmpq	$2, %rax
	jl	.LBB21_29
# BB#28:                                # %if.end48.i
	movl	optimize_size(%rip), %eax
	movabsq	$4294967295, %rcx       # imm = 0xFFFFFFFF
	testq	%rcx, %rax
	je	.LBB21_30
	jmp	.LBB21_29
.LBB21_22:                              # %if.end36.thread.i
	xorq	%rax, %rax
	movl	%eax, flag_merge_constants(%rip)
	movq	%r14, %r15
.LBB21_29:                              # %if.then52.i
	movq	$1, %rax
	movl	%eax, align_loops(%rip)
	movl	%eax, align_jumps(%rip)
	movl	%eax, align_labels(%rip)
	movl	%eax, align_functions(%rip)
.LBB21_30:                              # %if.end53.i
	movq	$32, %rcx
	movq	%r15, %rbx
	shlq	%cl, %rbx
	movq	$32, %rcx
	sarq	%cl, %rbx
	movq	$1, %rax
	movl	%eax, flag_signed_char(%rip)
	xorq	%rax, %rax
	movl	%eax, target_flags(%rip)
	movabsq	$.L.str28, %rdi
	callq	set_target_switch
	movl	optimize_size(%rip), %esi
	movl	optimize(%rip), %edi
	callq	optimization_options
	cmpq	$2, %rbx
	jl	.LBB21_405
# BB#31:                                # %for.body57.lr.ph.i
	movabsq	$4294967295, %r14       # imm = 0xFFFFFFFF
	movq	$1, %rsi
	jmp	.LBB21_32
.LBB21_37:                              # %if.end12.i.i
                                        #   in Loop: Header=BB21_32 Depth=1
	movq	%r15, 112(%rsp)         # 8-byte Spill
	movq	%rdx, 104(%rsp)         # 8-byte Spill
	leaq	1(%rcx), %r15
	movq	%rcx, 96(%rsp)          # 8-byte Spill
	movq	%r15, %rdi
	movabsq	$.L.str519, %rsi
	callq	strcmp
	movq	%r14, %rbx
	testq	%rbx, %rax
	jne	.LBB21_84
# BB#38:                                # %if.then13.i.i
                                        #   in Loop: Header=BB21_32 Depth=1
	movq	%r15, 88(%rsp)          # 8-byte Spill
	movabsq	$.Lstr, %rdi
	callq	puts
	movabsq	$.Lstr695, %rdi
	callq	puts
	movabsq	$.Lstr696, %rdi
	callq	puts
	movabsq	$.Lstr697, %rdi
	callq	puts
	movabsq	$.Lstr698, %rdi
	callq	puts
	movabsq	$.Lstr699, %rdi
	callq	puts
	movq	$3104, %rbx             # imm = 0xC20
	movabsq	$.L.str624, %r14
	.align	16, 0x90
.LBB21_39:                              # %for.body.i.i.i
                                        #   Parent Loop BB21_32 Depth=1
                                        # =>  This Inner Loop Header: Depth=2
	movq	f_options-8(%rbx), %rdx
	movzbl	(%rdx), %eax
	testq	%rax, %rax
	je	.LBB21_41
# BB#40:                                # %if.then.i.i.i
                                        #   in Loop: Header=BB21_39 Depth=2
	movq	f_options-32(%rbx), %rsi
	xorq	%rax, %rax
	movq	%r14, %rdi
	callq	printf
.LBB21_41:                              # %for.cond.backedge.i.i.i
                                        #   in Loop: Header=BB21_39 Depth=2
	addq	$-32, %rbx
	jne	.LBB21_39
# BB#42:                                # %for.end.i.i.i
                                        #   in Loop: Header=BB21_32 Depth=1
	movabsq	$.Lstr700, %rdi
	callq	puts
	movabsq	$.Lstr701, %rdi
	callq	puts
	movq	compiler_params(%rip), %r14
	movq	120(%r14), %rdi
	movq	136(%r14), %rbx
	movq	%rdi, %r15
	callq	strlen
	testq	%rbx, %rbx
	je	.LBB21_47
# BB#43:                                # %land.lhs.true24.i.i.i
                                        #   in Loop: Header=BB21_32 Depth=1
	movzbl	(%rbx), %ecx
	testq	%rcx, %rcx
	je	.LBB21_47
# BB#44:                                # %if.then28.i.i.i
                                        #   in Loop: Header=BB21_32 Depth=1
	movq	$21, %rsi
	subq	%rax, %rsi
	movq	$32, %rcx
	movq	%rsi, %rax
	shlq	%cl, %rax
	movq	$32, %rcx
	sarq	%cl, %rax
	testq	%rax, %rax
	movq	$1, %rdx
	jle	.LBB21_46
# BB#45:                                # %if.then28.i.i.i
                                        #   in Loop: Header=BB21_32 Depth=1
	movq	%rsi, %rdx
.LBB21_46:                              # %if.then28.i.i.i
                                        #   in Loop: Header=BB21_32 Depth=1
	xorq	%rax, %rax
	movabsq	$.L.str627, %rdi
	movq	%r15, %rsi
	movabsq	$.L.str628, %rcx
	movq	%rbx, %r8
	callq	printf
	movq	compiler_params(%rip), %r14
.LBB21_47:                              # %for.cond13.backedge.i.i.i
                                        #   in Loop: Header=BB21_32 Depth=1
	movq	96(%r14), %r15
	movq	112(%r14), %rbx
	movq	%r15, %rdi
	callq	strlen
	testq	%rbx, %rbx
	je	.LBB21_52
# BB#48:                                # %land.lhs.true24.1.i.i.i
                                        #   in Loop: Header=BB21_32 Depth=1
	movzbl	(%rbx), %ecx
	testq	%rcx, %rcx
	je	.LBB21_52
# BB#49:                                # %if.then28.1.i.i.i
                                        #   in Loop: Header=BB21_32 Depth=1
	movq	$21, %rsi
	subq	%rax, %rsi
	movq	$32, %rcx
	movq	%rsi, %rax
	shlq	%cl, %rax
	movq	$32, %rcx
	sarq	%cl, %rax
	testq	%rax, %rax
	movq	$1, %rdx
	jle	.LBB21_51
# BB#50:                                # %if.then28.1.i.i.i
                                        #   in Loop: Header=BB21_32 Depth=1
	movq	%rsi, %rdx
.LBB21_51:                              # %if.then28.1.i.i.i
                                        #   in Loop: Header=BB21_32 Depth=1
	xorq	%rax, %rax
	movabsq	$.L.str627, %rdi
	movq	%r15, %rsi
	movabsq	$.L.str628, %rcx
	movq	%rbx, %r8
	callq	printf
	movq	compiler_params(%rip), %r14
.LBB21_52:                              # %for.cond13.backedge.1.i.i.i
                                        #   in Loop: Header=BB21_32 Depth=1
	movq	72(%r14), %r15
	movq	88(%r14), %rbx
	movq	%r15, %rdi
	callq	strlen
	testq	%rbx, %rbx
	je	.LBB21_57
# BB#53:                                # %land.lhs.true24.2.i.i.i
                                        #   in Loop: Header=BB21_32 Depth=1
	movzbl	(%rbx), %ecx
	testq	%rcx, %rcx
	je	.LBB21_57
# BB#54:                                # %if.then28.2.i.i.i
                                        #   in Loop: Header=BB21_32 Depth=1
	movq	$21, %rsi
	subq	%rax, %rsi
	movq	$32, %rcx
	movq	%rsi, %rax
	shlq	%cl, %rax
	movq	$32, %rcx
	sarq	%cl, %rax
	testq	%rax, %rax
	movq	$1, %rdx
	jle	.LBB21_56
# BB#55:                                # %if.then28.2.i.i.i
                                        #   in Loop: Header=BB21_32 Depth=1
	movq	%rsi, %rdx
.LBB21_56:                              # %if.then28.2.i.i.i
                                        #   in Loop: Header=BB21_32 Depth=1
	xorq	%rax, %rax
	movabsq	$.L.str627, %rdi
	movq	%r15, %rsi
	movabsq	$.L.str628, %rcx
	movq	%rbx, %r8
	callq	printf
	movq	compiler_params(%rip), %r14
.LBB21_57:                              # %for.cond13.backedge.2.i.i.i
                                        #   in Loop: Header=BB21_32 Depth=1
	movq	48(%r14), %r15
	movq	64(%r14), %rbx
	movq	%r15, %rdi
	callq	strlen
	testq	%rbx, %rbx
	je	.LBB21_62
# BB#58:                                # %land.lhs.true24.3.i.i.i
                                        #   in Loop: Header=BB21_32 Depth=1
	movzbl	(%rbx), %ecx
	testq	%rcx, %rcx
	je	.LBB21_62
# BB#59:                                # %if.then28.3.i.i.i
                                        #   in Loop: Header=BB21_32 Depth=1
	movq	$21, %rsi
	subq	%rax, %rsi
	movq	$32, %rcx
	movq	%rsi, %rax
	shlq	%cl, %rax
	movq	$32, %rcx
	sarq	%cl, %rax
	testq	%rax, %rax
	movq	$1, %rdx
	jle	.LBB21_61
# BB#60:                                # %if.then28.3.i.i.i
                                        #   in Loop: Header=BB21_32 Depth=1
	movq	%rsi, %rdx
.LBB21_61:                              # %if.then28.3.i.i.i
                                        #   in Loop: Header=BB21_32 Depth=1
	xorq	%rax, %rax
	movabsq	$.L.str627, %rdi
	movq	%r15, %rsi
	movabsq	$.L.str628, %rcx
	movq	%rbx, %r8
	callq	printf
	movq	compiler_params(%rip), %r14
.LBB21_62:                              # %for.cond13.backedge.3.i.i.i
                                        #   in Loop: Header=BB21_32 Depth=1
	movq	24(%r14), %r15
	movq	40(%r14), %rbx
	movq	%r15, %rdi
	callq	strlen
	testq	%rbx, %rbx
	je	.LBB21_67
# BB#63:                                # %land.lhs.true24.4.i.i.i
                                        #   in Loop: Header=BB21_32 Depth=1
	movzbl	(%rbx), %ecx
	testq	%rcx, %rcx
	je	.LBB21_67
# BB#64:                                # %if.then28.4.i.i.i
                                        #   in Loop: Header=BB21_32 Depth=1
	movq	$21, %rsi
	subq	%rax, %rsi
	movq	$32, %rcx
	movq	%rsi, %rax
	shlq	%cl, %rax
	movq	$32, %rcx
	sarq	%cl, %rax
	testq	%rax, %rax
	movq	$1, %rdx
	jle	.LBB21_66
# BB#65:                                # %if.then28.4.i.i.i
                                        #   in Loop: Header=BB21_32 Depth=1
	movq	%rsi, %rdx
.LBB21_66:                              # %if.then28.4.i.i.i
                                        #   in Loop: Header=BB21_32 Depth=1
	xorq	%rax, %rax
	movabsq	$.L.str627, %rdi
	movq	%r15, %rsi
	movabsq	$.L.str628, %rcx
	movq	%rbx, %r8
	callq	printf
	movq	compiler_params(%rip), %r14
.LBB21_67:                              # %for.cond13.backedge.4.i.i.i
                                        #   in Loop: Header=BB21_32 Depth=1
	movq	(%r14), %r15
	movq	16(%r14), %rbx
	movq	%r15, %rdi
	callq	strlen
	testq	%rbx, %rbx
	je	.LBB21_72
# BB#68:                                # %land.lhs.true24.5.i.i.i
                                        #   in Loop: Header=BB21_32 Depth=1
	movzbl	(%rbx), %ecx
	testq	%rcx, %rcx
	je	.LBB21_72
# BB#69:                                # %if.then28.5.i.i.i
                                        #   in Loop: Header=BB21_32 Depth=1
	movq	$21, %rsi
	subq	%rax, %rsi
	movq	$32, %rcx
	movq	%rsi, %rax
	shlq	%cl, %rax
	movq	$32, %rcx
	sarq	%cl, %rax
	testq	%rax, %rax
	movq	$1, %rdx
	jle	.LBB21_71
# BB#70:                                # %if.then28.5.i.i.i
                                        #   in Loop: Header=BB21_32 Depth=1
	movq	%rsi, %rdx
.LBB21_71:                              # %if.then28.5.i.i.i
                                        #   in Loop: Header=BB21_32 Depth=1
	xorq	%rax, %rax
	movabsq	$.L.str627, %rdi
	movq	%r15, %rsi
	movabsq	$.L.str628, %rcx
	movq	%rbx, %r8
	callq	printf
.LBB21_72:                              # %for.cond13.backedge.5.i.i.i
                                        #   in Loop: Header=BB21_32 Depth=1
	movabsq	$.Lstr702, %rdi
	callq	puts
	movabsq	$.Lstr703, %rdi
	callq	puts
	movabsq	$.Lstr704, %rdi
	callq	puts
	movabsq	$.Lstr705, %rdi
	callq	puts
	movq	$608, %rbx              # imm = 0x260
	movabsq	$.L.str633, %r14
	.align	16, 0x90
.LBB21_73:                              # %for.body43.i.i.i
                                        #   Parent Loop BB21_32 Depth=1
                                        # =>  This Inner Loop Header: Depth=2
	movq	W_options-8(%rbx), %rdx
	movzbl	(%rdx), %eax
	testq	%rax, %rax
	je	.LBB21_75
# BB#74:                                # %if.then53.i.i.i
                                        #   in Loop: Header=BB21_73 Depth=2
	movq	W_options-32(%rbx), %rsi
	xorq	%rax, %rax
	movq	%r14, %rdi
	callq	printf
.LBB21_75:                              # %for.cond40.backedge.i.i.i
                                        #   in Loop: Header=BB21_73 Depth=2
	addq	$-32, %rbx
	jne	.LBB21_73
# BB#76:                                # %for.end58.i.i.i
                                        #   in Loop: Header=BB21_32 Depth=1
	movabsq	$.Lstr706, %rdi
	callq	puts
	movabsq	$.Lstr707, %rdi
	callq	puts
	movabsq	$.Lstr708, %rdi
	callq	puts
	movabsq	$.Lstr709, %rdi
	callq	puts
	movabsq	$.Lstr710, %rdi
	callq	puts
	movq	$5, %rax
	.align	16, 0x90
.LBB21_77:                              # %for.body67.i.i.i
                                        #   Parent Loop BB21_32 Depth=1
                                        # =>  This Inner Loop Header: Depth=2
	movq	%rax, %rbx
	movq	$4, %rax
	cmpq	$5, %rbx
	je	.LBB21_77
# BB#78:                                # %for.cond64.backedge.i.i.i
                                        #   in Loop: Header=BB21_77 Depth=2
	leaq	(%rbx,%rbx,2), %rax
	movq	debug_args+16(,%rax,8), %rdx
	movq	debug_args(,%rax,8), %rsi
	xorq	%rax, %rax
	movabsq	$.L.str639, %rdi
	callq	printf
	testq	%rbx, %rbx
	leaq	-1(%rbx), %rax
	jne	.LBB21_77
# BB#79:                                # %for.end78.i.i.i
                                        #   in Loop: Header=BB21_32 Depth=1
	movabsq	$.Lstr711, %rdi
	callq	puts
	movabsq	$.Lstr712, %rdi
	callq	puts
	movabsq	$.Lstr713, %rdi
	callq	puts
	movabsq	$.Lstr714, %rdi
	callq	puts
	movabsq	$.Lstr715, %rdi
	callq	puts
	movabsq	$.Lstr716, %rdi
	callq	puts
	movabsq	$.Lstr717, %rdi
	callq	puts
	movabsq	$.Lstr718, %rdi
	callq	puts
	movq	$-1728, %rbx            # imm = 0xFFFFFFFFFFFFF940
	.align	16, 0x90
.LBB21_80:                              # %for.body90.i.i.i
                                        #   Parent Loop BB21_32 Depth=1
                                        # =>  This Inner Loop Header: Depth=2
	movq	documented_lang_options+1736(%rbx), %rdx
	movzbl	(%rdx), %eax
	testq	%rax, %rax
	je	.LBB21_82
# BB#81:                                # %if.else117.i.i.i
                                        #   in Loop: Header=BB21_80 Depth=2
	movq	documented_lang_options+1728(%rbx), %rsi
	xorq	%rax, %rax
	movabsq	$.L.str652, %rdi
	callq	printf
.LBB21_82:                              # %for.inc.i.i.i
                                        #   in Loop: Header=BB21_80 Depth=2
	addq	$16, %rbx
	jne	.LBB21_80
# BB#83:                                # %display_help.exit.i.i
                                        #   in Loop: Header=BB21_32 Depth=1
	callq	display_target_options
	movq	$1, %rax
	movb	%al, exit_after_options(%rip)
	movabsq	$4294967295, %rbx       # imm = 0xFFFFFFFF
	movq	88(%rsp), %r15          # 8-byte Reload
.LBB21_84:                              # %if.end14.i.i
                                        #   in Loop: Header=BB21_32 Depth=1
	movq	%r15, %rdi
	movabsq	$.L.str520, %rsi
	callq	strcmp
	testq	%rbx, %rax
	movq	%r15, %r14
	jne	.LBB21_86
# BB#85:                                # %if.then17.i.i
                                        #   in Loop: Header=BB21_32 Depth=1
	callq	display_target_options
	movq	$1, %rax
	movb	%al, exit_after_options(%rip)
.LBB21_86:                              # %if.end18.i.i
                                        #   in Loop: Header=BB21_32 Depth=1
	movq	%r14, %rdi
	movabsq	$.L.str32, %rsi
	callq	strcmp
	testq	%rbx, %rax
	jne	.LBB21_88
# BB#87:                                # %if.then21.i.i
                                        #   in Loop: Header=BB21_32 Depth=1
	movq	$.L.str344, 16(%rsp)
	movq	$.L.str28, 8(%rsp)
	xorq	%rax, %rax
	movq	$.L.str343, (%rsp)
	movq	stderr(%rip), %rdi
	movabsq	$.L.str342, %rsi
	movabsq	$.L.str28, %rdx
	movq	%rdx, %rcx
	movq	lang_hooks(%rip), %r8
	movq	version_string(%rip), %r9
	callq	fnotice
	movq	$1, %rax
	movb	%al, exit_after_options(%rip)
.LBB21_88:                              # %if.end22.i.i
                                        #   in Loop: Header=BB21_32 Depth=1
	movq	%r14, %rdi
	movabsq	$.L.str521, %rsi
	callq	strcmp
	movq	%rbx, %rsi
	testq	%rsi, %rax
	jne	.LBB21_103
# BB#89:                                # %if.then26.i.i
                                        #   in Loop: Header=BB21_32 Depth=1
	andq	%rsi, %r12
	movq	%rsi, %r14
	cmpq	$1, %r12
	jne	.LBB21_91
# BB#90:                                # %if.then29.i.i
                                        #   in Loop: Header=BB21_32 Depth=1
	xorq	%rax, %rax
	movabsq	$.L.str522, %rdi
	callq	error
	movq	$1, %rbx
	jmp	.LBB21_95
.LBB21_103:                             # %if.end43.i.i
                                        #   in Loop: Header=BB21_32 Depth=1
	movq	96(%rsp), %rcx          # 8-byte Reload
	movzbl	1(%rcx), %eax
	cmpq	$89, %rax
	jne	.LBB21_105
# BB#104:                               #   in Loop: Header=BB21_32 Depth=1
	addq	$2, %rcx
	movq	%rcx, %r14
.LBB21_105:                             # %select.mid
                                        #   in Loop: Header=BB21_32 Depth=1
	movq	104(%rsp), %rdx         # 8-byte Reload
	movsbq	(%r14), %rax
	cmpq	$78, %rax
	movq	112(%rsp), %r15         # 8-byte Reload
	movabsq	$0, %rbx
	jg	.LBB21_109
# BB#106:                               # %select.end
                                        #   in Loop: Header=BB21_32 Depth=1
	andq	%rsi, %rax
	cmpq	$71, %rax
	jne	.LBB21_389
# BB#107:                               # %sw.bb160.i.i
                                        #   in Loop: Header=BB21_32 Depth=1
	movzbl	1(%r14), %eax
	testq	%rax, %rax
	jne	.LBB21_108
# BB#371:                               # %if.then165.i.i
                                        #   in Loop: Header=BB21_32 Depth=1
	andq	%rsi, %r12
	cmpq	$1, %r12
	je	.LBB21_389
# BB#372:                               # %if.end169.i.i
                                        #   in Loop: Header=BB21_32 Depth=1
	movq	%rsi, %r12
	movq	128(%rsp), %rax         # 8-byte Reload
	movq	8(%rax,%r13,8), %rdi
	movzbl	(%rdi), %eax
	testq	%rax, %rax
	je	.LBB21_377
# BB#373:                               # %while.body.i336.i.i.preheader
                                        #   in Loop: Header=BB21_32 Depth=1
	leaq	1(%rdi), %rcx
	.align	16, 0x90
.LBB21_375:                             # %while.body.i336.i.i
                                        #   Parent Loop BB21_32 Depth=1
                                        # =>  This Inner Loop Header: Depth=2
	andq	$255, %rax
	movzbl	_sch_istable(%rax,%rax), %eax
	testq	$4, %rax
	je	.LBB21_376
# BB#374:                               # %while.cond.i328.i.i
                                        #   in Loop: Header=BB21_375 Depth=2
	movzbl	(%rcx), %eax
	incq	%rcx
	testq	%rax, %rax
	jne	.LBB21_375
.LBB21_377:                             # %if.end11.i339.i.i
                                        #   in Loop: Header=BB21_32 Depth=1
	movq	%rdx, %r14
	callq	atoi
	movq	$2, %rcx
	jmp	.LBB21_382
.LBB21_91:                              # %if.end30.i.i
                                        #   in Loop: Header=BB21_32 Depth=1
	movq	128(%rsp), %rax         # 8-byte Reload
	movq	8(%rax,%r13,8), %r15
	movq	$61, %rsi
	movq	%r15, %rdi
	callq	strchr
	testq	%rax, %rax
	jne	.LBB21_96
# BB#92:                                # %if.then34.i.i
                                        #   in Loop: Header=BB21_32 Depth=1
	xorq	%rax, %rax
	movabsq	$.L.str523, %rdi
	movq	%r15, %rsi
	jmp	.LBB21_93
.LBB21_109:                             # %select.end
                                        #   in Loop: Header=BB21_32 Depth=1
	cmpq	$86, %rax
	jg	.LBB21_112
# BB#110:                               # %select.end
                                        #   in Loop: Header=BB21_32 Depth=1
	movq	%rdx, 104(%rsp)         # 8-byte Spill
	andq	%rsi, %rax
	cmpq	$79, %rax
	je	.LBB21_386
# BB#111:                               #   in Loop: Header=BB21_32 Depth=1
	movq	104(%rsp), %rdx         # 8-byte Reload
	jmp	.LBB21_389
.LBB21_96:                              # %if.else.i.i
                                        #   in Loop: Header=BB21_32 Depth=1
	xorq	%rcx, %rcx
	movb	%cl, (%rax)
	movzbl	1(%rax), %ecx
	leaq	1(%rax), %r12
	testq	%rcx, %rcx
	je	.LBB21_101
# BB#97:                                # %while.body.i.i.i.preheader
                                        #   in Loop: Header=BB21_32 Depth=1
	addq	$2, %rax
	.align	16, 0x90
.LBB21_99:                              # %while.body.i.i.i
                                        #   Parent Loop BB21_32 Depth=1
                                        # =>  This Inner Loop Header: Depth=2
	andq	$255, %rcx
	movzbl	_sch_istable(%rcx,%rcx), %ecx
	testq	$4, %rcx
	je	.LBB21_100
# BB#98:                                # %while.cond.i.i.i
                                        #   in Loop: Header=BB21_99 Depth=2
	movzbl	(%rax), %ecx
	incq	%rax
	testq	%rcx, %rcx
	jne	.LBB21_99
.LBB21_101:                             # %read_integral_parameter.exit.i.i
                                        #   in Loop: Header=BB21_32 Depth=1
	movq	%r12, %rdi
	callq	atoi
	movq	%rax, %rcx
	movq	%r14, %rbx
	andq	%rbx, %rcx
	cmpq	%rbx, %rcx
                                        # kill: R14<def> RBX<kill>
	jne	.LBB21_102
.LBB21_100:                             # %if.else39.i.i
                                        #   in Loop: Header=BB21_32 Depth=1
	xorq	%rax, %rax
	movabsq	$.L.str524, %rdi
	movq	%r12, %rsi
.LBB21_93:                              # %if.end69.i
                                        #   in Loop: Header=BB21_32 Depth=1
	callq	error
	jmp	.LBB21_94
.LBB21_112:                             # %select.end
                                        #   in Loop: Header=BB21_32 Depth=1
	cmpq	$96, %rax
	jg	.LBB21_117
# BB#113:                               # %select.end
                                        #   in Loop: Header=BB21_32 Depth=1
	andq	%rsi, %rax
	cmpq	$87, %rax
	jne	.LBB21_389
# BB#114:                               # %sw.bb108.i.i
                                        #   in Loop: Header=BB21_32 Depth=1
	movq	%r14, %rax
	movzbl	1(%rax), %ecx
	movq	%rcx, 96(%rsp)          # 8-byte Spill
	testq	%rcx, %rcx
	jne	.LBB21_330
# BB#115:                               # %if.then113.i.i
                                        #   in Loop: Header=BB21_32 Depth=1
	movq	%rdx, 104(%rsp)         # 8-byte Spill
	movl	warn_uninitialized(%rip), %eax
	movq	$1, %rcx
	movl	%ecx, extra_warnings(%rip)
	cmpq	$1, %rax
	movq	112(%rsp), %r15         # 8-byte Reload
	je	.LBB21_386
# BB#116:                               # %if.then116.i.i
                                        #   in Loop: Header=BB21_32 Depth=1
	movq	$2, %rax
	movl	%eax, warn_uninitialized(%rip)
	jmp	.LBB21_386
.LBB21_108:                             # %while.body.i352.i.i.preheader
                                        #   in Loop: Header=BB21_32 Depth=1
	movq	%rsi, %r12
	leaq	1(%r14), %rdi
	addq	$2, %r14
	.align	16, 0x90
.LBB21_379:                             # %while.body.i352.i.i
                                        #   Parent Loop BB21_32 Depth=1
                                        # =>  This Inner Loop Header: Depth=2
	andq	$255, %rax
	movzbl	_sch_istable(%rax,%rax), %eax
	testq	$4, %rax
	je	.LBB21_380
# BB#378:                               # %while.cond.i344.i.i
                                        #   in Loop: Header=BB21_379 Depth=2
	movzbl	(%r14), %eax
	incq	%r14
	testq	%rax, %rax
	jne	.LBB21_379
# BB#381:                               # %if.end11.i355.i.i
                                        #   in Loop: Header=BB21_32 Depth=1
	movq	%rdx, %r14
	callq	atoi
	movq	$1, %rcx
.LBB21_382:                             # %if.end175.i.i
                                        #   in Loop: Header=BB21_32 Depth=1
	movq	%rax, %rdx
	movq	%r12, %rsi
	andq	%rsi, %rdx
	cmpq	%rsi, %rdx
	movabsq	$0, %rbx
	jne	.LBB21_384
# BB#383:                               #   in Loop: Header=BB21_32 Depth=1
	movq	%r14, %rdx
	jmp	.LBB21_389
.LBB21_117:                             # %select.end
                                        #   in Loop: Header=BB21_32 Depth=1
	addq	$-97, %rax
	andq	%rsi, %rax
	cmpq	$22, %rax
	ja	.LBB21_389
# BB#118:                               # %select.end
                                        #   in Loop: Header=BB21_32 Depth=1
	jmpq	*.LJTI21_0(,%rax,8)
.LBB21_361:                             # %sw.bb122.i.i
                                        #   in Loop: Header=BB21_32 Depth=1
	movq	%rdx, 104(%rsp)         # 8-byte Spill
	movq	$8, %rdx
	movq	%rsi, %rbx
	movq	%r14, %rdi
	movabsq	$.L.str530, %rsi
	callq	strncmp
	movq	%rbx, %rsi
	testq	%rsi, %rax
	jne	.LBB21_362
# BB#363:                               # %if.then125.i.i
                                        #   in Loop: Header=BB21_32 Depth=1
	movzbl	8(%r14), %eax
	cmpq	$61, %rax
	jne	.LBB21_364
# BB#367:                               # %if.then141.i.i
                                        #   in Loop: Header=BB21_32 Depth=1
	addq	$9, %r14
	movq	%r14, aux_info_file_name(%rip)
	movq	$1, %rax
	movl	%eax, flag_gen_aux_info(%rip)
	jmp	.LBB21_386
.LBB21_102:                             # %if.then38.i.i
                                        #   in Loop: Header=BB21_32 Depth=1
	movq	%r15, %rdi
	movq	%rax, %rsi
	callq	set_param_value
.LBB21_94:                              # %if.end69.i
                                        #   in Loop: Header=BB21_32 Depth=1
	movq	$2, %rbx
.LBB21_95:                              # %if.end69.i
                                        #   in Loop: Header=BB21_32 Depth=1
	movq	%r14, %rsi
	movq	104(%rsp), %rdx         # 8-byte Reload
	movq	112(%rsp), %r15         # 8-byte Reload
	jmp	.LBB21_389
.LBB21_380:                             #   in Loop: Header=BB21_32 Depth=1
	movq	%r12, %rsi
	jmp	.LBB21_389
.LBB21_384:                             # %if.else179.i.i
                                        #   in Loop: Header=BB21_32 Depth=1
	movq	$1, %rdx
	movl	%edx, g_switch_set(%rip)
	movl	%eax, g_switch_value(%rip)
	movq	%rcx, %rbx
	movq	%r14, %rdx
	jmp	.LBB21_389
.LBB21_330:                             # %if.else118.i.i
                                        #   in Loop: Header=BB21_32 Depth=1
	movq	%rdx, 104(%rsp)         # 8-byte Spill
	leaq	1(%rax), %r15
	movq	%r15, 80(%rsp)          # 8-byte Spill
	leaq	4(%rax), %rcx
	movq	%rcx, 72(%rsp)          # 8-byte Spill
	movq	%rax, 88(%rsp)          # 8-byte Spill
	movq	$18, %r12
	movabsq	$W_options+592, %rbx
	movq	%rsi, %r13
	.align	16, 0x90
.LBB21_331:                             # %for.body.i282.i.i
                                        #   Parent Loop BB21_32 Depth=1
                                        # =>  This Inner Loop Header: Depth=2
	movq	-16(%rbx), %r14
	movq	%r15, %rdi
	movq	%r14, %rsi
	callq	strcmp
	testq	%r13, %rax
	movq	%r13, %rsi
	je	.LBB21_332
# BB#333:                               # %if.end.i287.i.i
                                        #   in Loop: Header=BB21_331 Depth=2
	cmpq	$110, 96(%rsp)          # 8-byte Folded Reload
	jne	.LBB21_336
# BB#334:                               # %land.lhs.true.i289.i.i
                                        #   in Loop: Header=BB21_331 Depth=2
	movq	88(%rsp), %rax          # 8-byte Reload
	movzbl	2(%rax), %eax
	cmpq	$111, %rax
	jne	.LBB21_336
# BB#335:                               # %land.lhs.true12.i291.i.i
                                        #   in Loop: Header=BB21_331 Depth=2
	movq	88(%rsp), %rax          # 8-byte Reload
	movzbl	3(%rax), %eax
	cmpq	$45, %rax
	jne	.LBB21_336
# BB#339:                               # %land.lhs.true17.i297.i.i
                                        #   in Loop: Header=BB21_331 Depth=2
	movq	%rsi, %r15
	movq	72(%rsp), %rdi          # 8-byte Reload
	movq	%r14, %rsi
	callq	strcmp
	movq	%r15, %rsi
	movq	80(%rsp), %r15          # 8-byte Reload
	testq	%rsi, %rax
	je	.LBB21_340
	.align	16, 0x90
.LBB21_336:                             # %for.cond.backedge.i294.i.i
                                        #   in Loop: Header=BB21_331 Depth=2
	addq	$-32, %rbx
	testq	%rsi, %r12
	leaq	-1(%r12), %r12
	movq	%rsi, %r13
	jne	.LBB21_331
# BB#337:                               # %for.end.i302.i.i
                                        #   in Loop: Header=BB21_32 Depth=1
	movq	$9, %rdx
	movq	%r15, %rdi
	movabsq	$.L.str531, %rsi
	callq	strncmp
	testq	%r13, %rax
	jne	.LBB21_341
# BB#338:                               # %if.then36.i.i.i
                                        #   in Loop: Header=BB21_32 Depth=1
	xorq	%rax, %rax
	movabsq	$.L.str532, %rdi
	callq	warning
	movq	$1, %rbx
	movq	112(%rsp), %r15         # 8-byte Reload
	movq	%r13, %rsi
	movq	104(%rsp), %rdx         # 8-byte Reload
	jmp	.LBB21_389
.LBB21_376:                             #   in Loop: Header=BB21_32 Depth=1
	movq	%r12, %rsi
	jmp	.LBB21_389
.LBB21_332:                             # %if.then.i285.i.i
                                        #   in Loop: Header=BB21_32 Depth=1
	movl	(%rbx), %eax
	movq	-8(%rbx), %rcx
	movl	%eax, (%rcx)
	jmp	.LBB21_242
.LBB21_341:                             # %if.else.i305.i.i
                                        #   in Loop: Header=BB21_32 Depth=1
	movq	$12, %rdx
	movq	%r15, %rdi
	movq	%r15, %rbx
	movabsq	$.L.str533, %rsi
	callq	strncmp
	testq	%r13, %rax
	movq	%r13, %r14
	je	.LBB21_342
# BB#343:                               # %if.else.i305.i.i
                                        #   in Loop: Header=BB21_32 Depth=1
	xorq	%rdi, %rdi
	movq	112(%rsp), %r15         # 8-byte Reload
	movq	88(%rsp), %rcx          # 8-byte Reload
	jmp	.LBB21_344
.LBB21_288:                             # %sw.bb58.i.i
                                        #   in Loop: Header=BB21_32 Depth=1
	movq	%rdx, 104(%rsp)         # 8-byte Spill
	movq	%rsi, %rbx
	movq	%r14, %rdi
	movabsq	$.L.str525, %rsi
	callq	strcmp
	movq	%rbx, %rsi
	testq	%rsi, %rax
	jne	.LBB21_291
# BB#289:                               # %if.then61.i.i
                                        #   in Loop: Header=BB21_32 Depth=1
	andq	%rsi, %r12
	cmpq	$1, %r12
	movq	104(%rsp), %rdx         # 8-byte Reload
	movabsq	$0, %rbx
	je	.LBB21_389
# BB#290:                               # %if.end65.i.i
                                        #   in Loop: Header=BB21_32 Depth=1
	movq	128(%rsp), %rax         # 8-byte Reload
	movq	8(%rax,%r13,8), %rax
	movq	%rax, dump_base_name(%rip)
	movq	$2, %rbx
	jmp	.LBB21_389
.LBB21_119:                             # %sw.bb52.i.i
                                        #   in Loop: Header=BB21_32 Depth=1
	movq	%rdx, 104(%rsp)         # 8-byte Spill
	leaq	1(%r14), %r12
	leaq	4(%r14), %rax
	movq	%rax, 96(%rsp)          # 8-byte Spill
	movq	%r14, 88(%rsp)          # 8-byte Spill
	movq	$96, %r15
	movabsq	$f_options+3088, %r13
	movq	%rsi, %rbx
.LBB21_120:                             # %for.body.i232.i.i
                                        #   Parent Loop BB21_32 Depth=1
                                        # =>  This Inner Loop Header: Depth=2
	movq	-16(%r13), %r14
	movq	%r12, %rdi
	movq	%r14, %rsi
	callq	strcmp
	testq	%rbx, %rax
	movq	%rbx, %rsi
	je	.LBB21_121
# BB#122:                               # %if.end.i.i.i
                                        #   in Loop: Header=BB21_120 Depth=2
	movzbl	(%r12), %eax
	cmpq	$110, %rax
	jne	.LBB21_125
# BB#123:                               # %land.lhs.true.i.i.i
                                        #   in Loop: Header=BB21_120 Depth=2
	movq	88(%rsp), %rax          # 8-byte Reload
	movzbl	2(%rax), %eax
	cmpq	$111, %rax
	jne	.LBB21_125
# BB#124:                               # %land.lhs.true12.i.i.i
                                        #   in Loop: Header=BB21_120 Depth=2
	movq	88(%rsp), %rax          # 8-byte Reload
	movzbl	3(%rax), %eax
	cmpq	$45, %rax
	jne	.LBB21_125
# BB#128:                               # %land.lhs.true17.i.i.i
                                        #   in Loop: Header=BB21_120 Depth=2
	movq	%rsi, %rbx
	movq	96(%rsp), %rdi          # 8-byte Reload
	movq	%r14, %rsi
	callq	strcmp
	movq	%rbx, %rsi
	testq	%rsi, %rax
	je	.LBB21_129
.LBB21_125:                             # %for.cond.backedge.i235.i.i
                                        #   in Loop: Header=BB21_120 Depth=2
	addq	$-32, %r13
	testq	%rsi, %r15
	leaq	-1(%r15), %r15
	movq	%rsi, %rbx
	jne	.LBB21_120
# BB#126:                               # %for.end.i236.i.i
                                        #   in Loop: Header=BB21_32 Depth=1
	movq	%r12, %r14
	movq	%r14, %rdi
	movabsq	$.L.str593, %rsi
	callq	strcmp
	testq	%rbx, %rax
	movq	%rbx, %rsi
	jne	.LBB21_133
# BB#127:                               # %if.then34.i.i.i
                                        #   in Loop: Header=BB21_32 Depth=1
	xorq	%rcx, %rcx
	movl	%ecx, flag_trapping_math(%rip)
	movq	$1, %rax
	movl	%eax, flag_unsafe_math_optimizations(%rip)
	movl	%ecx, flag_errno_math(%rip)
	jmp	.LBB21_242
.LBB21_243:                             # %sw.bb55.i.i
                                        #   in Loop: Header=BB21_32 Depth=1
	movq	%rdx, 104(%rsp)         # 8-byte Spill
	leaq	1(%r14), %rax
	movq	%rax, 88(%rsp)          # 8-byte Spill
	movq	%r14, %r15
	movq	$debug_args, da(%rip)
	movabsq	$debug_args+24, %r13
	movabsq	$.L.str28, %rbx
.LBB21_244:                             # %for.body.i242.i.i
                                        #   Parent Loop BB21_32 Depth=1
                                        # =>  This Inner Loop Header: Depth=2
	movq	%rbx, %rdi
	callq	strlen
	movq	%rax, 96(%rsp)          # 8-byte Spill
	movq	$32, %rcx
	movq	%rax, %r12
	shlq	%cl, %r12
	movq	$32, %rcx
	sarq	%cl, %r12
	movabsq	$4294967295, %rdi       # imm = 0xFFFFFFFF
	testq	%rdi, %rax
	je	.LBB21_246
# BB#245:                               # %lor.lhs.false.i243.i.i
                                        #   in Loop: Header=BB21_244 Depth=2
	movq	%rdi, %r14
	movq	88(%rsp), %rdi          # 8-byte Reload
	movq	%rbx, %rsi
	movq	%r12, %rdx
	callq	strncmp
	movq	%r14, %rdi
	testq	%rdi, %rax
	jne	.LBB21_282
.LBB21_246:                             # %if.then.i245.i.i
                                        #   in Loop: Header=BB21_244 Depth=2
	movzbl	1(%r12,%r15), %eax
	movl	-16(%r13), %r14d
	leaq	1(%r12,%r15), %rbx
	testq	%rax, %rax
	je	.LBB21_252
# BB#247:                               # %land.lhs.true.i248.i.i
                                        #   in Loop: Header=BB21_244 Depth=2
	movzbl	_sch_istable(%rax,%rax), %eax
	testq	$4, %rax
	jne	.LBB21_248
.LBB21_282:                             # %for.inc.i264.i.i
                                        #   in Loop: Header=BB21_244 Depth=2
	movq	(%r13), %rbx
	movq	%r13, da(%rip)
	addq	$24, %r13
	testq	%rbx, %rbx
	jne	.LBB21_244
# BB#283:                               # %decode_g_option.exit.i.i.loopexit
                                        #   in Loop: Header=BB21_32 Depth=1
	addq	$-24, %r13
	movq	112(%rsp), %r14         # 8-byte Reload
.LBB21_284:                             # %decode_g_option.exit.i.i
                                        #   in Loop: Header=BB21_32 Depth=1
	movq	104(%rsp), %rdx         # 8-byte Reload
	jmp	.LBB21_285
.LBB21_385:                             # %sw.bb.i.i
                                        #   in Loop: Header=BB21_32 Depth=1
	movq	%rdx, 104(%rsp)         # 8-byte Spill
	incq	%r14
	movq	%rsi, %rbx
	movq	%r14, %rdi
	callq	set_target_switch
	movq	%rbx, %rsi
	jmp	.LBB21_386
.LBB21_368:                             # %sw.bb148.i.i
                                        #   in Loop: Header=BB21_32 Depth=1
	movzbl	1(%r14), %eax
	testq	%rax, %rax
	jne	.LBB21_389
# BB#369:                               # %sw.bb148.i.i
                                        #   in Loop: Header=BB21_32 Depth=1
	andq	%rsi, %r12
	cmpq	$1, %r12
	je	.LBB21_389
# BB#370:                               # %if.end157.i.i
                                        #   in Loop: Header=BB21_32 Depth=1
	movq	128(%rsp), %rax         # 8-byte Reload
	movq	8(%rax,%r13,8), %rax
	movq	%rax, asm_file_name(%rip)
	movq	$2, %rbx
	jmp	.LBB21_389
.LBB21_318:                             # %sw.bb70.i.i
                                        #   in Loop: Header=BB21_32 Depth=1
	movq	%rdx, 104(%rsp)         # 8-byte Spill
	movq	%rsi, %rbx
	movq	%r14, %rdi
	movabsq	$.L.str526, %rsi
	callq	strcmp
	movq	%rbx, %rsi
	testq	%rsi, %rax
	jne	.LBB21_320
# BB#319:                               # %if.then73.i.i
                                        #   in Loop: Header=BB21_32 Depth=1
	movq	$1, %rax
	movl	%eax, pedantic(%rip)
	jmp	.LBB21_386
.LBB21_324:                             # %sw.bb88.i.i
                                        #   in Loop: Header=BB21_32 Depth=1
	movq	%rdx, 104(%rsp)         # 8-byte Spill
	movq	%rsi, %rbx
	movq	%r14, %rdi
	movabsq	$.L.str528, %rsi
	callq	strcmp
	movq	%rbx, %rsi
	testq	%rsi, %rax
	jne	.LBB21_362
# BB#325:                               # %if.then91.i.i
                                        #   in Loop: Header=BB21_32 Depth=1
	movq	$1, %rax
	movl	%eax, quiet_flag(%rip)
	jmp	.LBB21_386
.LBB21_326:                             # %sw.bb94.i.i
                                        #   in Loop: Header=BB21_32 Depth=1
	movq	%rdx, 104(%rsp)         # 8-byte Spill
	movq	%rsi, %rbx
	movq	%r14, %rdi
	movabsq	$.L.str529, %rsi
	callq	strcmp
	movq	%rbx, %rsi
	testq	%rsi, %rax
	jne	.LBB21_362
# BB#327:                               # %if.then97.i.i
                                        #   in Loop: Header=BB21_32 Depth=1
	movq	$1, %rax
	movb	%al, version_flag(%rip)
	jmp	.LBB21_386
.LBB21_328:                             # %sw.bb100.i.i
                                        #   in Loop: Header=BB21_32 Depth=1
	movzbl	1(%r14), %eax
	testq	%rax, %rax
	jne	.LBB21_389
# BB#329:                               # %if.then105.i.i
                                        #   in Loop: Header=BB21_32 Depth=1
	movq	%rdx, 104(%rsp)         # 8-byte Spill
	movq	$1, %rax
	movl	%eax, inhibit_warnings(%rip)
	jmp	.LBB21_386
.LBB21_342:                             #   in Loop: Header=BB21_32 Depth=1
	movq	88(%rsp), %rcx          # 8-byte Reload
	leaq	13(%rcx), %rdi
	movq	112(%rsp), %r15         # 8-byte Reload
.LBB21_344:                             # %if.else.i305.i.i
                                        #   in Loop: Header=BB21_32 Depth=1
	testq	%rdi, %rdi
	jne	.LBB21_345
# BB#354:                               # %if.else51.i.i.i
                                        #   in Loop: Header=BB21_32 Depth=1
	movq	%rbx, %rdi
	movabsq	$.L.str534, %rsi
	callq	strcmp
	movq	%r14, %rsi
	testq	%rsi, %rax
	jne	.LBB21_358
# BB#355:                               # %if.then54.i.i.i
                                        #   in Loop: Header=BB21_32 Depth=1
	movl	warn_unused_parameter(%rip), %eax
	movq	$1, %rcx
	movl	%ecx, warn_unused_function(%rip)
	movl	%ecx, warn_unused_label(%rip)
	testq	%rax, %rax
	movq	104(%rsp), %rdx         # 8-byte Reload
	jne	.LBB21_357
# BB#356:                               # %if.then2.i.i.i.i
                                        #   in Loop: Header=BB21_32 Depth=1
	movl	%esi, warn_unused_parameter(%rip)
.LBB21_357:                             # %set_Wunused.exit.i.i.i
                                        #   in Loop: Header=BB21_32 Depth=1
	movq	$1, %rbx
	movl	%ebx, warn_unused_variable(%rip)
	movl	%ebx, warn_unused_value(%rip)
	jmp	.LBB21_389
.LBB21_345:                             # %if.then45.i.i.i
                                        #   in Loop: Header=BB21_32 Depth=1
	movzbl	(%rdi), %eax
	testq	%rax, %rax
	je	.LBB21_350
# BB#346:                               # %while.body.i.i316.i.i.preheader
                                        #   in Loop: Header=BB21_32 Depth=1
	leaq	-1(%rcx), %rsi
	addq	$14, %rcx
.LBB21_348:                             # %while.body.i.i316.i.i
                                        #   Parent Loop BB21_32 Depth=1
                                        # =>  This Inner Loop Header: Depth=2
	andq	$255, %rax
	movzbl	_sch_istable(%rax,%rax), %eax
	testq	$4, %rax
	je	.LBB21_349
# BB#347:                               # %while.cond.i.i308.i.i
                                        #   in Loop: Header=BB21_348 Depth=2
	movzbl	(%rcx), %eax
	incq	%rcx
	testq	%rax, %rax
	jne	.LBB21_348
.LBB21_350:                             # %if.end11.i.i319.i.i
                                        #   in Loop: Header=BB21_32 Depth=1
	callq	atoi
	movq	%r14, %rsi
	jmp	.LBB21_351
.LBB21_291:                             # %if.else67.i.i
                                        #   in Loop: Header=BB21_32 Depth=1
	movzbl	1(%r14), %ebx
	testq	%rbx, %rbx
	je	.LBB21_386
# BB#292:                               #   in Loop: Header=BB21_32 Depth=1
	incq	%r14
	jmp	.LBB21_293
.LBB21_320:                             # %if.else74.i.i
                                        #   in Loop: Header=BB21_32 Depth=1
	movq	%rsi, %rbx
	movq	%r14, %rdi
	movabsq	$.L.str527, %rsi
	callq	strcmp
	movq	%rbx, %rsi
	testq	%rsi, %rax
	jne	.LBB21_322
# BB#321:                               # %if.then77.i.i
                                        #   in Loop: Header=BB21_32 Depth=1
	movq	$1, %rax
	movl	%eax, pedantic(%rip)
	movl	%eax, flag_pedantic_errors(%rip)
	jmp	.LBB21_386
.LBB21_121:                             # %if.then.i233.i.i
                                        #   in Loop: Header=BB21_32 Depth=1
	movl	(%r13), %eax
.LBB21_131:                             # %if.then23.i.i.i
                                        #   in Loop: Header=BB21_32 Depth=1
	movq	-8(%r13), %rcx
	movl	%eax, (%rcx)
	jmp	.LBB21_242
.LBB21_340:                             # %if.then23.i299.i.i
                                        #   in Loop: Header=BB21_32 Depth=1
	movq	-8(%rbx), %rax
	xorq	%rcx, %rcx
	movl	%ecx, (%rax)
	jmp	.LBB21_242
.LBB21_252:                             # %if.else.i259.i.i
                                        #   in Loop: Header=BB21_32 Depth=1
	movl	decode_g_option.level(%rip), %ecx
	testq	%rcx, %rcx
	movq	$2, %rax
	je	.LBB21_254
# BB#253:                               # %if.else.i259.i.i
                                        #   in Loop: Header=BB21_32 Depth=1
	movq	%rcx, %rax
	jmp	.LBB21_254
.LBB21_358:                             # %if.else55.i324.i.i
                                        #   in Loop: Header=BB21_32 Depth=1
	movq	%rsi, %r14
	movq	%rbx, %rdi
	movabsq	$.L.str535, %rsi
	callq	strcmp
	movq	%r14, %rsi
	xorq	%rbx, %rbx
	testq	%rsi, %rax
	jne	.LBB21_359
# BB#360:                               # %if.then58.i.i.i
                                        #   in Loop: Header=BB21_32 Depth=1
	xorq	%rax, %rax
	movl	%eax, warn_unused_function(%rip)
	movl	%eax, warn_unused_label(%rip)
	movl	%eax, warn_unused_parameter(%rip)
	movl	%eax, warn_unused_variable(%rip)
	movl	%eax, warn_unused_value(%rip)
	jmp	.LBB21_386
.LBB21_248:                             # %while.cond.i.i250.lr.ph.i.i
                                        #   in Loop: Header=BB21_32 Depth=1
	leaq	2(%r12,%r15), %rdx
.LBB21_249:                             # %while.cond.i.i250.i.i
                                        #   Parent Loop BB21_32 Depth=1
                                        # =>  This Inner Loop Header: Depth=2
	movzbl	(%rdx), %ecx
	testq	%rcx, %rcx
	je	.LBB21_251
# BB#250:                               # %while.cond.i.while.body.i_crit_edge.i.i.i
                                        #   in Loop: Header=BB21_249 Depth=2
	movzbl	_sch_istable(%rcx,%rcx), %ecx
	incq	%rdx
	testq	$4, %rcx
	movq	$4, %rax
	jne	.LBB21_249
	jmp	.LBB21_254
.LBB21_364:                             # %if.then125.i.i
                                        #   in Loop: Header=BB21_32 Depth=1
	testq	%rax, %rax
	jne	.LBB21_362
# BB#365:                               # %if.then130.i.i
                                        #   in Loop: Header=BB21_32 Depth=1
	andq	%rsi, %r12
	cmpq	$1, %r12
	movq	104(%rsp), %rdx         # 8-byte Reload
	movabsq	$0, %rbx
	je	.LBB21_389
# BB#366:                               # %if.end134.i.i
                                        #   in Loop: Header=BB21_32 Depth=1
	movq	128(%rsp), %rax         # 8-byte Reload
	movq	8(%rax,%r13,8), %rax
	movq	%rax, aux_info_file_name(%rip)
	movq	$1, %rax
	movl	%eax, flag_gen_aux_info(%rip)
	movq	$2, %rbx
	jmp	.LBB21_389
.LBB21_322:                             # %if.else78.i.i
                                        #   in Loop: Header=BB21_32 Depth=1
	movzbl	1(%r14), %eax
	testq	%rax, %rax
	jne	.LBB21_362
# BB#323:                               # %if.then83.i.i
                                        #   in Loop: Header=BB21_32 Depth=1
	movq	$1, %rax
	movl	%eax, profile_flag(%rip)
	jmp	.LBB21_386
.LBB21_133:                             # %if.else.i.i.i
                                        #   in Loop: Header=BB21_32 Depth=1
	movq	%rsi, %rbx
	movq	%r14, %rdi
	movabsq	$.L.str594, %rsi
	callq	strcmp
	movq	%rbx, %rsi
	testq	%rsi, %rax
	jne	.LBB21_135
# BB#134:                               # %if.then37.i.i.i
                                        #   in Loop: Header=BB21_32 Depth=1
	movq	$1, %rax
	movl	%eax, flag_trapping_math(%rip)
	xorq	%rcx, %rcx
	movl	%ecx, flag_unsafe_math_optimizations(%rip)
	movl	%eax, flag_errno_math(%rip)
	jmp	.LBB21_242
.LBB21_349:                             # %if.then6.i.i317.i.i
                                        #   in Loop: Header=BB21_32 Depth=1
	xorq	%rax, %rax
	movabsq	$.L.str, %rdi
	callq	error
	movq	%r14, %rsi
	movq	%rsi, %rax
.LBB21_351:                             # %read_integral_parameter.exit.i321.i.i
                                        #   in Loop: Header=BB21_32 Depth=1
	movq	$32, %rcx
	movq	%rax, %rdx
	shlq	%cl, %rdx
	movq	$32, %rcx
	sarq	%cl, %rdx
	andq	%rsi, %rax
	cmpq	%rsi, %rax
	movq	%rdx, larger_than_size(%rip)
	movabsq	$0, %rax
	je	.LBB21_353
# BB#352:                               # %read_integral_parameter.exit.i321.i.i
                                        #   in Loop: Header=BB21_32 Depth=1
	movabsq	$1, %rax
.LBB21_353:                             # %read_integral_parameter.exit.i321.i.i
                                        #   in Loop: Header=BB21_32 Depth=1
	movl	%eax, warn_larger_than(%rip)
	jmp	.LBB21_386
.LBB21_359:                             #   in Loop: Header=BB21_32 Depth=1
	movq	104(%rsp), %rdx         # 8-byte Reload
	jmp	.LBB21_389
.LBB21_251:                             # %if.end11.i.i257.i.i
                                        #   in Loop: Header=BB21_32 Depth=1
	movq	%rdi, %r13
	movq	%rbx, %rdi
	callq	atoi
	movq	%r13, %rdi
.LBB21_254:                             # %if.end20.i.i.i
                                        #   in Loop: Header=BB21_32 Depth=1
	movq	$32, %rcx
	movq	96(%rsp), %rdx          # 8-byte Reload
	shlq	%cl, %rdx
	movq	$32, %rcx
	sarq	%cl, %rdx
	cmpq	$2, %rdx
	movl	%eax, decode_g_option.level(%rip)
	jl	.LBB21_261
# BB#255:                               # %land.lhs.true23.i.i.i
                                        #   in Loop: Header=BB21_32 Depth=1
	movq	%rax, 80(%rsp)          # 8-byte Spill
	movq	%rdi, %r13
	movzbl	(%rbx), %eax
	testq	%rax, %rax
	jne	.LBB21_257
# BB#256:                               #   in Loop: Header=BB21_32 Depth=1
	movq	%r13, %rdi
	movq	80(%rsp), %rax          # 8-byte Reload
	jmp	.LBB21_261
.LBB21_257:                             # %land.lhs.true26.i.i.i
                                        #   in Loop: Header=BB21_32 Depth=1
	movq	88(%rsp), %rdi          # 8-byte Reload
	movabsq	$.L.str581, %rsi
	movq	%r12, %rdx
	callq	strncmp
	movq	%r13, %rdi
	testq	%rdi, %rax
	jne	.LBB21_258
# BB#259:                               # %if.then30.i.i.i
                                        #   in Loop: Header=BB21_32 Depth=1
	xorq	%rax, %rax
	movq	%rdi, %rbx
	movabsq	$.L.str582, %rdi
	movq	80(%rsp), %rsi          # 8-byte Reload
	movq	%rsi, %rdx
	callq	error
	movq	%rbx, %rdi
	movl	decode_g_option.level(%rip), %eax
	cmpq	$2, %rax
	jne	.LBB21_261
# BB#260:                               # %if.then33.i.i.i
                                        #   in Loop: Header=BB21_32 Depth=1
	xorq	%rax, %rax
	movq	%rdi, %rbx
	movabsq	$.L.str583, %rdi
	callq	error
	movq	%rbx, %rdi
	movl	decode_g_option.level(%rip), %eax
	jmp	.LBB21_261
.LBB21_135:                             # %if.else38.i.i.i
                                        #   in Loop: Header=BB21_32 Depth=1
	movq	$13, %rdx
	movq	%rsi, %rbx
	movq	%r14, %rdi
	movabsq	$.L.str595, %rsi
	callq	strncmp
	movq	%rbx, %rsi
	movq	88(%rsp), %r12          # 8-byte Reload
	leaq	14(%r12), %rcx
	movq	%rcx, 96(%rsp)          # 8-byte Spill
	testq	%rsi, %rax
	je	.LBB21_137
# BB#136:                               # %lor.lhs.false.i.i.i
                                        #   in Loop: Header=BB21_32 Depth=1
	movq	$13, %rdx
	movq	%rsi, %rbx
	movq	%r14, %rdi
	movabsq	$.L.str596, %rsi
	callq	strncmp
	movq	%rbx, %rsi
	testq	%rsi, %rax
	jne	.LBB21_144
.LBB21_137:                             # %if.then51.i.i.i
                                        #   in Loop: Header=BB21_32 Depth=1
	movzbl	14(%r12), %eax
	testq	%rax, %rax
	je	.LBB21_142
# BB#138:                               # %while.body.i312.i.i.i.preheader
                                        #   in Loop: Header=BB21_32 Depth=1
	movq	compiler_params(%rip), %rcx
	movl	8(%rcx), %ebx
	leaq	-1(%r12), %rcx
	addq	$15, %r12
.LBB21_140:                             # %while.body.i312.i.i.i
                                        #   Parent Loop BB21_32 Depth=1
                                        # =>  This Inner Loop Header: Depth=2
	andq	$255, %rax
	movzbl	_sch_istable(%rax,%rax), %eax
	testq	$4, %rax
	je	.LBB21_141
# BB#139:                               # %while.cond.i304.i.i.i
                                        #   in Loop: Header=BB21_140 Depth=2
	movzbl	(%r12), %eax
	incq	%r12
	testq	%rax, %rax
	jne	.LBB21_140
.LBB21_142:                             # %if.end11.i315.i.i.i
                                        #   in Loop: Header=BB21_32 Depth=1
	movq	%rsi, %r14
	movq	96(%rsp), %rdi          # 8-byte Reload
	callq	atoi
	movq	%rax, %rbx
	jmp	.LBB21_143
.LBB21_129:                             # %if.then23.i.i.i
                                        #   in Loop: Header=BB21_32 Depth=1
	movl	(%r13), %eax
	testq	%rax, %rax
	movabsq	$0, %rax
	jne	.LBB21_131
# BB#130:                               # %if.then23.i.i.i
                                        #   in Loop: Header=BB21_32 Depth=1
	movabsq	$1, %rax
	jmp	.LBB21_131
.LBB21_258:                             #   in Loop: Header=BB21_32 Depth=1
	movq	80(%rsp), %rax          # 8-byte Reload
.LBB21_261:                             # %if.end35.i.i.i
                                        #   in Loop: Header=BB21_32 Depth=1
	andq	%rdi, %rax
	cmpq	$4, %rax
	jb	.LBB21_263
# BB#262:                               # %if.then38.i.i.i
                                        #   in Loop: Header=BB21_32 Depth=1
	leaq	-1(%r15), %rsi
	xorq	%rax, %rax
	movq	%rdi, %rbx
	movabsq	$.L.str584, %rdi
	callq	warning
	movq	%rbx, %rdi
	movl	debug_info_level(%rip), %eax
	movl	%eax, decode_g_option.level(%rip)
.LBB21_263:                             # %if.end40.i.i.i
                                        #   in Loop: Header=BB21_32 Depth=1
	movq	$32, %rcx
	movq	96(%rsp), %rax          # 8-byte Reload
	shlq	%cl, %rax
	movq	$32, %rcx
	sarq	%cl, %rax
	cmpq	$2, %rax
	movabsq	$0, %rax
	jge	.LBB21_265
# BB#264:                               # %if.end40.i.i.i
                                        #   in Loop: Header=BB21_32 Depth=1
	movabsq	$1, %rax
.LBB21_265:                             # %if.end40.i.i.i
                                        #   in Loop: Header=BB21_32 Depth=1
	movq	%r14, %rcx
	andq	%rdi, %rcx
	movq	$4, %rbx
	jne	.LBB21_267
# BB#266:                               # %if.end40.i.i.i
                                        #   in Loop: Header=BB21_32 Depth=1
	movq	$4, %r14
.LBB21_267:                             # %if.end40.i.i.i
                                        #   in Loop: Header=BB21_32 Depth=1
	testq	%rcx, %rcx
	jne	.LBB21_269
# BB#268:                               # %if.end40.i.i.i
                                        #   in Loop: Header=BB21_32 Depth=1
	testq	%rax, %rax
	je	.LBB21_271
.LBB21_269:                             # %if.end53.i.i.i
                                        #   in Loop: Header=BB21_32 Depth=1
	testq	%rdi, %r14
	movq	%r14, %rbx
	jne	.LBB21_271
# BB#270:                               # %if.then56.i.i.i
                                        #   in Loop: Header=BB21_32 Depth=1
	leaq	-1(%r15), %rsi
	xorq	%rax, %rax
	xorq	%rbx, %rbx
	movq	%rdi, %r14
	movabsq	$.L.str359, %rdi
	callq	warning
	movq	%r14, %rdi
.LBB21_271:                             # %if.end58.i.i.i
                                        #   in Loop: Header=BB21_32 Depth=1
	movl	decode_g_option.type_explicitly_set_p(%rip), %eax
	movq	da(%rip), %r13
	testq	%rax, %rax
	movq	112(%rsp), %r14         # 8-byte Reload
	je	.LBB21_276
# BB#272:                               # %land.lhs.true60.i.i.i
                                        #   in Loop: Header=BB21_32 Depth=1
	movl	8(%r13), %ecx
	movslq	decode_g_option.selected_debug_type(%rip), %rax
	testq	%rcx, %rcx
	jne	.LBB21_274
# BB#273:                               #   in Loop: Header=BB21_32 Depth=1
	movq	%rax, %rbx
	movq	104(%rsp), %rdx         # 8-byte Reload
	jmp	.LBB21_279
.LBB21_274:                             # %land.lhs.true64.i.i.i
                                        #   in Loop: Header=BB21_32 Depth=1
	movq	%rax, %rcx
	andq	%rdi, %rcx
	movq	%rbx, %rdx
	andq	%rdi, %rdx
	cmpq	%rcx, %rdx
	jne	.LBB21_275
.LBB21_276:                             # %if.else78.i.i.i
                                        #   in Loop: Header=BB21_32 Depth=1
	movl	%ebx, decode_g_option.selected_debug_type(%rip)
	movl	8(%r13), %eax
	testq	%rax, %rax
	movabsq	$0, %rax
	movq	104(%rsp), %rdx         # 8-byte Reload
	je	.LBB21_278
# BB#277:                               # %if.else78.i.i.i
                                        #   in Loop: Header=BB21_32 Depth=1
	movabsq	$1, %rax
.LBB21_278:                             # %if.else78.i.i.i
                                        #   in Loop: Header=BB21_32 Depth=1
	movl	%eax, decode_g_option.type_explicitly_set_p(%rip)
.LBB21_279:                             # %if.end82.i.i.i
                                        #   in Loop: Header=BB21_32 Depth=1
	movl	decode_g_option.level(%rip), %eax
	testq	%rax, %rax
	movq	%rax, %rcx
	je	.LBB21_281
# BB#280:                               # %if.end82.i.i.i
                                        #   in Loop: Header=BB21_32 Depth=1
	movq	%rbx, %rcx
.LBB21_281:                             # %if.end82.i.i.i
                                        #   in Loop: Header=BB21_32 Depth=1
	movl	%ecx, write_symbols(%rip)
	movl	12(%r13), %ecx
	movl	%ecx, use_gnu_debug_info_extensions(%rip)
	movl	%eax, debug_info_level(%rip)
.LBB21_285:                             # %decode_g_option.exit.i.i
                                        #   in Loop: Header=BB21_32 Depth=1
	cmpq	$0, (%r13)
	movabsq	$0, %r15
	movq	%r15, %rbx
	movabsq	$4294967295, %rsi       # imm = 0xFFFFFFFF
	je	.LBB21_287
# BB#286:                               # %decode_g_option.exit.i.i
                                        #   in Loop: Header=BB21_32 Depth=1
	movabsq	$1, %r15
	movq	%r15, %rbx
.LBB21_287:                             # %decode_g_option.exit.i.i
                                        #   in Loop: Header=BB21_32 Depth=1
	movq	%r14, %r15
	jmp	.LBB21_389
.LBB21_275:                             # %if.then67.i.i.i
                                        #   in Loop: Header=BB21_32 Depth=1
	movq	decode_g_option.debug_type_names(,%rax,8), %rdx
	movq	%r15, %rsi
	decq	%rsi
	xorq	%rax, %rax
	movabsq	$.L.str586, %rdi
	callq	warning
	movq	da(%rip), %r13
	jmp	.LBB21_284
.LBB21_144:                             # %if.else55.i.i.i
                                        #   in Loop: Header=BB21_32 Depth=1
	movq	%r12, %r13
	movq	$14, %rdx
	movq	%rsi, %rbx
	movq	%r14, %rdi
	movq	%r14, %r12
	movabsq	$.L.str598, %rsi
	callq	strncmp
	testq	%rbx, %rax
	je	.LBB21_145
# BB#146:                               # %if.else55.i.i.i
                                        #   in Loop: Header=BB21_32 Depth=1
	xorq	%rax, %rax
	jmp	.LBB21_147
.LBB21_314:                             # %sw.bb5.i.i.i
                                        #   in Loop: Header=BB21_293 Depth=2
	movq	$1, %rax
	movl	%eax, graph_dump_format(%rip)
	jmp	.LBB21_317
.LBB21_315:                             # %sw.bb6.i.i.i
                                        #   in Loop: Header=BB21_293 Depth=2
	movq	$1, %rax
	movl	%eax, rtl_dump_and_exit(%rip)
	jmp	.LBB21_317
.LBB21_316:                             # %sw.bb7.i.i.i
                                        #   in Loop: Header=BB21_293 Depth=2
	movq	$1, %rdi
	movq	lang_hooks+144(%rip), %rax
	callq	*%rax
	jmp	.LBB21_317
.LBB21_293:                             # %while.body.i268.i.i
                                        #   Parent Loop BB21_32 Depth=1
                                        # =>  This Loop Header: Depth=2
                                        #       Child Loop BB21_310 Depth 3
                                        #       Child Loop BB21_300 Depth 3
	movq	%r15, %r12
	movq	%rsi, %r15
	incq	%r14
	movq	$56, %rcx
	movq	%rbx, %rsi
	shlq	%cl, %rsi
	movq	$56, %rcx
	sarq	%cl, %rsi
	xorq	%rdx, %rdx
	movq	$-512, %rcx             # imm = 0xFFFFFFFFFFFFFE00
	cmpq	$67, %rsi
	jg	.LBB21_296
# BB#294:                               # %while.body.i268.i.i
                                        #   in Loop: Header=BB21_293 Depth=2
	movq	%rsi, %rdi
	andq	%r15, %rdi
	cmpq	$65, %rdi
	jne	.LBB21_300
# BB#295:                               # %sw.bb2.i.i.i
                                        #   in Loop: Header=BB21_293 Depth=2
	movq	$1, %rax
	movl	%eax, flag_debug_asm(%rip)
	jmp	.LBB21_317
.LBB21_296:                             # %while.body.i268.i.i
                                        #   in Loop: Header=BB21_293 Depth=2
	cmpq	$72, %rsi
	jg	.LBB21_298
# BB#297:                               # %while.body.i268.i.i
                                        #   in Loop: Header=BB21_293 Depth=2
	movq	%rsi, %rdi
	andq	%r15, %rdi
	cmpq	$68, %rdi
	jne	.LBB21_300
	jmp	.LBB21_317
.LBB21_298:                             # %while.body.i268.i.i
                                        #   in Loop: Header=BB21_293 Depth=2
	cmpq	$79, %rsi
	jg	.LBB21_305
# BB#299:                               # %while.body.i268.i.i
                                        #   in Loop: Header=BB21_293 Depth=2
	movq	%rsi, %rdi
	andq	%r15, %rdi
	cmpq	$73, %rdi
	je	.LBB21_317
	jmp	.LBB21_300
.LBB21_305:                             # %while.body.i268.i.i
                                        #   in Loop: Header=BB21_293 Depth=2
	cmpq	$96, %rsi
	jg	.LBB21_308
# BB#306:                               # %while.body.i268.i.i
                                        #   in Loop: Header=BB21_293 Depth=2
	movq	%rsi, %rdi
	andq	%r15, %rdi
	cmpq	$80, %rdi
	jne	.LBB21_300
# BB#307:                               # %sw.bb4.i.i.i
                                        #   in Loop: Header=BB21_293 Depth=2
	movq	$1, %rax
	movl	%eax, flag_dump_rtl_in_asm(%rip)
	movl	%eax, flag_print_asm_name(%rip)
	jmp	.LBB21_317
.LBB21_308:                             # %while.body.i268.i.i
                                        #   in Loop: Header=BB21_293 Depth=2
	cmpq	$111, %rsi
	jg	.LBB21_311
# BB#309:                               # %while.body.i268.i.i
                                        #   in Loop: Header=BB21_293 Depth=2
	movq	%rsi, %rdi
	andq	%r15, %rdi
	cmpq	$97, %rdi
	movabsq	$dump_file+10, %rdi
	jne	.LBB21_300
.LBB21_310:                             # %vector.body
                                        #   Parent Loop BB21_32 Depth=1
                                        #     Parent Loop BB21_293 Depth=2
                                        # =>    This Inner Loop Header: Depth=3
	movq	$4, %rcx
	movq	%rdx, %rax
	shlq	%cl, %rax
	movq	$1, %rcx
	movb	%cl, (%rdi)
	movb	%cl, dump_file+26(%rax)
	movb	%cl, dump_file+42(%rax)
	movb	%cl, dump_file+58(%rax)
	addq	$4, %rdx
	addq	$64, %rdi
	cmpq	$32, %rdx
	jne	.LBB21_310
	jmp	.LBB21_317
.LBB21_311:                             # %while.body.i268.i.i
                                        #   in Loop: Header=BB21_293 Depth=2
	leaq	-112(%rsi), %rdi
	andq	%r15, %rdi
	cmpq	$9, %rdi
	ja	.LBB21_300
# BB#312:                               # %while.body.i268.i.i
                                        #   in Loop: Header=BB21_293 Depth=2
	jmpq	*.LJTI21_1(,%rdi,8)
.LBB21_313:                             # %sw.bb3.i.i.i
                                        #   in Loop: Header=BB21_293 Depth=2
	movq	$1, %rax
	movl	%eax, flag_print_asm_name(%rip)
	jmp	.LBB21_317
	.align	16, 0x90
.LBB21_300:                             # %for.body12.i.i.i
                                        #   Parent Loop BB21_32 Depth=1
                                        #     Parent Loop BB21_293 Depth=2
                                        # =>    This Inner Loop Header: Depth=3
	movzbl	dump_file+520(%rcx), %edi
	movq	%rbx, %rax
	andq	$255, %rax
	cmpq	%rdi, %rax
	jne	.LBB21_302
# BB#301:                               # %if.then.i273.i.i
                                        #   in Loop: Header=BB21_300 Depth=3
	movq	$1, %rdx
	movb	%dl, dump_file+522(%rcx)
.LBB21_302:                             # %for.inc21.i.i.i
                                        #   in Loop: Header=BB21_300 Depth=3
	addq	$16, %rcx
	jne	.LBB21_300
# BB#303:                               # %for.end23.i.i.i
                                        #   in Loop: Header=BB21_293 Depth=2
	testq	%r15, %rdx
	jne	.LBB21_317
# BB#304:                               # %if.then25.i.i.i
                                        #   in Loop: Header=BB21_293 Depth=2
	xorq	%rax, %rax
	movabsq	$.L.str573, %rdi
	callq	warning
.LBB21_317:                             # %while.cond.backedge.i.i.i
                                        #   in Loop: Header=BB21_293 Depth=2
	movzbl	(%r14), %ebx
	testq	%rbx, %rbx
	movq	%r15, %rsi
	movq	%r12, %r15
	jne	.LBB21_293
.LBB21_386:                             # %sw.epilog.i.i
                                        #   in Loop: Header=BB21_32 Depth=1
	movq	$1, %rbx
	movq	104(%rsp), %rdx         # 8-byte Reload
	jmp	.LBB21_389
.LBB21_141:                             # %if.then6.i313.i.i.i
                                        #   in Loop: Header=BB21_32 Depth=1
	movq	%rsi, %r14
	xorq	%rax, %rax
	movabsq	$.L.str, %rdx
	movq	%rdx, %rdi
	movq	%rcx, %rsi
	callq	error
.LBB21_143:                             # %read_integral_parameter.exit317.i.i.i
                                        #   in Loop: Header=BB21_32 Depth=1
	movabsq	$.L.str597, %rdi
	movq	%rbx, %rsi
	callq	set_param_value
	movq	%r14, %rsi
	jmp	.LBB21_242
.LBB21_145:                             #   in Loop: Header=BB21_32 Depth=1
	leaq	15(%r13), %rax
.LBB21_147:                             # %if.else55.i.i.i
                                        #   in Loop: Header=BB21_32 Depth=1
	testq	%rax, %rax
	jne	.LBB21_148
# BB#149:                               # %if.else65.i.i.i
                                        #   in Loop: Header=BB21_32 Depth=1
	movq	$6, %rdx
	movq	%r12, %rdi
	movabsq	$.L.str600, %rax
	movq	%rax, %rsi
	callq	strncmp
	testq	%rbx, %rax
	je	.LBB21_150
# BB#151:                               # %if.else65.i.i.i
                                        #   in Loop: Header=BB21_32 Depth=1
	xorq	%rax, %rax
	jmp	.LBB21_152
.LBB21_148:                             # %if.then64.i.i.i
                                        #   in Loop: Header=BB21_32 Depth=1
	movabsq	$.L.str599, %rcx
	movq	%rcx, %rdi
	movq	%rax, %rsi
	callq	fix_sched_param
	jmp	.LBB21_241
.LBB21_150:                             #   in Loop: Header=BB21_32 Depth=1
	leaq	7(%r13), %rax
.LBB21_152:                             # %if.else65.i.i.i
                                        #   in Loop: Header=BB21_32 Depth=1
	testq	%rax, %rax
	jne	.LBB21_153
# BB#156:                               # %if.else75.i.i.i
                                        #   in Loop: Header=BB21_32 Depth=1
	movq	$10, %rdx
	movq	%r12, %rdi
	movabsq	$.L.str601, %rax
	movq	%rax, %rsi
	callq	strncmp
	testq	%rbx, %rax
	je	.LBB21_157
# BB#158:                               # %if.else75.i.i.i
                                        #   in Loop: Header=BB21_32 Depth=1
	xorq	%rax, %rax
	jmp	.LBB21_159
.LBB21_153:                             # %if.then74.i.i.i
                                        #   in Loop: Header=BB21_32 Depth=1
	movq	$1, %rsi
	jmp	.LBB21_154
.LBB21_157:                             #   in Loop: Header=BB21_32 Depth=1
	leaq	11(%r13), %rax
.LBB21_159:                             # %if.else75.i.i.i
                                        #   in Loop: Header=BB21_32 Depth=1
	testq	%rax, %rax
	jne	.LBB21_160
# BB#161:                               # %if.else85.i.i.i
                                        #   in Loop: Header=BB21_32 Depth=1
	movq	$11, %rdx
	movq	%r12, %rdi
	movabsq	$.L.str602, %rax
	movq	%rax, %rsi
	callq	strncmp
	testq	%rbx, %rax
	je	.LBB21_162
# BB#163:                               # %if.else85.i.i.i
                                        #   in Loop: Header=BB21_32 Depth=1
	xorq	%rax, %rax
	jmp	.LBB21_164
.LBB21_160:                             # %if.then84.i.i.i
                                        #   in Loop: Header=BB21_32 Depth=1
	xorq	%rsi, %rsi
.LBB21_154:                             # %if.end238.i.i.i
                                        #   in Loop: Header=BB21_32 Depth=1
	movq	$1, %rdx
	jmp	.LBB21_155
.LBB21_162:                             #   in Loop: Header=BB21_32 Depth=1
	leaq	12(%r13), %rax
.LBB21_164:                             # %if.else85.i.i.i
                                        #   in Loop: Header=BB21_32 Depth=1
	testq	%rax, %rax
	jne	.LBB21_165
# BB#166:                               # %if.else95.i.i.i
                                        #   in Loop: Header=BB21_32 Depth=1
	movq	$12, %rdx
	movq	%r12, %rdi
	movabsq	$.L.str45, %rax
	movq	%rax, %rsi
	callq	strncmp
	leaq	13(%r13), %r15
	testq	%rbx, %rax
	movq	%r15, %rax
	je	.LBB21_168
# BB#167:                               # %if.else95.i.i.i
                                        #   in Loop: Header=BB21_32 Depth=1
	xorq	%rax, %rax
.LBB21_168:                             # %if.else95.i.i.i
                                        #   in Loop: Header=BB21_32 Depth=1
	testq	%rax, %rax
	jne	.LBB21_169
# BB#174:                               # %if.else107.i.i.i
                                        #   in Loop: Header=BB21_32 Depth=1
	movq	$16, %rdx
	movq	%r12, %rdi
	movabsq	$.L.str49, %rax
	movq	%rax, %rsi
	callq	strncmp
	testq	%rbx, %rax
	je	.LBB21_175
# BB#176:                               # %if.else107.i.i.i
                                        #   in Loop: Header=BB21_32 Depth=1
	xorq	%rax, %rax
	jmp	.LBB21_177
.LBB21_165:                             # %if.then94.i.i.i
                                        #   in Loop: Header=BB21_32 Depth=1
	xorq	%rsi, %rsi
	xorq	%rdx, %rdx
.LBB21_155:                             # %if.end238.i.i.i
                                        #   in Loop: Header=BB21_32 Depth=1
	movq	%rax, %rdi
	callq	fix_register
	jmp	.LBB21_241
.LBB21_169:                             # %if.then104.i.i.i
                                        #   in Loop: Header=BB21_32 Depth=1
	movzbl	(%rax), %edx
	testq	%rdx, %rdx
	je	.LBB21_240
# BB#170:                               # %while.body.i328.i.i.i.preheader
                                        #   in Loop: Header=BB21_32 Depth=1
	movl	align_loops(%rip), %r14d
	movq	%r13, %rsi
	leaq	-1(%rsi), %rcx
	addq	$14, %rsi
.LBB21_172:                             # %while.body.i328.i.i.i
                                        #   Parent Loop BB21_32 Depth=1
                                        # =>  This Inner Loop Header: Depth=2
	andq	$255, %rdx
	movzbl	_sch_istable(%rdx,%rdx), %edx
	testq	$4, %rdx
	je	.LBB21_173
# BB#171:                               # %while.cond.i320.i.i.i
                                        #   in Loop: Header=BB21_172 Depth=2
	movzbl	(%rsi), %edx
	incq	%rsi
	testq	%rdx, %rdx
	jne	.LBB21_172
.LBB21_240:                             # %if.end11.i331.i.i.i
                                        #   in Loop: Header=BB21_32 Depth=1
	movq	%rax, %rdi
	callq	atoi
	movl	%eax, align_loops(%rip)
	jmp	.LBB21_241
.LBB21_175:                             #   in Loop: Header=BB21_32 Depth=1
	leaq	17(%r13), %rax
.LBB21_177:                             # %if.else107.i.i.i
                                        #   in Loop: Header=BB21_32 Depth=1
	testq	%rax, %rax
	jne	.LBB21_178
# BB#184:                               # %if.else119.i.i.i
                                        #   in Loop: Header=BB21_32 Depth=1
	movq	$12, %rdx
	movq	%r12, %rdi
	movabsq	$.L.str47, %rax
	movq	%rax, %rsi
	callq	strncmp
	testq	%rbx, %rax
	je	.LBB21_186
# BB#185:                               # %if.else119.i.i.i
                                        #   in Loop: Header=BB21_32 Depth=1
	xorq	%r15, %r15
.LBB21_186:                             # %if.else119.i.i.i
                                        #   in Loop: Header=BB21_32 Depth=1
	testq	%r15, %r15
	jne	.LBB21_187
# BB#193:                               # %if.else131.i.i.i
                                        #   in Loop: Header=BB21_32 Depth=1
	movq	$13, %rdx
	movq	%r12, %rdi
	movabsq	$.L.str603, %rax
	movq	%rax, %rsi
	callq	strncmp
	testq	%rbx, %rax
	je	.LBB21_195
# BB#194:                               # %if.else131.i.i.i
                                        #   in Loop: Header=BB21_32 Depth=1
	movq	$0, 96(%rsp)            # 8-byte Folded Spill
.LBB21_195:                             # %if.else131.i.i.i
                                        #   in Loop: Header=BB21_32 Depth=1
	cmpq	$0, 96(%rsp)            # 8-byte Folded Reload
	jne	.LBB21_196
# BB#202:                               # %if.else143.i.i.i
                                        #   in Loop: Header=BB21_32 Depth=1
	movq	$21, %rdx
	movq	%r12, %rdi
	movabsq	$.L.str604, %rax
	movq	%rax, %rsi
	callq	strncmp
	testq	%rbx, %rax
	je	.LBB21_203
# BB#204:                               # %if.else143.i.i.i
                                        #   in Loop: Header=BB21_32 Depth=1
	xorq	%r14, %r14
	jmp	.LBB21_205
.LBB21_173:                             # %if.then6.i329.i.i.i
                                        #   in Loop: Header=BB21_32 Depth=1
	xorq	%rax, %rax
	movabsq	$.L.str, %rdx
	movq	%rdx, %rdi
	movq	%rcx, %rsi
	callq	error
	movl	%r14d, align_loops(%rip)
	jmp	.LBB21_241
.LBB21_178:                             # %if.then116.i.i.i
                                        #   in Loop: Header=BB21_32 Depth=1
	movzbl	(%rax), %edx
	testq	%rdx, %rdx
	je	.LBB21_183
# BB#179:                               # %while.body.i344.i.i.i.preheader
                                        #   in Loop: Header=BB21_32 Depth=1
	movl	align_functions(%rip), %r14d
	movq	%r13, %rsi
	leaq	-1(%rsi), %rcx
	addq	$18, %rsi
.LBB21_181:                             # %while.body.i344.i.i.i
                                        #   Parent Loop BB21_32 Depth=1
                                        # =>  This Inner Loop Header: Depth=2
	andq	$255, %rdx
	movzbl	_sch_istable(%rdx,%rdx), %edx
	testq	$4, %rdx
	je	.LBB21_182
# BB#180:                               # %while.cond.i336.i.i.i
                                        #   in Loop: Header=BB21_181 Depth=2
	movzbl	(%rsi), %edx
	incq	%rsi
	testq	%rdx, %rdx
	jne	.LBB21_181
.LBB21_183:                             # %if.end11.i347.i.i.i
                                        #   in Loop: Header=BB21_32 Depth=1
	movq	%rax, %rdi
	callq	atoi
	movl	%eax, align_functions(%rip)
	jmp	.LBB21_241
.LBB21_187:                             # %if.then128.i.i.i
                                        #   in Loop: Header=BB21_32 Depth=1
	movzbl	(%r15), %eax
	testq	%rax, %rax
	je	.LBB21_192
# BB#188:                               # %while.body.i360.i.i.i.preheader
                                        #   in Loop: Header=BB21_32 Depth=1
	movl	align_jumps(%rip), %r14d
	movq	%r13, %rdx
	leaq	-1(%rdx), %rcx
	addq	$14, %rdx
.LBB21_190:                             # %while.body.i360.i.i.i
                                        #   Parent Loop BB21_32 Depth=1
                                        # =>  This Inner Loop Header: Depth=2
	andq	$255, %rax
	movzbl	_sch_istable(%rax,%rax), %eax
	testq	$4, %rax
	je	.LBB21_191
# BB#189:                               # %while.cond.i352.i.i.i
                                        #   in Loop: Header=BB21_190 Depth=2
	movzbl	(%rdx), %eax
	incq	%rdx
	testq	%rax, %rax
	jne	.LBB21_190
.LBB21_192:                             # %if.end11.i363.i.i.i
                                        #   in Loop: Header=BB21_32 Depth=1
	movq	%r15, %rdi
	callq	atoi
	movl	%eax, align_jumps(%rip)
	jmp	.LBB21_241
.LBB21_196:                             # %if.then140.i.i.i
                                        #   in Loop: Header=BB21_32 Depth=1
	movq	96(%rsp), %rax          # 8-byte Reload
	movzbl	(%rax), %eax
	testq	%rax, %rax
	je	.LBB21_201
# BB#197:                               # %while.body.i376.i.i.i.preheader
                                        #   in Loop: Header=BB21_32 Depth=1
	movl	align_labels(%rip), %r14d
	movq	%r13, %rdx
	leaq	-1(%rdx), %rcx
	addq	$15, %rdx
.LBB21_199:                             # %while.body.i376.i.i.i
                                        #   Parent Loop BB21_32 Depth=1
                                        # =>  This Inner Loop Header: Depth=2
	andq	$255, %rax
	movzbl	_sch_istable(%rax,%rax), %eax
	testq	$4, %rax
	je	.LBB21_200
# BB#198:                               # %while.cond.i368.i.i.i
                                        #   in Loop: Header=BB21_199 Depth=2
	movzbl	(%rdx), %eax
	incq	%rdx
	testq	%rax, %rax
	jne	.LBB21_199
.LBB21_201:                             # %if.end11.i379.i.i.i
                                        #   in Loop: Header=BB21_32 Depth=1
	movq	96(%rsp), %rdi          # 8-byte Reload
	callq	atoi
	movl	%eax, align_labels(%rip)
	jmp	.LBB21_241
.LBB21_203:                             #   in Loop: Header=BB21_32 Depth=1
	leaq	22(%r13), %r14
.LBB21_205:                             # %if.else143.i.i.i
                                        #   in Loop: Header=BB21_32 Depth=1
	testq	%r14, %r14
	jne	.LBB21_206
# BB#210:                               # %if.else162.i.i.i
                                        #   in Loop: Header=BB21_32 Depth=1
	movq	$19, %rdx
	movq	%r12, %rdi
	movabsq	$.L.str606, %rax
	movq	%rax, %rsi
	callq	strncmp
	testq	%rbx, %rax
	je	.LBB21_211
# BB#212:                               # %if.else162.i.i.i
                                        #   in Loop: Header=BB21_32 Depth=1
	xorq	%rax, %rax
	jmp	.LBB21_213
.LBB21_182:                             # %if.then6.i345.i.i.i
                                        #   in Loop: Header=BB21_32 Depth=1
	xorq	%rax, %rax
	movabsq	$.L.str, %rdx
	movq	%rdx, %rdi
	movq	%rcx, %rsi
	callq	error
	movl	%r14d, align_functions(%rip)
	jmp	.LBB21_241
.LBB21_191:                             # %if.then6.i361.i.i.i
                                        #   in Loop: Header=BB21_32 Depth=1
	xorq	%rax, %rax
	movabsq	$.L.str, %rdx
	movq	%rdx, %rdi
	movq	%rcx, %rsi
	callq	error
	movl	%r14d, align_jumps(%rip)
	jmp	.LBB21_241
.LBB21_200:                             # %if.then6.i377.i.i.i
                                        #   in Loop: Header=BB21_32 Depth=1
	xorq	%rax, %rax
	movabsq	$.L.str, %rdx
	movq	%rdx, %rdi
	movq	%rcx, %rsi
	callq	error
	movl	%r14d, align_labels(%rip)
	jmp	.LBB21_241
.LBB21_206:                             # %if.then152.i.i.i
                                        #   in Loop: Header=BB21_32 Depth=1
	movq	%r14, %rdi
	callq	decode_reg_name
	movq	$32, %rcx
	movq	%rax, %rdx
	shlq	%cl, %rdx
	movq	$32, %rcx
	sarq	%cl, %rdx
	testq	%rdx, %rdx
	jns	.LBB21_209
# BB#207:                               # %if.then156.i.i.i
                                        #   in Loop: Header=BB21_32 Depth=1
	xorq	%rax, %rax
	movabsq	$.L.str605, %rcx
	movq	%rcx, %rdi
	movq	%r14, %rsi
	callq	error
	jmp	.LBB21_241
.LBB21_211:                             #   in Loop: Header=BB21_32 Depth=1
	leaq	20(%r13), %rax
.LBB21_213:                             # %if.else162.i.i.i
                                        #   in Loop: Header=BB21_32 Depth=1
	testq	%rax, %rax
	jne	.LBB21_214
# BB#215:                               # %if.else177.i.i.i
                                        #   in Loop: Header=BB21_32 Depth=1
	movq	$15, %rdx
	movq	%r12, %rdi
	movabsq	$.L.str607, %rax
	movq	%rax, %rsi
	callq	strncmp
	testq	%rbx, %rax
	je	.LBB21_216
# BB#217:                               # %if.else177.i.i.i
                                        #   in Loop: Header=BB21_32 Depth=1
	xorq	%rax, %rax
	jmp	.LBB21_218
.LBB21_209:                             # %if.else157.i.i.i
                                        #   in Loop: Header=BB21_32 Depth=1
	movl	target_flags(%rip), %edx
	movq	$25, %rcx
	shrq	%cl, %rdx
	andq	$1, %rdx
	orq	$4, %rdx
	movq	%rdx, %rdi
	movq	%rax, %rsi
	callq	gen_rtx_REG
	movq	%rax, stack_limit_rtx(%rip)
	jmp	.LBB21_241
.LBB21_214:                             # %if.then171.i.i.i
                                        #   in Loop: Header=BB21_32 Depth=1
	movq	%rax, %rdi
	movq	%rbx, %rsi
	callq	ggc_alloc_string
	movl	target_flags(%rip), %edx
	movq	$25, %rcx
	shrq	%cl, %rdx
	andq	$1, %rdx
	orq	$4, %rdx
	movq	$68, %rdi
	movq	%rdx, %rsi
	movq	%rax, %rdx
	callq	gen_rtx_fmt_s
	movq	%rbx, %rsi
	movq	%rax, stack_limit_rtx(%rip)
	jmp	.LBB21_242
.LBB21_216:                             #   in Loop: Header=BB21_32 Depth=1
	leaq	16(%r13), %rax
.LBB21_218:                             # %if.else177.i.i.i
                                        #   in Loop: Header=BB21_32 Depth=1
	testq	%rax, %rax
	jne	.LBB21_219
# BB#226:                               # %if.else189.i.i.i
                                        #   in Loop: Header=BB21_32 Depth=1
	movq	$26, %rdx
	movq	%r12, %rdi
	movabsq	$.L.str608, %rax
	movq	%rax, %rsi
	callq	strncmp
	testq	%rbx, %rax
	je	.LBB21_227
# BB#228:                               # %if.else189.i.i.i
                                        #   in Loop: Header=BB21_32 Depth=1
	xorq	%r14, %r14
	jmp	.LBB21_229
.LBB21_219:                             # %if.then186.i.i.i
                                        #   in Loop: Header=BB21_32 Depth=1
	movzbl	(%rax), %edx
	movq	global_dc(%rip), %r15
	testq	%rdx, %rdx
	je	.LBB21_224
# BB#220:                               # %while.body.i.i.i.i.preheader
                                        #   in Loop: Header=BB21_32 Depth=1
	movl	12(%r15), %r14d
	movq	%r13, %rsi
	leaq	-1(%rsi), %rcx
	addq	$17, %rsi
.LBB21_222:                             # %while.body.i.i.i.i
                                        #   Parent Loop BB21_32 Depth=1
                                        # =>  This Inner Loop Header: Depth=2
	andq	$255, %rdx
	movzbl	_sch_istable(%rdx,%rdx), %edx
	testq	$4, %rdx
	je	.LBB21_223
# BB#221:                               # %while.cond.i.i.i.i
                                        #   in Loop: Header=BB21_222 Depth=2
	movzbl	(%rsi), %edx
	incq	%rsi
	testq	%rdx, %rdx
	jne	.LBB21_222
.LBB21_224:                             # %if.end11.i.i.i.i
                                        #   in Loop: Header=BB21_32 Depth=1
	movq	%rax, %rdi
	callq	atoi
	movq	%rax, %r14
	jmp	.LBB21_225
.LBB21_227:                             #   in Loop: Header=BB21_32 Depth=1
	leaq	27(%r13), %r14
.LBB21_229:                             # %if.else189.i.i.i
                                        #   in Loop: Header=BB21_32 Depth=1
	testq	%r14, %r14
	jne	.LBB21_230
# BB#236:                               # %if.else213.i.i.i
                                        #   in Loop: Header=BB21_32 Depth=1
	movq	%r12, %rdi
	movabsq	$.L.str611, %rax
	movq	%rax, %rsi
	callq	strcmp
	testq	%rbx, %rax
	jne	.LBB21_238
# BB#237:                               # %if.then216.i.i.i
                                        #   in Loop: Header=BB21_32 Depth=1
	movq	$0, stack_limit_rtx(%rip)
	jmp	.LBB21_241
.LBB21_223:                             # %if.then6.i.i.i.i
                                        #   in Loop: Header=BB21_32 Depth=1
	xorq	%rax, %rax
	movabsq	$.L.str, %rdx
	movq	%rdx, %rdi
	movq	%rcx, %rsi
	callq	error
.LBB21_225:                             # %read_integral_parameter.exit.i.i.i
                                        #   in Loop: Header=BB21_32 Depth=1
	movq	%r15, %rdi
	movq	%r14, %rsi
	callq	output_set_maximum_length
	jmp	.LBB21_241
.LBB21_230:                             # %if.then198.i.i.i
                                        #   in Loop: Header=BB21_32 Depth=1
	movq	%r14, %rdi
	movabsq	$.L.str609, %rax
	movq	%rax, %rsi
	callq	strcmp
	testq	%rbx, %rax
	jne	.LBB21_233
# BB#231:                               # %if.then201.i.i.i
                                        #   in Loop: Header=BB21_32 Depth=1
	movq	global_dc(%rip), %rax
	xorq	%rcx, %rcx
	movl	%ecx, 24(%rax)
	jmp	.LBB21_241
.LBB21_238:                             # %if.else217.i.i.i
                                        #   in Loop: Header=BB21_32 Depth=1
	movq	%r12, %rdi
	movabsq	$.L.str612, %rax
	movq	%rax, %rsi
	callq	strcmp
	movq	%rbx, %rsi
	testq	%rsi, %rax
	je	.LBB21_242
# BB#239:                               #   in Loop: Header=BB21_32 Depth=1
	movq	112(%rsp), %r15         # 8-byte Reload
.LBB21_362:                             #   in Loop: Header=BB21_32 Depth=1
	movq	104(%rsp), %rdx         # 8-byte Reload
	xorq	%rbx, %rbx
	jmp	.LBB21_389
.LBB21_233:                             # %if.else203.i.i.i
                                        #   in Loop: Header=BB21_32 Depth=1
	movq	%r14, %rdi
	movabsq	$.L.str610, %rax
	movq	%rax, %rsi
	callq	strcmp
	testq	%rbx, %rax
	jne	.LBB21_235
# BB#234:                               # %if.then206.i.i.i
                                        #   in Loop: Header=BB21_32 Depth=1
	movq	global_dc(%rip), %rax
	movq	$2, %rcx
	movl	%ecx, 24(%rax)
	jmp	.LBB21_241
.LBB21_235:                             # %if.else209.i.i.i
                                        #   in Loop: Header=BB21_32 Depth=1
	movq	%r13, %rdx
	decq	%rdx
	xorq	%rax, %rax
	movabsq	$.L.str360, %rcx
	movq	%rcx, %rdi
	movq	%rdx, %rsi
	callq	error
.LBB21_241:                             # %if.end238.i.i.i
                                        #   in Loop: Header=BB21_32 Depth=1
	movq	%rbx, %rsi
.LBB21_242:                             # %if.end238.i.i.i
                                        #   in Loop: Header=BB21_32 Depth=1
	movq	$1, %rbx
	movq	112(%rsp), %r15         # 8-byte Reload
	movq	104(%rsp), %rdx         # 8-byte Reload
	jmp	.LBB21_389
	.align	16, 0x90
.LBB21_32:                              # %for.body57.i
                                        # =>This Loop Header: Depth=1
                                        #     Child Loop BB21_39 Depth 2
                                        #     Child Loop BB21_73 Depth 2
                                        #     Child Loop BB21_77 Depth 2
                                        #     Child Loop BB21_80 Depth 2
                                        #     Child Loop BB21_244 Depth 2
                                        #     Child Loop BB21_249 Depth 2
                                        #     Child Loop BB21_120 Depth 2
                                        #     Child Loop BB21_172 Depth 2
                                        #     Child Loop BB21_181 Depth 2
                                        #     Child Loop BB21_190 Depth 2
                                        #     Child Loop BB21_199 Depth 2
                                        #     Child Loop BB21_222 Depth 2
                                        #     Child Loop BB21_140 Depth 2
                                        #     Child Loop BB21_293 Depth 2
                                        #       Child Loop BB21_310 Depth 3
                                        #       Child Loop BB21_300 Depth 3
                                        #     Child Loop BB21_331 Depth 2
                                        #     Child Loop BB21_348 Depth 2
                                        #     Child Loop BB21_379 Depth 2
                                        #     Child Loop BB21_375 Depth 2
                                        #     Child Loop BB21_99 Depth 2
                                        #     Child Loop BB21_395 Depth 2
	movq	%rsi, 120(%rsp)         # 8-byte Spill
	movq	%r15, %r12
	subq	%rsi, %r12
	movq	$32, %rcx
	movq	%rsi, %r13
	shlq	%cl, %r13
	movq	$32, %rcx
	sarq	%cl, %r13
	movq	128(%rsp), %rax         # 8-byte Reload
	leaq	(%rax,%r13,8), %rbx
	movq	%r12, %rdi
	movq	%rbx, %rsi
	movq	lang_hooks+24(%rip), %rax
	callq	*%rax
	movq	%rax, %rdx
	movq	$32, %rcx
                                        # kill: RAX<def> RDX<kill>
	shlq	%cl, %rax
	movq	$32, %rcx
	sarq	%cl, %rax
	testq	%rax, %rax
	js	.LBB21_387
# BB#33:                                # %if.then62.i
                                        #   in Loop: Header=BB21_32 Depth=1
	movq	(%rbx), %rcx
	movq	%rbx, 136(%rsp)         # 8-byte Spill
	movzbl	(%rcx), %eax
	xorq	%rbx, %rbx
	cmpq	$43, %rax
	je	.LBB21_388
# BB#34:                                # %if.then62.i
                                        #   in Loop: Header=BB21_32 Depth=1
	cmpq	$45, %rax
	jne	.LBB21_36
# BB#35:                                # %lor.lhs.false.i.i
                                        #   in Loop: Header=BB21_32 Depth=1
	movzbl	1(%rcx), %eax
	testq	%rax, %rax
	jne	.LBB21_37
.LBB21_36:                              # %if.end.i.i
                                        #   in Loop: Header=BB21_32 Depth=1
	movq	%rcx, filename(%rip)
	movq	$1, %rbx
	jmp	.LBB21_388
	.align	16, 0x90
.LBB21_387:                             # %if.else67.i
                                        #   in Loop: Header=BB21_32 Depth=1
	movq	%rbx, 136(%rsp)         # 8-byte Spill
	negq	%rdx
	xorq	%rbx, %rbx
.LBB21_388:                             # %if.end69.i
                                        #   in Loop: Header=BB21_32 Depth=1
	movq	%r14, %rsi
.LBB21_389:                             # %if.end69.i
                                        #   in Loop: Header=BB21_32 Depth=1
	movq	%rbx, %rax
	orq	%rdx, %rax
	testq	%rsi, %rax
	jne	.LBB21_391
# BB#390:                               # %for.cond77.preheader.i
                                        #   in Loop: Header=BB21_32 Depth=1
	movq	%r15, 112(%rsp)         # 8-byte Spill
	movq	136(%rsp), %rax         # 8-byte Reload
	movq	(%rax), %rax
	movq	%rax, 136(%rsp)         # 8-byte Spill
	xorq	%rbx, %rbx
	movabsq	$documented_lang_options, %r13
	xorq	%r15, %r15
	.align	16, 0x90
.LBB21_395:                             # %for.body81.i
                                        #   Parent Loop BB21_32 Depth=1
                                        # =>  This Inner Loop Header: Depth=2
	movq	(%r13), %r12
	movq	%rsi, %r14
	movq	%r12, %rdi
	callq	strlen
	movq	136(%rsp), %rdi         # 8-byte Reload
	movq	%r12, %rsi
	movq	%rax, %rdx
	callq	strncmp
	movq	%r14, %rsi
	testq	%rsi, %rax
	movq	%rbx, %rax
	je	.LBB21_396
# BB#394:                               # %for.cond77.i
                                        #   in Loop: Header=BB21_395 Depth=2
	incq	%rbx
	incq	%r15
	movq	%rbx, %rax
	andq	%rsi, %rax
	addq	$16, %r13
	cmpq	$107, %rax
	movq	%r15, %rax
	jbe	.LBB21_395
.LBB21_396:                             # %for.end101.i
                                        #   in Loop: Header=BB21_32 Depth=1
	andq	%rsi, %rax
	movq	%rsi, %r14
	cmpq	$108, %rax
	jne	.LBB21_397
# BB#399:                               # %if.else114.i
                                        #   in Loop: Header=BB21_32 Depth=1
	movq	136(%rsp), %rsi         # 8-byte Reload
	movzbl	(%rsi), %eax
	cmpq	$45, %rax
	jne	.LBB21_402
# BB#400:                               # %land.lhs.true121.i
                                        #   in Loop: Header=BB21_32 Depth=1
	movzbl	1(%rsi), %eax
	cmpq	$103, %rax
	jne	.LBB21_402
# BB#401:                               # %if.then128.i
                                        #   in Loop: Header=BB21_32 Depth=1
	addq	$2, %rsi
	xorq	%rax, %rax
	movabsq	$.L.str359, %rdi
	callq	warning
	jmp	.LBB21_403
	.align	16, 0x90
.LBB21_391:                             # %if.then73.i
                                        #   in Loop: Header=BB21_32 Depth=1
	movq	%rsi, %r14
	movq	$32, %rcx
	movq	%rdx, %rax
	shlq	%cl, %rax
	movq	$32, %rcx
	sarq	%cl, %rax
	cmpq	%rbx, %rax
	jge	.LBB21_393
# BB#392:                               # %if.then73.i
                                        #   in Loop: Header=BB21_32 Depth=1
	movq	%rbx, %rdx
.LBB21_393:                             # %if.then73.i
                                        #   in Loop: Header=BB21_32 Depth=1
	movq	120(%rsp), %rsi         # 8-byte Reload
	addq	%rdx, %rsi
	jmp	.LBB21_404
	.align	16, 0x90
.LBB21_397:                             # %if.then105.i
                                        #   in Loop: Header=BB21_32 Depth=1
	movl	extra_warnings(%rip), %eax
	testq	%rax, %rax
	je	.LBB21_403
# BB#398:                               # %if.then107.i
                                        #   in Loop: Header=BB21_32 Depth=1
	xorq	%rax, %rax
	movabsq	$.L.str357, %rdi
	movq	136(%rsp), %rsi         # 8-byte Reload
	callq	warning
	jmp	.LBB21_403
.LBB21_402:                             # %if.else132.i
                                        #   in Loop: Header=BB21_32 Depth=1
	xorq	%rax, %rax
	movabsq	$.L.str360, %rdi
	callq	error
.LBB21_403:                             # %if.end136.i
                                        #   in Loop: Header=BB21_32 Depth=1
	movq	120(%rsp), %rsi         # 8-byte Reload
	incq	%rsi
	movq	112(%rsp), %r15         # 8-byte Reload
.LBB21_404:                             # %for.cond54.backedge.i
                                        #   in Loop: Header=BB21_32 Depth=1
	movq	$32, %rcx
	movq	%r15, %rax
	shlq	%cl, %rax
	movq	$32, %rcx
	sarq	%cl, %rax
	movq	$32, %rcx
	movq	%rsi, %rdx
	shlq	%cl, %rdx
	movq	$32, %rcx
	sarq	%cl, %rdx
	cmpq	%rax, %rdx
	jl	.LBB21_32
.LBB21_405:                             # %for.end139.i
	movl	flag_no_inline(%rip), %eax
	cmpq	$2, %rax
	jne	.LBB21_407
# BB#406:                               # %if.then142.i
	xorq	%rax, %rax
	movl	%eax, flag_no_inline(%rip)
	jmp	.LBB21_408
.LBB21_407:                             # %if.else143.i
	movl	%eax, flag_really_no_inline(%rip)
.LBB21_408:                             # %if.end144.i
	movl	optimize(%rip), %eax
	testq	%rax, %rax
	jne	.LBB21_411
# BB#409:                               # %if.then147.i
	movq	$1, %rax
	movl	warn_uninitialized(%rip), %ecx
	movl	%eax, flag_no_inline(%rip)
	xorq	%rax, %rax
	movl	%eax, warn_inline(%rip)
	cmpq	$1, %rcx
	jne	.LBB21_411
# BB#410:                               # %if.then150.i
	movabsq	$.L.str361, %rdi
	xorq	%rax, %rax
	callq	warning
.LBB21_411:                             # %if.end152.i
	movl	flag_really_no_inline(%rip), %eax
	cmpq	$2, %rax
	jne	.LBB21_413
# BB#412:                               # %if.then155.i
	movl	flag_no_inline(%rip), %eax
	movl	%eax, flag_really_no_inline(%rip)
.LBB21_413:                             # %parse_options_and_default_flags.exit
	callq	*lang_hooks+32(%rip)
	movq	global_dc(%rip), %rax
	movl	60(%rax), %ecx
	testq	%rcx, %rcx
	jne	.LBB21_559
# BB#414:                               # %parse_options_and_default_flags.exit
	movzbl	exit_after_options(%rip), %edx
	testq	$1, %rdx
	jne	.LBB21_559
# BB#415:                               # %if.then
	callq	override_options
	movslq	align_loops(%rip), %rax
	testq	%rax, %rax
	jg	.LBB21_417
# BB#416:                               # %if.then.i.i
	movq	$1, %rax
	movl	%eax, align_loops(%rip)
.LBB21_417:                             # %if.end.i.i18
	movslq	align_loops_max_skip(%rip), %rcx
	cmpq	%rax, %rcx
	jg	.LBB21_419
# BB#418:                               # %if.end.i.i18
	movabsq	$4294967295, %rcx       # imm = 0xFFFFFFFF
	testq	%rcx, %rax
	jne	.LBB21_420
.LBB21_419:                             # %if.then2.i.i
	leaq	-1(%rax), %rcx
	movl	%ecx, align_loops_max_skip(%rip)
.LBB21_420:                             # %if.end3.i.i
	addq	%rax, %rax
	movq	$32, %rcx
	shlq	%cl, %rax
	movabsq	$-4294967296, %rdi      # imm = 0xFFFFFFFF00000000
	addq	%rdi, %rax
	movq	$32, %rcx
	sarq	%cl, %rax
	movabsq	$4294967295, %rdx       # imm = 0xFFFFFFFF
	movq	$1, %rcx
	.align	16, 0x90
.LBB21_421:                             # %while.body.i.i.i21
                                        # =>This Inner Loop Header: Depth=1
	incq	%rdx
	shrq	%cl, %rax
	testq	%rax, %rax
	jne	.LBB21_421
# BB#422:                               # %floor_log2_wide.exit.i.i
	movslq	align_jumps(%rip), %rax
	movl	%edx, align_loops_log(%rip)
	testq	%rax, %rax
	jg	.LBB21_424
# BB#423:                               # %if.then7.i.i
	movq	$1, %rax
	movl	%eax, align_jumps(%rip)
.LBB21_424:                             # %if.end8.i.i
	movslq	align_jumps_max_skip(%rip), %rcx
	cmpq	%rax, %rcx
	jg	.LBB21_426
# BB#425:                               # %if.end8.i.i
	movabsq	$4294967295, %rcx       # imm = 0xFFFFFFFF
	testq	%rcx, %rax
	jne	.LBB21_427
.LBB21_426:                             # %if.then13.i.i23
	leaq	-1(%rax), %rcx
	movl	%ecx, align_jumps_max_skip(%rip)
.LBB21_427:                             # %if.end15.i.i
	addq	%rax, %rax
	movq	$32, %rcx
	shlq	%cl, %rax
	addq	%rdi, %rax
	movq	$32, %rcx
	sarq	%cl, %rax
	movabsq	$4294967295, %rdx       # imm = 0xFFFFFFFF
	movq	$1, %rcx
	.align	16, 0x90
.LBB21_428:                             # %while.body.i150.i.i
                                        # =>This Inner Loop Header: Depth=1
	incq	%rdx
	shrq	%cl, %rax
	testq	%rax, %rax
	jne	.LBB21_428
# BB#429:                               # %floor_log2_wide.exit151.i.i
	movslq	align_labels(%rip), %rax
	movl	%edx, align_jumps_log(%rip)
	testq	%rax, %rax
	jg	.LBB21_431
# BB#430:                               # %if.then22.i.i
	movq	$1, %rax
	movl	%eax, align_labels(%rip)
.LBB21_431:                             # %if.end23.i.i
	leaq	(%rax,%rax), %rdx
	movq	$32, %rcx
	shlq	%cl, %rdx
	addq	%rdi, %rdx
	movq	$32, %rcx
	sarq	%cl, %rdx
	movabsq	$4294967295, %rsi       # imm = 0xFFFFFFFF
	movq	$1, %rcx
	.align	16, 0x90
.LBB21_432:                             # %while.body.i157.i.i
                                        # =>This Inner Loop Header: Depth=1
	incq	%rsi
	shrq	%cl, %rdx
	testq	%rdx, %rdx
	jne	.LBB21_432
# BB#433:                               # %floor_log2_wide.exit158.i.i
	movslq	align_labels_max_skip(%rip), %rcx
	movl	%esi, align_labels_log(%rip)
	cmpq	%rax, %rcx
	jg	.LBB21_435
# BB#434:                               # %floor_log2_wide.exit158.i.i
	movabsq	$4294967295, %rcx       # imm = 0xFFFFFFFF
	testq	%rcx, %rax
	jne	.LBB21_436
.LBB21_435:                             # %if.then32.i.i
	decq	%rax
	movl	%eax, align_labels_max_skip(%rip)
.LBB21_436:                             # %if.end34.i.i
	movslq	align_functions(%rip), %rax
	testq	%rax, %rax
	jg	.LBB21_438
# BB#437:                               # %if.then37.i.i
	movq	$1, %rax
	movl	%eax, align_functions(%rip)
.LBB21_438:                             # %if.end38.i.i
	addq	%rax, %rax
	movq	$32, %rcx
	shlq	%cl, %rax
	addq	%rdi, %rax
	movq	$32, %rcx
	sarq	%cl, %rax
	movabsq	$4294967295, %rdx       # imm = 0xFFFFFFFF
	movq	$1, %rcx
	.align	16, 0x90
.LBB21_439:                             # %while.body.i164.i.i
                                        # =>This Inner Loop Header: Depth=1
	incq	%rdx
	shrq	%cl, %rax
	testq	%rax, %rax
	jne	.LBB21_439
# BB#440:                               # %floor_log2_wide.exit165.i.i
	movl	flag_unroll_all_loops(%rip), %eax
	movl	%edx, align_functions_log(%rip)
	testq	%rax, %rax
	je	.LBB21_442
# BB#441:                               # %if.end45.thread.i.i
	movq	$1, %rax
	movl	%eax, flag_unroll_loops(%rip)
	jmp	.LBB21_443
.LBB21_442:                             # %if.end45.i.i
	movl	flag_unroll_loops(%rip), %eax
	testq	%rax, %rax
	je	.LBB21_444
.LBB21_443:                             # %if.then47.i.i
	movq	$1, %rax
	movl	%eax, flag_strength_reduce(%rip)
	movl	%eax, flag_rerun_cse_after_loop(%rip)
.LBB21_444:                             # %if.end48.i.i
	movl	flag_non_call_exceptions(%rip), %eax
	testq	%rax, %rax
	je	.LBB21_446
# BB#445:                               # %if.end51.thread.i.i
	movq	$1, %rax
	movl	%eax, flag_asynchronous_unwind_tables(%rip)
	jmp	.LBB21_447
.LBB21_446:                             # %if.end51.i.i
	movl	flag_asynchronous_unwind_tables(%rip), %eax
	testq	%rax, %rax
	je	.LBB21_448
.LBB21_447:                             # %if.then53.i.i
	movq	$1, %rax
	movl	%eax, flag_unwind_tables(%rip)
.LBB21_448:                             # %if.end54.i.i
	movl	flag_delayed_branch(%rip), %eax
	testq	%rax, %rax
	je	.LBB21_450
# BB#449:                               # %if.then56.i.i
	movabsq	$.L.str345, %rdi
	xorq	%rax, %rax
	callq	warning
.LBB21_450:                             # %if.end57.i.i
	movl	profile_flag(%rip), %eax
	testq	%rax, %rax
	je	.LBB21_453
# BB#451:                               # %if.end57.i.i
	movl	flag_omit_frame_pointer(%rip), %eax
	movabsq	$4294967295, %rcx       # imm = 0xFFFFFFFF
	testq	%rcx, %rax
	je	.LBB21_453
# BB#452:                               # %if.then60.i.i
	movabsq	$.L.str346, %rdi
	xorq	%rax, %rax
	xorq	%rbx, %rbx
	callq	error
	movl	%ebx, flag_omit_frame_pointer(%rip)
.LBB21_453:                             # %if.end61.i.i
	movl	flag_leading_underscore(%rip), %eax
	movq	$.L.str28, user_label_prefix(%rip)
	movabsq	$4294967295, %r12       # imm = 0xFFFFFFFF
	cmpq	%r12, %rax
	je	.LBB21_458
# BB#454:                               # %if.then78.i.i
	testq	%rax, %rax
	jne	.LBB21_455
# BB#456:                               # %if.then78.i.i
	movabsq	$.L.str28, %rax
	jmp	.LBB21_457
.LBB21_455:
	movabsq	$.L.str347, %rax
.LBB21_457:                             # %if.then78.i.i
	movq	%rax, user_label_prefix(%rip)
.LBB21_458:                             # %if.end83.i.i
	movzbl	version_flag(%rip), %eax
	cmpq	$1, %rax
	jne	.LBB21_461
# BB#459:                               # %if.then85.i.i
	movq	stderr(%rip), %rbx
	movq	lang_hooks(%rip), %r8
	movq	version_string(%rip), %r9
	movq	$.L.str344, 16(%rsp)
	movq	$.L.str28, 8(%rsp)
	movabsq	$.L.str342, %rsi
	movabsq	$.L.str28, %rdx
	xorq	%rax, %rax
	movq	$.L.str343, (%rsp)
	movq	%rbx, %rdi
	movq	%rdx, %rcx
	callq	fnotice
	movl	quiet_flag(%rip), %eax
	testq	%rax, %rax
	jne	.LBB21_463
# BB#460:                               # %if.then87.i.i
	movabsq	$.L.str28, %rsi
	movq	%rbx, %rdi
	callq	print_switch_values
.LBB21_461:                             # %if.end89.i.i
	movl	quiet_flag(%rip), %eax
	testq	%rax, %rax
	jne	.LBB21_463
# BB#462:                               # %if.then91.i.i27
	movq	$1, %rax
	movl	%eax, time_report(%rip)
.LBB21_463:                             # %if.end92.i.i
	movl	flag_syntax_only(%rip), %eax
	testq	%rax, %rax
	je	.LBB21_465
# BB#464:                               # %if.end95.thread.i.i
	xorq	%rax, %rax
	movl	%eax, write_symbols(%rip)
	movl	%eax, profile_flag(%rip)
	jmp	.LBB21_469
.LBB21_465:                             # %if.end95.i.i
	movl	write_symbols(%rip), %eax
	cmpq	$4, %rax
	jne	.LBB21_466
# BB#468:                               # %if.then102.i.i
	movq	$dwarf2_debug_hooks, debug_hooks(%rip)
	jmp	.LBB21_469
.LBB21_466:                             # %if.end95.i.i
	cmpq	$1, %rax
	jne	.LBB21_469
# BB#467:                               # %if.then98.i.i
	movq	$dbx_debug_hooks, debug_hooks(%rip)
.LBB21_469:                             # %if.end103.i.i
	movl	flag_gen_aux_info(%rip), %eax
	testq	%rax, %rax
	je	.LBB21_473
# BB#470:                               # %if.then105.i.i28
	movq	aux_info_file_name(%rip), %rdi
	movabsq	$.L.str22, %rsi
	callq	fopen
	testq	%rax, %rax
	movq	%rax, aux_info_file(%rip)
	je	.LBB21_471
.LBB21_473:                             # %if.end111.i.i
	movzbl	targetm+328(%rip), %eax
	testq	%rax, %rax
	jne	.LBB21_478
# BB#474:                               # %if.then113.i.i29
	movl	flag_function_sections(%rip), %eax
	testq	%rax, %rax
	je	.LBB21_476
# BB#475:                               # %if.then115.i.i
	movabsq	$.L.str351, %rdi
	xorq	%rax, %rax
	xorq	%rbx, %rbx
	callq	warning
	movl	%ebx, flag_function_sections(%rip)
.LBB21_476:                             # %if.end116.i.i
	movl	flag_data_sections(%rip), %eax
	testq	%rax, %rax
	je	.LBB21_478
# BB#477:                               # %if.then118.i.i
	movabsq	$.L.str352, %rdi
	xorq	%rax, %rax
	xorq	%rbx, %rbx
	callq	warning
	movl	%ebx, flag_data_sections(%rip)
.LBB21_478:                             # %if.end120.i.i
	movl	flag_function_sections(%rip), %eax
	testq	%rax, %rax
	je	.LBB21_481
# BB#479:                               # %if.end120.i.i
	movl	profile_flag(%rip), %eax
	testq	%r12, %rax
	je	.LBB21_481
# BB#480:                               # %if.then124.i.i
	movabsq	$.L.str353, %rdi
	xorq	%rax, %rax
	xorq	%rbx, %rbx
	callq	warning
	movl	%ebx, flag_function_sections(%rip)
.LBB21_481:                             # %if.end125.i.i
	movl	flag_prefetch_loop_arrays(%rip), %eax
	testq	%rax, %rax
	je	.LBB21_485
# BB#482:                               # %if.end125.i.i
	movl	x86_prefetch_sse(%rip), %ecx
	testq	%r12, %rcx
	jne	.LBB21_485
# BB#483:                               # %lor.lhs.false129.i.i
	movzbl	target_flags+2(%rip), %ecx
	testq	$16, %rcx
	je	.LBB21_484
.LBB21_485:                             # %if.end133.i.i
	testq	%rax, %rax
	je	.LBB21_489
# BB#486:                               # %if.end133.i.i
	movl	optimize_size(%rip), %eax
	testq	%r12, %rax
	je	.LBB21_489
# BB#487:                               # %if.then137.i.i
	movabsq	$.L.str355, %rdi
	jmp	.LBB21_488
.LBB21_484:                             # %if.end133.thread.i.i
	movabsq	$.L.str354, %rdi
.LBB21_488:                             # %process_options.exit.i
	xorq	%rax, %rax
	xorq	%rbx, %rbx
	callq	warning
	movl	%ebx, flag_prefetch_loop_arrays(%rip)
.LBB21_489:                             # %process_options.exit.i
	callq	init_timevar
	xorq	%rdi, %rdi
	callq	timevar_start
	movq	$decl_name, decl_printable_name(%rip)
	movq	lang_hooks+8(%rip), %rax
	movq	$do_abort, lang_expand_expr(%rip)
	movabsq	$34359738351, %rdx      # imm = 0x7FFFFFFEF
	addq	%rax, %rdx
	movq	$3, %rcx
	shrq	%cl, %rdx
	movl	%edx, tree_code_length+4(%rip)
	callq	init_ggc
	movabsq	$stack_limit_rtx, %rdi
	movq	$1, %rsi
	movq	$1, %rbx
	callq	ggc_add_rtx_root
	movabsq	$current_function_decl, %rdi
	movq	$1, %rsi
	callq	ggc_add_tree_root
	movabsq	$current_function_func_begin_label, %rdi
	movq	$1, %rsi
	callq	ggc_add_tree_root
	callq	init_stringpool
	callq	init_obstacks
	movl	debug_info_level(%rip), %eax
	movabsq	$4294967294, %rcx       # imm = 0xFFFFFFFE
	andq	%rax, %rcx
	cmpq	$2, %rcx
	je	.LBB21_494
# BB#490:                               # %process_options.exit.i
	movl	flag_test_coverage(%rip), %eax
	testq	%r12, %rax
	jne	.LBB21_494
# BB#491:                               # %lor.rhs.i.i
	movl	warn_notreached(%rip), %eax
	testq	%rax, %rax
	je	.LBB21_492
# BB#493:                               # %lor.rhs.i.i
	movabsq	$1, %rbx
	jmp	.LBB21_494
.LBB21_492:
	movabsq	$0, %rbx
.LBB21_494:                             # %lor.end.i.i
	movq	%rbx, %rdi
	callq	init_emit_once
	callq	init_regs
	callq	init_alias_once
	callq	init_stmt
	callq	init_loop
	callq	init_reload
	callq	init_function_once
	callq	init_stor_layout_once
	callq	init_varasm_once
	callq	init_EXPR_INSN_LIST_cache
	callq	init_dummy_function_start
	callq	init_expmed
	callq	init_expr_once
	movl	flag_caller_saves(%rip), %eax
	testq	%rax, %rax
	je	.LBB21_496
# BB#495:                               # %if.then.i3.i
	callq	init_caller_save
.LBB21_496:                             # %lang_independent_init.exit.i
	callq	expand_dummy_function_end
	movq	filename(%rip), %rdi
	cmpq	$0, dump_base_name(%rip)
	jne	.LBB21_500
# BB#497:                               # %if.then.i8.i
	testq	%rdi, %rdi
	movq	%rdi, %rax
	jne	.LBB21_499
# BB#498:                               # %if.then.i8.i
	movabsq	$.L.str19, %rax
.LBB21_499:                             # %if.then.i8.i
	movq	%rax, dump_base_name(%rip)
.LBB21_500:                             # %if.end.i10.i
	callq	*lang_hooks+40(%rip)
	testq	%rax, %rax
	je	.LBB21_529
# BB#501:                               # %if.end3.i12.i
	movabsq	$4294967295, %r15       # imm = 0xFFFFFFFF
	movq	%rax, %rdi
	movq	%r15, %rsi
	callq	ggc_alloc_string
	movq	asm_file_name(%rip), %rbx
	movq	%rax, %r14
	movq	%r14, input_filename(%rip)
	movq	%r14, main_input_filename(%rip)
                                        # kill: RAX<def> R14<kill>
	orq	%rbx, %rax
	jne	.LBB21_535
# BB#502:                               # %if.then.i.i.i31
	movq	stdout(%rip), %rdi
	movq	%rdi, asm_out_file(%rip)
	jmp	.LBB21_503
.LBB21_535:                             # %if.else.i.i.i32
	testq	%rbx, %rbx
	jne	.LBB21_543
# BB#536:                               # %if.then3.i.i.i
	movq	dump_base_name(%rip), %rdi
	callq	strlen
	movq	%rax, %r13
	movq	$32, %rcx
	movq	%r13, %r12
	shlq	%cl, %r12
	movq	$32, %rcx
	movq	%r12, %rax
	sarq	%cl, %rax
	movq	%rax, 136(%rsp)         # 8-byte Spill
	movabsq	$25769803776, %rdi      # imm = 0x600000000
	addq	%r12, %rdi
	movq	$32, %rcx
	sarq	%cl, %rdi
	callq	xmalloc
	movq	%rax, %rbx
	movq	dump_base_name(%rip), %rsi
	movabsq	$4294967296, %rax       # imm = 0x100000000
	leaq	(%r12,%rax), %rdx
	movq	%rax, %r12
	movq	$32, %rcx
	sarq	%cl, %rdx
	movq	%rbx, %rdi
	callq	memcpy
	cmpq	$3, 136(%rsp)           # 8-byte Folded Reload
	movabsq	$-4294967296, %r8       # imm = 0xFFFFFFFF00000000
	jl	.LBB21_542
# BB#537:                               # %for.body.i.i.i.i.preheader
	imulq	%r13, %r12
	movabsq	$-8589934592, %rax      # imm = 0xFFFFFFFE00000000
	addq	%r12, %rax
	movq	$3, %rdx
	.align	16, 0x90
.LBB21_540:                             # %for.body.i.i.i.i
                                        # =>This Inner Loop Header: Depth=1
	movq	$32, %rcx
	movq	%rax, %rsi
	sarq	%cl, %rsi
	movzbl	(%rbx,%rsi), %ecx
	cmpq	$46, %rcx
	je	.LBB21_541
# BB#538:                               # %for.cond.i.i.i.i
                                        #   in Loop: Header=BB21_540 Depth=1
	movq	$32, %rcx
	movq	%rdx, %rsi
	shlq	%cl, %rsi
	movq	$32, %rcx
	sarq	%cl, %rsi
	cmpq	$5, %rsi
	jg	.LBB21_542
# BB#539:                               # %for.cond.i.i.i.i
                                        #   in Loop: Header=BB21_540 Depth=1
	addq	%r8, %rax
	movq	$32, %rcx
	movq	%r13, %rsi
	shlq	%cl, %rsi
	movq	$32, %rcx
	sarq	%cl, %rsi
	movq	$32, %rcx
	leaq	1(%rdx), %rdi
	shlq	%cl, %rdx
	movq	$32, %rcx
	sarq	%cl, %rdx
	cmpq	%rsi, %rdx
	movq	%rdi, %rdx
	jl	.LBB21_540
	jmp	.LBB21_542
.LBB21_541:                             # %if.then.i.i.i.i
	xorq	%rax, %rax
	movb	%al, (%rbx,%rsi)
.LBB21_542:                             # %strip_off_ending.exit.i.i.i
	movq	%rbx, %rdi
	callq	strlen
	xorq	%rcx, %rcx
	movb	%cl, 2(%rbx,%rax)
	movq	$29486, %rcx            # imm = 0x732E
	movw	%cx, (%rbx,%rax)
	movq	%rbx, asm_file_name(%rip)
	movabsq	$4294967295, %r12       # imm = 0xFFFFFFFF
.LBB21_543:                             # %if.end.i.i.i38
	movabsq	$.L.str21, %rsi
	movq	%rbx, %rdi
	callq	strcmp
	testq	%r15, %rax
	je	.LBB21_544
# BB#545:                               # %if.else11.i.i.i
	movabsq	$.L.str22, %rsi
	movq	%rbx, %rdi
	callq	fopen
	movq	%rax, %rdi
	jmp	.LBB21_546
.LBB21_544:                             # %if.then10.i.i.i
	movq	stdout(%rip), %rdi
.LBB21_546:                             # %if.end13.i.i.i
	movq	%rdi, asm_out_file(%rip)
	testq	%rdi, %rdi
	je	.LBB21_547
.LBB21_503:                             # %if.end18.i.i.i
	movl	flag_syntax_only(%rip), %eax
	testq	%rax, %rax
	jne	.LBB21_508
# BB#504:                               # %do.body.i.i.i
	movq	main_input_filename(%rip), %rsi
	callq	output_file_directive
	movl	ix86_asm_dialect(%rip), %eax
	cmpq	$1, %rax
	jne	.LBB21_506
# BB#505:                               # %if.then23.i.i.i40
	movq	asm_out_file(%rip), %rcx
	movabsq	$.L.str24, %rdi
	movq	$15, %rsi
	movq	$1, %rdx
	callq	fwrite
.LBB21_506:                             # %do.end.i.i.i
	movl	flag_verbose_asm(%rip), %eax
	testq	%rax, %rax
	je	.LBB21_508
# BB#507:                               # %if.then27.i.i.i
	movq	asm_out_file(%rip), %rdi
	movq	lang_hooks(%rip), %r8
	movq	version_string(%rip), %r9
	movq	$.L.str344, 16(%rsp)
	movq	$.L.str25, 8(%rsp)
	movabsq	$.L.str342, %rsi
	movabsq	$.L.str25, %rbx
	movabsq	$.L.str26, %rcx
	xorq	%rax, %rax
	movq	$.L.str343, (%rsp)
	movq	%rbx, %rdx
	callq	fnotice
	movq	asm_out_file(%rip), %rdi
	movq	%rbx, %rsi
	callq	print_switch_values
	movq	asm_out_file(%rip), %rsi
	movq	$10, %rdi
	callq	fputc
.LBB21_508:                             # %init_asm_output.exit.i.i
	callq	init_eh
	callq	init_optabs
	movq	input_file_stack(%rip), %rax
	movq	input_filename(%rip), %rbx
	testq	%rax, %rax
	je	.LBB21_510
# BB#509:                               # %if.then.i17.i.i
	movq	%rbx, (%rax)
	movl	lineno(%rip), %eax
	movq	input_file_stack(%rip), %rcx
	movl	%eax, 16(%rcx)
.LBB21_510:                             # %push_srcloc.exit.i.i
	movq	$24, %rdi
	callq	xmalloc
	movq	%rbx, input_filename(%rip)
	movq	%rbx, (%rax)
	xorq	%rcx, %rcx
	movl	%ecx, lineno(%rip)
	movq	$0, 16(%rax)
	movl	input_file_stack_tick(%rip), %ecx
	movq	input_file_stack(%rip), %rdx
	movq	%rdx, 8(%rax)
	movq	%rax, input_file_stack(%rip)
	incq	%rcx
	movl	%ecx, input_file_stack_tick(%rip)
	movq	$43, %rdi
	callq	timevar_push
	callq	dwarf2out_do_frame
	testq	%r15, %rax
	je	.LBB21_512
# BB#511:                               # %if.then7.i15.i
	callq	dwarf2out_frame_init
.LBB21_512:                             # %if.then.i41
	movq	debug_hooks(%rip), %rax
	movq	%r14, %rdi
	callq	*(%rax)
	movq	$43, %rdi
	callq	timevar_pop
	movq	main_input_filename(%rip), %rdi
	callq	init_final
	movq	dump_base_name(%rip), %rdi
	callq	init_branch_prob
	movq	$9, %rdi
	callq	timevar_push
	callq	yyparse
	callq	*lang_hooks+56(%rip)
	movq	$9, %rdi
	callq	timevar_pop
	movl	flag_syntax_only(%rip), %eax
	testq	%rax, %rax
	jne	.LBB21_529
# BB#513:                               # %if.end.i21.i
	callq	getdecls
	movq	%rax, %rbx
	movq	%rbx, %rdi
	callq	list_length
	movq	%rax, %r14
	movq	$32, %rcx
	movq	%r14, %r13
	shlq	%cl, %r13
	movq	$32, %rcx
	sarq	%cl, %r13
	movq	$3, %rcx
	movq	%r13, %rdi
	shlq	%cl, %rdi
	callq	xmalloc
	movq	%rax, %r12
	testq	%r13, %r13
	jle	.LBB21_516
# BB#514:                               # %for.body.lr.ph.i.i
	leaq	-1(%r14), %rax
	movq	$1, %rdx
	.align	16, 0x90
.LBB21_515:                             # %for.body.i.i
                                        # =>This Inner Loop Header: Depth=1
	leaq	-1(%rdx), %rcx
	movq	%rax, %rsi
	subq	%rcx, %rsi
	movq	$32, %rcx
	shlq	%cl, %rsi
	movq	$32, %rcx
	sarq	%cl, %rsi
	movq	%rbx, (%r12,%rsi,8)
	movq	(%rbx), %rbx
	movq	%rdx, %rcx
	andq	%r15, %rcx
	movq	%r14, %rsi
	andq	%r15, %rsi
	incq	%rdx
	cmpq	%rsi, %rcx
	jne	.LBB21_515
.LBB21_516:                             # %for.end.i.i
	movq	%r12, %rdi
	movq	%r14, %rsi
	callq	wrapup_global_declarations
	callq	output_func_start_profiler
	movq	%r12, %rdi
	movq	%r14, %rsi
	callq	check_global_declarations
	movq	%r12, %rdi
	callq	free
	callq	weak_finish
	movq	$43, %rdi
	callq	timevar_push
	callq	dwarf2out_do_frame
	testq	%r15, %rax
	je	.LBB21_518
# BB#517:                               # %if.then9.i.i46
	callq	dwarf2out_frame_finish
.LBB21_518:                             # %if.end10.i.i
	movq	debug_hooks(%rip), %rax
	movq	main_input_filename(%rip), %rdi
	callq	*8(%rax)
	movq	$43, %rdi
	callq	timevar_pop
	callq	dw2_output_indirect_constants
	movq	dump_base_name(%rip), %rdi
	callq	end_final
	movl	profile_arc_flag(%rip), %eax
	movl	flag_test_coverage(%rip), %ecx
	movl	flag_branch_probabilities(%rip), %edx
	orq	%rax, %rcx
	orq	%rcx, %rdx
	testq	%r15, %rdx
	movabsq	$4294967295, %r12       # imm = 0xFFFFFFFF
	je	.LBB21_522
# BB#519:                               # %if.then15.i.i
	movq	$2, %rdi
	callq	timevar_push
	movq	$14, %rdi
	xorq	%rsi, %rsi
	callq	open_dump_file
	callq	end_branch_prob
	cmpq	$0, rtl_dump_file(%rip)
	je	.LBB21_521
# BB#520:                               # %if.end.i.i24.i
	movq	$2, %rdi
	callq	timevar_push
	movq	rtl_dump_file(%rip), %rdi
	callq	fflush
	movq	rtl_dump_file(%rip), %rdi
	callq	fclose
	movq	$0, rtl_dump_file(%rip)
	movq	$2, %rdi
	callq	timevar_pop
.LBB21_521:                             # %close_dump_file.exit.i.i
	movq	$2, %rdi
	callq	timevar_pop
.LBB21_522:                             # %if.end17.i.i
	movq	asm_out_file(%rip), %rdi
	callq	ix86_asm_file_end
	movl	flag_no_ident(%rip), %eax
	testq	%rax, %rax
	jne	.LBB21_524
# BB#523:                               # %if.then19.i.i
	movq	asm_out_file(%rip), %rdi
	movq	version_string(%rip), %rcx
	movabsq	$.L.str17, %rsi
	movabsq	$.L.str18, %rdx
	xorq	%rax, %rax
	callq	fprintf
.LBB21_524:                             # %if.end21.i.i
	movslq	optimize(%rip), %rax
	testq	%rax, %rax
	jle	.LBB21_529
# BB#525:                               # %land.lhs.true.i.i
	movq	$16, %rdi
	xorq	%rsi, %rsi
	callq	open_dump_file
	testq	%r15, %rax
	je	.LBB21_529
# BB#526:                               # %if.then26.i.i47
	movq	$2, %rdi
	callq	timevar_push
	movq	rtl_dump_file(%rip), %rdi
	callq	dump_combine_total_stats
	cmpq	$0, rtl_dump_file(%rip)
	je	.LBB21_528
# BB#527:                               # %if.end.i42.i.i
	movq	$2, %rdi
	callq	timevar_push
	movq	rtl_dump_file(%rip), %rdi
	callq	fflush
	movq	rtl_dump_file(%rip), %rdi
	callq	fclose
	movq	$0, rtl_dump_file(%rip)
	movq	$2, %rdi
	callq	timevar_pop
.LBB21_528:                             # %close_dump_file.exit45.i.i
	movq	$2, %rdi
	callq	timevar_pop
.LBB21_529:                             # %if.end.i
	movl	flag_gen_aux_info(%rip), %eax
	testq	%rax, %rax
	je	.LBB21_532
# BB#530:                               # %if.then.i28.i
	movq	aux_info_file(%rip), %rdi
	callq	fclose
	movq	global_dc(%rip), %rax
	movl	60(%rax), %eax
	testq	%rax, %rax
	je	.LBB21_532
# BB#531:                               # %if.then2.i30.i
	movq	aux_info_file_name(%rip), %rdi
	callq	unlink
.LBB21_532:                             # %if.end4.i.i
	movq	asm_out_file(%rip), %rbx
	testq	%rbx, %rbx
	je	.LBB21_550
# BB#533:                               # %if.then6.i.i48
	movq	%rbx, %rdi
	callq	ferror
	testq	%r12, %rax
	jne	.LBB21_534
# BB#548:                               # %if.end9.i.i
	movq	%rbx, %rdi
	callq	fclose
	testq	%r12, %rax
	jne	.LBB21_549
.LBB21_550:                             # %if.end14.i.i49
	movl	graph_dump_format(%rip), %eax
	testq	%rax, %rax
	je	.LBB21_556
# BB#551:
	xorq	%r13, %r13
	movabsq	$dump_file+11, %rbx
	movabsq	$.L.str16, %r14
	leaq	144(%rsp), %r15
	.align	16, 0x90
.LBB21_552:                             # %for.body.i34.i
                                        # =>This Inner Loop Header: Depth=1
	movzbl	(%rbx), %eax
	testq	%rax, %rax
	je	.LBB21_555
# BB#553:                               # %land.lhs.true.i35.i
                                        #   in Loop: Header=BB21_552 Depth=1
	movzbl	-2(%rbx), %eax
	testq	%rax, %rax
	je	.LBB21_555
# BB#554:                               # %if.then24.i.i
                                        #   in Loop: Header=BB21_552 Depth=1
	xorq	%rax, %rax
	movq	%r15, %rdi
	movq	%r14, %rsi
	movq	%r13, %rdx
	callq	sprintf
	movq	-11(%rbx), %rsi
	xorq	%rdx, %rdx
	xorq	%rax, %rax
	movq	%r15, %rdi
	callq	concat
	movq	dump_base_name(%rip), %rdi
	movq	%rax, %r12
	movq	%r12, %rsi
	callq	finish_graph_dump_file
	movq	%r12, %rdi
	callq	free
.LBB21_555:                             # %for.inc.i.i
                                        #   in Loop: Header=BB21_552 Depth=1
	incq	%r13
	addq	$16, %rbx
	cmpq	$32, %r13
	jne	.LBB21_552
.LBB21_556:                             # %if.end31.i.i
	movl	mem_report(%rip), %eax
	testq	%rax, %rax
	je	.LBB21_558
# BB#557:                               # %if.then33.i.i
	callq	ggc_print_statistics
	callq	stringpool_statistics
	callq	dump_tree_statistics
.LBB21_558:                             # %do_compile.exit
	callq	free_reg_info
	callq	*lang_hooks+48(%rip)
	xorq	%rdi, %rdi
	callq	timevar_stop
	movq	stderr(%rip), %rdi
	callq	timevar_print
	movq	global_dc(%rip), %rax
	movl	60(%rax), %ecx
.LBB21_559:                             # %if.end
	movabsq	$4294967295, %rdx       # imm = 0xFFFFFFFF
	testq	%rdx, %rcx
	je	.LBB21_560
# BB#564:                               # %return
	movq	$1, %rax
	jmp	.LBB21_563
.LBB21_560:                             # %lor.lhs.false
	movl	56(%rax), %eax
	testq	%rax, %rax
	je	.LBB21_561
# BB#562:                               # %lor.lhs.false
	movabsq	$1, %rax
	jmp	.LBB21_563
.LBB21_561:
	movabsq	$0, %rax
.LBB21_563:                             # %lor.lhs.false
	addq	$160, %rsp
	popq	%rbx
	popq	%r12
	popq	%r13
	popq	%r14
	popq	%r15
	retq
.LBB21_471:                             # %if.then109.i.i
	movq	aux_info_file_name(%rip), %rcx
	movabsq	$.L.str350, %rdx
	jmp	.LBB21_472
.LBB21_547:                             # %if.then16.i.i.i
	movq	asm_file_name(%rip), %rcx
	movabsq	$.L.str23, %rdx
	jmp	.LBB21_472
.LBB21_534:                             # %if.then8.i.i
	movq	asm_file_name(%rip), %rcx
	movabsq	$.L.str14, %rdx
	jmp	.LBB21_472
.LBB21_549:                             # %if.then12.i.i
	movq	asm_file_name(%rip), %rcx
	movabsq	$.L.str15, %rdx
.LBB21_472:                             # %if.then109.i.i
	xorq	%rax, %rax
	movq	%rdx, %rdi
	movq	%rcx, %rsi
	callq	fatal_io_error
.Ltmp208:
	.size	toplev_main, .Ltmp208-toplev_main
	.cfi_endproc
	.section	.rodata,"a",@progbits
	.align	8
.LJTI21_0:
	.quad	.LBB21_361
	.quad	.LBB21_389
	.quad	.LBB21_389
	.quad	.LBB21_288
	.quad	.LBB21_389
	.quad	.LBB21_119
	.quad	.LBB21_243
	.quad	.LBB21_389
	.quad	.LBB21_389
	.quad	.LBB21_389
	.quad	.LBB21_389
	.quad	.LBB21_389
	.quad	.LBB21_385
	.quad	.LBB21_389
	.quad	.LBB21_368
	.quad	.LBB21_318
	.quad	.LBB21_324
	.quad	.LBB21_389
	.quad	.LBB21_389
	.quad	.LBB21_389
	.quad	.LBB21_389
	.quad	.LBB21_326
	.quad	.LBB21_328
.LJTI21_1:
	.quad	.LBB21_313
	.quad	.LBB21_300
	.quad	.LBB21_300
	.quad	.LBB21_300
	.quad	.LBB21_300
	.quad	.LBB21_300
	.quad	.LBB21_314
	.quad	.LBB21_300
	.quad	.LBB21_315
	.quad	.LBB21_316

	.text
	.align	16, 0x90
	.type	print_switch_values,@function
print_switch_values:                    # @print_switch_values
	.cfi_startproc
# BB#0:                                 # %entry
	pushq	%r15
.Ltmp215:
	.cfi_def_cfa_offset 16
	pushq	%r14
.Ltmp216:
	.cfi_def_cfa_offset 24
	pushq	%r13
.Ltmp217:
	.cfi_def_cfa_offset 32
	pushq	%r12
.Ltmp218:
	.cfi_def_cfa_offset 40
	pushq	%rbx
.Ltmp219:
	.cfi_def_cfa_offset 48
	subq	$288, %rsp              # imm = 0x120
.Ltmp220:
	.cfi_def_cfa_offset 336
.Ltmp221:
	.cfi_offset %rbx, -48
.Ltmp222:
	.cfi_offset %r12, -40
.Ltmp223:
	.cfi_offset %r13, -32
.Ltmp224:
	.cfi_offset %r14, -24
.Ltmp225:
	.cfi_offset %r15, -16
	movzbl	(%rsi), %eax
	movq	%rsi, %rbx
	movq	%rdi, %r14
	testq	%rax, %rax
	je	.LBB22_2
# BB#1:
	movabsq	$.L.str26, %r15
	jmp	.LBB22_3
.LBB22_2:                               # %select.mid
	movabsq	$.L.str28, %r15
.LBB22_3:                               # %select.end
	movq	%r15, %rdi
	callq	strlen
	movq	%rax, %r12
	movq	%rbx, 24(%rsp)          # 8-byte Spill
	movq	%rbx, %rdi
	movq	%r14, 16(%rsp)          # 8-byte Spill
	movq	%r14, %rsi
	callq	fputs
	movq	%rbx, %rdi
	callq	strlen
	movq	%rax, %r13
	movabsq	$.L.str341, %rsi
	movabsq	$.L.str29, %rcx
	movabsq	$.L.str28, %r8
	xorq	%rax, %rax
	movq	%r14, %rdi
	movq	%r15, %rdx
	callq	fprintf
	movq	save_argv(%rip), %r14
	movq	8(%r14), %r15
	leaq	16(%r12,%r13), %r13
	testq	%r15, %r15
	je	.LBB22_15
# BB#4:
	leaq	8(%r14), %rax
	movabsq	$4294967295, %r12       # imm = 0xFFFFFFFF
.LBB22_5:                               # %for.body.lr.ph
                                        # =>This Loop Header: Depth=1
                                        #     Child Loop BB22_6 Depth 2
	movq	%r14, %rbx
	movq	%rax, %r14
	.align	16, 0x90
.LBB22_6:                               # %for.body
                                        #   Parent Loop BB22_5 Depth=1
                                        # =>  This Inner Loop Header: Depth=2
	movzbl	(%r15), %eax
	cmpq	$45, %rax
	jne	.LBB22_7
# BB#8:                                 # %if.then
                                        #   in Loop: Header=BB22_6 Depth=2
	movq	%r15, %rdi
	movabsq	$.L.str30, %rsi
	callq	strcmp
	testq	%r12, %rax
	jne	.LBB22_11
# BB#9:                                 # %if.then8
                                        #   in Loop: Header=BB22_6 Depth=2
	cmpq	$0, 16(%rbx)
	je	.LBB22_7
# BB#10:                                # %select.mid28
                                        #   in Loop: Header=BB22_6 Depth=2
	addq	$16, %rbx
	movq	%rbx, %r14
	jmp	.LBB22_7
	.align	16, 0x90
.LBB22_11:                              # %if.end13
                                        #   in Loop: Header=BB22_6 Depth=2
	movq	%r15, %rdi
	movabsq	$.L.str31, %rsi
	callq	strcmp
	testq	%r12, %rax
	je	.LBB22_7
# BB#12:                                # %if.end18
                                        #   in Loop: Header=BB22_6 Depth=2
	movq	%r15, %rdi
	movabsq	$.L.str32, %rsi
	callq	strcmp
	testq	%r12, %rax
	je	.LBB22_7
# BB#13:                                # %if.end23
                                        #   in Loop: Header=BB22_6 Depth=2
	movzbl	1(%r15), %eax
	cmpq	$100, %rax
	jne	.LBB22_14
	.align	16, 0x90
.LBB22_7:                               # %for.cond.backedge
                                        #   in Loop: Header=BB22_6 Depth=2
	movq	%r14, %rbx
	movq	8(%rbx), %r15
	leaq	8(%rbx), %r14
	testq	%r15, %r15
	jne	.LBB22_6
	jmp	.LBB22_15
.LBB22_14:                              # %if.end29
                                        #   in Loop: Header=BB22_5 Depth=1
	movq	16(%rsp), %rdi          # 8-byte Reload
	movq	%r13, %rsi
	movq	24(%rsp), %rdx          # 8-byte Reload
	movabsq	$.L.str26, %rcx
	movq	%r15, %r8
	movabsq	$.L.str28, %r9
	callq	print_single_switch
	movq	8(%r14), %r15
	movq	%rax, %r13
	leaq	8(%r14), %rax
	testq	%r15, %r15
	jne	.LBB22_5
.LBB22_15:                              # %for.end
	movq	$32, %rcx
	shlq	%cl, %r13
	movq	$32, %rcx
	sarq	%cl, %r13
	testq	%r13, %r13
	jle	.LBB22_17
# BB#16:                                # %if.then35
	movq	$10, %rdi
	movq	16(%rsp), %rsi          # 8-byte Reload
	callq	fputc
.LBB22_17:                              # %if.end37
	movq	24(%rsp), %rax          # 8-byte Reload
	movzbl	(%rax), %eax
	testq	%rax, %rax
	movabsq	$.L.str28, %r13
	je	.LBB22_19
# BB#18:
	movabsq	$.L.str26, %r13
.LBB22_19:                              # %select.end29
	movq	%r13, %rdi
	callq	strlen
	movq	%rax, %r15
	movq	24(%rsp), %rbx          # 8-byte Reload
	movq	%rbx, %rdi
	movq	16(%rsp), %r14          # 8-byte Reload
	movq	%r14, %rsi
	callq	fputs
	movq	%rbx, %rdi
	callq	strlen
	movq	%rax, %r12
	movabsq	$.L.str341, %rsi
	movabsq	$.L.str33, %rcx
	movabsq	$.L.str28, %r8
	xorq	%rax, %rax
	movq	%r14, %rdi
	movq	%r13, %rdx
	callq	fprintf
	leaq	17(%r15,%r12), %r15
	movq	$-3104, %rbx            # imm = 0xFFFFFFFFFFFFF3E0
	movabsq	$.L.str34, %r12
	movabsq	$target_switches+8, %r13
	.align	16, 0x90
.LBB22_20:                              # %for.body45
                                        # =>This Inner Loop Header: Depth=1
	movq	f_options+3112(%rbx), %rax
	movl	(%rax), %eax
	movl	f_options+3120(%rbx), %ecx
	cmpq	%rcx, %rax
	jne	.LBB22_22
# BB#21:                                # %if.then50
                                        #   in Loop: Header=BB22_20 Depth=1
	movq	f_options+3104(%rbx), %r9
	movq	%r14, %rdi
	movq	%r15, %rsi
	movq	24(%rsp), %rdx          # 8-byte Reload
	movabsq	$.L.str26, %rcx
	movq	%r12, %r8
	callq	print_single_switch
	movq	%rax, %r15
.LBB22_22:                              # %for.inc54
                                        #   in Loop: Header=BB22_20 Depth=1
	addq	$32, %rbx
	jne	.LBB22_20
# BB#23:
	xorq	%rbx, %rbx
	movabsq	$57260077759506453, %rdx # imm = 0xCB6DBCC2AAA815
	.align	16, 0x90
.LBB22_24:                              # %for.body59
                                        # =>This Inner Loop Header: Depth=1
	movq	-8(%r13), %r9
	movzbl	(%r9), %eax
	testq	%rax, %rax
	je	.LBB22_29
# BB#25:                                # %land.lhs.true
                                        #   in Loop: Header=BB22_24 Depth=1
	movq	%rdx, %rax
	movq	%rbx, %rcx
	shrq	%cl, %rax
	testq	$1, %rax
	je	.LBB22_29
# BB#26:                                # %land.lhs.true68
                                        #   in Loop: Header=BB22_24 Depth=1
	movq	%rdx, %r12
	movl	(%r13), %eax
	movl	target_flags(%rip), %ecx
	andq	%rax, %rcx
	movabsq	$4294967295, %rdx       # imm = 0xFFFFFFFF
	andq	%rdx, %rax
	andq	%rdx, %rcx
	cmpq	%rax, %rcx
	jne	.LBB22_28
# BB#27:                                # %if.then75
                                        #   in Loop: Header=BB22_24 Depth=1
	movq	%r14, %rdi
	movq	%r15, %rsi
	movq	24(%rsp), %rdx          # 8-byte Reload
	movabsq	$.L.str26, %rcx
	movabsq	$.L.str35, %r8
	callq	print_single_switch
	movq	%rax, %r15
.LBB22_28:                              # %for.inc80
                                        #   in Loop: Header=BB22_24 Depth=1
	movq	%r12, %rdx
.LBB22_29:                              # %for.inc80
                                        #   in Loop: Header=BB22_24 Depth=1
	incq	%rbx
	addq	$24, %r13
	cmpq	$56, %rbx
	jne	.LBB22_24
# BB#30:                                # %for.cond83.preheader
	movq	$-312, %r12             # imm = 0xFFFFFFFFFFFFFEC8
	leaq	32(%rsp), %rbx
	.align	16, 0x90
.LBB22_31:                              # %for.body86
                                        # =>This Inner Loop Header: Depth=1
	movq	target_options+320(%r12), %r13
	cmpq	$0, (%r13)
	je	.LBB22_33
# BB#32:                                # %if.then91
                                        #   in Loop: Header=BB22_31 Depth=1
	movq	target_options+312(%r12), %rdx
	xorq	%rax, %rax
	movq	%rbx, %rdi
	movabsq	$.L.str36, %rsi
	callq	sprintf
	movq	(%r13), %r9
	movq	%r14, %rdi
	movq	%r15, %rsi
	movq	24(%rsp), %rdx          # 8-byte Reload
	movabsq	$.L.str26, %rcx
	movq	%rbx, %r8
	callq	print_single_switch
	movq	%rax, %r15
.LBB22_33:                              # %for.inc100
                                        #   in Loop: Header=BB22_31 Depth=1
	addq	$24, %r12
	jne	.LBB22_31
# BB#34:                                # %for.end102
	movq	$10, %rdi
	movq	%r14, %rsi
	callq	fputc
	addq	$288, %rsp              # imm = 0x120
	popq	%rbx
	popq	%r12
	popq	%r13
	popq	%r14
	popq	%r15
	retq
.Ltmp226:
	.size	print_switch_values, .Ltmp226-print_switch_values
	.cfi_endproc

	.align	16, 0x90
	.type	print_single_switch,@function
print_single_switch:                    # @print_single_switch
	.cfi_startproc
# BB#0:                                 # %entry
	pushq	%r15
.Ltmp233:
	.cfi_def_cfa_offset 16
	pushq	%r14
.Ltmp234:
	.cfi_def_cfa_offset 24
	pushq	%r13
.Ltmp235:
	.cfi_def_cfa_offset 32
	pushq	%r12
.Ltmp236:
	.cfi_def_cfa_offset 40
	pushq	%rbx
.Ltmp237:
	.cfi_def_cfa_offset 48
	subq	$48, %rsp
.Ltmp238:
	.cfi_def_cfa_offset 96
.Ltmp239:
	.cfi_offset %rbx, -48
.Ltmp240:
	.cfi_offset %r12, -40
.Ltmp241:
	.cfi_offset %r13, -32
.Ltmp242:
	.cfi_offset %r14, -24
.Ltmp243:
	.cfi_offset %r15, -16
	movq	%r9, %r12
	movq	%r12, 40(%rsp)          # 8-byte Spill
	movq	%r8, %rbx
	movq	%rbx, 32(%rsp)          # 8-byte Spill
	movq	%rcx, 24(%rsp)          # 8-byte Spill
	movq	%rdx, 8(%rsp)           # 8-byte Spill
	movq	%rsi, %r13
	movq	%rdi, 16(%rsp)          # 8-byte Spill
	movq	%rcx, %rdi
	callq	strlen
	movq	%rax, %r14
	movq	%rbx, %rdi
	callq	strlen
	movq	%rax, %r15
	addq	%r14, %r15
	movq	%r12, %rdi
	callq	strlen
	movq	%rax, %r14
	addq	%r15, %r14
	movabsq	$4294967295, %rax       # imm = 0xFFFFFFFF
	testq	%rax, %r13
	je	.LBB23_3
# BB#1:                                 # %entry
	leaq	(%r14,%r13), %rdx
	movq	$32, %rcx
	shlq	%cl, %rdx
	movq	$32, %rcx
	sarq	%cl, %rdx
	cmpq	$76, %rdx
	jl	.LBB23_3
# BB#2:                                 # %if.end.thread
	movq	$10, %rdi
	movq	16(%rsp), %r15          # 8-byte Reload
	movq	%r15, %rsi
	callq	fputc
	jmp	.LBB23_4
.LBB23_3:                               # %if.end
	testq	%rax, %r13
	movq	16(%rsp), %r15          # 8-byte Reload
	jne	.LBB23_5
.LBB23_4:                               # %if.then11
	movq	8(%rsp), %rbx           # 8-byte Reload
	movq	%rbx, %rdi
	movq	%r15, %rsi
	callq	fputs
	movq	%rbx, %rdi
	callq	strlen
	movq	%rax, %r13
.LBB23_5:                               # %if.end15
	movabsq	$.L.str341, %rsi
	xorq	%rax, %rax
	movq	%r15, %rdi
	movq	24(%rsp), %rdx          # 8-byte Reload
	movq	32(%rsp), %rcx          # 8-byte Reload
	movq	40(%rsp), %r8           # 8-byte Reload
	callq	fprintf
	addq	%r14, %r13
	movq	%r13, %rax
	addq	$48, %rsp
	popq	%rbx
	popq	%r12
	popq	%r13
	popq	%r14
	popq	%r15
	retq
.Ltmp244:
	.size	print_single_switch, .Ltmp244-print_single_switch
	.cfi_endproc

	.align	16, 0x90
	.type	decl_name,@function
decl_name:                              # @decl_name
	.cfi_startproc
# BB#0:                                 # %entry
	movq	72(%rdi), %rax
	movq	32(%rax), %rax
	retq
.Ltmp245:
	.size	decl_name, .Ltmp245-decl_name
	.cfi_endproc

	.align	16, 0x90
	.type	set_target_switch,@function
set_target_switch:                      # @set_target_switch
	.cfi_startproc
# BB#0:                                 # %entry
	pushq	%r15
.Ltmp252:
	.cfi_def_cfa_offset 16
	pushq	%r14
.Ltmp253:
	.cfi_def_cfa_offset 24
	pushq	%r13
.Ltmp254:
	.cfi_def_cfa_offset 32
	pushq	%r12
.Ltmp255:
	.cfi_def_cfa_offset 40
	pushq	%rbx
.Ltmp256:
	.cfi_def_cfa_offset 48
	subq	$16, %rsp
.Ltmp257:
	.cfi_def_cfa_offset 64
.Ltmp258:
	.cfi_offset %rbx, -48
.Ltmp259:
	.cfi_offset %r12, -40
.Ltmp260:
	.cfi_offset %r13, -32
.Ltmp261:
	.cfi_offset %r14, -24
.Ltmp262:
	.cfi_offset %r15, -16
	movq	%rdi, %r14
	xorq	%r15, %r15
	movabsq	$target_switches+8, %rbx
	movabsq	$4294967295, %r12       # imm = 0xFFFFFFFF
	xorq	%r13, %r13
	.align	16, 0x90
.LBB25_1:                               # %for.body
                                        # =>This Inner Loop Header: Depth=1
	movq	-8(%rbx), %rdi
	movq	%r14, %rsi
	callq	strcmp
	testq	%r12, %rax
	jne	.LBB25_6
# BB#2:                                 # %if.then
                                        #   in Loop: Header=BB25_1 Depth=1
	movl	(%rbx), %eax
	movabsq	$14797515875766282, %rdx # imm = 0x3492432555500A
	movq	%r15, %rcx
	shrq	%cl, %rdx
	testq	$1, %rdx
	jne	.LBB25_3
# BB#4:                                 # %if.else
                                        #   in Loop: Header=BB25_1 Depth=1
	movl	target_flags(%rip), %ecx
	orq	%rax, %rcx
	jmp	.LBB25_5
	.align	16, 0x90
.LBB25_3:                               # %if.then4
                                        #   in Loop: Header=BB25_1 Depth=1
	movl	target_flags(%rip), %ecx
	decq	%rax
	andq	%rax, %rcx
.LBB25_5:                               # %if.end
                                        #   in Loop: Header=BB25_1 Depth=1
	movl	%ecx, target_flags(%rip)
	movq	$1, %r13
.LBB25_6:                               # %for.inc
                                        #   in Loop: Header=BB25_1 Depth=1
	incq	%r15
	addq	$24, %rbx
	cmpq	$56, %r15
	jne	.LBB25_1
# BB#7:                                 # %for.end
	testq	%r12, %r13
	jne	.LBB25_13
# BB#8:
	movq	$0, 8(%rsp)             # 8-byte Folded Spill
	movq	$-312, %r13             # imm = 0xFFFFFFFFFFFFFEC8
	.align	16, 0x90
.LBB25_9:                               # %for.body14
                                        # =>This Inner Loop Header: Depth=1
	movq	target_options+312(%r13), %r15
	movq	%r15, %rdi
	callq	strlen
	movq	%rax, %rbx
	movq	$32, %rcx
	shlq	%cl, %rbx
	movq	$32, %rcx
	sarq	%cl, %rbx
	movq	%r15, %rdi
	movq	%r14, %rsi
	movq	%rbx, %rdx
	callq	strncmp
	testq	%r12, %rax
	jne	.LBB25_11
# BB#10:                                # %if.then22
                                        #   in Loop: Header=BB25_9 Depth=1
	movq	target_options+320(%r13), %rax
	addq	%r14, %rbx
	movq	%rbx, (%rax)
	movq	$1, 8(%rsp)             # 8-byte Folded Spill
.LBB25_11:                              # %for.inc25
                                        #   in Loop: Header=BB25_9 Depth=1
	addq	$24, %r13
	jne	.LBB25_9
# BB#12:                                # %if.end28
	movq	8(%rsp), %rax           # 8-byte Reload
	testq	%r12, %rax
	je	.LBB25_14
.LBB25_13:                              # %if.end31
	addq	$16, %rsp
	popq	%rbx
	popq	%r12
	popq	%r13
	popq	%r14
	popq	%r15
	retq
.LBB25_14:                              # %if.then30
	movabsq	$.L.str, %rdi
	xorq	%rax, %rax
	movq	%r14, %rsi
	addq	$16, %rsp
	popq	%rbx
	popq	%r12
	popq	%r13
	popq	%r14
	popq	%r15
	jmp	error  # TAILCALL
.Ltmp263:
	.size	set_target_switch, .Ltmp263-set_target_switch
	.cfi_endproc

	.align	16, 0x90
	.type	display_target_options,@function
display_target_options:                 # @display_target_options
	.cfi_startproc
# BB#0:                                 # %entry
	pushq	%r15
.Ltmp270:
	.cfi_def_cfa_offset 16
	pushq	%r14
.Ltmp271:
	.cfi_def_cfa_offset 24
	pushq	%r13
.Ltmp272:
	.cfi_def_cfa_offset 32
	pushq	%r12
.Ltmp273:
	.cfi_def_cfa_offset 40
	pushq	%rbx
.Ltmp274:
	.cfi_def_cfa_offset 48
	subq	$16, %rsp
.Ltmp275:
	.cfi_def_cfa_offset 64
.Ltmp276:
	.cfi_offset %rbx, -48
.Ltmp277:
	.cfi_offset %r12, -40
.Ltmp278:
	.cfi_offset %r13, -32
.Ltmp279:
	.cfi_offset %r14, -24
.Ltmp280:
	.cfi_offset %r15, -16
	movzbl	display_target_options.displayed(%rip), %eax
	testq	%rax, %rax
	jne	.LBB26_22
# BB#1:                                 # %if.end
	movq	$1, %rax
	movb	%al, display_target_options.displayed(%rip)
	movabsq	$.Lstr719, %rdi
	callq	puts
	movq	$0, 8(%rsp)             # 8-byte Folded Spill
	movq	$55, %r15
	movabsq	$4294967295, %r12       # imm = 0xFFFFFFFF
	movabsq	$36028797421617152, %r14 # imm = 0x80000018000000
	xorq	%r13, %r13
.LBB26_2:                               # %for.body.lr.ph
                                        # =>This Loop Header: Depth=1
                                        #     Child Loop BB26_3 Depth 2
	movq	$32, %rcx
	shlq	%cl, %r15
	movq	$32, %rcx
	sarq	%cl, %r15
	leaq	(%r15,%r15,2), %rax
	leaq	-1(%r15), %r15
	leaq	target_switches+16(,%rax,8), %rax
	.align	16, 0x90
.LBB26_3:                               # %for.body
                                        #   Parent Loop BB26_2 Depth=1
                                        # =>  This Inner Loop Header: Depth=2
	movq	-16(%rax), %rsi
	movzbl	(%rsi), %ecx
	leaq	1(%r15), %rbx
	testq	%rcx, %rcx
	je	.LBB26_4
# BB#5:                                 # %if.else
                                        #   in Loop: Header=BB26_3 Depth=2
	movq	%r14, %rdx
	movq	%rbx, %rcx
	shrq	%cl, %rdx
	testq	$1, %rdx
	jne	.LBB26_6
# BB#9:                                 # %if.else15
                                        #   in Loop: Header=BB26_3 Depth=2
	movq	(%rax), %rdx
	movzbl	(%rdx), %ecx
	testq	%rcx, %rcx
	jne	.LBB26_10
.LBB26_4:                               # %for.cond.backedge
                                        #   in Loop: Header=BB26_3 Depth=2
	decq	%r15
	addq	$-24, %rax
	testq	%r12, %rbx
	jne	.LBB26_3
	jmp	.LBB26_11
	.align	16, 0x90
.LBB26_6:                               # %if.then10
                                        #   in Loop: Header=BB26_2 Depth=1
	movl	extra_warnings(%rip), %eax
	testq	%rax, %rax
	je	.LBB26_8
# BB#7:                                 # %if.then12
                                        #   in Loop: Header=BB26_2 Depth=1
	xorq	%rax, %rax
	movabsq	$.L.str614, %rdi
	callq	printf
.LBB26_8:                               # %for.cond.outer89.backedge
                                        #   in Loop: Header=BB26_2 Depth=1
	testq	%r12, %rbx
	movq	$1, 8(%rsp)             # 8-byte Folded Spill
	jne	.LBB26_2
	jmp	.LBB26_11
	.align	16, 0x90
.LBB26_10:                              # %if.then19
                                        #   in Loop: Header=BB26_2 Depth=1
	xorq	%rax, %rax
	movabsq	$.L.str615, %rdi
	callq	printf
	addq	%rax, %r13
	testq	%r12, %rbx
	jne	.LBB26_2
.LBB26_11:                              # %for.cond24.preheader
	movq	$12, %rbx
	movabsq	$.L.str615, %r14
.LBB26_20:                              # %for.body27.lr.ph
                                        # =>This Loop Header: Depth=1
                                        #     Child Loop BB26_12 Depth 2
	movq	$32, %rcx
	shlq	%cl, %rbx
	movq	$32, %rcx
	sarq	%cl, %rbx
	leaq	(%rbx,%rbx,2), %rax
	leaq	-1(%rbx), %rbx
	leaq	target_options+16(,%rax,8), %rax
	.align	16, 0x90
.LBB26_12:                              # %for.body27
                                        #   Parent Loop BB26_20 Depth=1
                                        # =>  This Inner Loop Header: Depth=2
	movq	-16(%rax), %rsi
	movzbl	(%rsi), %ecx
	leaq	1(%rbx), %r15
	testq	%rcx, %rcx
	je	.LBB26_13
# BB#18:                                # %if.else50
                                        #   in Loop: Header=BB26_12 Depth=2
	movq	(%rax), %rdx
	movzbl	(%rdx), %ecx
	testq	%rcx, %rcx
	jne	.LBB26_19
.LBB26_13:                              # %for.cond24.backedge
                                        #   in Loop: Header=BB26_12 Depth=2
	decq	%rbx
	addq	$-24, %rax
	testq	%r12, %r15
	jne	.LBB26_12
	jmp	.LBB26_14
	.align	16, 0x90
.LBB26_19:                              # %if.then54
                                        #   in Loop: Header=BB26_20 Depth=1
	xorq	%rax, %rax
	movq	%r14, %rdi
	callq	printf
	addq	%rax, %r13
	testq	%r12, %r15
	jne	.LBB26_20
.LBB26_14:                              # %for.end60
	movq	8(%rsp), %rax           # 8-byte Reload
	testq	%r12, %rax
	je	.LBB26_22
# BB#15:                                # %if.then62
	testq	%r12, %r13
	je	.LBB26_21
# BB#16:                                # %if.then64
	movabsq	$.Lstr721, %rdi
	jmp	.LBB26_17
.LBB26_22:                              # %if.end69
	addq	$16, %rsp
	popq	%rbx
	popq	%r12
	popq	%r13
	popq	%r14
	popq	%r15
	retq
.LBB26_21:                              # %if.else66
	movabsq	$.Lstr720, %rdi
.LBB26_17:                              # %if.then64
	addq	$16, %rsp
	popq	%rbx
	popq	%r12
	popq	%r13
	popq	%r14
	popq	%r15
	jmp	puts  # TAILCALL
.Ltmp281:
	.size	display_target_options, .Ltmp281-display_target_options
	.cfi_endproc

	.align	16, 0x90
	.type	float_signal,@function
float_signal:                           # @float_signal
	.cfi_startproc
# BB#0:                                 # %entry
	pushq	%rax
.Ltmp283:
	.cfi_def_cfa_offset 16
	movl	float_handled(%rip), %eax
	testq	%rax, %rax
	jne	.LBB27_2
# BB#1:                                 # %if.then
	callq	crash_signal
.LBB27_2:                               # %if.end
	xorq	%rax, %rax
	movl	%eax, float_handled(%rip)
	movabsq	$float_signal, %rsi
	movq	$8, %rdi
	callq	signal
	movabsq	$float_handler, %rdi
	movq	$1, %rsi
	callq	longjmp
.Ltmp284:
	.size	float_signal, .Ltmp284-float_signal
	.cfi_endproc

	.align	16, 0x90
	.type	crash_signal,@function
crash_signal:                           # @crash_signal
	.cfi_startproc
# BB#0:                                 # %entry
	pushq	%rax
.Ltmp286:
	.cfi_def_cfa_offset 16
	movq	%rdi, %rcx
	movabsq	$.L.str664, %rdi
	xorq	%rax, %rax
	movq	%rcx, %rsi
	callq	internal_error
.Ltmp287:
	.size	crash_signal, .Ltmp287-crash_signal
	.cfi_endproc

	.type	debug_hooks,@object     # @debug_hooks
	.data
	.globl	debug_hooks
	.align	8
debug_hooks:
	.quad	do_nothing_debug_hooks
	.size	debug_hooks, 8

	.type	write_symbols,@object   # @write_symbols
	.bss
	.globl	write_symbols
	.align	4
write_symbols:
	.long	0                       # 0x0
	.size	write_symbols, 4

	.type	debug_info_level,@object # @debug_info_level
	.globl	debug_info_level
	.align	4
debug_info_level:
	.long	0                       # 0x0
	.size	debug_info_level, 4

	.type	use_gnu_debug_info_extensions,@object # @use_gnu_debug_info_extensions
	.globl	use_gnu_debug_info_extensions
	.align	4
use_gnu_debug_info_extensions:
	.long	0                       # 0x0
	.size	use_gnu_debug_info_extensions, 4

	.type	optimize,@object        # @optimize
	.data
	.globl	optimize
	.align	4
optimize:
	.long	3                       # 0x3
	.size	optimize, 4

	.type	optimize_size,@object   # @optimize_size
	.bss
	.globl	optimize_size
	.align	4
optimize_size:
	.long	0                       # 0x0
	.size	optimize_size, 4

	.type	lang_expand_expr,@object # @lang_expand_expr
	.globl	lang_expand_expr
	.align	8
lang_expand_expr:
	.quad	0
	.size	lang_expand_expr, 8

	.type	incomplete_decl_finalize_hook,@object # @incomplete_decl_finalize_hook
	.globl	incomplete_decl_finalize_hook
	.align	8
incomplete_decl_finalize_hook:
	.quad	0
	.size	incomplete_decl_finalize_hook, 8

	.type	flag_eliminate_dwarf2_dups,@object # @flag_eliminate_dwarf2_dups
	.globl	flag_eliminate_dwarf2_dups
	.align	4
flag_eliminate_dwarf2_dups:
	.long	0                       # 0x0
	.size	flag_eliminate_dwarf2_dups, 4

	.type	profile_flag,@object    # @profile_flag
	.globl	profile_flag
	.align	4
profile_flag:
	.long	0                       # 0x0
	.size	profile_flag, 4

	.type	profile_arc_flag,@object # @profile_arc_flag
	.globl	profile_arc_flag
	.align	4
profile_arc_flag:
	.long	0                       # 0x0
	.size	profile_arc_flag, 4

	.type	flag_test_coverage,@object # @flag_test_coverage
	.globl	flag_test_coverage
	.align	4
flag_test_coverage:
	.long	0                       # 0x0
	.size	flag_test_coverage, 4

	.type	flag_branch_probabilities,@object # @flag_branch_probabilities
	.globl	flag_branch_probabilities
	.align	4
flag_branch_probabilities:
	.long	0                       # 0x0
	.size	flag_branch_probabilities, 4

	.type	flag_reorder_blocks,@object # @flag_reorder_blocks
	.globl	flag_reorder_blocks
	.align	4
flag_reorder_blocks:
	.long	0                       # 0x0
	.size	flag_reorder_blocks, 4

	.type	flag_rename_registers,@object # @flag_rename_registers
	.globl	flag_rename_registers
	.align	4
flag_rename_registers:
	.long	0                       # 0x0
	.size	flag_rename_registers, 4

	.type	flag_cprop_registers,@object # @flag_cprop_registers
	.globl	flag_cprop_registers
	.align	4
flag_cprop_registers:
	.long	0                       # 0x0
	.size	flag_cprop_registers, 4

	.type	pedantic,@object        # @pedantic
	.globl	pedantic
	.align	4
pedantic:
	.long	0                       # 0x0
	.size	pedantic, 4

	.type	in_system_header,@object # @in_system_header
	.globl	in_system_header
	.align	4
in_system_header:
	.long	0                       # 0x0
	.size	in_system_header, 4

	.type	quiet_flag,@object      # @quiet_flag
	.data
	.globl	quiet_flag
	.align	4
quiet_flag:
	.long	1                       # 0x1
	.size	quiet_flag, 4

	.type	time_report,@object     # @time_report
	.bss
	.globl	time_report
	.align	4
time_report:
	.long	0                       # 0x0
	.size	time_report, 4

	.type	mem_report,@object      # @mem_report
	.globl	mem_report
	.align	4
mem_report:
	.long	0                       # 0x0
	.size	mem_report, 4

	.type	flag_detailed_statistics,@object # @flag_detailed_statistics
	.globl	flag_detailed_statistics
	.align	4
flag_detailed_statistics:
	.long	0                       # 0x0
	.size	flag_detailed_statistics, 4

	.type	flag_caller_saves,@object # @flag_caller_saves
	.globl	flag_caller_saves
	.align	4
flag_caller_saves:
	.long	0                       # 0x0
	.size	flag_caller_saves, 4

	.type	flag_pcc_struct_return,@object # @flag_pcc_struct_return
	.data
	.globl	flag_pcc_struct_return
	.align	4
flag_pcc_struct_return:
	.long	1                       # 0x1
	.size	flag_pcc_struct_return, 4

	.type	flag_force_mem,@object  # @flag_force_mem
	.bss
	.globl	flag_force_mem
	.align	4
flag_force_mem:
	.long	0                       # 0x0
	.size	flag_force_mem, 4

	.type	flag_force_addr,@object # @flag_force_addr
	.data
	.globl	flag_force_addr
	.align	4
flag_force_addr:
	.long	1                       # 0x1
	.size	flag_force_addr, 4

	.type	flag_defer_pop,@object  # @flag_defer_pop
	.bss
	.globl	flag_defer_pop
	.align	4
flag_defer_pop:
	.long	0                       # 0x0
	.size	flag_defer_pop, 4

	.type	flag_float_store,@object # @flag_float_store
	.globl	flag_float_store
	.align	4
flag_float_store:
	.long	0                       # 0x0
	.size	flag_float_store, 4

	.type	flag_strength_reduce,@object # @flag_strength_reduce
	.globl	flag_strength_reduce
	.align	4
flag_strength_reduce:
	.long	0                       # 0x0
	.size	flag_strength_reduce, 4

	.type	flag_move_all_movables,@object # @flag_move_all_movables
	.globl	flag_move_all_movables
	.align	4
flag_move_all_movables:
	.long	0                       # 0x0
	.size	flag_move_all_movables, 4

	.type	flag_reduce_all_givs,@object # @flag_reduce_all_givs
	.globl	flag_reduce_all_givs
	.align	4
flag_reduce_all_givs:
	.long	0                       # 0x0
	.size	flag_reduce_all_givs, 4

	.type	flag_regmove,@object    # @flag_regmove
	.globl	flag_regmove
	.align	4
flag_regmove:
	.long	0                       # 0x0
	.size	flag_regmove, 4

	.type	flag_writable_strings,@object # @flag_writable_strings
	.globl	flag_writable_strings
	.align	4
flag_writable_strings:
	.long	0                       # 0x0
	.size	flag_writable_strings, 4

	.type	flag_no_function_cse,@object # @flag_no_function_cse
	.globl	flag_no_function_cse
	.align	4
flag_no_function_cse:
	.long	0                       # 0x0
	.size	flag_no_function_cse, 4

	.type	flag_omit_frame_pointer,@object # @flag_omit_frame_pointer
	.data
	.globl	flag_omit_frame_pointer
	.align	4
flag_omit_frame_pointer:
	.long	1                       # 0x1
	.size	flag_omit_frame_pointer, 4

	.type	flag_function_sections,@object # @flag_function_sections
	.bss
	.globl	flag_function_sections
	.align	4
flag_function_sections:
	.long	0                       # 0x0
	.size	flag_function_sections, 4

	.type	flag_data_sections,@object # @flag_data_sections
	.globl	flag_data_sections
	.align	4
flag_data_sections:
	.long	0                       # 0x0
	.size	flag_data_sections, 4

	.type	flag_no_peephole,@object # @flag_no_peephole
	.globl	flag_no_peephole
	.align	4
flag_no_peephole:
	.long	0                       # 0x0
	.size	flag_no_peephole, 4

	.type	flag_optimize_sibling_calls,@object # @flag_optimize_sibling_calls
	.globl	flag_optimize_sibling_calls
	.align	4
flag_optimize_sibling_calls:
	.long	0                       # 0x0
	.size	flag_optimize_sibling_calls, 4

	.type	flag_errno_math,@object # @flag_errno_math
	.data
	.globl	flag_errno_math
	.align	4
flag_errno_math:
	.long	1                       # 0x1
	.size	flag_errno_math, 4

	.type	flag_unsafe_math_optimizations,@object # @flag_unsafe_math_optimizations
	.globl	flag_unsafe_math_optimizations
	.align	4
flag_unsafe_math_optimizations:
	.long	1                       # 0x1
	.size	flag_unsafe_math_optimizations, 4

	.type	flag_trapping_math,@object # @flag_trapping_math
	.globl	flag_trapping_math
	.align	4
flag_trapping_math:
	.long	1                       # 0x1
	.size	flag_trapping_math, 4

	.type	flag_complex_divide_method,@object # @flag_complex_divide_method
	.bss
	.globl	flag_complex_divide_method
	.align	4
flag_complex_divide_method:
	.long	0                       # 0x0
	.size	flag_complex_divide_method, 4

	.type	flag_syntax_only,@object # @flag_syntax_only
	.globl	flag_syntax_only
	.align	4
flag_syntax_only:
	.long	0                       # 0x0
	.size	flag_syntax_only, 4

	.type	flag_gcse_lm,@object    # @flag_gcse_lm
	.data
	.globl	flag_gcse_lm
	.align	4
flag_gcse_lm:
	.long	1                       # 0x1
	.size	flag_gcse_lm, 4

	.type	flag_gcse_sm,@object    # @flag_gcse_sm
	.globl	flag_gcse_sm
	.align	4
flag_gcse_sm:
	.long	1                       # 0x1
	.size	flag_gcse_sm, 4

	.type	flag_rerun_loop_opt,@object # @flag_rerun_loop_opt
	.globl	flag_rerun_loop_opt
	.align	4
flag_rerun_loop_opt:
	.long	1                       # 0x1
	.size	flag_rerun_loop_opt, 4

	.type	flag_no_inline,@object  # @flag_no_inline
	.globl	flag_no_inline
	.align	4
flag_no_inline:
	.long	2                       # 0x2
	.size	flag_no_inline, 4

	.type	flag_really_no_inline,@object # @flag_really_no_inline
	.globl	flag_really_no_inline
	.align	4
flag_really_no_inline:
	.long	2                       # 0x2
	.size	flag_really_no_inline, 4

	.type	flag_keep_static_consts,@object # @flag_keep_static_consts
	.globl	flag_keep_static_consts
	.align	4
flag_keep_static_consts:
	.long	1                       # 0x1
	.size	flag_keep_static_consts, 4

	.type	flag_gen_aux_info,@object # @flag_gen_aux_info
	.bss
	.globl	flag_gen_aux_info
	.align	4
flag_gen_aux_info:
	.long	0                       # 0x0
	.size	flag_gen_aux_info, 4

	.type	flag_unwind_tables,@object # @flag_unwind_tables
	.globl	flag_unwind_tables
	.align	4
flag_unwind_tables:
	.long	0                       # 0x0
	.size	flag_unwind_tables, 4

	.type	flag_asynchronous_unwind_tables,@object # @flag_asynchronous_unwind_tables
	.globl	flag_asynchronous_unwind_tables
	.align	4
flag_asynchronous_unwind_tables:
	.long	0                       # 0x0
	.size	flag_asynchronous_unwind_tables, 4

	.type	flag_pedantic_errors,@object # @flag_pedantic_errors
	.globl	flag_pedantic_errors
	.align	4
flag_pedantic_errors:
	.long	0                       # 0x0
	.size	flag_pedantic_errors, 4

	.type	flag_schedule_insns,@object # @flag_schedule_insns
	.globl	flag_schedule_insns
	.align	4
flag_schedule_insns:
	.long	0                       # 0x0
	.size	flag_schedule_insns, 4

	.type	flag_schedule_insns_after_reload,@object # @flag_schedule_insns_after_reload
	.globl	flag_schedule_insns_after_reload
	.align	4
flag_schedule_insns_after_reload:
	.long	0                       # 0x0
	.size	flag_schedule_insns_after_reload, 4

	.type	flag_schedule_interblock,@object # @flag_schedule_interblock
	.data
	.globl	flag_schedule_interblock
	.align	4
flag_schedule_interblock:
	.long	1                       # 0x1
	.size	flag_schedule_interblock, 4

	.type	flag_schedule_speculative,@object # @flag_schedule_speculative
	.globl	flag_schedule_speculative
	.align	4
flag_schedule_speculative:
	.long	1                       # 0x1
	.size	flag_schedule_speculative, 4

	.type	flag_schedule_speculative_load,@object # @flag_schedule_speculative_load
	.bss
	.globl	flag_schedule_speculative_load
	.align	4
flag_schedule_speculative_load:
	.long	0                       # 0x0
	.size	flag_schedule_speculative_load, 4

	.type	flag_schedule_speculative_load_dangerous,@object # @flag_schedule_speculative_load_dangerous
	.globl	flag_schedule_speculative_load_dangerous
	.align	4
flag_schedule_speculative_load_dangerous:
	.long	0                       # 0x0
	.size	flag_schedule_speculative_load_dangerous, 4

	.type	flag_branch_on_count_reg,@object # @flag_branch_on_count_reg
	.data
	.globl	flag_branch_on_count_reg
	.align	4
flag_branch_on_count_reg:
	.long	1                       # 0x1
	.size	flag_branch_on_count_reg, 4

	.type	flag_inhibit_size_directive,@object # @flag_inhibit_size_directive
	.bss
	.globl	flag_inhibit_size_directive
	.align	4
flag_inhibit_size_directive:
	.long	0                       # 0x0
	.size	flag_inhibit_size_directive, 4

	.type	flag_verbose_asm,@object # @flag_verbose_asm
	.globl	flag_verbose_asm
	.align	4
flag_verbose_asm:
	.long	0                       # 0x0
	.size	flag_verbose_asm, 4

	.type	flag_debug_asm,@object  # @flag_debug_asm
	.globl	flag_debug_asm
	.align	4
flag_debug_asm:
	.long	0                       # 0x0
	.size	flag_debug_asm, 4

	.type	flag_dump_rtl_in_asm,@object # @flag_dump_rtl_in_asm
	.globl	flag_dump_rtl_in_asm
	.align	4
flag_dump_rtl_in_asm:
	.long	0                       # 0x0
	.size	flag_dump_rtl_in_asm, 4

	.type	flag_gnu_linker,@object # @flag_gnu_linker
	.data
	.globl	flag_gnu_linker
	.align	4
flag_gnu_linker:
	.long	1                       # 0x1
	.size	flag_gnu_linker, 4

	.type	flag_ssa,@object        # @flag_ssa
	.globl	flag_ssa
	.align	4
flag_ssa:
	.long	1                       # 0x1
	.size	flag_ssa, 4

	.type	flag_ssa_ccp,@object    # @flag_ssa_ccp
	.bss
	.globl	flag_ssa_ccp
	.align	4
flag_ssa_ccp:
	.long	0                       # 0x0
	.size	flag_ssa_ccp, 4

	.type	flag_ssa_dce,@object    # @flag_ssa_dce
	.data
	.globl	flag_ssa_dce
	.align	4
flag_ssa_dce:
	.long	1                       # 0x1
	.size	flag_ssa_dce, 4

	.type	flag_pack_struct,@object # @flag_pack_struct
	.bss
	.globl	flag_pack_struct
	.align	4
flag_pack_struct:
	.long	0                       # 0x0
	.size	flag_pack_struct, 4

	.type	flag_argument_noalias,@object # @flag_argument_noalias
	.globl	flag_argument_noalias
	.align	4
flag_argument_noalias:
	.long	0                       # 0x0
	.size	flag_argument_noalias, 4

	.type	flag_strict_aliasing,@object # @flag_strict_aliasing
	.globl	flag_strict_aliasing
	.align	4
flag_strict_aliasing:
	.long	0                       # 0x0
	.size	flag_strict_aliasing, 4

	.type	flag_instrument_function_entry_exit,@object # @flag_instrument_function_entry_exit
	.globl	flag_instrument_function_entry_exit
	.align	4
flag_instrument_function_entry_exit:
	.long	0                       # 0x0
	.size	flag_instrument_function_entry_exit, 4

	.type	flag_no_ident,@object   # @flag_no_ident
	.globl	flag_no_ident
	.align	4
flag_no_ident:
	.long	0                       # 0x0
	.size	flag_no_ident, 4

	.type	flag_peephole2,@object  # @flag_peephole2
	.globl	flag_peephole2
	.align	4
flag_peephole2:
	.long	0                       # 0x0
	.size	flag_peephole2, 4

	.type	flag_guess_branch_prob,@object # @flag_guess_branch_prob
	.globl	flag_guess_branch_prob
	.align	4
flag_guess_branch_prob:
	.long	0                       # 0x0
	.size	flag_guess_branch_prob, 4

	.type	flag_bounded_pointers,@object # @flag_bounded_pointers
	.globl	flag_bounded_pointers
	.align	4
flag_bounded_pointers:
	.long	0                       # 0x0
	.size	flag_bounded_pointers, 4

	.type	flag_bounds_check,@object # @flag_bounds_check
	.globl	flag_bounds_check
	.align	4
flag_bounds_check:
	.long	0                       # 0x0
	.size	flag_bounds_check, 4

	.type	flag_merge_constants,@object # @flag_merge_constants
	.data
	.globl	flag_merge_constants
	.align	4
flag_merge_constants:
	.long	1                       # 0x1
	.size	flag_merge_constants, 4

	.type	flag_renumber_insns,@object # @flag_renumber_insns
	.globl	flag_renumber_insns
	.align	4
flag_renumber_insns:
	.long	1                       # 0x1
	.size	flag_renumber_insns, 4

	.type	flag_trapv,@object      # @flag_trapv
	.bss
	.globl	flag_trapv
	.align	4
flag_trapv:
	.long	0                       # 0x0
	.size	flag_trapv, 4

	.type	flag_leading_underscore,@object # @flag_leading_underscore
	.data
	.globl	flag_leading_underscore
	.align	4
flag_leading_underscore:
	.long	4294967295              # 0xffffffff
	.size	flag_leading_underscore, 4

	.type	inhibit_warnings,@object # @inhibit_warnings
	.bss
	.globl	inhibit_warnings
	.align	4
inhibit_warnings:
	.long	0                       # 0x0
	.size	inhibit_warnings, 4

	.type	warn_system_headers,@object # @warn_system_headers
	.globl	warn_system_headers
	.align	4
warn_system_headers:
	.long	0                       # 0x0
	.size	warn_system_headers, 4

	.type	extra_warnings,@object  # @extra_warnings
	.globl	extra_warnings
	.align	4
extra_warnings:
	.long	0                       # 0x0
	.size	extra_warnings, 4

	.type	warnings_are_errors,@object # @warnings_are_errors
	.globl	warnings_are_errors
	.align	4
warnings_are_errors:
	.long	0                       # 0x0
	.size	warnings_are_errors, 4

	.type	warn_deprecated_decl,@object # @warn_deprecated_decl
	.data
	.globl	warn_deprecated_decl
	.align	4
warn_deprecated_decl:
	.long	1                       # 0x1
	.size	warn_deprecated_decl, 4

	.type	warn_unused_function,@object # @warn_unused_function
	.comm	warn_unused_function,4,4
	.type	warn_unused_label,@object # @warn_unused_label
	.comm	warn_unused_label,4,4
	.type	warn_unused_parameter,@object # @warn_unused_parameter
	.comm	warn_unused_parameter,4,4
	.type	warn_unused_variable,@object # @warn_unused_variable
